; Listing generated by Microsoft (R) Optimizing Compiler Version 13.10.6030 

	TITLE	.\tlord.cpp
	.386P
include listing.inc
if @Version gt 510
.model FLAT
else
_TEXT	SEGMENT PARA USE32 PUBLIC 'CODE'
_TEXT	ENDS
_DATA	SEGMENT DWORD USE32 PUBLIC 'DATA'
_DATA	ENDS
CONST	SEGMENT DWORD USE32 PUBLIC 'CONST'
CONST	ENDS
_BSS	SEGMENT DWORD USE32 PUBLIC 'BSS'
_BSS	ENDS
$$SYMBOLS	SEGMENT BYTE USE32 'DEBSYM'
$$SYMBOLS	ENDS
_TLS	SEGMENT DWORD USE32 PUBLIC 'TLS'
_TLS	ENDS
;	COMDAT ??_C@_0BC@MOGJFHKK@tr1?3?3bad_weak_ptr?$AA@
CONST	SEGMENT DWORD USE32 PUBLIC 'CONST'
CONST	ENDS
;	COMDAT ??_C@_0BD@IOHNFIBA@SetLOD?5?3?5lv?$DN?$CFd?0?5?$CFs?$AA@
CONST	SEGMENT DWORD USE32 PUBLIC 'CONST'
CONST	ENDS
;	COMDAT ??_C@_02PCIJFNDE@?$AN?6?$AA@
CONST	SEGMENT DWORD USE32 PUBLIC 'CONST'
CONST	ENDS
;	COMDAT ??_C@_01DNKMNLPK@?$HM?$AA@
CONST	SEGMENT DWORD USE32 PUBLIC 'CONST'
CONST	ENDS
;	COMDAT ??_C@_0N@MMPBPIHN@election?4inc?$AA@
CONST	SEGMENT DWORD USE32 PUBLIC 'CONST'
CONST	ENDS
;	COMDAT ??_C@_0O@NKJDDJPP@lordevent?4inc?$AA@
CONST	SEGMENT DWORD USE32 PUBLIC 'CONST'
CONST	ENDS
;	COMDAT ??_C@_0O@DNECDNPA@lordskill?4txt?$AA@
CONST	SEGMENT DWORD USE32 PUBLIC 'CONST'
CONST	ENDS
;	COMDAT ??_C@_0BI@GMEIIJGO@CTLord?4CreateColleagues?$AA@
CONST	SEGMENT DWORD USE32 PUBLIC 'CONST'
CONST	ENDS
;	COMDAT ??_C@_0BC@MCPIBNBK@uspRestoreLord?5?$CFd?$AA@
CONST	SEGMENT DWORD USE32 PUBLIC 'CONST'
CONST	ENDS
;	COMDAT ??_C@_06EHHKCEHL@idLord?$AA@
CONST	SEGMENT DWORD USE32 PUBLIC 'CONST'
CONST	ENDS
;	COMDAT ??_C@_0DL@DADIAAPI@CTElection?3?3Initialize?$CI?$CJ?3?5LoadSc@
CONST	SEGMENT DWORD USE32 PUBLIC 'CONST'
CONST	ENDS
;	COMDAT ??_C@_08EMBNBNLN@property?$AA@
CONST	SEGMENT DWORD USE32 PUBLIC 'CONST'
CONST	ENDS
;	COMDAT ??_C@_0L@NLLMANDB@nDayOfWeek?$AA@
CONST	SEGMENT DWORD USE32 PUBLIC 'CONST'
CONST	ENDS
;	COMDAT ??_C@_05DIDGHFGE@nHour?$AA@
CONST	SEGMENT DWORD USE32 PUBLIC 'CONST'
CONST	ENDS
;	COMDAT ??_C@_0L@CKDBDEOG@tCandidacy?$AA@
CONST	SEGMENT DWORD USE32 PUBLIC 'CONST'
CONST	ENDS
;	COMDAT ??_C@_05EBOKJDNL@tVote?$AA@
CONST	SEGMENT DWORD USE32 PUBLIC 'CONST'
CONST	ENDS
;	COMDAT ??_C@_05NBICHHD@nDays?$AA@
CONST	SEGMENT DWORD USE32 PUBLIC 'CONST'
CONST	ENDS
;	COMDAT ??_C@_04HCCHHEEF@rate?$AA@
CONST	SEGMENT DWORD USE32 PUBLIC 'CONST'
CONST	ENDS
;	COMDAT ??_C@_0BD@FJBKFPAD@fRequirementFactor?$AA@
CONST	SEGMENT DWORD USE32 PUBLIC 'CONST'
CONST	ENDS
;	COMDAT ??_C@_04NHONDGDE@item?$AA@
CONST	SEGMENT DWORD USE32 PUBLIC 'CONST'
CONST	ENDS
;	COMDAT ??_C@_0N@BNMNAMM@?$CFY?$CFm?$CFd?$CFH?$CFM?$CFS?$AA@
CONST	SEGMENT DWORD USE32 PUBLIC 'CONST'
CONST	ENDS
;	COMDAT ??_C@_0BE@HLJDCBPH@CTElection?4stot?3?5?$CFs?$AA@
CONST	SEGMENT DWORD USE32 PUBLIC 'CONST'
CONST	ENDS
;	COMDAT ??_C@_0BG@KGCKLKHB@uspRestoreElection?5?$CFd?$AA@
CONST	SEGMENT DWORD USE32 PUBLIC 'CONST'
CONST	ENDS
;	COMDAT ??_C@_0L@NBMLJLBM@idElection?$AA@
CONST	SEGMENT DWORD USE32 PUBLIC 'CONST'
CONST	ENDS
;	COMDAT ??_C@_06PFLNLAJN@eState?$AA@
CONST	SEGMENT DWORD USE32 PUBLIC 'CONST'
CONST	ENDS
;	COMDAT ??_C@_0N@NOMIPDCI@nRequirement?$AA@
CONST	SEGMENT DWORD USE32 PUBLIC 'CONST'
CONST	ENDS
;	COMDAT ??_C@_07PJNBBDOG@szBegin?$AA@
CONST	SEGMENT DWORD USE32 PUBLIC 'CONST'
CONST	ENDS
;	COMDAT ??_C@_0BM@CHJPNMJK@uspRestoreCandidates?5?$CFd?0?5?$CFd?$AA@
CONST	SEGMENT DWORD USE32 PUBLIC 'CONST'
CONST	ENDS
;	COMDAT ??_C@_0CG@GCHADNNB@couldn?8t?5execute?5uspRestoreCandi@
CONST	SEGMENT DWORD USE32 PUBLIC 'CONST'
CONST	ENDS
;	COMDAT ??_C@_08EPHCN@idPlayer?$AA@
CONST	SEGMENT DWORD USE32 PUBLIC 'CONST'
CONST	ENDS
;	COMDAT ??_C@_08PIPANNIJ@iDeposit?$AA@
CONST	SEGMENT DWORD USE32 PUBLIC 'CONST'
CONST	ENDS
;	COMDAT ??_C@_08BCPGFKB@szPledge?$AA@
CONST	SEGMENT DWORD USE32 PUBLIC 'CONST'
CONST	ENDS
;	COMDAT ??_C@_05ODKHLCCG@nVote?$AA@
CONST	SEGMENT DWORD USE32 PUBLIC 'CONST'
CONST	ENDS
;	COMDAT ??_C@_07BIPEELOH@tCreate?$AA@
CONST	SEGMENT DWORD USE32 PUBLIC 'CONST'
CONST	ENDS
;	COMDAT ??_C@_0CB@FCFJFKNF@uspElectionInitialize?5?$CFd?0?5?$CFd?0?5?$CFs@
CONST	SEGMENT DWORD USE32 PUBLIC 'CONST'
CONST	ENDS
;	COMDAT ??_C@_0CH@LCMLFLCE@couldn?8t?5execute?5uspElectionInit@
CONST	SEGMENT DWORD USE32 PUBLIC 'CONST'
CONST	ENDS
;	COMDAT ??_C@_0CA@EFGOLAFI@CTElection?4DoTestBeginCandidacy?$AA@
CONST	SEGMENT DWORD USE32 PUBLIC 'CONST'
CONST	ENDS
;	COMDAT ??_C@_0BP@DDPAGKOB@uspElectionLeaveOut?5?$CFd?0?5?$CFd?0?5?$CFd?$AA@
CONST	SEGMENT DWORD USE32 PUBLIC 'CONST'
CONST	ENDS
;	COMDAT ??_C@_0CF@DMMBMGJN@couldn?8t?5execute?5uspElectionLeav@
CONST	SEGMENT DWORD USE32 PUBLIC 'CONST'
CONST	ENDS
;	COMDAT ??_C@_0BL@GDEBELLG@CTElection?4DoReturnDeposit?$AA@
CONST	SEGMENT DWORD USE32 PUBLIC 'CONST'
CONST	ENDS
;	COMDAT ??_C@_0BL@LMGPGHGD@CTElection?4DoTestBeginVote?$AA@
CONST	SEGMENT DWORD USE32 PUBLIC 'CONST'
CONST	ENDS
;	COMDAT ??_C@_0BJ@NBOADCDH@CTElection?4DoTestEndVote?$AA@
CONST	SEGMENT DWORD USE32 PUBLIC 'CONST'
CONST	ENDS
;	COMDAT ??_C@_0CN@IFFHNJAO@CTElection?4DoTestAddDeposit?3?5?$CF07@
CONST	SEGMENT DWORD USE32 PUBLIC 'CONST'
CONST	ENDS
;	COMDAT ??_C@_0CF@EBIGHEOA@CTElection?4DoTestSetPledge?3?5?$CF07d@
CONST	SEGMENT DWORD USE32 PUBLIC 'CONST'
CONST	ENDS
;	COMDAT ??_C@_0CF@GEOBODGJ@CTElection?4DoTestIncVote?3?5?$CF07d?0?5@
CONST	SEGMENT DWORD USE32 PUBLIC 'CONST'
CONST	ENDS
;	COMDAT ??_C@_0BE@PNIJDBCM@uspRestoreLEvent?5?$CFd?$AA@
CONST	SEGMENT DWORD USE32 PUBLIC 'CONST'
CONST	ENDS
;	COMDAT ??_C@_05DLOGCGOB@nTick?$AA@
CONST	SEGMENT DWORD USE32 PUBLIC 'CONST'
CONST	ENDS
;	COMDAT ??_C@_08NHMMOOHF@fEFactor?$AA@
CONST	SEGMENT DWORD USE32 PUBLIC 'CONST'
CONST	ENDS
;	COMDAT ??_C@_08IAGDPLDK@fIFactor?$AA@
CONST	SEGMENT DWORD USE32 PUBLIC 'CONST'
CONST	ENDS
;	COMDAT ??_C@_0CB@IFBIPCGL@uspElectionBeginCandidacy?5?$CFd?0?5?$CFd@
CONST	SEGMENT DWORD USE32 PUBLIC 'CONST'
CONST	ENDS
;	COMDAT ??_C@_0BM@CADCBIMM@uspElectionBeginVote?5?$CFd?0?5?$CFd?$AA@
CONST	SEGMENT DWORD USE32 PUBLIC 'CONST'
CONST	ENDS
;	COMDAT ??_C@_0CC@KFNJJIIE@uspElectionEndVote?5?$CFd?0?5?$CFd?0?5?$CFd?0?5?$CF@
CONST	SEGMENT DWORD USE32 PUBLIC 'CONST'
CONST	ENDS
;	COMDAT ??_C@_0CM@MKKLKFBM@uspElectionAddDeposit?5?$CFd?0?5?$CFd?0?5?$CFd@
CONST	SEGMENT DWORD USE32 PUBLIC 'CONST'
CONST	ENDS
;	COMDAT ??_C@_0CN@DFOIGMEI@?$HLcall?5uspElectionSetPledge?$CI?5?$CFd?0?5@
CONST	SEGMENT DWORD USE32 PUBLIC 'CONST'
CONST	ENDS
;	COMDAT ??_C@_0CC@MJFIHIPP@uspElectionIncVote?5?$CFd?0?5?$CFd?0?5?$CFd?0?5?$CF@
CONST	SEGMENT DWORD USE32 PUBLIC 'CONST'
CONST	ENDS
;	COMDAT ??_C@_07MGNKFCA@bResult?$AA@
CONST	SEGMENT DWORD USE32 PUBLIC 'CONST'
CONST	ENDS
;	COMDAT ??_C@_0CL@KGJPMKPI@uspAddLEComponent?5?$CFd?0?5?$CFd?0?5?$CFd?0?5?$CF3@
CONST	SEGMENT DWORD USE32 PUBLIC 'CONST'
CONST	ENDS
;	COMDAT ??_C@_0BH@NILKABO@uspInitializeLEvent?5?$CFd?$AA@
CONST	SEGMENT DWORD USE32 PUBLIC 'CONST'
CONST	ENDS
;	COMDAT ??_C@_0BM@PHMEBJEL@uspLordSkillTick?5?$CFd?0?5?$CFd?0?5?$CFd?$AA@
CONST	SEGMENT DWORD USE32 PUBLIC 'CONST'
CONST	ENDS
;	COMDAT ??_C@_0BM@INGAOOO@uspLordEventTick?5?$CFd?0?5?$CFd?0?5?$CFd?$AA@
CONST	SEGMENT DWORD USE32 PUBLIC 'CONST'
CONST	ENDS
;	COMDAT ??_C@_0BH@OCAHAJDB@uspRestoreLordSkill?5?$CFd?$AA@
CONST	SEGMENT DWORD USE32 PUBLIC 'CONST'
CONST	ENDS
;	COMDAT ??_C@_06BDEJIFFK@nSkill?$AA@
CONST	SEGMENT DWORD USE32 PUBLIC 'CONST'
CONST	ENDS
text$yd	SEGMENT PARA USE32 PUBLIC 'CODE'
text$yd	ENDS
xdata$x	SEGMENT DWORD USE32 PUBLIC 'CONST'
xdata$x	ENDS
;	COMDAT ?what@bad_weak_ptr@boost@@UBEPBDXZ
_TEXT	SEGMENT PARA USE32 PUBLIC 'CODE'
_TEXT	ENDS
;	COMDAT ??1sp_counted_base@detail@boost@@UAE@XZ
_TEXT	SEGMENT PARA USE32 PUBLIC 'CODE'
_TEXT	ENDS
;	COMDAT ?destroy@sp_counted_base@detail@boost@@UAEXXZ
_TEXT	SEGMENT PARA USE32 PUBLIC 'CODE'
_TEXT	ENDS
;	COMDAT ?add_ref_copy@sp_counted_base@detail@boost@@QAEXXZ
_TEXT	SEGMENT PARA USE32 PUBLIC 'CODE'
_TEXT	ENDS
;	COMDAT ?add_ref_lock@sp_counted_base@detail@boost@@QAE_NXZ
_TEXT	SEGMENT PARA USE32 PUBLIC 'CODE'
_TEXT	ENDS
;	COMDAT ?release@sp_counted_base@detail@boost@@QAEXXZ
_TEXT	SEGMENT PARA USE32 PUBLIC 'CODE'
_TEXT	ENDS
;	COMDAT ?weak_add_ref@sp_counted_base@detail@boost@@QAEXXZ
_TEXT	SEGMENT PARA USE32 PUBLIC 'CODE'
_TEXT	ENDS
;	COMDAT ?weak_release@sp_counted_base@detail@boost@@QAEXXZ
_TEXT	SEGMENT PARA USE32 PUBLIC 'CODE'
_TEXT	ENDS
;	COMDAT ?use_count@sp_counted_base@detail@boost@@QBEJXZ
_TEXT	SEGMENT PARA USE32 PUBLIC 'CODE'
_TEXT	ENDS
;	COMDAT ??_Gsp_counted_base@detail@boost@@UAEPAXI@Z
_TEXT	SEGMENT PARA USE32 PUBLIC 'CODE'
_TEXT	ENDS
;	COMDAT ?use_count@shared_count@detail@boost@@QBEJXZ
_TEXT	SEGMENT PARA USE32 PUBLIC 'CODE'
_TEXT	ENDS
;	COMDAT ??0bad_weak_ptr@boost@@QAE@XZ
_TEXT	SEGMENT PARA USE32 PUBLIC 'CODE'
_TEXT	ENDS
;	COMDAT ??1bad_weak_ptr@boost@@UAE@XZ
_TEXT	SEGMENT PARA USE32 PUBLIC 'CODE'
_TEXT	ENDS
;	COMDAT ??_Gbad_weak_ptr@boost@@UAEPAXI@Z
_TEXT	SEGMENT PARA USE32 PUBLIC 'CODE'
_TEXT	ENDS
;	COMDAT ?GetId@CLordSkillComponent@@QAEHXZ
_TEXT	SEGMENT PARA USE32 PUBLIC 'CODE'
_TEXT	ENDS
;	COMDAT ?GetCooltime@CLordSkillComponent@@QAEHXZ
_TEXT	SEGMENT PARA USE32 PUBLIC 'CODE'
_TEXT	ENDS
;	COMDAT ?GetTick@CLordSkillComponent@@QAEHXZ
_TEXT	SEGMENT PARA USE32 PUBLIC 'CODE'
_TEXT	ENDS
;	COMDAT ?SetTick@CLordSkillComponent@@QAEXH@Z
_TEXT	SEGMENT PARA USE32 PUBLIC 'CODE'
_TEXT	ENDS
;	COMDAT ??1CLordSkillComponentExecutable@@UAE@XZ
_TEXT	SEGMENT PARA USE32 PUBLIC 'CODE'
_TEXT	ENDS
;	COMDAT ?Use@CLordSkillComponentExecutable@@IAEXXZ
_TEXT	SEGMENT PARA USE32 PUBLIC 'CODE'
_TEXT	ENDS
;	COMDAT ?Execute@CLordSkillComponentExecutable@@UAEXKKPAX@Z
_TEXT	SEGMENT PARA USE32 PUBLIC 'CODE'
_TEXT	ENDS
;	COMDAT ??_GCLordSkillComponentExecutable@@UAEPAXI@Z
_TEXT	SEGMENT PARA USE32 PUBLIC 'CODE'
_TEXT	ENDS
;	COMDAT ?GetIdPlayer@CCandidate@@QAEKXZ
_TEXT	SEGMENT PARA USE32 PUBLIC 'CODE'
_TEXT	ENDS
;	COMDAT ?GetDeposit@CCandidate@@QBE_JXZ
_TEXT	SEGMENT PARA USE32 PUBLIC 'CODE'
_TEXT	ENDS
;	COMDAT ?GetVote@CCandidate@@QAEHXZ
_TEXT	SEGMENT PARA USE32 PUBLIC 'CODE'
_TEXT	ENDS
;	COMDAT ?GetCreate@CCandidate@@QAEJXZ
_TEXT	SEGMENT PARA USE32 PUBLIC 'CODE'
_TEXT	ENDS
;	COMDAT ?GetId@IElection@@QAEKXZ
_TEXT	SEGMENT PARA USE32 PUBLIC 'CODE'
_TEXT	ENDS
;	COMDAT ?SetState@IElection@@QAEXW4ELECTION_STATE@1@@Z
_TEXT	SEGMENT PARA USE32 PUBLIC 'CODE'
_TEXT	ENDS
;	COMDAT ?GetState@IElection@@QAE?AW4ELECTION_STATE@1@XZ
_TEXT	SEGMENT PARA USE32 PUBLIC 'CODE'
_TEXT	ENDS
;	COMDAT ?SetBegin@IElection@@QAEXJ@Z
_TEXT	SEGMENT PARA USE32 PUBLIC 'CODE'
_TEXT	ENDS
;	COMDAT ?GetBegin@IElection@@QAEJXZ
_TEXT	SEGMENT PARA USE32 PUBLIC 'CODE'
_TEXT	ENDS
;	COMDAT ?DoSetPlegeComplete@IElection@@MAEXXZ
_TEXT	SEGMENT PARA USE32 PUBLIC 'CODE'
_TEXT	ENDS
;	COMDAT ?DoIncVoteComplete@IElection@@MAEXXZ
_TEXT	SEGMENT PARA USE32 PUBLIC 'CODE'
_TEXT	ENDS
;	COMDAT ?DoEndVoteComplete@IElection@@MAEXXZ
_TEXT	SEGMENT PARA USE32 PUBLIC 'CODE'
_TEXT	ENDS
;	COMDAT ?SetRequirement@IElection@@QAEXH@Z
_TEXT	SEGMENT PARA USE32 PUBLIC 'CODE'
_TEXT	ENDS
;	COMDAT ?GetTick@CLEComponent@@QAEHXZ
_TEXT	SEGMENT PARA USE32 PUBLIC 'CODE'
_TEXT	ENDS
;	COMDAT ?GetIdPlayer@CLEComponent@@QAEKXZ
_TEXT	SEGMENT PARA USE32 PUBLIC 'CODE'
_TEXT	ENDS
;	COMDAT ?GetEFactor@CLEComponent@@QAEMXZ
_TEXT	SEGMENT PARA USE32 PUBLIC 'CODE'
_TEXT	ENDS
;	COMDAT ?GetIFactor@CLEComponent@@QAEMXZ
_TEXT	SEGMENT PARA USE32 PUBLIC 'CODE'
_TEXT	ENDS
;	COMDAT ?Set@CLord@@QAEXK@Z
_TEXT	SEGMENT PARA USE32 PUBLIC 'CODE'
_TEXT	ENDS
;	COMDAT ?GetElection@CLord@@QAEPAVIElection@@XZ
_TEXT	SEGMENT PARA USE32 PUBLIC 'CODE'
_TEXT	ENDS
;	COMDAT ?GetEvent@CLord@@QAEPAVILordEvent@@XZ
_TEXT	SEGMENT PARA USE32 PUBLIC 'CODE'
_TEXT	ENDS
;	COMDAT ?GetSkills@CLord@@QAEPAVCLordSkill@@XZ
_TEXT	SEGMENT PARA USE32 PUBLIC 'CODE'
_TEXT	ENDS
;	COMDAT ?GetQueryObject@CDbController@@QAEPAVCQuery@@XZ
_TEXT	SEGMENT PARA USE32 PUBLIC 'CODE'
_TEXT	ENDS
;	COMDAT ?GetController@CTLord@@UAEPAVCLController@@XZ
_TEXT	SEGMENT PARA USE32 PUBLIC 'CODE'
_TEXT	ENDS
;	COMDAT ??0_PostItemStruct@@QAE@XZ
_TEXT	SEGMENT PARA USE32 PUBLIC 'CODE'
_TEXT	ENDS
;	COMDAT ?IsRunable@CTElection@@QAEHXZ
_TEXT	SEGMENT PARA USE32 PUBLIC 'CODE'
_TEXT	ENDS
;	COMDAT ??0PostDeposit@@QAE@PAVCQuery@@@Z
_TEXT	SEGMENT PARA USE32 PUBLIC 'CODE'
_TEXT	ENDS
;	COMDAT ??0CTLord@@QAE@XZ
_TEXT	SEGMENT PARA USE32 PUBLIC 'CODE'
_TEXT	ENDS
;	COMDAT ??_GCTLord@@UAEPAXI@Z
_TEXT	SEGMENT PARA USE32 PUBLIC 'CODE'
_TEXT	ENDS
;	COMDAT ??1CTLord@@UAE@XZ
_TEXT	SEGMENT PARA USE32 PUBLIC 'CODE'
_TEXT	ENDS
;	COMDAT ?CreateColleagues@CTLord@@UAEXXZ
_TEXT	SEGMENT PARA USE32 PUBLIC 'CODE'
_TEXT	ENDS
;	COMDAT ?DestroyColleagues@CTLord@@UAEXXZ
_TEXT	SEGMENT PARA USE32 PUBLIC 'CODE'
_TEXT	ENDS
;	COMDAT ?Instance@CTLord@@SAPAV1@XZ
_TEXT	SEGMENT PARA USE32 PUBLIC 'CODE'
_TEXT	ENDS
;	COMDAT _$E2
text$yd	SEGMENT PARA USE32 PUBLIC 'CODE'
text$yd	ENDS
;	COMDAT ?PostRequest@CTLord@@QAEHHPAEHK@Z
_TEXT	SEGMENT PARA USE32 PUBLIC 'CODE'
_TEXT	ENDS
;	COMDAT ?Handler@CTLord@@QAEXPAUtagDB_OVERLAPPED_PLUS@@K@Z
_TEXT	SEGMENT PARA USE32 PUBLIC 'CODE'
_TEXT	ENDS
;	COMDAT ?OnTimer@CTLord@@QAEXXZ
_TEXT	SEGMENT PARA USE32 PUBLIC 'CODE'
_TEXT	ENDS
;	COMDAT ?RestoreAll@CTLord@@QAEHXZ
_TEXT	SEGMENT PARA USE32 PUBLIC 'CODE'
_TEXT	ENDS
;	COMDAT ?Restore@CTLord@@QAEHPAVCQuery@@@Z
_TEXT	SEGMENT PARA USE32 PUBLIC 'CODE'
_TEXT	ENDS
;	COMDAT ??0CTElection@@QAE@PAVCLord@@@Z
_TEXT	SEGMENT PARA USE32 PUBLIC 'CODE'
_TEXT	ENDS
;	COMDAT ??_GCTElection@@UAEPAXI@Z
_TEXT	SEGMENT PARA USE32 PUBLIC 'CODE'
_TEXT	ENDS
;	COMDAT ??1CTElection@@UAE@XZ
_TEXT	SEGMENT PARA USE32 PUBLIC 'CODE'
_TEXT	ENDS
;	COMDAT ?Initialize@CTElection@@QAEHPBD@Z
_TEXT	SEGMENT PARA USE32 PUBLIC 'CODE'
_TEXT	ENDS
;	COMDAT ?ReadIni@CTElection@@AAEHPBD@Z
_TEXT	SEGMENT PARA USE32 PUBLIC 'CODE'
_TEXT	ENDS
;	COMDAT ?ttos@CTElection@@SA?AV?$CStringT@DV?$StrTraitMFC@DV?$ChTraitsCRT@D@ATL@@@@@ATL@@J@Z
_TEXT	SEGMENT PARA USE32 PUBLIC 'CODE'
_TEXT	ENDS
;	COMDAT ?stot@CTElection@@SAJPBD@Z
_TEXT	SEGMENT PARA USE32 PUBLIC 'CODE'
_TEXT	ENDS
;	COMDAT ?Restore@CTElection@@QAEHPAVCQuery@@@Z
_TEXT	SEGMENT PARA USE32 PUBLIC 'CODE'
_TEXT	ENDS
;	COMDAT ?GetRetRate@CTElection@@QAEMK@Z
_TEXT	SEGMENT PARA USE32 PUBLIC 'CODE'
_TEXT	ENDS
;	COMDAT ?DoTestBeginCandidacy@CTElection@@MAEHXZ
_TEXT	SEGMENT PARA USE32 PUBLIC 'CODE'
_TEXT	ENDS
;	COMDAT ??RPostDeposit@@QBEXABV?$shared_ptr@VCCandidate@@@boost@@@Z
_TEXT	SEGMENT PARA USE32 PUBLIC 'CODE'
_TEXT	ENDS
;	COMDAT ?DoReturnDeposit@CTElection@@MAEXXZ
_TEXT	SEGMENT PARA USE32 PUBLIC 'CODE'
_TEXT	ENDS
;	COMDAT ?DoTestBeginVote@CTElection@@MAEHAAH@Z
_TEXT	SEGMENT PARA USE32 PUBLIC 'CODE'
_TEXT	ENDS
;	COMDAT ?DoTestEndVote@CTElection@@MAEHK@Z
_TEXT	SEGMENT PARA USE32 PUBLIC 'CODE'
_TEXT	ENDS
;	COMDAT ?PostDepositToAllCandidate@CTElection@@AAEXXZ
_TEXT	SEGMENT PARA USE32 PUBLIC 'CODE'
_TEXT	ENDS
;	COMDAT ?DoTestAddDeposit@CTElection@@MAEHK_JJ@Z
_TEXT	SEGMENT PARA USE32 PUBLIC 'CODE'
_TEXT	ENDS
;	COMDAT ?DoAddDepositComplete@CTElection@@MAEXK_JJ@Z
_TEXT	SEGMENT PARA USE32 PUBLIC 'CODE'
_TEXT	ENDS
;	COMDAT ?DoTestSetPledge@CTElection@@MAEHKPBD@Z
_TEXT	SEGMENT PARA USE32 PUBLIC 'CODE'
_TEXT	ENDS
;	COMDAT ?DoTestIncVote@CTElection@@MAEHKK@Z
_TEXT	SEGMENT PARA USE32 PUBLIC 'CODE'
_TEXT	ENDS
;	COMDAT ?PostLordItems@CTElection@@AAEXK@Z
_TEXT	SEGMENT PARA USE32 PUBLIC 'CODE'
_TEXT	ENDS
;	COMDAT ?PostItem@CTElection@@AAEXKAAU_PostItemStruct@@@Z
_TEXT	SEGMENT PARA USE32 PUBLIC 'CODE'
_TEXT	ENDS
;	COMDAT ?OnTimer@CTElection@@QAEXXZ
_TEXT	SEGMENT PARA USE32 PUBLIC 'CODE'
_TEXT	ENDS
;	COMDAT ??0CLEvent@@QAE@PAVCLord@@@Z
_TEXT	SEGMENT PARA USE32 PUBLIC 'CODE'
_TEXT	ENDS
;	COMDAT ??_GCLEvent@@UAEPAXI@Z
_TEXT	SEGMENT PARA USE32 PUBLIC 'CODE'
_TEXT	ENDS
;	COMDAT ??1CLEvent@@UAE@XZ
_TEXT	SEGMENT PARA USE32 PUBLIC 'CODE'
_TEXT	ENDS
;	COMDAT ?Restore@CLEvent@@QAEHPAVCQuery@@@Z
_TEXT	SEGMENT PARA USE32 PUBLIC 'CODE'
_TEXT	ENDS
;	COMDAT ?OnTimer@CLEvent@@QAEXXZ
_TEXT	SEGMENT PARA USE32 PUBLIC 'CODE'
_TEXT	ENDS
;	COMDAT ?DecrementAllComponentTick@CLEvent@@IAEHXZ
_TEXT	SEGMENT PARA USE32 PUBLIC 'CODE'
_TEXT	ENDS
;	COMDAT ?DoTestAddComponent@CLEvent@@MAEHPAVCLEComponent@@@Z
_TEXT	SEGMENT PARA USE32 PUBLIC 'CODE'
_TEXT	ENDS
;	COMDAT ?DoTestInitialize@CLEvent@@MAEHXZ
_TEXT	SEGMENT PARA USE32 PUBLIC 'CODE'
_TEXT	ENDS
;	COMDAT ??0CLController@@QAE@PAVCTLord@@@Z
_TEXT	SEGMENT PARA USE32 PUBLIC 'CODE'
_TEXT	ENDS
;	COMDAT ??_GCLController@@UAEPAXI@Z
_TEXT	SEGMENT PARA USE32 PUBLIC 'CODE'
_TEXT	ENDS
;	COMDAT ??1CLController@@UAE@XZ
_TEXT	SEGMENT PARA USE32 PUBLIC 'CODE'
_TEXT	ENDS
;	COMDAT ?Handler@CLController@@UAEXPAUtagDB_OVERLAPPED_PLUS@@K@Z
_TEXT	SEGMENT PARA USE32 PUBLIC 'CODE'
_TEXT	ENDS
;	COMDAT ?OnTimer@CLController@@UAEXXZ
_TEXT	SEGMENT PARA USE32 PUBLIC 'CODE'
_TEXT	ENDS
;	COMDAT ?Restore@CLController@@QAEHXZ
_TEXT	SEGMENT PARA USE32 PUBLIC 'CODE'
_TEXT	ENDS
;	COMDAT ??_GCQuery@@QAEPAXI@Z
_TEXT	SEGMENT PARA USE32 PUBLIC 'CODE'
_TEXT	ENDS
;	COMDAT ?BeginCandidacy@CLController@@QAEHXZ
_TEXT	SEGMENT PARA USE32 PUBLIC 'CODE'
_TEXT	ENDS
;	COMDAT ?BeginVote@CLController@@QAEHXZ
_TEXT	SEGMENT PARA USE32 PUBLIC 'CODE'
_TEXT	ENDS
;	COMDAT ?EndVote@CLController@@QAEHK@Z
_TEXT	SEGMENT PARA USE32 PUBLIC 'CODE'
_TEXT	ENDS
;	COMDAT ?AddDeposit@CLController@@QAEHK_JJ@Z
_TEXT	SEGMENT PARA USE32 PUBLIC 'CODE'
_TEXT	ENDS
;	COMDAT ?SetPledge@CLController@@QAEHKPBD@Z
_TEXT	SEGMENT PARA USE32 PUBLIC 'CODE'
_TEXT	ENDS
;	COMDAT ?IncVote@CLController@@QAEHKK@Z
_TEXT	SEGMENT PARA USE32 PUBLIC 'CODE'
_TEXT	ENDS
;	COMDAT ?AddLEComponent@CLController@@QAEHPAVCLEComponent@@@Z
_TEXT	SEGMENT PARA USE32 PUBLIC 'CODE'
_TEXT	ENDS
;	COMDAT ?InitializeLEvent@CLController@@QAEHXZ
_TEXT	SEGMENT PARA USE32 PUBLIC 'CODE'
_TEXT	ENDS
;	COMDAT ?UpdateLordSkillTick@CLController@@QAEHPAVCLordSkillComponent@@H@Z
_TEXT	SEGMENT PARA USE32 PUBLIC 'CODE'
_TEXT	ENDS
;	COMDAT ?UpdateLordEventTick@CLController@@QAEHPAVCLEComponent@@@Z
_TEXT	SEGMENT PARA USE32 PUBLIC 'CODE'
_TEXT	ENDS
;	COMDAT ??0CTLordSkill@@QAE@PAVCLord@@@Z
_TEXT	SEGMENT PARA USE32 PUBLIC 'CODE'
_TEXT	ENDS
;	COMDAT ??_GCTLordSkill@@UAEPAXI@Z
_TEXT	SEGMENT PARA USE32 PUBLIC 'CODE'
_TEXT	ENDS
;	COMDAT ??1CTLordSkill@@UAE@XZ
_TEXT	SEGMENT PARA USE32 PUBLIC 'CODE'
_TEXT	ENDS
;	COMDAT ?CreateSkillComponent@CTLordSkill@@UAEPAVCLordSkillComponentExecutable@@H@Z
_TEXT	SEGMENT PARA USE32 PUBLIC 'CODE'
_TEXT	ENDS
;	COMDAT ?Restore@CTLordSkill@@QAEHPAVCQuery@@@Z
_TEXT	SEGMENT PARA USE32 PUBLIC 'CODE'
_TEXT	ENDS
;	COMDAT ?OnTimer@CTLordSkill@@QAEXXZ
_TEXT	SEGMENT PARA USE32 PUBLIC 'CODE'
_TEXT	ENDS
;	COMDAT ?Replace@?$CStringT@DV?$StrTraitMFC@DV?$ChTraitsCRT@D@ATL@@@@@ATL@@QAEHPBD0@Z
_TEXT	SEGMENT PARA USE32 PUBLIC 'CODE'
_TEXT	ENDS
;	COMDAT ??8ATL@@YA_NABV?$CStringT@DV?$StrTraitMFC@DV?$ChTraitsCRT@D@ATL@@@@@0@PBD@Z
_TEXT	SEGMENT PARA USE32 PUBLIC 'CODE'
_TEXT	ENDS
;	COMDAT ?compare@?$basic_string@DU?$char_traits@D@std@@V?$allocator@D@2@@std@@QBEHABV12@@Z
_TEXT	SEGMENT PARA USE32 PUBLIC 'CODE'
_TEXT	ENDS
;	COMDAT ??R?$less@PAVsp_counted_base@detail@boost@@@std@@QBE_NABQAVsp_counted_base@detail@boost@@0@Z
_TEXT	SEGMENT PARA USE32 PUBLIC 'CODE'
_TEXT	ENDS
;	COMDAT ?begin@?$vector@PAVCLordSkillComponentExecutable@@V?$allocator@PAVCLordSkillComponentExecutable@@@std@@@std@@QAE?AViterator@12@XZ
_TEXT	SEGMENT PARA USE32 PUBLIC 'CODE'
_TEXT	ENDS
;	COMDAT ?end@?$vector@PAVCLordSkillComponentExecutable@@V?$allocator@PAVCLordSkillComponentExecutable@@@std@@@std@@QAE?AViterator@12@XZ
_TEXT	SEGMENT PARA USE32 PUBLIC 'CODE'
_TEXT	ENDS
;	COMDAT ?size@?$vector@PAVCLordSkillComponentExecutable@@V?$allocator@PAVCLordSkillComponentExecutable@@@std@@@std@@QBEIXZ
_TEXT	SEGMENT PARA USE32 PUBLIC 'CODE'
_TEXT	ENDS
;	COMDAT ?begin@?$vector@V?$shared_ptr@VCCandidate@@@boost@@V?$allocator@V?$shared_ptr@VCCandidate@@@boost@@@std@@@std@@QAE?AViterator@12@XZ
_TEXT	SEGMENT PARA USE32 PUBLIC 'CODE'
_TEXT	ENDS
;	COMDAT ?end@?$vector@V?$shared_ptr@VCCandidate@@@boost@@V?$allocator@V?$shared_ptr@VCCandidate@@@boost@@@std@@@std@@QAE?AViterator@12@XZ
_TEXT	SEGMENT PARA USE32 PUBLIC 'CODE'
_TEXT	ENDS
;	COMDAT ?size@?$vector@V?$shared_ptr@VCCandidate@@@boost@@V?$allocator@V?$shared_ptr@VCCandidate@@@boost@@@std@@@std@@QBEIXZ
_TEXT	SEGMENT PARA USE32 PUBLIC 'CODE'
_TEXT	ENDS
;	COMDAT ??0?$vector@MV?$allocator@M@std@@@std@@QAE@XZ
_TEXT	SEGMENT PARA USE32 PUBLIC 'CODE'
_TEXT	ENDS
;	COMDAT ??1?$vector@MV?$allocator@M@std@@@std@@QAE@XZ
_TEXT	SEGMENT PARA USE32 PUBLIC 'CODE'
_TEXT	ENDS
;	COMDAT ??A?$vector@MV?$allocator@M@std@@@std@@QAEAAMI@Z
_TEXT	SEGMENT PARA USE32 PUBLIC 'CODE'
_TEXT	ENDS
;	COMDAT ?push_back@?$vector@MV?$allocator@M@std@@@std@@QAEXABM@Z
_TEXT	SEGMENT PARA USE32 PUBLIC 'CODE'
_TEXT	ENDS
;	COMDAT ??0?$vector@HV?$allocator@H@std@@@std@@QAE@XZ
_TEXT	SEGMENT PARA USE32 PUBLIC 'CODE'
_TEXT	ENDS
;	COMDAT ??1?$vector@HV?$allocator@H@std@@@std@@QAE@XZ
_TEXT	SEGMENT PARA USE32 PUBLIC 'CODE'
_TEXT	ENDS
;	COMDAT ?begin@?$vector@HV?$allocator@H@std@@@std@@QAE?AViterator@12@XZ
_TEXT	SEGMENT PARA USE32 PUBLIC 'CODE'
_TEXT	ENDS
;	COMDAT ?end@?$vector@HV?$allocator@H@std@@@std@@QAE?AViterator@12@XZ
_TEXT	SEGMENT PARA USE32 PUBLIC 'CODE'
_TEXT	ENDS
;	COMDAT ?push_back@?$vector@HV?$allocator@H@std@@@std@@QAEXABH@Z
_TEXT	SEGMENT PARA USE32 PUBLIC 'CODE'
_TEXT	ENDS
;	COMDAT ??C?$shared_ptr@VCCandidate@@@boost@@QBEPAVCCandidate@@XZ
_TEXT	SEGMENT PARA USE32 PUBLIC 'CODE'
_TEXT	ENDS
;	COMDAT ?begin@?$vector@PAVCLEComponent@@V?$allocator@PAVCLEComponent@@@std@@@std@@QAE?AViterator@12@XZ
_TEXT	SEGMENT PARA USE32 PUBLIC 'CODE'
_TEXT	ENDS
;	COMDAT ?end@?$vector@PAVCLEComponent@@V?$allocator@PAVCLEComponent@@@std@@@std@@QAE?AViterator@12@XZ
_TEXT	SEGMENT PARA USE32 PUBLIC 'CODE'
_TEXT	ENDS
;	COMDAT ?size@?$vector@PAVCLEComponent@@V?$allocator@PAVCLEComponent@@@std@@@std@@QBEIXZ
_TEXT	SEGMENT PARA USE32 PUBLIC 'CODE'
_TEXT	ENDS
;	COMDAT ?size@?$vector@U?$pair@M_J@std@@V?$allocator@U?$pair@M_J@std@@@2@@std@@QBEIXZ
_TEXT	SEGMENT PARA USE32 PUBLIC 'CODE'
_TEXT	ENDS
;	COMDAT ?size@?$_Tree@V?$_Tmap_traits@KPAU_PlayerData@@U?$less@K@std@@V?$allocator@U?$pair@$$CBKPAU_PlayerData@@@std@@@3@$0A@@std@@@std@@QBEIXZ
_TEXT	SEGMENT PARA USE32 PUBLIC 'CODE'
_TEXT	ENDS
;	COMDAT ?end@?$_Tree@V?$_Tmap_traits@KP8CDPTrans@@AEXAAVCAr@@KKKPAEK@ZU?$less@K@std@@V?$allocator@U?$pair@$$CBKP8CDPTrans@@AEXAAVCAr@@KKKPAEK@Z@std@@@4@$0A@@std@@@std@@QAE?AViterator@12@XZ
_TEXT	SEGMENT PARA USE32 PUBLIC 'CODE'
_TEXT	ENDS
;	COMDAT ?find@?$_Tree@V?$_Tmap_traits@KP8CDPTrans@@AEXAAVCAr@@KKKPAEK@ZU?$less@K@std@@V?$allocator@U?$pair@$$CBKP8CDPTrans@@AEXAAVCAr@@KKKPAEK@Z@std@@@4@$0A@@std@@@std@@QAE?AViterator@12@ABK@Z
_TEXT	SEGMENT PARA USE32 PUBLIC 'CODE'
_TEXT	ENDS
;	COMDAT ??Citerator@?$_Tree@V?$_Tmap_traits@KP8CDPTrans@@AEXAAVCAr@@KKKPAEK@ZU?$less@K@std@@V?$allocator@U?$pair@$$CBKP8CDPTrans@@AEXAAVCAr@@KKKPAEK@Z@std@@@4@$0A@@std@@@std@@QBEPAU?$pair@$$CBKP8CDPTrans@@AEXAAVCAr@@KKKPAEK@Z@2@XZ
_TEXT	SEGMENT PARA USE32 PUBLIC 'CODE'
_TEXT	ENDS
;	COMDAT ??9const_iterator@?$_Tree@V?$_Tmap_traits@KP8CDPTrans@@AEXAAVCAr@@KKKPAEK@ZU?$less@K@std@@V?$allocator@U?$pair@$$CBKP8CDPTrans@@AEXAAVCAr@@KKKPAEK@Z@std@@@4@$0A@@std@@@std@@QBE_NABV012@@Z
_TEXT	SEGMENT PARA USE32 PUBLIC 'CODE'
_TEXT	ENDS
;	COMDAT ??Hiterator@?$vector@V?$shared_ptr@VCCandidate@@@boost@@V?$allocator@V?$shared_ptr@VCCandidate@@@boost@@@std@@@std@@QBE?AV012@H@Z
_TEXT	SEGMENT PARA USE32 PUBLIC 'CODE'
_TEXT	ENDS
;	COMDAT ??Diterator@?$vector@HV?$allocator@H@std@@@std@@QBEAAHXZ
_TEXT	SEGMENT PARA USE32 PUBLIC 'CODE'
_TEXT	ENDS
;	COMDAT ??Eiterator@?$vector@HV?$allocator@H@std@@@std@@QAEAAV012@XZ
_TEXT	SEGMENT PARA USE32 PUBLIC 'CODE'
_TEXT	ENDS
;	COMDAT ??9const_iterator@?$vector@HV?$allocator@H@std@@@std@@QBE_NABV012@@Z
_TEXT	SEGMENT PARA USE32 PUBLIC 'CODE'
_TEXT	ENDS
;	COMDAT ??Diterator@?$vector@PAVCLEComponent@@V?$allocator@PAVCLEComponent@@@std@@@std@@QBEAAPAVCLEComponent@@XZ
_TEXT	SEGMENT PARA USE32 PUBLIC 'CODE'
_TEXT	ENDS
;	COMDAT ??Eiterator@?$vector@PAVCLEComponent@@V?$allocator@PAVCLEComponent@@@std@@@std@@QAEAAV012@XZ
_TEXT	SEGMENT PARA USE32 PUBLIC 'CODE'
_TEXT	ENDS
;	COMDAT ??9const_iterator@?$vector@PAVCLEComponent@@V?$allocator@PAVCLEComponent@@@std@@@std@@QBE_NABV012@@Z
_TEXT	SEGMENT PARA USE32 PUBLIC 'CODE'
_TEXT	ENDS
;	COMDAT ??Diterator@?$vector@PAVCLordSkillComponentExecutable@@V?$allocator@PAVCLordSkillComponentExecutable@@@std@@@std@@QBEAAPAVCLordSkillComponentExecutable@@XZ
_TEXT	SEGMENT PARA USE32 PUBLIC 'CODE'
_TEXT	ENDS
;	COMDAT ??Eiterator@?$vector@PAVCLordSkillComponentExecutable@@V?$allocator@PAVCLordSkillComponentExecutable@@@std@@@std@@QAEAAV012@XZ
_TEXT	SEGMENT PARA USE32 PUBLIC 'CODE'
_TEXT	ENDS
;	COMDAT ??9const_iterator@?$vector@PAVCLordSkillComponentExecutable@@V?$allocator@PAVCLordSkillComponentExecutable@@@std@@@std@@QBE_NABV012@@Z
_TEXT	SEGMENT PARA USE32 PUBLIC 'CODE'
_TEXT	ENDS
;	COMDAT ?Compare@?$CStringT@DV?$StrTraitMFC@DV?$ChTraitsCRT@D@ATL@@@@@ATL@@QBEHPBD@Z
_TEXT	SEGMENT PARA USE32 PUBLIC 'CODE'
_TEXT	ENDS
;	COMDAT ?StringFindString@?$ChTraitsCRT@D@ATL@@SAPADPADPBD@Z
_TEXT	SEGMENT PARA USE32 PUBLIC 'CODE'
_TEXT	ENDS
;	COMDAT ?SafeStringLen@?$ChTraitsCRT@D@ATL@@SAHPBD@Z
_TEXT	SEGMENT PARA USE32 PUBLIC 'CODE'
_TEXT	ENDS
;	COMDAT ?compare@?$basic_string@DU?$char_traits@D@std@@V?$allocator@D@2@@std@@QBEHIIPBDI@Z
_TEXT	SEGMENT PARA USE32 PUBLIC 'CODE'
_TEXT	ENDS
;	COMDAT ??0?$allocator@H@std@@QAE@XZ
_TEXT	SEGMENT PARA USE32 PUBLIC 'CODE'
_TEXT	ENDS
;	COMDAT ?capacity@?$vector@MV?$allocator@M@std@@@std@@QBEIXZ
_TEXT	SEGMENT PARA USE32 PUBLIC 'CODE'
_TEXT	ENDS
;	COMDAT ?begin@?$vector@MV?$allocator@M@std@@@std@@QAE?AViterator@12@XZ
_TEXT	SEGMENT PARA USE32 PUBLIC 'CODE'
_TEXT	ENDS
;	COMDAT ?end@?$vector@MV?$allocator@M@std@@@std@@QAE?AViterator@12@XZ
_TEXT	SEGMENT PARA USE32 PUBLIC 'CODE'
_TEXT	ENDS
;	COMDAT ?size@?$vector@MV?$allocator@M@std@@@std@@QBEIXZ
_TEXT	SEGMENT PARA USE32 PUBLIC 'CODE'
_TEXT	ENDS
;	COMDAT ?insert@?$vector@MV?$allocator@M@std@@@std@@QAE?AViterator@12@V312@ABM@Z
_TEXT	SEGMENT PARA USE32 PUBLIC 'CODE'
_TEXT	ENDS
;	COMDAT ?_Buy@?$vector@MV?$allocator@M@std@@@std@@IAE_NI@Z
_TEXT	SEGMENT PARA USE32 PUBLIC 'CODE'
_TEXT	ENDS
;	COMDAT ?_Tidy@?$vector@MV?$allocator@M@std@@@std@@IAEXXZ
_TEXT	SEGMENT PARA USE32 PUBLIC 'CODE'
_TEXT	ENDS
;	COMDAT ?_Ufill@?$vector@MV?$allocator@M@std@@@std@@IAEPAMPAMIABM@Z
_TEXT	SEGMENT PARA USE32 PUBLIC 'CODE'
_TEXT	ENDS
;	COMDAT ??0?$_Vector_val@MV?$allocator@M@std@@@std@@IAE@V?$allocator@M@1@@Z
_TEXT	SEGMENT PARA USE32 PUBLIC 'CODE'
_TEXT	ENDS
;	COMDAT ??0?$allocator@M@std@@QAE@XZ
_TEXT	SEGMENT PARA USE32 PUBLIC 'CODE'
_TEXT	ENDS
;	COMDAT ?capacity@?$vector@HV?$allocator@H@std@@@std@@QBEIXZ
_TEXT	SEGMENT PARA USE32 PUBLIC 'CODE'
_TEXT	ENDS
;	COMDAT ?size@?$vector@HV?$allocator@H@std@@@std@@QBEIXZ
_TEXT	SEGMENT PARA USE32 PUBLIC 'CODE'
_TEXT	ENDS
;	COMDAT ?insert@?$vector@HV?$allocator@H@std@@@std@@QAE?AViterator@12@V312@ABH@Z
_TEXT	SEGMENT PARA USE32 PUBLIC 'CODE'
_TEXT	ENDS
;	COMDAT ?_Buy@?$vector@HV?$allocator@H@std@@@std@@IAE_NI@Z
_TEXT	SEGMENT PARA USE32 PUBLIC 'CODE'
_TEXT	ENDS
;	COMDAT ?_Tidy@?$vector@HV?$allocator@H@std@@@std@@IAEXXZ
_TEXT	SEGMENT PARA USE32 PUBLIC 'CODE'
_TEXT	ENDS
;	COMDAT ?_Ufill@?$vector@HV?$allocator@H@std@@@std@@IAEPAHPAHIABH@Z
_TEXT	SEGMENT PARA USE32 PUBLIC 'CODE'
_TEXT	ENDS
;	COMDAT ??0?$_Vector_val@HV?$allocator@H@std@@@std@@IAE@V?$allocator@H@1@@Z
_TEXT	SEGMENT PARA USE32 PUBLIC 'CODE'
_TEXT	ENDS
;	COMDAT ?_Key@?$_Tree@V?$_Tmap_traits@KP8CDPTrans@@AEXAAVCAr@@KKKPAEK@ZU?$less@K@std@@V?$allocator@U?$pair@$$CBKP8CDPTrans@@AEXAAVCAr@@KKKPAEK@Z@std@@@4@$0A@@std@@@std@@KAABKPAU_Node@?$_Tree_nod@V?$_Tmap_traits@KP8CDPTrans@@AEXAAVCAr@@KKKPAEK@ZU?$less@K@std@@V?$allocator@U?$pair@$$CBKP8CDPTrans@@AEXAAVCAr@@KKKPAEK@Z@std@@@4@$0A@@std@@@2@@Z
_TEXT	SEGMENT PARA USE32 PUBLIC 'CODE'
_TEXT	ENDS
;	COMDAT ?lower_bound@?$_Tree@V?$_Tmap_traits@KP8CDPTrans@@AEXAAVCAr@@KKKPAEK@ZU?$less@K@std@@V?$allocator@U?$pair@$$CBKP8CDPTrans@@AEXAAVCAr@@KKKPAEK@Z@std@@@4@$0A@@std@@@std@@QAE?AViterator@12@ABK@Z
_TEXT	SEGMENT PARA USE32 PUBLIC 'CODE'
_TEXT	ENDS
;	COMDAT ??0iterator@?$_Tree@V?$_Tmap_traits@KP8CDPTrans@@AEXAAVCAr@@KKKPAEK@ZU?$less@K@std@@V?$allocator@U?$pair@$$CBKP8CDPTrans@@AEXAAVCAr@@KKKPAEK@Z@std@@@4@$0A@@std@@@std@@QAE@PAU_Node@?$_Tree_nod@V?$_Tmap_traits@KP8CDPTrans@@AEXAAVCAr@@KKKPAEK@ZU?$less@K@std@@V?$allocator@U?$pair@$$CBKP8CDPTrans@@AEXAAVCAr@@KKKPAEK@Z@std@@@4@$0A@@std@@@2@@Z
_TEXT	SEGMENT PARA USE32 PUBLIC 'CODE'
_TEXT	ENDS
;	COMDAT ??Diterator@?$_Tree@V?$_Tmap_traits@KP8CDPTrans@@AEXAAVCAr@@KKKPAEK@ZU?$less@K@std@@V?$allocator@U?$pair@$$CBKP8CDPTrans@@AEXAAVCAr@@KKKPAEK@Z@std@@@4@$0A@@std@@@std@@QBEAAU?$pair@$$CBKP8CDPTrans@@AEXAAVCAr@@KKKPAEK@Z@2@XZ
_TEXT	SEGMENT PARA USE32 PUBLIC 'CODE'
_TEXT	ENDS
;	COMDAT ??8const_iterator@?$_Tree@V?$_Tmap_traits@KP8CDPTrans@@AEXAAVCAr@@KKKPAEK@ZU?$less@K@std@@V?$allocator@U?$pair@$$CBKP8CDPTrans@@AEXAAVCAr@@KKKPAEK@Z@std@@@4@$0A@@std@@@std@@QBE_NABV012@@Z
_TEXT	SEGMENT PARA USE32 PUBLIC 'CODE'
_TEXT	ENDS
;	COMDAT ?_Mynode@const_iterator@?$_Tree@V?$_Tmap_traits@KP8CDPTrans@@AEXAAVCAr@@KKKPAEK@ZU?$less@K@std@@V?$allocator@U?$pair@$$CBKP8CDPTrans@@AEXAAVCAr@@KKKPAEK@Z@std@@@4@$0A@@std@@@std@@QBEPAU_Node@?$_Tree_nod@V?$_Tmap_traits@KP8CDPTrans@@AEXAAVCAr@@KKKPAEK@ZU?$less@K@std@@V?$allocator@U?$pair@$$CBKP8CDPTrans@@AEXAAVCAr@@KKKPAEK@Z@std@@@4@$0A@@std@@@3@XZ
_TEXT	SEGMENT PARA USE32 PUBLIC 'CODE'
_TEXT	ENDS
;	COMDAT ??0iterator@?$vector@V?$shared_ptr@VCCandidate@@@boost@@V?$allocator@V?$shared_ptr@VCCandidate@@@boost@@@std@@@std@@QAE@PAV?$shared_ptr@VCCandidate@@@boost@@@Z
_TEXT	SEGMENT PARA USE32 PUBLIC 'CODE'
_TEXT	ENDS
;	COMDAT ??Yiterator@?$vector@V?$shared_ptr@VCCandidate@@@boost@@V?$allocator@V?$shared_ptr@VCCandidate@@@boost@@@std@@@std@@QAEAAV012@H@Z
_TEXT	SEGMENT PARA USE32 PUBLIC 'CODE'
_TEXT	ENDS
;	COMDAT ??0iterator@?$vector@HV?$allocator@H@std@@@std@@QAE@PAH@Z
_TEXT	SEGMENT PARA USE32 PUBLIC 'CODE'
_TEXT	ENDS
;	COMDAT ??Dconst_iterator@?$vector@HV?$allocator@H@std@@@std@@QBEABHXZ
_TEXT	SEGMENT PARA USE32 PUBLIC 'CODE'
_TEXT	ENDS
;	COMDAT ??8const_iterator@?$vector@HV?$allocator@H@std@@@std@@QBE_NABV012@@Z
_TEXT	SEGMENT PARA USE32 PUBLIC 'CODE'
_TEXT	ENDS
;	COMDAT ??0iterator@?$vector@PAVCLEComponent@@V?$allocator@PAVCLEComponent@@@std@@@std@@QAE@PAPAVCLEComponent@@@Z
_TEXT	SEGMENT PARA USE32 PUBLIC 'CODE'
_TEXT	ENDS
;	COMDAT ??Dconst_iterator@?$vector@PAVCLEComponent@@V?$allocator@PAVCLEComponent@@@std@@@std@@QBEABQAVCLEComponent@@XZ
_TEXT	SEGMENT PARA USE32 PUBLIC 'CODE'
_TEXT	ENDS
;	COMDAT ??8const_iterator@?$vector@PAVCLEComponent@@V?$allocator@PAVCLEComponent@@@std@@@std@@QBE_NABV012@@Z
_TEXT	SEGMENT PARA USE32 PUBLIC 'CODE'
_TEXT	ENDS
;	COMDAT ??0iterator@?$vector@PAVCLordSkillComponentExecutable@@V?$allocator@PAVCLordSkillComponentExecutable@@@std@@@std@@QAE@PAPAVCLordSkillComponentExecutable@@@Z
_TEXT	SEGMENT PARA USE32 PUBLIC 'CODE'
_TEXT	ENDS
;	COMDAT ??Dconst_iterator@?$vector@PAVCLordSkillComponentExecutable@@V?$allocator@PAVCLordSkillComponentExecutable@@@std@@@std@@QBEABQAVCLordSkillComponentExecutable@@XZ
_TEXT	SEGMENT PARA USE32 PUBLIC 'CODE'
_TEXT	ENDS
;	COMDAT ??8const_iterator@?$vector@PAVCLordSkillComponentExecutable@@V?$allocator@PAVCLordSkillComponentExecutable@@@std@@@std@@QBE_NABV012@@Z
_TEXT	SEGMENT PARA USE32 PUBLIC 'CODE'
_TEXT	ENDS
;	COMDAT ??Diterator@?$vector@MV?$allocator@M@std@@@std@@QBEAAMXZ
_TEXT	SEGMENT PARA USE32 PUBLIC 'CODE'
_TEXT	ENDS
;	COMDAT ??Hiterator@?$vector@MV?$allocator@M@std@@@std@@QBE?AV012@H@Z
_TEXT	SEGMENT PARA USE32 PUBLIC 'CODE'
_TEXT	ENDS
;	COMDAT ?StringCompare@?$ChTraitsCRT@D@ATL@@SAHPBD0@Z
_TEXT	SEGMENT PARA USE32 PUBLIC 'CODE'
_TEXT	ENDS
;	COMDAT ??0?$allocator@H@std@@QAE@ABV01@@Z
_TEXT	SEGMENT PARA USE32 PUBLIC 'CODE'
_TEXT	ENDS
;	COMDAT ?deallocate@?$allocator@H@std@@QAEXPAHI@Z
_TEXT	SEGMENT PARA USE32 PUBLIC 'CODE'
_TEXT	ENDS
;	COMDAT ?allocate@?$allocator@H@std@@QAEPAHI@Z
_TEXT	SEGMENT PARA USE32 PUBLIC 'CODE'
_TEXT	ENDS
;	COMDAT ?max_size@?$vector@MV?$allocator@M@std@@@std@@QBEIXZ
_TEXT	SEGMENT PARA USE32 PUBLIC 'CODE'
_TEXT	ENDS
;	COMDAT ?_Destroy@?$vector@MV?$allocator@M@std@@@std@@IAEXPAM0@Z
_TEXT	SEGMENT PARA USE32 PUBLIC 'CODE'
_TEXT	ENDS
;	COMDAT ?_Insert_n@?$vector@MV?$allocator@M@std@@@std@@IAEXViterator@12@IABM@Z
_TEXT	SEGMENT PARA USE32 PUBLIC 'CODE'
_TEXT	ENDS
;	COMDAT ?_Xlen@?$vector@MV?$allocator@M@std@@@std@@IBEXXZ
_TEXT	SEGMENT PARA USE32 PUBLIC 'CODE'
_TEXT	ENDS
;	COMDAT ??0?$allocator@M@std@@QAE@ABV01@@Z
_TEXT	SEGMENT PARA USE32 PUBLIC 'CODE'
_TEXT	ENDS
;	COMDAT ?deallocate@?$allocator@M@std@@QAEXPAMI@Z
_TEXT	SEGMENT PARA USE32 PUBLIC 'CODE'
_TEXT	ENDS
;	COMDAT ?allocate@?$allocator@M@std@@QAEPAMI@Z
_TEXT	SEGMENT PARA USE32 PUBLIC 'CODE'
_TEXT	ENDS
;	COMDAT ?max_size@?$vector@HV?$allocator@H@std@@@std@@QBEIXZ
_TEXT	SEGMENT PARA USE32 PUBLIC 'CODE'
_TEXT	ENDS
;	COMDAT ?_Destroy@?$vector@HV?$allocator@H@std@@@std@@IAEXPAH0@Z
_TEXT	SEGMENT PARA USE32 PUBLIC 'CODE'
_TEXT	ENDS
;	COMDAT ?_Insert_n@?$vector@HV?$allocator@H@std@@@std@@IAEXViterator@12@IABH@Z
_TEXT	SEGMENT PARA USE32 PUBLIC 'CODE'
_TEXT	ENDS
;	COMDAT ?_Xlen@?$vector@HV?$allocator@H@std@@@std@@IBEXXZ
_TEXT	SEGMENT PARA USE32 PUBLIC 'CODE'
_TEXT	ENDS
;	COMDAT ?_Myval@?$_Tree@V?$_Tmap_traits@KP8CDPTrans@@AEXAAVCAr@@KKKPAEK@ZU?$less@K@std@@V?$allocator@U?$pair@$$CBKP8CDPTrans@@AEXAAVCAr@@KKKPAEK@Z@std@@@4@$0A@@std@@@std@@KAAAU?$pair@$$CBKP8CDPTrans@@AEXAAVCAr@@KKKPAEK@Z@2@PAU_Node@?$_Tree_nod@V?$_Tmap_traits@KP8CDPTrans@@AEXAAVCAr@@KKKPAEK@ZU?$less@K@std@@V?$allocator@U?$pair@$$CBKP8CDPTrans@@AEXAAVCAr@@KKKPAEK@Z@std@@@4@$0A@@std@@@2@@Z
_TEXT	SEGMENT PARA USE32 PUBLIC 'CODE'
_TEXT	ENDS
;	COMDAT ?_Lbound@?$_Tree@V?$_Tmap_traits@KP8CDPTrans@@AEXAAVCAr@@KKKPAEK@ZU?$less@K@std@@V?$allocator@U?$pair@$$CBKP8CDPTrans@@AEXAAVCAr@@KKKPAEK@Z@std@@@4@$0A@@std@@@std@@IBEPAU_Node@?$_Tree_nod@V?$_Tmap_traits@KP8CDPTrans@@AEXAAVCAr@@KKKPAEK@ZU?$less@K@std@@V?$allocator@U?$pair@$$CBKP8CDPTrans@@AEXAAVCAr@@KKKPAEK@Z@std@@@4@$0A@@std@@@2@ABK@Z
_TEXT	SEGMENT PARA USE32 PUBLIC 'CODE'
_TEXT	ENDS
;	COMDAT ?_Kfn@?$_Tmap_traits@KP8CDPTrans@@AEXAAVCAr@@KKKPAEK@ZU?$less@K@std@@V?$allocator@U?$pair@$$CBKP8CDPTrans@@AEXAAVCAr@@KKKPAEK@Z@std@@@4@$0A@@std@@SAABKABU?$pair@$$CBKP8CDPTrans@@AEXAAVCAr@@KKKPAEK@Z@2@@Z
_TEXT	SEGMENT PARA USE32 PUBLIC 'CODE'
_TEXT	ENDS
;	COMDAT ??0const_iterator@?$_Tree@V?$_Tmap_traits@KP8CDPTrans@@AEXAAVCAr@@KKKPAEK@ZU?$less@K@std@@V?$allocator@U?$pair@$$CBKP8CDPTrans@@AEXAAVCAr@@KKKPAEK@Z@std@@@4@$0A@@std@@@std@@QAE@PAU_Node@?$_Tree_nod@V?$_Tmap_traits@KP8CDPTrans@@AEXAAVCAr@@KKKPAEK@ZU?$less@K@std@@V?$allocator@U?$pair@$$CBKP8CDPTrans@@AEXAAVCAr@@KKKPAEK@Z@std@@@4@$0A@@std@@@2@@Z
_TEXT	SEGMENT PARA USE32 PUBLIC 'CODE'
_TEXT	ENDS
;	COMDAT ??Dconst_iterator@?$_Tree@V?$_Tmap_traits@KP8CDPTrans@@AEXAAVCAr@@KKKPAEK@ZU?$less@K@std@@V?$allocator@U?$pair@$$CBKP8CDPTrans@@AEXAAVCAr@@KKKPAEK@Z@std@@@4@$0A@@std@@@std@@QBEABU?$pair@$$CBKP8CDPTrans@@AEXAAVCAr@@KKKPAEK@Z@2@XZ
_TEXT	SEGMENT PARA USE32 PUBLIC 'CODE'
_TEXT	ENDS
;	COMDAT ??0const_iterator@?$vector@V?$shared_ptr@VCCandidate@@@boost@@V?$allocator@V?$shared_ptr@VCCandidate@@@boost@@@std@@@std@@QAE@PAV?$shared_ptr@VCCandidate@@@boost@@@Z
_TEXT	SEGMENT PARA USE32 PUBLIC 'CODE'
_TEXT	ENDS
;	COMDAT ??Hiterator@?$vector@HV?$allocator@H@std@@@std@@QBE?AV012@H@Z
_TEXT	SEGMENT PARA USE32 PUBLIC 'CODE'
_TEXT	ENDS
;	COMDAT ??Giterator@?$vector@HV?$allocator@H@std@@@std@@QBEHABVconst_iterator@12@@Z
_TEXT	SEGMENT PARA USE32 PUBLIC 'CODE'
_TEXT	ENDS
;	COMDAT ??0const_iterator@?$vector@HV?$allocator@H@std@@@std@@QAE@PAH@Z
_TEXT	SEGMENT PARA USE32 PUBLIC 'CODE'
_TEXT	ENDS
;	COMDAT ??0const_iterator@?$vector@PAVCLEComponent@@V?$allocator@PAVCLEComponent@@@std@@@std@@QAE@PAPAVCLEComponent@@@Z
_TEXT	SEGMENT PARA USE32 PUBLIC 'CODE'
_TEXT	ENDS
;	COMDAT ??0const_iterator@?$vector@PAVCLordSkillComponentExecutable@@V?$allocator@PAVCLordSkillComponentExecutable@@@std@@@std@@QAE@PAPAVCLordSkillComponentExecutable@@@Z
_TEXT	SEGMENT PARA USE32 PUBLIC 'CODE'
_TEXT	ENDS
;	COMDAT ??0iterator@?$vector@MV?$allocator@M@std@@@std@@QAE@PAM@Z
_TEXT	SEGMENT PARA USE32 PUBLIC 'CODE'
_TEXT	ENDS
;	COMDAT ??Yiterator@?$vector@MV?$allocator@M@std@@@std@@QAEAAV012@H@Z
_TEXT	SEGMENT PARA USE32 PUBLIC 'CODE'
_TEXT	ENDS
;	COMDAT ??Giterator@?$vector@MV?$allocator@M@std@@@std@@QBEHABVconst_iterator@12@@Z
_TEXT	SEGMENT PARA USE32 PUBLIC 'CODE'
_TEXT	ENDS
;	COMDAT ??Dconst_iterator@?$vector@MV?$allocator@M@std@@@std@@QBEABMXZ
_TEXT	SEGMENT PARA USE32 PUBLIC 'CODE'
_TEXT	ENDS
;	COMDAT ?max_size@?$allocator@H@std@@QBEIXZ
_TEXT	SEGMENT PARA USE32 PUBLIC 'CODE'
_TEXT	ENDS
;	COMDAT ?max_size@?$allocator@M@std@@QBEIXZ
_TEXT	SEGMENT PARA USE32 PUBLIC 'CODE'
_TEXT	ENDS
;	COMDAT ?_Isnil@?$_Tree@V?$_Tmap_traits@KP8CDPTrans@@AEXAAVCAr@@KKKPAEK@ZU?$less@K@std@@V?$allocator@U?$pair@$$CBKP8CDPTrans@@AEXAAVCAr@@KKKPAEK@Z@std@@@4@$0A@@std@@@std@@KAAADPAU_Node@?$_Tree_nod@V?$_Tmap_traits@KP8CDPTrans@@AEXAAVCAr@@KKKPAEK@ZU?$less@K@std@@V?$allocator@U?$pair@$$CBKP8CDPTrans@@AEXAAVCAr@@KKKPAEK@Z@std@@@4@$0A@@std@@@2@@Z
_TEXT	SEGMENT PARA USE32 PUBLIC 'CODE'
_TEXT	ENDS
;	COMDAT ?_Left@?$_Tree@V?$_Tmap_traits@KP8CDPTrans@@AEXAAVCAr@@KKKPAEK@ZU?$less@K@std@@V?$allocator@U?$pair@$$CBKP8CDPTrans@@AEXAAVCAr@@KKKPAEK@Z@std@@@4@$0A@@std@@@std@@KAAAPAU_Node@?$_Tree_nod@V?$_Tmap_traits@KP8CDPTrans@@AEXAAVCAr@@KKKPAEK@ZU?$less@K@std@@V?$allocator@U?$pair@$$CBKP8CDPTrans@@AEXAAVCAr@@KKKPAEK@Z@std@@@4@$0A@@std@@@2@PAU342@@Z
_TEXT	SEGMENT PARA USE32 PUBLIC 'CODE'
_TEXT	ENDS
;	COMDAT ?_Right@?$_Tree@V?$_Tmap_traits@KP8CDPTrans@@AEXAAVCAr@@KKKPAEK@ZU?$less@K@std@@V?$allocator@U?$pair@$$CBKP8CDPTrans@@AEXAAVCAr@@KKKPAEK@Z@std@@@4@$0A@@std@@@std@@KAAAPAU_Node@?$_Tree_nod@V?$_Tmap_traits@KP8CDPTrans@@AEXAAVCAr@@KKKPAEK@ZU?$less@K@std@@V?$allocator@U?$pair@$$CBKP8CDPTrans@@AEXAAVCAr@@KKKPAEK@Z@std@@@4@$0A@@std@@@2@PAU342@@Z
_TEXT	SEGMENT PARA USE32 PUBLIC 'CODE'
_TEXT	ENDS
;	COMDAT ?_Root@?$_Tree@V?$_Tmap_traits@KP8CDPTrans@@AEXAAVCAr@@KKKPAEK@ZU?$less@K@std@@V?$allocator@U?$pair@$$CBKP8CDPTrans@@AEXAAVCAr@@KKKPAEK@Z@std@@@4@$0A@@std@@@std@@IBEAAPAU_Node@?$_Tree_nod@V?$_Tmap_traits@KP8CDPTrans@@AEXAAVCAr@@KKKPAEK@ZU?$less@K@std@@V?$allocator@U?$pair@$$CBKP8CDPTrans@@AEXAAVCAr@@KKKPAEK@Z@std@@@4@$0A@@std@@@2@XZ
_TEXT	SEGMENT PARA USE32 PUBLIC 'CODE'
_TEXT	ENDS
;	COMDAT ??Yiterator@?$vector@HV?$allocator@H@std@@@std@@QAEAAV012@H@Z
_TEXT	SEGMENT PARA USE32 PUBLIC 'CODE'
_TEXT	ENDS
;	COMDAT ??Gconst_iterator@?$vector@HV?$allocator@H@std@@@std@@QBEHABV012@@Z
_TEXT	SEGMENT PARA USE32 PUBLIC 'CODE'
_TEXT	ENDS
;	COMDAT ??0const_iterator@?$vector@MV?$allocator@M@std@@@std@@QAE@PAM@Z
_TEXT	SEGMENT PARA USE32 PUBLIC 'CODE'
_TEXT	ENDS
;	COMDAT ??Gconst_iterator@?$vector@MV?$allocator@M@std@@@std@@QBEHABV012@@Z
_TEXT	SEGMENT PARA USE32 PUBLIC 'CODE'
_TEXT	ENDS
;	COMDAT ?_Parent@?$_Tree@V?$_Tmap_traits@KP8CDPTrans@@AEXAAVCAr@@KKKPAEK@ZU?$less@K@std@@V?$allocator@U?$pair@$$CBKP8CDPTrans@@AEXAAVCAr@@KKKPAEK@Z@std@@@4@$0A@@std@@@std@@KAAAPAU_Node@?$_Tree_nod@V?$_Tmap_traits@KP8CDPTrans@@AEXAAVCAr@@KKKPAEK@ZU?$less@K@std@@V?$allocator@U?$pair@$$CBKP8CDPTrans@@AEXAAVCAr@@KKKPAEK@Z@std@@@4@$0A@@std@@@2@PAU342@@Z
_TEXT	SEGMENT PARA USE32 PUBLIC 'CODE'
_TEXT	ENDS
;	COMDAT ??$_Iter_cat@Viterator@?$_Tree@V?$_Tmap_traits@KU_Friend@@U?$less@K@std@@V?$allocator@U?$pair@$$CBKU_Friend@@@std@@@3@$0A@@std@@@std@@@std@@YA?AUbidirectional_iterator_tag@0@ABViterator@?$_Tree@V?$_Tmap_traits@KU_Friend@@U?$less@K@std@@V?$allocator@U?$pair@$$CBKU_Friend@@@std@@@3@$0A@@std@@@0@@Z
_TEXT	SEGMENT PARA USE32 PUBLIC 'CODE'
_TEXT	ENDS
;	COMDAT ??$_Distance2@Viterator@?$_Tree@V?$_Tmap_traits@KU_Friend@@U?$less@K@std@@V?$allocator@U?$pair@$$CBKU_Friend@@@std@@@3@$0A@@std@@@std@@I@std@@YAXViterator@?$_Tree@V?$_Tmap_traits@KU_Friend@@U?$less@K@std@@V?$allocator@U?$pair@$$CBKU_Friend@@@std@@@3@$0A@@std@@@0@0AAIUbidirectional_iterator_tag@0@@Z
_TEXT	SEGMENT PARA USE32 PUBLIC 'CODE'
_TEXT	ENDS
;	COMDAT ??$_Copy_opt@PAJPAJ@std@@YAPAJPAJ00U_Scalar_ptr_iterator_tag@0@@Z
_TEXT	SEGMENT PARA USE32 PUBLIC 'CODE'
_TEXT	ENDS
;	COMDAT ??$_Uninitialized_copy@PAJPAJV?$allocator@J@std@@@std@@YAPAJPAJ00AAV?$allocator@J@0@@Z
_TEXT	SEGMENT PARA USE32 PUBLIC 'CODE'
_TEXT	ENDS
;	COMDAT ??$_Copy_backward_opt@PAJPAJ@std@@YAPAJPAJ00U_Scalar_ptr_iterator_tag@0@@Z
_TEXT	SEGMENT PARA USE32 PUBLIC 'CODE'
_TEXT	ENDS
;	COMDAT ??$_Ptr_cat@PAUtagDROPITEM@@PAU1@@std@@YA?AU_Nonscalar_ptr_iterator_tag@0@AAPAUtagDROPITEM@@0@Z
_TEXT	SEGMENT PARA USE32 PUBLIC 'CODE'
_TEXT	ENDS
;	COMDAT ??$_Destroy_range@UtagDROPITEM@@V?$allocator@UtagDROPITEM@@@std@@@std@@YAXPAUtagDROPITEM@@0AAV?$allocator@UtagDROPITEM@@@0@U_Nonscalar_ptr_iterator_tag@0@@Z
_TEXT	SEGMENT PARA USE32 PUBLIC 'CODE'
_TEXT	ENDS
;	COMDAT ??$_Destroy_range@KV?$allocator@K@std@@@std@@YAXPAK0AAV?$allocator@K@0@U_Scalar_ptr_iterator_tag@0@@Z
_TEXT	SEGMENT PARA USE32 PUBLIC 'CODE'
_TEXT	ENDS
;	COMDAT ??$_Destroy_range@JV?$allocator@J@std@@@std@@YAXPAJ0AAV?$allocator@J@0@U_Scalar_ptr_iterator_tag@0@@Z
_TEXT	SEGMENT PARA USE32 PUBLIC 'CODE'
_TEXT	ENDS
;	COMDAT ??$_Uninit_fill_n@JIJ@std@@YAXPAJIABJAAV?$allocator@J@0@U_Scalar_ptr_iterator_tag@0@@Z
_TEXT	SEGMENT PARA USE32 PUBLIC 'CODE'
_TEXT	ENDS
;	COMDAT ??$throw_exception@Vbad_weak_ptr@boost@@@boost@@YAXABVbad_weak_ptr@0@@Z
_TEXT	SEGMENT PARA USE32 PUBLIC 'CODE'
_TEXT	ENDS
;	COMDAT ??$for_each@Viterator@?$vector@V?$shared_ptr@VCCandidate@@@boost@@V?$allocator@V?$shared_ptr@VCCandidate@@@boost@@@std@@@std@@UPostDeposit@@@std@@YA?AUPostDeposit@@Viterator@?$vector@V?$shared_ptr@VCCandidate@@@boost@@V?$allocator@V?$shared_ptr@VCCandidate@@@boost@@@std@@@0@0U1@@Z
_TEXT	SEGMENT PARA USE32 PUBLIC 'CODE'
_TEXT	ENDS
;	COMDAT ??$_Uninitialized_fill_n@PAMIMV?$allocator@M@std@@@std@@YAXPAMIABMAAV?$allocator@M@0@@Z
_TEXT	SEGMENT PARA USE32 PUBLIC 'CODE'
_TEXT	ENDS
;	COMDAT ??$_Uninitialized_fill_n@PAHIHV?$allocator@H@std@@@std@@YAXPAHIABHAAV?$allocator@H@0@@Z
_TEXT	SEGMENT PARA USE32 PUBLIC 'CODE'
_TEXT	ENDS
;	COMDAT ??$_Allocate@H@std@@YAPAHIPAH@Z
_TEXT	SEGMENT PARA USE32 PUBLIC 'CODE'
_TEXT	ENDS
;	COMDAT ??$_Destroy_range@MV?$allocator@M@std@@@std@@YAXPAM0AAV?$allocator@M@0@@Z
_TEXT	SEGMENT PARA USE32 PUBLIC 'CODE'
_TEXT	ENDS
;	COMDAT ??$_Ucopy@PAM@?$vector@MV?$allocator@M@std@@@std@@IAEPAMPAM00@Z
_TEXT	SEGMENT PARA USE32 PUBLIC 'CODE'
_TEXT	ENDS
;	COMDAT ??$fill@PAMM@std@@YAXPAM0ABM@Z
_TEXT	SEGMENT PARA USE32 PUBLIC 'CODE'
_TEXT	ENDS
;	COMDAT ??$copy_backward@PAMPAM@std@@YAPAMPAM00@Z
_TEXT	SEGMENT PARA USE32 PUBLIC 'CODE'
_TEXT	ENDS
;	COMDAT ??$_Allocate@M@std@@YAPAMIPAM@Z
_TEXT	SEGMENT PARA USE32 PUBLIC 'CODE'
_TEXT	ENDS
;	COMDAT ??$_Destroy_range@HV?$allocator@H@std@@@std@@YAXPAH0AAV?$allocator@H@0@@Z
_TEXT	SEGMENT PARA USE32 PUBLIC 'CODE'
_TEXT	ENDS
;	COMDAT ??$_Ucopy@PAH@?$vector@HV?$allocator@H@std@@@std@@IAEPAHPAH00@Z
_TEXT	SEGMENT PARA USE32 PUBLIC 'CODE'
_TEXT	ENDS
;	COMDAT ??$fill@PAHH@std@@YAXPAH0ABH@Z
_TEXT	SEGMENT PARA USE32 PUBLIC 'CODE'
_TEXT	ENDS
;	COMDAT ??$copy_backward@PAHPAH@std@@YAPAHPAH00@Z
_TEXT	SEGMENT PARA USE32 PUBLIC 'CODE'
_TEXT	ENDS
;	COMDAT ??0bad_weak_ptr@boost@@QAE@ABV01@@Z
_TEXT	SEGMENT PARA USE32 PUBLIC 'CODE'
_TEXT	ENDS
;	COMDAT ?destroy@?$allocator@UtagDROPITEM@@@std@@QAEXPAUtagDROPITEM@@@Z
_TEXT	SEGMENT PARA USE32 PUBLIC 'CODE'
_TEXT	ENDS
;	COMDAT ??Diterator@?$vector@V?$shared_ptr@VCCandidate@@@boost@@V?$allocator@V?$shared_ptr@VCCandidate@@@boost@@@std@@@std@@QBEAAV?$shared_ptr@VCCandidate@@@boost@@XZ
_TEXT	SEGMENT PARA USE32 PUBLIC 'CODE'
_TEXT	ENDS
;	COMDAT ??Eiterator@?$vector@V?$shared_ptr@VCCandidate@@@boost@@V?$allocator@V?$shared_ptr@VCCandidate@@@boost@@@std@@@std@@QAEAAV012@XZ
_TEXT	SEGMENT PARA USE32 PUBLIC 'CODE'
_TEXT	ENDS
;	COMDAT ??9const_iterator@?$vector@V?$shared_ptr@VCCandidate@@@boost@@V?$allocator@V?$shared_ptr@VCCandidate@@@boost@@@std@@@std@@QBE_NABV012@@Z
_TEXT	SEGMENT PARA USE32 PUBLIC 'CODE'
_TEXT	ENDS
;	COMDAT ??Dconst_iterator@?$vector@V?$shared_ptr@VCCandidate@@@boost@@V?$allocator@V?$shared_ptr@VCCandidate@@@boost@@@std@@@std@@QBEABV?$shared_ptr@VCCandidate@@@boost@@XZ
_TEXT	SEGMENT PARA USE32 PUBLIC 'CODE'
_TEXT	ENDS
;	COMDAT ??8const_iterator@?$vector@V?$shared_ptr@VCCandidate@@@boost@@V?$allocator@V?$shared_ptr@VCCandidate@@@boost@@@std@@@std@@QBE_NABV012@@Z
_TEXT	SEGMENT PARA USE32 PUBLIC 'CODE'
_TEXT	ENDS
;	COMDAT ??$_Uninit_copy@JJ@std@@YAPAJPAJ00AAV?$allocator@J@0@U_Scalar_ptr_iterator_tag@0@@Z
_TEXT	SEGMENT PARA USE32 PUBLIC 'CODE'
_TEXT	ENDS
;	COMDAT ??$fill_n@PAJIJ@std@@YAXPAJIABJ@Z
_TEXT	SEGMENT PARA USE32 PUBLIC 'CODE'
_TEXT	ENDS
;	COMDAT ??$_Uninit_fill_n@MIM@std@@YAXPAMIABMAAV?$allocator@M@0@U_Scalar_ptr_iterator_tag@0@@Z
_TEXT	SEGMENT PARA USE32 PUBLIC 'CODE'
_TEXT	ENDS
;	COMDAT ??$_Uninit_fill_n@HIH@std@@YAXPAHIABHAAV?$allocator@H@0@U_Scalar_ptr_iterator_tag@0@@Z
_TEXT	SEGMENT PARA USE32 PUBLIC 'CODE'
_TEXT	ENDS
;	COMDAT ??$_Destroy_range@MV?$allocator@M@std@@@std@@YAXPAM0AAV?$allocator@M@0@U_Scalar_ptr_iterator_tag@0@@Z
_TEXT	SEGMENT PARA USE32 PUBLIC 'CODE'
_TEXT	ENDS
;	COMDAT ??$_Uninitialized_copy@PAMPAMV?$allocator@M@std@@@std@@YAPAMPAM00AAV?$allocator@M@0@@Z
_TEXT	SEGMENT PARA USE32 PUBLIC 'CODE'
_TEXT	ENDS
;	COMDAT ??$_Copy_backward_opt@PAMPAM@std@@YAPAMPAM00U_Scalar_ptr_iterator_tag@0@@Z
_TEXT	SEGMENT PARA USE32 PUBLIC 'CODE'
_TEXT	ENDS
;	COMDAT ??$_Destroy_range@HV?$allocator@H@std@@@std@@YAXPAH0AAV?$allocator@H@0@U_Scalar_ptr_iterator_tag@0@@Z
_TEXT	SEGMENT PARA USE32 PUBLIC 'CODE'
_TEXT	ENDS
;	COMDAT ??$_Uninitialized_copy@PAHPAHV?$allocator@H@std@@@std@@YAPAHPAH00AAV?$allocator@H@0@@Z
_TEXT	SEGMENT PARA USE32 PUBLIC 'CODE'
_TEXT	ENDS
;	COMDAT ??$_Copy_backward_opt@PAHPAH@std@@YAPAHPAH00U_Scalar_ptr_iterator_tag@0@@Z
_TEXT	SEGMENT PARA USE32 PUBLIC 'CODE'
_TEXT	ENDS
;	COMDAT ??$_Destroy@UtagDROPITEM@@@std@@YAXPAUtagDROPITEM@@@Z
_TEXT	SEGMENT PARA USE32 PUBLIC 'CODE'
_TEXT	ENDS
;	COMDAT ??$fill_n@PAMIM@std@@YAXPAMIABM@Z
_TEXT	SEGMENT PARA USE32 PUBLIC 'CODE'
_TEXT	ENDS
;	COMDAT ??$fill_n@PAHIH@std@@YAXPAHIABH@Z
_TEXT	SEGMENT PARA USE32 PUBLIC 'CODE'
_TEXT	ENDS
;	COMDAT ??$_Uninit_copy@MM@std@@YAPAMPAM00AAV?$allocator@M@0@U_Scalar_ptr_iterator_tag@0@@Z
_TEXT	SEGMENT PARA USE32 PUBLIC 'CODE'
_TEXT	ENDS
;	COMDAT ??$_Uninit_copy@HH@std@@YAPAHPAH00AAV?$allocator@H@0@U_Scalar_ptr_iterator_tag@0@@Z
_TEXT	SEGMENT PARA USE32 PUBLIC 'CODE'
_TEXT	ENDS
;	COMDAT ?_Ptr_cat@std@@YA?AU_Scalar_ptr_iterator_tag@1@PAH0@Z
_TEXT	SEGMENT PARA USE32 PUBLIC 'CODE'
_TEXT	ENDS
;	COMDAT ?_Ptr_cat@std@@YA?AU_Scalar_ptr_iterator_tag@1@PAM0@Z
_TEXT	SEGMENT PARA USE32 PUBLIC 'CODE'
_TEXT	ENDS
;	COMDAT __CTA2?AVbad_weak_ptr@boost@@
xdata$x	SEGMENT DWORD USE32 PUBLIC 'CONST'
xdata$x	ENDS
;	COMDAT __CT??_R0?AVexception@@@8??0exception@@QAE@ABV0@@Z12
xdata$x	SEGMENT DWORD USE32 PUBLIC 'CONST'
xdata$x	ENDS
;	COMDAT ??_R0?AVexception@@@8
_DATA	SEGMENT DWORD USE32 PUBLIC 'DATA'
_DATA	ENDS
;	COMDAT __CT??_R0?AVbad_weak_ptr@boost@@@8??0bad_weak_ptr@boost@@QAE@ABV01@@Z12
xdata$x	SEGMENT DWORD USE32 PUBLIC 'CONST'
xdata$x	ENDS
;	COMDAT ??_R0?AVbad_weak_ptr@boost@@@8
_DATA	SEGMENT DWORD USE32 PUBLIC 'DATA'
_DATA	ENDS
;	COMDAT __TI2?AVbad_weak_ptr@boost@@
xdata$x	SEGMENT DWORD USE32 PUBLIC 'CONST'
xdata$x	ENDS
;	COMDAT ?_Ptr_cat@std@@YA?AU_Scalar_ptr_iterator_tag@1@PAJ0@Z
_TEXT	SEGMENT PARA USE32 PUBLIC 'CODE'
_TEXT	ENDS
;	COMDAT ??9const_iterator@?$_Tree@V?$_Tmap_traits@KU_Friend@@U?$less@K@std@@V?$allocator@U?$pair@$$CBKU_Friend@@@std@@@3@$0A@@std@@@std@@QBE_NABV012@@Z
_TEXT	SEGMENT PARA USE32 PUBLIC 'CODE'
_TEXT	ENDS
;	COMDAT ??8const_iterator@?$_Tree@V?$_Tmap_traits@KU_Friend@@U?$less@K@std@@V?$allocator@U?$pair@$$CBKU_Friend@@@std@@@3@$0A@@std@@@std@@QBE_NABV012@@Z
_TEXT	SEGMENT PARA USE32 PUBLIC 'CODE'
_TEXT	ENDS
;	COMDAT ??Eiterator@?$_Tree@V?$_Tmap_traits@KU_Friend@@U?$less@K@std@@V?$allocator@U?$pair@$$CBKU_Friend@@@std@@@3@$0A@@std@@@std@@QAEAAV012@XZ
_TEXT	SEGMENT PARA USE32 PUBLIC 'CODE'
_TEXT	ENDS
;	COMDAT ??Econst_iterator@?$_Tree@V?$_Tmap_traits@KU_Friend@@U?$less@K@std@@V?$allocator@U?$pair@$$CBKU_Friend@@@std@@@3@$0A@@std@@@std@@QAEAAV012@XZ
_TEXT	SEGMENT PARA USE32 PUBLIC 'CODE'
_TEXT	ENDS
;	COMDAT ?_Inc@const_iterator@?$_Tree@V?$_Tmap_traits@KU_Friend@@U?$less@K@std@@V?$allocator@U?$pair@$$CBKU_Friend@@@std@@@3@$0A@@std@@@std@@QAEXXZ
_TEXT	SEGMENT PARA USE32 PUBLIC 'CODE'
_TEXT	ENDS
;	COMDAT ?_Min@?$_Tree@V?$_Tmap_traits@KU_Friend@@U?$less@K@std@@V?$allocator@U?$pair@$$CBKU_Friend@@@std@@@3@$0A@@std@@@std@@KAPAU_Node@?$_Tree_nod@V?$_Tmap_traits@KU_Friend@@U?$less@K@std@@V?$allocator@U?$pair@$$CBKU_Friend@@@std@@@3@$0A@@std@@@2@PAU342@@Z
_TEXT	SEGMENT PARA USE32 PUBLIC 'CODE'
_TEXT	ENDS
;	COMDAT ?_Left@?$_Tree@V?$_Tmap_traits@KU_Friend@@U?$less@K@std@@V?$allocator@U?$pair@$$CBKU_Friend@@@std@@@3@$0A@@std@@@std@@KAAAPAU_Node@?$_Tree_nod@V?$_Tmap_traits@KU_Friend@@U?$less@K@std@@V?$allocator@U?$pair@$$CBKU_Friend@@@std@@@3@$0A@@std@@@2@PAU342@@Z
_TEXT	SEGMENT PARA USE32 PUBLIC 'CODE'
_TEXT	ENDS
;	COMDAT ?_Isnil@?$_Tree@V?$_Tmap_traits@KU_Friend@@U?$less@K@std@@V?$allocator@U?$pair@$$CBKU_Friend@@@std@@@3@$0A@@std@@@std@@KAAADPAU_Node@?$_Tree_nod@V?$_Tmap_traits@KU_Friend@@U?$less@K@std@@V?$allocator@U?$pair@$$CBKU_Friend@@@std@@@3@$0A@@std@@@2@@Z
_TEXT	SEGMENT PARA USE32 PUBLIC 'CODE'
_TEXT	ENDS
;	COMDAT ?_Parent@?$_Tree@V?$_Tmap_traits@KU_Friend@@U?$less@K@std@@V?$allocator@U?$pair@$$CBKU_Friend@@@std@@@3@$0A@@std@@@std@@KAAAPAU_Node@?$_Tree_nod@V?$_Tmap_traits@KU_Friend@@U?$less@K@std@@V?$allocator@U?$pair@$$CBKU_Friend@@@std@@@3@$0A@@std@@@2@PAU342@@Z
_TEXT	SEGMENT PARA USE32 PUBLIC 'CODE'
_TEXT	ENDS
;	COMDAT ?_Right@?$_Tree@V?$_Tmap_traits@KU_Friend@@U?$less@K@std@@V?$allocator@U?$pair@$$CBKU_Friend@@@std@@@3@$0A@@std@@@std@@KAAAPAU_Node@?$_Tree_nod@V?$_Tmap_traits@KU_Friend@@U?$less@K@std@@V?$allocator@U?$pair@$$CBKU_Friend@@@std@@@3@$0A@@std@@@2@PAU342@@Z
_TEXT	SEGMENT PARA USE32 PUBLIC 'CODE'
_TEXT	ENDS
;	COMDAT ?_Psave@?$_Facetptr@V?$ctype@G@std@@@std@@2PBVfacet@locale@2@B
_DATA	SEGMENT DWORD USE32 PUBLIC 'DATA'
_DATA	ENDS
;	COMDAT ?_Psave@?$_Facetptr@V?$ctype@D@std@@@std@@2PBVfacet@locale@2@B
_DATA	SEGMENT DWORD USE32 PUBLIC 'DATA'
_DATA	ENDS
;	COMDAT __TI3?AVlength_error@std@@
xdata$x	SEGMENT DWORD USE32 PUBLIC 'CONST'
xdata$x	ENDS
;	COMDAT ??1length_error@std@@UAE@XZ
_TEXT	SEGMENT PARA USE32 PUBLIC 'CODE'
_TEXT	ENDS
;	COMDAT ??_7length_error@std@@6B@
CONST	SEGMENT DWORD USE32 PUBLIC 'CONST'
CONST	ENDS
;	COMDAT ??_Glength_error@std@@UAEPAXI@Z
_TEXT	SEGMENT PARA USE32 PUBLIC 'CODE'
_TEXT	ENDS
;	COMDAT ?what@logic_error@std@@UBEPBDXZ
_TEXT	SEGMENT PARA USE32 PUBLIC 'CODE'
_TEXT	ENDS
;	COMDAT ?c_str@?$basic_string@DU?$char_traits@D@std@@V?$allocator@D@2@@std@@QBEPBDXZ
_TEXT	SEGMENT PARA USE32 PUBLIC 'CODE'
_TEXT	ENDS
;	COMDAT ??1logic_error@std@@UAE@XZ
_TEXT	SEGMENT PARA USE32 PUBLIC 'CODE'
_TEXT	ENDS
;	COMDAT ??_7logic_error@std@@6B@
CONST	SEGMENT DWORD USE32 PUBLIC 'CONST'
CONST	ENDS
;	COMDAT ??_Glogic_error@std@@UAEPAXI@Z
_TEXT	SEGMENT PARA USE32 PUBLIC 'CODE'
_TEXT	ENDS
;	COMDAT __CTA3?AVlength_error@std@@
xdata$x	SEGMENT DWORD USE32 PUBLIC 'CONST'
xdata$x	ENDS
;	COMDAT __CT??_R0?AVlength_error@std@@@8??0length_error@std@@QAE@ABV01@@Z40
xdata$x	SEGMENT DWORD USE32 PUBLIC 'CONST'
xdata$x	ENDS
;	COMDAT ??_R0?AVlength_error@std@@@8
_DATA	SEGMENT DWORD USE32 PUBLIC 'DATA'
_DATA	ENDS
;	COMDAT ??0length_error@std@@QAE@ABV01@@Z
_TEXT	SEGMENT PARA USE32 PUBLIC 'CODE'
_TEXT	ENDS
;	COMDAT ??0logic_error@std@@QAE@ABV01@@Z
_TEXT	SEGMENT PARA USE32 PUBLIC 'CODE'
_TEXT	ENDS
;	COMDAT ??0?$basic_string@DU?$char_traits@D@std@@V?$allocator@D@2@@std@@QAE@ABV01@@Z
_TEXT	SEGMENT PARA USE32 PUBLIC 'CODE'
_TEXT	ENDS
;	COMDAT ??0?$_String_val@DV?$allocator@D@std@@@std@@IAE@V?$allocator@D@1@@Z
_TEXT	SEGMENT PARA USE32 PUBLIC 'CODE'
_TEXT	ENDS
;	COMDAT ??0?$allocator@D@std@@QAE@ABV01@@Z
_TEXT	SEGMENT PARA USE32 PUBLIC 'CODE'
_TEXT	ENDS
;	COMDAT ?_Tidy@?$basic_string@DU?$char_traits@D@std@@V?$allocator@D@2@@std@@IAEX_NI@Z
_TEXT	SEGMENT PARA USE32 PUBLIC 'CODE'
_TEXT	ENDS
;	COMDAT ?copy@?$char_traits@D@std@@SAPADPADPBDI@Z
_TEXT	SEGMENT PARA USE32 PUBLIC 'CODE'
_TEXT	ENDS
;	COMDAT ?deallocate@?$allocator@D@std@@QAEXPADI@Z
_TEXT	SEGMENT PARA USE32 PUBLIC 'CODE'
_TEXT	ENDS
;	COMDAT ?_Eos@?$basic_string@DU?$char_traits@D@std@@V?$allocator@D@2@@std@@IAEXI@Z
_TEXT	SEGMENT PARA USE32 PUBLIC 'CODE'
_TEXT	ENDS
;	COMDAT ?assign@?$char_traits@D@std@@SAXAADABD@Z
_TEXT	SEGMENT PARA USE32 PUBLIC 'CODE'
_TEXT	ENDS
;	COMDAT ?_Myptr@?$basic_string@DU?$char_traits@D@std@@V?$allocator@D@2@@std@@QAEPADXZ
_TEXT	SEGMENT PARA USE32 PUBLIC 'CODE'
_TEXT	ENDS
;	COMDAT ?assign@?$basic_string@DU?$char_traits@D@std@@V?$allocator@D@2@@std@@QAEAAV12@ABV12@II@Z
_TEXT	SEGMENT PARA USE32 PUBLIC 'CODE'
_TEXT	ENDS
;	COMDAT ?erase@?$basic_string@DU?$char_traits@D@std@@V?$allocator@D@2@@std@@QAEAAV12@II@Z
_TEXT	SEGMENT PARA USE32 PUBLIC 'CODE'
_TEXT	ENDS
;	COMDAT ?move@?$char_traits@D@std@@SAPADPADPBDI@Z
_TEXT	SEGMENT PARA USE32 PUBLIC 'CODE'
_TEXT	ENDS
;	COMDAT ?_Grow@?$basic_string@DU?$char_traits@D@std@@V?$allocator@D@2@@std@@IAE_NI_N@Z
_TEXT	SEGMENT PARA USE32 PUBLIC 'CODE'
_TEXT	ENDS
;	COMDAT ?max_size@?$basic_string@DU?$char_traits@D@std@@V?$allocator@D@2@@std@@QBEIXZ
_TEXT	SEGMENT PARA USE32 PUBLIC 'CODE'
_TEXT	ENDS
;	COMDAT ?max_size@?$allocator@D@std@@QBEIXZ
_TEXT	SEGMENT PARA USE32 PUBLIC 'CODE'
_TEXT	ENDS
;	COMDAT ?_Copy@?$basic_string@DU?$char_traits@D@std@@V?$allocator@D@2@@std@@IAEXII@Z
_TEXT	SEGMENT PARA USE32 PUBLIC 'CODE'
_TEXT	ENDS
;	COMDAT ?allocate@?$allocator@D@std@@QAEPADI@Z
_TEXT	SEGMENT PARA USE32 PUBLIC 'CODE'
_TEXT	ENDS
;	COMDAT ??$_Allocate@D@std@@YAPADIPAD@Z
_TEXT	SEGMENT PARA USE32 PUBLIC 'CODE'
_TEXT	ENDS
;	COMDAT ?npos@?$basic_string@DU?$char_traits@D@std@@V?$allocator@D@2@@std@@2IB
CONST	SEGMENT DWORD USE32 PUBLIC 'CONST'
CONST	ENDS
;	COMDAT __CT??_R0?AVlogic_error@std@@@8??0logic_error@std@@QAE@ABV01@@Z40
xdata$x	SEGMENT DWORD USE32 PUBLIC 'CONST'
xdata$x	ENDS
;	COMDAT ??_R0?AVlogic_error@std@@@8
_DATA	SEGMENT DWORD USE32 PUBLIC 'DATA'
_DATA	ENDS
;	COMDAT ??1?$basic_string@DU?$char_traits@D@std@@V?$allocator@D@2@@std@@QAE@XZ
_TEXT	SEGMENT PARA USE32 PUBLIC 'CODE'
_TEXT	ENDS
;	COMDAT ??_C@_0BD@OLBABOEK@vector?$DMT?$DO?5too?5long?$AA@
CONST	SEGMENT DWORD USE32 PUBLIC 'CONST'
CONST	ENDS
;	COMDAT ??0?$basic_string@DU?$char_traits@D@std@@V?$allocator@D@2@@std@@QAE@PBD@Z
_TEXT	SEGMENT PARA USE32 PUBLIC 'CODE'
_TEXT	ENDS
;	COMDAT ??0?$allocator@D@std@@QAE@XZ
_TEXT	SEGMENT PARA USE32 PUBLIC 'CODE'
_TEXT	ENDS
;	COMDAT ?assign@?$basic_string@DU?$char_traits@D@std@@V?$allocator@D@2@@std@@QAEAAV12@PBD@Z
_TEXT	SEGMENT PARA USE32 PUBLIC 'CODE'
_TEXT	ENDS
;	COMDAT ?assign@?$basic_string@DU?$char_traits@D@std@@V?$allocator@D@2@@std@@QAEAAV12@PBDI@Z
_TEXT	SEGMENT PARA USE32 PUBLIC 'CODE'
_TEXT	ENDS
;	COMDAT ?_Inside@?$basic_string@DU?$char_traits@D@std@@V?$allocator@D@2@@std@@IAE_NPBD@Z
_TEXT	SEGMENT PARA USE32 PUBLIC 'CODE'
_TEXT	ENDS
;	COMDAT ?length@?$char_traits@D@std@@SAIPBD@Z
_TEXT	SEGMENT PARA USE32 PUBLIC 'CODE'
_TEXT	ENDS
;	COMDAT ??0length_error@std@@QAE@ABV?$basic_string@DU?$char_traits@D@std@@V?$allocator@D@2@@1@@Z
_TEXT	SEGMENT PARA USE32 PUBLIC 'CODE'
_TEXT	ENDS
;	COMDAT ??0logic_error@std@@QAE@ABV?$basic_string@DU?$char_traits@D@std@@V?$allocator@D@2@@1@@Z
_TEXT	SEGMENT PARA USE32 PUBLIC 'CODE'
_TEXT	ENDS
;	COMDAT ?compare@?$char_traits@D@std@@SAHPBD0I@Z
_TEXT	SEGMENT PARA USE32 PUBLIC 'CODE'
_TEXT	ENDS
;	COMDAT ??R?$less@K@std@@QBE_NABK0@Z
_TEXT	SEGMENT PARA USE32 PUBLIC 'CODE'
_TEXT	ENDS
;	COMDAT ?_Myptr@?$basic_string@DU?$char_traits@D@std@@V?$allocator@D@2@@std@@QBEPBDXZ
_TEXT	SEGMENT PARA USE32 PUBLIC 'CODE'
_TEXT	ENDS
;	COMDAT ?size@?$basic_string@DU?$char_traits@D@std@@V?$allocator@D@2@@std@@QBEIXZ
_TEXT	SEGMENT PARA USE32 PUBLIC 'CODE'
_TEXT	ENDS
;	COMDAT ?ReleaseBufferSetLength@?$CSimpleStringT@D$0A@@ATL@@QAEXH@Z
_TEXT	SEGMENT PARA USE32 PUBLIC 'CODE'
_TEXT	ENDS
;	COMDAT ?SetLength@?$CSimpleStringT@D$0A@@ATL@@AAEXH@Z
_TEXT	SEGMENT PARA USE32 PUBLIC 'CODE'
_TEXT	ENDS
;	COMDAT ?AtlThrow@ATL@@YGXJ@Z
_TEXT	SEGMENT PARA USE32 PUBLIC 'CODE'
_TEXT	ENDS
;	COMDAT ?GetData@?$CSimpleStringT@D$0A@@ATL@@ABEPAUCStringData@2@XZ
_TEXT	SEGMENT PARA USE32 PUBLIC 'CODE'
_TEXT	ENDS
;	COMDAT ?GetBuffer@?$CSimpleStringT@D$0A@@ATL@@QAEPADH@Z
_TEXT	SEGMENT PARA USE32 PUBLIC 'CODE'
_TEXT	ENDS
;	COMDAT ?PrepareWrite@?$CSimpleStringT@D$0A@@ATL@@AAEPADH@Z
_TEXT	SEGMENT PARA USE32 PUBLIC 'CODE'
_TEXT	ENDS
;	COMDAT ?PrepareWrite2@?$CSimpleStringT@D$0A@@ATL@@AAEXH@Z
_TEXT	SEGMENT PARA USE32 PUBLIC 'CODE'
_TEXT	ENDS
;	COMDAT ?IsShared@CStringData@ATL@@QBE_NXZ
_TEXT	SEGMENT PARA USE32 PUBLIC 'CODE'
_TEXT	ENDS
;	COMDAT ?Fork@?$CSimpleStringT@D$0A@@ATL@@AAEXH@Z
_TEXT	SEGMENT PARA USE32 PUBLIC 'CODE'
_TEXT	ENDS
;	COMDAT ?ThrowMemoryException@?$CSimpleStringT@D$0A@@ATL@@KAXXZ
_TEXT	SEGMENT PARA USE32 PUBLIC 'CODE'
_TEXT	ENDS
;	COMDAT ?CopyChars@?$CSimpleStringT@D$0A@@ATL@@SAXPADPBDH@Z
_TEXT	SEGMENT PARA USE32 PUBLIC 'CODE'
_TEXT	ENDS
;	COMDAT ?data@CStringData@ATL@@QAEPAXXZ
_TEXT	SEGMENT PARA USE32 PUBLIC 'CODE'
_TEXT	ENDS
;	COMDAT ?Release@CStringData@ATL@@QAEXXZ
_TEXT	SEGMENT PARA USE32 PUBLIC 'CODE'
_TEXT	ENDS
;	COMDAT ?Attach@?$CSimpleStringT@D$0A@@ATL@@AAEXPAUCStringData@2@@Z
_TEXT	SEGMENT PARA USE32 PUBLIC 'CODE'
_TEXT	ENDS
;	COMDAT ?Reallocate@?$CSimpleStringT@D$0A@@ATL@@AAEXH@Z
_TEXT	SEGMENT PARA USE32 PUBLIC 'CODE'
_TEXT	ENDS
;	COMDAT ?StringFindString@?$ChTraitsCRT@D@ATL@@SAPBDPBD0@Z
_TEXT	SEGMENT PARA USE32 PUBLIC 'CODE'
_TEXT	ENDS
;	COMDAT ?GetLength@?$CSimpleStringT@D$0A@@ATL@@QBEHXZ
_TEXT	SEGMENT PARA USE32 PUBLIC 'CODE'
_TEXT	ENDS
;	COMDAT ?GetString@?$CSimpleStringT@D$0A@@ATL@@QBEPBDXZ
_TEXT	SEGMENT PARA USE32 PUBLIC 'CODE'
_TEXT	ENDS
;	COMDAT ??_7CTLordSkill@@6B@
CONST	SEGMENT DWORD USE32 PUBLIC 'CONST'
CONST	ENDS
;	COMDAT ??_7CLController@@6B@
CONST	SEGMENT DWORD USE32 PUBLIC 'CONST'
CONST	ENDS
;	COMDAT ??_7CLEvent@@6B@
CONST	SEGMENT DWORD USE32 PUBLIC 'CONST'
CONST	ENDS
;	COMDAT ??1CMclAutoLock@@QAE@XZ
_TEXT	SEGMENT PARA USE32 PUBLIC 'CODE'
_TEXT	ENDS
;	COMDAT ?Leave@CMclCritSec@@QAEXXZ
_TEXT	SEGMENT PARA USE32 PUBLIC 'CODE'
_TEXT	ENDS
;	COMDAT ??0CMclAutoLock@@QAE@AAVCMclCritSec@@@Z
_TEXT	SEGMENT PARA USE32 PUBLIC 'CODE'
_TEXT	ENDS
;	COMDAT ?Enter@CMclCritSec@@QAEXXZ
_TEXT	SEGMENT PARA USE32 PUBLIC 'CODE'
_TEXT	ENDS
;	COMDAT ?xRand@@YAKXZ
_TEXT	SEGMENT PARA USE32 PUBLIC 'CODE'
_TEXT	ENDS
;	COMDAT ?SetSerialNumber@CItemBase@@QAEXK@Z
_TEXT	SEGMENT PARA USE32 PUBLIC 'CODE'
_TEXT	ENDS
;	COMDAT ?GetText@CProject@@QAEPBDK@Z
_TEXT	SEGMENT PARA USE32 PUBLIC 'CODE'
_TEXT	ENDS
;	COMDAT ??_C@_00CNPNBAHC@?$AA@
CONST	SEGMENT DWORD USE32 PUBLIC 'CONST'
CONST	ENDS
;	COMDAT ?GetAt@?$CFixedArray@UtagColorText@@@@QAEPAUtagColorText@@K@Z
_TEXT	SEGMENT PARA USE32 PUBLIC 'CODE'
_TEXT	ENDS
;	COMDAT ??0CTime@ATL@@QAE@HHHHHHH@Z
_TEXT	SEGMENT PARA USE32 PUBLIC 'CODE'
_TEXT	ENDS
;	COMDAT ??1?$CStringT@DV?$StrTraitMFC@DV?$ChTraitsCRT@D@ATL@@@@@ATL@@QAE@XZ
_TEXT	SEGMENT PARA USE32 PUBLIC 'CODE'
_TEXT	ENDS
;	COMDAT ??1?$CSimpleStringT@D$0A@@ATL@@QAE@XZ
_TEXT	SEGMENT PARA USE32 PUBLIC 'CODE'
_TEXT	ENDS
;	COMDAT ?Format@CTime@ATL@@QBE?AV?$CStringT@DV?$StrTraitMFC@DV?$ChTraitsCRT@D@ATL@@@@@2@PBD@Z
_TEXT	SEGMENT PARA USE32 PUBLIC 'CODE'
_TEXT	ENDS
;	COMDAT ??0?$CStringT@DV?$StrTraitMFC@DV?$ChTraitsCRT@D@ATL@@@@@ATL@@QAE@PBD@Z
_TEXT	SEGMENT PARA USE32 PUBLIC 'CODE'
_TEXT	ENDS
;	COMDAT ??0?$CSimpleStringT@D$0A@@ATL@@QAE@PAUIAtlStringMgr@1@@Z
_TEXT	SEGMENT PARA USE32 PUBLIC 'CODE'
_TEXT	ENDS
;	COMDAT ?GetDefaultManager@?$StrTraitMFC@DV?$ChTraitsCRT@D@ATL@@@@SAPAUIAtlStringMgr@ATL@@XZ
_TEXT	SEGMENT PARA USE32 PUBLIC 'CODE'
_TEXT	ENDS
;	COMDAT ?CheckImplicitLoad@?$CStringT@DV?$StrTraitMFC@DV?$ChTraitsCRT@D@ATL@@@@@ATL@@AAE_NPBX@Z
_TEXT	SEGMENT PARA USE32 PUBLIC 'CODE'
_TEXT	ENDS
;	COMDAT ?LoadStringA@?$CStringT@DV?$StrTraitMFC@DV?$ChTraitsCRT@D@ATL@@@@@ATL@@QAEHI@Z
_TEXT	SEGMENT PARA USE32 PUBLIC 'CODE'
_TEXT	ENDS
;	COMDAT ?FindStringResourceInstance@?$StrTraitMFC@DV?$ChTraitsCRT@D@ATL@@@@SAPAUHINSTANCE__@@I@Z
_TEXT	SEGMENT PARA USE32 PUBLIC 'CODE'
_TEXT	ENDS
;	COMDAT ?LoadStringA@?$CStringT@DV?$StrTraitMFC@DV?$ChTraitsCRT@D@ATL@@@@@ATL@@QAEHPAUHINSTANCE__@@I@Z
_TEXT	SEGMENT PARA USE32 PUBLIC 'CODE'
_TEXT	ENDS
;	COMDAT ?AtlGetStringResourceImage@ATL@@YAPBUATLSTRINGRESOURCEIMAGE@1@PAUHINSTANCE__@@I@Z
_TEXT	SEGMENT PARA USE32 PUBLIC 'CODE'
_TEXT	ENDS
;	COMDAT ?_AtlGetStringResourceImage@ATL@@YAPBUATLSTRINGRESOURCEIMAGE@1@PAUHINSTANCE__@@PAUHRSRC__@@I@Z
_TEXT	SEGMENT PARA USE32 PUBLIC 'CODE'
_TEXT	ENDS
;	COMDAT ?GetBaseTypeLength@?$ChTraitsCRT@D@ATL@@SAHPBGH@Z
_TEXT	SEGMENT PARA USE32 PUBLIC 'CODE'
_TEXT	ENDS
;	COMDAT ?_AtlGetConversionACP@ATL@@YGIXZ
_TEXT	SEGMENT PARA USE32 PUBLIC 'CODE'
_TEXT	ENDS
;	COMDAT ?g_pfnGetThreadACP@ATL@@3P6GIXZA
_DATA	SEGMENT DWORD USE32 PUBLIC 'DATA'
_DATA	ENDS
;	COMDAT ?_AtlGetThreadACPThunk@ATL@@YGIXZ
_TEXT	SEGMENT PARA USE32 PUBLIC 'CODE'
_TEXT	ENDS
;	COMDAT ?_AtlGetThreadACPReal@ATL@@YGIXZ
_TEXT	SEGMENT PARA USE32 PUBLIC 'CODE'
_TEXT	ENDS
;	COMDAT ?_AtlGetThreadACPFake@ATL@@YGIXZ
_TEXT	SEGMENT PARA USE32 PUBLIC 'CODE'
_TEXT	ENDS
;	COMDAT ?InterlockedExchangePointer@@YGPAXPAPAXPAX@Z
_TEXT	SEGMENT PARA USE32 PUBLIC 'CODE'
_TEXT	ENDS
;	COMDAT ?ConvertToBaseType@?$ChTraitsCRT@D@ATL@@SAXPADHPBGH@Z
_TEXT	SEGMENT PARA USE32 PUBLIC 'CODE'
_TEXT	ENDS
;	COMDAT ??0CTime@ATL@@QAE@_J@Z
_TEXT	SEGMENT PARA USE32 PUBLIC 'CODE'
_TEXT	ENDS
;	COMDAT ??_7CTElection@@6B@
CONST	SEGMENT DWORD USE32 PUBLIC 'CONST'
CONST	ENDS
;	COMDAT ??5@YAAAVCAr@@AAV0@AA_J@Z
_TEXT	SEGMENT PARA USE32 PUBLIC 'CODE'
_TEXT	ENDS
;	COMDAT ?sLord@?1??Instance@CTLord@@SAPAV2@XZ@4V2@A
_BSS	SEGMENT DWORD USE32 PUBLIC 'BSS'
_BSS	ENDS
;	COMDAT ?$S1@?1??Instance@CTLord@@SAPAV2@XZ@4IA
_BSS	SEGMENT DWORD USE32 PUBLIC 'BSS'
_BSS	ENDS
;	COMDAT ??_7CTLord@@6B@
CONST	SEGMENT DWORD USE32 PUBLIC 'CONST'
CONST	ENDS
;	COMDAT ??4?$CStringT@DV?$StrTraitMFC@DV?$ChTraitsCRT@D@ATL@@@@@ATL@@QAEAAV01@PBD@Z
_TEXT	SEGMENT PARA USE32 PUBLIC 'CODE'
_TEXT	ENDS
;	COMDAT ??4?$CSimpleStringT@D$0A@@ATL@@QAEAAV01@PBD@Z
_TEXT	SEGMENT PARA USE32 PUBLIC 'CODE'
_TEXT	ENDS
;	COMDAT ?SetString@?$CSimpleStringT@D$0A@@ATL@@QAEXPBD@Z
_TEXT	SEGMENT PARA USE32 PUBLIC 'CODE'
_TEXT	ENDS
;	COMDAT ?SetString@?$CSimpleStringT@D$0A@@ATL@@QAEXPBDH@Z
_TEXT	SEGMENT PARA USE32 PUBLIC 'CODE'
_TEXT	ENDS
;	COMDAT ?Empty@?$CSimpleStringT@D$0A@@ATL@@QAEXXZ
_TEXT	SEGMENT PARA USE32 PUBLIC 'CODE'
_TEXT	ENDS
;	COMDAT ?IsLocked@CStringData@ATL@@QBE_NXZ
_TEXT	SEGMENT PARA USE32 PUBLIC 'CODE'
_TEXT	ENDS
;	COMDAT ?CopyCharsOverlapped@?$CSimpleStringT@D$0A@@ATL@@SAXPADPBDH@Z
_TEXT	SEGMENT PARA USE32 PUBLIC 'CODE'
_TEXT	ENDS
;	COMDAT ?StringLength@?$CSimpleStringT@D$0A@@ATL@@SAHPBD@Z
_TEXT	SEGMENT PARA USE32 PUBLIC 'CODE'
_TEXT	ENDS
;	COMDAT ??B?$CSimpleStringT@D$0A@@ATL@@QBEPBDXZ
_TEXT	SEGMENT PARA USE32 PUBLIC 'CODE'
_TEXT	ENDS
;	COMDAT ??5@YAAAVCAr@@AAV0@AAUD3DXVECTOR3@@@Z
_TEXT	SEGMENT PARA USE32 PUBLIC 'CODE'
_TEXT	ENDS
;	COMDAT ??5CAr@@QAEAAV0@AAM@Z
_TEXT	SEGMENT PARA USE32 PUBLIC 'CODE'
_TEXT	ENDS
;	COMDAT ??5CAr@@QAEAAV0@AAK@Z
_TEXT	SEGMENT PARA USE32 PUBLIC 'CODE'
_TEXT	ENDS
;	COMDAT ??5CAr@@QAEAAV0@AAJ@Z
_TEXT	SEGMENT PARA USE32 PUBLIC 'CODE'
_TEXT	ENDS
;	COMDAT ?time_null@@YAJXZ
_TEXT	SEGMENT PARA USE32 PUBLIC 'CODE'
_TEXT	ENDS
;	COMDAT ??6CAr@@QAEAAV0@K@Z
_TEXT	SEGMENT PARA USE32 PUBLIC 'CODE'
_TEXT	ENDS
;	COMDAT ??6CAr@@QAEAAV0@J@Z
_TEXT	SEGMENT PARA USE32 PUBLIC 'CODE'
_TEXT	ENDS
;	COMDAT ??6@YAAAVCAr@@AAV0@UD3DXVECTOR3@@@Z
_TEXT	SEGMENT PARA USE32 PUBLIC 'CODE'
_TEXT	ENDS
;	COMDAT ??6CAr@@QAEAAV0@M@Z
_TEXT	SEGMENT PARA USE32 PUBLIC 'CODE'
_TEXT	ENDS
;	COMDAT ?IsStoring@CAr@@QBEHXZ
_TEXT	SEGMENT PARA USE32 PUBLIC 'CODE'
_TEXT	ENDS
;	COMDAT ?GetTime@CTime@ATL@@QBE_JXZ
_TEXT	SEGMENT PARA USE32 PUBLIC 'CODE'
_TEXT	ENDS
;	COMDAT ??0CTimeSpan@ATL@@QAE@JHHH@Z
_TEXT	SEGMENT PARA USE32 PUBLIC 'CODE'
_TEXT	ENDS
;	COMDAT ?GetTickCount@CTime@ATL@@SG?AV12@XZ
_TEXT	SEGMENT PARA USE32 PUBLIC 'CODE'
_TEXT	ENDS
;	COMDAT ??HCTime@ATL@@QBE?AV01@VCTimeSpan@1@@Z
_TEXT	SEGMENT PARA USE32 PUBLIC 'CODE'
_TEXT	ENDS
;	COMDAT ?GetTimeSpan@CTimeSpan@ATL@@QBE_JXZ
_TEXT	SEGMENT PARA USE32 PUBLIC 'CODE'
_TEXT	ENDS
;	COMDAT ?GetItemProp@CProject@@QAEPAUItemProp@@H@Z
_TEXT	SEGMENT PARA USE32 PUBLIC 'CODE'
_TEXT	ENDS
;	COMDAT ?GetAt@?$CFixedArray@UItemProp@@@@QAEPAUItemProp@@K@Z
_TEXT	SEGMENT PARA USE32 PUBLIC 'CODE'
_TEXT	ENDS
;	COMDAT ??0D3DXVECTOR3@@QAE@MMM@Z
_TEXT	SEGMENT PARA USE32 PUBLIC 'CODE'
_TEXT	ENDS
;	COMDAT ??5CAr@@QAEAAV0@AAH@Z
_TEXT	SEGMENT PARA USE32 PUBLIC 'CODE'
_TEXT	ENDS
;	COMDAT ??6CAr@@QAEAAV0@H@Z
_TEXT	SEGMENT PARA USE32 PUBLIC 'CODE'
_TEXT	ENDS
;	COMDAT ??_7CLordSkillComponentExecutable@@6B@
CONST	SEGMENT DWORD USE32 PUBLIC 'CONST'
CONST	ENDS
;	COMDAT ??_7bad_weak_ptr@boost@@6B@
CONST	SEGMENT DWORD USE32 PUBLIC 'CONST'
CONST	ENDS
;	COMDAT ??_7sp_counted_base@detail@boost@@6B@
CONST	SEGMENT DWORD USE32 PUBLIC 'CONST'
CONST	ENDS
sxdata	SEGMENT DWORD USE32 'SXDATA'
sxdata	ENDS
FLAT	GROUP _DATA, CONST, _BSS
	ASSUME	CS: FLAT, DS: FLAT, SS: FLAT
endif

INCLUDELIB LIBCMT
INCLUDELIB OLDNAMES

PUBLIC	?g_pfnGetThreadACP@ATL@@3P6GIXZA		; ATL::g_pfnGetThreadACP
PUBLIC	?_AtlGetThreadACPThunk@ATL@@YGIXZ		; ATL::_AtlGetThreadACPThunk
;	COMDAT ?g_pfnGetThreadACP@ATL@@3P6GIXZA
_DATA	SEGMENT
?g_pfnGetThreadACP@ATL@@3P6GIXZA DD FLAT:?_AtlGetThreadACPThunk@ATL@@YGIXZ ; ATL::g_pfnGetThreadACP
_DATA	ENDS
PUBLIC	?GetId@CLordSkillComponent@@QAEHXZ		; CLordSkillComponent::GetId
; Function compile flags: /Ogty
; File c:\documents and settings\test\mes documents\source\virtuos_v17\build\program\_common\lordskill.h
;	COMDAT ?GetId@CLordSkillComponent@@QAEHXZ
_TEXT	SEGMENT
?GetId@CLordSkillComponent@@QAEHXZ PROC NEAR		; CLordSkillComponent::GetId, COMDAT
; _this$ = ecx

; 22   : 	int		GetId( void )	{	return m_nId;	}

  00000	8b 41 04	 mov	 eax, DWORD PTR [ecx+4]
  00003	c3		 ret	 0
?GetId@CLordSkillComponent@@QAEHXZ ENDP			; CLordSkillComponent::GetId
_TEXT	ENDS
PUBLIC	?GetTick@CLordSkillComponent@@QAEHXZ		; CLordSkillComponent::GetTick
; Function compile flags: /Ogty
;	COMDAT ?GetTick@CLordSkillComponent@@QAEHXZ
_TEXT	SEGMENT
?GetTick@CLordSkillComponent@@QAEHXZ PROC NEAR		; CLordSkillComponent::GetTick, COMDAT
; _this$ = ecx

; 30   : 	int		GetTick( void )		{	return m_nTick;		};

  00000	8b 41 0c	 mov	 eax, DWORD PTR [ecx+12]
  00003	c3		 ret	 0
?GetTick@CLordSkillComponent@@QAEHXZ ENDP		; CLordSkillComponent::GetTick
_TEXT	ENDS
PUBLIC	?SetTick@CLordSkillComponent@@QAEXH@Z		; CLordSkillComponent::SetTick
; Function compile flags: /Ogty
;	COMDAT ?SetTick@CLordSkillComponent@@QAEXH@Z
_TEXT	SEGMENT
_nTick$ = 8						; size = 4
?SetTick@CLordSkillComponent@@QAEXH@Z PROC NEAR		; CLordSkillComponent::SetTick, COMDAT
; _this$ = ecx

; 31   : 	void	SetTick( int nTick )	{	m_nTick		= nTick;	}

  00000	8b 44 24 04	 mov	 eax, DWORD PTR _nTick$[esp-4]
  00004	89 41 0c	 mov	 DWORD PTR [ecx+12], eax
  00007	c2 04 00	 ret	 4
?SetTick@CLordSkillComponent@@QAEXH@Z ENDP		; CLordSkillComponent::SetTick
_TEXT	ENDS
PUBLIC	?GetIdPlayer@CCandidate@@QAEKXZ			; CCandidate::GetIdPlayer
; Function compile flags: /Ogty
; File c:\documents and settings\test\mes documents\source\virtuos_v17\build\program\_common\lord.h
;	COMDAT ?GetIdPlayer@CCandidate@@QAEKXZ
_TEXT	SEGMENT
?GetIdPlayer@CCandidate@@QAEKXZ PROC NEAR		; CCandidate::GetIdPlayer, COMDAT
; _this$ = ecx

; 32   : 	u_long	GetIdPlayer( void )		{	return m_idPlayer;		}

  00000	8b 01		 mov	 eax, DWORD PTR [ecx]
  00002	c3		 ret	 0
?GetIdPlayer@CCandidate@@QAEKXZ ENDP			; CCandidate::GetIdPlayer
_TEXT	ENDS
PUBLIC	?GetDeposit@CCandidate@@QBE_JXZ			; CCandidate::GetDeposit
; Function compile flags: /Ogty
;	COMDAT ?GetDeposit@CCandidate@@QBE_JXZ
_TEXT	SEGMENT
?GetDeposit@CCandidate@@QBE_JXZ PROC NEAR		; CCandidate::GetDeposit, COMDAT
; _this$ = ecx

; 34   : 	__int64		GetDeposit( void )	const	{	return m_iDeposit;	}

  00000	8b 41 08	 mov	 eax, DWORD PTR [ecx+8]
  00003	8b 51 0c	 mov	 edx, DWORD PTR [ecx+12]
  00006	c3		 ret	 0
?GetDeposit@CCandidate@@QBE_JXZ ENDP			; CCandidate::GetDeposit
_TEXT	ENDS
PUBLIC	?GetId@IElection@@QAEKXZ			; IElection::GetId
; Function compile flags: /Ogty
;	COMDAT ?GetId@IElection@@QAEKXZ
_TEXT	SEGMENT
?GetId@IElection@@QAEKXZ PROC NEAR			; IElection::GetId, COMDAT
; _this$ = ecx

; 66   : 	u_long	GetId( void )	{	return m_idElection;	}

  00000	8b 41 08	 mov	 eax, DWORD PTR [ecx+8]
  00003	c3		 ret	 0
?GetId@IElection@@QAEKXZ ENDP				; IElection::GetId
_TEXT	ENDS
PUBLIC	?SetState@IElection@@QAEXW4ELECTION_STATE@1@@Z	; IElection::SetState
; Function compile flags: /Ogty
;	COMDAT ?SetState@IElection@@QAEXW4ELECTION_STATE@1@@Z
_TEXT	SEGMENT
_eState$ = 8						; size = 4
?SetState@IElection@@QAEXW4ELECTION_STATE@1@@Z PROC NEAR ; IElection::SetState, COMDAT
; _this$ = ecx

; 72   : 	void	SetState( ELECTION_STATE eState )	{	m_eState	= eState;	}

  00000	8b 44 24 04	 mov	 eax, DWORD PTR _eState$[esp-4]
  00004	89 41 10	 mov	 DWORD PTR [ecx+16], eax
  00007	c2 04 00	 ret	 4
?SetState@IElection@@QAEXW4ELECTION_STATE@1@@Z ENDP	; IElection::SetState
_TEXT	ENDS
PUBLIC	?GetState@IElection@@QAE?AW4ELECTION_STATE@1@XZ	; IElection::GetState
; Function compile flags: /Ogty
;	COMDAT ?GetState@IElection@@QAE?AW4ELECTION_STATE@1@XZ
_TEXT	SEGMENT
?GetState@IElection@@QAE?AW4ELECTION_STATE@1@XZ PROC NEAR ; IElection::GetState, COMDAT
; _this$ = ecx

; 73   : 	ELECTION_STATE	GetState( void )	{	return m_eState;	}

  00000	8b 41 10	 mov	 eax, DWORD PTR [ecx+16]
  00003	c3		 ret	 0
?GetState@IElection@@QAE?AW4ELECTION_STATE@1@XZ ENDP	; IElection::GetState
_TEXT	ENDS
PUBLIC	?SetBegin@IElection@@QAEXJ@Z			; IElection::SetBegin
; Function compile flags: /Ogty
;	COMDAT ?SetBegin@IElection@@QAEXJ@Z
_TEXT	SEGMENT
_tBegin$ = 8						; size = 4
?SetBegin@IElection@@QAEXJ@Z PROC NEAR			; IElection::SetBegin, COMDAT
; _this$ = ecx

; 76   : 	void	SetBegin( time_t tBegin )	{	m_tBegin	= tBegin;	}

  00000	8b 44 24 04	 mov	 eax, DWORD PTR _tBegin$[esp-4]
  00004	89 41 24	 mov	 DWORD PTR [ecx+36], eax
  00007	c2 04 00	 ret	 4
?SetBegin@IElection@@QAEXJ@Z ENDP			; IElection::SetBegin
_TEXT	ENDS
PUBLIC	?GetBegin@IElection@@QAEJXZ			; IElection::GetBegin
; Function compile flags: /Ogty
;	COMDAT ?GetBegin@IElection@@QAEJXZ
_TEXT	SEGMENT
?GetBegin@IElection@@QAEJXZ PROC NEAR			; IElection::GetBegin, COMDAT
; _this$ = ecx

; 77   : 	time_t	GetBegin( void )	{	return m_tBegin;	}

  00000	8b 41 24	 mov	 eax, DWORD PTR [ecx+36]
  00003	c3		 ret	 0
?GetBegin@IElection@@QAEJXZ ENDP			; IElection::GetBegin
_TEXT	ENDS
PUBLIC	?SetRequirement@IElection@@QAEXH@Z		; IElection::SetRequirement
; Function compile flags: /Ogty
;	COMDAT ?SetRequirement@IElection@@QAEXH@Z
_TEXT	SEGMENT
_nRequirement$ = 8					; size = 4
?SetRequirement@IElection@@QAEXH@Z PROC NEAR		; IElection::SetRequirement, COMDAT
; _this$ = ecx

; 107  : 	void	SetRequirement( int nRequirement )	{	m_nRequirement	= nRequirement;		}

  00000	8b 44 24 04	 mov	 eax, DWORD PTR _nRequirement$[esp-4]
  00004	89 41 0c	 mov	 DWORD PTR [ecx+12], eax
  00007	c2 04 00	 ret	 4
?SetRequirement@IElection@@QAEXH@Z ENDP			; IElection::SetRequirement
_TEXT	ENDS
PUBLIC	?GetTick@CLEComponent@@QAEHXZ			; CLEComponent::GetTick
; Function compile flags: /Ogty
;	COMDAT ?GetTick@CLEComponent@@QAEHXZ
_TEXT	SEGMENT
?GetTick@CLEComponent@@QAEHXZ PROC NEAR			; CLEComponent::GetTick, COMDAT
; _this$ = ecx

; 174  : 	int		GetTick( void )		{	return nTick;	}

  00000	8b 41 04	 mov	 eax, DWORD PTR [ecx+4]
  00003	c3		 ret	 0
?GetTick@CLEComponent@@QAEHXZ ENDP			; CLEComponent::GetTick
_TEXT	ENDS
PUBLIC	?GetIdPlayer@CLEComponent@@QAEKXZ		; CLEComponent::GetIdPlayer
; Function compile flags: /Ogty
;	COMDAT ?GetIdPlayer@CLEComponent@@QAEKXZ
_TEXT	SEGMENT
?GetIdPlayer@CLEComponent@@QAEKXZ PROC NEAR		; CLEComponent::GetIdPlayer, COMDAT
; _this$ = ecx

; 176  : 	u_long	GetIdPlayer( void )	{	return idPlayer;	}

  00000	8b 41 08	 mov	 eax, DWORD PTR [ecx+8]
  00003	c3		 ret	 0
?GetIdPlayer@CLEComponent@@QAEKXZ ENDP			; CLEComponent::GetIdPlayer
_TEXT	ENDS
PUBLIC	?InterlockedExchangePointer@@YGPAXPAPAXPAX@Z	; InterlockedExchangePointer
EXTRN	__imp__InterlockedExchange@8:NEAR
; Function compile flags: /Ogty
; File c:\program files\microsoft visual studio .net 2003\vc7\atlmfc\include\atlconv.h
;	COMDAT ?InterlockedExchangePointer@@YGPAXPAPAXPAX@Z
_TEXT	SEGMENT
_pp$ = 8						; size = 4
_pNew$ = 12						; size = 4
?InterlockedExchangePointer@@YGPAXPAPAXPAX@Z PROC NEAR	; InterlockedExchangePointer, COMDAT

; 92   : 	return( reinterpret_cast<void*>(static_cast<LONG_PTR>(::InterlockedExchange(reinterpret_cast<LONG*>(pp), static_cast<LONG>(reinterpret_cast<LONG_PTR>(pNew))))) );

  00000	ff 25 00 00 00
	00		 jmp	 DWORD PTR __imp__InterlockedExchange@8
?InterlockedExchangePointer@@YGPAXPAPAXPAX@Z ENDP	; InterlockedExchangePointer
_TEXT	ENDS
PUBLIC	?GetEFactor@CLEComponent@@QAEMXZ		; CLEComponent::GetEFactor
EXTRN	__fltused:NEAR
; Function compile flags: /Ogty
; File c:\documents and settings\test\mes documents\source\virtuos_v17\build\program\_common\lord.h
;	COMDAT ?GetEFactor@CLEComponent@@QAEMXZ
_TEXT	SEGMENT
?GetEFactor@CLEComponent@@QAEMXZ PROC NEAR		; CLEComponent::GetEFactor, COMDAT
; _this$ = ecx

; 177  : 	float	GetEFactor( void )	{	return fEFactor;	}

  00000	d9 41 0c	 fld	 DWORD PTR [ecx+12]
  00003	c3		 ret	 0
?GetEFactor@CLEComponent@@QAEMXZ ENDP			; CLEComponent::GetEFactor
_TEXT	ENDS
PUBLIC	?_AtlGetThreadACPFake@ATL@@YGIXZ		; ATL::_AtlGetThreadACPFake
EXTRN	__imp__GetThreadLocale@0:NEAR
EXTRN	___security_cookie:DWORD
EXTRN	@__security_check_cookie@4:NEAR
EXTRN	__imp__GetACP@0:NEAR
EXTRN	__imp__GetLocaleInfoA@16:NEAR
; Function compile flags: /Ogty
; File c:\program files\microsoft visual studio .net 2003\vc7\atlmfc\include\atlconv.h
;	COMDAT ?_AtlGetThreadACPFake@ATL@@YGIXZ
_TEXT	SEGMENT
_szACP$ = -12						; size = 7
__$ArrayPad$ = -4					; size = 4
__$ReturnAddr$ = 4					; size = 4
?_AtlGetThreadACPFake@ATL@@YGIXZ PROC NEAR		; ATL::_AtlGetThreadACPFake, COMDAT

; 101  : {

  00000	83 ec 0c	 sub	 esp, 12			; 0000000cH
  00003	a1 00 00 00 00	 mov	 eax, DWORD PTR ___security_cookie
  00008	33 c4		 xor	 eax, esp
  0000a	56		 push	 esi
  0000b	89 44 24 0c	 mov	 DWORD PTR __$ArrayPad$[esp+16], eax

; 102  : 	UINT nACP = 0;

  0000f	33 f6		 xor	 esi, esi

; 103  : 
; 104  : 	LCID lcidThread = ::GetThreadLocale();

  00011	ff 15 00 00 00
	00		 call	 DWORD PTR __imp__GetThreadLocale@0

; 105  : 
; 106  : 	char szACP[7];
; 107  : 	// GetLocaleInfoA will fail for a Unicode-only LCID, but those are only supported on 
; 108  : 	// Windows 2000.  Since Windows 2000 supports CP_THREAD_ACP, this code path is never
; 109  : 	// executed on Windows 2000.
; 110  : 	if (::GetLocaleInfoA(lcidThread, LOCALE_IDEFAULTANSICODEPAGE, szACP, 7) != 0)

  00017	6a 07		 push	 7
  00019	8d 4c 24 08	 lea	 ecx, DWORD PTR _szACP$[esp+20]
  0001d	51		 push	 ecx
  0001e	68 04 10 00 00	 push	 4100			; 00001004H
  00023	50		 push	 eax
  00024	ff 15 00 00 00
	00		 call	 DWORD PTR __imp__GetLocaleInfoA@16
  0002a	85 c0		 test	 eax, eax
  0002c	74 27		 je	 SHORT $L206353

; 111  : 	{
; 112  : 		char* pch = szACP;
; 113  : 		while (*pch != '\0')

  0002e	8a 44 24 04	 mov	 al, BYTE PTR _szACP$[esp+16]
  00032	84 c0		 test	 al, al
  00034	8d 4c 24 04	 lea	 ecx, DWORD PTR _szACP$[esp+16]
  00038	74 1b		 je	 SHORT $L206353
  0003a	8d 9b 00 00 00
	00		 npad	 6
$L38554:

; 114  : 		{
; 115  : 			nACP *= 10;
; 116  : 			nACP += *pch++ - '0';

  00040	0f be c0	 movsx	 eax, al
  00043	8d 14 b6	 lea	 edx, DWORD PTR [esi+esi*4]
  00046	41		 inc	 ecx
  00047	8d 74 50 d0	 lea	 esi, DWORD PTR [eax+edx*2-48]
  0004b	8a 01		 mov	 al, BYTE PTR [ecx]
  0004d	84 c0		 test	 al, al
  0004f	75 ef		 jne	 SHORT $L38554

; 117  : 		}
; 118  : 	}
; 119  : 	// Use the Default ANSI Code Page if we were unable to get the thread ACP or if one does not exist.
; 120  : 	if (nACP == 0)

  00051	85 f6		 test	 esi, esi
  00053	75 16		 jne	 SHORT $L206354
$L206353:

; 121  : 		nACP = ::GetACP();

  00055	ff 15 00 00 00
	00		 call	 DWORD PTR __imp__GetACP@0
  0005b	5e		 pop	 esi

; 122  : 
; 123  : 	return nACP;
; 124  : }

  0005c	8b 4c 24 08	 mov	 ecx, DWORD PTR __$ArrayPad$[esp+12]
  00060	33 cc		 xor	 ecx, esp
  00062	e8 00 00 00 00	 call	 @__security_check_cookie@4
  00067	83 c4 0c	 add	 esp, 12			; 0000000cH
  0006a	c3		 ret	 0
$L206354:
  0006b	8b 4c 24 0c	 mov	 ecx, DWORD PTR __$ArrayPad$[esp+16]
  0006f	8b c6		 mov	 eax, esi
  00071	5e		 pop	 esi
  00072	33 cc		 xor	 ecx, esp
  00074	e8 00 00 00 00	 call	 @__security_check_cookie@4
  00079	83 c4 0c	 add	 esp, 12			; 0000000cH
  0007c	c3		 ret	 0
?_AtlGetThreadACPFake@ATL@@YGIXZ ENDP			; ATL::_AtlGetThreadACPFake
_TEXT	ENDS
PUBLIC	?GetIFactor@CLEComponent@@QAEMXZ		; CLEComponent::GetIFactor
; Function compile flags: /Ogty
; File c:\documents and settings\test\mes documents\source\virtuos_v17\build\program\_common\lord.h
;	COMDAT ?GetIFactor@CLEComponent@@QAEMXZ
_TEXT	SEGMENT
?GetIFactor@CLEComponent@@QAEMXZ PROC NEAR		; CLEComponent::GetIFactor, COMDAT
; _this$ = ecx

; 178  : 	float	GetIFactor( void )	{	return fIFactor;		}

  00000	d9 41 10	 fld	 DWORD PTR [ecx+16]
  00003	c3		 ret	 0
?GetIFactor@CLEComponent@@QAEMXZ ENDP			; CLEComponent::GetIFactor
_TEXT	ENDS
PUBLIC	?_AtlGetThreadACPReal@ATL@@YGIXZ		; ATL::_AtlGetThreadACPReal
; Function compile flags: /Ogty
; File c:\program files\microsoft visual studio .net 2003\vc7\atlmfc\include\atlconv.h
;	COMDAT ?_AtlGetThreadACPReal@ATL@@YGIXZ
_TEXT	SEGMENT
?_AtlGetThreadACPReal@ATL@@YGIXZ PROC NEAR		; ATL::_AtlGetThreadACPReal, COMDAT

; 128  : 	return( CP_THREAD_ACP );

  00000	b8 03 00 00 00	 mov	 eax, 3

; 129  : }

  00005	c3		 ret	 0
?_AtlGetThreadACPReal@ATL@@YGIXZ ENDP			; ATL::_AtlGetThreadACPReal
_TEXT	ENDS
EXTRN	__imp__GetVersionExA@4:NEAR
; Function compile flags: /Ogty
;	COMDAT ?_AtlGetThreadACPThunk@ATL@@YGIXZ
_TEXT	SEGMENT
_ver$ = -152						; size = 148
__$ArrayPad$ = -4					; size = 4
__$ReturnAddr$ = 4					; size = 4
?_AtlGetThreadACPThunk@ATL@@YGIXZ PROC NEAR		; ATL::_AtlGetThreadACPThunk, COMDAT

; 134  : {

  00000	81 ec 98 00 00
	00		 sub	 esp, 152		; 00000098H
  00006	a1 00 00 00 00	 mov	 eax, DWORD PTR ___security_cookie
  0000b	33 c4		 xor	 eax, esp
  0000d	89 84 24 94 00
	00 00		 mov	 DWORD PTR __$ArrayPad$[esp+152], eax

; 135  : 	OSVERSIONINFO ver;
; 136  : 	ATLGETTHREADACP pfnGetThreadACP;
; 137  : 
; 138  : 	ver.dwOSVersionInfoSize = sizeof( ver );
; 139  : 	::GetVersionEx( &ver );

  00014	8d 04 24	 lea	 eax, DWORD PTR _ver$[esp+152]
  00017	50		 push	 eax
  00018	c7 44 24 04 94
	00 00 00	 mov	 DWORD PTR _ver$[esp+156], 148 ; 00000094H
  00020	ff 15 00 00 00
	00		 call	 DWORD PTR __imp__GetVersionExA@4

; 140  : 	if( (ver.dwPlatformId == VER_PLATFORM_WIN32_NT) && (ver.dwMajorVersion >= 5) )

  00026	83 7c 24 10 02	 cmp	 DWORD PTR _ver$[esp+168], 2
  0002b	75 0c		 jne	 SHORT $L38564
  0002d	83 7c 24 04 05	 cmp	 DWORD PTR _ver$[esp+156], 5

; 141  : 	{
; 142  : 		// On Win2K, CP_THREAD_ACP is supported
; 143  : 		pfnGetThreadACP = _AtlGetThreadACPReal;

  00032	b8 00 00 00 00	 mov	 eax, OFFSET FLAT:?_AtlGetThreadACPReal@ATL@@YGIXZ ; ATL::_AtlGetThreadACPReal
  00037	73 05		 jae	 SHORT $L38565
$L38564:

; 144  : 	}
; 145  : 	else
; 146  : 	{
; 147  : 		pfnGetThreadACP = _AtlGetThreadACPFake;

  00039	b8 00 00 00 00	 mov	 eax, OFFSET FLAT:?_AtlGetThreadACPFake@ATL@@YGIXZ ; ATL::_AtlGetThreadACPFake
$L38565:

; 148  : 	}
; 149  : 	InterlockedExchangePointer( reinterpret_cast< void** >(&g_pfnGetThreadACP), pfnGetThreadACP );

  0003e	50		 push	 eax
  0003f	68 00 00 00 00	 push	 OFFSET FLAT:?g_pfnGetThreadACP@ATL@@3P6GIXZA ; ATL::g_pfnGetThreadACP
  00044	ff 15 00 00 00
	00		 call	 DWORD PTR __imp__InterlockedExchange@8

; 150  : 
; 151  : 	return( g_pfnGetThreadACP() );

  0004a	ff 15 00 00 00
	00		 call	 DWORD PTR ?g_pfnGetThreadACP@ATL@@3P6GIXZA ; ATL::g_pfnGetThreadACP

; 152  : }

  00050	8b 8c 24 94 00
	00 00		 mov	 ecx, DWORD PTR __$ArrayPad$[esp+152]
  00057	33 cc		 xor	 ecx, esp
  00059	e8 00 00 00 00	 call	 @__security_check_cookie@4
  0005e	81 c4 98 00 00
	00		 add	 esp, 152		; 00000098H
  00064	c3		 ret	 0
?_AtlGetThreadACPThunk@ATL@@YGIXZ ENDP			; ATL::_AtlGetThreadACPThunk
_TEXT	ENDS
PUBLIC	?Set@CLord@@QAEXK@Z				; CLord::Set
; Function compile flags: /Ogty
; File c:\documents and settings\test\mes documents\source\virtuos_v17\build\program\_common\lord.h
;	COMDAT ?Set@CLord@@QAEXK@Z
_TEXT	SEGMENT
_idPlayer$ = 8						; size = 4
?Set@CLord@@QAEXK@Z PROC NEAR				; CLord::Set, COMDAT
; _this$ = ecx

; 254  : 	void	Set( u_long idPlayer )	{	m_idPlayer	= idPlayer;	}

  00000	8b 44 24 04	 mov	 eax, DWORD PTR _idPlayer$[esp-4]
  00004	89 41 04	 mov	 DWORD PTR [ecx+4], eax
  00007	c2 04 00	 ret	 4
?Set@CLord@@QAEXK@Z ENDP				; CLord::Set
_TEXT	ENDS
PUBLIC	?_AtlGetConversionACP@ATL@@YGIXZ		; ATL::_AtlGetConversionACP
; Function compile flags: /Ogty
; File c:\program files\microsoft visual studio .net 2003\vc7\atlmfc\include\atlconv.h
;	COMDAT ?_AtlGetConversionACP@ATL@@YGIXZ
_TEXT	SEGMENT
?_AtlGetConversionACP@ATL@@YGIXZ PROC NEAR		; ATL::_AtlGetConversionACP, COMDAT

; 158  : 	return( g_pfnGetThreadACP() );

  00000	ff 25 00 00 00
	00		 jmp	 DWORD PTR ?g_pfnGetThreadACP@ATL@@3P6GIXZA ; ATL::g_pfnGetThreadACP
?_AtlGetConversionACP@ATL@@YGIXZ ENDP			; ATL::_AtlGetConversionACP
_TEXT	ENDS
PUBLIC	?GetElection@CLord@@QAEPAVIElection@@XZ		; CLord::GetElection
; Function compile flags: /Ogty
; File c:\documents and settings\test\mes documents\source\virtuos_v17\build\program\_common\lord.h
;	COMDAT ?GetElection@CLord@@QAEPAVIElection@@XZ
_TEXT	SEGMENT
?GetElection@CLord@@QAEPAVIElection@@XZ PROC NEAR	; CLord::GetElection, COMDAT
; _this$ = ecx

; 260  : 	IElection*	GetElection( void )		{	return m_pElection;		}

  00000	8b 41 08	 mov	 eax, DWORD PTR [ecx+8]
  00003	c3		 ret	 0
?GetElection@CLord@@QAEPAVIElection@@XZ ENDP		; CLord::GetElection
_TEXT	ENDS
PUBLIC	?GetEvent@CLord@@QAEPAVILordEvent@@XZ		; CLord::GetEvent
; Function compile flags: /Ogty
;	COMDAT ?GetEvent@CLord@@QAEPAVILordEvent@@XZ
_TEXT	SEGMENT
?GetEvent@CLord@@QAEPAVILordEvent@@XZ PROC NEAR		; CLord::GetEvent, COMDAT
; _this$ = ecx

; 261  : 	ILordEvent*	GetEvent( void )	{	return m_pEvent;	}

  00000	8b 41 0c	 mov	 eax, DWORD PTR [ecx+12]
  00003	c3		 ret	 0
?GetEvent@CLord@@QAEPAVILordEvent@@XZ ENDP		; CLord::GetEvent
_TEXT	ENDS
PUBLIC	?GetSkills@CLord@@QAEPAVCLordSkill@@XZ		; CLord::GetSkills
; Function compile flags: /Ogty
;	COMDAT ?GetSkills@CLord@@QAEPAVCLordSkill@@XZ
_TEXT	SEGMENT
?GetSkills@CLord@@QAEPAVCLordSkill@@XZ PROC NEAR	; CLord::GetSkills, COMDAT
; _this$ = ecx

; 262  : 	CLordSkill*		GetSkills( void )	{	return m_pSkills;	}

  00000	8b 41 10	 mov	 eax, DWORD PTR [ecx+16]
  00003	c3		 ret	 0
?GetSkills@CLord@@QAEPAVCLordSkill@@XZ ENDP		; CLord::GetSkills
_TEXT	ENDS
PUBLIC	?GetQueryObject@CDbController@@QAEPAVCQuery@@XZ	; CDbController::GetQueryObject
; Function compile flags: /Ogty
; File c:\documents and settings\test\mes documents\source\virtuos_v17\build\program\databaseserver\dbcontroller.h
;	COMDAT ?GetQueryObject@CDbController@@QAEPAVCQuery@@XZ
_TEXT	SEGMENT
?GetQueryObject@CDbController@@QAEPAVCQuery@@XZ PROC NEAR ; CDbController::GetQueryObject, COMDAT
; _this$ = ecx

; 20   : 	CQuery*	GetQueryObject( void )	{	return m_pQuery;	}

  00000	8b 41 0c	 mov	 eax, DWORD PTR [ecx+12]
  00003	c3		 ret	 0
?GetQueryObject@CDbController@@QAEPAVCQuery@@XZ ENDP	; CDbController::GetQueryObject
_TEXT	ENDS
PUBLIC	??0_PostItemStruct@@QAE@XZ			; _PostItemStruct::_PostItemStruct
; Function compile flags: /Ogty
; File c:\documents and settings\test\mes documents\source\virtuos_v17\build\program\databaseserver\tlord.h
;	COMDAT ??0_PostItemStruct@@QAE@XZ
_TEXT	SEGMENT
??0_PostItemStruct@@QAE@XZ PROC NEAR			; _PostItemStruct::_PostItemStruct, COMDAT
; _this$ = ecx

; 48   : 	{

  00000	8b c1		 mov	 eax, ecx
  00002	c7 00 00 00 00
	00		 mov	 DWORD PTR [eax], 0
  00008	c7 40 04 00 00
	00 00		 mov	 DWORD PTR [eax+4], 0

; 49   : 	}

  0000f	c3		 ret	 0
??0_PostItemStruct@@QAE@XZ ENDP				; _PostItemStruct::_PostItemStruct
_TEXT	ENDS
PUBLIC	?IsRunable@CTElection@@QAEHXZ			; CTElection::IsRunable
; Function compile flags: /Ogty
;	COMDAT ?IsRunable@CTElection@@QAEHXZ
_TEXT	SEGMENT
?IsRunable@CTElection@@QAEHXZ PROC NEAR			; CTElection::IsRunable, COMDAT
; _this$ = ecx

; 67   : 	BOOL	IsRunable( void )	{	return m_bRun;	}

  00000	8b 41 70	 mov	 eax, DWORD PTR [ecx+112]
  00003	c3		 ret	 0
?IsRunable@CTElection@@QAEHXZ ENDP			; CTElection::IsRunable
_TEXT	ENDS
PUBLIC	??0PostDeposit@@QAE@PAVCQuery@@@Z		; PostDeposit::PostDeposit
; Function compile flags: /Ogty
;	COMDAT ??0PostDeposit@@QAE@PAVCQuery@@@Z
_TEXT	SEGMENT
_pQuery$ = 8						; size = 4
??0PostDeposit@@QAE@PAVCQuery@@@Z PROC NEAR		; PostDeposit::PostDeposit, COMDAT
; _this$ = ecx

; 151  : 	PostDeposit( CQuery* pQuery )	{	m_pQuery	= pQuery;	}

  00000	8b c1		 mov	 eax, ecx
  00002	8b 4c 24 04	 mov	 ecx, DWORD PTR _pQuery$[esp-4]
  00006	89 08		 mov	 DWORD PTR [eax], ecx
  00008	c2 04 00	 ret	 4
??0PostDeposit@@QAE@PAVCQuery@@@Z ENDP			; PostDeposit::PostDeposit
_TEXT	ENDS
PUBLIC	?AtlThrow@ATL@@YGXJ@Z				; ATL::AtlThrow
EXTRN	?AfxThrowMemoryException@@YGXXZ:NEAR		; AfxThrowMemoryException
EXTRN	?AfxThrowOleException@@YGXJ@Z:NEAR		; AfxThrowOleException
; Function compile flags: /Ogty
; File c:\program files\microsoft visual studio .net 2003\vc7\atlmfc\include\atlexcept.h
;	COMDAT ?AtlThrow@ATL@@YGXJ@Z
_TEXT	SEGMENT
_hr$ = 8						; size = 4
?AtlThrow@ATL@@YGXJ@Z PROC NEAR				; ATL::AtlThrow, COMDAT

; 62   : 	ATLTRACE(atlTraceException, 0, _T("AtlThrow: hr = 0x%x\n"), hr );
; 63   : #ifdef _AFX
; 64   : 	if( hr == E_OUTOFMEMORY )

  00000	8b 44 24 04	 mov	 eax, DWORD PTR _hr$[esp-4]
  00004	3d 0e 00 07 80	 cmp	 eax, -2147024882	; 8007000eH
  00009	75 05		 jne	 SHORT $L39166

; 65   : 	{
; 66   : 		AfxThrowMemoryException();

  0000b	e8 00 00 00 00	 call	 ?AfxThrowMemoryException@@YGXXZ ; AfxThrowMemoryException
$L39166:

; 67   : 	}
; 68   : 	else
; 69   : 	{
; 70   : 		AfxThrowOleException( hr );

  00010	50		 push	 eax
  00011	e8 00 00 00 00	 call	 ?AfxThrowOleException@@YGXJ@Z ; AfxThrowOleException
$L206390:
  00016	cc		 int	 3
?AtlThrow@ATL@@YGXJ@Z ENDP				; ATL::AtlThrow
_TEXT	ENDS
PUBLIC	??0CTLord@@QAE@XZ				; CTLord::CTLord
PUBLIC	?CreateColleagues@CTLord@@UAEXXZ		; CTLord::CreateColleagues
PUBLIC	?DestroyColleagues@CTLord@@UAEXXZ		; CTLord::DestroyColleagues
PUBLIC	?GetController@CTLord@@UAEPAVCLController@@XZ	; CTLord::GetController
PUBLIC	??_7CTLord@@6B@					; CTLord::`vftable'
PUBLIC	??_GCTLord@@UAEPAXI@Z				; CTLord::`scalar deleting destructor'
EXTRN	??_ECTLord@@UAEPAXI@Z:NEAR			; CTLord::`vector deleting destructor'
EXTRN	??0CLord@@IAE@XZ:NEAR				; CLord::CLord
;	COMDAT ??_7CTLord@@6B@
; File c:\documents and settings\test\mes documents\source\virtuos_v17\build\program\databaseserver\tlord.cpp
CONST	SEGMENT
??_7CTLord@@6B@ DD FLAT:?CreateColleagues@CTLord@@UAEXXZ ; CTLord::`vftable'
	DD	FLAT:?DestroyColleagues@CTLord@@UAEXXZ
	DD	FLAT:?GetController@CTLord@@UAEPAVCLController@@XZ
	DD	FLAT:??_ECTLord@@UAEPAXI@Z
; Function compile flags: /Ogty
CONST	ENDS
;	COMDAT ??0CTLord@@QAE@XZ
_TEXT	SEGMENT
??0CTLord@@QAE@XZ PROC NEAR				; CTLord::CTLord, COMDAT
; _this$ = ecx

; 22   : {

  00000	56		 push	 esi
  00001	8b f1		 mov	 esi, ecx
  00003	e8 00 00 00 00	 call	 ??0CLord@@IAE@XZ	; CLord::CLord
  00008	c7 06 00 00 00
	00		 mov	 DWORD PTR [esi], OFFSET FLAT:??_7CTLord@@6B@
  0000e	c7 46 14 00 00
	00 00		 mov	 DWORD PTR [esi+20], 0

; 23   : }

  00015	8b c6		 mov	 eax, esi
  00017	5e		 pop	 esi
  00018	c3		 ret	 0
??0CTLord@@QAE@XZ ENDP					; CTLord::CTLord
; Function compile flags: /Ogty
; File c:\documents and settings\test\mes documents\source\virtuos_v17\build\program\databaseserver\tlord.h
_TEXT	ENDS
;	COMDAT ?GetController@CTLord@@UAEPAVCLController@@XZ
_TEXT	SEGMENT
?GetController@CTLord@@UAEPAVCLController@@XZ PROC NEAR	; CTLord::GetController, COMDAT
; _this$ = ecx

; 37   : 	virtual	CLController*	GetController( void )	{	return m_pController;	}

  00000	8b 41 14	 mov	 eax, DWORD PTR [ecx+20]
  00003	c3		 ret	 0
?GetController@CTLord@@UAEPAVCLController@@XZ ENDP	; CTLord::GetController
_TEXT	ENDS
PUBLIC	??1CTLord@@UAE@XZ				; CTLord::~CTLord
EXTRN	??1CLord@@QAE@XZ:NEAR				; CLord::~CLord
; Function compile flags: /Ogty
; File c:\documents and settings\test\mes documents\source\virtuos_v17\build\program\databaseserver\tlord.cpp
;	COMDAT ??1CTLord@@UAE@XZ
_TEXT	SEGMENT
??1CTLord@@UAE@XZ PROC NEAR				; CTLord::~CTLord, COMDAT
; _this$ = ecx

; 26   : {

  00000	c7 01 00 00 00
	00		 mov	 DWORD PTR [ecx], OFFSET FLAT:??_7CTLord@@6B@

; 27   : }

  00006	e9 00 00 00 00	 jmp	 ??1CLord@@QAE@XZ	; CLord::~CLord
??1CTLord@@UAE@XZ ENDP					; CTLord::~CTLord
_TEXT	ENDS
PUBLIC	?_AtlGetStringResourceImage@ATL@@YAPBUATLSTRINGRESOURCEIMAGE@1@PAUHINSTANCE__@@PAUHRSRC__@@I@Z ; ATL::_AtlGetStringResourceImage
EXTRN	__imp__LoadResource@8:NEAR
EXTRN	__imp__SizeofResource@8:NEAR
EXTRN	__imp__LockResource@4:NEAR
; Function compile flags: /Ogty
; File c:\program files\microsoft visual studio .net 2003\vc7\atlmfc\include\atlcore.h
;	COMDAT ?_AtlGetStringResourceImage@ATL@@YAPBUATLSTRINGRESOURCEIMAGE@1@PAUHINSTANCE__@@PAUHRSRC__@@I@Z
_TEXT	SEGMENT
_hInstance$ = 8						; size = 4
_hResource$ = 12					; size = 4
_id$ = 16						; size = 4
?_AtlGetStringResourceImage@ATL@@YAPBUATLSTRINGRESOURCEIMAGE@1@PAUHINSTANCE__@@PAUHRSRC__@@I@Z PROC NEAR ; ATL::_AtlGetStringResourceImage, COMDAT

; 239  : {

  00000	53		 push	 ebx

; 240  : 	const ATLSTRINGRESOURCEIMAGE* pImage;
; 241  : 	const ATLSTRINGRESOURCEIMAGE* pImageEnd;
; 242  : 	ULONG nResourceSize;
; 243  : 	HGLOBAL hGlobal;
; 244  : 	UINT iIndex;
; 245  : 
; 246  : 	hGlobal = ::LoadResource( hInstance, hResource );

  00001	8b 5c 24 08	 mov	 ebx, DWORD PTR _hInstance$[esp]
  00005	57		 push	 edi
  00006	8b 7c 24 10	 mov	 edi, DWORD PTR _hResource$[esp+4]
  0000a	57		 push	 edi
  0000b	53		 push	 ebx
  0000c	ff 15 00 00 00
	00		 call	 DWORD PTR __imp__LoadResource@8

; 247  : 	if( hGlobal == NULL )

  00012	85 c0		 test	 eax, eax
  00014	75 03		 jne	 SHORT $L39520
  00016	5f		 pop	 edi
  00017	5b		 pop	 ebx

; 272  : 	{
; 273  : 		return( NULL );
; 274  : 	}
; 275  : 
; 276  : 	return( pImage );
; 277  : }

  00018	c3		 ret	 0
$L39520:
  00019	56		 push	 esi

; 248  : 	{
; 249  : 		return( NULL );
; 250  : 	}
; 251  : 
; 252  : 	pImage = (const ATLSTRINGRESOURCEIMAGE*)::LockResource( hGlobal );

  0001a	50		 push	 eax
  0001b	ff 15 00 00 00
	00		 call	 DWORD PTR __imp__LockResource@4
  00021	8b f0		 mov	 esi, eax

; 253  : 	if( pImage == NULL )

  00023	85 f6		 test	 esi, esi
  00025	75 06		 jne	 SHORT $L39522
$L206403:
  00027	5e		 pop	 esi
  00028	5f		 pop	 edi

; 254  : 	{
; 255  : 		return( NULL );

  00029	33 c0		 xor	 eax, eax
  0002b	5b		 pop	 ebx

; 272  : 	{
; 273  : 		return( NULL );
; 274  : 	}
; 275  : 
; 276  : 	return( pImage );
; 277  : }

  0002c	c3		 ret	 0
$L39522:

; 256  : 	}
; 257  : 
; 258  : 	nResourceSize = ::SizeofResource( hInstance, hResource );

  0002d	57		 push	 edi
  0002e	53		 push	 ebx
  0002f	ff 15 00 00 00
	00		 call	 DWORD PTR __imp__SizeofResource@8

; 259  : 	pImageEnd = (const ATLSTRINGRESOURCEIMAGE*)(LPBYTE( pImage )+nResourceSize);
; 260  : 	iIndex = id&0x000f;

  00035	8b 4c 24 18	 mov	 ecx, DWORD PTR _id$[esp+8]
  00039	03 c6		 add	 eax, esi
  0003b	83 e1 0f	 and	 ecx, 15			; 0000000fH

; 261  : 
; 262  : 	while( (iIndex > 0) && (pImage < pImageEnd) )

  0003e	76 0e		 jbe	 SHORT $L39526
$L39525:
  00040	3b f0		 cmp	 esi, eax
  00042	73 e3		 jae	 SHORT $L206403

; 263  : 	{
; 264  : 		pImage = (const ATLSTRINGRESOURCEIMAGE*)(LPBYTE( pImage )+(sizeof( ATLSTRINGRESOURCEIMAGE )+(pImage->nLength*sizeof( WCHAR ))));
; 265  : 		iIndex--;

  00044	49		 dec	 ecx
  00045	0f b7 16	 movzx	 edx, WORD PTR [esi]
  00048	8d 74 56 02	 lea	 esi, DWORD PTR [esi+edx*2+2]
  0004c	75 f2		 jne	 SHORT $L39525
$L39526:

; 266  : 	}
; 267  : 	if( pImage >= pImageEnd )

  0004e	3b f0		 cmp	 esi, eax

; 268  : 	{
; 269  : 		return( NULL );

  00050	73 d5		 jae	 SHORT $L206403

; 270  : 	}
; 271  : 	if( pImage->nLength == 0 )

  00052	66 8b 06	 mov	 ax, WORD PTR [esi]
  00055	66 f7 d8	 neg	 ax
  00058	1b c0		 sbb	 eax, eax
  0005a	23 c6		 and	 eax, esi
  0005c	5e		 pop	 esi
  0005d	5f		 pop	 edi
  0005e	5b		 pop	 ebx

; 272  : 	{
; 273  : 		return( NULL );
; 274  : 	}
; 275  : 
; 276  : 	return( pImage );
; 277  : }

  0005f	c3		 ret	 0
?_AtlGetStringResourceImage@ATL@@YAPBUATLSTRINGRESOURCEIMAGE@1@PAUHINSTANCE__@@PAUHRSRC__@@I@Z ENDP ; ATL::_AtlGetStringResourceImage
_TEXT	ENDS
PUBLIC	?AtlGetStringResourceImage@ATL@@YAPBUATLSTRINGRESOURCEIMAGE@1@PAUHINSTANCE__@@I@Z ; ATL::AtlGetStringResourceImage
EXTRN	__imp__FindResourceA@12:NEAR
; Function compile flags: /Ogty
;	COMDAT ?AtlGetStringResourceImage@ATL@@YAPBUATLSTRINGRESOURCEIMAGE@1@PAUHINSTANCE__@@I@Z
_TEXT	SEGMENT
_hInstance$ = 8						; size = 4
_id$ = 12						; size = 4
?AtlGetStringResourceImage@ATL@@YAPBUATLSTRINGRESOURCEIMAGE@1@PAUHINSTANCE__@@I@Z PROC NEAR ; ATL::AtlGetStringResourceImage, COMDAT

; 280  : {

  00000	56		 push	 esi

; 281  : 	HRSRC hResource;
; 282  : 
; 283  : 	hResource = ::FindResource( hInstance, MAKEINTRESOURCE( ((id>>4)+1) ), RT_STRING );

  00001	8b 74 24 0c	 mov	 esi, DWORD PTR _id$[esp]
  00005	8b c6		 mov	 eax, esi
  00007	c1 e8 04	 shr	 eax, 4
  0000a	57		 push	 edi
  0000b	8b 7c 24 0c	 mov	 edi, DWORD PTR _hInstance$[esp+4]
  0000f	40		 inc	 eax
  00010	0f b7 c8	 movzx	 ecx, ax
  00013	6a 06		 push	 6
  00015	51		 push	 ecx
  00016	57		 push	 edi
  00017	ff 15 00 00 00
	00		 call	 DWORD PTR __imp__FindResourceA@12

; 284  : 	if( hResource == NULL )

  0001d	85 c0		 test	 eax, eax
  0001f	75 03		 jne	 SHORT $L39543
  00021	5f		 pop	 edi
  00022	5e		 pop	 esi

; 290  : }

  00023	c3		 ret	 0
$L39543:

; 285  : 	{
; 286  : 		return( NULL );
; 287  : 	}
; 288  : 
; 289  : 	return _AtlGetStringResourceImage( hInstance, hResource, id );

  00024	56		 push	 esi
  00025	50		 push	 eax
  00026	57		 push	 edi
  00027	e8 00 00 00 00	 call	 ?_AtlGetStringResourceImage@ATL@@YAPBUATLSTRINGRESOURCEIMAGE@1@PAUHINSTANCE__@@PAUHRSRC__@@I@Z ; ATL::_AtlGetStringResourceImage
  0002c	83 c4 0c	 add	 esp, 12			; 0000000cH
  0002f	5f		 pop	 edi
  00030	5e		 pop	 esi

; 290  : }

  00031	c3		 ret	 0
?AtlGetStringResourceImage@ATL@@YAPBUATLSTRINGRESOURCEIMAGE@1@PAUHINSTANCE__@@I@Z ENDP ; ATL::AtlGetStringResourceImage
_TEXT	ENDS
EXTRN	?CloseDbHandler@CDbController@@QAEXXZ:NEAR	; CDbController::CloseDbHandler
; Function compile flags: /Ogty
; File c:\documents and settings\test\mes documents\source\virtuos_v17\build\program\databaseserver\tlord.cpp
;	COMDAT ?DestroyColleagues@CTLord@@UAEXXZ
_TEXT	SEGMENT
?DestroyColleagues@CTLord@@UAEXXZ PROC NEAR		; CTLord::DestroyColleagues, COMDAT
; _this$ = ecx

; 54   : {	//   

  00000	56		 push	 esi
  00001	8b f1		 mov	 esi, ecx

; 55   : 	if( m_pController )

  00003	8b 4e 14	 mov	 ecx, DWORD PTR [esi+20]
  00006	57		 push	 edi
  00007	33 ff		 xor	 edi, edi
  00009	3b cf		 cmp	 ecx, edi
  0000b	74 05		 je	 SHORT $L203496

; 56   : 		m_pController->CloseDbHandler();

  0000d	e8 00 00 00 00	 call	 ?CloseDbHandler@CDbController@@QAEXXZ ; CDbController::CloseDbHandler
$L203496:

; 57   : 
; 58   : 	SAFE_DELETE( m_pElection );

  00012	8b 4e 08	 mov	 ecx, DWORD PTR [esi+8]
  00015	3b cf		 cmp	 ecx, edi
  00017	74 09		 je	 SHORT $L203497
  00019	8b 01		 mov	 eax, DWORD PTR [ecx]
  0001b	6a 01		 push	 1
  0001d	ff 10		 call	 DWORD PTR [eax]
  0001f	89 7e 08	 mov	 DWORD PTR [esi+8], edi
$L203497:

; 59   : 	SAFE_DELETE( m_pEvent );

  00022	8b 4e 0c	 mov	 ecx, DWORD PTR [esi+12]
  00025	3b cf		 cmp	 ecx, edi
  00027	74 09		 je	 SHORT $L203501
  00029	8b 11		 mov	 edx, DWORD PTR [ecx]
  0002b	6a 01		 push	 1
  0002d	ff 12		 call	 DWORD PTR [edx]
  0002f	89 7e 0c	 mov	 DWORD PTR [esi+12], edi
$L203501:

; 60   : 	SAFE_DELETE( m_pSkills );

  00032	8b 4e 10	 mov	 ecx, DWORD PTR [esi+16]
  00035	3b cf		 cmp	 ecx, edi
  00037	74 09		 je	 SHORT $L203505
  00039	8b 01		 mov	 eax, DWORD PTR [ecx]
  0003b	6a 01		 push	 1
  0003d	ff 10		 call	 DWORD PTR [eax]
  0003f	89 7e 10	 mov	 DWORD PTR [esi+16], edi
$L203505:

; 61   : 	SAFE_DELETE( m_pController );

  00042	8b 4e 14	 mov	 ecx, DWORD PTR [esi+20]
  00045	3b cf		 cmp	 ecx, edi
  00047	74 09		 je	 SHORT $L203509
  00049	8b 11		 mov	 edx, DWORD PTR [ecx]
  0004b	6a 01		 push	 1
  0004d	ff 12		 call	 DWORD PTR [edx]
  0004f	89 7e 14	 mov	 DWORD PTR [esi+20], edi
$L203509:
  00052	5f		 pop	 edi
  00053	5e		 pop	 esi

; 62   : }

  00054	c3		 ret	 0
?DestroyColleagues@CTLord@@UAEXXZ ENDP			; CTLord::DestroyColleagues
_TEXT	ENDS
PUBLIC	?PostRequest@CTLord@@QAEHHPAEHK@Z		; CTLord::PostRequest
EXTRN	?PostRequest@CDbController@@QAEHHPAEHK@Z:NEAR	; CDbController::PostRequest
; Function compile flags: /Ogty
;	COMDAT ?PostRequest@CTLord@@QAEHHPAEHK@Z
_TEXT	SEGMENT
_nQuery$ = 8						; size = 4
_lpBuf$ = 12						; size = 4
_nBufSize$ = 16						; size = 4
_dwCompletionKey$ = 20					; size = 4
?PostRequest@CTLord@@QAEHHPAEHK@Z PROC NEAR		; CTLord::PostRequest, COMDAT
; _this$ = ecx

; 72   : 	return m_pController->PostRequest( nQuery, lpBuf, nBufSize, dwCompletionKey );

  00000	8b 49 14	 mov	 ecx, DWORD PTR [ecx+20]
  00003	e9 00 00 00 00	 jmp	 ?PostRequest@CDbController@@QAEHHPAEHK@Z ; CDbController::PostRequest
?PostRequest@CTLord@@QAEHHPAEHK@Z ENDP			; CTLord::PostRequest
_TEXT	ENDS
PUBLIC	?Restore@CTLord@@QAEHPAVCQuery@@@Z		; CTLord::Restore
PUBLIC	??_C@_0BC@MCPIBNBK@uspRestoreLord?5?$CFd?$AA@	; `string'
PUBLIC	??_C@_06EHHKCEHL@idLord?$AA@			; `string'
EXTRN	?Execute@CQuery@@QAAHPBDZZ:NEAR			; CQuery::Execute
EXTRN	?Fetch@CQuery@@QAEHXZ:NEAR			; CQuery::Fetch
EXTRN	?GetInt@CQuery@@QAEHPAD@Z:NEAR			; CQuery::GetInt
EXTRN	?g_appInfo@@3UAppInfo@@A:QWORD			; g_appInfo
;	COMDAT ??_C@_0BC@MCPIBNBK@uspRestoreLord?5?$CFd?$AA@
; File c:\documents and settings\test\mes documents\source\virtuos_v17\build\program\_common\lord.h
CONST	SEGMENT
??_C@_0BC@MCPIBNBK@uspRestoreLord?5?$CFd?$AA@ DB 'uspRestoreLord %d', 00H ; `string'
CONST	ENDS
;	COMDAT ??_C@_06EHHKCEHL@idLord?$AA@
CONST	SEGMENT
??_C@_06EHHKCEHL@idLord?$AA@ DB 'idLord', 00H		; `string'
; Function compile flags: /Ogty
; File c:\documents and settings\test\mes documents\source\virtuos_v17\build\program\databaseserver\tlord.cpp
CONST	ENDS
;	COMDAT ?Restore@CTLord@@QAEHPAVCQuery@@@Z
_TEXT	SEGMENT
_pQuery$ = 8						; size = 4
?Restore@CTLord@@QAEHPAVCQuery@@@Z PROC NEAR		; CTLord::Restore, COMDAT
; _this$ = ecx

; 168  : 	if( !pQuery->Execute( "uspRestoreLord %d", g_appInfo.dwSys ) )

  00000	a1 00 00 00 00	 mov	 eax, DWORD PTR ?g_appInfo@@3UAppInfo@@A
  00005	56		 push	 esi
  00006	8b 74 24 08	 mov	 esi, DWORD PTR _pQuery$[esp]
  0000a	57		 push	 edi
  0000b	50		 push	 eax
  0000c	68 00 00 00 00	 push	 OFFSET FLAT:??_C@_0BC@MCPIBNBK@uspRestoreLord?5?$CFd?$AA@
  00011	56		 push	 esi
  00012	8b f9		 mov	 edi, ecx
  00014	e8 00 00 00 00	 call	 ?Execute@CQuery@@QAAHPBDZZ ; CQuery::Execute
  00019	83 c4 0c	 add	 esp, 12			; 0000000cH
  0001c	85 c0		 test	 eax, eax
  0001e	75 05		 jne	 SHORT $L203587
  00020	5f		 pop	 edi
  00021	5e		 pop	 esi

; 173  : }

  00022	c2 04 00	 ret	 4
$L203587:

; 169  : 		return FALSE;
; 170  : 	if( pQuery->Fetch() )

  00025	8b ce		 mov	 ecx, esi
  00027	e8 00 00 00 00	 call	 ?Fetch@CQuery@@QAEHXZ	; CQuery::Fetch
  0002c	85 c0		 test	 eax, eax
  0002e	74 0f		 je	 SHORT $L206431

; 171  : 		Set( pQuery->GetInt( "idLord" ) );

  00030	68 00 00 00 00	 push	 OFFSET FLAT:??_C@_06EHHKCEHL@idLord?$AA@
  00035	8b ce		 mov	 ecx, esi
  00037	e8 00 00 00 00	 call	 ?GetInt@CQuery@@QAEHPAD@Z ; CQuery::GetInt
  0003c	89 47 04	 mov	 DWORD PTR [edi+4], eax
$L206431:
  0003f	5f		 pop	 edi

; 172  : 	return TRUE;

  00040	b8 01 00 00 00	 mov	 eax, 1
  00045	5e		 pop	 esi

; 173  : }

  00046	c2 04 00	 ret	 4
?Restore@CTLord@@QAEHPAVCQuery@@@Z ENDP			; CTLord::Restore
_TEXT	ENDS
PUBLIC	??0CTElection@@QAE@PAVCLord@@@Z			; CTElection::CTElection
PUBLIC	?DoTestBeginCandidacy@CTElection@@MAEHXZ	; CTElection::DoTestBeginCandidacy
PUBLIC	?DoReturnDeposit@CTElection@@MAEXXZ		; CTElection::DoReturnDeposit
PUBLIC	?DoTestBeginVote@CTElection@@MAEHAAH@Z		; CTElection::DoTestBeginVote
PUBLIC	?DoTestEndVote@CTElection@@MAEHK@Z		; CTElection::DoTestEndVote
PUBLIC	?DoTestAddDeposit@CTElection@@MAEHK_JJ@Z	; CTElection::DoTestAddDeposit
PUBLIC	?DoAddDepositComplete@CTElection@@MAEXK_JJ@Z	; CTElection::DoAddDepositComplete
PUBLIC	?DoTestSetPledge@CTElection@@MAEHKPBD@Z		; CTElection::DoTestSetPledge
PUBLIC	?DoTestIncVote@CTElection@@MAEHKK@Z		; CTElection::DoTestIncVote
PUBLIC	??_7CTElection@@6B@				; CTElection::`vftable'
PUBLIC	??_GCTElection@@UAEPAXI@Z			; CTElection::`scalar deleting destructor'
PUBLIC	?DoSetPlegeComplete@IElection@@MAEXXZ		; IElection::DoSetPlegeComplete
PUBLIC	?DoIncVoteComplete@IElection@@MAEXXZ		; IElection::DoIncVoteComplete
PUBLIC	?DoEndVoteComplete@IElection@@MAEXXZ		; IElection::DoEndVoteComplete
EXTRN	??_ECTElection@@UAEPAXI@Z:NEAR			; CTElection::`vector deleting destructor'
EXTRN	??0IElection@@IAE@PAVCLord@@@Z:NEAR		; IElection::IElection
;	COMDAT ??_7CTElection@@6B@
CONST	SEGMENT
??_7CTElection@@6B@ DD FLAT:??_ECTElection@@UAEPAXI@Z	; CTElection::`vftable'
	DD	FLAT:?DoTestBeginCandidacy@CTElection@@MAEHXZ
	DD	FLAT:?DoReturnDeposit@CTElection@@MAEXXZ
	DD	FLAT:?DoTestBeginVote@CTElection@@MAEHAAH@Z
	DD	FLAT:?DoTestEndVote@CTElection@@MAEHK@Z
	DD	FLAT:?DoTestAddDeposit@CTElection@@MAEHK_JJ@Z
	DD	FLAT:?DoAddDepositComplete@CTElection@@MAEXK_JJ@Z
	DD	FLAT:?DoTestSetPledge@CTElection@@MAEHKPBD@Z
	DD	FLAT:?DoSetPlegeComplete@IElection@@MAEXXZ
	DD	FLAT:?DoTestIncVote@CTElection@@MAEHKK@Z
	DD	FLAT:?DoIncVoteComplete@IElection@@MAEXXZ
	DD	FLAT:?DoEndVoteComplete@IElection@@MAEXXZ
; Function compile flags: /Ogty
CONST	ENDS
;	COMDAT ??0CTElection@@QAE@PAVCLord@@@Z
_TEXT	SEGMENT
_pLord$ = 8						; size = 4
??0CTElection@@QAE@PAVCLord@@@Z PROC NEAR		; CTElection::CTElection, COMDAT
; _this$ = ecx

; 185  : {

  00000	8b 44 24 04	 mov	 eax, DWORD PTR _pLord$[esp-4]
  00004	56		 push	 esi
  00005	50		 push	 eax
  00006	8b f1		 mov	 esi, ecx
  00008	e8 00 00 00 00	 call	 ??0IElection@@IAE@PAVCLord@@@Z ; IElection::IElection
  0000d	c7 06 00 00 00
	00		 mov	 DWORD PTR [esi], OFFSET FLAT:??_7CTElection@@6B@
  00013	c7 46 70 01 00
	00 00		 mov	 DWORD PTR [esi+112], 1

; 186  : }

  0001a	8b c6		 mov	 eax, esi
  0001c	5e		 pop	 esi
  0001d	c2 04 00	 ret	 4
??0CTElection@@QAE@PAVCLord@@@Z ENDP			; CTElection::CTElection
; Function compile flags: /Ogty
; File c:\documents and settings\test\mes documents\source\virtuos_v17\build\program\_common\lord.h
_TEXT	ENDS
;	COMDAT ?DoSetPlegeComplete@IElection@@MAEXXZ
_TEXT	SEGMENT
?DoSetPlegeComplete@IElection@@MAEXXZ PROC NEAR		; IElection::DoSetPlegeComplete, COMDAT
; _this$ = ecx

; 90   : 	virtual	void	DoSetPlegeComplete( void )		{}

  00000	c3		 ret	 0
?DoSetPlegeComplete@IElection@@MAEXXZ ENDP		; IElection::DoSetPlegeComplete
; Function compile flags: /Ogty
_TEXT	ENDS
;	COMDAT ?DoIncVoteComplete@IElection@@MAEXXZ
_TEXT	SEGMENT
?DoIncVoteComplete@IElection@@MAEXXZ PROC NEAR		; IElection::DoIncVoteComplete, COMDAT
; _this$ = ecx

; 92   : 	virtual	void	DoIncVoteComplete( void )	{}

  00000	c3		 ret	 0
?DoIncVoteComplete@IElection@@MAEXXZ ENDP		; IElection::DoIncVoteComplete
; Function compile flags: /Ogty
_TEXT	ENDS
;	COMDAT ?DoEndVoteComplete@IElection@@MAEXXZ
_TEXT	SEGMENT
?DoEndVoteComplete@IElection@@MAEXXZ PROC NEAR		; IElection::DoEndVoteComplete, COMDAT
; _this$ = ecx

; 93   : 	virtual	void	DoEndVoteComplete( void )	{}

  00000	c3		 ret	 0
?DoEndVoteComplete@IElection@@MAEXXZ ENDP		; IElection::DoEndVoteComplete
_TEXT	ENDS
PUBLIC	??1CTElection@@UAE@XZ				; CTElection::~CTElection
EXTRN	??1IElection@@UAE@XZ:NEAR			; IElection::~IElection
; Function compile flags: /Ogty
; File c:\documents and settings\test\mes documents\source\virtuos_v17\build\program\databaseserver\tlord.cpp
;	COMDAT ??1CTElection@@UAE@XZ
_TEXT	SEGMENT
??1CTElection@@UAE@XZ PROC NEAR				; CTElection::~CTElection, COMDAT
; _this$ = ecx

; 189  : {

  00000	c7 01 00 00 00
	00		 mov	 DWORD PTR [ecx], OFFSET FLAT:??_7CTElection@@6B@

; 190  : }

  00006	e9 00 00 00 00	 jmp	 ??1IElection@@UAE@XZ	; IElection::~IElection
??1CTElection@@UAE@XZ ENDP				; CTElection::~CTElection
_TEXT	ENDS
PUBLIC	?data@CStringData@ATL@@QAEPAXXZ			; ATL::CStringData::data
; Function compile flags: /Ogty
; File c:\program files\microsoft visual studio .net 2003\vc7\atlmfc\include\atlsimpstr.h
;	COMDAT ?data@CStringData@ATL@@QAEPAXXZ
_TEXT	SEGMENT
?data@CStringData@ATL@@QAEPAXXZ PROC NEAR		; ATL::CStringData::data, COMDAT
; _this$ = ecx

; 66   : 		return (this+1);

  00000	8d 41 10	 lea	 eax, DWORD PTR [ecx+16]

; 67   : 	}

  00003	c3		 ret	 0
?data@CStringData@ATL@@QAEPAXXZ ENDP			; ATL::CStringData::data
_TEXT	ENDS
PUBLIC	?IsLocked@CStringData@ATL@@QBE_NXZ		; ATL::CStringData::IsLocked
; Function compile flags: /Ogty
;	COMDAT ?IsLocked@CStringData@ATL@@QBE_NXZ
_TEXT	SEGMENT
?IsLocked@CStringData@ATL@@QBE_NXZ PROC NEAR		; ATL::CStringData::IsLocked, COMDAT
; _this$ = ecx

; 76   : 		return nRefs < 0;

  00000	8b 51 0c	 mov	 edx, DWORD PTR [ecx+12]
  00003	33 c0		 xor	 eax, eax
  00005	85 d2		 test	 edx, edx
  00007	0f 9c c0	 setl	 al

; 77   : 	}

  0000a	c3		 ret	 0
?IsLocked@CStringData@ATL@@QBE_NXZ ENDP			; ATL::CStringData::IsLocked
_TEXT	ENDS
PUBLIC	?IsShared@CStringData@ATL@@QBE_NXZ		; ATL::CStringData::IsShared
; Function compile flags: /Ogty
;	COMDAT ?IsShared@CStringData@ATL@@QBE_NXZ
_TEXT	SEGMENT
?IsShared@CStringData@ATL@@QBE_NXZ PROC NEAR		; ATL::CStringData::IsShared, COMDAT
; _this$ = ecx

; 80   : 		return( nRefs > 1 ); 

  00000	8b 51 0c	 mov	 edx, DWORD PTR [ecx+12]
  00003	33 c0		 xor	 eax, eax
  00005	83 fa 01	 cmp	 edx, 1
  00008	0f 9f c0	 setg	 al

; 81   : 	}

  0000b	c3		 ret	 0
?IsShared@CStringData@ATL@@QBE_NXZ ENDP			; ATL::CStringData::IsShared
_TEXT	ENDS
PUBLIC	?Release@CStringData@ATL@@QAEXXZ		; ATL::CStringData::Release
; Function compile flags: /Ogty
;	COMDAT ?Release@CStringData@ATL@@QAEXXZ
_TEXT	SEGMENT
?Release@CStringData@ATL@@QAEXXZ PROC NEAR		; ATL::CStringData::Release, COMDAT
; _this$ = ecx

; 93   : 		ATLASSERT( nRefs != 0 );
; 94   : 
; 95   : 		if( _InterlockedDecrement( &nRefs ) <= 0 )

  00000	8d 41 0c	 lea	 eax, DWORD PTR [ecx+12]
  00003	83 ca ff	 or	 edx, -1
  00006	f0 0f c1 10	 lock	  xadd	 DWORD PTR [eax], edx
  0000a	4a		 dec	 edx
  0000b	85 d2		 test	 edx, edx
  0000d	7f 0a		 jg	 SHORT $L39883

; 96   : 		{
; 97   : 			pStringMgr->Free( this );

  0000f	8b 01		 mov	 eax, DWORD PTR [ecx]
  00011	8b 10		 mov	 edx, DWORD PTR [eax]
  00013	51		 push	 ecx
  00014	8b c8		 mov	 ecx, eax
  00016	ff 52 04	 call	 DWORD PTR [edx+4]
$L39883:

; 98   : 		}
; 99   : 	}

  00019	c3		 ret	 0
?Release@CStringData@ATL@@QAEXXZ ENDP			; ATL::CStringData::Release
; Function compile flags: /Ogty
; File c:\documents and settings\test\mes documents\source\virtuos_v17\build\program\databaseserver\tlord.cpp
_TEXT	ENDS
;	COMDAT ?DoAddDepositComplete@CTElection@@MAEXK_JJ@Z
_TEXT	SEGMENT
_idPlayer$ = 8						; size = 4
_iDeposit$ = 12						; size = 8
_tCreate$ = 20						; size = 4
?DoAddDepositComplete@CTElection@@MAEXK_JJ@Z PROC NEAR	; CTElection::DoAddDepositComplete, COMDAT
; _this$ = ecx

; 466  : }

  00000	c2 10 00	 ret	 16			; 00000010H
?DoAddDepositComplete@CTElection@@MAEXK_JJ@Z ENDP	; CTElection::DoAddDepositComplete
_TEXT	ENDS
PUBLIC	?OnTimer@CTElection@@QAEXXZ			; CTElection::OnTimer
EXTRN	?GetPropertyState@IElection@@QAE?AW4ELECTION_STATE@1@XZ:NEAR ; IElection::GetPropertyState
EXTRN	?BeginCandidacy@IElection@@QAEXXZ:NEAR		; IElection::BeginCandidacy
EXTRN	?BeginVote@IElection@@QAEXH@Z:NEAR		; IElection::BeginVote
EXTRN	?EndVote@IElection@@QAEXK@Z:NEAR		; IElection::EndVote
; Function compile flags: /Ogty
;	COMDAT ?OnTimer@CTElection@@QAEXXZ
_TEXT	SEGMENT
?OnTimer@CTElection@@QAEXXZ PROC NEAR			; CTElection::OnTimer, COMDAT
; _this$ = ecx

; 534  : {	//  

  00000	56		 push	 esi
  00001	8b f1		 mov	 esi, ecx

; 535  : 	if( !IsRunable() )		//    

  00003	8b 46 70	 mov	 eax, DWORD PTR [esi+112]
  00006	85 c0		 test	 eax, eax
  00008	74 3b		 je	 SHORT $L204124
  0000a	57		 push	 edi

; 536  : 		return;
; 537  : 	
; 538  : 	//   
; 539  : 	//      
; 540  : 	//    
; 541  : 	if( GetState() != GetPropertyState() )

  0000b	8b 7e 10	 mov	 edi, DWORD PTR [esi+16]
  0000e	e8 00 00 00 00	 call	 ?GetPropertyState@IElection@@QAE?AW4ELECTION_STATE@1@XZ ; IElection::GetPropertyState
  00013	3b f8		 cmp	 edi, eax
  00015	5f		 pop	 edi
  00016	74 2d		 je	 SHORT $L204124

; 542  : 	{
; 543  : 		if( GetState() == eReady )

  00018	8b 46 10	 mov	 eax, DWORD PTR [esi+16]
  0001b	85 c0		 test	 eax, eax
  0001d	75 08		 jne	 SHORT $L204120

; 544  : 			BeginCandidacy();

  0001f	8b ce		 mov	 ecx, esi
  00021	5e		 pop	 esi
  00022	e9 00 00 00 00	 jmp	 ?BeginCandidacy@IElection@@QAEXXZ ; IElection::BeginCandidacy
$L204120:

; 545  : 		else if( GetState() == eCandidacy )

  00027	83 f8 01	 cmp	 eax, 1
  0002a	75 0b		 jne	 SHORT $L204122

; 546  : 			BeginVote( 0 );

  0002c	6a 00		 push	 0
  0002e	8b ce		 mov	 ecx, esi
  00030	e8 00 00 00 00	 call	 ?BeginVote@IElection@@QAEXH@Z ; IElection::BeginVote
  00035	5e		 pop	 esi

; 549  : 	}
; 550  : }

  00036	c3		 ret	 0
$L204122:

; 547  : 		else if( GetState() == eVote )

  00037	83 f8 02	 cmp	 eax, 2
  0003a	75 09		 jne	 SHORT $L204124

; 548  : 			EndVote( 0 );

  0003c	6a 00		 push	 0
  0003e	8b ce		 mov	 ecx, esi
  00040	e8 00 00 00 00	 call	 ?EndVote@IElection@@QAEXK@Z ; IElection::EndVote
$L204124:
  00045	5e		 pop	 esi

; 549  : 	}
; 550  : }

  00046	c3		 ret	 0
?OnTimer@CTElection@@QAEXXZ ENDP			; CTElection::OnTimer
_TEXT	ENDS
PUBLIC	??0CLEvent@@QAE@PAVCLord@@@Z			; CLEvent::CLEvent
PUBLIC	?DoTestAddComponent@CLEvent@@MAEHPAVCLEComponent@@@Z ; CLEvent::DoTestAddComponent
PUBLIC	?DoTestInitialize@CLEvent@@MAEHXZ		; CLEvent::DoTestInitialize
PUBLIC	??_7CLEvent@@6B@				; CLEvent::`vftable'
PUBLIC	??_GCLEvent@@UAEPAXI@Z				; CLEvent::`scalar deleting destructor'
EXTRN	??_ECLEvent@@UAEPAXI@Z:NEAR			; CLEvent::`vector deleting destructor'
EXTRN	??0ILordEvent@@IAE@PAVCLord@@@Z:NEAR		; ILordEvent::ILordEvent
;	COMDAT ??_7CLEvent@@6B@
CONST	SEGMENT
??_7CLEvent@@6B@ DD FLAT:??_ECLEvent@@UAEPAXI@Z		; CLEvent::`vftable'
	DD	FLAT:?DoTestAddComponent@CLEvent@@MAEHPAVCLEComponent@@@Z
	DD	FLAT:?DoTestInitialize@CLEvent@@MAEHXZ
; Function compile flags: /Ogty
CONST	ENDS
;	COMDAT ??0CLEvent@@QAE@PAVCLord@@@Z
_TEXT	SEGMENT
_pLord$ = 8						; size = 4
??0CLEvent@@QAE@PAVCLord@@@Z PROC NEAR			; CLEvent::CLEvent, COMDAT
; _this$ = ecx

; 557  : {

  00000	8b 44 24 04	 mov	 eax, DWORD PTR _pLord$[esp-4]
  00004	56		 push	 esi
  00005	50		 push	 eax
  00006	8b f1		 mov	 esi, ecx
  00008	e8 00 00 00 00	 call	 ??0ILordEvent@@IAE@PAVCLord@@@Z ; ILordEvent::ILordEvent
  0000d	c7 06 00 00 00
	00		 mov	 DWORD PTR [esi], OFFSET FLAT:??_7CLEvent@@6B@

; 558  : }

  00013	8b c6		 mov	 eax, esi
  00015	5e		 pop	 esi
  00016	c2 04 00	 ret	 4
??0CLEvent@@QAE@PAVCLord@@@Z ENDP			; CLEvent::CLEvent
_TEXT	ENDS
PUBLIC	??1CLEvent@@UAE@XZ				; CLEvent::~CLEvent
EXTRN	??1ILordEvent@@UAE@XZ:NEAR			; ILordEvent::~ILordEvent
; Function compile flags: /Ogty
;	COMDAT ??1CLEvent@@UAE@XZ
_TEXT	SEGMENT
??1CLEvent@@UAE@XZ PROC NEAR				; CLEvent::~CLEvent, COMDAT
; _this$ = ecx

; 561  : {

  00000	c7 01 00 00 00
	00		 mov	 DWORD PTR [ecx], OFFSET FLAT:??_7CLEvent@@6B@

; 562  : }

  00006	e9 00 00 00 00	 jmp	 ??1ILordEvent@@UAE@XZ	; ILordEvent::~ILordEvent
??1CLEvent@@UAE@XZ ENDP					; CLEvent::~CLEvent
_TEXT	ENDS
PUBLIC	?Restore@CLEvent@@QAEHPAVCQuery@@@Z		; CLEvent::Restore
PUBLIC	??_C@_0BE@PNIJDBCM@uspRestoreLEvent?5?$CFd?$AA@	; `string'
PUBLIC	??_C@_05DLOGCGOB@nTick?$AA@			; `string'
PUBLIC	??_C@_08NHMMOOHF@fEFactor?$AA@			; `string'
PUBLIC	??_C@_08IAGDPLDK@fIFactor?$AA@			; `string'
PUBLIC	??_C@_08EPHCN@idPlayer?$AA@			; `string'
EXTRN	??2@YAPAXI@Z:NEAR				; operator new
EXTRN	??3@YAXPAX@Z:NEAR				; operator delete
EXTRN	?GetFloat@CQuery@@QAEMPAD@Z:NEAR		; CQuery::GetFloat
EXTRN	__except_list:DWORD
EXTRN	___CxxFrameHandler:NEAR
EXTRN	??0CLEComponent@@QAE@HKMM@Z:NEAR		; CLEComponent::CLEComponent
EXTRN	?AddComponent@ILordEvent@@QAEXPAVCLEComponent@@H@Z:NEAR ; ILordEvent::AddComponent
;	COMDAT xdata$x
xdata$x	SEGMENT
$T206500 DD	0ffffffffH
	DD	FLAT:$L206491
$T206495 DD	019930520H
	DD	01H
	DD	FLAT:$T206500
	DD	2 DUP(00H)
	DD	2 DUP(00H)
xdata$x	ENDS
;	COMDAT ??_C@_0BE@PNIJDBCM@uspRestoreLEvent?5?$CFd?$AA@
CONST	SEGMENT
??_C@_0BE@PNIJDBCM@uspRestoreLEvent?5?$CFd?$AA@ DB 'uspRestoreLEvent %d', 00H ; `string'
CONST	ENDS
;	COMDAT ??_C@_05DLOGCGOB@nTick?$AA@
CONST	SEGMENT
??_C@_05DLOGCGOB@nTick?$AA@ DB 'nTick', 00H		; `string'
CONST	ENDS
;	COMDAT ??_C@_08EPHCN@idPlayer?$AA@
CONST	SEGMENT
??_C@_08EPHCN@idPlayer?$AA@ DB 'idPlayer', 00H		; `string'
CONST	ENDS
;	COMDAT ??_C@_08NHMMOOHF@fEFactor?$AA@
CONST	SEGMENT
??_C@_08NHMMOOHF@fEFactor?$AA@ DB 'fEFactor', 00H	; `string'
CONST	ENDS
;	COMDAT ??_C@_08IAGDPLDK@fIFactor?$AA@
CONST	SEGMENT
??_C@_08IAGDPLDK@fIFactor?$AA@ DB 'fIFactor', 00H	; `string'
; Function compile flags: /Ogty
CONST	ENDS
;	COMDAT ?Restore@CLEvent@@QAEHPAVCQuery@@@Z
_TEXT	SEGMENT
_fEFactor$204148 = -24					; size = 4
_this$ = -20						; size = 4
$T206488 = -16						; size = 4
__$EHRec$ = -12						; size = 12
_fIFactor$204150 = 8					; size = 4
_pQuery$ = 8						; size = 4
?Restore@CLEvent@@QAEHPAVCQuery@@@Z PROC NEAR		; CLEvent::Restore, COMDAT
; _this$ = ecx

; 565  : {	//  

  00000	6a ff		 push	 -1
  00002	68 00 00 00 00	 push	 __ehhandler$?Restore@CLEvent@@QAEHPAVCQuery@@@Z
  00007	64 a1 00 00 00
	00		 mov	 eax, DWORD PTR fs:__except_list
  0000d	50		 push	 eax
  0000e	64 89 25 00 00
	00 00		 mov	 DWORD PTR fs:__except_list, esp
  00015	83 ec 0c	 sub	 esp, 12			; 0000000cH

; 566  : 	if( !pQuery->Execute( "uspRestoreLEvent %d", g_appInfo.dwSys ) )

  00018	a1 00 00 00 00	 mov	 eax, DWORD PTR ?g_appInfo@@3UAppInfo@@A
  0001d	56		 push	 esi
  0001e	8b 74 24 20	 mov	 esi, DWORD PTR _pQuery$[esp+24]
  00022	50		 push	 eax
  00023	68 00 00 00 00	 push	 OFFSET FLAT:??_C@_0BE@PNIJDBCM@uspRestoreLEvent?5?$CFd?$AA@
  00028	56		 push	 esi
  00029	89 4c 24 14	 mov	 DWORD PTR _this$[esp+40], ecx
  0002d	e8 00 00 00 00	 call	 ?Execute@CQuery@@QAAHPBDZZ ; CQuery::Execute
  00032	83 c4 0c	 add	 esp, 12			; 0000000cH
  00035	85 c0		 test	 eax, eax
  00037	75 12		 jne	 SHORT $L206496
  00039	5e		 pop	 esi

; 576  : 	}
; 577  : 	return TRUE;
; 578  : }

  0003a	8b 4c 24 0c	 mov	 ecx, DWORD PTR __$EHRec$[esp+24]
  0003e	64 89 0d 00 00
	00 00		 mov	 DWORD PTR fs:__except_list, ecx
  00045	83 c4 18	 add	 esp, 24			; 00000018H
  00048	c2 04 00	 ret	 4
$L206496:

; 567  : 		return FALSE;
; 568  : 	while( pQuery->Fetch() )

  0004b	8b ce		 mov	 ecx, esi
  0004d	e8 00 00 00 00	 call	 ?Fetch@CQuery@@QAEHXZ	; CQuery::Fetch
  00052	85 c0		 test	 eax, eax
  00054	0f 84 98 00 00
	00		 je	 $L204144
  0005a	53		 push	 ebx
  0005b	57		 push	 edi
  0005c	8d 64 24 00	 npad	 4
$L204143:

; 569  : 	{
; 570  : 		int nTick	= pQuery->GetInt( "nTick" );

  00060	68 00 00 00 00	 push	 OFFSET FLAT:??_C@_05DLOGCGOB@nTick?$AA@
  00065	8b ce		 mov	 ecx, esi
  00067	e8 00 00 00 00	 call	 ?GetInt@CQuery@@QAEHPAD@Z ; CQuery::GetInt

; 571  : 		u_long idPlayer		= pQuery->GetInt( "idPlayer" );

  0006c	68 00 00 00 00	 push	 OFFSET FLAT:??_C@_08EPHCN@idPlayer?$AA@
  00071	8b ce		 mov	 ecx, esi
  00073	8b f8		 mov	 edi, eax
  00075	e8 00 00 00 00	 call	 ?GetInt@CQuery@@QAEHPAD@Z ; CQuery::GetInt

; 572  : 		float fEFactor	= pQuery->GetFloat( "fEFactor" );

  0007a	68 00 00 00 00	 push	 OFFSET FLAT:??_C@_08NHMMOOHF@fEFactor?$AA@
  0007f	8b ce		 mov	 ecx, esi
  00081	8b d8		 mov	 ebx, eax
  00083	e8 00 00 00 00	 call	 ?GetFloat@CQuery@@QAEMPAD@Z ; CQuery::GetFloat
  00088	d9 5c 24 0c	 fstp	 DWORD PTR _fEFactor$204148[esp+36]

; 573  : 		float fIFactor	= pQuery->GetFloat( "fIFactor" );

  0008c	68 00 00 00 00	 push	 OFFSET FLAT:??_C@_08IAGDPLDK@fIFactor?$AA@
  00091	8b ce		 mov	 ecx, esi
  00093	e8 00 00 00 00	 call	 ?GetFloat@CQuery@@QAEMPAD@Z ; CQuery::GetFloat
  00098	d9 5c 24 28	 fstp	 DWORD PTR _fIFactor$204150[esp+32]

; 574  : 		CLEComponent* pComponent	= new CLEComponent( nTick, idPlayer, fEFactor, fIFactor );

  0009c	6a 14		 push	 20			; 00000014H
  0009e	e8 00 00 00 00	 call	 ??2@YAPAXI@Z		; operator new
  000a3	83 c4 04	 add	 esp, 4
  000a6	89 44 24 14	 mov	 DWORD PTR $T206488[esp+36], eax
  000aa	85 c0		 test	 eax, eax
  000ac	c7 44 24 20 00
	00 00 00	 mov	 DWORD PTR __$EHRec$[esp+44], 0
  000b4	74 15		 je	 SHORT $L206489
  000b6	8b 4c 24 28	 mov	 ecx, DWORD PTR _fIFactor$204150[esp+32]
  000ba	8b 54 24 0c	 mov	 edx, DWORD PTR _fEFactor$204148[esp+36]
  000be	51		 push	 ecx
  000bf	52		 push	 edx
  000c0	53		 push	 ebx
  000c1	57		 push	 edi
  000c2	8b c8		 mov	 ecx, eax
  000c4	e8 00 00 00 00	 call	 ??0CLEComponent@@QAE@HKMM@Z ; CLEComponent::CLEComponent
  000c9	eb 02		 jmp	 SHORT $L206490
$L206489:
  000cb	33 c0		 xor	 eax, eax
$L206490:

; 575  : 		AddComponent( pComponent, FALSE );

  000cd	8b 4c 24 10	 mov	 ecx, DWORD PTR _this$[esp+36]
  000d1	6a 00		 push	 0
  000d3	50		 push	 eax
  000d4	c7 44 24 28 ff
	ff ff ff	 mov	 DWORD PTR __$EHRec$[esp+52], -1
  000dc	e8 00 00 00 00	 call	 ?AddComponent@ILordEvent@@QAEXPAVCLEComponent@@H@Z ; ILordEvent::AddComponent
  000e1	8b ce		 mov	 ecx, esi
  000e3	e8 00 00 00 00	 call	 ?Fetch@CQuery@@QAEHXZ	; CQuery::Fetch
  000e8	85 c0		 test	 eax, eax
  000ea	0f 85 70 ff ff
	ff		 jne	 $L204143
  000f0	5f		 pop	 edi
  000f1	5b		 pop	 ebx
$L204144:

; 576  : 	}
; 577  : 	return TRUE;
; 578  : }

  000f2	8b 4c 24 10	 mov	 ecx, DWORD PTR __$EHRec$[esp+28]
  000f6	b8 01 00 00 00	 mov	 eax, 1
  000fb	5e		 pop	 esi
  000fc	64 89 0d 00 00
	00 00		 mov	 DWORD PTR fs:__except_list, ecx
  00103	83 c4 18	 add	 esp, 24			; 00000018H
  00106	c2 04 00	 ret	 4
_TEXT	ENDS
;	COMDAT text$x
text$x	SEGMENT
$L206491:
  00000	8b 45 f0	 mov	 eax, DWORD PTR $T206488[ebp]
  00003	50		 push	 eax
  00004	e8 00 00 00 00	 call	 ??3@YAXPAX@Z		; operator delete
  00009	59		 pop	 ecx
  0000a	c3		 ret	 0
__ehhandler$?Restore@CLEvent@@QAEHPAVCQuery@@@Z:
  0000b	b8 00 00 00 00	 mov	 eax, OFFSET FLAT:$T206495
  00010	e9 00 00 00 00	 jmp	 ___CxxFrameHandler
text$x	ENDS
?Restore@CLEvent@@QAEHPAVCQuery@@@Z ENDP		; CLEvent::Restore
PUBLIC	??0CLController@@QAE@PAVCTLord@@@Z		; CLController::CLController
PUBLIC	?Handler@CLController@@UAEXPAUtagDB_OVERLAPPED_PLUS@@K@Z ; CLController::Handler
PUBLIC	?OnTimer@CLController@@UAEXXZ			; CLController::OnTimer
PUBLIC	??_7CLController@@6B@				; CLController::`vftable'
PUBLIC	??_GCLController@@UAEPAXI@Z			; CLController::`scalar deleting destructor'
EXTRN	??_ECLController@@UAEPAXI@Z:NEAR		; CLController::`vector deleting destructor'
EXTRN	??0CDbController@@QAE@XZ:NEAR			; CDbController::CDbController
;	COMDAT ??_7CLController@@6B@
CONST	SEGMENT
??_7CLController@@6B@ DD FLAT:??_ECLController@@UAEPAXI@Z ; CLController::`vftable'
	DD	FLAT:?Handler@CLController@@UAEXPAUtagDB_OVERLAPPED_PLUS@@K@Z
	DD	FLAT:?OnTimer@CLController@@UAEXXZ
; Function compile flags: /Ogty
CONST	ENDS
;	COMDAT ??0CLController@@QAE@PAVCTLord@@@Z
_TEXT	SEGMENT
_pLord$ = 8						; size = 4
??0CLController@@QAE@PAVCTLord@@@Z PROC NEAR		; CLController::CLController, COMDAT
; _this$ = ecx

; 628  : {

  00000	56		 push	 esi
  00001	8b f1		 mov	 esi, ecx
  00003	e8 00 00 00 00	 call	 ??0CDbController@@QAE@XZ ; CDbController::CDbController
  00008	8b 44 24 08	 mov	 eax, DWORD PTR _pLord$[esp]
  0000c	89 46 14	 mov	 DWORD PTR [esi+20], eax
  0000f	c7 06 00 00 00
	00		 mov	 DWORD PTR [esi], OFFSET FLAT:??_7CLController@@6B@

; 629  : }

  00015	8b c6		 mov	 eax, esi
  00017	5e		 pop	 esi
  00018	c2 04 00	 ret	 4
??0CLController@@QAE@PAVCTLord@@@Z ENDP			; CLController::CLController
_TEXT	ENDS
PUBLIC	??1CLController@@UAE@XZ				; CLController::~CLController
EXTRN	??1CDbController@@UAE@XZ:NEAR			; CDbController::~CDbController
; Function compile flags: /Ogty
;	COMDAT ??1CLController@@UAE@XZ
_TEXT	SEGMENT
??1CLController@@UAE@XZ PROC NEAR			; CLController::~CLController, COMDAT
; _this$ = ecx

; 632  : {

  00000	c7 01 00 00 00
	00		 mov	 DWORD PTR [ecx], OFFSET FLAT:??_7CLController@@6B@

; 633  : }

  00006	e9 00 00 00 00	 jmp	 ??1CDbController@@UAE@XZ ; CDbController::~CDbController
??1CLController@@UAE@XZ ENDP				; CLController::~CLController
_TEXT	ENDS
PUBLIC	??_GCQuery@@QAEPAXI@Z				; CQuery::`scalar deleting destructor'
EXTRN	??1CQuery@@QAE@XZ:NEAR				; CQuery::~CQuery
; Function compile flags: /Ogty
;	COMDAT ??_GCQuery@@QAEPAXI@Z
_TEXT	SEGMENT
___flags$ = 8						; size = 4
??_GCQuery@@QAEPAXI@Z PROC NEAR				; CQuery::`scalar deleting destructor', COMDAT
; _this$ = ecx
  00000	56		 push	 esi
  00001	8b f1		 mov	 esi, ecx
  00003	e8 00 00 00 00	 call	 ??1CQuery@@QAE@XZ	; CQuery::~CQuery
  00008	f6 44 24 08 01	 test	 BYTE PTR ___flags$[esp], 1
  0000d	74 09		 je	 SHORT $L206512
  0000f	56		 push	 esi
  00010	e8 00 00 00 00	 call	 ??3@YAXPAX@Z		; operator delete
  00015	83 c4 04	 add	 esp, 4
$L206512:
  00018	8b c6		 mov	 eax, esi
  0001a	5e		 pop	 esi
  0001b	c2 04 00	 ret	 4
??_GCQuery@@QAEPAXI@Z ENDP				; CQuery::`scalar deleting destructor'
_TEXT	ENDS
PUBLIC	?BeginCandidacy@CLController@@QAEHXZ		; CLController::BeginCandidacy
PUBLIC	??_C@_0CB@IFBIPCGL@uspElectionBeginCandidacy?5?$CFd?0?5?$CFd@ ; `string'
EXTRN	?Exec@CQuery@@QAEHPBD@Z:NEAR			; CQuery::Exec
EXTRN	_sprintf:NEAR
;	COMDAT ??_C@_0CB@IFBIPCGL@uspElectionBeginCandidacy?5?$CFd?0?5?$CFd@
; File c:\documents and settings\test\mes documents\source\virtuos_v17\build\program\databaseserver\dbcontroller.h
CONST	SEGMENT
??_C@_0CB@IFBIPCGL@uspElectionBeginCandidacy?5?$CFd?0?5?$CFd@ DB 'uspElec'
	DB	'tionBeginCandidacy %d, %d', 00H		; `string'
; Function compile flags: /Ogty
; File c:\documents and settings\test\mes documents\source\virtuos_v17\build\program\databaseserver\tlord.cpp
CONST	ENDS
;	COMDAT ?BeginCandidacy@CLController@@QAEHXZ
_TEXT	SEGMENT
_szQuery$ = -264					; size = 255
__$ArrayPad$ = -4					; size = 4
__$ReturnAddr$ = 4					; size = 4
?BeginCandidacy@CLController@@QAEHXZ PROC NEAR		; CLController::BeginCandidacy, COMDAT
; _this$ = ecx

; 665  : {	//    

  00000	55		 push	 ebp
  00001	8b ec		 mov	 ebp, esp
  00003	83 e4 f8	 and	 esp, -8			; fffffff8H
  00006	81 ec 08 01 00
	00		 sub	 esp, 264		; 00000108H
  0000c	a1 00 00 00 00	 mov	 eax, DWORD PTR ___security_cookie
  00011	33 c5		 xor	 eax, ebp
  00013	56		 push	 esi
  00014	57		 push	 edi
  00015	89 84 24 0c 01
	00 00		 mov	 DWORD PTR __$ArrayPad$[esp+272], eax
  0001c	8b f1		 mov	 esi, ecx

; 666  : 	char szQuery[255]	= { 0,};

  0001e	c6 44 24 08 00	 mov	 BYTE PTR _szQuery$[esp+272], 0
  00023	33 c0		 xor	 eax, eax
  00025	b9 3f 00 00 00	 mov	 ecx, 63			; 0000003fH
  0002a	8d 7c 24 09	 lea	 edi, DWORD PTR _szQuery$[esp+273]
  0002e	f3 ab		 rep stosd
  00030	66 ab		 stosw

; 667  : 	IElection* pElection	= m_pLord->GetElection();
; 668  : 	sprintf( szQuery, "uspElectionBeginCandidacy %d, %d", g_appInfo.dwSys, pElection->GetId() );

  00032	8b 46 14	 mov	 eax, DWORD PTR [esi+20]
  00035	8b 48 08	 mov	 ecx, DWORD PTR [eax+8]
  00038	8b 51 08	 mov	 edx, DWORD PTR [ecx+8]
  0003b	a1 00 00 00 00	 mov	 eax, DWORD PTR ?g_appInfo@@3UAppInfo@@A
  00040	52		 push	 edx
  00041	50		 push	 eax
  00042	8d 4c 24 10	 lea	 ecx, DWORD PTR _szQuery$[esp+280]
  00046	68 00 00 00 00	 push	 OFFSET FLAT:??_C@_0CB@IFBIPCGL@uspElectionBeginCandidacy?5?$CFd?0?5?$CFd@
  0004b	51		 push	 ecx
  0004c	e8 00 00 00 00	 call	 _sprintf

; 669  : 	return GetQueryObject()->Exec( szQuery );

  00051	8b 4e 0c	 mov	 ecx, DWORD PTR [esi+12]
  00054	83 c4 10	 add	 esp, 16			; 00000010H
  00057	8d 54 24 08	 lea	 edx, DWORD PTR _szQuery$[esp+272]
  0005b	52		 push	 edx
  0005c	e8 00 00 00 00	 call	 ?Exec@CQuery@@QAEHPBD@Z	; CQuery::Exec

; 670  : }

  00061	8b 8c 24 0c 01
	00 00		 mov	 ecx, DWORD PTR __$ArrayPad$[esp+272]
  00068	5f		 pop	 edi
  00069	33 cd		 xor	 ecx, ebp
  0006b	5e		 pop	 esi
  0006c	e8 00 00 00 00	 call	 @__security_check_cookie@4
  00071	8b e5		 mov	 esp, ebp
  00073	5d		 pop	 ebp
  00074	c3		 ret	 0
?BeginCandidacy@CLController@@QAEHXZ ENDP		; CLController::BeginCandidacy
_TEXT	ENDS
PUBLIC	?BeginVote@CLController@@QAEHXZ			; CLController::BeginVote
PUBLIC	??_C@_0BM@CADCBIMM@uspElectionBeginVote?5?$CFd?0?5?$CFd?$AA@ ; `string'
PUBLIC	??_C@_0N@NOMIPDCI@nRequirement?$AA@		; `string'
;	COMDAT ??_C@_0BM@CADCBIMM@uspElectionBeginVote?5?$CFd?0?5?$CFd?$AA@
; File c:\documents and settings\test\mes documents\source\virtuos_v17\build\program\databaseserver\dbcontroller.h
CONST	SEGMENT
??_C@_0BM@CADCBIMM@uspElectionBeginVote?5?$CFd?0?5?$CFd?$AA@ DB 'uspElect'
	DB	'ionBeginVote %d, %d', 00H			; `string'
CONST	ENDS
;	COMDAT ??_C@_0N@NOMIPDCI@nRequirement?$AA@
CONST	SEGMENT
??_C@_0N@NOMIPDCI@nRequirement?$AA@ DB 'nRequirement', 00H ; `string'
; Function compile flags: /Ogty
; File c:\documents and settings\test\mes documents\source\virtuos_v17\build\program\databaseserver\tlord.cpp
CONST	ENDS
;	COMDAT ?BeginVote@CLController@@QAEHXZ
_TEXT	SEGMENT
_szQuery$ = -264					; size = 255
__$ArrayPad$ = -4					; size = 4
__$ReturnAddr$ = 4					; size = 4
?BeginVote@CLController@@QAEHXZ PROC NEAR		; CLController::BeginVote, COMDAT
; _this$ = ecx

; 673  : {	//    

  00000	55		 push	 ebp
  00001	8b ec		 mov	 ebp, esp
  00003	83 e4 f8	 and	 esp, -8			; fffffff8H
  00006	81 ec 0c 01 00
	00		 sub	 esp, 268		; 0000010cH
  0000c	a1 00 00 00 00	 mov	 eax, DWORD PTR ___security_cookie
  00011	53		 push	 ebx
  00012	33 c5		 xor	 eax, ebp
  00014	56		 push	 esi
  00015	57		 push	 edi
  00016	8b f1		 mov	 esi, ecx
  00018	89 84 24 14 01
	00 00		 mov	 DWORD PTR __$ArrayPad$[esp+280], eax

; 674  : 	int nRequirement	= -1;
; 675  : 	char szQuery[255]	= { 0,};

  0001f	c6 44 24 10 00	 mov	 BYTE PTR _szQuery$[esp+280], 0
  00024	33 c0		 xor	 eax, eax
  00026	b9 3f 00 00 00	 mov	 ecx, 63			; 0000003fH
  0002b	8d 7c 24 11	 lea	 edi, DWORD PTR _szQuery$[esp+281]
  0002f	f3 ab		 rep stosd
  00031	66 ab		 stosw

; 676  : 	IElection* pElection	= m_pLord->GetElection();
; 677  : 	sprintf( szQuery, "uspElectionBeginVote %d, %d", g_appInfo.dwSys, pElection->GetId() );

  00033	8b 46 14	 mov	 eax, DWORD PTR [esi+20]
  00036	8b 48 08	 mov	 ecx, DWORD PTR [eax+8]
  00039	8b 51 08	 mov	 edx, DWORD PTR [ecx+8]
  0003c	a1 00 00 00 00	 mov	 eax, DWORD PTR ?g_appInfo@@3UAppInfo@@A
  00041	52		 push	 edx
  00042	50		 push	 eax
  00043	8d 4c 24 18	 lea	 ecx, DWORD PTR _szQuery$[esp+288]
  00047	68 00 00 00 00	 push	 OFFSET FLAT:??_C@_0BM@CADCBIMM@uspElectionBeginVote?5?$CFd?0?5?$CFd?$AA@
  0004c	51		 push	 ecx
  0004d	83 cb ff	 or	 ebx, -1
  00050	e8 00 00 00 00	 call	 _sprintf

; 678  : 	if( GetQueryObject()->Exec( szQuery ) && GetQueryObject()->Fetch() )

  00055	8b 4e 0c	 mov	 ecx, DWORD PTR [esi+12]
  00058	83 c4 10	 add	 esp, 16			; 00000010H
  0005b	8d 54 24 10	 lea	 edx, DWORD PTR _szQuery$[esp+280]
  0005f	52		 push	 edx
  00060	e8 00 00 00 00	 call	 ?Exec@CQuery@@QAEHPBD@Z	; CQuery::Exec
  00065	85 c0		 test	 eax, eax
  00067	74 2e		 je	 SHORT $L206552
  00069	8b 4e 0c	 mov	 ecx, DWORD PTR [esi+12]
  0006c	e8 00 00 00 00	 call	 ?Fetch@CQuery@@QAEHXZ	; CQuery::Fetch
  00071	85 c0		 test	 eax, eax
  00073	74 22		 je	 SHORT $L206552

; 679  : 		nRequirement	= GetQueryObject()->GetInt( "nRequirement" );

  00075	8b 4e 0c	 mov	 ecx, DWORD PTR [esi+12]
  00078	68 00 00 00 00	 push	 OFFSET FLAT:??_C@_0N@NOMIPDCI@nRequirement?$AA@
  0007d	e8 00 00 00 00	 call	 ?GetInt@CQuery@@QAEHPAD@Z ; CQuery::GetInt

; 680  : 	return nRequirement;
; 681  : }

  00082	5f		 pop	 edi
  00083	5e		 pop	 esi
  00084	5b		 pop	 ebx
  00085	8b 8c 24 08 01
	00 00		 mov	 ecx, DWORD PTR __$ArrayPad$[esp+268]
  0008c	33 cd		 xor	 ecx, ebp
  0008e	e8 00 00 00 00	 call	 @__security_check_cookie@4
  00093	8b e5		 mov	 esp, ebp
  00095	5d		 pop	 ebp
  00096	c3		 ret	 0
$L206552:
  00097	8b 8c 24 14 01
	00 00		 mov	 ecx, DWORD PTR __$ArrayPad$[esp+280]
  0009e	5f		 pop	 edi
  0009f	5e		 pop	 esi
  000a0	8b c3		 mov	 eax, ebx
  000a2	33 cd		 xor	 ecx, ebp
  000a4	5b		 pop	 ebx
  000a5	e8 00 00 00 00	 call	 @__security_check_cookie@4
  000aa	8b e5		 mov	 esp, ebp
  000ac	5d		 pop	 ebp
  000ad	c3		 ret	 0
?BeginVote@CLController@@QAEHXZ ENDP			; CLController::BeginVote
_TEXT	ENDS
PUBLIC	?AddDeposit@CLController@@QAEHK_JJ@Z		; CLController::AddDeposit
PUBLIC	??_C@_0CM@MKKLKFBM@uspElectionAddDeposit?5?$CFd?0?5?$CFd?0?5?$CFd@ ; `string'
;	COMDAT ??_C@_0CM@MKKLKFBM@uspElectionAddDeposit?5?$CFd?0?5?$CFd?0?5?$CFd@
; File c:\documents and settings\test\mes documents\source\virtuos_v17\build\program\databaseserver\dbcontroller.h
CONST	SEGMENT
??_C@_0CM@MKKLKFBM@uspElectionAddDeposit?5?$CFd?0?5?$CFd?0?5?$CFd@ DB 'us'
	DB	'pElectionAddDeposit %d, %d, %d, %I64d, %d', 00H ; `string'
; Function compile flags: /Ogty
; File c:\documents and settings\test\mes documents\source\virtuos_v17\build\program\databaseserver\tlord.cpp
CONST	ENDS
;	COMDAT ?AddDeposit@CLController@@QAEHK_JJ@Z
_TEXT	SEGMENT
_szQuery$ = -264					; size = 255
__$ArrayPad$ = -4					; size = 4
__$ReturnAddr$ = 4					; size = 4
_idPlayer$ = 8						; size = 4
_iDeposit$ = 12						; size = 8
_tCreate$ = 20						; size = 4
?AddDeposit@CLController@@QAEHK_JJ@Z PROC NEAR		; CLController::AddDeposit, COMDAT
; _this$ = ecx

; 691  : {	//   

  00000	55		 push	 ebp
  00001	8b ec		 mov	 ebp, esp
  00003	83 e4 f8	 and	 esp, -8			; fffffff8H
  00006	81 ec 08 01 00
	00		 sub	 esp, 264		; 00000108H
  0000c	a1 00 00 00 00	 mov	 eax, DWORD PTR ___security_cookie

; 692  : 	char szQuery[255]	= { 0,};
; 693  : 	IElection* pElection	= m_pLord->GetElection();
; 694  : 	sprintf( szQuery, "uspElectionAddDeposit %d, %d, %d, %I64d, %d", g_appInfo.dwSys, pElection->GetId(), idPlayer, iDeposit, tCreate );

  00011	8b 55 0c	 mov	 edx, DWORD PTR _iDeposit$[ebp]
  00014	56		 push	 esi
  00015	57		 push	 edi
  00016	33 c5		 xor	 eax, ebp
  00018	89 84 24 0c 01
	00 00		 mov	 DWORD PTR __$ArrayPad$[esp+272], eax
  0001f	8b f1		 mov	 esi, ecx
  00021	33 c0		 xor	 eax, eax
  00023	c6 44 24 08 00	 mov	 BYTE PTR _szQuery$[esp+272], 0
  00028	b9 3f 00 00 00	 mov	 ecx, 63			; 0000003fH
  0002d	8d 7c 24 09	 lea	 edi, DWORD PTR _szQuery$[esp+273]
  00031	f3 ab		 rep stosd
  00033	8b 4d 10	 mov	 ecx, DWORD PTR _iDeposit$[ebp+4]
  00036	66 ab		 stosw
  00038	8b 45 14	 mov	 eax, DWORD PTR _tCreate$[ebp]
  0003b	50		 push	 eax
  0003c	8b 45 08	 mov	 eax, DWORD PTR _idPlayer$[ebp]
  0003f	51		 push	 ecx
  00040	8b 4e 14	 mov	 ecx, DWORD PTR [esi+20]
  00043	52		 push	 edx
  00044	8b 51 08	 mov	 edx, DWORD PTR [ecx+8]
  00047	8b 0d 00 00 00
	00		 mov	 ecx, DWORD PTR ?g_appInfo@@3UAppInfo@@A
  0004d	50		 push	 eax
  0004e	8b 42 08	 mov	 eax, DWORD PTR [edx+8]
  00051	50		 push	 eax
  00052	51		 push	 ecx
  00053	8d 54 24 20	 lea	 edx, DWORD PTR _szQuery$[esp+296]
  00057	68 00 00 00 00	 push	 OFFSET FLAT:??_C@_0CM@MKKLKFBM@uspElectionAddDeposit?5?$CFd?0?5?$CFd?0?5?$CFd@
  0005c	52		 push	 edx
  0005d	e8 00 00 00 00	 call	 _sprintf

; 695  : 	return GetQueryObject()->Exec( szQuery );

  00062	8b 4e 0c	 mov	 ecx, DWORD PTR [esi+12]
  00065	83 c4 20	 add	 esp, 32			; 00000020H
  00068	8d 44 24 08	 lea	 eax, DWORD PTR _szQuery$[esp+272]
  0006c	50		 push	 eax
  0006d	e8 00 00 00 00	 call	 ?Exec@CQuery@@QAEHPBD@Z	; CQuery::Exec

; 696  : }

  00072	8b 8c 24 0c 01
	00 00		 mov	 ecx, DWORD PTR __$ArrayPad$[esp+272]
  00079	5f		 pop	 edi
  0007a	33 cd		 xor	 ecx, ebp
  0007c	5e		 pop	 esi
  0007d	e8 00 00 00 00	 call	 @__security_check_cookie@4
  00082	8b e5		 mov	 esp, ebp
  00084	5d		 pop	 ebp
  00085	c2 10 00	 ret	 16			; 00000010H
?AddDeposit@CLController@@QAEHK_JJ@Z ENDP		; CLController::AddDeposit
_TEXT	ENDS
PUBLIC	?SetPledge@CLController@@QAEHKPBD@Z		; CLController::SetPledge
PUBLIC	??_C@_0CN@DFOIGMEI@?$HLcall?5uspElectionSetPledge?$CI?5?$CFd?0?5@ ; `string'
EXTRN	?BindParameter@CQuery@@QAEHGFFFKFPAXJPAJ@Z:NEAR	; CQuery::BindParameter
;	COMDAT ??_C@_0CN@DFOIGMEI@?$HLcall?5uspElectionSetPledge?$CI?5?$CFd?0?5@
; File c:\documents and settings\test\mes documents\source\virtuos_v17\build\program\databaseserver\dbcontroller.h
CONST	SEGMENT
??_C@_0CN@DFOIGMEI@?$HLcall?5uspElectionSetPledge?$CI?5?$CFd?0?5@ DB '{ca'
	DB	'll uspElectionSetPledge( %d, %d, %d, ? )}', 00H ; `string'
; Function compile flags: /Ogty
; File c:\documents and settings\test\mes documents\source\virtuos_v17\build\program\databaseserver\tlord.cpp
CONST	ENDS
;	COMDAT ?SetPledge@CLController@@QAEHKPBD@Z
_TEXT	SEGMENT
_cbLen$ = -268						; size = 4
_szQuery$ = -264					; size = 255
__$ArrayPad$ = -4					; size = 4
__$ReturnAddr$ = 4					; size = 4
_idPlayer$ = 8						; size = 4
_szPledge$ = 12						; size = 4
?SetPledge@CLController@@QAEHKPBD@Z PROC NEAR		; CLController::SetPledge, COMDAT
; _this$ = ecx

; 699  : {	//   

  00000	55		 push	 ebp
  00001	8b ec		 mov	 ebp, esp
  00003	83 e4 f8	 and	 esp, -8			; fffffff8H
  00006	81 ec 0c 01 00
	00		 sub	 esp, 268		; 0000010cH
  0000c	a1 00 00 00 00	 mov	 eax, DWORD PTR ___security_cookie
  00011	53		 push	 ebx
  00012	8b 5d 0c	 mov	 ebx, DWORD PTR _szPledge$[ebp]
  00015	56		 push	 esi
  00016	33 c5		 xor	 eax, ebp
  00018	57		 push	 edi
  00019	89 84 24 14 01
	00 00		 mov	 DWORD PTR __$ArrayPad$[esp+280], eax
  00020	8b f1		 mov	 esi, ecx

; 700  : 	char szQuery[255]	= { 0,};

  00022	c6 44 24 10 00	 mov	 BYTE PTR _szQuery$[esp+280], 0
  00027	33 c0		 xor	 eax, eax
  00029	b9 3f 00 00 00	 mov	 ecx, 63			; 0000003fH
  0002e	8d 7c 24 11	 lea	 edi, DWORD PTR _szQuery$[esp+281]
  00032	f3 ab		 rep stosd

; 701  : 	IElection* pElection	= m_pLord->GetElection();
; 702  : 	sprintf( szQuery, "{call uspElectionSetPledge( %d, %d, %d, ? )}", g_appInfo.dwSys, pElection->GetId(), idPlayer );

  00034	8b 4e 14	 mov	 ecx, DWORD PTR [esi+20]
  00037	66 ab		 stosw
  00039	8b 51 08	 mov	 edx, DWORD PTR [ecx+8]
  0003c	8b 45 08	 mov	 eax, DWORD PTR _idPlayer$[ebp]
  0003f	8b 0d 00 00 00
	00		 mov	 ecx, DWORD PTR ?g_appInfo@@3UAppInfo@@A
  00045	50		 push	 eax
  00046	8b 42 08	 mov	 eax, DWORD PTR [edx+8]
  00049	50		 push	 eax
  0004a	51		 push	 ecx
  0004b	8d 54 24 1c	 lea	 edx, DWORD PTR _szQuery$[esp+292]
  0004f	68 00 00 00 00	 push	 OFFSET FLAT:??_C@_0CN@DFOIGMEI@?$HLcall?5uspElectionSetPledge?$CI?5?$CFd?0?5@
  00054	52		 push	 edx
  00055	e8 00 00 00 00	 call	 _sprintf

; 703  : 	SQLINTEGER cbLen	= SQL_NTS;
; 704  : 	if( !GetQueryObject()->BindParameter( 1, SQL_PARAM_INPUT, SQL_C_CHAR, SQL_VARCHAR, CCandidate::nMaxPledgeLen, 0, const_cast<char*>( szPledge ), 0, &cbLen ) )

  0005a	8b 4e 0c	 mov	 ecx, DWORD PTR [esi+12]
  0005d	83 c4 14	 add	 esp, 20			; 00000014H
  00060	8d 44 24 0c	 lea	 eax, DWORD PTR _cbLen$[esp+280]
  00064	50		 push	 eax
  00065	6a 00		 push	 0
  00067	53		 push	 ebx
  00068	6a 00		 push	 0
  0006a	68 ff 00 00 00	 push	 255			; 000000ffH
  0006f	6a 0c		 push	 12			; 0000000cH
  00071	6a 01		 push	 1
  00073	6a 01		 push	 1
  00075	6a 01		 push	 1
  00077	c7 44 24 30 fd
	ff ff ff	 mov	 DWORD PTR _cbLen$[esp+316], -3 ; fffffffdH
  0007f	e8 00 00 00 00	 call	 ?BindParameter@CQuery@@QAEHGFFFKFPAXJPAJ@Z ; CQuery::BindParameter
  00084	85 c0		 test	 eax, eax
  00086	75 17		 jne	 SHORT $L204392

; 707  : }

  00088	5f		 pop	 edi
  00089	5e		 pop	 esi
  0008a	5b		 pop	 ebx
  0008b	8b 8c 24 08 01
	00 00		 mov	 ecx, DWORD PTR __$ArrayPad$[esp+268]
  00092	33 cd		 xor	 ecx, ebp
  00094	e8 00 00 00 00	 call	 @__security_check_cookie@4
  00099	8b e5		 mov	 esp, ebp
  0009b	5d		 pop	 ebp
  0009c	c2 08 00	 ret	 8
$L204392:

; 705  : 		return FALSE;
; 706  : 	return GetQueryObject()->Exec( szQuery );

  0009f	8b 4e 0c	 mov	 ecx, DWORD PTR [esi+12]
  000a2	8d 54 24 10	 lea	 edx, DWORD PTR _szQuery$[esp+280]
  000a6	52		 push	 edx
  000a7	e8 00 00 00 00	 call	 ?Exec@CQuery@@QAEHPBD@Z	; CQuery::Exec

; 707  : }

  000ac	8b 8c 24 14 01
	00 00		 mov	 ecx, DWORD PTR __$ArrayPad$[esp+280]
  000b3	5f		 pop	 edi
  000b4	5e		 pop	 esi
  000b5	33 cd		 xor	 ecx, ebp
  000b7	5b		 pop	 ebx
  000b8	e8 00 00 00 00	 call	 @__security_check_cookie@4
  000bd	8b e5		 mov	 esp, ebp
  000bf	5d		 pop	 ebp
  000c0	c2 08 00	 ret	 8
?SetPledge@CLController@@QAEHKPBD@Z ENDP		; CLController::SetPledge
_TEXT	ENDS
PUBLIC	?IncVote@CLController@@QAEHKK@Z			; CLController::IncVote
PUBLIC	??_C@_0CC@MJFIHIPP@uspElectionIncVote?5?$CFd?0?5?$CFd?0?5?$CFd?0?5?$CF@ ; `string'
PUBLIC	??_C@_07MGNKFCA@bResult?$AA@			; `string'
;	COMDAT ??_C@_0CC@MJFIHIPP@uspElectionIncVote?5?$CFd?0?5?$CFd?0?5?$CFd?0?5?$CF@
; File c:\documents and settings\test\mes documents\source\virtuos_v17\build\program\databaseserver\dbcontroller.h
CONST	SEGMENT
??_C@_0CC@MJFIHIPP@uspElectionIncVote?5?$CFd?0?5?$CFd?0?5?$CFd?0?5?$CF@ DB 'u'
	DB	'spElectionIncVote %d, %d, %d, %d', 00H	; `string'
CONST	ENDS
;	COMDAT ??_C@_07MGNKFCA@bResult?$AA@
CONST	SEGMENT
??_C@_07MGNKFCA@bResult?$AA@ DB 'bResult', 00H		; `string'
; Function compile flags: /Ogty
; File c:\documents and settings\test\mes documents\source\virtuos_v17\build\program\databaseserver\tlord.cpp
CONST	ENDS
;	COMDAT ?IncVote@CLController@@QAEHKK@Z
_TEXT	SEGMENT
_szQuery$ = -264					; size = 255
__$ArrayPad$ = -4					; size = 4
__$ReturnAddr$ = 4					; size = 4
_idPlayer$ = 8						; size = 4
_idElector$ = 12					; size = 4
?IncVote@CLController@@QAEHKK@Z PROC NEAR		; CLController::IncVote, COMDAT
; _this$ = ecx

; 710  : {	//  

  00000	55		 push	 ebp
  00001	8b ec		 mov	 ebp, esp
  00003	83 e4 f8	 and	 esp, -8			; fffffff8H
  00006	81 ec 08 01 00
	00		 sub	 esp, 264		; 00000108H
  0000c	a1 00 00 00 00	 mov	 eax, DWORD PTR ___security_cookie
  00011	56		 push	 esi
  00012	33 c5		 xor	 eax, ebp
  00014	57		 push	 edi
  00015	89 84 24 0c 01
	00 00		 mov	 DWORD PTR __$ArrayPad$[esp+272], eax
  0001c	8b f1		 mov	 esi, ecx

; 711  : 	//    FALSE 
; 712  : 	char szQuery[255]	= { 0,};
; 713  : 	IElection* pElection	= m_pLord->GetElection();
; 714  : 	sprintf( szQuery, "uspElectionIncVote %d, %d, %d, %d", g_appInfo.dwSys, pElection->GetId(), idPlayer, idElector );

  0001e	8b 56 14	 mov	 edx, DWORD PTR [esi+20]
  00021	33 c0		 xor	 eax, eax
  00023	c6 44 24 08 00	 mov	 BYTE PTR _szQuery$[esp+272], 0
  00028	b9 3f 00 00 00	 mov	 ecx, 63			; 0000003fH
  0002d	8d 7c 24 09	 lea	 edi, DWORD PTR _szQuery$[esp+273]
  00031	f3 ab		 rep stosd
  00033	8b 4d 08	 mov	 ecx, DWORD PTR _idPlayer$[ebp]
  00036	66 ab		 stosw
  00038	8b 45 0c	 mov	 eax, DWORD PTR _idElector$[ebp]
  0003b	50		 push	 eax
  0003c	8b 42 08	 mov	 eax, DWORD PTR [edx+8]
  0003f	8b 15 00 00 00
	00		 mov	 edx, DWORD PTR ?g_appInfo@@3UAppInfo@@A
  00045	51		 push	 ecx
  00046	8b 48 08	 mov	 ecx, DWORD PTR [eax+8]
  00049	51		 push	 ecx
  0004a	52		 push	 edx
  0004b	8d 44 24 18	 lea	 eax, DWORD PTR _szQuery$[esp+288]
  0004f	68 00 00 00 00	 push	 OFFSET FLAT:??_C@_0CC@MJFIHIPP@uspElectionIncVote?5?$CFd?0?5?$CFd?0?5?$CFd?0?5?$CF@
  00054	50		 push	 eax
  00055	e8 00 00 00 00	 call	 _sprintf

; 715  : 	if( !GetQueryObject()->Exec( szQuery ) )

  0005a	8b 4e 0c	 mov	 ecx, DWORD PTR [esi+12]
  0005d	83 c4 18	 add	 esp, 24			; 00000018H
  00060	8d 54 24 08	 lea	 edx, DWORD PTR _szQuery$[esp+272]
  00064	52		 push	 edx
  00065	e8 00 00 00 00	 call	 ?Exec@CQuery@@QAEHPBD@Z	; CQuery::Exec
  0006a	85 c0		 test	 eax, eax

; 716  : 		return FALSE;

  0006c	74 0c		 je	 SHORT $L206612

; 717  : 	if( !GetQueryObject()->Fetch() )

  0006e	8b 4e 0c	 mov	 ecx, DWORD PTR [esi+12]
  00071	e8 00 00 00 00	 call	 ?Fetch@CQuery@@QAEHXZ	; CQuery::Fetch
  00076	85 c0		 test	 eax, eax
  00078	75 18		 jne	 SHORT $L204402
$L206612:

; 718  : 		return FALSE;

  0007a	33 c0		 xor	 eax, eax

; 720  : }

  0007c	5f		 pop	 edi
  0007d	5e		 pop	 esi
  0007e	8b 8c 24 04 01
	00 00		 mov	 ecx, DWORD PTR __$ArrayPad$[esp+264]
  00085	33 cd		 xor	 ecx, ebp
  00087	e8 00 00 00 00	 call	 @__security_check_cookie@4
  0008c	8b e5		 mov	 esp, ebp
  0008e	5d		 pop	 ebp
  0008f	c2 08 00	 ret	 8
$L204402:

; 719  : 	return static_cast<BOOL>( GetQueryObject()->GetInt( "bResult" ) );

  00092	8b 4e 0c	 mov	 ecx, DWORD PTR [esi+12]
  00095	68 00 00 00 00	 push	 OFFSET FLAT:??_C@_07MGNKFCA@bResult?$AA@
  0009a	e8 00 00 00 00	 call	 ?GetInt@CQuery@@QAEHPAD@Z ; CQuery::GetInt

; 720  : }

  0009f	8b 8c 24 0c 01
	00 00		 mov	 ecx, DWORD PTR __$ArrayPad$[esp+272]
  000a6	5f		 pop	 edi
  000a7	33 cd		 xor	 ecx, ebp
  000a9	5e		 pop	 esi
  000aa	e8 00 00 00 00	 call	 @__security_check_cookie@4
  000af	8b e5		 mov	 esp, ebp
  000b1	5d		 pop	 ebp
  000b2	c2 08 00	 ret	 8
?IncVote@CLController@@QAEHKK@Z ENDP			; CLController::IncVote
_TEXT	ENDS
PUBLIC	?AddLEComponent@CLController@@QAEHPAVCLEComponent@@@Z ; CLController::AddLEComponent
PUBLIC	??_C@_0CL@KGJPMKPI@uspAddLEComponent?5?$CFd?0?5?$CFd?0?5?$CFd?0?5?$CF3@ ; `string'
;	COMDAT ??_C@_0CL@KGJPMKPI@uspAddLEComponent?5?$CFd?0?5?$CFd?0?5?$CFd?0?5?$CF3@
; File c:\documents and settings\test\mes documents\source\virtuos_v17\build\program\databaseserver\dbcontroller.h
CONST	SEGMENT
??_C@_0CL@KGJPMKPI@uspAddLEComponent?5?$CFd?0?5?$CFd?0?5?$CFd?0?5?$CF3@ DB 'u'
	DB	'spAddLEComponent %d, %d, %d, %3.2f, %3.2f', 00H ; `string'
; Function compile flags: /Ogty
; File c:\documents and settings\test\mes documents\source\virtuos_v17\build\program\databaseserver\tlord.cpp
CONST	ENDS
;	COMDAT ?AddLEComponent@CLController@@QAEHPAVCLEComponent@@@Z
_TEXT	SEGMENT
_pComponent$ = 8					; size = 4
?AddLEComponent@CLController@@QAEHPAVCLEComponent@@@Z PROC NEAR ; CLController::AddLEComponent, COMDAT
; _this$ = ecx

; 724  : 	if( GetQueryObject()->Execute( "uspAddLEComponent %d, %d, %d, %3.2f, %3.2f", g_appInfo.dwSys, pComponent->GetIdPlayer(), pComponent->GetTick(), pComponent->GetEFactor(), pComponent->GetIFactor() ) 
; 725  : 		&& GetQueryObject()->Fetch() )

  00000	8b 44 24 04	 mov	 eax, DWORD PTR _pComponent$[esp-4]
  00004	d9 40 10	 fld	 DWORD PTR [eax+16]
  00007	56		 push	 esi
  00008	d9 40 0c	 fld	 DWORD PTR [eax+12]
  0000b	83 ec 10	 sub	 esp, 16			; 00000010H
  0000e	d9 c9		 fxch	 ST(1)
  00010	8b f1		 mov	 esi, ecx
  00012	8b 48 04	 mov	 ecx, DWORD PTR [eax+4]
  00015	dd 5c 24 08	 fstp	 QWORD PTR [esp+8]
  00019	8b 40 08	 mov	 eax, DWORD PTR [eax+8]
  0001c	8b 56 0c	 mov	 edx, DWORD PTR [esi+12]
  0001f	dd 1c 24	 fstp	 QWORD PTR [esp]
  00022	51		 push	 ecx
  00023	50		 push	 eax
  00024	a1 00 00 00 00	 mov	 eax, DWORD PTR ?g_appInfo@@3UAppInfo@@A
  00029	50		 push	 eax
  0002a	68 00 00 00 00	 push	 OFFSET FLAT:??_C@_0CL@KGJPMKPI@uspAddLEComponent?5?$CFd?0?5?$CFd?0?5?$CFd?0?5?$CF3@
  0002f	52		 push	 edx
  00030	e8 00 00 00 00	 call	 ?Execute@CQuery@@QAAHPBDZZ ; CQuery::Execute
  00035	83 c4 24	 add	 esp, 36			; 00000024H
  00038	85 c0		 test	 eax, eax
  0003a	74 1d		 je	 SHORT $L204409
  0003c	8b 4e 0c	 mov	 ecx, DWORD PTR [esi+12]
  0003f	e8 00 00 00 00	 call	 ?Fetch@CQuery@@QAEHXZ	; CQuery::Fetch
  00044	85 c0		 test	 eax, eax
  00046	74 11		 je	 SHORT $L204409

; 726  : 		return static_cast<BOOL>( GetQueryObject()->GetInt( "bResult" ) );

  00048	8b 4e 0c	 mov	 ecx, DWORD PTR [esi+12]
  0004b	5e		 pop	 esi
  0004c	c7 44 24 04 00
	00 00 00	 mov	 DWORD PTR _pComponent$[esp-4], OFFSET FLAT:??_C@_07MGNKFCA@bResult?$AA@
  00054	e9 00 00 00 00	 jmp	 ?GetInt@CQuery@@QAEHPAD@Z ; CQuery::GetInt
$L204409:

; 727  : 	return FALSE;

  00059	33 c0		 xor	 eax, eax
  0005b	5e		 pop	 esi

; 728  : }

  0005c	c2 04 00	 ret	 4
?AddLEComponent@CLController@@QAEHPAVCLEComponent@@@Z ENDP ; CLController::AddLEComponent
_TEXT	ENDS
PUBLIC	?InitializeLEvent@CLController@@QAEHXZ		; CLController::InitializeLEvent
PUBLIC	??_C@_0BH@NILKABO@uspInitializeLEvent?5?$CFd?$AA@ ; `string'
;	COMDAT ??_C@_0BH@NILKABO@uspInitializeLEvent?5?$CFd?$AA@
; File c:\documents and settings\test\mes documents\source\virtuos_v17\build\program\databaseserver\dbcontroller.h
CONST	SEGMENT
??_C@_0BH@NILKABO@uspInitializeLEvent?5?$CFd?$AA@ DB 'uspInitializeLEvent'
	DB	' %d', 00H					; `string'
; Function compile flags: /Ogty
; File c:\documents and settings\test\mes documents\source\virtuos_v17\build\program\databaseserver\tlord.cpp
CONST	ENDS
;	COMDAT ?InitializeLEvent@CLController@@QAEHXZ
_TEXT	SEGMENT
?InitializeLEvent@CLController@@QAEHXZ PROC NEAR	; CLController::InitializeLEvent, COMDAT
; _this$ = ecx

; 732  : 	return GetQueryObject()->Execute( "uspInitializeLEvent %d", g_appInfo.dwSys );

  00000	a1 00 00 00 00	 mov	 eax, DWORD PTR ?g_appInfo@@3UAppInfo@@A
  00005	8b 49 0c	 mov	 ecx, DWORD PTR [ecx+12]
  00008	50		 push	 eax
  00009	68 00 00 00 00	 push	 OFFSET FLAT:??_C@_0BH@NILKABO@uspInitializeLEvent?5?$CFd?$AA@
  0000e	51		 push	 ecx
  0000f	e8 00 00 00 00	 call	 ?Execute@CQuery@@QAAHPBDZZ ; CQuery::Execute
  00014	83 c4 0c	 add	 esp, 12			; 0000000cH

; 733  : }

  00017	c3		 ret	 0
?InitializeLEvent@CLController@@QAEHXZ ENDP		; CLController::InitializeLEvent
_TEXT	ENDS
PUBLIC	?UpdateLordSkillTick@CLController@@QAEHPAVCLordSkillComponent@@H@Z ; CLController::UpdateLordSkillTick
PUBLIC	??_C@_0BM@PHMEBJEL@uspLordSkillTick?5?$CFd?0?5?$CFd?0?5?$CFd?$AA@ ; `string'
;	COMDAT ??_C@_0BM@PHMEBJEL@uspLordSkillTick?5?$CFd?0?5?$CFd?0?5?$CFd?$AA@
; File c:\documents and settings\test\mes documents\source\virtuos_v17\build\program\databaseserver\dbcontroller.h
CONST	SEGMENT
??_C@_0BM@PHMEBJEL@uspLordSkillTick?5?$CFd?0?5?$CFd?0?5?$CFd?$AA@ DB 'usp'
	DB	'LordSkillTick %d, %d, %d', 00H		; `string'
; Function compile flags: /Ogty
; File c:\documents and settings\test\mes documents\source\virtuos_v17\build\program\databaseserver\tlord.cpp
CONST	ENDS
;	COMDAT ?UpdateLordSkillTick@CLController@@QAEHPAVCLordSkillComponent@@H@Z
_TEXT	SEGMENT
_pSkill$ = 8						; size = 4
_nTick$ = 12						; size = 4
?UpdateLordSkillTick@CLController@@QAEHPAVCLordSkillComponent@@H@Z PROC NEAR ; CLController::UpdateLordSkillTick, COMDAT
; _this$ = ecx

; 737  : 	return GetQueryObject()->Execute( "uspLordSkillTick %d, %d, %d", g_appInfo.dwSys, pSkill->GetId(), nTick );

  00000	8b 54 24 08	 mov	 edx, DWORD PTR _nTick$[esp-4]
  00004	8b 44 24 04	 mov	 eax, DWORD PTR _pSkill$[esp-4]
  00008	8b 40 04	 mov	 eax, DWORD PTR [eax+4]
  0000b	8b 49 0c	 mov	 ecx, DWORD PTR [ecx+12]
  0000e	52		 push	 edx
  0000f	50		 push	 eax
  00010	a1 00 00 00 00	 mov	 eax, DWORD PTR ?g_appInfo@@3UAppInfo@@A
  00015	50		 push	 eax
  00016	68 00 00 00 00	 push	 OFFSET FLAT:??_C@_0BM@PHMEBJEL@uspLordSkillTick?5?$CFd?0?5?$CFd?0?5?$CFd?$AA@
  0001b	51		 push	 ecx
  0001c	e8 00 00 00 00	 call	 ?Execute@CQuery@@QAAHPBDZZ ; CQuery::Execute
  00021	83 c4 14	 add	 esp, 20			; 00000014H

; 738  : }

  00024	c2 08 00	 ret	 8
?UpdateLordSkillTick@CLController@@QAEHPAVCLordSkillComponent@@H@Z ENDP ; CLController::UpdateLordSkillTick
_TEXT	ENDS
PUBLIC	?UpdateLordEventTick@CLController@@QAEHPAVCLEComponent@@@Z ; CLController::UpdateLordEventTick
PUBLIC	??_C@_0BM@INGAOOO@uspLordEventTick?5?$CFd?0?5?$CFd?0?5?$CFd?$AA@ ; `string'
;	COMDAT ??_C@_0BM@INGAOOO@uspLordEventTick?5?$CFd?0?5?$CFd?0?5?$CFd?$AA@
; File c:\documents and settings\test\mes documents\source\virtuos_v17\build\program\databaseserver\dbcontroller.h
CONST	SEGMENT
??_C@_0BM@INGAOOO@uspLordEventTick?5?$CFd?0?5?$CFd?0?5?$CFd?$AA@ DB 'uspL'
	DB	'ordEventTick %d, %d, %d', 00H		; `string'
; Function compile flags: /Ogty
; File c:\documents and settings\test\mes documents\source\virtuos_v17\build\program\databaseserver\tlord.cpp
CONST	ENDS
;	COMDAT ?UpdateLordEventTick@CLController@@QAEHPAVCLEComponent@@@Z
_TEXT	SEGMENT
_pComponent$ = 8					; size = 4
?UpdateLordEventTick@CLController@@QAEHPAVCLEComponent@@@Z PROC NEAR ; CLController::UpdateLordEventTick, COMDAT
; _this$ = ecx

; 742  : 	return GetQueryObject()->Execute( "uspLordEventTick %d, %d, %d", g_appInfo.dwSys, pComponent->GetIdPlayer(), pComponent->GetTick() );

  00000	8b 44 24 04	 mov	 eax, DWORD PTR _pComponent$[esp-4]
  00004	8b 50 04	 mov	 edx, DWORD PTR [eax+4]
  00007	8b 40 08	 mov	 eax, DWORD PTR [eax+8]
  0000a	8b 49 0c	 mov	 ecx, DWORD PTR [ecx+12]
  0000d	52		 push	 edx
  0000e	50		 push	 eax
  0000f	a1 00 00 00 00	 mov	 eax, DWORD PTR ?g_appInfo@@3UAppInfo@@A
  00014	50		 push	 eax
  00015	68 00 00 00 00	 push	 OFFSET FLAT:??_C@_0BM@INGAOOO@uspLordEventTick?5?$CFd?0?5?$CFd?0?5?$CFd?$AA@
  0001a	51		 push	 ecx
  0001b	e8 00 00 00 00	 call	 ?Execute@CQuery@@QAAHPBDZZ ; CQuery::Execute
  00020	83 c4 14	 add	 esp, 20			; 00000014H

; 743  : }

  00023	c2 04 00	 ret	 4
?UpdateLordEventTick@CLController@@QAEHPAVCLEComponent@@@Z ENDP ; CLController::UpdateLordEventTick
_TEXT	ENDS
PUBLIC	??0CTLordSkill@@QAE@PAVCLord@@@Z		; CTLordSkill::CTLordSkill
PUBLIC	?CreateSkillComponent@CTLordSkill@@UAEPAVCLordSkillComponentExecutable@@H@Z ; CTLordSkill::CreateSkillComponent
PUBLIC	??_7CTLordSkill@@6B@				; CTLordSkill::`vftable'
PUBLIC	??_GCTLordSkill@@UAEPAXI@Z			; CTLordSkill::`scalar deleting destructor'
EXTRN	??_ECTLordSkill@@UAEPAXI@Z:NEAR			; CTLordSkill::`vector deleting destructor'
EXTRN	??0CLordSkill@@QAE@PAVCLord@@@Z:NEAR		; CLordSkill::CLordSkill
;	COMDAT ??_7CTLordSkill@@6B@
CONST	SEGMENT
??_7CTLordSkill@@6B@ DD FLAT:??_ECTLordSkill@@UAEPAXI@Z	; CTLordSkill::`vftable'
	DD	FLAT:?CreateSkillComponent@CTLordSkill@@UAEPAVCLordSkillComponentExecutable@@H@Z
; Function compile flags: /Ogty
CONST	ENDS
;	COMDAT ??0CTLordSkill@@QAE@PAVCLord@@@Z
_TEXT	SEGMENT
_pLord$ = 8						; size = 4
??0CTLordSkill@@QAE@PAVCLord@@@Z PROC NEAR		; CTLordSkill::CTLordSkill, COMDAT
; _this$ = ecx

; 748  : {

  00000	8b 44 24 04	 mov	 eax, DWORD PTR _pLord$[esp-4]
  00004	56		 push	 esi
  00005	50		 push	 eax
  00006	8b f1		 mov	 esi, ecx
  00008	e8 00 00 00 00	 call	 ??0CLordSkill@@QAE@PAVCLord@@@Z ; CLordSkill::CLordSkill
  0000d	c7 06 00 00 00
	00		 mov	 DWORD PTR [esi], OFFSET FLAT:??_7CTLordSkill@@6B@

; 749  : }

  00013	8b c6		 mov	 eax, esi
  00015	5e		 pop	 esi
  00016	c2 04 00	 ret	 4
??0CTLordSkill@@QAE@PAVCLord@@@Z ENDP			; CTLordSkill::CTLordSkill
_TEXT	ENDS
PUBLIC	??1CTLordSkill@@UAE@XZ				; CTLordSkill::~CTLordSkill
EXTRN	??1CLordSkill@@UAE@XZ:NEAR			; CLordSkill::~CLordSkill
; Function compile flags: /Ogty
;	COMDAT ??1CTLordSkill@@UAE@XZ
_TEXT	SEGMENT
??1CTLordSkill@@UAE@XZ PROC NEAR			; CTLordSkill::~CTLordSkill, COMDAT
; _this$ = ecx

; 752  : {

  00000	c7 01 00 00 00
	00		 mov	 DWORD PTR [ecx], OFFSET FLAT:??_7CTLordSkill@@6B@

; 753  : }

  00006	e9 00 00 00 00	 jmp	 ??1CLordSkill@@UAE@XZ	; CLordSkill::~CLordSkill
??1CTLordSkill@@UAE@XZ ENDP				; CTLordSkill::~CTLordSkill
_TEXT	ENDS
EXTRN	??0CLordSkillComponentODBC@@QAE@XZ:NEAR		; CLordSkillComponentODBC::CLordSkillComponentODBC
;	COMDAT xdata$x
xdata$x	SEGMENT
$T206689 DD	0ffffffffH
	DD	FLAT:$L206685
$T206687 DD	019930520H
	DD	01H
	DD	FLAT:$T206689
	DD	2 DUP(00H)
	DD	2 DUP(00H)
; Function compile flags: /Ogty
xdata$x	ENDS
;	COMDAT ?CreateSkillComponent@CTLordSkill@@UAEPAVCLordSkillComponentExecutable@@H@Z
_TEXT	SEGMENT
$T206682 = -16						; size = 4
__$EHRec$ = -12						; size = 12
_nType$ = 8						; size = 4
?CreateSkillComponent@CTLordSkill@@UAEPAVCLordSkillComponentExecutable@@H@Z PROC NEAR ; CTLordSkill::CreateSkillComponent, COMDAT
; _this$ = ecx

; 756  : {	//     

  00000	6a ff		 push	 -1
  00002	68 00 00 00 00	 push	 __ehhandler$?CreateSkillComponent@CTLordSkill@@UAEPAVCLordSkillComponentExecutable@@H@Z
  00007	64 a1 00 00 00
	00		 mov	 eax, DWORD PTR fs:__except_list
  0000d	50		 push	 eax
  0000e	64 89 25 00 00
	00 00		 mov	 DWORD PTR fs:__except_list, esp
  00015	51		 push	 ecx

; 757  : 	// CLordSkillComponentODBC
; 758  : 	return new CLordSkillComponentODBC;

  00016	68 fc 00 00 00	 push	 252			; 000000fcH
  0001b	e8 00 00 00 00	 call	 ??2@YAPAXI@Z		; operator new
  00020	83 c4 04	 add	 esp, 4
  00023	89 04 24	 mov	 DWORD PTR $T206682[esp+16], eax
  00026	85 c0		 test	 eax, eax
  00028	c7 44 24 0c 00
	00 00 00	 mov	 DWORD PTR __$EHRec$[esp+24], 0
  00030	74 18		 je	 SHORT $L206683
  00032	8b c8		 mov	 ecx, eax
  00034	e8 00 00 00 00	 call	 ??0CLordSkillComponentODBC@@QAE@XZ ; CLordSkillComponentODBC::CLordSkillComponentODBC

; 759  : }

  00039	8b 4c 24 04	 mov	 ecx, DWORD PTR __$EHRec$[esp+16]
  0003d	64 89 0d 00 00
	00 00		 mov	 DWORD PTR fs:__except_list, ecx
  00044	83 c4 10	 add	 esp, 16			; 00000010H
  00047	c2 04 00	 ret	 4
$L206683:
  0004a	8b 4c 24 04	 mov	 ecx, DWORD PTR __$EHRec$[esp+16]
  0004e	33 c0		 xor	 eax, eax
  00050	64 89 0d 00 00
	00 00		 mov	 DWORD PTR fs:__except_list, ecx
  00057	83 c4 10	 add	 esp, 16			; 00000010H
  0005a	c2 04 00	 ret	 4
_TEXT	ENDS
;	COMDAT text$x
text$x	SEGMENT
$L206685:
  00000	8b 45 f0	 mov	 eax, DWORD PTR $T206682[ebp]
  00003	50		 push	 eax
  00004	e8 00 00 00 00	 call	 ??3@YAXPAX@Z		; operator delete
  00009	59		 pop	 ecx
  0000a	c3		 ret	 0
__ehhandler$?CreateSkillComponent@CTLordSkill@@UAEPAVCLordSkillComponentExecutable@@H@Z:
  0000b	b8 00 00 00 00	 mov	 eax, OFFSET FLAT:$T206687
  00010	e9 00 00 00 00	 jmp	 ___CxxFrameHandler
text$x	ENDS
?CreateSkillComponent@CTLordSkill@@UAEPAVCLordSkillComponentExecutable@@H@Z ENDP ; CTLordSkill::CreateSkillComponent
PUBLIC	?Restore@CTLordSkill@@QAEHPAVCQuery@@@Z		; CTLordSkill::Restore
PUBLIC	??_C@_0BH@OCAHAJDB@uspRestoreLordSkill?5?$CFd?$AA@ ; `string'
PUBLIC	??_C@_06BDEJIFFK@nSkill?$AA@			; `string'
EXTRN	?GetSkill@CLordSkill@@QAEPAVCLordSkillComponentExecutable@@H@Z:NEAR ; CLordSkill::GetSkill
;	COMDAT ??_C@_0BH@OCAHAJDB@uspRestoreLordSkill?5?$CFd?$AA@
; File c:\documents and settings\test\mes documents\source\virtuos_v17\build\program\_common\lordskill.h
CONST	SEGMENT
??_C@_0BH@OCAHAJDB@uspRestoreLordSkill?5?$CFd?$AA@ DB 'uspRestoreLordSkil'
	DB	'l %d', 00H					; `string'
CONST	ENDS
;	COMDAT ??_C@_06BDEJIFFK@nSkill?$AA@
CONST	SEGMENT
??_C@_06BDEJIFFK@nSkill?$AA@ DB 'nSkill', 00H		; `string'
; Function compile flags: /Ogty
; File c:\documents and settings\test\mes documents\source\virtuos_v17\build\program\databaseserver\tlord.cpp
CONST	ENDS
;	COMDAT ?Restore@CTLordSkill@@QAEHPAVCQuery@@@Z
_TEXT	SEGMENT
_pQuery$ = 8						; size = 4
?Restore@CTLordSkill@@QAEHPAVCQuery@@@Z PROC NEAR	; CTLordSkill::Restore, COMDAT
; _this$ = ecx

; 763  : 	if( !pQuery->Execute( "uspRestoreLordSkill %d", g_appInfo.dwSys ) )

  00000	a1 00 00 00 00	 mov	 eax, DWORD PTR ?g_appInfo@@3UAppInfo@@A
  00005	53		 push	 ebx
  00006	56		 push	 esi
  00007	8b 74 24 0c	 mov	 esi, DWORD PTR _pQuery$[esp+4]
  0000b	50		 push	 eax
  0000c	68 00 00 00 00	 push	 OFFSET FLAT:??_C@_0BH@OCAHAJDB@uspRestoreLordSkill?5?$CFd?$AA@
  00011	56		 push	 esi
  00012	8b d9		 mov	 ebx, ecx
  00014	e8 00 00 00 00	 call	 ?Execute@CQuery@@QAAHPBDZZ ; CQuery::Execute
  00019	83 c4 0c	 add	 esp, 12			; 0000000cH
  0001c	85 c0		 test	 eax, eax
  0001e	75 05		 jne	 SHORT $L206698
  00020	5e		 pop	 esi
  00021	5b		 pop	 ebx

; 771  : }

  00022	c2 04 00	 ret	 4
$L206698:

; 764  : 		return FALSE;
; 765  : 	while( pQuery->Fetch() )

  00025	8b ce		 mov	 ecx, esi
  00027	e8 00 00 00 00	 call	 ?Fetch@CQuery@@QAEHXZ	; CQuery::Fetch
  0002c	85 c0		 test	 eax, eax
  0002e	74 32		 je	 SHORT $L204455
  00030	57		 push	 edi
$L204454:

; 766  : 	{
; 767  : 			CLordSkillComponent* pComponent	= GetSkill( pQuery->GetInt( "nSkill" ) );

  00031	68 00 00 00 00	 push	 OFFSET FLAT:??_C@_06BDEJIFFK@nSkill?$AA@
  00036	8b ce		 mov	 ecx, esi
  00038	e8 00 00 00 00	 call	 ?GetInt@CQuery@@QAEHPAD@Z ; CQuery::GetInt
  0003d	50		 push	 eax
  0003e	8b cb		 mov	 ecx, ebx
  00040	e8 00 00 00 00	 call	 ?GetSkill@CLordSkill@@QAEPAVCLordSkillComponentExecutable@@H@Z ; CLordSkill::GetSkill

; 768  : 			pComponent->SetTick( pQuery->GetInt( "nTick" ) );

  00045	68 00 00 00 00	 push	 OFFSET FLAT:??_C@_05DLOGCGOB@nTick?$AA@
  0004a	8b ce		 mov	 ecx, esi
  0004c	8b f8		 mov	 edi, eax
  0004e	e8 00 00 00 00	 call	 ?GetInt@CQuery@@QAEHPAD@Z ; CQuery::GetInt
  00053	8b ce		 mov	 ecx, esi
  00055	89 47 0c	 mov	 DWORD PTR [edi+12], eax
  00058	e8 00 00 00 00	 call	 ?Fetch@CQuery@@QAEHXZ	; CQuery::Fetch
  0005d	85 c0		 test	 eax, eax
  0005f	75 d0		 jne	 SHORT $L204454
  00061	5f		 pop	 edi
$L204455:
  00062	5e		 pop	 esi

; 769  : 	}
; 770  : 	return TRUE;

  00063	b8 01 00 00 00	 mov	 eax, 1
  00068	5b		 pop	 ebx

; 771  : }

  00069	c2 04 00	 ret	 4
?Restore@CTLordSkill@@QAEHPAVCQuery@@@Z ENDP		; CTLordSkill::Restore
_TEXT	ENDS
PUBLIC	??0CTime@ATL@@QAE@_J@Z				; ATL::CTime::CTime
; Function compile flags: /Ogty
; File c:\program files\microsoft visual studio .net 2003\vc7\atlmfc\include\atltime.inl
;	COMDAT ??0CTime@ATL@@QAE@_J@Z
_TEXT	SEGMENT
_time$ = 8						; size = 8
??0CTime@ATL@@QAE@_J@Z PROC NEAR			; ATL::CTime::CTime, COMDAT
; _this$ = ecx

; 167  : {

  00000	8b 54 24 08	 mov	 edx, DWORD PTR _time$[esp]
  00004	8b c1		 mov	 eax, ecx
  00006	8b 4c 24 04	 mov	 ecx, DWORD PTR _time$[esp-4]
  0000a	89 08		 mov	 DWORD PTR [eax], ecx
  0000c	89 50 04	 mov	 DWORD PTR [eax+4], edx

; 168  : }

  0000f	c2 08 00	 ret	 8
??0CTime@ATL@@QAE@_J@Z ENDP				; ATL::CTime::CTime
_TEXT	ENDS
PUBLIC	??0CTime@ATL@@QAE@HHHHHHH@Z			; ATL::CTime::CTime
EXTRN	__mktime64:NEAR
; Function compile flags: /Ogty
;	COMDAT ??0CTime@ATL@@QAE@HHHHHHH@Z
_TEXT	SEGMENT
_atm$ = -36						; size = 36
_nYear$ = 8						; size = 4
_nMonth$ = 12						; size = 4
_nDay$ = 16						; size = 4
_nHour$ = 20						; size = 4
_nMin$ = 24						; size = 4
_nSec$ = 28						; size = 4
_nDST$ = 32						; size = 4
??0CTime@ATL@@QAE@HHHHHHH@Z PROC NEAR			; ATL::CTime::CTime, COMDAT
; _this$ = ecx

; 172  : {

  00000	83 ec 24	 sub	 esp, 36			; 00000024H

; 173  : 	struct tm atm;
; 174  : 	atm.tm_sec = nSec;

  00003	8b 44 24 3c	 mov	 eax, DWORD PTR _nSec$[esp+32]

; 175  : 	atm.tm_min = nMin;
; 176  : 	atm.tm_hour = nHour;

  00007	8b 54 24 34	 mov	 edx, DWORD PTR _nHour$[esp+32]
  0000b	56		 push	 esi
  0000c	8b f1		 mov	 esi, ecx
  0000e	8b 4c 24 3c	 mov	 ecx, DWORD PTR _nMin$[esp+36]
  00012	89 4c 24 08	 mov	 DWORD PTR _atm$[esp+44], ecx

; 177  : 	ATLASSERT(nDay >= 1 && nDay <= 31);
; 178  : 	atm.tm_mday = nDay;
; 179  : 	ATLASSERT(nMonth >= 1 && nMonth <= 12);
; 180  : 	atm.tm_mon = nMonth - 1;        // tm_mon is 0 based

  00016	8b 4c 24 30	 mov	 ecx, DWORD PTR _nMonth$[esp+36]
  0001a	89 44 24 04	 mov	 DWORD PTR _atm$[esp+40], eax
  0001e	8b 44 24 34	 mov	 eax, DWORD PTR _nDay$[esp+36]
  00022	49		 dec	 ecx
  00023	89 54 24 0c	 mov	 DWORD PTR _atm$[esp+48], edx

; 181  : 	ATLASSERT(nYear >= 1900);
; 182  : 	atm.tm_year = nYear - 1900;     // tm_year is 1900 based

  00027	8b 54 24 2c	 mov	 edx, DWORD PTR _nYear$[esp+36]
  0002b	89 4c 24 14	 mov	 DWORD PTR _atm$[esp+56], ecx
  0002f	89 44 24 10	 mov	 DWORD PTR _atm$[esp+52], eax

; 183  : 	atm.tm_isdst = nDST;

  00033	8b 44 24 44	 mov	 eax, DWORD PTR _nDST$[esp+36]

; 184  : 	m_time = _mktime64(&atm);

  00037	8d 4c 24 04	 lea	 ecx, DWORD PTR _atm$[esp+40]
  0003b	81 c2 94 f8 ff
	ff		 add	 edx, -1900		; fffff894H
  00041	51		 push	 ecx
  00042	89 54 24 1c	 mov	 DWORD PTR _atm$[esp+64], edx
  00046	89 44 24 28	 mov	 DWORD PTR _atm$[esp+76], eax
  0004a	e8 00 00 00 00	 call	 __mktime64
  0004f	89 56 04	 mov	 DWORD PTR [esi+4], edx

; 185  : 	ATLASSERT(m_time != -1);       // indicates an illegal input time
; 186  : 	
; 187  : 	if(m_time == -1)

  00052	8b 4e 04	 mov	 ecx, DWORD PTR [esi+4]
  00055	8b d0		 mov	 edx, eax
  00057	23 d1		 and	 edx, ecx
  00059	83 c4 04	 add	 esp, 4
  0005c	83 fa ff	 cmp	 edx, -1
  0005f	89 06		 mov	 DWORD PTR [esi], eax
  00061	75 0a		 jne	 SHORT $L42610

; 188  : 		AtlThrow(E_INVALIDARG);

  00063	68 57 00 07 80	 push	 -2147024809		; 80070057H
  00068	e8 00 00 00 00	 call	 ?AtlThrow@ATL@@YGXJ@Z	; ATL::AtlThrow
$L42610:

; 189  : }

  0006d	8b c6		 mov	 eax, esi
  0006f	5e		 pop	 esi
  00070	83 c4 24	 add	 esp, 36			; 00000024H
  00073	c2 1c 00	 ret	 28			; 0000001cH
$L206703:
??0CTime@ATL@@QAE@HHHHHHH@Z ENDP			; ATL::CTime::CTime
_TEXT	ENDS
PUBLIC	?GetTime@CTime@ATL@@QBE_JXZ			; ATL::CTime::GetTime
; Function compile flags: /Ogty
;	COMDAT ?GetTime@CTime@ATL@@QBE_JXZ
_TEXT	SEGMENT
?GetTime@CTime@ATL@@QBE_JXZ PROC NEAR			; ATL::CTime::GetTime, COMDAT
; _this$ = ecx

; 372  : 	return( m_time );

  00000	8b 01		 mov	 eax, DWORD PTR [ecx]
  00002	8b 51 04	 mov	 edx, DWORD PTR [ecx+4]

; 373  : }

  00005	c3		 ret	 0
?GetTime@CTime@ATL@@QBE_JXZ ENDP			; ATL::CTime::GetTime
_TEXT	ENDS
PUBLIC	??C?$shared_ptr@VCCandidate@@@boost@@QBEPAVCCandidate@@XZ ; boost::shared_ptr<CCandidate>::operator->
; Function compile flags: /Ogty
; File c:\documents and settings\test\mes documents\source\virtuos_v17\build\program\boost_sdk\boost\shared_ptr.hpp
;	COMDAT ??C?$shared_ptr@VCCandidate@@@boost@@QBEPAVCCandidate@@XZ
_TEXT	SEGMENT
??C?$shared_ptr@VCCandidate@@@boost@@QBEPAVCCandidate@@XZ PROC NEAR ; boost::shared_ptr<CCandidate>::operator->, COMDAT
; _this$ = ecx

; 315  :         BOOST_ASSERT(px != 0);
; 316  :         return px;

  00000	8b 01		 mov	 eax, DWORD PTR [ecx]

; 317  :     }

  00002	c3		 ret	 0
??C?$shared_ptr@VCCandidate@@@boost@@QBEPAVCCandidate@@XZ ENDP ; boost::shared_ptr<CCandidate>::operator->
_TEXT	ENDS
PUBLIC	??Eiterator@?$vector@HV?$allocator@H@std@@@std@@QAEAAV012@XZ ; std::vector<int,std::allocator<int> >::iterator::operator++
; Function compile flags: /Ogty
; File c:\program files\microsoft visual studio .net 2003\vc7\include\vector
;	COMDAT ??Eiterator@?$vector@HV?$allocator@H@std@@@std@@QAEAAV012@XZ
_TEXT	SEGMENT
??Eiterator@?$vector@HV?$allocator@H@std@@@std@@QAEAAV012@XZ PROC NEAR ; std::vector<int,std::allocator<int> >::iterator::operator++, COMDAT
; _this$ = ecx

; 229  : 			{	// preincrement

  00000	8b c1		 mov	 eax, ecx

; 230  : 			++this->_Myptr;

  00002	83 00 04	 add	 DWORD PTR [eax], 4

; 231  : 			return (*this);
; 232  : 			}

  00005	c3		 ret	 0
??Eiterator@?$vector@HV?$allocator@H@std@@@std@@QAEAAV012@XZ ENDP ; std::vector<int,std::allocator<int> >::iterator::operator++
_TEXT	ENDS
PUBLIC	??Eiterator@?$vector@PAVCLEComponent@@V?$allocator@PAVCLEComponent@@@std@@@std@@QAEAAV012@XZ ; std::vector<CLEComponent *,std::allocator<CLEComponent *> >::iterator::operator++
; Function compile flags: /Ogty
;	COMDAT ??Eiterator@?$vector@PAVCLEComponent@@V?$allocator@PAVCLEComponent@@@std@@@std@@QAEAAV012@XZ
_TEXT	SEGMENT
??Eiterator@?$vector@PAVCLEComponent@@V?$allocator@PAVCLEComponent@@@std@@@std@@QAEAAV012@XZ PROC NEAR ; std::vector<CLEComponent *,std::allocator<CLEComponent *> >::iterator::operator++, COMDAT
; _this$ = ecx

; 229  : 			{	// preincrement

  00000	8b c1		 mov	 eax, ecx

; 230  : 			++this->_Myptr;

  00002	83 00 04	 add	 DWORD PTR [eax], 4

; 231  : 			return (*this);
; 232  : 			}

  00005	c3		 ret	 0
??Eiterator@?$vector@PAVCLEComponent@@V?$allocator@PAVCLEComponent@@@std@@@std@@QAEAAV012@XZ ENDP ; std::vector<CLEComponent *,std::allocator<CLEComponent *> >::iterator::operator++
_TEXT	ENDS
PUBLIC	??Eiterator@?$vector@PAVCLordSkillComponentExecutable@@V?$allocator@PAVCLordSkillComponentExecutable@@@std@@@std@@QAEAAV012@XZ ; std::vector<CLordSkillComponentExecutable *,std::allocator<CLordSkillComponentExecutable *> >::iterator::operator++
; Function compile flags: /Ogty
;	COMDAT ??Eiterator@?$vector@PAVCLordSkillComponentExecutable@@V?$allocator@PAVCLordSkillComponentExecutable@@@std@@@std@@QAEAAV012@XZ
_TEXT	SEGMENT
??Eiterator@?$vector@PAVCLordSkillComponentExecutable@@V?$allocator@PAVCLordSkillComponentExecutable@@@std@@@std@@QAEAAV012@XZ PROC NEAR ; std::vector<CLordSkillComponentExecutable *,std::allocator<CLordSkillComponentExecutable *> >::iterator::operator++, COMDAT
; _this$ = ecx

; 229  : 			{	// preincrement

  00000	8b c1		 mov	 eax, ecx

; 230  : 			++this->_Myptr;

  00002	83 00 04	 add	 DWORD PTR [eax], 4

; 231  : 			return (*this);
; 232  : 			}

  00005	c3		 ret	 0
??Eiterator@?$vector@PAVCLordSkillComponentExecutable@@V?$allocator@PAVCLordSkillComponentExecutable@@@std@@@std@@QAEAAV012@XZ ENDP ; std::vector<CLordSkillComponentExecutable *,std::allocator<CLordSkillComponentExecutable *> >::iterator::operator++
_TEXT	ENDS
PUBLIC	?capacity@?$vector@MV?$allocator@M@std@@@std@@QBEIXZ ; std::vector<float,std::allocator<float> >::capacity
; Function compile flags: /Ogty
;	COMDAT ?capacity@?$vector@MV?$allocator@M@std@@@std@@QBEIXZ
_TEXT	SEGMENT
?capacity@?$vector@MV?$allocator@M@std@@@std@@QBEIXZ PROC NEAR ; std::vector<float,std::allocator<float> >::capacity, COMDAT
; _this$ = ecx

; 458  : 		return (_Myfirst == 0 ? 0 : _Myend - _Myfirst);

  00000	8b 51 04	 mov	 edx, DWORD PTR [ecx+4]
  00003	85 d2		 test	 edx, edx
  00005	75 03		 jne	 SHORT $L206716
  00007	33 c0		 xor	 eax, eax

; 459  : 		}

  00009	c3		 ret	 0
$L206716:

; 458  : 		return (_Myfirst == 0 ? 0 : _Myend - _Myfirst);

  0000a	8b 41 0c	 mov	 eax, DWORD PTR [ecx+12]
  0000d	2b c2		 sub	 eax, edx
  0000f	c1 f8 02	 sar	 eax, 2

; 459  : 		}

  00012	c3		 ret	 0
?capacity@?$vector@MV?$allocator@M@std@@@std@@QBEIXZ ENDP ; std::vector<float,std::allocator<float> >::capacity
_TEXT	ENDS
PUBLIC	?size@?$vector@MV?$allocator@M@std@@@std@@QBEIXZ ; std::vector<float,std::allocator<float> >::size
; Function compile flags: /Ogty
;	COMDAT ?size@?$vector@MV?$allocator@M@std@@@std@@QBEIXZ
_TEXT	SEGMENT
?size@?$vector@MV?$allocator@M@std@@@std@@QBEIXZ PROC NEAR ; std::vector<float,std::allocator<float> >::size, COMDAT
; _this$ = ecx

; 516  : 		return (_Myfirst == 0 ? 0 : _Mylast - _Myfirst);

  00000	8b 51 04	 mov	 edx, DWORD PTR [ecx+4]
  00003	85 d2		 test	 edx, edx
  00005	75 03		 jne	 SHORT $L206720
  00007	33 c0		 xor	 eax, eax

; 517  : 		}

  00009	c3		 ret	 0
$L206720:

; 516  : 		return (_Myfirst == 0 ? 0 : _Mylast - _Myfirst);

  0000a	8b 41 08	 mov	 eax, DWORD PTR [ecx+8]
  0000d	2b c2		 sub	 eax, edx
  0000f	c1 f8 02	 sar	 eax, 2

; 517  : 		}

  00012	c3		 ret	 0
?size@?$vector@MV?$allocator@M@std@@@std@@QBEIXZ ENDP	; std::vector<float,std::allocator<float> >::size
_TEXT	ENDS
PUBLIC	?capacity@?$vector@HV?$allocator@H@std@@@std@@QBEIXZ ; std::vector<int,std::allocator<int> >::capacity
; Function compile flags: /Ogty
;	COMDAT ?capacity@?$vector@HV?$allocator@H@std@@@std@@QBEIXZ
_TEXT	SEGMENT
?capacity@?$vector@HV?$allocator@H@std@@@std@@QBEIXZ PROC NEAR ; std::vector<int,std::allocator<int> >::capacity, COMDAT
; _this$ = ecx

; 458  : 		return (_Myfirst == 0 ? 0 : _Myend - _Myfirst);

  00000	8b 51 04	 mov	 edx, DWORD PTR [ecx+4]
  00003	85 d2		 test	 edx, edx
  00005	75 03		 jne	 SHORT $L206724
  00007	33 c0		 xor	 eax, eax

; 459  : 		}

  00009	c3		 ret	 0
$L206724:

; 458  : 		return (_Myfirst == 0 ? 0 : _Myend - _Myfirst);

  0000a	8b 41 0c	 mov	 eax, DWORD PTR [ecx+12]
  0000d	2b c2		 sub	 eax, edx
  0000f	c1 f8 02	 sar	 eax, 2

; 459  : 		}

  00012	c3		 ret	 0
?capacity@?$vector@HV?$allocator@H@std@@@std@@QBEIXZ ENDP ; std::vector<int,std::allocator<int> >::capacity
_TEXT	ENDS
PUBLIC	?size@?$vector@HV?$allocator@H@std@@@std@@QBEIXZ ; std::vector<int,std::allocator<int> >::size
; Function compile flags: /Ogty
;	COMDAT ?size@?$vector@HV?$allocator@H@std@@@std@@QBEIXZ
_TEXT	SEGMENT
?size@?$vector@HV?$allocator@H@std@@@std@@QBEIXZ PROC NEAR ; std::vector<int,std::allocator<int> >::size, COMDAT
; _this$ = ecx

; 516  : 		return (_Myfirst == 0 ? 0 : _Mylast - _Myfirst);

  00000	8b 51 04	 mov	 edx, DWORD PTR [ecx+4]
  00003	85 d2		 test	 edx, edx
  00005	75 03		 jne	 SHORT $L206728
  00007	33 c0		 xor	 eax, eax

; 517  : 		}

  00009	c3		 ret	 0
$L206728:

; 516  : 		return (_Myfirst == 0 ? 0 : _Mylast - _Myfirst);

  0000a	8b 41 08	 mov	 eax, DWORD PTR [ecx+8]
  0000d	2b c2		 sub	 eax, edx
  0000f	c1 f8 02	 sar	 eax, 2

; 517  : 		}

  00012	c3		 ret	 0
?size@?$vector@HV?$allocator@H@std@@@std@@QBEIXZ ENDP	; std::vector<int,std::allocator<int> >::size
_TEXT	ENDS
PUBLIC	??Yiterator@?$vector@V?$shared_ptr@VCCandidate@@@boost@@V?$allocator@V?$shared_ptr@VCCandidate@@@boost@@@std@@@std@@QAEAAV012@H@Z ; std::vector<boost::shared_ptr<CCandidate>,std::allocator<boost::shared_ptr<CCandidate> > >::iterator::operator+=
; Function compile flags: /Ogty
;	COMDAT ??Yiterator@?$vector@V?$shared_ptr@VCCandidate@@@boost@@V?$allocator@V?$shared_ptr@VCCandidate@@@boost@@@std@@@std@@QAEAAV012@H@Z
_TEXT	SEGMENT
__Off$ = 8						; size = 4
??Yiterator@?$vector@V?$shared_ptr@VCCandidate@@@boost@@V?$allocator@V?$shared_ptr@VCCandidate@@@boost@@@std@@@std@@QAEAAV012@H@Z PROC NEAR ; std::vector<boost::shared_ptr<CCandidate>,std::allocator<boost::shared_ptr<CCandidate> > >::iterator::operator+=, COMDAT
; _this$ = ecx

; 255  : 			{	// increment by integer

  00000	8b c1		 mov	 eax, ecx

; 256  : 			this->_Myptr += _Off;

  00002	8b 4c 24 04	 mov	 ecx, DWORD PTR __Off$[esp-4]
  00006	8d 14 cd 00 00
	00 00		 lea	 edx, DWORD PTR [ecx*8]
  0000d	01 10		 add	 DWORD PTR [eax], edx

; 257  : 			return (*this);
; 258  : 			}

  0000f	c2 04 00	 ret	 4
??Yiterator@?$vector@V?$shared_ptr@VCCandidate@@@boost@@V?$allocator@V?$shared_ptr@VCCandidate@@@boost@@@std@@@std@@QAEAAV012@H@Z ENDP ; std::vector<boost::shared_ptr<CCandidate>,std::allocator<boost::shared_ptr<CCandidate> > >::iterator::operator+=
_TEXT	ENDS
PUBLIC	??Dconst_iterator@?$vector@HV?$allocator@H@std@@@std@@QBEABHXZ ; std::vector<int,std::allocator<int> >::const_iterator::operator*
; Function compile flags: /Ogty
;	COMDAT ??Dconst_iterator@?$vector@HV?$allocator@H@std@@@std@@QBEABHXZ
_TEXT	SEGMENT
??Dconst_iterator@?$vector@HV?$allocator@H@std@@@std@@QBEABHXZ PROC NEAR ; std::vector<int,std::allocator<int> >::const_iterator::operator*, COMDAT
; _this$ = ecx

; 80   : 
; 81   : 
; 82   : 			return (*_Myptr);

  00000	8b 01		 mov	 eax, DWORD PTR [ecx]

; 83   : 			}

  00002	c3		 ret	 0
??Dconst_iterator@?$vector@HV?$allocator@H@std@@@std@@QBEABHXZ ENDP ; std::vector<int,std::allocator<int> >::const_iterator::operator*
_TEXT	ENDS
PUBLIC	??8const_iterator@?$vector@HV?$allocator@H@std@@@std@@QBE_NABV012@@Z ; std::vector<int,std::allocator<int> >::const_iterator::operator==
; Function compile flags: /Ogty
;	COMDAT ??8const_iterator@?$vector@HV?$allocator@H@std@@@std@@QBE_NABV012@@Z
_TEXT	SEGMENT
__Right$ = 8						; size = 4
??8const_iterator@?$vector@HV?$allocator@H@std@@@std@@QBE_NABV012@@Z PROC NEAR ; std::vector<int,std::allocator<int> >::const_iterator::operator==, COMDAT
; _this$ = ecx

; 153  : 
; 154  : 
; 155  : 			return (_Myptr == _Right._Myptr);

  00000	8b 01		 mov	 eax, DWORD PTR [ecx]
  00002	8b 4c 24 04	 mov	 ecx, DWORD PTR __Right$[esp-4]
  00006	2b 01		 sub	 eax, DWORD PTR [ecx]
  00008	f7 d8		 neg	 eax
  0000a	1b c0		 sbb	 eax, eax
  0000c	40		 inc	 eax

; 156  : 			}

  0000d	c2 04 00	 ret	 4
??8const_iterator@?$vector@HV?$allocator@H@std@@@std@@QBE_NABV012@@Z ENDP ; std::vector<int,std::allocator<int> >::const_iterator::operator==
_TEXT	ENDS
PUBLIC	??Dconst_iterator@?$vector@PAVCLEComponent@@V?$allocator@PAVCLEComponent@@@std@@@std@@QBEABQAVCLEComponent@@XZ ; std::vector<CLEComponent *,std::allocator<CLEComponent *> >::const_iterator::operator*
; Function compile flags: /Ogty
;	COMDAT ??Dconst_iterator@?$vector@PAVCLEComponent@@V?$allocator@PAVCLEComponent@@@std@@@std@@QBEABQAVCLEComponent@@XZ
_TEXT	SEGMENT
??Dconst_iterator@?$vector@PAVCLEComponent@@V?$allocator@PAVCLEComponent@@@std@@@std@@QBEABQAVCLEComponent@@XZ PROC NEAR ; std::vector<CLEComponent *,std::allocator<CLEComponent *> >::const_iterator::operator*, COMDAT
; _this$ = ecx

; 80   : 
; 81   : 
; 82   : 			return (*_Myptr);

  00000	8b 01		 mov	 eax, DWORD PTR [ecx]

; 83   : 			}

  00002	c3		 ret	 0
??Dconst_iterator@?$vector@PAVCLEComponent@@V?$allocator@PAVCLEComponent@@@std@@@std@@QBEABQAVCLEComponent@@XZ ENDP ; std::vector<CLEComponent *,std::allocator<CLEComponent *> >::const_iterator::operator*
_TEXT	ENDS
PUBLIC	??8const_iterator@?$vector@PAVCLEComponent@@V?$allocator@PAVCLEComponent@@@std@@@std@@QBE_NABV012@@Z ; std::vector<CLEComponent *,std::allocator<CLEComponent *> >::const_iterator::operator==
; Function compile flags: /Ogty
;	COMDAT ??8const_iterator@?$vector@PAVCLEComponent@@V?$allocator@PAVCLEComponent@@@std@@@std@@QBE_NABV012@@Z
_TEXT	SEGMENT
__Right$ = 8						; size = 4
??8const_iterator@?$vector@PAVCLEComponent@@V?$allocator@PAVCLEComponent@@@std@@@std@@QBE_NABV012@@Z PROC NEAR ; std::vector<CLEComponent *,std::allocator<CLEComponent *> >::const_iterator::operator==, COMDAT
; _this$ = ecx

; 153  : 
; 154  : 
; 155  : 			return (_Myptr == _Right._Myptr);

  00000	8b 01		 mov	 eax, DWORD PTR [ecx]
  00002	8b 4c 24 04	 mov	 ecx, DWORD PTR __Right$[esp-4]
  00006	2b 01		 sub	 eax, DWORD PTR [ecx]
  00008	f7 d8		 neg	 eax
  0000a	1b c0		 sbb	 eax, eax
  0000c	40		 inc	 eax

; 156  : 			}

  0000d	c2 04 00	 ret	 4
??8const_iterator@?$vector@PAVCLEComponent@@V?$allocator@PAVCLEComponent@@@std@@@std@@QBE_NABV012@@Z ENDP ; std::vector<CLEComponent *,std::allocator<CLEComponent *> >::const_iterator::operator==
_TEXT	ENDS
PUBLIC	??Dconst_iterator@?$vector@PAVCLordSkillComponentExecutable@@V?$allocator@PAVCLordSkillComponentExecutable@@@std@@@std@@QBEABQAVCLordSkillComponentExecutable@@XZ ; std::vector<CLordSkillComponentExecutable *,std::allocator<CLordSkillComponentExecutable *> >::const_iterator::operator*
; Function compile flags: /Ogty
;	COMDAT ??Dconst_iterator@?$vector@PAVCLordSkillComponentExecutable@@V?$allocator@PAVCLordSkillComponentExecutable@@@std@@@std@@QBEABQAVCLordSkillComponentExecutable@@XZ
_TEXT	SEGMENT
??Dconst_iterator@?$vector@PAVCLordSkillComponentExecutable@@V?$allocator@PAVCLordSkillComponentExecutable@@@std@@@std@@QBEABQAVCLordSkillComponentExecutable@@XZ PROC NEAR ; std::vector<CLordSkillComponentExecutable *,std::allocator<CLordSkillComponentExecutable *> >::const_iterator::operator*, COMDAT
; _this$ = ecx

; 80   : 
; 81   : 
; 82   : 			return (*_Myptr);

  00000	8b 01		 mov	 eax, DWORD PTR [ecx]

; 83   : 			}

  00002	c3		 ret	 0
??Dconst_iterator@?$vector@PAVCLordSkillComponentExecutable@@V?$allocator@PAVCLordSkillComponentExecutable@@@std@@@std@@QBEABQAVCLordSkillComponentExecutable@@XZ ENDP ; std::vector<CLordSkillComponentExecutable *,std::allocator<CLordSkillComponentExecutable *> >::const_iterator::operator*
_TEXT	ENDS
PUBLIC	??8const_iterator@?$vector@PAVCLordSkillComponentExecutable@@V?$allocator@PAVCLordSkillComponentExecutable@@@std@@@std@@QBE_NABV012@@Z ; std::vector<CLordSkillComponentExecutable *,std::allocator<CLordSkillComponentExecutable *> >::const_iterator::operator==
; Function compile flags: /Ogty
;	COMDAT ??8const_iterator@?$vector@PAVCLordSkillComponentExecutable@@V?$allocator@PAVCLordSkillComponentExecutable@@@std@@@std@@QBE_NABV012@@Z
_TEXT	SEGMENT
__Right$ = 8						; size = 4
??8const_iterator@?$vector@PAVCLordSkillComponentExecutable@@V?$allocator@PAVCLordSkillComponentExecutable@@@std@@@std@@QBE_NABV012@@Z PROC NEAR ; std::vector<CLordSkillComponentExecutable *,std::allocator<CLordSkillComponentExecutable *> >::const_iterator::operator==, COMDAT
; _this$ = ecx

; 153  : 
; 154  : 
; 155  : 			return (_Myptr == _Right._Myptr);

  00000	8b 01		 mov	 eax, DWORD PTR [ecx]
  00002	8b 4c 24 04	 mov	 ecx, DWORD PTR __Right$[esp-4]
  00006	2b 01		 sub	 eax, DWORD PTR [ecx]
  00008	f7 d8		 neg	 eax
  0000a	1b c0		 sbb	 eax, eax
  0000c	40		 inc	 eax

; 156  : 			}

  0000d	c2 04 00	 ret	 4
??8const_iterator@?$vector@PAVCLordSkillComponentExecutable@@V?$allocator@PAVCLordSkillComponentExecutable@@@std@@@std@@QBE_NABV012@@Z ENDP ; std::vector<CLordSkillComponentExecutable *,std::allocator<CLordSkillComponentExecutable *> >::const_iterator::operator==
_TEXT	ENDS
PUBLIC	?StringCompare@?$ChTraitsCRT@D@ATL@@SAHPBD0@Z	; ATL::ChTraitsCRT<char>::StringCompare
EXTRN	__mbscmp:NEAR
; Function compile flags: /Ogty
; File c:\program files\microsoft visual studio .net 2003\vc7\atlmfc\include\cstringt.h
;	COMDAT ?StringCompare@?$ChTraitsCRT@D@ATL@@SAHPBD0@Z
_TEXT	SEGMENT
_pszA$ = 8						; size = 4
_pszB$ = 12						; size = 4
?StringCompare@?$ChTraitsCRT@D@ATL@@SAHPBD0@Z PROC NEAR	; ATL::ChTraitsCRT<char>::StringCompare, COMDAT

; 336  : 		return _mbscmp( reinterpret_cast< const unsigned char* >( pszA ), reinterpret_cast< const unsigned char* >( pszB ) );

  00000	e9 00 00 00 00	 jmp	 __mbscmp
?StringCompare@?$ChTraitsCRT@D@ATL@@SAHPBD0@Z ENDP	; ATL::ChTraitsCRT<char>::StringCompare
_TEXT	ENDS
PUBLIC	?deallocate@?$allocator@H@std@@QAEXPAHI@Z	; std::allocator<int>::deallocate
; Function compile flags: /Ogty
; File c:\program files\microsoft visual studio .net 2003\vc7\include\xmemory
;	COMDAT ?deallocate@?$allocator@H@std@@QAEXPAHI@Z
_TEXT	SEGMENT
__Ptr$ = 8						; size = 4
___formal$ = 12						; size = 4
?deallocate@?$allocator@H@std@@QAEXPAHI@Z PROC NEAR	; std::allocator<int>::deallocate, COMDAT
; _this$ = ecx

; 132  : 		operator delete(_Ptr);

  00000	8b 44 24 04	 mov	 eax, DWORD PTR __Ptr$[esp-4]
  00004	50		 push	 eax
  00005	e8 00 00 00 00	 call	 ??3@YAXPAX@Z		; operator delete
  0000a	59		 pop	 ecx

; 133  : 		}

  0000b	c2 08 00	 ret	 8
?deallocate@?$allocator@H@std@@QAEXPAHI@Z ENDP		; std::allocator<int>::deallocate
_TEXT	ENDS
PUBLIC	?deallocate@?$allocator@M@std@@QAEXPAMI@Z	; std::allocator<float>::deallocate
; Function compile flags: /Ogty
;	COMDAT ?deallocate@?$allocator@M@std@@QAEXPAMI@Z
_TEXT	SEGMENT
__Ptr$ = 8						; size = 4
___formal$ = 12						; size = 4
?deallocate@?$allocator@M@std@@QAEXPAMI@Z PROC NEAR	; std::allocator<float>::deallocate, COMDAT
; _this$ = ecx

; 132  : 		operator delete(_Ptr);

  00000	8b 44 24 04	 mov	 eax, DWORD PTR __Ptr$[esp-4]
  00004	50		 push	 eax
  00005	e8 00 00 00 00	 call	 ??3@YAXPAX@Z		; operator delete
  0000a	59		 pop	 ecx

; 133  : 		}

  0000b	c2 08 00	 ret	 8
?deallocate@?$allocator@M@std@@QAEXPAMI@Z ENDP		; std::allocator<float>::deallocate
_TEXT	ENDS
PUBLIC	??0const_iterator@?$vector@V?$shared_ptr@VCCandidate@@@boost@@V?$allocator@V?$shared_ptr@VCCandidate@@@boost@@@std@@@std@@QAE@PAV?$shared_ptr@VCCandidate@@@boost@@@Z ; std::vector<boost::shared_ptr<CCandidate>,std::allocator<boost::shared_ptr<CCandidate> > >::const_iterator::const_iterator
; Function compile flags: /Ogty
; File c:\program files\microsoft visual studio .net 2003\vc7\include\vector
;	COMDAT ??0const_iterator@?$vector@V?$shared_ptr@VCCandidate@@@boost@@V?$allocator@V?$shared_ptr@VCCandidate@@@boost@@@std@@@std@@QAE@PAV?$shared_ptr@VCCandidate@@@boost@@@Z
_TEXT	SEGMENT
__Ptr$ = 8						; size = 4
??0const_iterator@?$vector@V?$shared_ptr@VCCandidate@@@boost@@V?$allocator@V?$shared_ptr@VCCandidate@@@boost@@@std@@@std@@QAE@PAV?$shared_ptr@VCCandidate@@@boost@@@Z PROC NEAR ; std::vector<boost::shared_ptr<CCandidate>,std::allocator<boost::shared_ptr<CCandidate> > >::const_iterator::const_iterator, COMDAT
; _this$ = ecx

; 73   : 		const_iterator(_Tptr _Ptr)

  00000	8b c1		 mov	 eax, ecx

; 74   : 			{	// construct with pointer _Ptr
; 75   : 			_Myptr = _Ptr;

  00002	8b 4c 24 04	 mov	 ecx, DWORD PTR __Ptr$[esp-4]
  00006	89 08		 mov	 DWORD PTR [eax], ecx

; 76   : 			}

  00008	c2 04 00	 ret	 4
??0const_iterator@?$vector@V?$shared_ptr@VCCandidate@@@boost@@V?$allocator@V?$shared_ptr@VCCandidate@@@boost@@@std@@@std@@QAE@PAV?$shared_ptr@VCCandidate@@@boost@@@Z ENDP ; std::vector<boost::shared_ptr<CCandidate>,std::allocator<boost::shared_ptr<CCandidate> > >::const_iterator::const_iterator
_TEXT	ENDS
PUBLIC	??0const_iterator@?$vector@HV?$allocator@H@std@@@std@@QAE@PAH@Z ; std::vector<int,std::allocator<int> >::const_iterator::const_iterator
; Function compile flags: /Ogty
;	COMDAT ??0const_iterator@?$vector@HV?$allocator@H@std@@@std@@QAE@PAH@Z
_TEXT	SEGMENT
__Ptr$ = 8						; size = 4
??0const_iterator@?$vector@HV?$allocator@H@std@@@std@@QAE@PAH@Z PROC NEAR ; std::vector<int,std::allocator<int> >::const_iterator::const_iterator, COMDAT
; _this$ = ecx

; 73   : 		const_iterator(_Tptr _Ptr)

  00000	8b c1		 mov	 eax, ecx

; 74   : 			{	// construct with pointer _Ptr
; 75   : 			_Myptr = _Ptr;

  00002	8b 4c 24 04	 mov	 ecx, DWORD PTR __Ptr$[esp-4]
  00006	89 08		 mov	 DWORD PTR [eax], ecx

; 76   : 			}

  00008	c2 04 00	 ret	 4
??0const_iterator@?$vector@HV?$allocator@H@std@@@std@@QAE@PAH@Z ENDP ; std::vector<int,std::allocator<int> >::const_iterator::const_iterator
_TEXT	ENDS
PUBLIC	??0const_iterator@?$vector@PAVCLEComponent@@V?$allocator@PAVCLEComponent@@@std@@@std@@QAE@PAPAVCLEComponent@@@Z ; std::vector<CLEComponent *,std::allocator<CLEComponent *> >::const_iterator::const_iterator
; Function compile flags: /Ogty
;	COMDAT ??0const_iterator@?$vector@PAVCLEComponent@@V?$allocator@PAVCLEComponent@@@std@@@std@@QAE@PAPAVCLEComponent@@@Z
_TEXT	SEGMENT
__Ptr$ = 8						; size = 4
??0const_iterator@?$vector@PAVCLEComponent@@V?$allocator@PAVCLEComponent@@@std@@@std@@QAE@PAPAVCLEComponent@@@Z PROC NEAR ; std::vector<CLEComponent *,std::allocator<CLEComponent *> >::const_iterator::const_iterator, COMDAT
; _this$ = ecx

; 73   : 		const_iterator(_Tptr _Ptr)

  00000	8b c1		 mov	 eax, ecx

; 74   : 			{	// construct with pointer _Ptr
; 75   : 			_Myptr = _Ptr;

  00002	8b 4c 24 04	 mov	 ecx, DWORD PTR __Ptr$[esp-4]
  00006	89 08		 mov	 DWORD PTR [eax], ecx

; 76   : 			}

  00008	c2 04 00	 ret	 4
??0const_iterator@?$vector@PAVCLEComponent@@V?$allocator@PAVCLEComponent@@@std@@@std@@QAE@PAPAVCLEComponent@@@Z ENDP ; std::vector<CLEComponent *,std::allocator<CLEComponent *> >::const_iterator::const_iterator
_TEXT	ENDS
PUBLIC	??0const_iterator@?$vector@PAVCLordSkillComponentExecutable@@V?$allocator@PAVCLordSkillComponentExecutable@@@std@@@std@@QAE@PAPAVCLordSkillComponentExecutable@@@Z ; std::vector<CLordSkillComponentExecutable *,std::allocator<CLordSkillComponentExecutable *> >::const_iterator::const_iterator
; Function compile flags: /Ogty
;	COMDAT ??0const_iterator@?$vector@PAVCLordSkillComponentExecutable@@V?$allocator@PAVCLordSkillComponentExecutable@@@std@@@std@@QAE@PAPAVCLordSkillComponentExecutable@@@Z
_TEXT	SEGMENT
__Ptr$ = 8						; size = 4
??0const_iterator@?$vector@PAVCLordSkillComponentExecutable@@V?$allocator@PAVCLordSkillComponentExecutable@@@std@@@std@@QAE@PAPAVCLordSkillComponentExecutable@@@Z PROC NEAR ; std::vector<CLordSkillComponentExecutable *,std::allocator<CLordSkillComponentExecutable *> >::const_iterator::const_iterator, COMDAT
; _this$ = ecx

; 73   : 		const_iterator(_Tptr _Ptr)

  00000	8b c1		 mov	 eax, ecx

; 74   : 			{	// construct with pointer _Ptr
; 75   : 			_Myptr = _Ptr;

  00002	8b 4c 24 04	 mov	 ecx, DWORD PTR __Ptr$[esp-4]
  00006	89 08		 mov	 DWORD PTR [eax], ecx

; 76   : 			}

  00008	c2 04 00	 ret	 4
??0const_iterator@?$vector@PAVCLordSkillComponentExecutable@@V?$allocator@PAVCLordSkillComponentExecutable@@@std@@@std@@QAE@PAPAVCLordSkillComponentExecutable@@@Z ENDP ; std::vector<CLordSkillComponentExecutable *,std::allocator<CLordSkillComponentExecutable *> >::const_iterator::const_iterator
_TEXT	ENDS
PUBLIC	??Yiterator@?$vector@MV?$allocator@M@std@@@std@@QAEAAV012@H@Z ; std::vector<float,std::allocator<float> >::iterator::operator+=
; Function compile flags: /Ogty
;	COMDAT ??Yiterator@?$vector@MV?$allocator@M@std@@@std@@QAEAAV012@H@Z
_TEXT	SEGMENT
__Off$ = 8						; size = 4
??Yiterator@?$vector@MV?$allocator@M@std@@@std@@QAEAAV012@H@Z PROC NEAR ; std::vector<float,std::allocator<float> >::iterator::operator+=, COMDAT
; _this$ = ecx

; 255  : 			{	// increment by integer

  00000	8b c1		 mov	 eax, ecx

; 256  : 			this->_Myptr += _Off;

  00002	8b 4c 24 04	 mov	 ecx, DWORD PTR __Off$[esp-4]
  00006	8d 14 8d 00 00
	00 00		 lea	 edx, DWORD PTR [ecx*4]
  0000d	01 10		 add	 DWORD PTR [eax], edx

; 257  : 			return (*this);
; 258  : 			}

  0000f	c2 04 00	 ret	 4
??Yiterator@?$vector@MV?$allocator@M@std@@@std@@QAEAAV012@H@Z ENDP ; std::vector<float,std::allocator<float> >::iterator::operator+=
_TEXT	ENDS
PUBLIC	??Dconst_iterator@?$vector@MV?$allocator@M@std@@@std@@QBEABMXZ ; std::vector<float,std::allocator<float> >::const_iterator::operator*
; Function compile flags: /Ogty
;	COMDAT ??Dconst_iterator@?$vector@MV?$allocator@M@std@@@std@@QBEABMXZ
_TEXT	SEGMENT
??Dconst_iterator@?$vector@MV?$allocator@M@std@@@std@@QBEABMXZ PROC NEAR ; std::vector<float,std::allocator<float> >::const_iterator::operator*, COMDAT
; _this$ = ecx

; 80   : 
; 81   : 
; 82   : 			return (*_Myptr);

  00000	8b 01		 mov	 eax, DWORD PTR [ecx]

; 83   : 			}

  00002	c3		 ret	 0
??Dconst_iterator@?$vector@MV?$allocator@M@std@@@std@@QBEABMXZ ENDP ; std::vector<float,std::allocator<float> >::const_iterator::operator*
_TEXT	ENDS
PUBLIC	?max_size@?$allocator@H@std@@QBEIXZ		; std::allocator<int>::max_size
; Function compile flags: /Ogty
; File c:\program files\microsoft visual studio .net 2003\vc7\include\xmemory
;	COMDAT ?max_size@?$allocator@H@std@@QBEIXZ
_TEXT	SEGMENT
?max_size@?$allocator@H@std@@QBEIXZ PROC NEAR		; std::allocator<int>::max_size, COMDAT
; _this$ = ecx

; 157  : 		_SIZT _Count = (_SIZT)(-1) / sizeof (_Ty);
; 158  : 		return (0 < _Count ? _Count : 1);

  00000	b8 ff ff ff 3f	 mov	 eax, 1073741823		; 3fffffffH

; 159  : 		}

  00005	c3		 ret	 0
?max_size@?$allocator@H@std@@QBEIXZ ENDP		; std::allocator<int>::max_size
_TEXT	ENDS
PUBLIC	?max_size@?$allocator@M@std@@QBEIXZ		; std::allocator<float>::max_size
; Function compile flags: /Ogty
;	COMDAT ?max_size@?$allocator@M@std@@QBEIXZ
_TEXT	SEGMENT
?max_size@?$allocator@M@std@@QBEIXZ PROC NEAR		; std::allocator<float>::max_size, COMDAT
; _this$ = ecx

; 157  : 		_SIZT _Count = (_SIZT)(-1) / sizeof (_Ty);
; 158  : 		return (0 < _Count ? _Count : 1);

  00000	b8 ff ff ff 3f	 mov	 eax, 1073741823		; 3fffffffH

; 159  : 		}

  00005	c3		 ret	 0
?max_size@?$allocator@M@std@@QBEIXZ ENDP		; std::allocator<float>::max_size
_TEXT	ENDS
PUBLIC	??Yiterator@?$vector@HV?$allocator@H@std@@@std@@QAEAAV012@H@Z ; std::vector<int,std::allocator<int> >::iterator::operator+=
; Function compile flags: /Ogty
; File c:\program files\microsoft visual studio .net 2003\vc7\include\vector
;	COMDAT ??Yiterator@?$vector@HV?$allocator@H@std@@@std@@QAEAAV012@H@Z
_TEXT	SEGMENT
__Off$ = 8						; size = 4
??Yiterator@?$vector@HV?$allocator@H@std@@@std@@QAEAAV012@H@Z PROC NEAR ; std::vector<int,std::allocator<int> >::iterator::operator+=, COMDAT
; _this$ = ecx

; 255  : 			{	// increment by integer

  00000	8b c1		 mov	 eax, ecx

; 256  : 			this->_Myptr += _Off;

  00002	8b 4c 24 04	 mov	 ecx, DWORD PTR __Off$[esp-4]
  00006	8d 14 8d 00 00
	00 00		 lea	 edx, DWORD PTR [ecx*4]
  0000d	01 10		 add	 DWORD PTR [eax], edx

; 257  : 			return (*this);
; 258  : 			}

  0000f	c2 04 00	 ret	 4
??Yiterator@?$vector@HV?$allocator@H@std@@@std@@QAEAAV012@H@Z ENDP ; std::vector<int,std::allocator<int> >::iterator::operator+=
_TEXT	ENDS
PUBLIC	??Gconst_iterator@?$vector@HV?$allocator@H@std@@@std@@QBEHABV012@@Z ; std::vector<int,std::allocator<int> >::const_iterator::operator-
; Function compile flags: /Ogty
;	COMDAT ??Gconst_iterator@?$vector@HV?$allocator@H@std@@@std@@QBEHABV012@@Z
_TEXT	SEGMENT
__Right$ = 8						; size = 4
??Gconst_iterator@?$vector@HV?$allocator@H@std@@@std@@QBEHABV012@@Z PROC NEAR ; std::vector<int,std::allocator<int> >::const_iterator::operator-, COMDAT
; _this$ = ecx

; 141  : 
; 142  : 
; 143  : 			return (_Myptr - _Right._Myptr);

  00000	8b 01		 mov	 eax, DWORD PTR [ecx]
  00002	8b 4c 24 04	 mov	 ecx, DWORD PTR __Right$[esp-4]
  00006	2b 01		 sub	 eax, DWORD PTR [ecx]
  00008	c1 f8 02	 sar	 eax, 2

; 144  : 			}

  0000b	c2 04 00	 ret	 4
??Gconst_iterator@?$vector@HV?$allocator@H@std@@@std@@QBEHABV012@@Z ENDP ; std::vector<int,std::allocator<int> >::const_iterator::operator-
_TEXT	ENDS
PUBLIC	??0const_iterator@?$vector@MV?$allocator@M@std@@@std@@QAE@PAM@Z ; std::vector<float,std::allocator<float> >::const_iterator::const_iterator
; Function compile flags: /Ogty
;	COMDAT ??0const_iterator@?$vector@MV?$allocator@M@std@@@std@@QAE@PAM@Z
_TEXT	SEGMENT
__Ptr$ = 8						; size = 4
??0const_iterator@?$vector@MV?$allocator@M@std@@@std@@QAE@PAM@Z PROC NEAR ; std::vector<float,std::allocator<float> >::const_iterator::const_iterator, COMDAT
; _this$ = ecx

; 73   : 		const_iterator(_Tptr _Ptr)

  00000	8b c1		 mov	 eax, ecx

; 74   : 			{	// construct with pointer _Ptr
; 75   : 			_Myptr = _Ptr;

  00002	8b 4c 24 04	 mov	 ecx, DWORD PTR __Ptr$[esp-4]
  00006	89 08		 mov	 DWORD PTR [eax], ecx

; 76   : 			}

  00008	c2 04 00	 ret	 4
??0const_iterator@?$vector@MV?$allocator@M@std@@@std@@QAE@PAM@Z ENDP ; std::vector<float,std::allocator<float> >::const_iterator::const_iterator
_TEXT	ENDS
PUBLIC	??Gconst_iterator@?$vector@MV?$allocator@M@std@@@std@@QBEHABV012@@Z ; std::vector<float,std::allocator<float> >::const_iterator::operator-
; Function compile flags: /Ogty
;	COMDAT ??Gconst_iterator@?$vector@MV?$allocator@M@std@@@std@@QBEHABV012@@Z
_TEXT	SEGMENT
__Right$ = 8						; size = 4
??Gconst_iterator@?$vector@MV?$allocator@M@std@@@std@@QBEHABV012@@Z PROC NEAR ; std::vector<float,std::allocator<float> >::const_iterator::operator-, COMDAT
; _this$ = ecx

; 141  : 
; 142  : 
; 143  : 			return (_Myptr - _Right._Myptr);

  00000	8b 01		 mov	 eax, DWORD PTR [ecx]
  00002	8b 4c 24 04	 mov	 ecx, DWORD PTR __Right$[esp-4]
  00006	2b 01		 sub	 eax, DWORD PTR [ecx]
  00008	c1 f8 02	 sar	 eax, 2

; 144  : 			}

  0000b	c2 04 00	 ret	 4
??Gconst_iterator@?$vector@MV?$allocator@M@std@@@std@@QBEHABV012@@Z ENDP ; std::vector<float,std::allocator<float> >::const_iterator::operator-
_TEXT	ENDS
PUBLIC	??$_Allocate@H@std@@YAPAHIPAH@Z			; std::_Allocate<int>
; Function compile flags: /Ogty
; File c:\program files\microsoft visual studio .net 2003\vc7\include\xmemory
;	COMDAT ??$_Allocate@H@std@@YAPAHIPAH@Z
_TEXT	SEGMENT
__Count$ = 8						; size = 4
___formal$ = 12						; size = 4
??$_Allocate@H@std@@YAPAHIPAH@Z PROC NEAR		; std::_Allocate<int>, COMDAT

; 34   : 	return ((_Ty _FARQ *)operator new(_Count * sizeof (_Ty)));

  00000	8b 44 24 04	 mov	 eax, DWORD PTR __Count$[esp-4]
  00004	8d 0c 85 00 00
	00 00		 lea	 ecx, DWORD PTR [eax*4]
  0000b	51		 push	 ecx
  0000c	e8 00 00 00 00	 call	 ??2@YAPAXI@Z		; operator new
  00011	83 c4 04	 add	 esp, 4

; 35   : 	}

  00014	c3		 ret	 0
??$_Allocate@H@std@@YAPAHIPAH@Z ENDP			; std::_Allocate<int>
_TEXT	ENDS
PUBLIC	??$fill@PAMM@std@@YAXPAM0ABM@Z			; std::fill<float *,float>
; Function compile flags: /Ogty
; File c:\program files\microsoft visual studio .net 2003\vc7\include\xutility
;	COMDAT ??$fill@PAMM@std@@YAXPAM0ABM@Z
_TEXT	SEGMENT
__First$ = 8						; size = 4
__Last$ = 12						; size = 4
__Val$ = 16						; size = 4
??$fill@PAMM@std@@YAXPAM0ABM@Z PROC NEAR		; std::fill<float *,float>, COMDAT

; 1135 : 	for (; _First != _Last; ++_First)

  00000	8b 44 24 04	 mov	 eax, DWORD PTR __First$[esp-4]
  00004	8b 4c 24 08	 mov	 ecx, DWORD PTR __Last$[esp-4]
  00008	3b c1		 cmp	 eax, ecx
  0000a	74 11		 je	 SHORT $L205571
  0000c	8b 54 24 0c	 mov	 edx, DWORD PTR __Val$[esp-4]
  00010	56		 push	 esi
$L205569:

; 1136 : 		*_First = _Val;

  00011	8b 32		 mov	 esi, DWORD PTR [edx]
  00013	89 30		 mov	 DWORD PTR [eax], esi
  00015	83 c0 04	 add	 eax, 4
  00018	3b c1		 cmp	 eax, ecx
  0001a	75 f5		 jne	 SHORT $L205569
  0001c	5e		 pop	 esi
$L205571:

; 1137 : 	}

  0001d	c3		 ret	 0
??$fill@PAMM@std@@YAXPAM0ABM@Z ENDP			; std::fill<float *,float>
_TEXT	ENDS
PUBLIC	??$_Allocate@M@std@@YAPAMIPAM@Z			; std::_Allocate<float>
; Function compile flags: /Ogty
; File c:\program files\microsoft visual studio .net 2003\vc7\include\xmemory
;	COMDAT ??$_Allocate@M@std@@YAPAMIPAM@Z
_TEXT	SEGMENT
__Count$ = 8						; size = 4
___formal$ = 12						; size = 4
??$_Allocate@M@std@@YAPAMIPAM@Z PROC NEAR		; std::_Allocate<float>, COMDAT

; 34   : 	return ((_Ty _FARQ *)operator new(_Count * sizeof (_Ty)));

  00000	8b 44 24 04	 mov	 eax, DWORD PTR __Count$[esp-4]
  00004	8d 0c 85 00 00
	00 00		 lea	 ecx, DWORD PTR [eax*4]
  0000b	51		 push	 ecx
  0000c	e8 00 00 00 00	 call	 ??2@YAPAXI@Z		; operator new
  00011	83 c4 04	 add	 esp, 4

; 35   : 	}

  00014	c3		 ret	 0
??$_Allocate@M@std@@YAPAMIPAM@Z ENDP			; std::_Allocate<float>
_TEXT	ENDS
PUBLIC	??$fill@PAHH@std@@YAXPAH0ABH@Z			; std::fill<int *,int>
; Function compile flags: /Ogty
; File c:\program files\microsoft visual studio .net 2003\vc7\include\xutility
;	COMDAT ??$fill@PAHH@std@@YAXPAH0ABH@Z
_TEXT	SEGMENT
__First$ = 8						; size = 4
__Last$ = 12						; size = 4
__Val$ = 16						; size = 4
??$fill@PAHH@std@@YAXPAH0ABH@Z PROC NEAR		; std::fill<int *,int>, COMDAT

; 1135 : 	for (; _First != _Last; ++_First)

  00000	8b 44 24 04	 mov	 eax, DWORD PTR __First$[esp-4]
  00004	8b 4c 24 08	 mov	 ecx, DWORD PTR __Last$[esp-4]
  00008	3b c1		 cmp	 eax, ecx
  0000a	74 11		 je	 SHORT $L205625
  0000c	8b 54 24 0c	 mov	 edx, DWORD PTR __Val$[esp-4]
  00010	56		 push	 esi
$L205623:

; 1136 : 		*_First = _Val;

  00011	8b 32		 mov	 esi, DWORD PTR [edx]
  00013	89 30		 mov	 DWORD PTR [eax], esi
  00015	83 c0 04	 add	 eax, 4
  00018	3b c1		 cmp	 eax, ecx
  0001a	75 f5		 jne	 SHORT $L205623
  0001c	5e		 pop	 esi
$L205625:

; 1137 : 	}

  0001d	c3		 ret	 0
??$fill@PAHH@std@@YAXPAH0ABH@Z ENDP			; std::fill<int *,int>
_TEXT	ENDS
PUBLIC	??Eiterator@?$vector@V?$shared_ptr@VCCandidate@@@boost@@V?$allocator@V?$shared_ptr@VCCandidate@@@boost@@@std@@@std@@QAEAAV012@XZ ; std::vector<boost::shared_ptr<CCandidate>,std::allocator<boost::shared_ptr<CCandidate> > >::iterator::operator++
; Function compile flags: /Ogty
; File c:\program files\microsoft visual studio .net 2003\vc7\include\vector
;	COMDAT ??Eiterator@?$vector@V?$shared_ptr@VCCandidate@@@boost@@V?$allocator@V?$shared_ptr@VCCandidate@@@boost@@@std@@@std@@QAEAAV012@XZ
_TEXT	SEGMENT
??Eiterator@?$vector@V?$shared_ptr@VCCandidate@@@boost@@V?$allocator@V?$shared_ptr@VCCandidate@@@boost@@@std@@@std@@QAEAAV012@XZ PROC NEAR ; std::vector<boost::shared_ptr<CCandidate>,std::allocator<boost::shared_ptr<CCandidate> > >::iterator::operator++, COMDAT
; _this$ = ecx

; 229  : 			{	// preincrement

  00000	8b c1		 mov	 eax, ecx

; 230  : 			++this->_Myptr;

  00002	83 00 08	 add	 DWORD PTR [eax], 8

; 231  : 			return (*this);
; 232  : 			}

  00005	c3		 ret	 0
??Eiterator@?$vector@V?$shared_ptr@VCCandidate@@@boost@@V?$allocator@V?$shared_ptr@VCCandidate@@@boost@@@std@@@std@@QAEAAV012@XZ ENDP ; std::vector<boost::shared_ptr<CCandidate>,std::allocator<boost::shared_ptr<CCandidate> > >::iterator::operator++
_TEXT	ENDS
PUBLIC	??Dconst_iterator@?$vector@V?$shared_ptr@VCCandidate@@@boost@@V?$allocator@V?$shared_ptr@VCCandidate@@@boost@@@std@@@std@@QBEABV?$shared_ptr@VCCandidate@@@boost@@XZ ; std::vector<boost::shared_ptr<CCandidate>,std::allocator<boost::shared_ptr<CCandidate> > >::const_iterator::operator*
; Function compile flags: /Ogty
;	COMDAT ??Dconst_iterator@?$vector@V?$shared_ptr@VCCandidate@@@boost@@V?$allocator@V?$shared_ptr@VCCandidate@@@boost@@@std@@@std@@QBEABV?$shared_ptr@VCCandidate@@@boost@@XZ
_TEXT	SEGMENT
??Dconst_iterator@?$vector@V?$shared_ptr@VCCandidate@@@boost@@V?$allocator@V?$shared_ptr@VCCandidate@@@boost@@@std@@@std@@QBEABV?$shared_ptr@VCCandidate@@@boost@@XZ PROC NEAR ; std::vector<boost::shared_ptr<CCandidate>,std::allocator<boost::shared_ptr<CCandidate> > >::const_iterator::operator*, COMDAT
; _this$ = ecx

; 80   : 
; 81   : 
; 82   : 			return (*_Myptr);

  00000	8b 01		 mov	 eax, DWORD PTR [ecx]

; 83   : 			}

  00002	c3		 ret	 0
??Dconst_iterator@?$vector@V?$shared_ptr@VCCandidate@@@boost@@V?$allocator@V?$shared_ptr@VCCandidate@@@boost@@@std@@@std@@QBEABV?$shared_ptr@VCCandidate@@@boost@@XZ ENDP ; std::vector<boost::shared_ptr<CCandidate>,std::allocator<boost::shared_ptr<CCandidate> > >::const_iterator::operator*
_TEXT	ENDS
PUBLIC	??8const_iterator@?$vector@V?$shared_ptr@VCCandidate@@@boost@@V?$allocator@V?$shared_ptr@VCCandidate@@@boost@@@std@@@std@@QBE_NABV012@@Z ; std::vector<boost::shared_ptr<CCandidate>,std::allocator<boost::shared_ptr<CCandidate> > >::const_iterator::operator==
; Function compile flags: /Ogty
;	COMDAT ??8const_iterator@?$vector@V?$shared_ptr@VCCandidate@@@boost@@V?$allocator@V?$shared_ptr@VCCandidate@@@boost@@@std@@@std@@QBE_NABV012@@Z
_TEXT	SEGMENT
__Right$ = 8						; size = 4
??8const_iterator@?$vector@V?$shared_ptr@VCCandidate@@@boost@@V?$allocator@V?$shared_ptr@VCCandidate@@@boost@@@std@@@std@@QBE_NABV012@@Z PROC NEAR ; std::vector<boost::shared_ptr<CCandidate>,std::allocator<boost::shared_ptr<CCandidate> > >::const_iterator::operator==, COMDAT
; _this$ = ecx

; 153  : 
; 154  : 
; 155  : 			return (_Myptr == _Right._Myptr);

  00000	8b 01		 mov	 eax, DWORD PTR [ecx]
  00002	8b 4c 24 04	 mov	 ecx, DWORD PTR __Right$[esp-4]
  00006	2b 01		 sub	 eax, DWORD PTR [ecx]
  00008	f7 d8		 neg	 eax
  0000a	1b c0		 sbb	 eax, eax
  0000c	40		 inc	 eax

; 156  : 			}

  0000d	c2 04 00	 ret	 4
??8const_iterator@?$vector@V?$shared_ptr@VCCandidate@@@boost@@V?$allocator@V?$shared_ptr@VCCandidate@@@boost@@@std@@@std@@QBE_NABV012@@Z ENDP ; std::vector<boost::shared_ptr<CCandidate>,std::allocator<boost::shared_ptr<CCandidate> > >::const_iterator::operator==
_TEXT	ENDS
PUBLIC	??$_Destroy_range@MV?$allocator@M@std@@@std@@YAXPAM0AAV?$allocator@M@0@U_Scalar_ptr_iterator_tag@0@@Z ; std::_Destroy_range<float,std::allocator<float> >
; Function compile flags: /Ogty
; File c:\program files\microsoft visual studio .net 2003\vc7\include\xmemory
;	COMDAT ??$_Destroy_range@MV?$allocator@M@std@@@std@@YAXPAM0AAV?$allocator@M@0@U_Scalar_ptr_iterator_tag@0@@Z
_TEXT	SEGMENT
__First$ = 8						; size = 4
__Last$ = 12						; size = 4
__Al$ = 16						; size = 4
___formal$ = 20						; size = 1
??$_Destroy_range@MV?$allocator@M@std@@@std@@YAXPAM0AAV?$allocator@M@0@U_Scalar_ptr_iterator_tag@0@@Z PROC NEAR ; std::_Destroy_range<float,std::allocator<float> >, COMDAT

; 234  : 	}

  00000	c3		 ret	 0
??$_Destroy_range@MV?$allocator@M@std@@@std@@YAXPAM0AAV?$allocator@M@0@U_Scalar_ptr_iterator_tag@0@@Z ENDP ; std::_Destroy_range<float,std::allocator<float> >
_TEXT	ENDS
PUBLIC	??$_Copy_backward_opt@PAMPAM@std@@YAPAMPAM00U_Scalar_ptr_iterator_tag@0@@Z ; std::_Copy_backward_opt<float *,float *>
EXTRN	_memmove:NEAR
; Function compile flags: /Ogty
; File c:\program files\microsoft visual studio .net 2003\vc7\include\xutility
;	COMDAT ??$_Copy_backward_opt@PAMPAM@std@@YAPAMPAM00U_Scalar_ptr_iterator_tag@0@@Z
_TEXT	SEGMENT
__First$ = 8						; size = 4
__Last$ = 12						; size = 4
__Dest$ = 16						; size = 4
___formal$ = 20						; size = 1
??$_Copy_backward_opt@PAMPAM@std@@YAPAMPAM00U_Scalar_ptr_iterator_tag@0@@Z PROC NEAR ; std::_Copy_backward_opt<float *,float *>, COMDAT

; 1059 : 	ptrdiff_t _Off = _Last - _First;	// NB: non-overlapping move

  00000	8b 4c 24 04	 mov	 ecx, DWORD PTR __First$[esp-4]
  00004	8b 44 24 08	 mov	 eax, DWORD PTR __Last$[esp-4]
  00008	2b c1		 sub	 eax, ecx
  0000a	c1 f8 02	 sar	 eax, 2

; 1060 : 	return ((_OutIt)memmove(&*_Dest - _Off, &*_First,
; 1061 : 		_Off * sizeof (*_First)));

  0000d	c1 e0 02	 shl	 eax, 2
  00010	50		 push	 eax
  00011	51		 push	 ecx
  00012	8b 4c 24 14	 mov	 ecx, DWORD PTR __Dest$[esp+4]
  00016	2b c8		 sub	 ecx, eax
  00018	51		 push	 ecx
  00019	e8 00 00 00 00	 call	 _memmove
  0001e	83 c4 0c	 add	 esp, 12			; 0000000cH

; 1062 : 	}

  00021	c3		 ret	 0
??$_Copy_backward_opt@PAMPAM@std@@YAPAMPAM00U_Scalar_ptr_iterator_tag@0@@Z ENDP ; std::_Copy_backward_opt<float *,float *>
_TEXT	ENDS
PUBLIC	??$_Destroy_range@HV?$allocator@H@std@@@std@@YAXPAH0AAV?$allocator@H@0@U_Scalar_ptr_iterator_tag@0@@Z ; std::_Destroy_range<int,std::allocator<int> >
; Function compile flags: /Ogty
; File c:\program files\microsoft visual studio .net 2003\vc7\include\xmemory
;	COMDAT ??$_Destroy_range@HV?$allocator@H@std@@@std@@YAXPAH0AAV?$allocator@H@0@U_Scalar_ptr_iterator_tag@0@@Z
_TEXT	SEGMENT
__First$ = 8						; size = 4
__Last$ = 12						; size = 4
__Al$ = 16						; size = 4
___formal$ = 20						; size = 1
??$_Destroy_range@HV?$allocator@H@std@@@std@@YAXPAH0AAV?$allocator@H@0@U_Scalar_ptr_iterator_tag@0@@Z PROC NEAR ; std::_Destroy_range<int,std::allocator<int> >, COMDAT

; 234  : 	}

  00000	c3		 ret	 0
??$_Destroy_range@HV?$allocator@H@std@@@std@@YAXPAH0AAV?$allocator@H@0@U_Scalar_ptr_iterator_tag@0@@Z ENDP ; std::_Destroy_range<int,std::allocator<int> >
_TEXT	ENDS
PUBLIC	??$_Copy_backward_opt@PAHPAH@std@@YAPAHPAH00U_Scalar_ptr_iterator_tag@0@@Z ; std::_Copy_backward_opt<int *,int *>
; Function compile flags: /Ogty
; File c:\program files\microsoft visual studio .net 2003\vc7\include\xutility
;	COMDAT ??$_Copy_backward_opt@PAHPAH@std@@YAPAHPAH00U_Scalar_ptr_iterator_tag@0@@Z
_TEXT	SEGMENT
__First$ = 8						; size = 4
__Last$ = 12						; size = 4
__Dest$ = 16						; size = 4
___formal$ = 20						; size = 1
??$_Copy_backward_opt@PAHPAH@std@@YAPAHPAH00U_Scalar_ptr_iterator_tag@0@@Z PROC NEAR ; std::_Copy_backward_opt<int *,int *>, COMDAT

; 1059 : 	ptrdiff_t _Off = _Last - _First;	// NB: non-overlapping move

  00000	8b 4c 24 04	 mov	 ecx, DWORD PTR __First$[esp-4]
  00004	8b 44 24 08	 mov	 eax, DWORD PTR __Last$[esp-4]
  00008	2b c1		 sub	 eax, ecx
  0000a	c1 f8 02	 sar	 eax, 2

; 1060 : 	return ((_OutIt)memmove(&*_Dest - _Off, &*_First,
; 1061 : 		_Off * sizeof (*_First)));

  0000d	c1 e0 02	 shl	 eax, 2
  00010	50		 push	 eax
  00011	51		 push	 ecx
  00012	8b 4c 24 14	 mov	 ecx, DWORD PTR __Dest$[esp+4]
  00016	2b c8		 sub	 ecx, eax
  00018	51		 push	 ecx
  00019	e8 00 00 00 00	 call	 _memmove
  0001e	83 c4 0c	 add	 esp, 12			; 0000000cH

; 1062 : 	}

  00021	c3		 ret	 0
??$_Copy_backward_opt@PAHPAH@std@@YAPAHPAH00U_Scalar_ptr_iterator_tag@0@@Z ENDP ; std::_Copy_backward_opt<int *,int *>
_TEXT	ENDS
PUBLIC	??$fill_n@PAMIM@std@@YAXPAMIABM@Z		; std::fill_n<float *,unsigned int,float>
; Function compile flags: /Ogty
;	COMDAT ??$fill_n@PAMIM@std@@YAXPAMIABM@Z
_TEXT	SEGMENT
__First$ = 8						; size = 4
__Count$ = 12						; size = 4
__Val$ = 16						; size = 4
??$fill_n@PAMIM@std@@YAXPAMIABM@Z PROC NEAR		; std::fill_n<float *,unsigned int,float>, COMDAT

; 1160 : 	for (; 0 < _Count; --_Count, ++_First)

  00000	8b 4c 24 08	 mov	 ecx, DWORD PTR __Count$[esp-4]
  00004	85 c9		 test	 ecx, ecx
  00006	76 14		 jbe	 SHORT $L205783
  00008	8b 54 24 0c	 mov	 edx, DWORD PTR __Val$[esp-4]
  0000c	8b 44 24 04	 mov	 eax, DWORD PTR __First$[esp-4]
  00010	56		 push	 esi
$L205781:

; 1161 : 		*_First = _Val;

  00011	8b 32		 mov	 esi, DWORD PTR [edx]
  00013	89 30		 mov	 DWORD PTR [eax], esi
  00015	83 c0 04	 add	 eax, 4
  00018	49		 dec	 ecx
  00019	75 f6		 jne	 SHORT $L205781
  0001b	5e		 pop	 esi
$L205783:

; 1162 : 	}

  0001c	c3		 ret	 0
??$fill_n@PAMIM@std@@YAXPAMIABM@Z ENDP			; std::fill_n<float *,unsigned int,float>
_TEXT	ENDS
PUBLIC	??$fill_n@PAHIH@std@@YAXPAHIABH@Z		; std::fill_n<int *,unsigned int,int>
; Function compile flags: /Ogty
;	COMDAT ??$fill_n@PAHIH@std@@YAXPAHIABH@Z
_TEXT	SEGMENT
__First$ = 8						; size = 4
__Count$ = 12						; size = 4
__Val$ = 16						; size = 4
??$fill_n@PAHIH@std@@YAXPAHIABH@Z PROC NEAR		; std::fill_n<int *,unsigned int,int>, COMDAT

; 1160 : 	for (; 0 < _Count; --_Count, ++_First)

  00000	8b 4c 24 08	 mov	 ecx, DWORD PTR __Count$[esp-4]
  00004	85 c9		 test	 ecx, ecx
  00006	76 14		 jbe	 SHORT $L205787
  00008	8b 54 24 0c	 mov	 edx, DWORD PTR __Val$[esp-4]
  0000c	8b 44 24 04	 mov	 eax, DWORD PTR __First$[esp-4]
  00010	56		 push	 esi
$L205785:

; 1161 : 		*_First = _Val;

  00011	8b 32		 mov	 esi, DWORD PTR [edx]
  00013	89 30		 mov	 DWORD PTR [eax], esi
  00015	83 c0 04	 add	 eax, 4
  00018	49		 dec	 ecx
  00019	75 f6		 jne	 SHORT $L205785
  0001b	5e		 pop	 esi
$L205787:

; 1162 : 	}

  0001c	c3		 ret	 0
??$fill_n@PAHIH@std@@YAXPAHIABH@Z ENDP			; std::fill_n<int *,unsigned int,int>
_TEXT	ENDS
PUBLIC	??$_Uninit_copy@MM@std@@YAPAMPAM00AAV?$allocator@M@0@U_Scalar_ptr_iterator_tag@0@@Z ; std::_Uninit_copy<float,float>
; Function compile flags: /Ogty
; File c:\program files\microsoft visual studio .net 2003\vc7\include\memory
;	COMDAT ??$_Uninit_copy@MM@std@@YAPAMPAM00AAV?$allocator@M@0@U_Scalar_ptr_iterator_tag@0@@Z
_TEXT	SEGMENT
__First$ = 8						; size = 4
__Last$ = 12						; size = 4
__Dest$ = 16						; size = 4
___formal$ = 20						; size = 4
___formal$ = 24						; size = 1
??$_Uninit_copy@MM@std@@YAPAMPAM00AAV?$allocator@M@0@U_Scalar_ptr_iterator_tag@0@@Z PROC NEAR ; std::_Uninit_copy<float,float>, COMDAT

; 106  : 	size_t _Count = (size_t)(_Last - _First);

  00000	8b 4c 24 04	 mov	 ecx, DWORD PTR __First$[esp-4]
  00004	8b 44 24 08	 mov	 eax, DWORD PTR __Last$[esp-4]
  00008	2b c1		 sub	 eax, ecx
  0000a	56		 push	 esi
  0000b	c1 f8 02	 sar	 eax, 2

; 107  : 	return ((_Ty2 *)memmove(&*_Dest, &*_First,
; 108  : 		_Count * sizeof (*_First)) + _Count);	// NB: non-overlapping move

  0000e	8d 34 85 00 00
	00 00		 lea	 esi, DWORD PTR [eax*4]
  00015	8b 44 24 10	 mov	 eax, DWORD PTR __Dest$[esp]
  00019	56		 push	 esi
  0001a	51		 push	 ecx
  0001b	50		 push	 eax
  0001c	e8 00 00 00 00	 call	 _memmove
  00021	83 c4 0c	 add	 esp, 12			; 0000000cH
  00024	03 c6		 add	 eax, esi
  00026	5e		 pop	 esi

; 109  : 	}

  00027	c3		 ret	 0
??$_Uninit_copy@MM@std@@YAPAMPAM00AAV?$allocator@M@0@U_Scalar_ptr_iterator_tag@0@@Z ENDP ; std::_Uninit_copy<float,float>
_TEXT	ENDS
PUBLIC	??$_Uninit_copy@HH@std@@YAPAHPAH00AAV?$allocator@H@0@U_Scalar_ptr_iterator_tag@0@@Z ; std::_Uninit_copy<int,int>
; Function compile flags: /Ogty
;	COMDAT ??$_Uninit_copy@HH@std@@YAPAHPAH00AAV?$allocator@H@0@U_Scalar_ptr_iterator_tag@0@@Z
_TEXT	SEGMENT
__First$ = 8						; size = 4
__Last$ = 12						; size = 4
__Dest$ = 16						; size = 4
___formal$ = 20						; size = 4
___formal$ = 24						; size = 1
??$_Uninit_copy@HH@std@@YAPAHPAH00AAV?$allocator@H@0@U_Scalar_ptr_iterator_tag@0@@Z PROC NEAR ; std::_Uninit_copy<int,int>, COMDAT

; 106  : 	size_t _Count = (size_t)(_Last - _First);

  00000	8b 4c 24 04	 mov	 ecx, DWORD PTR __First$[esp-4]
  00004	8b 44 24 08	 mov	 eax, DWORD PTR __Last$[esp-4]
  00008	2b c1		 sub	 eax, ecx
  0000a	56		 push	 esi
  0000b	c1 f8 02	 sar	 eax, 2

; 107  : 	return ((_Ty2 *)memmove(&*_Dest, &*_First,
; 108  : 		_Count * sizeof (*_First)) + _Count);	// NB: non-overlapping move

  0000e	8d 34 85 00 00
	00 00		 lea	 esi, DWORD PTR [eax*4]
  00015	8b 44 24 10	 mov	 eax, DWORD PTR __Dest$[esp]
  00019	56		 push	 esi
  0001a	51		 push	 ecx
  0001b	50		 push	 eax
  0001c	e8 00 00 00 00	 call	 _memmove
  00021	83 c4 0c	 add	 esp, 12			; 0000000cH
  00024	03 c6		 add	 eax, esi
  00026	5e		 pop	 esi

; 109  : 	}

  00027	c3		 ret	 0
??$_Uninit_copy@HH@std@@YAPAHPAH00AAV?$allocator@H@0@U_Scalar_ptr_iterator_tag@0@@Z ENDP ; std::_Uninit_copy<int,int>
_TEXT	ENDS
PUBLIC	?assign@?$char_traits@D@std@@SAXAADABD@Z	; std::char_traits<char>::assign
; Function compile flags: /Ogty
; File c:\program files\microsoft visual studio .net 2003\vc7\include\iosfwd
;	COMDAT ?assign@?$char_traits@D@std@@SAXAADABD@Z
_TEXT	SEGMENT
__Left$ = 8						; size = 4
__Right$ = 12						; size = 4
?assign@?$char_traits@D@std@@SAXAADABD@Z PROC NEAR	; std::char_traits<char>::assign, COMDAT

; 331  : 		_Left = _Right;

  00000	8b 44 24 08	 mov	 eax, DWORD PTR __Right$[esp-4]
  00004	8a 08		 mov	 cl, BYTE PTR [eax]
  00006	8b 54 24 04	 mov	 edx, DWORD PTR __Left$[esp-4]
  0000a	88 0a		 mov	 BYTE PTR [edx], cl

; 332  : 		}

  0000c	c3		 ret	 0
?assign@?$char_traits@D@std@@SAXAADABD@Z ENDP		; std::char_traits<char>::assign
_TEXT	ENDS
PUBLIC	?length@?$char_traits@D@std@@SAIPBD@Z		; std::char_traits<char>::length
; Function compile flags: /Ogty
;	COMDAT ?length@?$char_traits@D@std@@SAIPBD@Z
_TEXT	SEGMENT
__First$ = 8						; size = 4
?length@?$char_traits@D@std@@SAIPBD@Z PROC NEAR		; std::char_traits<char>::length, COMDAT

; 352  : 		return (::strlen(_First));

  00000	8b 44 24 04	 mov	 eax, DWORD PTR __First$[esp-4]
  00004	8d 50 01	 lea	 edx, DWORD PTR [eax+1]
$L206821:
  00007	8a 08		 mov	 cl, BYTE PTR [eax]
  00009	40		 inc	 eax
  0000a	84 c9		 test	 cl, cl
  0000c	75 f9		 jne	 SHORT $L206821
  0000e	2b c2		 sub	 eax, edx

; 353  : 		}

  00010	c3		 ret	 0
?length@?$char_traits@D@std@@SAIPBD@Z ENDP		; std::char_traits<char>::length
_TEXT	ENDS
PUBLIC	?copy@?$char_traits@D@std@@SAPADPADPBDI@Z	; std::char_traits<char>::copy
; Function compile flags: /Ogty
;	COMDAT ?copy@?$char_traits@D@std@@SAPADPADPBDI@Z
_TEXT	SEGMENT
__First1$ = 8						; size = 4
__First2$ = 12						; size = 4
__Count$ = 16						; size = 4
?copy@?$char_traits@D@std@@SAPADPADPBDI@Z PROC NEAR	; std::char_traits<char>::copy, COMDAT

; 358  : 		return ((_Elem *)::memcpy(_First1, _First2, _Count));

  00000	8b 4c 24 0c	 mov	 ecx, DWORD PTR __Count$[esp-4]
  00004	56		 push	 esi
  00005	8b 74 24 0c	 mov	 esi, DWORD PTR __First2$[esp]
  00009	57		 push	 edi
  0000a	8b 7c 24 0c	 mov	 edi, DWORD PTR __First1$[esp+4]
  0000e	8b c1		 mov	 eax, ecx
  00010	8b d7		 mov	 edx, edi
  00012	c1 e9 02	 shr	 ecx, 2
  00015	f3 a5		 rep movsd
  00017	8b c8		 mov	 ecx, eax
  00019	83 e1 03	 and	 ecx, 3
  0001c	f3 a4		 rep movsb
  0001e	5f		 pop	 edi
  0001f	8b c2		 mov	 eax, edx
  00021	5e		 pop	 esi

; 359  : 		}

  00022	c3		 ret	 0
?copy@?$char_traits@D@std@@SAPADPADPBDI@Z ENDP		; std::char_traits<char>::copy
_TEXT	ENDS
PUBLIC	?move@?$char_traits@D@std@@SAPADPADPBDI@Z	; std::char_traits<char>::move
; Function compile flags: /Ogty
;	COMDAT ?move@?$char_traits@D@std@@SAPADPADPBDI@Z
_TEXT	SEGMENT
__First1$ = 8						; size = 4
__First2$ = 12						; size = 4
__Count$ = 16						; size = 4
?move@?$char_traits@D@std@@SAPADPADPBDI@Z PROC NEAR	; std::char_traits<char>::move, COMDAT

; 370  : 		return ((_Elem *)::memmove(_First1, _First2, _Count));

  00000	e9 00 00 00 00	 jmp	 _memmove
?move@?$char_traits@D@std@@SAPADPADPBDI@Z ENDP		; std::char_traits<char>::move
_TEXT	ENDS
PUBLIC	?_Ptr_cat@std@@YA?AU_Scalar_ptr_iterator_tag@1@PAH0@Z ; std::_Ptr_cat
; Function compile flags: /Ogty
; File c:\program files\microsoft visual studio .net 2003\vc7\include\xutility
;	COMDAT ?_Ptr_cat@std@@YA?AU_Scalar_ptr_iterator_tag@1@PAH0@Z
_TEXT	SEGMENT
__Cat$ = -1						; size = 1
___formal$ = 8						; size = 4
___formal$ = 12						; size = 4
?_Ptr_cat@std@@YA?AU_Scalar_ptr_iterator_tag@1@PAH0@Z PROC NEAR ; std::_Ptr_cat, COMDAT

; 335  : 	{	// return pointer category from pointer to int arguments

  00000	51		 push	 ecx

; 336  : 	_Scalar_ptr_iterator_tag _Cat;
; 337  : 	return (_Cat);

  00001	8a 44 24 03	 mov	 al, BYTE PTR __Cat$[esp+4]

; 338  : 	}

  00005	59		 pop	 ecx
  00006	c3		 ret	 0
?_Ptr_cat@std@@YA?AU_Scalar_ptr_iterator_tag@1@PAH0@Z ENDP ; std::_Ptr_cat
_TEXT	ENDS
PUBLIC	?_Ptr_cat@std@@YA?AU_Scalar_ptr_iterator_tag@1@PAM0@Z ; std::_Ptr_cat
; Function compile flags: /Ogty
;	COMDAT ?_Ptr_cat@std@@YA?AU_Scalar_ptr_iterator_tag@1@PAM0@Z
_TEXT	SEGMENT
__Cat$ = -1						; size = 1
___formal$ = 8						; size = 4
___formal$ = 12						; size = 4
?_Ptr_cat@std@@YA?AU_Scalar_ptr_iterator_tag@1@PAM0@Z PROC NEAR ; std::_Ptr_cat, COMDAT

; 384  : 	{	// return pointer category from pointer to float arguments

  00000	51		 push	 ecx

; 385  : 	_Scalar_ptr_iterator_tag _Cat;
; 386  : 	return (_Cat);

  00001	8a 44 24 03	 mov	 al, BYTE PTR __Cat$[esp+4]

; 387  : 	}

  00005	59		 pop	 ecx
  00006	c3		 ret	 0
?_Ptr_cat@std@@YA?AU_Scalar_ptr_iterator_tag@1@PAM0@Z ENDP ; std::_Ptr_cat
_TEXT	ENDS
PUBLIC	?Enter@CMclCritSec@@QAEXXZ			; CMclCritSec::Enter
EXTRN	__imp__EnterCriticalSection@4:NEAR
; Function compile flags: /Ogty
; File c:\documents and settings\test\mes documents\source\virtuos_v17\build\program\_network\mcl\include\cmclcritsec.h
;	COMDAT ?Enter@CMclCritSec@@QAEXXZ
_TEXT	SEGMENT
?Enter@CMclCritSec@@QAEXXZ PROC NEAR			; CMclCritSec::Enter, COMDAT
; _this$ = ecx

; 33   : 		::EnterCriticalSection( &m_CritSec );

  00000	83 c1 04	 add	 ecx, 4
  00003	51		 push	 ecx
  00004	ff 15 00 00 00
	00		 call	 DWORD PTR __imp__EnterCriticalSection@4

; 34   : 	}

  0000a	c3		 ret	 0
?Enter@CMclCritSec@@QAEXXZ ENDP				; CMclCritSec::Enter
_TEXT	ENDS
PUBLIC	?Leave@CMclCritSec@@QAEXXZ			; CMclCritSec::Leave
EXTRN	__imp__LeaveCriticalSection@4:NEAR
; Function compile flags: /Ogty
;	COMDAT ?Leave@CMclCritSec@@QAEXXZ
_TEXT	SEGMENT
?Leave@CMclCritSec@@QAEXXZ PROC NEAR			; CMclCritSec::Leave, COMDAT
; _this$ = ecx

; 39   : 		::LeaveCriticalSection( &m_CritSec );

  00000	83 c1 04	 add	 ecx, 4
  00003	51		 push	 ecx
  00004	ff 15 00 00 00
	00		 call	 DWORD PTR __imp__LeaveCriticalSection@4

; 40   : 	}

  0000a	c3		 ret	 0
?Leave@CMclCritSec@@QAEXXZ ENDP				; CMclCritSec::Leave
_TEXT	ENDS
PUBLIC	??0CMclAutoLock@@QAE@AAVCMclCritSec@@@Z		; CMclAutoLock::CMclAutoLock
; Function compile flags: /Ogty
; File c:\documents and settings\test\mes documents\source\virtuos_v17\build\program\_network\mcl\include\cmclautolock.h
;	COMDAT ??0CMclAutoLock@@QAE@AAVCMclCritSec@@@Z
_TEXT	SEGMENT
_rCMclCritSec$ = 8					; size = 4
??0CMclAutoLock@@QAE@AAVCMclCritSec@@@Z PROC NEAR	; CMclAutoLock::CMclAutoLock, COMDAT
; _this$ = ecx

; 20   : 	{
; 21   : 		m_pcCritSec = &rCMclCritSec;

  00000	8b 44 24 04	 mov	 eax, DWORD PTR _rCMclCritSec$[esp-4]
  00004	56		 push	 esi
  00005	8b f1		 mov	 esi, ecx
  00007	89 06		 mov	 DWORD PTR [esi], eax

; 22   : 		m_pcCritSec->Enter();

  00009	83 c0 04	 add	 eax, 4
  0000c	50		 push	 eax
  0000d	ff 15 00 00 00
	00		 call	 DWORD PTR __imp__EnterCriticalSection@4

; 23   : 	}

  00013	8b c6		 mov	 eax, esi
  00015	5e		 pop	 esi
  00016	c2 04 00	 ret	 4
??0CMclAutoLock@@QAE@AAVCMclCritSec@@@Z ENDP		; CMclAutoLock::CMclAutoLock
_TEXT	ENDS
PUBLIC	??1CMclAutoLock@@QAE@XZ				; CMclAutoLock::~CMclAutoLock
; Function compile flags: /Ogty
;	COMDAT ??1CMclAutoLock@@QAE@XZ
_TEXT	SEGMENT
??1CMclAutoLock@@QAE@XZ PROC NEAR			; CMclAutoLock::~CMclAutoLock, COMDAT
; _this$ = ecx

; 28   : 		m_pcCritSec->Leave();

  00000	8b 01		 mov	 eax, DWORD PTR [ecx]
  00002	83 c0 04	 add	 eax, 4
  00005	50		 push	 eax
  00006	ff 15 00 00 00
	00		 call	 DWORD PTR __imp__LeaveCriticalSection@4

; 29   : 	}

  0000c	c3		 ret	 0
??1CMclAutoLock@@QAE@XZ ENDP				; CMclAutoLock::~CMclAutoLock
_TEXT	ENDS
PUBLIC	?time_null@@YAJXZ				; time_null
EXTRN	_time:NEAR
; Function compile flags: /Ogty
; File c:\documents and settings\test\mes documents\source\virtuos_v17\build\program\_network\cmnhdr.h
;	COMDAT ?time_null@@YAJXZ
_TEXT	SEGMENT
?time_null@@YAJXZ PROC NEAR				; time_null, COMDAT

; 702  : #if defined(__WORLDSERVER) || defined(__CLIENT)
; 703  : 	return	g_tCurrent;
; 704  : #else	//
; 705  : 	return time( NULL );

  00000	6a 00		 push	 0
  00002	e8 00 00 00 00	 call	 _time
  00007	83 c4 04	 add	 esp, 4

; 706  : #endif	//
; 707  : }

  0000a	c3		 ret	 0
?time_null@@YAJXZ ENDP					; time_null
_TEXT	ENDS
PUBLIC	?xRand@@YAKXZ					; xRand
EXTRN	?g_next@@3KA:DWORD				; g_next
; Function compile flags: /Ogty
; File c:\documents and settings\test\mes documents\source\virtuos_v17\build\program\_common\xutil.h
;	COMDAT ?xRand@@YAKXZ
_TEXT	SEGMENT
?xRand@@YAKXZ PROC NEAR					; xRand, COMDAT

; 16   : 	g_next = g_next * 1103515245 + 12345;// + nRandomSeed[ i++ ];

  00000	a1 00 00 00 00	 mov	 eax, DWORD PTR ?g_next@@3KA ; g_next
  00005	69 c0 6d 4e c6
	41		 imul	 eax, 1103515245		; 41c64e6dH
  0000b	05 39 30 00 00	 add	 eax, 12345		; 00003039H
  00010	a3 00 00 00 00	 mov	 DWORD PTR ?g_next@@3KA, eax ; g_next

; 17   : 	return g_next;	//   .
; 18   : }

  00015	c3		 ret	 0
?xRand@@YAKXZ ENDP					; xRand
_TEXT	ENDS
PUBLIC	??5CAr@@QAEAAV0@AAK@Z				; CAr::operator>>
; Function compile flags: /Ogty
; File c:\documents and settings\test\mes documents\source\virtuos_v17\build\program\_network\misc\include\ar.h
;	COMDAT ??5CAr@@QAEAAV0@AAK@Z
_TEXT	SEGMENT
_dw$ = 8						; size = 4
??5CAr@@QAEAAV0@AAK@Z PROC NEAR				; CAr::operator>>, COMDAT
; _this$ = ecx

; 146  : 	{	CAR_SAFE_READ( DWORD, dw );	}

  00000	8b c1		 mov	 eax, ecx
  00002	8b 48 08	 mov	 ecx, DWORD PTR [eax+8]
  00005	56		 push	 esi
  00006	8b 70 0c	 mov	 esi, DWORD PTR [eax+12]
  00009	8d 51 04	 lea	 edx, DWORD PTR [ecx+4]
  0000c	3b d6		 cmp	 edx, esi
  0000e	5e		 pop	 esi
  0000f	77 0f		 ja	 SHORT $L162868
  00011	8b 09		 mov	 ecx, DWORD PTR [ecx]
  00013	8b 54 24 04	 mov	 edx, DWORD PTR _dw$[esp-4]
  00017	89 0a		 mov	 DWORD PTR [edx], ecx
  00019	83 40 08 04	 add	 DWORD PTR [eax+8], 4
  0001d	c2 04 00	 ret	 4
$L162868:
  00020	8b 4c 24 04	 mov	 ecx, DWORD PTR _dw$[esp-4]
  00024	c7 01 00 00 00
	00		 mov	 DWORD PTR [ecx], 0
  0002a	8b 50 0c	 mov	 edx, DWORD PTR [eax+12]
  0002d	89 50 08	 mov	 DWORD PTR [eax+8], edx
  00030	c2 04 00	 ret	 4
??5CAr@@QAEAAV0@AAK@Z ENDP				; CAr::operator>>
_TEXT	ENDS
PUBLIC	??5CAr@@QAEAAV0@AAJ@Z				; CAr::operator>>
; Function compile flags: /Ogty
;	COMDAT ??5CAr@@QAEAAV0@AAJ@Z
_TEXT	SEGMENT
_l$ = 8							; size = 4
??5CAr@@QAEAAV0@AAJ@Z PROC NEAR				; CAr::operator>>, COMDAT
; _this$ = ecx

; 152  : 	{	CAR_SAFE_READ( LONG, l );	}

  00000	8b c1		 mov	 eax, ecx
  00002	8b 48 08	 mov	 ecx, DWORD PTR [eax+8]
  00005	56		 push	 esi
  00006	8b 70 0c	 mov	 esi, DWORD PTR [eax+12]
  00009	8d 51 04	 lea	 edx, DWORD PTR [ecx+4]
  0000c	3b d6		 cmp	 edx, esi
  0000e	5e		 pop	 esi
  0000f	77 0f		 ja	 SHORT $L162898
  00011	8b 09		 mov	 ecx, DWORD PTR [ecx]
  00013	8b 54 24 04	 mov	 edx, DWORD PTR _l$[esp-4]
  00017	89 0a		 mov	 DWORD PTR [edx], ecx
  00019	83 40 08 04	 add	 DWORD PTR [eax+8], 4
  0001d	c2 04 00	 ret	 4
$L162898:
  00020	8b 4c 24 04	 mov	 ecx, DWORD PTR _l$[esp-4]
  00024	c7 01 00 00 00
	00		 mov	 DWORD PTR [ecx], 0
  0002a	8b 50 0c	 mov	 edx, DWORD PTR [eax+12]
  0002d	89 50 08	 mov	 DWORD PTR [eax+8], edx
  00030	c2 04 00	 ret	 4
??5CAr@@QAEAAV0@AAJ@Z ENDP				; CAr::operator>>
_TEXT	ENDS
PUBLIC	??5@YAAAVCAr@@AAV0@AA_J@Z			; operator>>
EXTRN	?Read@CAr@@QAEXPAXI@Z:NEAR			; CAr::Read
; Function compile flags: /Ogty
;	COMDAT ??5@YAAAVCAr@@AAV0@AA_J@Z
_TEXT	SEGMENT
_ar$ = 8						; size = 4
_i$ = 12						; size = 4
??5@YAAAVCAr@@AAV0@AA_J@Z PROC NEAR			; operator>>, COMDAT

; 166  : 	{	ar.Read( &i, sizeof(__int64) );	return ar;	}

  00000	8b 44 24 08	 mov	 eax, DWORD PTR _i$[esp-4]
  00004	56		 push	 esi
  00005	8b 74 24 08	 mov	 esi, DWORD PTR _ar$[esp]
  00009	6a 08		 push	 8
  0000b	50		 push	 eax
  0000c	8b ce		 mov	 ecx, esi
  0000e	e8 00 00 00 00	 call	 ?Read@CAr@@QAEXPAXI@Z	; CAr::Read
  00013	8b c6		 mov	 eax, esi
  00015	5e		 pop	 esi
  00016	c3		 ret	 0
??5@YAAAVCAr@@AAV0@AA_J@Z ENDP				; operator>>
_TEXT	ENDS
PUBLIC	?SetSerialNumber@CItemBase@@QAEXK@Z		; CItemBase::SetSerialNumber
; Function compile flags: /Ogty
; File c:\documents and settings\test\mes documents\source\virtuos_v17\build\program\_network\objects\obj.h
;	COMDAT ?SetSerialNumber@CItemBase@@QAEXK@Z
_TEXT	SEGMENT
_liSerialNumber$ = 8					; size = 4
?SetSerialNumber@CItemBase@@QAEXK@Z PROC NEAR		; CItemBase::SetSerialNumber, COMDAT
; _this$ = ecx

; 143  : 	void	SetSerialNumber( SERIALNUMBER liSerialNumber )	{	m_liSerialNumber	= liSerialNumber;	}

  00000	8b 44 24 04	 mov	 eax, DWORD PTR _liSerialNumber$[esp-4]
  00004	89 41 30	 mov	 DWORD PTR [ecx+48], eax
  00007	c2 04 00	 ret	 4
?SetSerialNumber@CItemBase@@QAEXK@Z ENDP		; CItemBase::SetSerialNumber
_TEXT	ENDS
PUBLIC	??B?$CSimpleStringT@D$0A@@ATL@@QBEPBDXZ		; ATL::CSimpleStringT<char,0>::operator char const *
; Function compile flags: /Ogty
; File c:\program files\microsoft visual studio .net 2003\vc7\atlmfc\include\atlsimpstr.h
;	COMDAT ??B?$CSimpleStringT@D$0A@@ATL@@QBEPBDXZ
_TEXT	SEGMENT
??B?$CSimpleStringT@D$0A@@ATL@@QBEPBDXZ PROC NEAR	; ATL::CSimpleStringT<char,0>::operator char const *, COMDAT
; _this$ = ecx

; 379  : 		return( m_pszData );

  00000	8b 01		 mov	 eax, DWORD PTR [ecx]

; 380  : 	}

  00002	c3		 ret	 0
??B?$CSimpleStringT@D$0A@@ATL@@QBEPBDXZ ENDP		; ATL::CSimpleStringT<char,0>::operator char const *
_TEXT	ENDS
PUBLIC	?size@?$basic_string@DU?$char_traits@D@std@@V?$allocator@D@2@@std@@QBEIXZ ; std::basic_string<char,std::char_traits<char>,std::allocator<char> >::size
; Function compile flags: /Ogty
; File c:\program files\microsoft visual studio .net 2003\vc7\include\xstring
;	COMDAT ?size@?$basic_string@DU?$char_traits@D@std@@V?$allocator@D@2@@std@@QBEIXZ
_TEXT	SEGMENT
?size@?$basic_string@DU?$char_traits@D@std@@V?$allocator@D@2@@std@@QBEIXZ PROC NEAR ; std::basic_string<char,std::char_traits<char>,std::allocator<char> >::size, COMDAT
; _this$ = ecx

; 1109 : 		return (_Mysize);

  00000	8b 41 14	 mov	 eax, DWORD PTR [ecx+20]

; 1110 : 		}

  00003	c3		 ret	 0
?size@?$basic_string@DU?$char_traits@D@std@@V?$allocator@D@2@@std@@QBEIXZ ENDP ; std::basic_string<char,std::char_traits<char>,std::allocator<char> >::size
_TEXT	ENDS
PUBLIC	?GetString@?$CSimpleStringT@D$0A@@ATL@@QBEPBDXZ	; ATL::CSimpleStringT<char,0>::GetString
; Function compile flags: /Ogty
; File c:\program files\microsoft visual studio .net 2003\vc7\atlmfc\include\atlsimpstr.h
;	COMDAT ?GetString@?$CSimpleStringT@D$0A@@ATL@@QBEPBDXZ
_TEXT	SEGMENT
?GetString@?$CSimpleStringT@D$0A@@ATL@@QBEPBDXZ PROC NEAR ; ATL::CSimpleStringT<char,0>::GetString, COMDAT
; _this$ = ecx

; 510  : 		return( m_pszData );

  00000	8b 01		 mov	 eax, DWORD PTR [ecx]

; 511  : 	}

  00002	c3		 ret	 0
?GetString@?$CSimpleStringT@D$0A@@ATL@@QBEPBDXZ ENDP	; ATL::CSimpleStringT<char,0>::GetString
_TEXT	ENDS
PUBLIC	?StringLength@?$CSimpleStringT@D$0A@@ATL@@SAHPBD@Z ; ATL::CSimpleStringT<char,0>::StringLength
; Function compile flags: /Ogty
;	COMDAT ?StringLength@?$CSimpleStringT@D$0A@@ATL@@SAHPBD@Z
_TEXT	SEGMENT
_psz$ = 8						; size = 4
?StringLength@?$CSimpleStringT@D$0A@@ATL@@SAHPBD@Z PROC NEAR ; ATL::CSimpleStringT<char,0>::StringLength, COMDAT

; 678  : 		if( psz == NULL )

  00000	8b 44 24 04	 mov	 eax, DWORD PTR _psz$[esp-4]
  00004	85 c0		 test	 eax, eax
  00006	75 01		 jne	 SHORT $L184226

; 683  : 	}

  00008	c3		 ret	 0
$L184226:

; 679  : 		{
; 680  : 			return( 0 );
; 681  : 		}
; 682  : 		return( int( strlen( psz ) ) );

  00009	8d 50 01	 lea	 edx, DWORD PTR [eax+1]
  0000c	8d 64 24 00	 npad	 4
$L206867:
  00010	8a 08		 mov	 cl, BYTE PTR [eax]
  00012	40		 inc	 eax
  00013	84 c9		 test	 cl, cl
  00015	75 f9		 jne	 SHORT $L206867
  00017	2b c2		 sub	 eax, edx

; 683  : 	}

  00019	c3		 ret	 0
?StringLength@?$CSimpleStringT@D$0A@@ATL@@SAHPBD@Z ENDP	; ATL::CSimpleStringT<char,0>::StringLength
_TEXT	ENDS
PUBLIC	?GetData@?$CSimpleStringT@D$0A@@ATL@@ABEPAUCStringData@2@XZ ; ATL::CSimpleStringT<char,0>::GetData
; Function compile flags: /Ogty
;	COMDAT ?GetData@?$CSimpleStringT@D$0A@@ATL@@ABEPAUCStringData@2@XZ
_TEXT	SEGMENT
?GetData@?$CSimpleStringT@D$0A@@ATL@@ABEPAUCStringData@2@XZ PROC NEAR ; ATL::CSimpleStringT<char,0>::GetData, COMDAT
; _this$ = ecx

; 731  : 		return( reinterpret_cast< CStringData* >( m_pszData )-1 );

  00000	8b 01		 mov	 eax, DWORD PTR [ecx]
  00002	83 e8 10	 sub	 eax, 16			; 00000010H

; 732  : 	}

  00005	c3		 ret	 0
?GetData@?$CSimpleStringT@D$0A@@ATL@@ABEPAUCStringData@2@XZ ENDP ; ATL::CSimpleStringT<char,0>::GetData
_TEXT	ENDS
PUBLIC	?SetLength@?$CSimpleStringT@D$0A@@ATL@@AAEXH@Z	; ATL::CSimpleStringT<char,0>::SetLength
; Function compile flags: /Ogty
;	COMDAT ?SetLength@?$CSimpleStringT@D$0A@@ATL@@AAEXH@Z
_TEXT	SEGMENT
_nLength$ = 8						; size = 4
?SetLength@?$CSimpleStringT@D$0A@@ATL@@AAEXH@Z PROC NEAR ; ATL::CSimpleStringT<char,0>::SetLength, COMDAT
; _this$ = ecx

; 790  : 		ATLASSERT( nLength >= 0 );
; 791  : 		ATLASSERT( nLength <= GetData()->nAllocLength );
; 792  : 
; 793  : 		if( nLength < 0 || nLength > GetData()->nAllocLength)

  00000	8b 44 24 04	 mov	 eax, DWORD PTR _nLength$[esp-4]
  00004	85 c0		 test	 eax, eax
  00006	7c 13		 jl	 SHORT $L184241
  00008	8b 11		 mov	 edx, DWORD PTR [ecx]
  0000a	3b 42 f8	 cmp	 eax, DWORD PTR [edx-8]
  0000d	7f 0c		 jg	 SHORT $L184241

; 794  : 			AtlThrow(E_INVALIDARG);
; 795  : 			
; 796  : 		GetData()->nDataLength = nLength;

  0000f	89 42 f4	 mov	 DWORD PTR [edx-12], eax

; 797  : 		m_pszData[nLength] = 0;

  00012	8b 09		 mov	 ecx, DWORD PTR [ecx]
  00014	c6 04 08 00	 mov	 BYTE PTR [eax+ecx], 0

; 798  : 	}

  00018	c2 04 00	 ret	 4
$L184241:
  0001b	68 57 00 07 80	 push	 -2147024809		; 80070057H
  00020	e8 00 00 00 00	 call	 ?AtlThrow@ATL@@YGXJ@Z	; ATL::AtlThrow
$L206878:
  00025	cc		 int	 3
?SetLength@?$CSimpleStringT@D$0A@@ATL@@AAEXH@Z ENDP	; ATL::CSimpleStringT<char,0>::SetLength
_TEXT	ENDS
PUBLIC	?FindStringResourceInstance@?$StrTraitMFC@DV?$ChTraitsCRT@D@ATL@@@@SAPAUHINSTANCE__@@I@Z ; StrTraitMFC<char,ATL::ChTraitsCRT<char> >::FindStringResourceInstance
EXTRN	?AfxFindStringResourceHandle@@YGPAUHINSTANCE__@@I@Z:NEAR ; AfxFindStringResourceHandle
; Function compile flags: /Ogty
; File c:\program files\microsoft visual studio .net 2003\vc7\atlmfc\include\afxstr.h
;	COMDAT ?FindStringResourceInstance@?$StrTraitMFC@DV?$ChTraitsCRT@D@ATL@@@@SAPAUHINSTANCE__@@I@Z
_TEXT	SEGMENT
_nID$ = 8						; size = 4
?FindStringResourceInstance@?$StrTraitMFC@DV?$ChTraitsCRT@D@ATL@@@@SAPAUHINSTANCE__@@I@Z PROC NEAR ; StrTraitMFC<char,ATL::ChTraitsCRT<char> >::FindStringResourceInstance, COMDAT

; 45   : 		return( AfxFindStringResourceHandle( nID ) );

  00000	8b 44 24 04	 mov	 eax, DWORD PTR _nID$[esp-4]
  00004	50		 push	 eax
  00005	e8 00 00 00 00	 call	 ?AfxFindStringResourceHandle@@YGPAUHINSTANCE__@@I@Z ; AfxFindStringResourceHandle

; 46   : 	}

  0000a	c3		 ret	 0
?FindStringResourceInstance@?$StrTraitMFC@DV?$ChTraitsCRT@D@ATL@@@@SAPAUHINSTANCE__@@I@Z ENDP ; StrTraitMFC<char,ATL::ChTraitsCRT<char> >::FindStringResourceInstance
_TEXT	ENDS
PUBLIC	?GetDefaultManager@?$StrTraitMFC@DV?$ChTraitsCRT@D@ATL@@@@SAPAUIAtlStringMgr@ATL@@XZ ; StrTraitMFC<char,ATL::ChTraitsCRT<char> >::GetDefaultManager
EXTRN	?AfxGetStringManager@@YGPAUIAtlStringMgr@ATL@@XZ:NEAR ; AfxGetStringManager
; Function compile flags: /Ogty
;	COMDAT ?GetDefaultManager@?$StrTraitMFC@DV?$ChTraitsCRT@D@ATL@@@@SAPAUIAtlStringMgr@ATL@@XZ
_TEXT	SEGMENT
?GetDefaultManager@?$StrTraitMFC@DV?$ChTraitsCRT@D@ATL@@@@SAPAUIAtlStringMgr@ATL@@XZ PROC NEAR ; StrTraitMFC<char,ATL::ChTraitsCRT<char> >::GetDefaultManager, COMDAT

; 50   : 		return( AfxGetStringManager() );

  00000	e9 00 00 00 00	 jmp	 ?AfxGetStringManager@@YGPAUIAtlStringMgr@ATL@@XZ ; AfxGetStringManager
?GetDefaultManager@?$StrTraitMFC@DV?$ChTraitsCRT@D@ATL@@@@SAPAUIAtlStringMgr@ATL@@XZ ENDP ; StrTraitMFC<char,ATL::ChTraitsCRT<char> >::GetDefaultManager
_TEXT	ENDS
PUBLIC	?_Myptr@?$basic_string@DU?$char_traits@D@std@@V?$allocator@D@2@@std@@QBEPBDXZ ; std::basic_string<char,std::char_traits<char>,std::allocator<char> >::_Myptr
; Function compile flags: /Ogty
; File c:\program files\microsoft visual studio .net 2003\vc7\include\xstring
;	COMDAT ?_Myptr@?$basic_string@DU?$char_traits@D@std@@V?$allocator@D@2@@std@@QBEPBDXZ
_TEXT	SEGMENT
?_Myptr@?$basic_string@DU?$char_traits@D@std@@V?$allocator@D@2@@std@@QBEPBDXZ PROC NEAR ; std::basic_string<char,std::char_traits<char>,std::allocator<char> >::_Myptr, COMDAT
; _this$ = ecx

; 1537 : 		return (_BUF_SIZE <= _Myres ? _Bx._Ptr : _Bx._Buf);

  00000	83 79 18 10	 cmp	 DWORD PTR [ecx+24], 16	; 00000010H
  00004	72 04		 jb	 SHORT $L206886
  00006	8b 41 04	 mov	 eax, DWORD PTR [ecx+4]

; 1538 : 		}

  00009	c3		 ret	 0
$L206886:

; 1537 : 		return (_BUF_SIZE <= _Myres ? _Bx._Ptr : _Bx._Buf);

  0000a	8d 41 04	 lea	 eax, DWORD PTR [ecx+4]

; 1538 : 		}

  0000d	c3		 ret	 0
?_Myptr@?$basic_string@DU?$char_traits@D@std@@V?$allocator@D@2@@std@@QBEPBDXZ ENDP ; std::basic_string<char,std::char_traits<char>,std::allocator<char> >::_Myptr
_TEXT	ENDS
PUBLIC	??0?$allocator@D@std@@QAE@XZ			; std::allocator<char>::allocator<char>
; Function compile flags: /Ogty
; File c:\program files\microsoft visual studio .net 2003\vc7\include\xmemory
;	COMDAT ??0?$allocator@D@std@@QAE@XZ
_TEXT	SEGMENT
??0?$allocator@D@std@@QAE@XZ PROC NEAR			; std::allocator<char>::allocator<char>, COMDAT
; _this$ = ecx

; 111  : 	allocator()

  00000	8b c1		 mov	 eax, ecx

; 112  : 		{	// construct default allocator (do nothing)
; 113  : 		}

  00002	c3		 ret	 0
??0?$allocator@D@std@@QAE@XZ ENDP			; std::allocator<char>::allocator<char>
_TEXT	ENDS
PUBLIC	??0?$allocator@D@std@@QAE@ABV01@@Z		; std::allocator<char>::allocator<char>
; Function compile flags: /Ogty
;	COMDAT ??0?$allocator@D@std@@QAE@ABV01@@Z
_TEXT	SEGMENT
___formal$ = 8						; size = 4
??0?$allocator@D@std@@QAE@ABV01@@Z PROC NEAR		; std::allocator<char>::allocator<char>, COMDAT
; _this$ = ecx

; 115  : 	allocator(const allocator<_Ty>&)

  00000	8b c1		 mov	 eax, ecx

; 116  : 		{	// construct by copying (do nothing)
; 117  : 		}

  00002	c2 04 00	 ret	 4
??0?$allocator@D@std@@QAE@ABV01@@Z ENDP			; std::allocator<char>::allocator<char>
_TEXT	ENDS
PUBLIC	?Attach@?$CSimpleStringT@D$0A@@ATL@@AAEXPAUCStringData@2@@Z ; ATL::CSimpleStringT<char,0>::Attach
; Function compile flags: /Ogty
; File c:\program files\microsoft visual studio .net 2003\vc7\atlmfc\include\atlsimpstr.h
;	COMDAT ?Attach@?$CSimpleStringT@D$0A@@ATL@@AAEXPAUCStringData@2@@Z
_TEXT	SEGMENT
_pData$ = 8						; size = 4
?Attach@?$CSimpleStringT@D$0A@@ATL@@AAEXPAUCStringData@2@@Z PROC NEAR ; ATL::CSimpleStringT<char,0>::Attach, COMDAT
; _this$ = ecx

; 712  : 		m_pszData = static_cast< PXSTR >( pData->data() );

  00000	8b 44 24 04	 mov	 eax, DWORD PTR _pData$[esp-4]
  00004	83 c0 10	 add	 eax, 16			; 00000010H
  00007	89 01		 mov	 DWORD PTR [ecx], eax

; 713  : 	}

  00009	c2 04 00	 ret	 4
?Attach@?$CSimpleStringT@D$0A@@ATL@@AAEXPAUCStringData@2@@Z ENDP ; ATL::CSimpleStringT<char,0>::Attach
_TEXT	ENDS
PUBLIC	?GetBaseTypeLength@?$ChTraitsCRT@D@ATL@@SAHPBGH@Z ; ATL::ChTraitsCRT<char>::GetBaseTypeLength
EXTRN	__imp__WideCharToMultiByte@32:NEAR
; Function compile flags: /Ogty
; File c:\program files\microsoft visual studio .net 2003\vc7\atlmfc\include\cstringt.h
;	COMDAT ?GetBaseTypeLength@?$ChTraitsCRT@D@ATL@@SAHPBGH@Z
_TEXT	SEGMENT
_pszSource$ = 8						; size = 4
_nLength$ = 12						; size = 4
?GetBaseTypeLength@?$ChTraitsCRT@D@ATL@@SAHPBGH@Z PROC NEAR ; ATL::ChTraitsCRT<char>::GetBaseTypeLength, COMDAT

; 437  : 		// Returns required buffer length in XCHARs
; 438  : 		return ::WideCharToMultiByte( _AtlGetConversionACP(), 0, pszSource, nLength, NULL, 0, NULL, NULL );

  00000	ff 15 00 00 00
	00		 call	 DWORD PTR ?g_pfnGetThreadACP@ATL@@3P6GIXZA ; ATL::g_pfnGetThreadACP
  00006	8b 4c 24 08	 mov	 ecx, DWORD PTR _nLength$[esp-4]
  0000a	8b 54 24 04	 mov	 edx, DWORD PTR _pszSource$[esp-4]
  0000e	6a 00		 push	 0
  00010	6a 00		 push	 0
  00012	6a 00		 push	 0
  00014	6a 00		 push	 0
  00016	51		 push	 ecx
  00017	52		 push	 edx
  00018	6a 00		 push	 0
  0001a	50		 push	 eax
  0001b	ff 15 00 00 00
	00		 call	 DWORD PTR __imp__WideCharToMultiByte@32

; 439  : 	}

  00021	c3		 ret	 0
?GetBaseTypeLength@?$ChTraitsCRT@D@ATL@@SAHPBGH@Z ENDP	; ATL::ChTraitsCRT<char>::GetBaseTypeLength
_TEXT	ENDS
PUBLIC	?ConvertToBaseType@?$ChTraitsCRT@D@ATL@@SAXPADHPBGH@Z ; ATL::ChTraitsCRT<char>::ConvertToBaseType
; Function compile flags: /Ogty
;	COMDAT ?ConvertToBaseType@?$ChTraitsCRT@D@ATL@@SAXPADHPBGH@Z
_TEXT	SEGMENT
_pszDest$ = 8						; size = 4
_nDestLength$ = 12					; size = 4
_pszSrc$ = 16						; size = 4
_nSrcLength$ = 20					; size = 4
?ConvertToBaseType@?$ChTraitsCRT@D@ATL@@SAXPADHPBGH@Z PROC NEAR ; ATL::ChTraitsCRT<char>::ConvertToBaseType, COMDAT

; 452  : 		// nLen is in XCHARs
; 453  : 		::WideCharToMultiByte( _AtlGetConversionACP(), 0, pszSrc, nSrcLength, pszDest, nDestLength, NULL, NULL );

  00000	8b 44 24 08	 mov	 eax, DWORD PTR _nDestLength$[esp-4]
  00004	8b 4c 24 04	 mov	 ecx, DWORD PTR _pszDest$[esp-4]
  00008	8b 54 24 10	 mov	 edx, DWORD PTR _nSrcLength$[esp-4]
  0000c	6a 00		 push	 0
  0000e	6a 00		 push	 0
  00010	50		 push	 eax
  00011	8b 44 24 18	 mov	 eax, DWORD PTR _pszSrc$[esp+8]
  00015	51		 push	 ecx
  00016	52		 push	 edx
  00017	50		 push	 eax
  00018	6a 00		 push	 0
  0001a	ff 15 00 00 00
	00		 call	 DWORD PTR ?g_pfnGetThreadACP@ATL@@3P6GIXZA ; ATL::g_pfnGetThreadACP
  00020	50		 push	 eax
  00021	ff 15 00 00 00
	00		 call	 DWORD PTR __imp__WideCharToMultiByte@32

; 454  : 	}

  00027	c3		 ret	 0
?ConvertToBaseType@?$ChTraitsCRT@D@ATL@@SAXPADHPBGH@Z ENDP ; ATL::ChTraitsCRT<char>::ConvertToBaseType
_TEXT	ENDS
PUBLIC	?_Myptr@?$basic_string@DU?$char_traits@D@std@@V?$allocator@D@2@@std@@QAEPADXZ ; std::basic_string<char,std::char_traits<char>,std::allocator<char> >::_Myptr
; Function compile flags: /Ogty
; File c:\program files\microsoft visual studio .net 2003\vc7\include\xstring
;	COMDAT ?_Myptr@?$basic_string@DU?$char_traits@D@std@@V?$allocator@D@2@@std@@QAEPADXZ
_TEXT	SEGMENT
?_Myptr@?$basic_string@DU?$char_traits@D@std@@V?$allocator@D@2@@std@@QAEPADXZ PROC NEAR ; std::basic_string<char,std::char_traits<char>,std::allocator<char> >::_Myptr, COMDAT
; _this$ = ecx

; 1532 : 		return (_BUF_SIZE <= _Myres ? _Bx._Ptr : _Bx._Buf);

  00000	83 79 18 10	 cmp	 DWORD PTR [ecx+24], 16	; 00000010H
  00004	72 04		 jb	 SHORT $L206910
  00006	8b 41 04	 mov	 eax, DWORD PTR [ecx+4]

; 1533 : 		}

  00009	c3		 ret	 0
$L206910:

; 1532 : 		return (_BUF_SIZE <= _Myres ? _Bx._Ptr : _Bx._Buf);

  0000a	8d 41 04	 lea	 eax, DWORD PTR [ecx+4]

; 1533 : 		}

  0000d	c3		 ret	 0
?_Myptr@?$basic_string@DU?$char_traits@D@std@@V?$allocator@D@2@@std@@QAEPADXZ ENDP ; std::basic_string<char,std::char_traits<char>,std::allocator<char> >::_Myptr
_TEXT	ENDS
PUBLIC	?deallocate@?$allocator@D@std@@QAEXPADI@Z	; std::allocator<char>::deallocate
; Function compile flags: /Ogty
; File c:\program files\microsoft visual studio .net 2003\vc7\include\xmemory
;	COMDAT ?deallocate@?$allocator@D@std@@QAEXPADI@Z
_TEXT	SEGMENT
__Ptr$ = 8						; size = 4
___formal$ = 12						; size = 4
?deallocate@?$allocator@D@std@@QAEXPADI@Z PROC NEAR	; std::allocator<char>::deallocate, COMDAT
; _this$ = ecx

; 132  : 		operator delete(_Ptr);

  00000	8b 44 24 04	 mov	 eax, DWORD PTR __Ptr$[esp-4]
  00004	50		 push	 eax
  00005	e8 00 00 00 00	 call	 ??3@YAXPAX@Z		; operator delete
  0000a	59		 pop	 ecx

; 133  : 		}

  0000b	c2 08 00	 ret	 8
?deallocate@?$allocator@D@std@@QAEXPADI@Z ENDP		; std::allocator<char>::deallocate
_TEXT	ENDS
PUBLIC	?CopyChars@?$CSimpleStringT@D$0A@@ATL@@SAXPADPBDH@Z ; ATL::CSimpleStringT<char,0>::CopyChars
; Function compile flags: /Ogty
; File c:\program files\microsoft visual studio .net 2003\vc7\atlmfc\include\atlsimpstr.h
;	COMDAT ?CopyChars@?$CSimpleStringT@D$0A@@ATL@@SAXPADPBDH@Z
_TEXT	SEGMENT
_pchDest$ = 8						; size = 4
_pchSrc$ = 12						; size = 4
_nChars$ = 16						; size = 4
?CopyChars@?$CSimpleStringT@D$0A@@ATL@@SAXPADPBDH@Z PROC NEAR ; ATL::CSimpleStringT<char,0>::CopyChars, COMDAT

; 653  : 		memcpy( pchDest, pchSrc, nChars*sizeof( XCHAR ) );

  00000	8b 4c 24 0c	 mov	 ecx, DWORD PTR _nChars$[esp-4]
  00004	56		 push	 esi
  00005	8b 74 24 0c	 mov	 esi, DWORD PTR _pchSrc$[esp]
  00009	8b c1		 mov	 eax, ecx
  0000b	57		 push	 edi
  0000c	8b 7c 24 0c	 mov	 edi, DWORD PTR _pchDest$[esp+4]
  00010	c1 e9 02	 shr	 ecx, 2
  00013	f3 a5		 rep movsd
  00015	8b c8		 mov	 ecx, eax
  00017	83 e1 03	 and	 ecx, 3
  0001a	f3 a4		 rep movsb
  0001c	5f		 pop	 edi
  0001d	5e		 pop	 esi

; 654  : 	}

  0001e	c3		 ret	 0
?CopyChars@?$CSimpleStringT@D$0A@@ATL@@SAXPADPBDH@Z ENDP ; ATL::CSimpleStringT<char,0>::CopyChars
_TEXT	ENDS
PUBLIC	?CopyCharsOverlapped@?$CSimpleStringT@D$0A@@ATL@@SAXPADPBDH@Z ; ATL::CSimpleStringT<char,0>::CopyCharsOverlapped
; Function compile flags: /Ogty
;	COMDAT ?CopyCharsOverlapped@?$CSimpleStringT@D$0A@@ATL@@SAXPADPBDH@Z
_TEXT	SEGMENT
_pchDest$ = 8						; size = 4
_pchSrc$ = 12						; size = 4
_nChars$ = 16						; size = 4
?CopyCharsOverlapped@?$CSimpleStringT@D$0A@@ATL@@SAXPADPBDH@Z PROC NEAR ; ATL::CSimpleStringT<char,0>::CopyCharsOverlapped, COMDAT

; 657  : 		memmove( pchDest, pchSrc, nChars*sizeof( XCHAR ) );

  00000	e9 00 00 00 00	 jmp	 _memmove
?CopyCharsOverlapped@?$CSimpleStringT@D$0A@@ATL@@SAXPADPBDH@Z ENDP ; ATL::CSimpleStringT<char,0>::CopyCharsOverlapped
_TEXT	ENDS
PUBLIC	?ThrowMemoryException@?$CSimpleStringT@D$0A@@ATL@@KAXXZ ; ATL::CSimpleStringT<char,0>::ThrowMemoryException
; Function compile flags: /Ogty
;	COMDAT ?ThrowMemoryException@?$CSimpleStringT@D$0A@@ATL@@KAXXZ
_TEXT	SEGMENT
?ThrowMemoryException@?$CSimpleStringT@D$0A@@ATL@@KAXXZ PROC NEAR ; ATL::CSimpleStringT<char,0>::ThrowMemoryException, COMDAT

; 705  : 		AtlThrow( E_OUTOFMEMORY );

  00000	68 0e 00 07 80	 push	 -2147024882		; 8007000eH
  00005	e8 00 00 00 00	 call	 ?AtlThrow@ATL@@YGXJ@Z	; ATL::AtlThrow
$L206920:
  0000a	cc		 int	 3
?ThrowMemoryException@?$CSimpleStringT@D$0A@@ATL@@KAXXZ ENDP ; ATL::CSimpleStringT<char,0>::ThrowMemoryException
_TEXT	ENDS
PUBLIC	?Fork@?$CSimpleStringT@D$0A@@ATL@@AAEXH@Z	; ATL::CSimpleStringT<char,0>::Fork
; Function compile flags: /Ogty
;	COMDAT ?Fork@?$CSimpleStringT@D$0A@@ATL@@AAEXH@Z
_TEXT	SEGMENT
_this$ = -4						; size = 4
tv181 = 8						; size = 4
_nLength$ = 8						; size = 4
?Fork@?$CSimpleStringT@D$0A@@ATL@@AAEXH@Z PROC NEAR	; ATL::CSimpleStringT<char,0>::Fork, COMDAT
; _this$ = ecx

; 715  : 	{

  00000	51		 push	 ecx
  00001	53		 push	 ebx

; 716  : 		CStringData* pOldData = GetData();

  00002	8b 19		 mov	 ebx, DWORD PTR [ecx]
  00004	83 eb 10	 sub	 ebx, 16			; 00000010H
  00007	55		 push	 ebp

; 717  : 		int nOldLength = pOldData->nDataLength;

  00008	8b 6b 04	 mov	 ebp, DWORD PTR [ebx+4]
  0000b	89 4c 24 08	 mov	 DWORD PTR _this$[esp+12], ecx

; 718  : 		CStringData* pNewData = pOldData->pStringMgr->Clone()->Allocate( nLength, sizeof( XCHAR ) );

  0000f	8b 0b		 mov	 ecx, DWORD PTR [ebx]
  00011	8b 01		 mov	 eax, DWORD PTR [ecx]
  00013	56		 push	 esi
  00014	ff 50 10	 call	 DWORD PTR [eax+16]
  00017	8b 74 24 14	 mov	 esi, DWORD PTR _nLength$[esp+12]
  0001b	8b 10		 mov	 edx, DWORD PTR [eax]
  0001d	6a 01		 push	 1
  0001f	56		 push	 esi
  00020	8b c8		 mov	 ecx, eax
  00022	ff 12		 call	 DWORD PTR [edx]

; 719  : 		if( pNewData == NULL )

  00024	85 c0		 test	 eax, eax
  00026	75 05		 jne	 SHORT $L185534

; 720  : 		{
; 721  : 			ThrowMemoryException();

  00028	e8 00 00 00 00	 call	 ?ThrowMemoryException@?$CSimpleStringT@D$0A@@ATL@@KAXXZ ; ATL::CSimpleStringT<char,0>::ThrowMemoryException
$L185534:

; 722  : 		}
; 723  : 		int nCharsToCopy = ((nOldLength < nLength) ? nOldLength : nLength)+1;  // Copy '\0'

  0002d	3b ee		 cmp	 ebp, esi
  0002f	7d 02		 jge	 SHORT $L206924
  00031	8b f5		 mov	 esi, ebp
$L206924:
  00033	8d 4e 01	 lea	 ecx, DWORD PTR [esi+1]

; 724  : 		CopyChars( PXSTR( pNewData->data() ), PCXSTR( pOldData->data() ), nCharsToCopy );

  00036	8b d1		 mov	 edx, ecx
  00038	57		 push	 edi
  00039	c1 e9 02	 shr	 ecx, 2
  0003c	8d 78 10	 lea	 edi, DWORD PTR [eax+16]
  0003f	89 7c 24 18	 mov	 DWORD PTR tv181[esp+16], edi
  00043	8d 73 10	 lea	 esi, DWORD PTR [ebx+16]
  00046	f3 a5		 rep movsd
  00048	8b ca		 mov	 ecx, edx
  0004a	83 e1 03	 and	 ecx, 3
  0004d	f3 a4		 rep movsb

; 725  : 		pNewData->nDataLength = nOldLength;

  0004f	89 68 04	 mov	 DWORD PTR [eax+4], ebp

; 726  : 		pOldData->Release();

  00052	8d 43 0c	 lea	 eax, DWORD PTR [ebx+12]
  00055	83 c9 ff	 or	 ecx, -1
  00058	f0 0f c1 08	 lock	  xadd	 DWORD PTR [eax], ecx
  0005c	49		 dec	 ecx
  0005d	85 c9		 test	 ecx, ecx
  0005f	5f		 pop	 edi
  00060	7f 08		 jg	 SHORT $L206940
  00062	8b 0b		 mov	 ecx, DWORD PTR [ebx]
  00064	8b 11		 mov	 edx, DWORD PTR [ecx]
  00066	53		 push	 ebx
  00067	ff 52 04	 call	 DWORD PTR [edx+4]
$L206940:

; 727  : 		Attach( pNewData );

  0006a	8b 44 24 14	 mov	 eax, DWORD PTR tv181[esp+12]
  0006e	8b 4c 24 0c	 mov	 ecx, DWORD PTR _this$[esp+16]
  00072	5e		 pop	 esi
  00073	5d		 pop	 ebp
  00074	89 01		 mov	 DWORD PTR [ecx], eax
  00076	5b		 pop	 ebx

; 728  : 	}

  00077	59		 pop	 ecx
  00078	c2 04 00	 ret	 4
$L206949:
?Fork@?$CSimpleStringT@D$0A@@ATL@@AAEXH@Z ENDP		; ATL::CSimpleStringT<char,0>::Fork
_TEXT	ENDS
PUBLIC	?Reallocate@?$CSimpleStringT@D$0A@@ATL@@AAEXH@Z	; ATL::CSimpleStringT<char,0>::Reallocate
; Function compile flags: /Ogty
;	COMDAT ?Reallocate@?$CSimpleStringT@D$0A@@ATL@@AAEXH@Z
_TEXT	SEGMENT
_nLength$ = 8						; size = 4
?Reallocate@?$CSimpleStringT@D$0A@@ATL@@AAEXH@Z PROC NEAR ; ATL::CSimpleStringT<char,0>::Reallocate, COMDAT
; _this$ = ecx

; 776  : 	{

  00000	56		 push	 esi
  00001	57		 push	 edi

; 777  : 		CStringData* pOldData = GetData();
; 778  : 		ATLASSERT( pOldData->nAllocLength < nLength );
; 779  : 		IAtlStringMgr* pStringMgr = pOldData->pStringMgr;
; 780  : 		CStringData* pNewData = pStringMgr->Reallocate( pOldData, nLength, sizeof( XCHAR ) );

  00002	8b 7c 24 0c	 mov	 edi, DWORD PTR _nLength$[esp+4]
  00006	8b f1		 mov	 esi, ecx
  00008	8b 06		 mov	 eax, DWORD PTR [esi]
  0000a	8b 48 f0	 mov	 ecx, DWORD PTR [eax-16]
  0000d	8b 11		 mov	 edx, DWORD PTR [ecx]
  0000f	83 e8 10	 sub	 eax, 16			; 00000010H
  00012	6a 01		 push	 1
  00014	57		 push	 edi
  00015	50		 push	 eax
  00016	ff 52 08	 call	 DWORD PTR [edx+8]

; 781  : 		if( pNewData == NULL )

  00019	85 c0		 test	 eax, eax
  0001b	75 05		 jne	 SHORT $L185543

; 782  : 		{
; 783  : 			ThrowMemoryException();

  0001d	e8 00 00 00 00	 call	 ?ThrowMemoryException@?$CSimpleStringT@D$0A@@ATL@@KAXXZ ; ATL::CSimpleStringT<char,0>::ThrowMemoryException
$L185543:

; 784  : 		}
; 785  : 		Attach( pNewData );

  00022	83 c0 10	 add	 eax, 16			; 00000010H
  00025	5f		 pop	 edi
  00026	89 06		 mov	 DWORD PTR [esi], eax
  00028	5e		 pop	 esi

; 786  : 	}

  00029	c2 04 00	 ret	 4
$L206963:
?Reallocate@?$CSimpleStringT@D$0A@@ATL@@AAEXH@Z ENDP	; ATL::CSimpleStringT<char,0>::Reallocate
_TEXT	ENDS
PUBLIC	?_Inside@?$basic_string@DU?$char_traits@D@std@@V?$allocator@D@2@@std@@IAE_NPBD@Z ; std::basic_string<char,std::char_traits<char>,std::allocator<char> >::_Inside
; Function compile flags: /Ogty
; File c:\program files\microsoft visual studio .net 2003\vc7\include\xstring
;	COMDAT ?_Inside@?$basic_string@DU?$char_traits@D@std@@V?$allocator@D@2@@std@@IAE_NPBD@Z
_TEXT	SEGMENT
__Ptr$ = 8						; size = 4
?_Inside@?$basic_string@DU?$char_traits@D@std@@V?$allocator@D@2@@std@@IAE_NPBD@Z PROC NEAR ; std::basic_string<char,std::char_traits<char>,std::allocator<char> >::_Inside, COMDAT
; _this$ = ecx

; 1494 : 		{	// test if _Ptr points inside string

  00000	56		 push	 esi

; 1495 : 		if (_Ptr < _Myptr() || _Myptr() + _Mysize <= _Ptr)

  00001	8b 71 18	 mov	 esi, DWORD PTR [ecx+24]
  00004	83 fe 10	 cmp	 esi, 16			; 00000010H
  00007	57		 push	 edi
  00008	8d 41 04	 lea	 eax, DWORD PTR [ecx+4]
  0000b	72 04		 jb	 SHORT $L206970
  0000d	8b 10		 mov	 edx, DWORD PTR [eax]
  0000f	eb 02		 jmp	 SHORT $L206971
$L206970:
  00011	8b d0		 mov	 edx, eax
$L206971:
  00013	8b 7c 24 0c	 mov	 edi, DWORD PTR __Ptr$[esp+4]
  00017	3b fa		 cmp	 edi, edx
  00019	72 17		 jb	 SHORT $L185560
  0001b	83 fe 10	 cmp	 esi, 16			; 00000010H
  0001e	72 02		 jb	 SHORT $L206978
  00020	8b 00		 mov	 eax, DWORD PTR [eax]
$L206978:
  00022	8b 49 14	 mov	 ecx, DWORD PTR [ecx+20]
  00025	03 c8		 add	 ecx, eax
  00027	3b cf		 cmp	 ecx, edi
  00029	76 07		 jbe	 SHORT $L185560
  0002b	5f		 pop	 edi

; 1497 : 		else
; 1498 : 			return (true);

  0002c	b0 01		 mov	 al, 1
  0002e	5e		 pop	 esi

; 1499 : 		}

  0002f	c2 04 00	 ret	 4
$L185560:
  00032	5f		 pop	 edi

; 1496 : 			return (false);	// don't ask

  00033	32 c0		 xor	 al, al
  00035	5e		 pop	 esi

; 1499 : 		}

  00036	c2 04 00	 ret	 4
?_Inside@?$basic_string@DU?$char_traits@D@std@@V?$allocator@D@2@@std@@IAE_NPBD@Z ENDP ; std::basic_string<char,std::char_traits<char>,std::allocator<char> >::_Inside
_TEXT	ENDS
PUBLIC	?max_size@?$allocator@D@std@@QBEIXZ		; std::allocator<char>::max_size
; Function compile flags: /Ogty
; File c:\program files\microsoft visual studio .net 2003\vc7\include\xmemory
;	COMDAT ?max_size@?$allocator@D@std@@QBEIXZ
_TEXT	SEGMENT
?max_size@?$allocator@D@std@@QBEIXZ PROC NEAR		; std::allocator<char>::max_size, COMDAT
; _this$ = ecx

; 157  : 		_SIZT _Count = (_SIZT)(-1) / sizeof (_Ty);
; 158  : 		return (0 < _Count ? _Count : 1);

  00000	83 c8 ff	 or	 eax, -1

; 159  : 		}

  00003	c3		 ret	 0
?max_size@?$allocator@D@std@@QBEIXZ ENDP		; std::allocator<char>::max_size
_TEXT	ENDS
PUBLIC	?GetAt@?$CFixedArray@UtagColorText@@@@QAEPAUtagColorText@@K@Z ; CFixedArray<tagColorText>::GetAt
; Function compile flags: /Ogty
; File c:\documents and settings\test\mes documents\source\virtuos_v17\build\program\_common\data.h
;	COMDAT ?GetAt@?$CFixedArray@UtagColorText@@@@QAEPAUtagColorText@@K@Z
_TEXT	SEGMENT
_dwIndex$ = 8						; size = 4
?GetAt@?$CFixedArray@UtagColorText@@@@QAEPAUtagColorText@@K@Z PROC NEAR ; CFixedArray<tagColorText>::GetAt, COMDAT
; _this$ = ecx

; 270  : 	if( dwIndex >= (DWORD)m_nMaxIndex )

  00000	8b 44 24 04	 mov	 eax, DWORD PTR _dwIndex$[esp-4]
  00004	3b 41 18	 cmp	 eax, DWORD PTR [ecx+24]
  00007	72 05		 jb	 SHORT $L186299

; 271  : 		return NULL;

  00009	33 c0		 xor	 eax, eax

; 273  : }

  0000b	c2 04 00	 ret	 4
$L186299:

; 272  : 	return (T*) m_apOffset[ dwIndex ];

  0000e	8b 49 08	 mov	 ecx, DWORD PTR [ecx+8]
  00011	8b 04 81	 mov	 eax, DWORD PTR [ecx+eax*4]

; 273  : }

  00014	c2 04 00	 ret	 4
?GetAt@?$CFixedArray@UtagColorText@@@@QAEPAUtagColorText@@K@Z ENDP ; CFixedArray<tagColorText>::GetAt
_TEXT	ENDS
PUBLIC	??$_Allocate@D@std@@YAPADIPAD@Z			; std::_Allocate<char>
; Function compile flags: /Ogty
; File c:\program files\microsoft visual studio .net 2003\vc7\include\xmemory
;	COMDAT ??$_Allocate@D@std@@YAPADIPAD@Z
_TEXT	SEGMENT
__Count$ = 8						; size = 4
___formal$ = 12						; size = 4
??$_Allocate@D@std@@YAPADIPAD@Z PROC NEAR		; std::_Allocate<char>, COMDAT

; 34   : 	return ((_Ty _FARQ *)operator new(_Count * sizeof (_Ty)));

  00000	8b 44 24 04	 mov	 eax, DWORD PTR __Count$[esp-4]
  00004	50		 push	 eax
  00005	e8 00 00 00 00	 call	 ??2@YAPAXI@Z		; operator new
  0000a	83 c4 04	 add	 esp, 4

; 35   : 	}

  0000d	c3		 ret	 0
??$_Allocate@D@std@@YAPADIPAD@Z ENDP			; std::_Allocate<char>
; Function compile flags: /Ogty
_TEXT	ENDS
;	COMDAT ??_GCTLord@@UAEPAXI@Z
_TEXT	SEGMENT
___flags$ = 8						; size = 4
??_GCTLord@@UAEPAXI@Z PROC NEAR				; CTLord::`scalar deleting destructor', COMDAT
; _this$ = ecx
  00000	56		 push	 esi
  00001	8b f1		 mov	 esi, ecx
  00003	e8 00 00 00 00	 call	 ??1CTLord@@UAE@XZ	; CTLord::~CTLord
  00008	f6 44 24 08 01	 test	 BYTE PTR ___flags$[esp], 1
  0000d	74 09		 je	 SHORT $L206990
  0000f	56		 push	 esi
  00010	e8 00 00 00 00	 call	 ??3@YAXPAX@Z		; operator delete
  00015	83 c4 04	 add	 esp, 4
$L206990:
  00018	8b c6		 mov	 eax, esi
  0001a	5e		 pop	 esi
  0001b	c2 04 00	 ret	 4
??_GCTLord@@UAEPAXI@Z ENDP				; CTLord::`scalar deleting destructor'
_TEXT	ENDS
PUBLIC	?Instance@CTLord@@SAPAV1@XZ			; CTLord::Instance
EXTRN	_atexit:NEAR
;	COMDAT ?sLord@?1??Instance@CTLord@@SAPAV2@XZ@4V2@A
; File c:\documents and settings\test\mes documents\source\virtuos_v17\build\program\databaseserver\tlord.cpp
_BSS	SEGMENT
?sLord@?1??Instance@CTLord@@SAPAV2@XZ@4V2@A DB 018H DUP (?) ; `CTLord::Instance'::`2'::sLord
_BSS	ENDS
;	COMDAT ?$S1@?1??Instance@CTLord@@SAPAV2@XZ@4IA
_BSS	SEGMENT
?$S1@?1??Instance@CTLord@@SAPAV2@XZ@4IA DD 01H DUP (?)	; `CTLord::Instance'::`2'::$S1
_BSS	ENDS
;	COMDAT xdata$x
xdata$x	SEGMENT
$T207002 DD	0ffffffffH
	DD	FLAT:$L206993
$T206999 DD	019930520H
	DD	01H
	DD	FLAT:$T207002
	DD	2 DUP(00H)
	DD	2 DUP(00H)
; Function compile flags: /Ogty
xdata$x	ENDS
;	COMDAT ?Instance@CTLord@@SAPAV1@XZ
_TEXT	SEGMENT
__$EHRec$ = -12						; size = 12
?Instance@CTLord@@SAPAV1@XZ PROC NEAR			; CTLord::Instance, COMDAT

; 65   : {

  00000	64 a1 00 00 00
	00		 mov	 eax, DWORD PTR fs:__except_list

; 66   : 	static	CTLord	sLord;

  00006	8a 0d 00 00 00
	00		 mov	 cl, BYTE PTR ?$S1@?1??Instance@CTLord@@SAPAV2@XZ@4IA
  0000c	6a ff		 push	 -1
  0000e	68 00 00 00 00	 push	 __ehhandler$?Instance@CTLord@@SAPAV1@XZ
  00013	50		 push	 eax
  00014	b8 01 00 00 00	 mov	 eax, 1
  00019	84 c8		 test	 cl, al
  0001b	64 89 25 00 00
	00 00		 mov	 DWORD PTR fs:__except_list, esp
  00022	75 39		 jne	 SHORT $L207000
  00024	09 05 00 00 00
	00		 or	 DWORD PTR ?$S1@?1??Instance@CTLord@@SAPAV2@XZ@4IA, eax
  0002a	b9 00 00 00 00	 mov	 ecx, OFFSET FLAT:?sLord@?1??Instance@CTLord@@SAPAV2@XZ@4V2@A
  0002f	c7 44 24 08 00
	00 00 00	 mov	 DWORD PTR __$EHRec$[esp+20], 0
  00037	e8 00 00 00 00	 call	 ??0CLord@@IAE@XZ	; CLord::CLord
  0003c	68 00 00 00 00	 push	 OFFSET FLAT:_$E2
  00041	c7 05 00 00 00
	00 00 00 00 00	 mov	 DWORD PTR ?sLord@?1??Instance@CTLord@@SAPAV2@XZ@4V2@A, OFFSET FLAT:??_7CTLord@@6B@
  0004b	c7 05 14 00 00
	00 00 00 00 00	 mov	 DWORD PTR ?sLord@?1??Instance@CTLord@@SAPAV2@XZ@4V2@A+20, 0
  00055	e8 00 00 00 00	 call	 _atexit
  0005a	83 c4 04	 add	 esp, 4
$L207000:

; 67   : 	return &sLord;
; 68   : }

  0005d	8b 0c 24	 mov	 ecx, DWORD PTR __$EHRec$[esp+12]
  00060	b8 00 00 00 00	 mov	 eax, OFFSET FLAT:?sLord@?1??Instance@CTLord@@SAPAV2@XZ@4V2@A
  00065	64 89 0d 00 00
	00 00		 mov	 DWORD PTR fs:__except_list, ecx
  0006c	83 c4 0c	 add	 esp, 12			; 0000000cH
  0006f	c3		 ret	 0
_TEXT	ENDS
;	COMDAT text$x
text$x	SEGMENT
$L206993:
  00000	a1 00 00 00 00	 mov	 eax, DWORD PTR ?$S1@?1??Instance@CTLord@@SAPAV2@XZ@4IA
  00005	83 e0 fe	 and	 eax, -2			; fffffffeH
  00008	a3 00 00 00 00	 mov	 DWORD PTR ?$S1@?1??Instance@CTLord@@SAPAV2@XZ@4IA, eax
  0000d	c3		 ret	 0
__ehhandler$?Instance@CTLord@@SAPAV1@XZ:
  0000e	b8 00 00 00 00	 mov	 eax, OFFSET FLAT:$T206999
  00013	e9 00 00 00 00	 jmp	 ___CxxFrameHandler
text$x	ENDS
?Instance@CTLord@@SAPAV1@XZ ENDP			; CTLord::Instance
; Function compile flags: /Ogty
;	COMDAT ??_GCTElection@@UAEPAXI@Z
_TEXT	SEGMENT
___flags$ = 8						; size = 4
??_GCTElection@@UAEPAXI@Z PROC NEAR			; CTElection::`scalar deleting destructor', COMDAT
; _this$ = ecx
  00000	56		 push	 esi
  00001	8b f1		 mov	 esi, ecx
  00003	e8 00 00 00 00	 call	 ??1CTElection@@UAE@XZ	; CTElection::~CTElection
  00008	f6 44 24 08 01	 test	 BYTE PTR ___flags$[esp], 1
  0000d	74 09		 je	 SHORT $L207007
  0000f	56		 push	 esi
  00010	e8 00 00 00 00	 call	 ??3@YAXPAX@Z		; operator delete
  00015	83 c4 04	 add	 esp, 4
$L207007:
  00018	8b c6		 mov	 eax, esi
  0001a	5e		 pop	 esi
  0001b	c2 04 00	 ret	 4
??_GCTElection@@UAEPAXI@Z ENDP				; CTElection::`scalar deleting destructor'
_TEXT	ENDS
PUBLIC	?stot@CTElection@@SAJPBD@Z			; CTElection::stot
PUBLIC	??_C@_0BE@HLJDCBPH@CTElection?4stot?3?5?$CFs?$AA@ ; `string'
EXTRN	_strncpy:NEAR
EXTRN	?Error@@YAPBDPBDZZ:NEAR				; Error
EXTRN	_atoi:NEAR
;	COMDAT ??_C@_0BE@HLJDCBPH@CTElection?4stot?3?5?$CFs?$AA@
; File c:\program files\microsoft visual studio .net 2003\vc7\atlmfc\include\atltime.inl
CONST	SEGMENT
??_C@_0BE@HLJDCBPH@CTElection?4stot?3?5?$CFs?$AA@ DB 'CTElection.stot: %s'
	DB	00H						; `string'
; Function compile flags: /Ogty
; File c:\documents and settings\test\mes documents\source\virtuos_v17\build\program\databaseserver\tlord.cpp
CONST	ENDS
;	COMDAT ?stot@CTElection@@SAJPBD@Z
_TEXT	SEGMENT
_szDay$ = -40						; size = 3
_szSec$ = -36						; size = 3
_szMonth$ = -32						; size = 3
_szHour$ = -28						; size = 3
_szMin$ = -24						; size = 3
_tm$ = -20						; size = 8
_szYear$ = -12						; size = 5
__$ArrayPad$ = -4					; size = 4
__$ReturnAddr$ = 4					; size = 4
_sz$ = 8						; size = 4
?stot@CTElection@@SAJPBD@Z PROC NEAR			; CTElection::stot, COMDAT

; 267  : {

  00000	83 ec 28	 sub	 esp, 40			; 00000028H
  00003	a1 00 00 00 00	 mov	 eax, DWORD PTR ___security_cookie
  00008	33 c4		 xor	 eax, esp
  0000a	53		 push	 ebx
  0000b	56		 push	 esi
  0000c	8b 74 24 34	 mov	 esi, DWORD PTR _sz$[esp+44]
  00010	89 44 24 2c	 mov	 DWORD PTR __$ArrayPad$[esp+48], eax

; 268  : 	if( strlen( sz ) != 14 )

  00014	8b c6		 mov	 eax, esi
  00016	8d 50 01	 lea	 edx, DWORD PTR [eax+1]
  00019	33 db		 xor	 ebx, ebx
  0001b	eb 03 8d 49 00	 npad	 5
$L207015:
  00020	8a 08		 mov	 cl, BYTE PTR [eax]
  00022	40		 inc	 eax
  00023	3a cb		 cmp	 cl, bl
  00025	75 f9		 jne	 SHORT $L207015
  00027	2b c2		 sub	 eax, edx
  00029	83 f8 0e	 cmp	 eax, 14			; 0000000eH
  0002c	74 0e		 je	 SHORT $L203666

; 269  : 		Error( "CTElection.stot: %s", sz );

  0002e	56		 push	 esi
  0002f	68 00 00 00 00	 push	 OFFSET FLAT:??_C@_0BE@HLJDCBPH@CTElection?4stot?3?5?$CFs?$AA@
  00034	e8 00 00 00 00	 call	 ?Error@@YAPBDPBDZZ	; Error
  00039	83 c4 08	 add	 esp, 8
$L203666:

; 270  : 	char szYear[5]	= { 0,};
; 271  : 	char szMonth[3]	= { 0,};
; 272  : 	char szDay[3]	= { 0,};
; 273  : 	char szHour[3]	= { 0,};
; 274  : 	char szMin[3]	= { 0,};
; 275  : 	char szSec[3]	= { 0, };
; 276  : 	strncpy( szYear, sz, 4 );

  0003c	6a 04		 push	 4
  0003e	8d 44 24 28	 lea	 eax, DWORD PTR _szYear$[esp+52]
  00042	56		 push	 esi
  00043	50		 push	 eax
  00044	88 5c 24 30	 mov	 BYTE PTR _szYear$[esp+60], bl
  00048	89 5c 24 31	 mov	 DWORD PTR _szYear$[esp+61], ebx
  0004c	88 5c 24 1c	 mov	 BYTE PTR _szMonth$[esp+60], bl
  00050	66 89 5c 24 1d	 mov	 WORD PTR _szMonth$[esp+61], bx
  00055	88 5c 24 14	 mov	 BYTE PTR _szDay$[esp+60], bl
  00059	66 89 5c 24 15	 mov	 WORD PTR _szDay$[esp+61], bx
  0005e	88 5c 24 20	 mov	 BYTE PTR _szHour$[esp+60], bl
  00062	66 89 5c 24 21	 mov	 WORD PTR _szHour$[esp+61], bx
  00067	88 5c 24 24	 mov	 BYTE PTR _szMin$[esp+60], bl
  0006b	66 89 5c 24 25	 mov	 WORD PTR _szMin$[esp+61], bx
  00070	88 5c 24 18	 mov	 BYTE PTR _szSec$[esp+60], bl
  00074	66 89 5c 24 19	 mov	 WORD PTR _szSec$[esp+61], bx
  00079	e8 00 00 00 00	 call	 _strncpy

; 277  : 	strncpy( szMonth, sz+4, 2 );

  0007e	6a 02		 push	 2
  00080	8d 4e 04	 lea	 ecx, DWORD PTR [esi+4]
  00083	51		 push	 ecx
  00084	8d 54 24 24	 lea	 edx, DWORD PTR _szMonth$[esp+68]
  00088	52		 push	 edx
  00089	e8 00 00 00 00	 call	 _strncpy

; 278  : 	strncpy( szDay, sz+6, 2 );

  0008e	6a 02		 push	 2
  00090	8d 46 06	 lea	 eax, DWORD PTR [esi+6]
  00093	50		 push	 eax
  00094	8d 4c 24 28	 lea	 ecx, DWORD PTR _szDay$[esp+80]
  00098	51		 push	 ecx
  00099	e8 00 00 00 00	 call	 _strncpy

; 279  : 	strncpy( szHour, sz+8, 2 );

  0009e	6a 02		 push	 2
  000a0	8d 56 08	 lea	 edx, DWORD PTR [esi+8]
  000a3	52		 push	 edx
  000a4	8d 44 24 40	 lea	 eax, DWORD PTR _szHour$[esp+92]
  000a8	50		 push	 eax
  000a9	e8 00 00 00 00	 call	 _strncpy

; 280  : 	strncpy( szMin, sz+10, 2 );

  000ae	6a 02		 push	 2
  000b0	8d 4e 0a	 lea	 ecx, DWORD PTR [esi+10]
  000b3	51		 push	 ecx
  000b4	8d 54 24 50	 lea	 edx, DWORD PTR _szMin$[esp+104]
  000b8	52		 push	 edx
  000b9	e8 00 00 00 00	 call	 _strncpy

; 281  : 	strncpy( szSec, sz+12, 2 );

  000be	6a 02		 push	 2
  000c0	83 c6 0c	 add	 esi, 12			; 0000000cH
  000c3	8d 44 24 4c	 lea	 eax, DWORD PTR _szSec$[esp+112]
  000c7	56		 push	 esi
  000c8	50		 push	 eax
  000c9	e8 00 00 00 00	 call	 _strncpy
  000ce	83 c4 48	 add	 esp, 72			; 00000048H

; 282  : 	CTime tm( atoi( szYear ), atoi( szMonth ), atoi( szDay ), atoi( szHour ), atoi( szMin ), atoi( szSec ) );

  000d1	8d 4c 24 0c	 lea	 ecx, DWORD PTR _szSec$[esp+48]
  000d5	6a ff		 push	 -1
  000d7	51		 push	 ecx
  000d8	e8 00 00 00 00	 call	 _atoi
  000dd	83 c4 04	 add	 esp, 4
  000e0	50		 push	 eax
  000e1	8d 54 24 20	 lea	 edx, DWORD PTR _szMin$[esp+56]
  000e5	52		 push	 edx
  000e6	e8 00 00 00 00	 call	 _atoi
  000eb	83 c4 04	 add	 esp, 4
  000ee	50		 push	 eax
  000ef	8d 44 24 20	 lea	 eax, DWORD PTR _szHour$[esp+60]
  000f3	50		 push	 eax
  000f4	e8 00 00 00 00	 call	 _atoi
  000f9	83 c4 04	 add	 esp, 4
  000fc	50		 push	 eax
  000fd	8d 4c 24 18	 lea	 ecx, DWORD PTR _szDay$[esp+64]
  00101	51		 push	 ecx
  00102	e8 00 00 00 00	 call	 _atoi
  00107	83 c4 04	 add	 esp, 4
  0010a	50		 push	 eax
  0010b	8d 54 24 24	 lea	 edx, DWORD PTR _szMonth$[esp+68]
  0010f	52		 push	 edx
  00110	e8 00 00 00 00	 call	 _atoi
  00115	83 c4 04	 add	 esp, 4
  00118	50		 push	 eax
  00119	8d 44 24 3c	 lea	 eax, DWORD PTR _szYear$[esp+72]
  0011d	50		 push	 eax
  0011e	e8 00 00 00 00	 call	 _atoi
  00123	83 c4 04	 add	 esp, 4
  00126	50		 push	 eax
  00127	8d 4c 24 38	 lea	 ecx, DWORD PTR _tm$[esp+76]
  0012b	e8 00 00 00 00	 call	 ??0CTime@ATL@@QAE@HHHHHHH@Z ; ATL::CTime::CTime

; 283  : 	return	( (time_t)( tm.GetTime() ) );
; 284  : }

  00130	8b 4c 24 2c	 mov	 ecx, DWORD PTR __$ArrayPad$[esp+48]
  00134	8b 44 24 1c	 mov	 eax, DWORD PTR _tm$[esp+48]
  00138	5e		 pop	 esi
  00139	5b		 pop	 ebx
  0013a	33 cc		 xor	 ecx, esp
  0013c	e8 00 00 00 00	 call	 @__security_check_cookie@4
  00141	83 c4 28	 add	 esp, 40			; 00000028H
  00144	c3		 ret	 0
?stot@CTElection@@SAJPBD@Z ENDP				; CTElection::stot
_TEXT	ENDS
PUBLIC	??_C@_0CA@EFGOLAFI@CTElection?4DoTestBeginCandidacy?$AA@ ; `string'
EXTRN	?GetInstance@CDPTrans@@SAPAV1@XZ:NEAR		; CDPTrans::GetInstance
EXTRN	?SendElectionBeginCandidacy@CDPTrans@@QAEXXZ:NEAR ; CDPTrans::SendElectionBeginCandidacy
EXTRN	?OutputDebugStringA@election@@YAXPBDZZ:NEAR	; election::OutputDebugStringA
;	COMDAT ??_C@_0CA@EFGOLAFI@CTElection?4DoTestBeginCandidacy?$AA@
CONST	SEGMENT
??_C@_0CA@EFGOLAFI@CTElection?4DoTestBeginCandidacy?$AA@ DB 'CTElection.D'
	DB	'oTestBeginCandidacy', 00H			; `string'
; Function compile flags: /Ogty
CONST	ENDS
;	COMDAT ?DoTestBeginCandidacy@CTElection@@MAEHXZ
_TEXT	SEGMENT
?DoTestBeginCandidacy@CTElection@@MAEHXZ PROC NEAR	; CTElection::DoTestBeginCandidacy, COMDAT
; _this$ = ecx

; 342  : {	//        

  00000	56		 push	 esi

; 343  : 	// IElection::BeginCandidacy
; 344  : 	election::OutputDebugString( "CTElection.DoTestBeginCandidacy" );

  00001	68 00 00 00 00	 push	 OFFSET FLAT:??_C@_0CA@EFGOLAFI@CTElection?4DoTestBeginCandidacy?$AA@
  00006	8b f1		 mov	 esi, ecx
  00008	e8 00 00 00 00	 call	 ?OutputDebugStringA@election@@YAXPBDZZ ; election::OutputDebugStringA

; 345  : 	CLController* pController	= m_pLord->GetController();

  0000d	8b 4e 04	 mov	 ecx, DWORD PTR [esi+4]
  00010	8b 01		 mov	 eax, DWORD PTR [ecx]
  00012	83 c4 04	 add	 esp, 4
  00015	ff 50 08	 call	 DWORD PTR [eax+8]

; 346  : 	BOOL bResult	= pController->BeginCandidacy();

  00018	8b c8		 mov	 ecx, eax
  0001a	e8 00 00 00 00	 call	 ?BeginCandidacy@CLController@@QAEHXZ ; CLController::BeginCandidacy
  0001f	8b f0		 mov	 esi, eax

; 347  : 	if( bResult )

  00021	85 f6		 test	 esi, esi
  00023	74 0c		 je	 SHORT $L207019

; 348  : 		CDPTrans::GetInstance()->SendElectionBeginCandidacy();

  00025	e8 00 00 00 00	 call	 ?GetInstance@CDPTrans@@SAPAV1@XZ ; CDPTrans::GetInstance
  0002a	8b c8		 mov	 ecx, eax
  0002c	e8 00 00 00 00	 call	 ?SendElectionBeginCandidacy@CDPTrans@@QAEXXZ ; CDPTrans::SendElectionBeginCandidacy
$L207019:

; 349  : 	return bResult;

  00031	8b c6		 mov	 eax, esi
  00033	5e		 pop	 esi

; 350  : }

  00034	c3		 ret	 0
?DoTestBeginCandidacy@CTElection@@MAEHXZ ENDP		; CTElection::DoTestBeginCandidacy
_TEXT	ENDS
PUBLIC	??_C@_0BL@LMGPGHGD@CTElection?4DoTestBeginVote?$AA@ ; `string'
EXTRN	__ftol2:NEAR
EXTRN	?SendElectionBeginVote@CDPTrans@@QAEXH@Z:NEAR	; CDPTrans::SendElectionBeginVote
;	COMDAT ??_C@_0BL@LMGPGHGD@CTElection?4DoTestBeginVote?$AA@
CONST	SEGMENT
??_C@_0BL@LMGPGHGD@CTElection?4DoTestBeginVote?$AA@ DB 'CTElection.DoTest'
	DB	'BeginVote', 00H				; `string'
; Function compile flags: /Ogty
CONST	ENDS
;	COMDAT ?DoTestBeginVote@CTElection@@MAEHAAH@Z
_TEXT	SEGMENT
_nTotal$ = -4						; size = 4
_nRequirement$ = 8					; size = 4
?DoTestBeginVote@CTElection@@MAEHAAH@Z PROC NEAR	; CTElection::DoTestBeginVote, COMDAT
; _this$ = ecx

; 420  : {	//      

  00000	51		 push	 ecx
  00001	56		 push	 esi

; 421  : 	election::OutputDebugString( "CTElection.DoTestBeginVote" );

  00002	68 00 00 00 00	 push	 OFFSET FLAT:??_C@_0BL@LMGPGHGD@CTElection?4DoTestBeginVote?$AA@
  00007	8b f1		 mov	 esi, ecx
  00009	e8 00 00 00 00	 call	 ?OutputDebugStringA@election@@YAXPBDZZ ; election::OutputDebugStringA

; 422  : 	CLController* pController	= m_pLord->GetController();

  0000e	8b 4e 04	 mov	 ecx, DWORD PTR [esi+4]
  00011	8b 01		 mov	 eax, DWORD PTR [ecx]
  00013	83 c4 04	 add	 esp, 4
  00016	ff 50 08	 call	 DWORD PTR [eax+8]

; 423  : 	int nTotal	= pController->BeginVote();

  00019	8b c8		 mov	 ecx, eax
  0001b	e8 00 00 00 00	 call	 ?BeginVote@CLController@@QAEHXZ ; CLController::BeginVote

; 424  : 	if( nTotal >= 0 )

  00020	85 c0		 test	 eax, eax
  00022	89 44 24 04	 mov	 DWORD PTR _nTotal$[esp+8], eax
  00026	7c 29		 jl	 SHORT $L203913

; 425  : 	{
; 426  : 		nRequirement	= static_cast<int>( nTotal * property.fRequirementFactor );

  00028	db 44 24 04	 fild	 DWORD PTR _nTotal$[esp+8]
  0002c	d8 4e 6c	 fmul	 DWORD PTR [esi+108]
  0002f	e8 00 00 00 00	 call	 __ftol2
  00034	8b 4c 24 0c	 mov	 ecx, DWORD PTR _nRequirement$[esp+4]

; 427  : 		CDPTrans::GetInstance()->SendElectionBeginVote( nRequirement );

  00038	50		 push	 eax
  00039	89 01		 mov	 DWORD PTR [ecx], eax
  0003b	e8 00 00 00 00	 call	 ?GetInstance@CDPTrans@@SAPAV1@XZ ; CDPTrans::GetInstance
  00040	8b c8		 mov	 ecx, eax
  00042	e8 00 00 00 00	 call	 ?SendElectionBeginVote@CDPTrans@@QAEXH@Z ; CDPTrans::SendElectionBeginVote

; 428  : 		return TRUE;

  00047	b8 01 00 00 00	 mov	 eax, 1
  0004c	5e		 pop	 esi

; 431  : }

  0004d	59		 pop	 ecx
  0004e	c2 04 00	 ret	 4
$L203913:

; 429  : 	}
; 430  : 	return FALSE;

  00051	33 c0		 xor	 eax, eax
  00053	5e		 pop	 esi

; 431  : }

  00054	59		 pop	 ecx
  00055	c2 04 00	 ret	 4
?DoTestBeginVote@CTElection@@MAEHAAH@Z ENDP		; CTElection::DoTestBeginVote
_TEXT	ENDS
PUBLIC	??_C@_0CN@IFFHNJAO@CTElection?4DoTestAddDeposit?3?5?$CF07@ ; `string'
EXTRN	?SendElectionAddDeposit@CDPTrans@@QAEXK_JJH@Z:NEAR ; CDPTrans::SendElectionAddDeposit
;	COMDAT ??_C@_0CN@IFFHNJAO@CTElection?4DoTestAddDeposit?3?5?$CF07@
; File c:\documents and settings\test\mes documents\source\virtuos_v17\build\program\_common\lord.h
CONST	SEGMENT
??_C@_0CN@IFFHNJAO@CTElection?4DoTestAddDeposit?3?5?$CF07@ DB 'CTElection'
	DB	'.DoTestAddDeposit: %07d, %I64d, %d', 00H	; `string'
; Function compile flags: /Ogty
; File c:\documents and settings\test\mes documents\source\virtuos_v17\build\program\databaseserver\tlord.cpp
CONST	ENDS
;	COMDAT ?DoTestAddDeposit@CTElection@@MAEHK_JJ@Z
_TEXT	SEGMENT
_idPlayer$ = 8						; size = 4
_iDeposit$ = 12						; size = 8
_tCreate$ = 20						; size = 4
?DoTestAddDeposit@CTElection@@MAEHK_JJ@Z PROC NEAR	; CTElection::DoTestAddDeposit, COMDAT
; _this$ = ecx

; 456  : 	// IElection::AddDeposit
; 457  : 	election::OutputDebugString( "CTElection.DoTestAddDeposit: %07d, %I64d, %d", idPlayer, iDeposit, tCreate );

  00000	8b 44 24 04	 mov	 eax, DWORD PTR _idPlayer$[esp-4]
  00004	53		 push	 ebx
  00005	8b 5c 24 10	 mov	 ebx, DWORD PTR _iDeposit$[esp+4]
  00009	55		 push	 ebp
  0000a	8b 6c 24 10	 mov	 ebp, DWORD PTR _iDeposit$[esp+4]
  0000e	56		 push	 esi
  0000f	57		 push	 edi
  00010	8b 7c 24 20	 mov	 edi, DWORD PTR _tCreate$[esp+12]
  00014	57		 push	 edi
  00015	53		 push	 ebx
  00016	55		 push	 ebp
  00017	50		 push	 eax
  00018	68 00 00 00 00	 push	 OFFSET FLAT:??_C@_0CN@IFFHNJAO@CTElection?4DoTestAddDeposit?3?5?$CF07@
  0001d	8b f1		 mov	 esi, ecx
  0001f	e8 00 00 00 00	 call	 ?OutputDebugStringA@election@@YAXPBDZZ ; election::OutputDebugStringA

; 458  : 	CLController* pController	= m_pLord->GetController();

  00024	8b 4e 04	 mov	 ecx, DWORD PTR [esi+4]
  00027	8b 11		 mov	 edx, DWORD PTR [ecx]
  00029	83 c4 14	 add	 esp, 20			; 00000014H
  0002c	ff 52 08	 call	 DWORD PTR [edx+8]

; 459  : 	BOOL bRet	= ( GetState() == eCandidacy ) && pController->AddDeposit( idPlayer, iDeposit, tCreate );

  0002f	83 7e 10 01	 cmp	 DWORD PTR [esi+16], 1
  00033	75 1a		 jne	 SHORT $L207031
  00035	8b 4c 24 14	 mov	 ecx, DWORD PTR _idPlayer$[esp+12]
  00039	57		 push	 edi
  0003a	53		 push	 ebx
  0003b	55		 push	 ebp
  0003c	51		 push	 ecx
  0003d	8b c8		 mov	 ecx, eax
  0003f	e8 00 00 00 00	 call	 ?AddDeposit@CLController@@QAEHK_JJ@Z ; CLController::AddDeposit
  00044	85 c0		 test	 eax, eax
  00046	74 07		 je	 SHORT $L207031
  00048	be 01 00 00 00	 mov	 esi, 1
  0004d	eb 02		 jmp	 SHORT $L207026
$L207031:
  0004f	33 f6		 xor	 esi, esi
$L207026:

; 460  : 	CDPTrans::GetInstance()->SendElectionAddDeposit( idPlayer, iDeposit, tCreate, bRet );

  00051	8b 54 24 14	 mov	 edx, DWORD PTR _idPlayer$[esp+12]
  00055	56		 push	 esi
  00056	57		 push	 edi
  00057	53		 push	 ebx
  00058	55		 push	 ebp
  00059	52		 push	 edx
  0005a	e8 00 00 00 00	 call	 ?GetInstance@CDPTrans@@SAPAV1@XZ ; CDPTrans::GetInstance
  0005f	8b c8		 mov	 ecx, eax
  00061	e8 00 00 00 00	 call	 ?SendElectionAddDeposit@CDPTrans@@QAEXK_JJH@Z ; CDPTrans::SendElectionAddDeposit
  00066	5f		 pop	 edi

; 461  : 	return bRet;

  00067	8b c6		 mov	 eax, esi
  00069	5e		 pop	 esi
  0006a	5d		 pop	 ebp
  0006b	5b		 pop	 ebx

; 462  : }

  0006c	c2 10 00	 ret	 16			; 00000010H
?DoTestAddDeposit@CTElection@@MAEHK_JJ@Z ENDP		; CTElection::DoTestAddDeposit
_TEXT	ENDS
PUBLIC	??_C@_0CF@EBIGHEOA@CTElection?4DoTestSetPledge?3?5?$CF07d@ ; `string'
EXTRN	?SendElectionSetPledge@CDPTrans@@QAEXKPBDH@Z:NEAR ; CDPTrans::SendElectionSetPledge
;	COMDAT ??_C@_0CF@EBIGHEOA@CTElection?4DoTestSetPledge?3?5?$CF07d@
; File c:\documents and settings\test\mes documents\source\virtuos_v17\build\program\_common\lord.h
CONST	SEGMENT
??_C@_0CF@EBIGHEOA@CTElection?4DoTestSetPledge?3?5?$CF07d@ DB 'CTElection'
	DB	'.DoTestSetPledge: %07d, %s', 00H		; `string'
; Function compile flags: /Ogty
; File c:\documents and settings\test\mes documents\source\virtuos_v17\build\program\databaseserver\tlord.cpp
CONST	ENDS
;	COMDAT ?DoTestSetPledge@CTElection@@MAEHKPBD@Z
_TEXT	SEGMENT
_idPlayer$ = 8						; size = 4
_szPledge$ = 12						; size = 4
?DoTestSetPledge@CTElection@@MAEHKPBD@Z PROC NEAR	; CTElection::DoTestSetPledge, COMDAT
; _this$ = ecx

; 469  : {	//      

  00000	53		 push	 ebx

; 470  : 	// IElection::SetPledge
; 471  : 	BOOL bRet	= FALSE;
; 472  : 	election::OutputDebugString( "CTElection.DoTestSetPledge: %07d, %s", idPlayer, szPledge );

  00001	8b 5c 24 08	 mov	 ebx, DWORD PTR _idPlayer$[esp]
  00005	55		 push	 ebp
  00006	56		 push	 esi
  00007	57		 push	 edi
  00008	8b 7c 24 18	 mov	 edi, DWORD PTR _szPledge$[esp+12]
  0000c	57		 push	 edi
  0000d	53		 push	 ebx
  0000e	68 00 00 00 00	 push	 OFFSET FLAT:??_C@_0CF@EBIGHEOA@CTElection?4DoTestSetPledge?3?5?$CF07d@
  00013	8b f1		 mov	 esi, ecx
  00015	33 ed		 xor	 ebp, ebp
  00017	e8 00 00 00 00	 call	 ?OutputDebugStringA@election@@YAXPBDZZ ; election::OutputDebugStringA

; 473  : 	if( GetState() == eVote )

  0001c	8b 46 10	 mov	 eax, DWORD PTR [esi+16]
  0001f	83 c4 0c	 add	 esp, 12			; 0000000cH
  00022	83 f8 02	 cmp	 eax, 2
  00025	75 2b		 jne	 SHORT $L207038

; 474  : 	{
; 475  : 		CLController* pController	= m_pLord->GetController();

  00027	8b 4e 04	 mov	 ecx, DWORD PTR [esi+4]
  0002a	8b 01		 mov	 eax, DWORD PTR [ecx]
  0002c	ff 50 08	 call	 DWORD PTR [eax+8]

; 476  : 		bRet	= pController->SetPledge( idPlayer, szPledge );

  0002f	57		 push	 edi
  00030	53		 push	 ebx
  00031	8b c8		 mov	 ecx, eax
  00033	e8 00 00 00 00	 call	 ?SetPledge@CLController@@QAEHKPBD@Z ; CLController::SetPledge
  00038	8b f0		 mov	 esi, eax

; 477  : 		CDPTrans::GetInstance()->SendElectionSetPledge( idPlayer, szPledge, bRet );

  0003a	56		 push	 esi
  0003b	57		 push	 edi
  0003c	53		 push	 ebx
  0003d	e8 00 00 00 00	 call	 ?GetInstance@CDPTrans@@SAPAV1@XZ ; CDPTrans::GetInstance
  00042	8b c8		 mov	 ecx, eax
  00044	e8 00 00 00 00	 call	 ?SendElectionSetPledge@CDPTrans@@QAEXKPBDH@Z ; CDPTrans::SendElectionSetPledge
  00049	5f		 pop	 edi

; 478  : 	}
; 479  : 	return bRet;

  0004a	8b c6		 mov	 eax, esi
  0004c	5e		 pop	 esi
  0004d	5d		 pop	 ebp
  0004e	5b		 pop	 ebx

; 480  : }

  0004f	c2 08 00	 ret	 8
$L207038:
  00052	5f		 pop	 edi
  00053	5e		 pop	 esi

; 478  : 	}
; 479  : 	return bRet;

  00054	8b c5		 mov	 eax, ebp
  00056	5d		 pop	 ebp
  00057	5b		 pop	 ebx

; 480  : }

  00058	c2 08 00	 ret	 8
?DoTestSetPledge@CTElection@@MAEHKPBD@Z ENDP		; CTElection::DoTestSetPledge
_TEXT	ENDS
PUBLIC	??_C@_0CF@GEOBODGJ@CTElection?4DoTestIncVote?3?5?$CF07d?0?5@ ; `string'
EXTRN	?SendElectionIncVote@CDPTrans@@QAEXKKH@Z:NEAR	; CDPTrans::SendElectionIncVote
;	COMDAT ??_C@_0CF@GEOBODGJ@CTElection?4DoTestIncVote?3?5?$CF07d?0?5@
CONST	SEGMENT
??_C@_0CF@GEOBODGJ@CTElection?4DoTestIncVote?3?5?$CF07d?0?5@ DB 'CTElecti'
	DB	'on.DoTestIncVote: %07d, %07d', 00H		; `string'
; Function compile flags: /Ogty
CONST	ENDS
;	COMDAT ?DoTestIncVote@CTElection@@MAEHKK@Z
_TEXT	SEGMENT
_idPlayer$ = 8						; size = 4
_idElector$ = 12					; size = 4
?DoTestIncVote@CTElection@@MAEHKK@Z PROC NEAR		; CTElection::DoTestIncVote, COMDAT
; _this$ = ecx

; 483  : {	//     

  00000	53		 push	 ebx
  00001	56		 push	 esi

; 484  : 	// IElection::IncVote
; 485  : 	election::OutputDebugString( "CTElection.DoTestIncVote: %07d, %07d", idPlayer, idElector );

  00002	8b 74 24 10	 mov	 esi, DWORD PTR _idElector$[esp+4]
  00006	57		 push	 edi
  00007	8b 7c 24 10	 mov	 edi, DWORD PTR _idPlayer$[esp+8]
  0000b	56		 push	 esi
  0000c	57		 push	 edi
  0000d	68 00 00 00 00	 push	 OFFSET FLAT:??_C@_0CF@GEOBODGJ@CTElection?4DoTestIncVote?3?5?$CF07d?0?5@
  00012	8b d9		 mov	 ebx, ecx
  00014	e8 00 00 00 00	 call	 ?OutputDebugStringA@election@@YAXPBDZZ ; election::OutputDebugStringA

; 486  : 	CLController* pController	= m_pLord->GetController();

  00019	8b 4b 04	 mov	 ecx, DWORD PTR [ebx+4]
  0001c	8b 01		 mov	 eax, DWORD PTR [ecx]
  0001e	83 c4 0c	 add	 esp, 12			; 0000000cH
  00021	ff 50 08	 call	 DWORD PTR [eax+8]

; 487  : 	BOOL bRet	= pController->IncVote( idPlayer, idElector );

  00024	56		 push	 esi
  00025	57		 push	 edi
  00026	8b c8		 mov	 ecx, eax
  00028	e8 00 00 00 00	 call	 ?IncVote@CLController@@QAEHKK@Z ; CLController::IncVote
  0002d	8b d8		 mov	 ebx, eax

; 488  : 	CDPTrans::GetInstance()->SendElectionIncVote( idPlayer, idElector, bRet );

  0002f	53		 push	 ebx
  00030	56		 push	 esi
  00031	57		 push	 edi
  00032	e8 00 00 00 00	 call	 ?GetInstance@CDPTrans@@SAPAV1@XZ ; CDPTrans::GetInstance
  00037	8b c8		 mov	 ecx, eax
  00039	e8 00 00 00 00	 call	 ?SendElectionIncVote@CDPTrans@@QAEXKKH@Z ; CDPTrans::SendElectionIncVote
  0003e	5f		 pop	 edi
  0003f	5e		 pop	 esi

; 489  : 	return bRet;

  00040	8b c3		 mov	 eax, ebx
  00042	5b		 pop	 ebx

; 490  : }

  00043	c2 08 00	 ret	 8
?DoTestIncVote@CTElection@@MAEHKK@Z ENDP		; CTElection::DoTestIncVote
; Function compile flags: /Ogty
_TEXT	ENDS
;	COMDAT ??_GCLEvent@@UAEPAXI@Z
_TEXT	SEGMENT
___flags$ = 8						; size = 4
??_GCLEvent@@UAEPAXI@Z PROC NEAR			; CLEvent::`scalar deleting destructor', COMDAT
; _this$ = ecx
  00000	56		 push	 esi
  00001	8b f1		 mov	 esi, ecx
  00003	e8 00 00 00 00	 call	 ??1CLEvent@@UAE@XZ	; CLEvent::~CLEvent
  00008	f6 44 24 08 01	 test	 BYTE PTR ___flags$[esp], 1
  0000d	74 09		 je	 SHORT $L207043
  0000f	56		 push	 esi
  00010	e8 00 00 00 00	 call	 ??3@YAXPAX@Z		; operator delete
  00015	83 c4 04	 add	 esp, 4
$L207043:
  00018	8b c6		 mov	 eax, esi
  0001a	5e		 pop	 esi
  0001b	c2 04 00	 ret	 4
??_GCLEvent@@UAEPAXI@Z ENDP				; CLEvent::`scalar deleting destructor'
_TEXT	ENDS
EXTRN	?SendLEventCreate@CDPTrans@@QAEXPAVCLEComponent@@H@Z:NEAR ; CDPTrans::SendLEventCreate
; Function compile flags: /Ogty
;	COMDAT ?DoTestAddComponent@CLEvent@@MAEHPAVCLEComponent@@@Z
_TEXT	SEGMENT
_pComponent$ = 8					; size = 4
?DoTestAddComponent@CLEvent@@MAEHPAVCLEComponent@@@Z PROC NEAR ; CLEvent::DoTestAddComponent, COMDAT
; _this$ = ecx

; 605  : 	// ILordEvent::AddComponent
; 606  : 	CLController* pController	= m_pLord->GetController();

  00000	8b 49 34	 mov	 ecx, DWORD PTR [ecx+52]
  00003	8b 01		 mov	 eax, DWORD PTR [ecx]
  00005	56		 push	 esi
  00006	57		 push	 edi
  00007	ff 50 08	 call	 DWORD PTR [eax+8]

; 607  : 	BOOL bResult	= pController->AddLEComponent( pComponent );

  0000a	8b 7c 24 0c	 mov	 edi, DWORD PTR _pComponent$[esp+4]
  0000e	57		 push	 edi
  0000f	8b c8		 mov	 ecx, eax
  00011	e8 00 00 00 00	 call	 ?AddLEComponent@CLController@@QAEHPAVCLEComponent@@@Z ; CLController::AddLEComponent
  00016	8b f0		 mov	 esi, eax

; 608  : 	CDPTrans::GetInstance()->SendLEventCreate( pComponent, bResult );

  00018	56		 push	 esi
  00019	57		 push	 edi
  0001a	e8 00 00 00 00	 call	 ?GetInstance@CDPTrans@@SAPAV1@XZ ; CDPTrans::GetInstance
  0001f	8b c8		 mov	 ecx, eax
  00021	e8 00 00 00 00	 call	 ?SendLEventCreate@CDPTrans@@QAEXPAVCLEComponent@@H@Z ; CDPTrans::SendLEventCreate
  00026	5f		 pop	 edi

; 609  : 	return bResult;

  00027	8b c6		 mov	 eax, esi
  00029	5e		 pop	 esi

; 610  : }

  0002a	c2 04 00	 ret	 4
?DoTestAddComponent@CLEvent@@MAEHPAVCLEComponent@@@Z ENDP ; CLEvent::DoTestAddComponent
_TEXT	ENDS
EXTRN	?SendLEventInitialize@CDPTrans@@QAEXXZ:NEAR	; CDPTrans::SendLEventInitialize
; Function compile flags: /Ogty
;	COMDAT ?DoTestInitialize@CLEvent@@MAEHXZ
_TEXT	SEGMENT
?DoTestInitialize@CLEvent@@MAEHXZ PROC NEAR		; CLEvent::DoTestInitialize, COMDAT
; _this$ = ecx

; 614  : 	// ILordEvent::Initialize
; 615  : 	CLController* pController	= m_pLord->GetController();

  00000	8b 49 34	 mov	 ecx, DWORD PTR [ecx+52]
  00003	8b 01		 mov	 eax, DWORD PTR [ecx]
  00005	ff 50 08	 call	 DWORD PTR [eax+8]

; 616  : 	if( !pController->InitializeLEvent() )

  00008	8b 0d 00 00 00
	00		 mov	 ecx, DWORD PTR ?g_appInfo@@3UAppInfo@@A
  0000e	8b 40 0c	 mov	 eax, DWORD PTR [eax+12]
  00011	51		 push	 ecx
  00012	68 00 00 00 00	 push	 OFFSET FLAT:??_C@_0BH@NILKABO@uspInitializeLEvent?5?$CFd?$AA@
  00017	50		 push	 eax
  00018	e8 00 00 00 00	 call	 ?Execute@CQuery@@QAAHPBDZZ ; CQuery::Execute
  0001d	83 c4 0c	 add	 esp, 12			; 0000000cH
  00020	85 c0		 test	 eax, eax
  00022	75 01		 jne	 SHORT $L204302

; 620  : }

  00024	c3		 ret	 0
$L204302:

; 617  : 		return FALSE;
; 618  : 	CDPTrans::GetInstance()->SendLEventInitialize();

  00025	e8 00 00 00 00	 call	 ?GetInstance@CDPTrans@@SAPAV1@XZ ; CDPTrans::GetInstance
  0002a	8b c8		 mov	 ecx, eax
  0002c	e8 00 00 00 00	 call	 ?SendLEventInitialize@CDPTrans@@QAEXXZ ; CDPTrans::SendLEventInitialize

; 619  : 	return TRUE;

  00031	b8 01 00 00 00	 mov	 eax, 1

; 620  : }

  00036	c3		 ret	 0
?DoTestInitialize@CLEvent@@MAEHXZ ENDP			; CLEvent::DoTestInitialize
; Function compile flags: /Ogty
_TEXT	ENDS
;	COMDAT ??_GCLController@@UAEPAXI@Z
_TEXT	SEGMENT
___flags$ = 8						; size = 4
??_GCLController@@UAEPAXI@Z PROC NEAR			; CLController::`scalar deleting destructor', COMDAT
; _this$ = ecx
  00000	56		 push	 esi
  00001	8b f1		 mov	 esi, ecx
  00003	e8 00 00 00 00	 call	 ??1CLController@@UAE@XZ	; CLController::~CLController
  00008	f6 44 24 08 01	 test	 BYTE PTR ___flags$[esp], 1
  0000d	74 09		 je	 SHORT $L207059
  0000f	56		 push	 esi
  00010	e8 00 00 00 00	 call	 ??3@YAXPAX@Z		; operator delete
  00015	83 c4 04	 add	 esp, 4
$L207059:
  00018	8b c6		 mov	 eax, esi
  0001a	5e		 pop	 esi
  0001b	c2 04 00	 ret	 4
??_GCLController@@UAEPAXI@Z ENDP			; CLController::`scalar deleting destructor'
; Function compile flags: /Ogty
_TEXT	ENDS
;	COMDAT ??_GCTLordSkill@@UAEPAXI@Z
_TEXT	SEGMENT
___flags$ = 8						; size = 4
??_GCTLordSkill@@UAEPAXI@Z PROC NEAR			; CTLordSkill::`scalar deleting destructor', COMDAT
; _this$ = ecx
  00000	56		 push	 esi
  00001	8b f1		 mov	 esi, ecx
  00003	e8 00 00 00 00	 call	 ??1CTLordSkill@@UAE@XZ	; CTLordSkill::~CTLordSkill
  00008	f6 44 24 08 01	 test	 BYTE PTR ___flags$[esp], 1
  0000d	74 09		 je	 SHORT $L207062
  0000f	56		 push	 esi
  00010	e8 00 00 00 00	 call	 ??3@YAXPAX@Z		; operator delete
  00015	83 c4 04	 add	 esp, 4
$L207062:
  00018	8b c6		 mov	 eax, esi
  0001a	5e		 pop	 esi
  0001b	c2 04 00	 ret	 4
??_GCTLordSkill@@UAEPAXI@Z ENDP				; CTLordSkill::`scalar deleting destructor'
_TEXT	ENDS
PUBLIC	??Hiterator@?$vector@V?$shared_ptr@VCCandidate@@@boost@@V?$allocator@V?$shared_ptr@VCCandidate@@@boost@@@std@@@std@@QBE?AV012@H@Z ; std::vector<boost::shared_ptr<CCandidate>,std::allocator<boost::shared_ptr<CCandidate> > >::iterator::operator+
; Function compile flags: /Ogty
; File c:\program files\microsoft visual studio .net 2003\vc7\include\vector
;	COMDAT ??Hiterator@?$vector@V?$shared_ptr@VCCandidate@@@boost@@V?$allocator@V?$shared_ptr@VCCandidate@@@boost@@@std@@@std@@QBE?AV012@H@Z
_TEXT	SEGMENT
___$ReturnUdt$ = 8					; size = 4
__Off$ = 12						; size = 4
??Hiterator@?$vector@V?$shared_ptr@VCCandidate@@@boost@@V?$allocator@V?$shared_ptr@VCCandidate@@@boost@@@std@@@std@@QBE?AV012@H@Z PROC NEAR ; std::vector<boost::shared_ptr<CCandidate>,std::allocator<boost::shared_ptr<CCandidate> > >::iterator::operator+, COMDAT
; _this$ = ecx

; 262  : 			iterator _Tmp = *this;
; 263  : 			return (_Tmp += _Off);

  00000	8b 01		 mov	 eax, DWORD PTR [ecx]
  00002	8b 4c 24 08	 mov	 ecx, DWORD PTR __Off$[esp-4]
  00006	8d 14 c8	 lea	 edx, DWORD PTR [eax+ecx*8]
  00009	8b 44 24 04	 mov	 eax, DWORD PTR ___$ReturnUdt$[esp-4]
  0000d	89 10		 mov	 DWORD PTR [eax], edx

; 264  : 			}

  0000f	c2 08 00	 ret	 8
??Hiterator@?$vector@V?$shared_ptr@VCCandidate@@@boost@@V?$allocator@V?$shared_ptr@VCCandidate@@@boost@@@std@@@std@@QBE?AV012@H@Z ENDP ; std::vector<boost::shared_ptr<CCandidate>,std::allocator<boost::shared_ptr<CCandidate> > >::iterator::operator+
_TEXT	ENDS
PUBLIC	??Diterator@?$vector@HV?$allocator@H@std@@@std@@QBEAAHXZ ; std::vector<int,std::allocator<int> >::iterator::operator*
; Function compile flags: /Ogty
;	COMDAT ??Diterator@?$vector@HV?$allocator@H@std@@@std@@QBEAAHXZ
_TEXT	SEGMENT
??Diterator@?$vector@HV?$allocator@H@std@@@std@@QBEAAHXZ PROC NEAR ; std::vector<int,std::allocator<int> >::iterator::operator*, COMDAT
; _this$ = ecx

; 220  : 			return ((reference)**(const_iterator *)this);

  00000	8b 01		 mov	 eax, DWORD PTR [ecx]

; 221  : 			}

  00002	c3		 ret	 0
??Diterator@?$vector@HV?$allocator@H@std@@@std@@QBEAAHXZ ENDP ; std::vector<int,std::allocator<int> >::iterator::operator*
_TEXT	ENDS
PUBLIC	??9const_iterator@?$vector@HV?$allocator@H@std@@@std@@QBE_NABV012@@Z ; std::vector<int,std::allocator<int> >::const_iterator::operator!=
; Function compile flags: /Ogty
;	COMDAT ??9const_iterator@?$vector@HV?$allocator@H@std@@@std@@QBE_NABV012@@Z
_TEXT	SEGMENT
__Right$ = 8						; size = 4
??9const_iterator@?$vector@HV?$allocator@H@std@@@std@@QBE_NABV012@@Z PROC NEAR ; std::vector<int,std::allocator<int> >::const_iterator::operator!=, COMDAT
; _this$ = ecx

; 160  : 			return (!(*this == _Right));

  00000	8b 01		 mov	 eax, DWORD PTR [ecx]
  00002	8b 54 24 04	 mov	 edx, DWORD PTR __Right$[esp-4]
  00006	56		 push	 esi
  00007	8b 32		 mov	 esi, DWORD PTR [edx]
  00009	33 c9		 xor	 ecx, ecx
  0000b	3b c6		 cmp	 eax, esi
  0000d	0f 95 c1	 setne	 cl
  00010	8a c1		 mov	 al, cl
  00012	5e		 pop	 esi

; 161  : 			}

  00013	c2 04 00	 ret	 4
??9const_iterator@?$vector@HV?$allocator@H@std@@@std@@QBE_NABV012@@Z ENDP ; std::vector<int,std::allocator<int> >::const_iterator::operator!=
_TEXT	ENDS
PUBLIC	??Diterator@?$vector@PAVCLEComponent@@V?$allocator@PAVCLEComponent@@@std@@@std@@QBEAAPAVCLEComponent@@XZ ; std::vector<CLEComponent *,std::allocator<CLEComponent *> >::iterator::operator*
; Function compile flags: /Ogty
;	COMDAT ??Diterator@?$vector@PAVCLEComponent@@V?$allocator@PAVCLEComponent@@@std@@@std@@QBEAAPAVCLEComponent@@XZ
_TEXT	SEGMENT
??Diterator@?$vector@PAVCLEComponent@@V?$allocator@PAVCLEComponent@@@std@@@std@@QBEAAPAVCLEComponent@@XZ PROC NEAR ; std::vector<CLEComponent *,std::allocator<CLEComponent *> >::iterator::operator*, COMDAT
; _this$ = ecx

; 220  : 			return ((reference)**(const_iterator *)this);

  00000	8b 01		 mov	 eax, DWORD PTR [ecx]

; 221  : 			}

  00002	c3		 ret	 0
??Diterator@?$vector@PAVCLEComponent@@V?$allocator@PAVCLEComponent@@@std@@@std@@QBEAAPAVCLEComponent@@XZ ENDP ; std::vector<CLEComponent *,std::allocator<CLEComponent *> >::iterator::operator*
_TEXT	ENDS
PUBLIC	??9const_iterator@?$vector@PAVCLEComponent@@V?$allocator@PAVCLEComponent@@@std@@@std@@QBE_NABV012@@Z ; std::vector<CLEComponent *,std::allocator<CLEComponent *> >::const_iterator::operator!=
; Function compile flags: /Ogty
;	COMDAT ??9const_iterator@?$vector@PAVCLEComponent@@V?$allocator@PAVCLEComponent@@@std@@@std@@QBE_NABV012@@Z
_TEXT	SEGMENT
__Right$ = 8						; size = 4
??9const_iterator@?$vector@PAVCLEComponent@@V?$allocator@PAVCLEComponent@@@std@@@std@@QBE_NABV012@@Z PROC NEAR ; std::vector<CLEComponent *,std::allocator<CLEComponent *> >::const_iterator::operator!=, COMDAT
; _this$ = ecx

; 160  : 			return (!(*this == _Right));

  00000	8b 01		 mov	 eax, DWORD PTR [ecx]
  00002	8b 54 24 04	 mov	 edx, DWORD PTR __Right$[esp-4]
  00006	56		 push	 esi
  00007	8b 32		 mov	 esi, DWORD PTR [edx]
  00009	33 c9		 xor	 ecx, ecx
  0000b	3b c6		 cmp	 eax, esi
  0000d	0f 95 c1	 setne	 cl
  00010	8a c1		 mov	 al, cl
  00012	5e		 pop	 esi

; 161  : 			}

  00013	c2 04 00	 ret	 4
??9const_iterator@?$vector@PAVCLEComponent@@V?$allocator@PAVCLEComponent@@@std@@@std@@QBE_NABV012@@Z ENDP ; std::vector<CLEComponent *,std::allocator<CLEComponent *> >::const_iterator::operator!=
_TEXT	ENDS
PUBLIC	??Diterator@?$vector@PAVCLordSkillComponentExecutable@@V?$allocator@PAVCLordSkillComponentExecutable@@@std@@@std@@QBEAAPAVCLordSkillComponentExecutable@@XZ ; std::vector<CLordSkillComponentExecutable *,std::allocator<CLordSkillComponentExecutable *> >::iterator::operator*
; Function compile flags: /Ogty
;	COMDAT ??Diterator@?$vector@PAVCLordSkillComponentExecutable@@V?$allocator@PAVCLordSkillComponentExecutable@@@std@@@std@@QBEAAPAVCLordSkillComponentExecutable@@XZ
_TEXT	SEGMENT
??Diterator@?$vector@PAVCLordSkillComponentExecutable@@V?$allocator@PAVCLordSkillComponentExecutable@@@std@@@std@@QBEAAPAVCLordSkillComponentExecutable@@XZ PROC NEAR ; std::vector<CLordSkillComponentExecutable *,std::allocator<CLordSkillComponentExecutable *> >::iterator::operator*, COMDAT
; _this$ = ecx

; 220  : 			return ((reference)**(const_iterator *)this);

  00000	8b 01		 mov	 eax, DWORD PTR [ecx]

; 221  : 			}

  00002	c3		 ret	 0
??Diterator@?$vector@PAVCLordSkillComponentExecutable@@V?$allocator@PAVCLordSkillComponentExecutable@@@std@@@std@@QBEAAPAVCLordSkillComponentExecutable@@XZ ENDP ; std::vector<CLordSkillComponentExecutable *,std::allocator<CLordSkillComponentExecutable *> >::iterator::operator*
_TEXT	ENDS
PUBLIC	??9const_iterator@?$vector@PAVCLordSkillComponentExecutable@@V?$allocator@PAVCLordSkillComponentExecutable@@@std@@@std@@QBE_NABV012@@Z ; std::vector<CLordSkillComponentExecutable *,std::allocator<CLordSkillComponentExecutable *> >::const_iterator::operator!=
; Function compile flags: /Ogty
;	COMDAT ??9const_iterator@?$vector@PAVCLordSkillComponentExecutable@@V?$allocator@PAVCLordSkillComponentExecutable@@@std@@@std@@QBE_NABV012@@Z
_TEXT	SEGMENT
__Right$ = 8						; size = 4
??9const_iterator@?$vector@PAVCLordSkillComponentExecutable@@V?$allocator@PAVCLordSkillComponentExecutable@@@std@@@std@@QBE_NABV012@@Z PROC NEAR ; std::vector<CLordSkillComponentExecutable *,std::allocator<CLordSkillComponentExecutable *> >::const_iterator::operator!=, COMDAT
; _this$ = ecx

; 160  : 			return (!(*this == _Right));

  00000	8b 01		 mov	 eax, DWORD PTR [ecx]
  00002	8b 54 24 04	 mov	 edx, DWORD PTR __Right$[esp-4]
  00006	56		 push	 esi
  00007	8b 32		 mov	 esi, DWORD PTR [edx]
  00009	33 c9		 xor	 ecx, ecx
  0000b	3b c6		 cmp	 eax, esi
  0000d	0f 95 c1	 setne	 cl
  00010	8a c1		 mov	 al, cl
  00012	5e		 pop	 esi

; 161  : 			}

  00013	c2 04 00	 ret	 4
??9const_iterator@?$vector@PAVCLordSkillComponentExecutable@@V?$allocator@PAVCLordSkillComponentExecutable@@@std@@@std@@QBE_NABV012@@Z ENDP ; std::vector<CLordSkillComponentExecutable *,std::allocator<CLordSkillComponentExecutable *> >::const_iterator::operator!=
_TEXT	ENDS
PUBLIC	?Compare@?$CStringT@DV?$StrTraitMFC@DV?$ChTraitsCRT@D@ATL@@@@@ATL@@QBEHPBD@Z ; ATL::CStringT<char,StrTraitMFC<char,ATL::ChTraitsCRT<char> > >::Compare
; Function compile flags: /Ogty
; File c:\program files\microsoft visual studio .net 2003\vc7\atlmfc\include\cstringt.h
;	COMDAT ?Compare@?$CStringT@DV?$StrTraitMFC@DV?$ChTraitsCRT@D@ATL@@@@@ATL@@QBEHPBD@Z
_TEXT	SEGMENT
_psz$ = 8						; size = 4
?Compare@?$CStringT@DV?$StrTraitMFC@DV?$ChTraitsCRT@D@ATL@@@@@ATL@@QBEHPBD@Z PROC NEAR ; ATL::CStringT<char,StrTraitMFC<char,ATL::ChTraitsCRT<char> > >::Compare, COMDAT
; _this$ = ecx

; 1088 : 		ATLASSERT( AtlIsValidString( psz ) );
; 1089 : 		return( StringTraits::StringCompare( GetString(), psz ) );

  00000	8b 44 24 04	 mov	 eax, DWORD PTR _psz$[esp-4]
  00004	8b 09		 mov	 ecx, DWORD PTR [ecx]
  00006	50		 push	 eax
  00007	51		 push	 ecx
  00008	e8 00 00 00 00	 call	 __mbscmp
  0000d	83 c4 08	 add	 esp, 8

; 1090 : 	}

  00010	c2 04 00	 ret	 4
?Compare@?$CStringT@DV?$StrTraitMFC@DV?$ChTraitsCRT@D@ATL@@@@@ATL@@QBEHPBD@Z ENDP ; ATL::CStringT<char,StrTraitMFC<char,ATL::ChTraitsCRT<char> > >::Compare
_TEXT	ENDS
PUBLIC	??0iterator@?$vector@V?$shared_ptr@VCCandidate@@@boost@@V?$allocator@V?$shared_ptr@VCCandidate@@@boost@@@std@@@std@@QAE@PAV?$shared_ptr@VCCandidate@@@boost@@@Z ; std::vector<boost::shared_ptr<CCandidate>,std::allocator<boost::shared_ptr<CCandidate> > >::iterator::iterator
; Function compile flags: /Ogty
; File c:\program files\microsoft visual studio .net 2003\vc7\include\vector
;	COMDAT ??0iterator@?$vector@V?$shared_ptr@VCCandidate@@@boost@@V?$allocator@V?$shared_ptr@VCCandidate@@@boost@@@std@@@std@@QAE@PAV?$shared_ptr@VCCandidate@@@boost@@@Z
_TEXT	SEGMENT
__Ptr$ = 8						; size = 4
??0iterator@?$vector@V?$shared_ptr@VCCandidate@@@boost@@V?$allocator@V?$shared_ptr@VCCandidate@@@boost@@@std@@@std@@QAE@PAV?$shared_ptr@VCCandidate@@@boost@@@Z PROC NEAR ; std::vector<boost::shared_ptr<CCandidate>,std::allocator<boost::shared_ptr<CCandidate> > >::iterator::iterator, COMDAT
; _this$ = ecx

; 215  : 			{	// construct with pointer _Ptr

  00000	8b c1		 mov	 eax, ecx
  00002	8b 4c 24 04	 mov	 ecx, DWORD PTR __Ptr$[esp-4]
  00006	89 08		 mov	 DWORD PTR [eax], ecx

; 216  : 			}

  00008	c2 04 00	 ret	 4
??0iterator@?$vector@V?$shared_ptr@VCCandidate@@@boost@@V?$allocator@V?$shared_ptr@VCCandidate@@@boost@@@std@@@std@@QAE@PAV?$shared_ptr@VCCandidate@@@boost@@@Z ENDP ; std::vector<boost::shared_ptr<CCandidate>,std::allocator<boost::shared_ptr<CCandidate> > >::iterator::iterator
_TEXT	ENDS
PUBLIC	??0iterator@?$vector@HV?$allocator@H@std@@@std@@QAE@PAH@Z ; std::vector<int,std::allocator<int> >::iterator::iterator
; Function compile flags: /Ogty
;	COMDAT ??0iterator@?$vector@HV?$allocator@H@std@@@std@@QAE@PAH@Z
_TEXT	SEGMENT
__Ptr$ = 8						; size = 4
??0iterator@?$vector@HV?$allocator@H@std@@@std@@QAE@PAH@Z PROC NEAR ; std::vector<int,std::allocator<int> >::iterator::iterator, COMDAT
; _this$ = ecx

; 215  : 			{	// construct with pointer _Ptr

  00000	8b c1		 mov	 eax, ecx
  00002	8b 4c 24 04	 mov	 ecx, DWORD PTR __Ptr$[esp-4]
  00006	89 08		 mov	 DWORD PTR [eax], ecx

; 216  : 			}

  00008	c2 04 00	 ret	 4
??0iterator@?$vector@HV?$allocator@H@std@@@std@@QAE@PAH@Z ENDP ; std::vector<int,std::allocator<int> >::iterator::iterator
_TEXT	ENDS
PUBLIC	??0iterator@?$vector@PAVCLEComponent@@V?$allocator@PAVCLEComponent@@@std@@@std@@QAE@PAPAVCLEComponent@@@Z ; std::vector<CLEComponent *,std::allocator<CLEComponent *> >::iterator::iterator
; Function compile flags: /Ogty
;	COMDAT ??0iterator@?$vector@PAVCLEComponent@@V?$allocator@PAVCLEComponent@@@std@@@std@@QAE@PAPAVCLEComponent@@@Z
_TEXT	SEGMENT
__Ptr$ = 8						; size = 4
??0iterator@?$vector@PAVCLEComponent@@V?$allocator@PAVCLEComponent@@@std@@@std@@QAE@PAPAVCLEComponent@@@Z PROC NEAR ; std::vector<CLEComponent *,std::allocator<CLEComponent *> >::iterator::iterator, COMDAT
; _this$ = ecx

; 215  : 			{	// construct with pointer _Ptr

  00000	8b c1		 mov	 eax, ecx
  00002	8b 4c 24 04	 mov	 ecx, DWORD PTR __Ptr$[esp-4]
  00006	89 08		 mov	 DWORD PTR [eax], ecx

; 216  : 			}

  00008	c2 04 00	 ret	 4
??0iterator@?$vector@PAVCLEComponent@@V?$allocator@PAVCLEComponent@@@std@@@std@@QAE@PAPAVCLEComponent@@@Z ENDP ; std::vector<CLEComponent *,std::allocator<CLEComponent *> >::iterator::iterator
_TEXT	ENDS
PUBLIC	??0iterator@?$vector@PAVCLordSkillComponentExecutable@@V?$allocator@PAVCLordSkillComponentExecutable@@@std@@@std@@QAE@PAPAVCLordSkillComponentExecutable@@@Z ; std::vector<CLordSkillComponentExecutable *,std::allocator<CLordSkillComponentExecutable *> >::iterator::iterator
; Function compile flags: /Ogty
;	COMDAT ??0iterator@?$vector@PAVCLordSkillComponentExecutable@@V?$allocator@PAVCLordSkillComponentExecutable@@@std@@@std@@QAE@PAPAVCLordSkillComponentExecutable@@@Z
_TEXT	SEGMENT
__Ptr$ = 8						; size = 4
??0iterator@?$vector@PAVCLordSkillComponentExecutable@@V?$allocator@PAVCLordSkillComponentExecutable@@@std@@@std@@QAE@PAPAVCLordSkillComponentExecutable@@@Z PROC NEAR ; std::vector<CLordSkillComponentExecutable *,std::allocator<CLordSkillComponentExecutable *> >::iterator::iterator, COMDAT
; _this$ = ecx

; 215  : 			{	// construct with pointer _Ptr

  00000	8b c1		 mov	 eax, ecx
  00002	8b 4c 24 04	 mov	 ecx, DWORD PTR __Ptr$[esp-4]
  00006	89 08		 mov	 DWORD PTR [eax], ecx

; 216  : 			}

  00008	c2 04 00	 ret	 4
??0iterator@?$vector@PAVCLordSkillComponentExecutable@@V?$allocator@PAVCLordSkillComponentExecutable@@@std@@@std@@QAE@PAPAVCLordSkillComponentExecutable@@@Z ENDP ; std::vector<CLordSkillComponentExecutable *,std::allocator<CLordSkillComponentExecutable *> >::iterator::iterator
_TEXT	ENDS
PUBLIC	??Diterator@?$vector@MV?$allocator@M@std@@@std@@QBEAAMXZ ; std::vector<float,std::allocator<float> >::iterator::operator*
; Function compile flags: /Ogty
;	COMDAT ??Diterator@?$vector@MV?$allocator@M@std@@@std@@QBEAAMXZ
_TEXT	SEGMENT
??Diterator@?$vector@MV?$allocator@M@std@@@std@@QBEAAMXZ PROC NEAR ; std::vector<float,std::allocator<float> >::iterator::operator*, COMDAT
; _this$ = ecx

; 220  : 			return ((reference)**(const_iterator *)this);

  00000	8b 01		 mov	 eax, DWORD PTR [ecx]

; 221  : 			}

  00002	c3		 ret	 0
??Diterator@?$vector@MV?$allocator@M@std@@@std@@QBEAAMXZ ENDP ; std::vector<float,std::allocator<float> >::iterator::operator*
_TEXT	ENDS
PUBLIC	??Hiterator@?$vector@MV?$allocator@M@std@@@std@@QBE?AV012@H@Z ; std::vector<float,std::allocator<float> >::iterator::operator+
; Function compile flags: /Ogty
;	COMDAT ??Hiterator@?$vector@MV?$allocator@M@std@@@std@@QBE?AV012@H@Z
_TEXT	SEGMENT
___$ReturnUdt$ = 8					; size = 4
__Off$ = 12						; size = 4
??Hiterator@?$vector@MV?$allocator@M@std@@@std@@QBE?AV012@H@Z PROC NEAR ; std::vector<float,std::allocator<float> >::iterator::operator+, COMDAT
; _this$ = ecx

; 262  : 			iterator _Tmp = *this;
; 263  : 			return (_Tmp += _Off);

  00000	8b 01		 mov	 eax, DWORD PTR [ecx]
  00002	8b 4c 24 08	 mov	 ecx, DWORD PTR __Off$[esp-4]
  00006	8d 14 88	 lea	 edx, DWORD PTR [eax+ecx*4]
  00009	8b 44 24 04	 mov	 eax, DWORD PTR ___$ReturnUdt$[esp-4]
  0000d	89 10		 mov	 DWORD PTR [eax], edx

; 264  : 			}

  0000f	c2 08 00	 ret	 8
??Hiterator@?$vector@MV?$allocator@M@std@@@std@@QBE?AV012@H@Z ENDP ; std::vector<float,std::allocator<float> >::iterator::operator+
_TEXT	ENDS
PUBLIC	?allocate@?$allocator@H@std@@QAEPAHI@Z		; std::allocator<int>::allocate
; Function compile flags: /Ogty
; File c:\program files\microsoft visual studio .net 2003\vc7\include\xmemory
;	COMDAT ?allocate@?$allocator@H@std@@QAEPAHI@Z
_TEXT	SEGMENT
__Count$ = 8						; size = 4
?allocate@?$allocator@H@std@@QAEPAHI@Z PROC NEAR	; std::allocator<int>::allocate, COMDAT
; _this$ = ecx

; 137  : 		return (_Allocate(_Count, (pointer)0));

  00000	8b 44 24 04	 mov	 eax, DWORD PTR __Count$[esp-4]
  00004	8d 0c 85 00 00
	00 00		 lea	 ecx, DWORD PTR [eax*4]
  0000b	51		 push	 ecx
  0000c	e8 00 00 00 00	 call	 ??2@YAPAXI@Z		; operator new
  00011	83 c4 04	 add	 esp, 4

; 138  : 		}

  00014	c2 04 00	 ret	 4
?allocate@?$allocator@H@std@@QAEPAHI@Z ENDP		; std::allocator<int>::allocate
_TEXT	ENDS
PUBLIC	?max_size@?$vector@MV?$allocator@M@std@@@std@@QBEIXZ ; std::vector<float,std::allocator<float> >::max_size
; Function compile flags: /Ogty
; File c:\program files\microsoft visual studio .net 2003\vc7\include\vector
;	COMDAT ?max_size@?$vector@MV?$allocator@M@std@@@std@@QBEIXZ
_TEXT	SEGMENT
?max_size@?$vector@MV?$allocator@M@std@@@std@@QBEIXZ PROC NEAR ; std::vector<float,std::allocator<float> >::max_size, COMDAT
; _this$ = ecx

; 521  : 		return (this->_Alval.max_size());

  00000	b8 ff ff ff 3f	 mov	 eax, 1073741823		; 3fffffffH

; 522  : 		}

  00005	c3		 ret	 0
?max_size@?$vector@MV?$allocator@M@std@@@std@@QBEIXZ ENDP ; std::vector<float,std::allocator<float> >::max_size
_TEXT	ENDS
PUBLIC	?allocate@?$allocator@M@std@@QAEPAMI@Z		; std::allocator<float>::allocate
; Function compile flags: /Ogty
; File c:\program files\microsoft visual studio .net 2003\vc7\include\xmemory
;	COMDAT ?allocate@?$allocator@M@std@@QAEPAMI@Z
_TEXT	SEGMENT
__Count$ = 8						; size = 4
?allocate@?$allocator@M@std@@QAEPAMI@Z PROC NEAR	; std::allocator<float>::allocate, COMDAT
; _this$ = ecx

; 137  : 		return (_Allocate(_Count, (pointer)0));

  00000	8b 44 24 04	 mov	 eax, DWORD PTR __Count$[esp-4]
  00004	8d 0c 85 00 00
	00 00		 lea	 ecx, DWORD PTR [eax*4]
  0000b	51		 push	 ecx
  0000c	e8 00 00 00 00	 call	 ??2@YAPAXI@Z		; operator new
  00011	83 c4 04	 add	 esp, 4

; 138  : 		}

  00014	c2 04 00	 ret	 4
?allocate@?$allocator@M@std@@QAEPAMI@Z ENDP		; std::allocator<float>::allocate
_TEXT	ENDS
PUBLIC	?max_size@?$vector@HV?$allocator@H@std@@@std@@QBEIXZ ; std::vector<int,std::allocator<int> >::max_size
; Function compile flags: /Ogty
; File c:\program files\microsoft visual studio .net 2003\vc7\include\vector
;	COMDAT ?max_size@?$vector@HV?$allocator@H@std@@@std@@QBEIXZ
_TEXT	SEGMENT
?max_size@?$vector@HV?$allocator@H@std@@@std@@QBEIXZ PROC NEAR ; std::vector<int,std::allocator<int> >::max_size, COMDAT
; _this$ = ecx

; 521  : 		return (this->_Alval.max_size());

  00000	b8 ff ff ff 3f	 mov	 eax, 1073741823		; 3fffffffH

; 522  : 		}

  00005	c3		 ret	 0
?max_size@?$vector@HV?$allocator@H@std@@@std@@QBEIXZ ENDP ; std::vector<int,std::allocator<int> >::max_size
_TEXT	ENDS
PUBLIC	??Hiterator@?$vector@HV?$allocator@H@std@@@std@@QBE?AV012@H@Z ; std::vector<int,std::allocator<int> >::iterator::operator+
; Function compile flags: /Ogty
;	COMDAT ??Hiterator@?$vector@HV?$allocator@H@std@@@std@@QBE?AV012@H@Z
_TEXT	SEGMENT
___$ReturnUdt$ = 8					; size = 4
__Off$ = 12						; size = 4
??Hiterator@?$vector@HV?$allocator@H@std@@@std@@QBE?AV012@H@Z PROC NEAR ; std::vector<int,std::allocator<int> >::iterator::operator+, COMDAT
; _this$ = ecx

; 262  : 			iterator _Tmp = *this;
; 263  : 			return (_Tmp += _Off);

  00000	8b 01		 mov	 eax, DWORD PTR [ecx]
  00002	8b 4c 24 08	 mov	 ecx, DWORD PTR __Off$[esp-4]
  00006	8d 14 88	 lea	 edx, DWORD PTR [eax+ecx*4]
  00009	8b 44 24 04	 mov	 eax, DWORD PTR ___$ReturnUdt$[esp-4]
  0000d	89 10		 mov	 DWORD PTR [eax], edx

; 264  : 			}

  0000f	c2 08 00	 ret	 8
??Hiterator@?$vector@HV?$allocator@H@std@@@std@@QBE?AV012@H@Z ENDP ; std::vector<int,std::allocator<int> >::iterator::operator+
_TEXT	ENDS
PUBLIC	??Giterator@?$vector@HV?$allocator@H@std@@@std@@QBEHABVconst_iterator@12@@Z ; std::vector<int,std::allocator<int> >::iterator::operator-
; Function compile flags: /Ogty
;	COMDAT ??Giterator@?$vector@HV?$allocator@H@std@@@std@@QBEHABVconst_iterator@12@@Z
_TEXT	SEGMENT
__Right$ = 8						; size = 4
??Giterator@?$vector@HV?$allocator@H@std@@@std@@QBEHABVconst_iterator@12@@Z PROC NEAR ; std::vector<int,std::allocator<int> >::iterator::operator-, COMDAT
; _this$ = ecx

; 279  : 			return ((const_iterator)*this - _Right);

  00000	8b 01		 mov	 eax, DWORD PTR [ecx]
  00002	8b 4c 24 04	 mov	 ecx, DWORD PTR __Right$[esp-4]
  00006	2b 01		 sub	 eax, DWORD PTR [ecx]
  00008	c1 f8 02	 sar	 eax, 2

; 280  : 			}

  0000b	c2 04 00	 ret	 4
??Giterator@?$vector@HV?$allocator@H@std@@@std@@QBEHABVconst_iterator@12@@Z ENDP ; std::vector<int,std::allocator<int> >::iterator::operator-
_TEXT	ENDS
PUBLIC	??0iterator@?$vector@MV?$allocator@M@std@@@std@@QAE@PAM@Z ; std::vector<float,std::allocator<float> >::iterator::iterator
; Function compile flags: /Ogty
;	COMDAT ??0iterator@?$vector@MV?$allocator@M@std@@@std@@QAE@PAM@Z
_TEXT	SEGMENT
__Ptr$ = 8						; size = 4
??0iterator@?$vector@MV?$allocator@M@std@@@std@@QAE@PAM@Z PROC NEAR ; std::vector<float,std::allocator<float> >::iterator::iterator, COMDAT
; _this$ = ecx

; 215  : 			{	// construct with pointer _Ptr

  00000	8b c1		 mov	 eax, ecx
  00002	8b 4c 24 04	 mov	 ecx, DWORD PTR __Ptr$[esp-4]
  00006	89 08		 mov	 DWORD PTR [eax], ecx

; 216  : 			}

  00008	c2 04 00	 ret	 4
??0iterator@?$vector@MV?$allocator@M@std@@@std@@QAE@PAM@Z ENDP ; std::vector<float,std::allocator<float> >::iterator::iterator
_TEXT	ENDS
PUBLIC	??Giterator@?$vector@MV?$allocator@M@std@@@std@@QBEHABVconst_iterator@12@@Z ; std::vector<float,std::allocator<float> >::iterator::operator-
; Function compile flags: /Ogty
;	COMDAT ??Giterator@?$vector@MV?$allocator@M@std@@@std@@QBEHABVconst_iterator@12@@Z
_TEXT	SEGMENT
__Right$ = 8						; size = 4
??Giterator@?$vector@MV?$allocator@M@std@@@std@@QBEHABVconst_iterator@12@@Z PROC NEAR ; std::vector<float,std::allocator<float> >::iterator::operator-, COMDAT
; _this$ = ecx

; 279  : 			return ((const_iterator)*this - _Right);

  00000	8b 01		 mov	 eax, DWORD PTR [ecx]
  00002	8b 4c 24 04	 mov	 ecx, DWORD PTR __Right$[esp-4]
  00006	2b 01		 sub	 eax, DWORD PTR [ecx]
  00008	c1 f8 02	 sar	 eax, 2

; 280  : 			}

  0000b	c2 04 00	 ret	 4
??Giterator@?$vector@MV?$allocator@M@std@@@std@@QBEHABVconst_iterator@12@@Z ENDP ; std::vector<float,std::allocator<float> >::iterator::operator-
_TEXT	ENDS
PUBLIC	??$_Destroy_range@MV?$allocator@M@std@@@std@@YAXPAM0AAV?$allocator@M@0@@Z ; std::_Destroy_range<float,std::allocator<float> >
; Function compile flags: /Ogty
; File c:\program files\microsoft visual studio .net 2003\vc7\include\xmemory
;	COMDAT ??$_Destroy_range@MV?$allocator@M@std@@@std@@YAXPAM0AAV?$allocator@M@0@@Z
_TEXT	SEGMENT
__First$ = 8						; size = 4
__Last$ = 12						; size = 4
__Al$ = 16						; size = 4
??$_Destroy_range@MV?$allocator@M@std@@@std@@YAXPAM0AAV?$allocator@M@0@@Z PROC NEAR ; std::_Destroy_range<float,std::allocator<float> >, COMDAT

; 217  : 	_Destroy_range(_First, _Last, _Al, _Ptr_cat(_First, _Last));
; 218  : 	}

  00000	c3		 ret	 0
??$_Destroy_range@MV?$allocator@M@std@@@std@@YAXPAM0AAV?$allocator@M@0@@Z ENDP ; std::_Destroy_range<float,std::allocator<float> >
_TEXT	ENDS
PUBLIC	??$copy_backward@PAMPAM@std@@YAPAMPAM00@Z	; std::copy_backward<float *,float *>
; Function compile flags: /Ogty
; File c:\program files\microsoft visual studio .net 2003\vc7\include\xutility
;	COMDAT ??$copy_backward@PAMPAM@std@@YAPAMPAM00@Z
_TEXT	SEGMENT
__First$ = 8						; size = 4
__Last$ = 12						; size = 4
__Dest$ = 16						; size = 4
??$copy_backward@PAMPAM@std@@YAPAMPAM00@Z PROC NEAR	; std::copy_backward<float *,float *>, COMDAT

; 1068 : 	return (_Copy_backward_opt(_First, _Last, _Dest,
; 1069 : 		_Ptr_cat(_First, _Dest)));

  00000	8b 4c 24 04	 mov	 ecx, DWORD PTR __First$[esp-4]
  00004	8b 44 24 08	 mov	 eax, DWORD PTR __Last$[esp-4]
  00008	2b c1		 sub	 eax, ecx
  0000a	c1 f8 02	 sar	 eax, 2
  0000d	c1 e0 02	 shl	 eax, 2
  00010	50		 push	 eax
  00011	51		 push	 ecx
  00012	8b 4c 24 14	 mov	 ecx, DWORD PTR __Dest$[esp+4]
  00016	2b c8		 sub	 ecx, eax
  00018	51		 push	 ecx
  00019	e8 00 00 00 00	 call	 _memmove
  0001e	83 c4 0c	 add	 esp, 12			; 0000000cH

; 1070 : 	}

  00021	c3		 ret	 0
??$copy_backward@PAMPAM@std@@YAPAMPAM00@Z ENDP		; std::copy_backward<float *,float *>
_TEXT	ENDS
PUBLIC	??$_Destroy_range@HV?$allocator@H@std@@@std@@YAXPAH0AAV?$allocator@H@0@@Z ; std::_Destroy_range<int,std::allocator<int> >
; Function compile flags: /Ogty
; File c:\program files\microsoft visual studio .net 2003\vc7\include\xmemory
;	COMDAT ??$_Destroy_range@HV?$allocator@H@std@@@std@@YAXPAH0AAV?$allocator@H@0@@Z
_TEXT	SEGMENT
__First$ = 8						; size = 4
__Last$ = 12						; size = 4
__Al$ = 16						; size = 4
??$_Destroy_range@HV?$allocator@H@std@@@std@@YAXPAH0AAV?$allocator@H@0@@Z PROC NEAR ; std::_Destroy_range<int,std::allocator<int> >, COMDAT

; 217  : 	_Destroy_range(_First, _Last, _Al, _Ptr_cat(_First, _Last));
; 218  : 	}

  00000	c3		 ret	 0
??$_Destroy_range@HV?$allocator@H@std@@@std@@YAXPAH0AAV?$allocator@H@0@@Z ENDP ; std::_Destroy_range<int,std::allocator<int> >
_TEXT	ENDS
PUBLIC	??$copy_backward@PAHPAH@std@@YAPAHPAH00@Z	; std::copy_backward<int *,int *>
; Function compile flags: /Ogty
; File c:\program files\microsoft visual studio .net 2003\vc7\include\xutility
;	COMDAT ??$copy_backward@PAHPAH@std@@YAPAHPAH00@Z
_TEXT	SEGMENT
__First$ = 8						; size = 4
__Last$ = 12						; size = 4
__Dest$ = 16						; size = 4
??$copy_backward@PAHPAH@std@@YAPAHPAH00@Z PROC NEAR	; std::copy_backward<int *,int *>, COMDAT

; 1068 : 	return (_Copy_backward_opt(_First, _Last, _Dest,
; 1069 : 		_Ptr_cat(_First, _Dest)));

  00000	8b 4c 24 04	 mov	 ecx, DWORD PTR __First$[esp-4]
  00004	8b 44 24 08	 mov	 eax, DWORD PTR __Last$[esp-4]
  00008	2b c1		 sub	 eax, ecx
  0000a	c1 f8 02	 sar	 eax, 2
  0000d	c1 e0 02	 shl	 eax, 2
  00010	50		 push	 eax
  00011	51		 push	 ecx
  00012	8b 4c 24 14	 mov	 ecx, DWORD PTR __Dest$[esp+4]
  00016	2b c8		 sub	 ecx, eax
  00018	51		 push	 ecx
  00019	e8 00 00 00 00	 call	 _memmove
  0001e	83 c4 0c	 add	 esp, 12			; 0000000cH

; 1070 : 	}

  00021	c3		 ret	 0
??$copy_backward@PAHPAH@std@@YAPAHPAH00@Z ENDP		; std::copy_backward<int *,int *>
_TEXT	ENDS
PUBLIC	??Diterator@?$vector@V?$shared_ptr@VCCandidate@@@boost@@V?$allocator@V?$shared_ptr@VCCandidate@@@boost@@@std@@@std@@QBEAAV?$shared_ptr@VCCandidate@@@boost@@XZ ; std::vector<boost::shared_ptr<CCandidate>,std::allocator<boost::shared_ptr<CCandidate> > >::iterator::operator*
; Function compile flags: /Ogty
; File c:\program files\microsoft visual studio .net 2003\vc7\include\vector
;	COMDAT ??Diterator@?$vector@V?$shared_ptr@VCCandidate@@@boost@@V?$allocator@V?$shared_ptr@VCCandidate@@@boost@@@std@@@std@@QBEAAV?$shared_ptr@VCCandidate@@@boost@@XZ
_TEXT	SEGMENT
??Diterator@?$vector@V?$shared_ptr@VCCandidate@@@boost@@V?$allocator@V?$shared_ptr@VCCandidate@@@boost@@@std@@@std@@QBEAAV?$shared_ptr@VCCandidate@@@boost@@XZ PROC NEAR ; std::vector<boost::shared_ptr<CCandidate>,std::allocator<boost::shared_ptr<CCandidate> > >::iterator::operator*, COMDAT
; _this$ = ecx

; 220  : 			return ((reference)**(const_iterator *)this);

  00000	8b 01		 mov	 eax, DWORD PTR [ecx]

; 221  : 			}

  00002	c3		 ret	 0
??Diterator@?$vector@V?$shared_ptr@VCCandidate@@@boost@@V?$allocator@V?$shared_ptr@VCCandidate@@@boost@@@std@@@std@@QBEAAV?$shared_ptr@VCCandidate@@@boost@@XZ ENDP ; std::vector<boost::shared_ptr<CCandidate>,std::allocator<boost::shared_ptr<CCandidate> > >::iterator::operator*
_TEXT	ENDS
PUBLIC	??9const_iterator@?$vector@V?$shared_ptr@VCCandidate@@@boost@@V?$allocator@V?$shared_ptr@VCCandidate@@@boost@@@std@@@std@@QBE_NABV012@@Z ; std::vector<boost::shared_ptr<CCandidate>,std::allocator<boost::shared_ptr<CCandidate> > >::const_iterator::operator!=
; Function compile flags: /Ogty
;	COMDAT ??9const_iterator@?$vector@V?$shared_ptr@VCCandidate@@@boost@@V?$allocator@V?$shared_ptr@VCCandidate@@@boost@@@std@@@std@@QBE_NABV012@@Z
_TEXT	SEGMENT
__Right$ = 8						; size = 4
??9const_iterator@?$vector@V?$shared_ptr@VCCandidate@@@boost@@V?$allocator@V?$shared_ptr@VCCandidate@@@boost@@@std@@@std@@QBE_NABV012@@Z PROC NEAR ; std::vector<boost::shared_ptr<CCandidate>,std::allocator<boost::shared_ptr<CCandidate> > >::const_iterator::operator!=, COMDAT
; _this$ = ecx

; 160  : 			return (!(*this == _Right));

  00000	8b 01		 mov	 eax, DWORD PTR [ecx]
  00002	8b 54 24 04	 mov	 edx, DWORD PTR __Right$[esp-4]
  00006	56		 push	 esi
  00007	8b 32		 mov	 esi, DWORD PTR [edx]
  00009	33 c9		 xor	 ecx, ecx
  0000b	3b c6		 cmp	 eax, esi
  0000d	0f 95 c1	 setne	 cl
  00010	8a c1		 mov	 al, cl
  00012	5e		 pop	 esi

; 161  : 			}

  00013	c2 04 00	 ret	 4
??9const_iterator@?$vector@V?$shared_ptr@VCCandidate@@@boost@@V?$allocator@V?$shared_ptr@VCCandidate@@@boost@@@std@@@std@@QBE_NABV012@@Z ENDP ; std::vector<boost::shared_ptr<CCandidate>,std::allocator<boost::shared_ptr<CCandidate> > >::const_iterator::operator!=
_TEXT	ENDS
PUBLIC	??$_Uninit_fill_n@MIM@std@@YAXPAMIABMAAV?$allocator@M@0@U_Scalar_ptr_iterator_tag@0@@Z ; std::_Uninit_fill_n<float,unsigned int,float>
; Function compile flags: /Ogty
; File c:\program files\microsoft visual studio .net 2003\vc7\include\memory
;	COMDAT ??$_Uninit_fill_n@MIM@std@@YAXPAMIABMAAV?$allocator@M@0@U_Scalar_ptr_iterator_tag@0@@Z
_TEXT	SEGMENT
__First$ = 8						; size = 4
__Count$ = 12						; size = 4
__Val$ = 16						; size = 4
___formal$ = 20						; size = 4
___formal$ = 24						; size = 1
??$_Uninit_fill_n@MIM@std@@YAXPAMIABMAAV?$allocator@M@0@U_Scalar_ptr_iterator_tag@0@@Z PROC NEAR ; std::_Uninit_fill_n<float,unsigned int,float>, COMDAT

; 237  : 	fill_n(_First, _Count, _Val);

  00000	8b 4c 24 08	 mov	 ecx, DWORD PTR __Count$[esp-4]
  00004	85 c9		 test	 ecx, ecx
  00006	8b 44 24 04	 mov	 eax, DWORD PTR __First$[esp-4]
  0000a	76 10		 jbe	 SHORT $L207253
  0000c	8b 54 24 0c	 mov	 edx, DWORD PTR __Val$[esp-4]
  00010	56		 push	 esi
$L207251:
  00011	8b 32		 mov	 esi, DWORD PTR [edx]
  00013	89 30		 mov	 DWORD PTR [eax], esi
  00015	83 c0 04	 add	 eax, 4
  00018	49		 dec	 ecx
  00019	75 f6		 jne	 SHORT $L207251
  0001b	5e		 pop	 esi
$L207253:

; 238  : 	}

  0001c	c3		 ret	 0
??$_Uninit_fill_n@MIM@std@@YAXPAMIABMAAV?$allocator@M@0@U_Scalar_ptr_iterator_tag@0@@Z ENDP ; std::_Uninit_fill_n<float,unsigned int,float>
_TEXT	ENDS
PUBLIC	??$_Uninit_fill_n@HIH@std@@YAXPAHIABHAAV?$allocator@H@0@U_Scalar_ptr_iterator_tag@0@@Z ; std::_Uninit_fill_n<int,unsigned int,int>
; Function compile flags: /Ogty
;	COMDAT ??$_Uninit_fill_n@HIH@std@@YAXPAHIABHAAV?$allocator@H@0@U_Scalar_ptr_iterator_tag@0@@Z
_TEXT	SEGMENT
__First$ = 8						; size = 4
__Count$ = 12						; size = 4
__Val$ = 16						; size = 4
___formal$ = 20						; size = 4
___formal$ = 24						; size = 1
??$_Uninit_fill_n@HIH@std@@YAXPAHIABHAAV?$allocator@H@0@U_Scalar_ptr_iterator_tag@0@@Z PROC NEAR ; std::_Uninit_fill_n<int,unsigned int,int>, COMDAT

; 237  : 	fill_n(_First, _Count, _Val);

  00000	8b 4c 24 08	 mov	 ecx, DWORD PTR __Count$[esp-4]
  00004	85 c9		 test	 ecx, ecx
  00006	8b 44 24 04	 mov	 eax, DWORD PTR __First$[esp-4]
  0000a	76 10		 jbe	 SHORT $L207265
  0000c	8b 54 24 0c	 mov	 edx, DWORD PTR __Val$[esp-4]
  00010	56		 push	 esi
$L207263:
  00011	8b 32		 mov	 esi, DWORD PTR [edx]
  00013	89 30		 mov	 DWORD PTR [eax], esi
  00015	83 c0 04	 add	 eax, 4
  00018	49		 dec	 ecx
  00019	75 f6		 jne	 SHORT $L207263
  0001b	5e		 pop	 esi
$L207265:

; 238  : 	}

  0001c	c3		 ret	 0
??$_Uninit_fill_n@HIH@std@@YAXPAHIABHAAV?$allocator@H@0@U_Scalar_ptr_iterator_tag@0@@Z ENDP ; std::_Uninit_fill_n<int,unsigned int,int>
_TEXT	ENDS
PUBLIC	??$_Uninitialized_copy@PAMPAMV?$allocator@M@std@@@std@@YAPAMPAM00AAV?$allocator@M@0@@Z ; std::_Uninitialized_copy<float *,float *,std::allocator<float> >
; Function compile flags: /Ogty
;	COMDAT ??$_Uninitialized_copy@PAMPAMV?$allocator@M@std@@@std@@YAPAMPAM00AAV?$allocator@M@0@@Z
_TEXT	SEGMENT
__First$ = 8						; size = 4
__Last$ = 12						; size = 4
__Dest$ = 16						; size = 4
__Al$ = 20						; size = 4
??$_Uninitialized_copy@PAMPAMV?$allocator@M@std@@@std@@YAPAMPAM00AAV?$allocator@M@0@@Z PROC NEAR ; std::_Uninitialized_copy<float *,float *,std::allocator<float> >, COMDAT

; 127  : 	return (_Uninit_copy(_First, _Last, _Dest, _Al,
; 128  : 		_Ptr_cat(_First, _Dest)));

  00000	8b 4c 24 04	 mov	 ecx, DWORD PTR __First$[esp-4]
  00004	8b 44 24 08	 mov	 eax, DWORD PTR __Last$[esp-4]
  00008	2b c1		 sub	 eax, ecx
  0000a	56		 push	 esi
  0000b	c1 f8 02	 sar	 eax, 2
  0000e	8d 34 85 00 00
	00 00		 lea	 esi, DWORD PTR [eax*4]
  00015	8b 44 24 10	 mov	 eax, DWORD PTR __Dest$[esp]
  00019	56		 push	 esi
  0001a	51		 push	 ecx
  0001b	50		 push	 eax
  0001c	e8 00 00 00 00	 call	 _memmove
  00021	83 c4 0c	 add	 esp, 12			; 0000000cH
  00024	03 c6		 add	 eax, esi
  00026	5e		 pop	 esi

; 129  : 	}

  00027	c3		 ret	 0
??$_Uninitialized_copy@PAMPAMV?$allocator@M@std@@@std@@YAPAMPAM00AAV?$allocator@M@0@@Z ENDP ; std::_Uninitialized_copy<float *,float *,std::allocator<float> >
_TEXT	ENDS
PUBLIC	??$_Uninitialized_copy@PAHPAHV?$allocator@H@std@@@std@@YAPAHPAH00AAV?$allocator@H@0@@Z ; std::_Uninitialized_copy<int *,int *,std::allocator<int> >
; Function compile flags: /Ogty
;	COMDAT ??$_Uninitialized_copy@PAHPAHV?$allocator@H@std@@@std@@YAPAHPAH00AAV?$allocator@H@0@@Z
_TEXT	SEGMENT
__First$ = 8						; size = 4
__Last$ = 12						; size = 4
__Dest$ = 16						; size = 4
__Al$ = 20						; size = 4
??$_Uninitialized_copy@PAHPAHV?$allocator@H@std@@@std@@YAPAHPAH00AAV?$allocator@H@0@@Z PROC NEAR ; std::_Uninitialized_copy<int *,int *,std::allocator<int> >, COMDAT

; 127  : 	return (_Uninit_copy(_First, _Last, _Dest, _Al,
; 128  : 		_Ptr_cat(_First, _Dest)));

  00000	8b 4c 24 04	 mov	 ecx, DWORD PTR __First$[esp-4]
  00004	8b 44 24 08	 mov	 eax, DWORD PTR __Last$[esp-4]
  00008	2b c1		 sub	 eax, ecx
  0000a	56		 push	 esi
  0000b	c1 f8 02	 sar	 eax, 2
  0000e	8d 34 85 00 00
	00 00		 lea	 esi, DWORD PTR [eax*4]
  00015	8b 44 24 10	 mov	 eax, DWORD PTR __Dest$[esp]
  00019	56		 push	 esi
  0001a	51		 push	 ecx
  0001b	50		 push	 eax
  0001c	e8 00 00 00 00	 call	 _memmove
  00021	83 c4 0c	 add	 esp, 12			; 0000000cH
  00024	03 c6		 add	 eax, esi
  00026	5e		 pop	 esi

; 129  : 	}

  00027	c3		 ret	 0
??$_Uninitialized_copy@PAHPAHV?$allocator@H@std@@@std@@YAPAHPAH00AAV?$allocator@H@0@@Z ENDP ; std::_Uninitialized_copy<int *,int *,std::allocator<int> >
_TEXT	ENDS
PUBLIC	?GetText@CProject@@QAEPBDK@Z			; CProject::GetText
PUBLIC	??_C@_00CNPNBAHC@?$AA@				; `string'
;	COMDAT ??_C@_00CNPNBAHC@?$AA@
; File c:\documents and settings\test\mes documents\source\virtuos_v17\build\program\_common\data.h
CONST	SEGMENT
??_C@_00CNPNBAHC@?$AA@ DB 00H				; `string'
; Function compile flags: /Ogty
; File c:\documents and settings\test\mes documents\source\virtuos_v17\build\program\databaseserver\project.h
CONST	ENDS
;	COMDAT ?GetText@CProject@@QAEPBDK@Z
_TEXT	SEGMENT
_dwIndex$ = 8						; size = 4
?GetText@CProject@@QAEPBDK@Z PROC NEAR			; CProject::GetText, COMDAT
; _this$ = ecx

; 184  : 		if( m_colorText.GetAt( dwIndex ) == NULL )

  00000	8b 44 24 04	 mov	 eax, DWORD PTR _dwIndex$[esp-4]
  00004	3b 41 7c	 cmp	 eax, DWORD PTR [ecx+124]
  00007	73 0a		 jae	 SHORT $L207306
  00009	8b 51 6c	 mov	 edx, DWORD PTR [ecx+108]
  0000c	8b 14 82	 mov	 edx, DWORD PTR [edx+eax*4]
  0000f	85 d2		 test	 edx, edx
  00011	75 08		 jne	 SHORT $L156726
$L207306:

; 185  : 			return "";

  00013	b8 00 00 00 00	 mov	 eax, OFFSET FLAT:??_C@_00CNPNBAHC@?$AA@

; 187  : 	}

  00018	c2 04 00	 ret	 4
$L156726:

; 186  : 		return m_colorText.GetAt( dwIndex )->lpszData; 

  0001b	3b 41 7c	 cmp	 eax, DWORD PTR [ecx+124]
  0001e	72 08		 jb	 SHORT $L207303
  00020	33 c0		 xor	 eax, eax
  00022	8b 40 04	 mov	 eax, DWORD PTR [eax+4]

; 187  : 	}

  00025	c2 04 00	 ret	 4

; 186  : 		return m_colorText.GetAt( dwIndex )->lpszData; 

$L207303:
  00028	8b 49 6c	 mov	 ecx, DWORD PTR [ecx+108]
  0002b	8b 04 81	 mov	 eax, DWORD PTR [ecx+eax*4]
  0002e	8b 40 04	 mov	 eax, DWORD PTR [eax+4]

; 187  : 	}

  00031	c2 04 00	 ret	 4
?GetText@CProject@@QAEPBDK@Z ENDP			; CProject::GetText
_TEXT	ENDS
PUBLIC	??5CAr@@QAEAAV0@AAH@Z				; CAr::operator>>
; Function compile flags: /Ogty
; File c:\documents and settings\test\mes documents\source\virtuos_v17\build\program\_network\misc\include\ar.h
;	COMDAT ??5CAr@@QAEAAV0@AAH@Z
_TEXT	SEGMENT
_i$ = 8							; size = 4
??5CAr@@QAEAAV0@AAH@Z PROC NEAR				; CAr::operator>>, COMDAT
; _this$ = ecx

; 126  : 	{ return CAr::operator>>((LONG&)i); }

  00000	8b c1		 mov	 eax, ecx
  00002	8b 48 08	 mov	 ecx, DWORD PTR [eax+8]
  00005	56		 push	 esi
  00006	8b 70 0c	 mov	 esi, DWORD PTR [eax+12]
  00009	8d 51 04	 lea	 edx, DWORD PTR [ecx+4]
  0000c	3b d6		 cmp	 edx, esi
  0000e	5e		 pop	 esi
  0000f	77 0f		 ja	 SHORT $L207311
  00011	8b 09		 mov	 ecx, DWORD PTR [ecx]
  00013	8b 54 24 04	 mov	 edx, DWORD PTR _i$[esp-4]
  00017	89 0a		 mov	 DWORD PTR [edx], ecx
  00019	83 40 08 04	 add	 DWORD PTR [eax+8], 4
  0001d	c2 04 00	 ret	 4
$L207311:
  00020	8b 4c 24 04	 mov	 ecx, DWORD PTR _i$[esp-4]
  00024	c7 01 00 00 00
	00		 mov	 DWORD PTR [ecx], 0
  0002a	8b 50 0c	 mov	 edx, DWORD PTR [eax+12]
  0002d	89 50 08	 mov	 DWORD PTR [eax+8], edx
  00030	c2 04 00	 ret	 4
??5CAr@@QAEAAV0@AAH@Z ENDP				; CAr::operator>>
_TEXT	ENDS
PUBLIC	?GetLength@?$CSimpleStringT@D$0A@@ATL@@QBEHXZ	; ATL::CSimpleStringT<char,0>::GetLength
; Function compile flags: /Ogty
; File c:\program files\microsoft visual studio .net 2003\vc7\atlmfc\include\atlsimpstr.h
;	COMDAT ?GetLength@?$CSimpleStringT@D$0A@@ATL@@QBEHXZ
_TEXT	SEGMENT
?GetLength@?$CSimpleStringT@D$0A@@ATL@@QBEHXZ PROC NEAR	; ATL::CSimpleStringT<char,0>::GetLength, COMDAT
; _this$ = ecx

; 501  : 		return( GetData()->nDataLength );

  00000	8b 01		 mov	 eax, DWORD PTR [ecx]
  00002	8b 40 f4	 mov	 eax, DWORD PTR [eax-12]

; 502  : 	}

  00005	c3		 ret	 0
?GetLength@?$CSimpleStringT@D$0A@@ATL@@QBEHXZ ENDP	; ATL::CSimpleStringT<char,0>::GetLength
_TEXT	ENDS
PUBLIC	??0?$CSimpleStringT@D$0A@@ATL@@QAE@PAUIAtlStringMgr@1@@Z ; ATL::CSimpleStringT<char,0>::CSimpleStringT<char,0>
; Function compile flags: /Ogty
;	COMDAT ??0?$CSimpleStringT@D$0A@@ATL@@QAE@PAUIAtlStringMgr@1@@Z
_TEXT	SEGMENT
_pStringMgr$ = 8					; size = 4
??0?$CSimpleStringT@D$0A@@ATL@@QAE@PAUIAtlStringMgr@1@@Z PROC NEAR ; ATL::CSimpleStringT<char,0>::CSimpleStringT<char,0>, COMDAT
; _this$ = ecx

; 210  : 	explicit CSimpleStringT( IAtlStringMgr* pStringMgr ) throw()

  00000	56		 push	 esi
  00001	8b f1		 mov	 esi, ecx

; 211  : 	{
; 212  : 		ATLASSERT( pStringMgr != NULL );
; 213  : 		CStringData* pData = pStringMgr->GetNilString();

  00003	8b 4c 24 08	 mov	 ecx, DWORD PTR _pStringMgr$[esp]
  00007	8b 01		 mov	 eax, DWORD PTR [ecx]
  00009	ff 50 0c	 call	 DWORD PTR [eax+12]

; 214  : 		Attach( pData );

  0000c	83 c0 10	 add	 eax, 16			; 00000010H
  0000f	89 06		 mov	 DWORD PTR [esi], eax

; 215  : 	}

  00011	8b c6		 mov	 eax, esi
  00013	5e		 pop	 esi
  00014	c2 04 00	 ret	 4
??0?$CSimpleStringT@D$0A@@ATL@@QAE@PAUIAtlStringMgr@1@@Z ENDP ; ATL::CSimpleStringT<char,0>::CSimpleStringT<char,0>
_TEXT	ENDS
PUBLIC	??1?$CSimpleStringT@D$0A@@ATL@@QAE@XZ		; ATL::CSimpleStringT<char,0>::~CSimpleStringT<char,0>
; Function compile flags: /Ogty
;	COMDAT ??1?$CSimpleStringT@D$0A@@ATL@@QAE@XZ
_TEXT	SEGMENT
??1?$CSimpleStringT@D$0A@@ATL@@QAE@XZ PROC NEAR		; ATL::CSimpleStringT<char,0>::~CSimpleStringT<char,0>, COMDAT
; _this$ = ecx

; 263  : 		CStringData* pData = GetData();

  00000	8b 01		 mov	 eax, DWORD PTR [ecx]
  00002	83 e8 10	 sub	 eax, 16			; 00000010H

; 264  : 		pData->Release();

  00005	8d 48 0c	 lea	 ecx, DWORD PTR [eax+12]
  00008	83 ca ff	 or	 edx, -1
  0000b	f0 0f c1 11	 lock	  xadd	 DWORD PTR [ecx], edx
  0000f	4a		 dec	 edx
  00010	85 d2		 test	 edx, edx
  00012	7f 08		 jg	 SHORT $L207337
  00014	8b 08		 mov	 ecx, DWORD PTR [eax]
  00016	8b 11		 mov	 edx, DWORD PTR [ecx]
  00018	50		 push	 eax
  00019	ff 52 04	 call	 DWORD PTR [edx+4]
$L207337:

; 265  : 	}

  0001c	c3		 ret	 0
??1?$CSimpleStringT@D$0A@@ATL@@QAE@XZ ENDP		; ATL::CSimpleStringT<char,0>::~CSimpleStringT<char,0>
_TEXT	ENDS
PUBLIC	?ReleaseBufferSetLength@?$CSimpleStringT@D$0A@@ATL@@QAEXH@Z ; ATL::CSimpleStringT<char,0>::ReleaseBufferSetLength
; Function compile flags: /Ogty
;	COMDAT ?ReleaseBufferSetLength@?$CSimpleStringT@D$0A@@ATL@@QAEXH@Z
_TEXT	SEGMENT
_nNewLength$ = 8					; size = 4
?ReleaseBufferSetLength@?$CSimpleStringT@D$0A@@ATL@@QAEXH@Z PROC NEAR ; ATL::CSimpleStringT<char,0>::ReleaseBufferSetLength, COMDAT
; _this$ = ecx

; 547  : 		ATLASSERT( nNewLength >= 0 );
; 548  : 		SetLength( nNewLength );

  00000	8b 44 24 04	 mov	 eax, DWORD PTR _nNewLength$[esp-4]
  00004	85 c0		 test	 eax, eax
  00006	7c 13		 jl	 SHORT $L207354
  00008	8b 11		 mov	 edx, DWORD PTR [ecx]
  0000a	3b 42 f8	 cmp	 eax, DWORD PTR [edx-8]
  0000d	7f 0c		 jg	 SHORT $L207354
  0000f	89 42 f4	 mov	 DWORD PTR [edx-12], eax
  00012	8b 09		 mov	 ecx, DWORD PTR [ecx]
  00014	c6 04 08 00	 mov	 BYTE PTR [eax+ecx], 0

; 549  : 	}

  00018	c2 04 00	 ret	 4
$L207354:
  0001b	68 57 00 07 80	 push	 -2147024809		; 80070057H
  00020	e8 00 00 00 00	 call	 ?AtlThrow@ATL@@YGXJ@Z	; ATL::AtlThrow
$L207356:
  00025	cc		 int	 3
?ReleaseBufferSetLength@?$CSimpleStringT@D$0A@@ATL@@QAEXH@Z ENDP ; ATL::CSimpleStringT<char,0>::ReleaseBufferSetLength
_TEXT	ENDS
PUBLIC	??0?$_String_val@DV?$allocator@D@std@@@std@@IAE@V?$allocator@D@1@@Z ; std::_String_val<char,std::allocator<char> >::_String_val<char,std::allocator<char> >
; Function compile flags: /Ogty
; File c:\program files\microsoft visual studio .net 2003\vc7\include\xstring
;	COMDAT ??0?$_String_val@DV?$allocator@D@std@@@std@@IAE@V?$allocator@D@1@@Z
_TEXT	SEGMENT
__Al$ = 8						; size = 1
??0?$_String_val@DV?$allocator@D@std@@@std@@IAE@V?$allocator@D@1@@Z PROC NEAR ; std::_String_val<char,std::allocator<char> >::_String_val<char,std::allocator<char> >, COMDAT
; _this$ = ecx

; 34   : 		{	// construct allocator from _Al

  00000	8b c1		 mov	 eax, ecx

; 35   : 		}

  00002	c2 04 00	 ret	 4
??0?$_String_val@DV?$allocator@D@std@@@std@@IAE@V?$allocator@D@1@@Z ENDP ; std::_String_val<char,std::allocator<char> >::_String_val<char,std::allocator<char> >
_TEXT	ENDS
PUBLIC	?Empty@?$CSimpleStringT@D$0A@@ATL@@QAEXXZ	; ATL::CSimpleStringT<char,0>::Empty
; Function compile flags: /Ogty
; File c:\program files\microsoft visual studio .net 2003\vc7\atlmfc\include\atlsimpstr.h
;	COMDAT ?Empty@?$CSimpleStringT@D$0A@@ATL@@QAEXXZ
_TEXT	SEGMENT
?Empty@?$CSimpleStringT@D$0A@@ATL@@QAEXXZ PROC NEAR	; ATL::CSimpleStringT<char,0>::Empty, COMDAT
; _this$ = ecx

; 421  : 	{

  00000	56		 push	 esi
  00001	8b f1		 mov	 esi, ecx

; 422  : 		CStringData* pOldData = GetData();

  00003	8b 0e		 mov	 ecx, DWORD PTR [esi]

; 423  : 		IAtlStringMgr* pStringMgr = pOldData->pStringMgr;
; 424  : 		if( pOldData->nDataLength == 0 )

  00005	8b 51 f4	 mov	 edx, DWORD PTR [ecx-12]
  00008	85 d2		 test	 edx, edx
  0000a	8d 41 f0	 lea	 eax, DWORD PTR [ecx-16]
  0000d	57		 push	 edi
  0000e	8b 38		 mov	 edi, DWORD PTR [eax]
  00010	74 4c		 je	 SHORT $L207397
  00012	53		 push	 ebx

; 425  : 		{
; 426  : 			return;
; 427  : 		}
; 428  : 
; 429  : 		if( pOldData->IsLocked() )

  00013	8b 58 0c	 mov	 ebx, DWORD PTR [eax+12]
  00016	8d 50 0c	 lea	 edx, DWORD PTR [eax+12]
  00019	85 db		 test	 ebx, ebx
  0001b	5b		 pop	 ebx
  0001c	7d 20		 jge	 SHORT $L184939

; 430  : 		{
; 431  : 			// Don't reallocate a locked buffer that's shrinking
; 432  : 			SetLength( 0 );

  0001e	8b 41 f8	 mov	 eax, DWORD PTR [ecx-8]
  00021	85 c0		 test	 eax, eax
  00023	7d 0a		 jge	 SHORT $L207383
  00025	68 57 00 07 80	 push	 -2147024809		; 80070057H
  0002a	e8 00 00 00 00	 call	 ?AtlThrow@ATL@@YGXJ@Z	; ATL::AtlThrow
$L207383:
  0002f	c7 41 f4 00 00
	00 00		 mov	 DWORD PTR [ecx-12], 0
  00036	8b 06		 mov	 eax, DWORD PTR [esi]
  00038	5f		 pop	 edi
  00039	c6 00 00	 mov	 BYTE PTR [eax], 0
  0003c	5e		 pop	 esi

; 439  : 		}
; 440  : 	}

  0003d	c3		 ret	 0
$L184939:

; 433  : 		}
; 434  : 		else
; 435  : 		{
; 436  : 			pOldData->Release();

  0003e	83 c9 ff	 or	 ecx, -1
  00041	f0 0f c1 0a	 lock	  xadd	 DWORD PTR [edx], ecx
  00045	49		 dec	 ecx
  00046	85 c9		 test	 ecx, ecx
  00048	7f 08		 jg	 SHORT $L207389
  0004a	8b 08		 mov	 ecx, DWORD PTR [eax]
  0004c	8b 11		 mov	 edx, DWORD PTR [ecx]
  0004e	50		 push	 eax
  0004f	ff 52 04	 call	 DWORD PTR [edx+4]
$L207389:

; 437  : 			CStringData* pNewData = pStringMgr->GetNilString();

  00052	8b 07		 mov	 eax, DWORD PTR [edi]
  00054	8b cf		 mov	 ecx, edi
  00056	ff 50 0c	 call	 DWORD PTR [eax+12]

; 438  : 			Attach( pNewData );

  00059	83 c0 10	 add	 eax, 16			; 00000010H
  0005c	89 06		 mov	 DWORD PTR [esi], eax
$L207397:
  0005e	5f		 pop	 edi
  0005f	5e		 pop	 esi

; 439  : 		}
; 440  : 	}

  00060	c3		 ret	 0
$L207398:
?Empty@?$CSimpleStringT@D$0A@@ATL@@QAEXXZ ENDP		; ATL::CSimpleStringT<char,0>::Empty
_TEXT	ENDS
PUBLIC	?PrepareWrite2@?$CSimpleStringT@D$0A@@ATL@@AAEXH@Z ; ATL::CSimpleStringT<char,0>::PrepareWrite2
; Function compile flags: /Ogty
;	COMDAT ?PrepareWrite2@?$CSimpleStringT@D$0A@@ATL@@AAEXH@Z
_TEXT	SEGMENT
_nLength$ = 8						; size = 4
?PrepareWrite2@?$CSimpleStringT@D$0A@@ATL@@AAEXH@Z PROC NEAR ; ATL::CSimpleStringT<char,0>::PrepareWrite2, COMDAT
; _this$ = ecx

; 747  : 		CStringData* pOldData = GetData();

  00000	8b 01		 mov	 eax, DWORD PTR [ecx]

; 748  : 		if( pOldData->nDataLength > nLength )

  00002	8b 54 24 04	 mov	 edx, DWORD PTR _nLength$[esp-4]
  00006	83 e8 10	 sub	 eax, 16			; 00000010H
  00009	56		 push	 esi
  0000a	8b 70 04	 mov	 esi, DWORD PTR [eax+4]
  0000d	3b f2		 cmp	 esi, edx
  0000f	7e 02		 jle	 SHORT $L184961

; 749  : 		{
; 750  : 			nLength = pOldData->nDataLength;

  00011	8b d6		 mov	 edx, esi
$L184961:

; 751  : 		}
; 752  : 		if( pOldData->IsShared() )

  00013	83 78 0c 01	 cmp	 DWORD PTR [eax+12], 1
  00017	5e		 pop	 esi
  00018	7e 09		 jle	 SHORT $L184962

; 753  : 		{
; 754  : 			Fork( nLength );

  0001a	89 54 24 04	 mov	 DWORD PTR _nLength$[esp-4], edx
  0001e	e9 00 00 00 00	 jmp	 ?Fork@?$CSimpleStringT@D$0A@@ATL@@AAEXH@Z ; ATL::CSimpleStringT<char,0>::Fork
$L184962:

; 755  : 		}
; 756  : 		else if( pOldData->nAllocLength < nLength )

  00023	8b 40 08	 mov	 eax, DWORD PTR [eax+8]
  00026	3b c2		 cmp	 eax, edx
  00028	7d 1f		 jge	 SHORT $L184964

; 757  : 		{
; 758  : 			// Grow exponentially, until we hit 1K.
; 759  : 			int nNewLength = pOldData->nAllocLength;
; 760  : 			if( nNewLength > 1024 )

  0002a	3d 00 04 00 00	 cmp	 eax, 1024		; 00000400H
  0002f	7e 07		 jle	 SHORT $L184966

; 761  : 			{
; 762  : 				nNewLength += 1024;

  00031	05 00 04 00 00	 add	 eax, 1024		; 00000400H

; 763  : 			}
; 764  : 			else

  00036	eb 02		 jmp	 SHORT $L184967
$L184966:

; 765  : 			{
; 766  : 				nNewLength *= 2;

  00038	03 c0		 add	 eax, eax
$L184967:

; 767  : 			}
; 768  : 			if( nNewLength < nLength )

  0003a	3b c2		 cmp	 eax, edx
  0003c	7d 02		 jge	 SHORT $L184968

; 769  : 			{
; 770  : 				nNewLength = nLength;

  0003e	8b c2		 mov	 eax, edx
$L184968:

; 771  : 			}
; 772  : 			Reallocate( nNewLength );

  00040	89 44 24 04	 mov	 DWORD PTR _nLength$[esp-4], eax
  00044	e9 00 00 00 00	 jmp	 ?Reallocate@?$CSimpleStringT@D$0A@@ATL@@AAEXH@Z ; ATL::CSimpleStringT<char,0>::Reallocate
$L184964:

; 773  : 		}
; 774  : 	}

  00049	c2 04 00	 ret	 4
?PrepareWrite2@?$CSimpleStringT@D$0A@@ATL@@AAEXH@Z ENDP	; ATL::CSimpleStringT<char,0>::PrepareWrite2
_TEXT	ENDS
PUBLIC	?_Eos@?$basic_string@DU?$char_traits@D@std@@V?$allocator@D@2@@std@@IAEXI@Z ; std::basic_string<char,std::char_traits<char>,std::allocator<char> >::_Eos
; Function compile flags: /Ogty
; File c:\program files\microsoft visual studio .net 2003\vc7\include\xstring
;	COMDAT ?_Eos@?$basic_string@DU?$char_traits@D@std@@V?$allocator@D@2@@std@@IAEXI@Z
_TEXT	SEGMENT
__Newsize$ = 8						; size = 4
?_Eos@?$basic_string@DU?$char_traits@D@std@@V?$allocator@D@2@@std@@IAEXI@Z PROC NEAR ; std::basic_string<char,std::char_traits<char>,std::allocator<char> >::_Eos, COMDAT
; _this$ = ecx

; 1475 : 		_Traits::assign(_Myptr()[_Mysize = _Newsize], _Elem());

  00000	83 79 18 10	 cmp	 DWORD PTR [ecx+24], 16	; 00000010H
  00004	8b 44 24 04	 mov	 eax, DWORD PTR __Newsize$[esp-4]
  00008	89 41 14	 mov	 DWORD PTR [ecx+20], eax
  0000b	72 0a		 jb	 SHORT $L207414
  0000d	8b 49 04	 mov	 ecx, DWORD PTR [ecx+4]
  00010	c6 04 01 00	 mov	 BYTE PTR [ecx+eax], 0

; 1476 : 		}

  00014	c2 04 00	 ret	 4

; 1475 : 		_Traits::assign(_Myptr()[_Mysize = _Newsize], _Elem());

$L207414:
  00017	c6 44 01 04 00	 mov	 BYTE PTR [ecx+eax+4], 0

; 1476 : 		}

  0001c	c2 04 00	 ret	 4
?_Eos@?$basic_string@DU?$char_traits@D@std@@V?$allocator@D@2@@std@@IAEXI@Z ENDP ; std::basic_string<char,std::char_traits<char>,std::allocator<char> >::_Eos
_TEXT	ENDS
PUBLIC	?max_size@?$basic_string@DU?$char_traits@D@std@@V?$allocator@D@2@@std@@QBEIXZ ; std::basic_string<char,std::char_traits<char>,std::allocator<char> >::max_size
; Function compile flags: /Ogty
;	COMDAT ?max_size@?$basic_string@DU?$char_traits@D@std@@V?$allocator@D@2@@std@@QBEIXZ
_TEXT	SEGMENT
?max_size@?$basic_string@DU?$char_traits@D@std@@V?$allocator@D@2@@std@@QBEIXZ PROC NEAR ; std::basic_string<char,std::char_traits<char>,std::allocator<char> >::max_size, COMDAT
; _this$ = ecx

; 1114 : 		size_type _Num = _Mybase::_Alval.max_size();
; 1115 : 		return (_Num <= 1 ? 1 : _Num - 1);

  00000	b8 fe ff ff ff	 mov	 eax, -2			; fffffffeH

; 1116 : 		}

  00005	c3		 ret	 0
?max_size@?$basic_string@DU?$char_traits@D@std@@V?$allocator@D@2@@std@@QBEIXZ ENDP ; std::basic_string<char,std::char_traits<char>,std::allocator<char> >::max_size
_TEXT	ENDS
PUBLIC	?allocate@?$allocator@D@std@@QAEPADI@Z		; std::allocator<char>::allocate
; Function compile flags: /Ogty
; File c:\program files\microsoft visual studio .net 2003\vc7\include\xmemory
;	COMDAT ?allocate@?$allocator@D@std@@QAEPADI@Z
_TEXT	SEGMENT
__Count$ = 8						; size = 4
?allocate@?$allocator@D@std@@QAEPADI@Z PROC NEAR	; std::allocator<char>::allocate, COMDAT
; _this$ = ecx

; 137  : 		return (_Allocate(_Count, (pointer)0));

  00000	8b 44 24 04	 mov	 eax, DWORD PTR __Count$[esp-4]
  00004	50		 push	 eax
  00005	e8 00 00 00 00	 call	 ??2@YAPAXI@Z		; operator new
  0000a	83 c4 04	 add	 esp, 4

; 138  : 		}

  0000d	c2 04 00	 ret	 4
?allocate@?$allocator@D@std@@QAEPADI@Z ENDP		; std::allocator<char>::allocate
_TEXT	ENDS
PUBLIC	?Handler@CTLord@@QAEXPAUtagDB_OVERLAPPED_PLUS@@K@Z ; CTLord::Handler
EXTRN	?SendLord@CDPTrans@@QAEXK@Z:NEAR		; CDPTrans::SendLord
EXTRN	__chkstk:NEAR
EXTRN	?AddDeposit@IElection@@QAEXK_JJ@Z:NEAR		; IElection::AddDeposit
EXTRN	?SetPledge@IElection@@QAEXKPBD@Z:NEAR		; IElection::SetPledge
EXTRN	??0CAr@@QAE@PAXI@Z:NEAR				; CAr::CAr
EXTRN	?IncVote@IElection@@QAEXKK@Z:NEAR		; IElection::IncVote
EXTRN	??1CAr@@QAE@XZ:NEAR				; CAr::~CAr
EXTRN	?AddComponent@ILordEvent@@QAEXKHH@Z:NEAR	; ILordEvent::AddComponent
EXTRN	?Initialize@ILordEvent@@QAEXXZ:NEAR		; ILordEvent::Initialize
EXTRN	?ReadString@CAr@@QAEPADPADH@Z:NEAR		; CAr::ReadString
;	COMDAT xdata$x
; File c:\documents and settings\test\mes documents\source\virtuos_v17\build\program\_common\lord.h
xdata$x	SEGMENT
$T207494 DD	0ffffffffH
	DD	FLAT:$L207440
	DD	0ffffffffH
	DD	FLAT:$L207441
	DD	0ffffffffH
	DD	FLAT:$L207442
	DD	0ffffffffH
	DD	FLAT:$L207443
	DD	0ffffffffH
	DD	FLAT:$L207444
$T207488 DD	019930520H
	DD	05H
	DD	FLAT:$T207494
	DD	2 DUP(00H)
	DD	2 DUP(00H)
; Function compile flags: /Ogty
; File c:\documents and settings\test\mes documents\source\virtuos_v17\build\program\databaseserver\tlord.cpp
xdata$x	ENDS
;	COMDAT ?Handler@CTLord@@QAEXPAUtagDB_OVERLAPPED_PLUS@@K@Z
_TEXT	SEGMENT
_idPlayer$203563 = -33112				; size = 4
_iEEvent$203558 = -33112				; size = 4
_idElector$203553 = -33112				; size = 4
_idPlayer$203548 = -33112				; size = 4
_idPlayer$203544 = -33112				; size = 4
_idTarget$203564 = -33108				; size = 4
_iIEvent$203559 = -33108				; size = 4
_idPlayer$203552 = -33108				; size = 4
_nSkill$203565 = -33104					; size = 4
_idPlayer$203557 = -33104				; size = 4
_iDeposit$203545 = -33104				; size = 8
_ar$203560 = -33096					; size = 16404
_ar$203554 = -33096					; size = 16404
_ar$203550 = -33096					; size = 16404
_ar$203546 = -33096					; size = 16404
_ar$203566 = -16688					; size = 16404
_szPledge$203549 = -280					; size = 255
__$ArrayPad$ = -20					; size = 4
__$EHRec$ = -12						; size = 12
__$ReturnAddr$ = 4					; size = 4
_pov$ = 8						; size = 4
_dwCompletionKey$ = 12					; size = 4
?Handler@CTLord@@QAEXPAUtagDB_OVERLAPPED_PLUS@@K@Z PROC NEAR ; CTLord::Handler, COMDAT
; _this$ = ecx

; 76   : {	//     

  00000	55		 push	 ebp
  00001	8b ec		 mov	 ebp, esp
  00003	83 e4 f8	 and	 esp, -8			; fffffff8H
  00006	6a ff		 push	 -1
  00008	68 00 00 00 00	 push	 __ehhandler$?Handler@CTLord@@QAEXPAUtagDB_OVERLAPPED_PLUS@@K@Z
  0000d	64 a1 00 00 00
	00		 mov	 eax, DWORD PTR fs:__except_list
  00013	50		 push	 eax
  00014	64 89 25 00 00
	00 00		 mov	 DWORD PTR fs:__except_list, esp
  0001b	51		 push	 ecx
  0001c	b8 4c 81 00 00	 mov	 eax, 33100		; 0000814cH
  00021	e8 00 00 00 00	 call	 __chkstk
  00026	a1 00 00 00 00	 mov	 eax, DWORD PTR ___security_cookie
  0002b	8b 55 08	 mov	 edx, DWORD PTR _pov$[ebp]
  0002e	33 c5		 xor	 eax, ebp
  00030	53		 push	 ebx
  00031	89 84 24 4c 81
	00 00		 mov	 DWORD PTR __$ArrayPad$[esp+33120], eax

; 77   : 	switch( pov->nQueryMode )

  00038	8b 42 14	 mov	 eax, DWORD PTR [edx+20]
  0003b	83 f8 09	 cmp	 eax, 9
  0003e	56		 push	 esi
  0003f	57		 push	 edi
  00040	8b f1		 mov	 esi, ecx
  00042	0f 87 6f 02 00
	00		 ja	 $L203537
  00048	ff 24 85 00 00
	00 00		 jmp	 DWORD PTR $L207493[eax*4]
$L203540:

; 78   : 	{
; 79   : 		case eBeginCandidacy:	//  
; 80   : 			GetElection()->BeginCandidacy();

  0004f	8b 4e 08	 mov	 ecx, DWORD PTR [esi+8]
  00052	e8 00 00 00 00	 call	 ?BeginCandidacy@IElection@@QAEXXZ ; IElection::BeginCandidacy

; 81   : 			break;

  00057	e9 5b 02 00 00	 jmp	 $L203537
$L203541:

; 82   : 		case eBeginVote:	//  
; 83   : 			GetElection()->BeginVote( 0 );

  0005c	8b 4e 08	 mov	 ecx, DWORD PTR [esi+8]
  0005f	6a 00		 push	 0
  00061	e8 00 00 00 00	 call	 ?BeginVote@IElection@@QAEXH@Z ; IElection::BeginVote

; 84   : 			break;

  00066	e9 4c 02 00 00	 jmp	 $L203537
$L203542:

; 85   : 		case eEndVote:	//  
; 86   : 			GetElection()->EndVote( 0 );

  0006b	8b 4e 08	 mov	 ecx, DWORD PTR [esi+8]
  0006e	6a 00		 push	 0
  00070	e8 00 00 00 00	 call	 ?EndVote@IElection@@QAEXK@Z ; IElection::EndVote

; 87   : 			break;

  00075	e9 3d 02 00 00	 jmp	 $L203537
$L203543:

; 88   : 		//--------------------------------------------------------------------------------
; 89   : 		case eAddDeposit:	//  
; 90   : 			{
; 91   : 				u_long idPlayer;
; 92   : 				__int64 iDeposit;
; 93   : 				CAr ar( pov->lpBuf, pov->uBufSize );

  0007a	8b 42 1c	 mov	 eax, DWORD PTR [edx+28]
  0007d	8b 4a 18	 mov	 ecx, DWORD PTR [edx+24]
  00080	50		 push	 eax
  00081	51		 push	 ecx
  00082	8d 4c 24 28	 lea	 ecx, DWORD PTR _ar$203546[esp+33136]
  00086	e8 00 00 00 00	 call	 ??0CAr@@QAE@PAXI@Z	; CAr::CAr

; 94   : 				ar >> idPlayer >> iDeposit;

  0008b	8d 54 24 10	 lea	 edx, DWORD PTR _idPlayer$203544[esp+33128]
  0008f	52		 push	 edx
  00090	8d 4c 24 24	 lea	 ecx, DWORD PTR _ar$203546[esp+33132]
  00094	c7 84 24 68 81
	00 00 00 00 00
	00		 mov	 DWORD PTR __$EHRec$[esp+33140], 0
  0009f	e8 00 00 00 00	 call	 ??5CAr@@QAEAAV0@AAK@Z	; CAr::operator>>
  000a4	6a 08		 push	 8
  000a6	8d 4c 24 1c	 lea	 ecx, DWORD PTR _iDeposit$203545[esp+33132]
  000aa	51		 push	 ecx
  000ab	8b c8		 mov	 ecx, eax
  000ad	e8 00 00 00 00	 call	 ?Read@CAr@@QAEXPAXI@Z	; CAr::Read

; 95   : 				GetElection()->AddDeposit( idPlayer, iDeposit, time( NULL ) );

  000b2	8b 76 08	 mov	 esi, DWORD PTR [esi+8]
  000b5	6a 00		 push	 0
  000b7	e8 00 00 00 00	 call	 _time
  000bc	8b 54 24 20	 mov	 edx, DWORD PTR _iDeposit$203545[esp+33136]
  000c0	8b 4c 24 14	 mov	 ecx, DWORD PTR _idPlayer$203544[esp+33132]
  000c4	83 c4 04	 add	 esp, 4
  000c7	50		 push	 eax
  000c8	8b 44 24 1c	 mov	 eax, DWORD PTR _iDeposit$203545[esp+33132]
  000cc	52		 push	 edx
  000cd	50		 push	 eax
  000ce	51		 push	 ecx
  000cf	8b ce		 mov	 ecx, esi
  000d1	e8 00 00 00 00	 call	 ?AddDeposit@IElection@@QAEXK_JJ@Z ; IElection::AddDeposit

; 96   : 				break;

  000d6	8d 4c 24 20	 lea	 ecx, DWORD PTR _ar$203546[esp+33128]
  000da	e9 c8 01 00 00	 jmp	 $L207492
$L203547:

; 97   : 			}
; 98   : 		case eSetPledge:	//  
; 99   : 			{
; 100  : 				u_long idPlayer;
; 101  : 				char szPledge[CCandidate::nMaxPledgeLen]	= {0, };

  000df	33 c0		 xor	 eax, eax
  000e1	c6 84 24 50 80
	00 00 00	 mov	 BYTE PTR _szPledge$203549[esp+33128], 0
  000e9	b9 3f 00 00 00	 mov	 ecx, 63			; 0000003fH
  000ee	8d bc 24 51 80
	00 00		 lea	 edi, DWORD PTR _szPledge$203549[esp+33129]
  000f5	f3 ab		 rep stosd

; 102  : 				CAr ar( pov->lpBuf, pov->uBufSize );

  000f7	8b 4a 18	 mov	 ecx, DWORD PTR [edx+24]
  000fa	66 ab		 stosw
  000fc	8b 42 1c	 mov	 eax, DWORD PTR [edx+28]
  000ff	50		 push	 eax
  00100	51		 push	 ecx
  00101	8d 4c 24 28	 lea	 ecx, DWORD PTR _ar$203550[esp+33136]
  00105	e8 00 00 00 00	 call	 ??0CAr@@QAE@PAXI@Z	; CAr::CAr

; 103  : 				ar >> idPlayer;

  0010a	8d 54 24 10	 lea	 edx, DWORD PTR _idPlayer$203548[esp+33128]
  0010e	52		 push	 edx
  0010f	8d 4c 24 24	 lea	 ecx, DWORD PTR _ar$203550[esp+33132]
  00113	c7 84 24 68 81
	00 00 01 00 00
	00		 mov	 DWORD PTR __$EHRec$[esp+33140], 1
  0011e	e8 00 00 00 00	 call	 ??5CAr@@QAEAAV0@AAK@Z	; CAr::operator>>

; 104  : 				ar.ReadString( szPledge, CCandidate::nMaxPledgeLen );

  00123	68 ff 00 00 00	 push	 255			; 000000ffH
  00128	8d 84 24 54 80
	00 00		 lea	 eax, DWORD PTR _szPledge$203549[esp+33132]
  0012f	50		 push	 eax
  00130	8d 4c 24 28	 lea	 ecx, DWORD PTR _ar$203550[esp+33136]
  00134	e8 00 00 00 00	 call	 ?ReadString@CAr@@QAEPADPADH@Z ; CAr::ReadString

; 105  : 				GetElection()->SetPledge( idPlayer, szPledge );

  00139	8b 44 24 10	 mov	 eax, DWORD PTR _idPlayer$203548[esp+33128]
  0013d	8b 4e 08	 mov	 ecx, DWORD PTR [esi+8]
  00140	8d 94 24 50 80
	00 00		 lea	 edx, DWORD PTR _szPledge$203549[esp+33128]
  00147	52		 push	 edx
  00148	50		 push	 eax
  00149	e8 00 00 00 00	 call	 ?SetPledge@IElection@@QAEXKPBD@Z ; IElection::SetPledge

; 106  : 				break;

  0014e	8d 4c 24 20	 lea	 ecx, DWORD PTR _ar$203550[esp+33128]
  00152	e9 50 01 00 00	 jmp	 $L207492
$L203551:

; 107  : 			}
; 108  : 		case eIncVote:	// 
; 109  : 			{
; 110  : 				u_long idPlayer, idElector;
; 111  : 				CAr ar( pov->lpBuf, pov->uBufSize );

  00157	8b 4a 1c	 mov	 ecx, DWORD PTR [edx+28]
  0015a	8b 52 18	 mov	 edx, DWORD PTR [edx+24]
  0015d	51		 push	 ecx
  0015e	52		 push	 edx
  0015f	8d 4c 24 28	 lea	 ecx, DWORD PTR _ar$203554[esp+33136]
  00163	e8 00 00 00 00	 call	 ??0CAr@@QAE@PAXI@Z	; CAr::CAr

; 112  : 				ar >> idPlayer >> idElector;

  00168	8d 44 24 10	 lea	 eax, DWORD PTR _idElector$203553[esp+33128]
  0016c	50		 push	 eax
  0016d	8d 4c 24 18	 lea	 ecx, DWORD PTR _idPlayer$203552[esp+33132]
  00171	51		 push	 ecx
  00172	8d 4c 24 28	 lea	 ecx, DWORD PTR _ar$203554[esp+33136]
  00176	c7 84 24 6c 81
	00 00 02 00 00
	00		 mov	 DWORD PTR __$EHRec$[esp+33144], 2
  00181	e8 00 00 00 00	 call	 ??5CAr@@QAEAAV0@AAK@Z	; CAr::operator>>
  00186	8b c8		 mov	 ecx, eax
  00188	e8 00 00 00 00	 call	 ??5CAr@@QAEAAV0@AAK@Z	; CAr::operator>>

; 113  : 				GetElection()->IncVote( idPlayer, idElector );

  0018d	8b 54 24 10	 mov	 edx, DWORD PTR _idElector$203553[esp+33128]
  00191	8b 44 24 14	 mov	 eax, DWORD PTR _idPlayer$203552[esp+33128]
  00195	8b 4e 08	 mov	 ecx, DWORD PTR [esi+8]
  00198	52		 push	 edx
  00199	50		 push	 eax
  0019a	e8 00 00 00 00	 call	 ?IncVote@IElection@@QAEXKK@Z ; IElection::IncVote

; 114  : 				break;

  0019f	8d 4c 24 20	 lea	 ecx, DWORD PTR _ar$203554[esp+33128]
  001a3	e9 ff 00 00 00	 jmp	 $L207492
$L203555:

; 115  : 			}
; 116  : 		//--------------------------------------------------------------------------------
; 117  : 		case eInit:		//   
; 118  : 								// dwCompletionKey	   dpid
; 119  : 			CDPTrans::GetInstance()->SendLord( dwCompletionKey );

  001a8	8b 4d 0c	 mov	 ecx, DWORD PTR _dwCompletionKey$[ebp]
  001ab	51		 push	 ecx
  001ac	e8 00 00 00 00	 call	 ?GetInstance@CDPTrans@@SAPAV1@XZ ; CDPTrans::GetInstance
  001b1	8b c8		 mov	 ecx, eax
  001b3	e8 00 00 00 00	 call	 ?SendLord@CDPTrans@@QAEXK@Z ; CDPTrans::SendLord

; 120  : 			break;

  001b8	e9 fa 00 00 00	 jmp	 $L203537
$L203556:

; 121  : 		//--------------------------------------------------------------------------------
; 122  : 		case eLEventCreate:		//   
; 123  : 			{
; 124  : 				u_long idPlayer;
; 125  : 				int iEEvent, iIEvent;
; 126  : 				CAr ar( pov->lpBuf, pov->uBufSize );

  001bd	8b 42 1c	 mov	 eax, DWORD PTR [edx+28]
  001c0	8b 4a 18	 mov	 ecx, DWORD PTR [edx+24]
  001c3	50		 push	 eax
  001c4	51		 push	 ecx
  001c5	8d 4c 24 28	 lea	 ecx, DWORD PTR _ar$203560[esp+33136]
  001c9	e8 00 00 00 00	 call	 ??0CAr@@QAE@PAXI@Z	; CAr::CAr

; 127  : 				ar >> idPlayer >> iEEvent >> iIEvent;

  001ce	8d 54 24 14	 lea	 edx, DWORD PTR _iIEvent$203559[esp+33128]
  001d2	52		 push	 edx
  001d3	8d 44 24 14	 lea	 eax, DWORD PTR _iEEvent$203558[esp+33132]
  001d7	50		 push	 eax
  001d8	8d 4c 24 20	 lea	 ecx, DWORD PTR _idPlayer$203557[esp+33136]
  001dc	51		 push	 ecx
  001dd	8d 4c 24 2c	 lea	 ecx, DWORD PTR _ar$203560[esp+33140]
  001e1	c7 84 24 70 81
	00 00 03 00 00
	00		 mov	 DWORD PTR __$EHRec$[esp+33148], 3
  001ec	e8 00 00 00 00	 call	 ??5CAr@@QAEAAV0@AAK@Z	; CAr::operator>>
  001f1	8b c8		 mov	 ecx, eax
  001f3	e8 00 00 00 00	 call	 ??5CAr@@QAEAAV0@AAH@Z	; CAr::operator>>
  001f8	8b c8		 mov	 ecx, eax
  001fa	e8 00 00 00 00	 call	 ??5CAr@@QAEAAV0@AAH@Z	; CAr::operator>>

; 128  : 				GetEvent()->AddComponent( idPlayer, iEEvent, iIEvent );

  001ff	8b 54 24 14	 mov	 edx, DWORD PTR _iIEvent$203559[esp+33128]
  00203	8b 44 24 10	 mov	 eax, DWORD PTR _iEEvent$203558[esp+33128]
  00207	8b 4e 0c	 mov	 ecx, DWORD PTR [esi+12]
  0020a	52		 push	 edx
  0020b	8b 54 24 1c	 mov	 edx, DWORD PTR _idPlayer$203557[esp+33132]
  0020f	50		 push	 eax
  00210	52		 push	 edx
  00211	e8 00 00 00 00	 call	 ?AddComponent@ILordEvent@@QAEXKHH@Z ; ILordEvent::AddComponent

; 129  : 				break;

  00216	8d 4c 24 20	 lea	 ecx, DWORD PTR _ar$203560[esp+33128]
  0021a	e9 88 00 00 00	 jmp	 $L207492
$L203561:

; 130  : 			}
; 131  : 		case eLEventInitialize:		//   
; 132  : 			{
; 133  : 				GetEvent()->Initialize();

  0021f	8b 4e 0c	 mov	 ecx, DWORD PTR [esi+12]
  00222	e8 00 00 00 00	 call	 ?Initialize@ILordEvent@@QAEXXZ ; ILordEvent::Initialize

; 134  : 				break;

  00227	e9 8b 00 00 00	 jmp	 $L203537
$L203562:

; 135  : 			}
; 136  : 		case eLordSkillUse:		//   
; 137  : 			{
; 138  : 				u_long idPlayer, idTarget;
; 139  : 				int nSkill;
; 140  : 				CAr ar( pov->lpBuf, pov->uBufSize );

  0022c	8b 42 1c	 mov	 eax, DWORD PTR [edx+28]
  0022f	8b 4a 18	 mov	 ecx, DWORD PTR [edx+24]
  00232	50		 push	 eax
  00233	51		 push	 ecx
  00234	8d 8c 24 40 40
	00 00		 lea	 ecx, DWORD PTR _ar$203566[esp+33136]
  0023b	e8 00 00 00 00	 call	 ??0CAr@@QAE@PAXI@Z	; CAr::CAr

; 141  : 				ar >> idPlayer >> idTarget >>  nSkill;

  00240	8d 54 24 18	 lea	 edx, DWORD PTR _nSkill$203565[esp+33128]
  00244	52		 push	 edx
  00245	8d 44 24 18	 lea	 eax, DWORD PTR _idTarget$203564[esp+33132]
  00249	50		 push	 eax
  0024a	8d 4c 24 18	 lea	 ecx, DWORD PTR _idPlayer$203563[esp+33136]
  0024e	51		 push	 ecx
  0024f	8d 8c 24 44 40
	00 00		 lea	 ecx, DWORD PTR _ar$203566[esp+33140]
  00256	c7 84 24 70 81
	00 00 04 00 00
	00		 mov	 DWORD PTR __$EHRec$[esp+33148], 4
  00261	e8 00 00 00 00	 call	 ??5CAr@@QAEAAV0@AAK@Z	; CAr::operator>>
  00266	8b c8		 mov	 ecx, eax
  00268	e8 00 00 00 00	 call	 ??5CAr@@QAEAAV0@AAK@Z	; CAr::operator>>
  0026d	8b c8		 mov	 ecx, eax
  0026f	e8 00 00 00 00	 call	 ??5CAr@@QAEAAV0@AAH@Z	; CAr::operator>>

; 142  : 				CLordSkillComponentExecutable* pComponent	= GetSkills()->GetSkill( nSkill );

  00274	8b 54 24 18	 mov	 edx, DWORD PTR _nSkill$203565[esp+33128]
  00278	8b 4e 10	 mov	 ecx, DWORD PTR [esi+16]
  0027b	52		 push	 edx
  0027c	e8 00 00 00 00	 call	 ?GetSkill@CLordSkill@@QAEPAVCLordSkillComponentExecutable@@H@Z ; CLordSkill::GetSkill
  00281	8b f8		 mov	 edi, eax

; 143  : 				if( pComponent )	//   CLordSkillComponentODBC

  00283	85 ff		 test	 edi, edi
  00285	74 19		 je	 SHORT $L203568

; 144  : 					pComponent->Execute( idPlayer, idTarget, static_cast<LPVOID>( GetController() ) );

  00287	8b 06		 mov	 eax, DWORD PTR [esi]
  00289	8b 1f		 mov	 ebx, DWORD PTR [edi]
  0028b	8b ce		 mov	 ecx, esi
  0028d	ff 50 08	 call	 DWORD PTR [eax+8]
  00290	8b 4c 24 14	 mov	 ecx, DWORD PTR _idTarget$203564[esp+33128]
  00294	8b 54 24 10	 mov	 edx, DWORD PTR _idPlayer$203563[esp+33128]
  00298	50		 push	 eax
  00299	51		 push	 ecx
  0029a	52		 push	 edx
  0029b	8b cf		 mov	 ecx, edi
  0029d	ff 53 04	 call	 DWORD PTR [ebx+4]
$L203568:

; 145  : 				break;

  002a0	8d 8c 24 38 40
	00 00		 lea	 ecx, DWORD PTR _ar$203566[esp+33128]
$L207492:
  002a7	c7 84 24 64 81
	00 00 ff ff ff
	ff		 mov	 DWORD PTR __$EHRec$[esp+33136], -1
  002b2	e8 00 00 00 00	 call	 ??1CAr@@QAE@XZ		; CAr::~CAr
$L203537:

; 146  : 			}
; 147  : 	}
; 148  : }

  002b7	8b 8c 24 5c 81
	00 00		 mov	 ecx, DWORD PTR __$EHRec$[esp+33128]
  002be	64 89 0d 00 00
	00 00		 mov	 DWORD PTR fs:__except_list, ecx
  002c5	8b 8c 24 54 81
	00 00		 mov	 ecx, DWORD PTR __$ArrayPad$[esp+33128]
  002cc	5f		 pop	 edi
  002cd	5e		 pop	 esi
  002ce	33 cd		 xor	 ecx, ebp
  002d0	5b		 pop	 ebx
  002d1	e8 00 00 00 00	 call	 @__security_check_cookie@4
  002d6	8b e5		 mov	 esp, ebp
  002d8	5d		 pop	 ebp
  002d9	c2 08 00	 ret	 8
$L207493:
  002dc	00 00 00 00	 DD	 $L203540
  002e0	00 00 00 00	 DD	 $L203541
  002e4	00 00 00 00	 DD	 $L203542
  002e8	00 00 00 00	 DD	 $L203543
  002ec	00 00 00 00	 DD	 $L203547
  002f0	00 00 00 00	 DD	 $L203551
  002f4	00 00 00 00	 DD	 $L203555
  002f8	00 00 00 00	 DD	 $L203556
  002fc	00 00 00 00	 DD	 $L203561
  00300	00 00 00 00	 DD	 $L203562
_TEXT	ENDS
;	COMDAT text$x
text$x	SEGMENT
$L207440:
  00000	8d 8d b8 7e ff
	ff		 lea	 ecx, DWORD PTR _ar$203546[ebp]
  00006	e9 00 00 00 00	 jmp	 ??1CAr@@QAE@XZ		; CAr::~CAr
$L207441:
  0000b	8d 8d b8 7e ff
	ff		 lea	 ecx, DWORD PTR _ar$203550[ebp]
  00011	e9 00 00 00 00	 jmp	 ??1CAr@@QAE@XZ		; CAr::~CAr
$L207442:
  00016	8d 8d b8 7e ff
	ff		 lea	 ecx, DWORD PTR _ar$203554[ebp]
  0001c	e9 00 00 00 00	 jmp	 ??1CAr@@QAE@XZ		; CAr::~CAr
$L207443:
  00021	8d 8d b8 7e ff
	ff		 lea	 ecx, DWORD PTR _ar$203560[ebp]
  00027	e9 00 00 00 00	 jmp	 ??1CAr@@QAE@XZ		; CAr::~CAr
$L207444:
  0002c	8d 8d d0 be ff
	ff		 lea	 ecx, DWORD PTR _ar$203566[ebp]
  00032	e9 00 00 00 00	 jmp	 ??1CAr@@QAE@XZ		; CAr::~CAr
__ehhandler$?Handler@CTLord@@QAEXPAUtagDB_OVERLAPPED_PLUS@@K@Z:
  00037	b8 00 00 00 00	 mov	 eax, OFFSET FLAT:$T207488
  0003c	e9 00 00 00 00	 jmp	 ___CxxFrameHandler
text$x	ENDS
?Handler@CTLord@@QAEXPAUtagDB_OVERLAPPED_PLUS@@K@Z ENDP	; CTLord::Handler
PUBLIC	?PostItem@CTElection@@AAEXKAAU_PostItemStruct@@@Z ; CTElection::PostItem
EXTRN	??0CItemElem@@QAE@XZ:NEAR			; CItemElem::CItemElem
EXTRN	?Post@post@@YAXKPAVCMail@@PAVCQuery@@@Z:NEAR	; post::Post
EXTRN	??0CMail@@QAE@XZ:NEAR				; CMail::CMail
EXTRN	?prj@@3VCProject@@A:BYTE			; prj
;	COMDAT xdata$x
; File c:\documents and settings\test\mes documents\source\virtuos_v17\build\program\databaseserver\dbcontroller.h
xdata$x	SEGMENT
$T207574 DD	0ffffffffH
	DD	FLAT:$L207506
	DD	0ffffffffH
	DD	FLAT:$L207507
$T207570 DD	019930520H
	DD	02H
	DD	FLAT:$T207574
	DD	2 DUP(00H)
	DD	2 DUP(00H)
; Function compile flags: /Ogty
; File c:\documents and settings\test\mes documents\source\virtuos_v17\build\program\databaseserver\tlord.cpp
xdata$x	ENDS
;	COMDAT ?PostItem@CTElection@@AAEXKAAU_PostItemStruct@@@Z
_TEXT	SEGMENT
_this$ = -20						; size = 4
$T207503 = -16						; size = 4
$T207499 = -16						; size = 4
__$EHRec$ = -12						; size = 12
_idPlayer$ = 8						; size = 4
_pi$ = 12						; size = 4
?PostItem@CTElection@@AAEXKAAU_PostItemStruct@@@Z PROC NEAR ; CTElection::PostItem, COMDAT
; _this$ = ecx

; 517  : {	//    

  00000	6a ff		 push	 -1
  00002	68 00 00 00 00	 push	 __ehhandler$?PostItem@CTElection@@AAEXKAAU_PostItemStruct@@@Z
  00007	64 a1 00 00 00
	00		 mov	 eax, DWORD PTR fs:__except_list
  0000d	50		 push	 eax
  0000e	64 89 25 00 00
	00 00		 mov	 DWORD PTR fs:__except_list, esp
  00015	83 ec 08	 sub	 esp, 8
  00018	56		 push	 esi

; 518  : 	//  
; 519  : 	CMail* pMail	= new CMail;

  00019	68 40 01 00 00	 push	 320			; 00000140H
  0001e	89 4c 24 08	 mov	 DWORD PTR _this$[esp+28], ecx
  00022	e8 00 00 00 00	 call	 ??2@YAPAXI@Z		; operator new
  00027	83 c4 04	 add	 esp, 4
  0002a	89 44 24 08	 mov	 DWORD PTR $T207499[esp+24], eax
  0002e	85 c0		 test	 eax, eax
  00030	c7 44 24 14 00
	00 00 00	 mov	 DWORD PTR __$EHRec$[esp+32], 0
  00038	74 0b		 je	 SHORT $L207500
  0003a	8b c8		 mov	 ecx, eax
  0003c	e8 00 00 00 00	 call	 ??0CMail@@QAE@XZ	; CMail::CMail
  00041	8b f0		 mov	 esi, eax
  00043	eb 02		 jmp	 SHORT $L207501
$L207500:
  00045	33 f6		 xor	 esi, esi
$L207501:

; 520  : 	pMail->m_tmCreate	= ::time_null();

  00047	6a 00		 push	 0
  00049	c7 44 24 18 ff
	ff ff ff	 mov	 DWORD PTR __$EHRec$[esp+36], -1
  00051	e8 00 00 00 00	 call	 _time
  00056	89 46 14	 mov	 DWORD PTR [esi+20], eax

; 521  : 	pMail->m_idSender	= 0;	//

  00059	c7 46 08 00 00
	00 00		 mov	 DWORD PTR [esi+8], 0

; 522  : 	sprintf( pMail->m_szTitle, prj.GetText( TID_GAME_ELECTION_SET_LORD_MAIL_TITLE ) );

  00060	a1 7c 00 00 00	 mov	 eax, DWORD PTR ?prj@@3VCProject@@A+124
  00065	83 c4 04	 add	 esp, 4
  00068	3d 9e 0e 00 00	 cmp	 eax, 3742		; 00000e9eH
  0006d	76 10		 jbe	 SHORT $L207571
  0006f	8b 0d 6c 00 00
	00		 mov	 ecx, DWORD PTR ?prj@@3VCProject@@A+108
  00075	8b 91 78 3a 00
	00		 mov	 edx, DWORD PTR [ecx+14968]
  0007b	85 d2		 test	 edx, edx
  0007d	75 07		 jne	 SHORT $L207525
$L207571:
  0007f	b8 00 00 00 00	 mov	 eax, OFFSET FLAT:??_C@_00CNPNBAHC@?$AA@
  00084	eb 14		 jmp	 SHORT $L207524
$L207525:
  00086	3d 9e 0e 00 00	 cmp	 eax, 3742		; 00000e9eH
  0008b	77 04		 ja	 SHORT $L207532
  0008d	33 c0		 xor	 eax, eax
  0008f	eb 06		 jmp	 SHORT $L207531
$L207532:
  00091	8b 81 78 3a 00
	00		 mov	 eax, DWORD PTR [ecx+14968]
$L207531:
  00097	8b 40 04	 mov	 eax, DWORD PTR [eax+4]
$L207524:
  0009a	50		 push	 eax
  0009b	8d 46 19	 lea	 eax, DWORD PTR [esi+25]
  0009e	50		 push	 eax
  0009f	e8 00 00 00 00	 call	 _sprintf

; 523  : 	sprintf( pMail->m_szText, prj.GetText( TID_GAME_ELECTION_SET_LORD_MAIL_TEXT ) );

  000a4	a1 7c 00 00 00	 mov	 eax, DWORD PTR ?prj@@3VCProject@@A+124
  000a9	83 c4 08	 add	 esp, 8
  000ac	3d 9f 0e 00 00	 cmp	 eax, 3743		; 00000e9fH
  000b1	76 10		 jbe	 SHORT $L207572
  000b3	8b 0d 6c 00 00
	00		 mov	 ecx, DWORD PTR ?prj@@3VCProject@@A+108
  000b9	8b 91 7c 3a 00
	00		 mov	 edx, DWORD PTR [ecx+14972]
  000bf	85 d2		 test	 edx, edx
  000c1	75 07		 jne	 SHORT $L207548
$L207572:
  000c3	b8 00 00 00 00	 mov	 eax, OFFSET FLAT:??_C@_00CNPNBAHC@?$AA@
  000c8	eb 14		 jmp	 SHORT $L207547
$L207548:
  000ca	3d 9f 0e 00 00	 cmp	 eax, 3743		; 00000e9fH
  000cf	77 04		 ja	 SHORT $L207555
  000d1	33 c0		 xor	 eax, eax
  000d3	eb 06		 jmp	 SHORT $L207554
$L207555:
  000d5	8b 81 7c 3a 00
	00		 mov	 eax, DWORD PTR [ecx+14972]
$L207554:
  000db	8b 40 04	 mov	 eax, DWORD PTR [eax+4]
$L207547:
  000de	50		 push	 eax
  000df	8d 4e 39	 lea	 ecx, DWORD PTR [esi+57]
  000e2	51		 push	 ecx
  000e3	e8 00 00 00 00	 call	 _sprintf

; 524  : 	pMail->m_pItemElem	= new CItemElem;

  000e8	68 a0 00 00 00	 push	 160			; 000000a0H
  000ed	e8 00 00 00 00	 call	 ??2@YAPAXI@Z		; operator new
  000f2	83 c4 0c	 add	 esp, 12			; 0000000cH
  000f5	89 44 24 08	 mov	 DWORD PTR $T207503[esp+24], eax
  000f9	85 c0		 test	 eax, eax
  000fb	c7 44 24 14 01
	00 00 00	 mov	 DWORD PTR __$EHRec$[esp+32], 1
  00103	74 09		 je	 SHORT $L207504
  00105	8b c8		 mov	 ecx, eax
  00107	e8 00 00 00 00	 call	 ??0CItemElem@@QAE@XZ	; CItemElem::CItemElem
  0010c	eb 02		 jmp	 SHORT $L207505
$L207504:
  0010e	33 c0		 xor	 eax, eax
$L207505:

; 525  : 	pMail->m_pItemElem->m_dwItemId	= pi.nItem;

  00110	8b 4c 24 20	 mov	 ecx, DWORD PTR _pi$[esp+20]
  00114	89 46 0c	 mov	 DWORD PTR [esi+12], eax
  00117	8b 11		 mov	 edx, DWORD PTR [ecx]
  00119	89 50 08	 mov	 DWORD PTR [eax+8], edx

; 526  : 	pMail->m_pItemElem->m_nItemNum	= 1;

  0011c	8b 46 0c	 mov	 eax, DWORD PTR [esi+12]
  0011f	66 c7 40 72 01
	00		 mov	 WORD PTR [eax+114], 1

; 527  : 	pMail->m_pItemElem->m_dwKeepTime	= pi.dwKeepTime;

  00125	8b 41 04	 mov	 eax, DWORD PTR [ecx+4]
  00128	8b 56 0c	 mov	 edx, DWORD PTR [esi+12]
  0012b	89 82 8c 00 00
	00		 mov	 DWORD PTR [edx+140], eax

; 528  : 	pMail->m_pItemElem->SetSerialNumber( xRand() );

  00131	a1 00 00 00 00	 mov	 eax, DWORD PTR ?g_next@@3KA ; g_next

; 529  : 	CLController* pController	= m_pLord->GetController();

  00136	8b 54 24 04	 mov	 edx, DWORD PTR _this$[esp+24]
  0013a	69 c0 6d 4e c6
	41		 imul	 eax, 1103515245		; 41c64e6dH
  00140	05 39 30 00 00	 add	 eax, 12345		; 00003039H
  00145	a3 00 00 00 00	 mov	 DWORD PTR ?g_next@@3KA, eax ; g_next
  0014a	8b 4e 0c	 mov	 ecx, DWORD PTR [esi+12]
  0014d	89 41 30	 mov	 DWORD PTR [ecx+48], eax
  00150	8b 4a 04	 mov	 ecx, DWORD PTR [edx+4]
  00153	8b 01		 mov	 eax, DWORD PTR [ecx]
  00155	c7 44 24 14 ff
	ff ff ff	 mov	 DWORD PTR __$EHRec$[esp+32], -1
  0015d	ff 50 08	 call	 DWORD PTR [eax+8]

; 530  : 	post::Post( idPlayer, pMail, pController->GetQueryObject() );

  00160	8b 48 0c	 mov	 ecx, DWORD PTR [eax+12]
  00163	8b 54 24 1c	 mov	 edx, DWORD PTR _idPlayer$[esp+20]
  00167	51		 push	 ecx
  00168	56		 push	 esi
  00169	52		 push	 edx
  0016a	e8 00 00 00 00	 call	 ?Post@post@@YAXKPAVCMail@@PAVCQuery@@@Z ; post::Post

; 531  : }

  0016f	8b 4c 24 18	 mov	 ecx, DWORD PTR __$EHRec$[esp+36]
  00173	83 c4 0c	 add	 esp, 12			; 0000000cH
  00176	5e		 pop	 esi
  00177	64 89 0d 00 00
	00 00		 mov	 DWORD PTR fs:__except_list, ecx
  0017e	83 c4 14	 add	 esp, 20			; 00000014H
  00181	c2 08 00	 ret	 8
_TEXT	ENDS
;	COMDAT text$x
text$x	SEGMENT
$L207506:
  00000	8b 45 f0	 mov	 eax, DWORD PTR $T207499[ebp]
  00003	50		 push	 eax
  00004	e8 00 00 00 00	 call	 ??3@YAXPAX@Z		; operator delete
  00009	59		 pop	 ecx
  0000a	c3		 ret	 0
$L207507:
  0000b	8b 45 f0	 mov	 eax, DWORD PTR $T207503[ebp]
  0000e	50		 push	 eax
  0000f	e8 00 00 00 00	 call	 ??3@YAXPAX@Z		; operator delete
  00014	59		 pop	 ecx
  00015	c3		 ret	 0
__ehhandler$?PostItem@CTElection@@AAEXKAAU_PostItemStruct@@@Z:
  00016	b8 00 00 00 00	 mov	 eax, OFFSET FLAT:$T207570
  0001b	e9 00 00 00 00	 jmp	 ___CxxFrameHandler
text$x	ENDS
?PostItem@CTElection@@AAEXKAAU_PostItemStruct@@@Z ENDP	; CTElection::PostItem
; Function compile flags: /Ogty
;	COMDAT ?Handler@CLController@@UAEXPAUtagDB_OVERLAPPED_PLUS@@K@Z
_TEXT	SEGMENT
_pov$ = 8						; size = 4
_dwCompletionKey$ = 12					; size = 4
?Handler@CLController@@UAEXPAUtagDB_OVERLAPPED_PLUS@@K@Z PROC NEAR ; CLController::Handler, COMDAT
; _this$ = ecx

; 637  : 	m_pLord->Handler( pov, dwCompletionKey );

  00000	8b 49 14	 mov	 ecx, DWORD PTR [ecx+20]
  00003	e9 00 00 00 00	 jmp	 ?Handler@CTLord@@QAEXPAUtagDB_OVERLAPPED_PLUS@@K@Z ; CTLord::Handler
?Handler@CLController@@UAEXPAUtagDB_OVERLAPPED_PLUS@@K@Z ENDP ; CLController::Handler
_TEXT	ENDS
PUBLIC	??8ATL@@YA_NABV?$CStringT@DV?$StrTraitMFC@DV?$ChTraitsCRT@D@ATL@@@@@0@PBD@Z ; ATL::operator==
; Function compile flags: /Ogty
; File c:\program files\microsoft visual studio .net 2003\vc7\atlmfc\include\cstringt.h
;	COMDAT ??8ATL@@YA_NABV?$CStringT@DV?$StrTraitMFC@DV?$ChTraitsCRT@D@ATL@@@@@0@PBD@Z
_TEXT	SEGMENT
_str1$ = 8						; size = 4
_psz2$ = 12						; size = 4
??8ATL@@YA_NABV?$CStringT@DV?$StrTraitMFC@DV?$ChTraitsCRT@D@ATL@@@@@0@PBD@Z PROC NEAR ; ATL::operator==, COMDAT

; 2088 : 		return( str1.Compare( psz2 ) == 0 );

  00000	8b 4c 24 08	 mov	 ecx, DWORD PTR _psz2$[esp-4]
  00004	8b 44 24 04	 mov	 eax, DWORD PTR _str1$[esp-4]
  00008	8b 00		 mov	 eax, DWORD PTR [eax]
  0000a	51		 push	 ecx
  0000b	50		 push	 eax
  0000c	e8 00 00 00 00	 call	 __mbscmp
  00011	83 c4 08	 add	 esp, 8
  00014	f7 d8		 neg	 eax
  00016	1b c0		 sbb	 eax, eax
  00018	40		 inc	 eax

; 2089 : 	}

  00019	c3		 ret	 0
??8ATL@@YA_NABV?$CStringT@DV?$StrTraitMFC@DV?$ChTraitsCRT@D@ATL@@@@@0@PBD@Z ENDP ; ATL::operator==
_TEXT	ENDS
PUBLIC	?begin@?$vector@PAVCLordSkillComponentExecutable@@V?$allocator@PAVCLordSkillComponentExecutable@@@std@@@std@@QAE?AViterator@12@XZ ; std::vector<CLordSkillComponentExecutable *,std::allocator<CLordSkillComponentExecutable *> >::begin
; Function compile flags: /Ogty
; File c:\program files\microsoft visual studio .net 2003\vc7\include\vector
;	COMDAT ?begin@?$vector@PAVCLordSkillComponentExecutable@@V?$allocator@PAVCLordSkillComponentExecutable@@@std@@@std@@QAE?AViterator@12@XZ
_TEXT	SEGMENT
___$ReturnUdt$ = 8					; size = 4
?begin@?$vector@PAVCLordSkillComponentExecutable@@V?$allocator@PAVCLordSkillComponentExecutable@@@std@@@std@@QAE?AViterator@12@XZ PROC NEAR ; std::vector<CLordSkillComponentExecutable *,std::allocator<CLordSkillComponentExecutable *> >::begin, COMDAT
; _this$ = ecx

; 463  : 		return (iterator(_Myfirst));

  00000	8b 49 04	 mov	 ecx, DWORD PTR [ecx+4]
  00003	8b 44 24 04	 mov	 eax, DWORD PTR ___$ReturnUdt$[esp-4]
  00007	89 08		 mov	 DWORD PTR [eax], ecx

; 464  : 		}

  00009	c2 04 00	 ret	 4
?begin@?$vector@PAVCLordSkillComponentExecutable@@V?$allocator@PAVCLordSkillComponentExecutable@@@std@@@std@@QAE?AViterator@12@XZ ENDP ; std::vector<CLordSkillComponentExecutable *,std::allocator<CLordSkillComponentExecutable *> >::begin
_TEXT	ENDS
PUBLIC	?end@?$vector@PAVCLordSkillComponentExecutable@@V?$allocator@PAVCLordSkillComponentExecutable@@@std@@@std@@QAE?AViterator@12@XZ ; std::vector<CLordSkillComponentExecutable *,std::allocator<CLordSkillComponentExecutable *> >::end
; Function compile flags: /Ogty
;	COMDAT ?end@?$vector@PAVCLordSkillComponentExecutable@@V?$allocator@PAVCLordSkillComponentExecutable@@@std@@@std@@QAE?AViterator@12@XZ
_TEXT	SEGMENT
___$ReturnUdt$ = 8					; size = 4
?end@?$vector@PAVCLordSkillComponentExecutable@@V?$allocator@PAVCLordSkillComponentExecutable@@@std@@@std@@QAE?AViterator@12@XZ PROC NEAR ; std::vector<CLordSkillComponentExecutable *,std::allocator<CLordSkillComponentExecutable *> >::end, COMDAT
; _this$ = ecx

; 473  : 		return (iterator(_Mylast));

  00000	8b 49 08	 mov	 ecx, DWORD PTR [ecx+8]
  00003	8b 44 24 04	 mov	 eax, DWORD PTR ___$ReturnUdt$[esp-4]
  00007	89 08		 mov	 DWORD PTR [eax], ecx

; 474  : 		}

  00009	c2 04 00	 ret	 4
?end@?$vector@PAVCLordSkillComponentExecutable@@V?$allocator@PAVCLordSkillComponentExecutable@@@std@@@std@@QAE?AViterator@12@XZ ENDP ; std::vector<CLordSkillComponentExecutable *,std::allocator<CLordSkillComponentExecutable *> >::end
_TEXT	ENDS
PUBLIC	?begin@?$vector@V?$shared_ptr@VCCandidate@@@boost@@V?$allocator@V?$shared_ptr@VCCandidate@@@boost@@@std@@@std@@QAE?AViterator@12@XZ ; std::vector<boost::shared_ptr<CCandidate>,std::allocator<boost::shared_ptr<CCandidate> > >::begin
; Function compile flags: /Ogty
;	COMDAT ?begin@?$vector@V?$shared_ptr@VCCandidate@@@boost@@V?$allocator@V?$shared_ptr@VCCandidate@@@boost@@@std@@@std@@QAE?AViterator@12@XZ
_TEXT	SEGMENT
___$ReturnUdt$ = 8					; size = 4
?begin@?$vector@V?$shared_ptr@VCCandidate@@@boost@@V?$allocator@V?$shared_ptr@VCCandidate@@@boost@@@std@@@std@@QAE?AViterator@12@XZ PROC NEAR ; std::vector<boost::shared_ptr<CCandidate>,std::allocator<boost::shared_ptr<CCandidate> > >::begin, COMDAT
; _this$ = ecx

; 463  : 		return (iterator(_Myfirst));

  00000	8b 49 04	 mov	 ecx, DWORD PTR [ecx+4]
  00003	8b 44 24 04	 mov	 eax, DWORD PTR ___$ReturnUdt$[esp-4]
  00007	89 08		 mov	 DWORD PTR [eax], ecx

; 464  : 		}

  00009	c2 04 00	 ret	 4
?begin@?$vector@V?$shared_ptr@VCCandidate@@@boost@@V?$allocator@V?$shared_ptr@VCCandidate@@@boost@@@std@@@std@@QAE?AViterator@12@XZ ENDP ; std::vector<boost::shared_ptr<CCandidate>,std::allocator<boost::shared_ptr<CCandidate> > >::begin
_TEXT	ENDS
PUBLIC	?end@?$vector@V?$shared_ptr@VCCandidate@@@boost@@V?$allocator@V?$shared_ptr@VCCandidate@@@boost@@@std@@@std@@QAE?AViterator@12@XZ ; std::vector<boost::shared_ptr<CCandidate>,std::allocator<boost::shared_ptr<CCandidate> > >::end
; Function compile flags: /Ogty
;	COMDAT ?end@?$vector@V?$shared_ptr@VCCandidate@@@boost@@V?$allocator@V?$shared_ptr@VCCandidate@@@boost@@@std@@@std@@QAE?AViterator@12@XZ
_TEXT	SEGMENT
___$ReturnUdt$ = 8					; size = 4
?end@?$vector@V?$shared_ptr@VCCandidate@@@boost@@V?$allocator@V?$shared_ptr@VCCandidate@@@boost@@@std@@@std@@QAE?AViterator@12@XZ PROC NEAR ; std::vector<boost::shared_ptr<CCandidate>,std::allocator<boost::shared_ptr<CCandidate> > >::end, COMDAT
; _this$ = ecx

; 473  : 		return (iterator(_Mylast));

  00000	8b 49 08	 mov	 ecx, DWORD PTR [ecx+8]
  00003	8b 44 24 04	 mov	 eax, DWORD PTR ___$ReturnUdt$[esp-4]
  00007	89 08		 mov	 DWORD PTR [eax], ecx

; 474  : 		}

  00009	c2 04 00	 ret	 4
?end@?$vector@V?$shared_ptr@VCCandidate@@@boost@@V?$allocator@V?$shared_ptr@VCCandidate@@@boost@@@std@@@std@@QAE?AViterator@12@XZ ENDP ; std::vector<boost::shared_ptr<CCandidate>,std::allocator<boost::shared_ptr<CCandidate> > >::end
_TEXT	ENDS
PUBLIC	?begin@?$vector@HV?$allocator@H@std@@@std@@QAE?AViterator@12@XZ ; std::vector<int,std::allocator<int> >::begin
; Function compile flags: /Ogty
;	COMDAT ?begin@?$vector@HV?$allocator@H@std@@@std@@QAE?AViterator@12@XZ
_TEXT	SEGMENT
___$ReturnUdt$ = 8					; size = 4
?begin@?$vector@HV?$allocator@H@std@@@std@@QAE?AViterator@12@XZ PROC NEAR ; std::vector<int,std::allocator<int> >::begin, COMDAT
; _this$ = ecx

; 463  : 		return (iterator(_Myfirst));

  00000	8b 49 04	 mov	 ecx, DWORD PTR [ecx+4]
  00003	8b 44 24 04	 mov	 eax, DWORD PTR ___$ReturnUdt$[esp-4]
  00007	89 08		 mov	 DWORD PTR [eax], ecx

; 464  : 		}

  00009	c2 04 00	 ret	 4
?begin@?$vector@HV?$allocator@H@std@@@std@@QAE?AViterator@12@XZ ENDP ; std::vector<int,std::allocator<int> >::begin
_TEXT	ENDS
PUBLIC	?end@?$vector@HV?$allocator@H@std@@@std@@QAE?AViterator@12@XZ ; std::vector<int,std::allocator<int> >::end
; Function compile flags: /Ogty
;	COMDAT ?end@?$vector@HV?$allocator@H@std@@@std@@QAE?AViterator@12@XZ
_TEXT	SEGMENT
___$ReturnUdt$ = 8					; size = 4
?end@?$vector@HV?$allocator@H@std@@@std@@QAE?AViterator@12@XZ PROC NEAR ; std::vector<int,std::allocator<int> >::end, COMDAT
; _this$ = ecx

; 473  : 		return (iterator(_Mylast));

  00000	8b 49 08	 mov	 ecx, DWORD PTR [ecx+8]
  00003	8b 44 24 04	 mov	 eax, DWORD PTR ___$ReturnUdt$[esp-4]
  00007	89 08		 mov	 DWORD PTR [eax], ecx

; 474  : 		}

  00009	c2 04 00	 ret	 4
?end@?$vector@HV?$allocator@H@std@@@std@@QAE?AViterator@12@XZ ENDP ; std::vector<int,std::allocator<int> >::end
_TEXT	ENDS
PUBLIC	?begin@?$vector@PAVCLEComponent@@V?$allocator@PAVCLEComponent@@@std@@@std@@QAE?AViterator@12@XZ ; std::vector<CLEComponent *,std::allocator<CLEComponent *> >::begin
; Function compile flags: /Ogty
;	COMDAT ?begin@?$vector@PAVCLEComponent@@V?$allocator@PAVCLEComponent@@@std@@@std@@QAE?AViterator@12@XZ
_TEXT	SEGMENT
___$ReturnUdt$ = 8					; size = 4
?begin@?$vector@PAVCLEComponent@@V?$allocator@PAVCLEComponent@@@std@@@std@@QAE?AViterator@12@XZ PROC NEAR ; std::vector<CLEComponent *,std::allocator<CLEComponent *> >::begin, COMDAT
; _this$ = ecx

; 463  : 		return (iterator(_Myfirst));

  00000	8b 49 04	 mov	 ecx, DWORD PTR [ecx+4]
  00003	8b 44 24 04	 mov	 eax, DWORD PTR ___$ReturnUdt$[esp-4]
  00007	89 08		 mov	 DWORD PTR [eax], ecx

; 464  : 		}

  00009	c2 04 00	 ret	 4
?begin@?$vector@PAVCLEComponent@@V?$allocator@PAVCLEComponent@@@std@@@std@@QAE?AViterator@12@XZ ENDP ; std::vector<CLEComponent *,std::allocator<CLEComponent *> >::begin
_TEXT	ENDS
PUBLIC	?end@?$vector@PAVCLEComponent@@V?$allocator@PAVCLEComponent@@@std@@@std@@QAE?AViterator@12@XZ ; std::vector<CLEComponent *,std::allocator<CLEComponent *> >::end
; Function compile flags: /Ogty
;	COMDAT ?end@?$vector@PAVCLEComponent@@V?$allocator@PAVCLEComponent@@@std@@@std@@QAE?AViterator@12@XZ
_TEXT	SEGMENT
___$ReturnUdt$ = 8					; size = 4
?end@?$vector@PAVCLEComponent@@V?$allocator@PAVCLEComponent@@@std@@@std@@QAE?AViterator@12@XZ PROC NEAR ; std::vector<CLEComponent *,std::allocator<CLEComponent *> >::end, COMDAT
; _this$ = ecx

; 473  : 		return (iterator(_Mylast));

  00000	8b 49 08	 mov	 ecx, DWORD PTR [ecx+8]
  00003	8b 44 24 04	 mov	 eax, DWORD PTR ___$ReturnUdt$[esp-4]
  00007	89 08		 mov	 DWORD PTR [eax], ecx

; 474  : 		}

  00009	c2 04 00	 ret	 4
?end@?$vector@PAVCLEComponent@@V?$allocator@PAVCLEComponent@@@std@@@std@@QAE?AViterator@12@XZ ENDP ; std::vector<CLEComponent *,std::allocator<CLEComponent *> >::end
_TEXT	ENDS
PUBLIC	?begin@?$vector@MV?$allocator@M@std@@@std@@QAE?AViterator@12@XZ ; std::vector<float,std::allocator<float> >::begin
; Function compile flags: /Ogty
;	COMDAT ?begin@?$vector@MV?$allocator@M@std@@@std@@QAE?AViterator@12@XZ
_TEXT	SEGMENT
___$ReturnUdt$ = 8					; size = 4
?begin@?$vector@MV?$allocator@M@std@@@std@@QAE?AViterator@12@XZ PROC NEAR ; std::vector<float,std::allocator<float> >::begin, COMDAT
; _this$ = ecx

; 463  : 		return (iterator(_Myfirst));

  00000	8b 49 04	 mov	 ecx, DWORD PTR [ecx+4]
  00003	8b 44 24 04	 mov	 eax, DWORD PTR ___$ReturnUdt$[esp-4]
  00007	89 08		 mov	 DWORD PTR [eax], ecx

; 464  : 		}

  00009	c2 04 00	 ret	 4
?begin@?$vector@MV?$allocator@M@std@@@std@@QAE?AViterator@12@XZ ENDP ; std::vector<float,std::allocator<float> >::begin
_TEXT	ENDS
PUBLIC	?end@?$vector@MV?$allocator@M@std@@@std@@QAE?AViterator@12@XZ ; std::vector<float,std::allocator<float> >::end
; Function compile flags: /Ogty
;	COMDAT ?end@?$vector@MV?$allocator@M@std@@@std@@QAE?AViterator@12@XZ
_TEXT	SEGMENT
___$ReturnUdt$ = 8					; size = 4
?end@?$vector@MV?$allocator@M@std@@@std@@QAE?AViterator@12@XZ PROC NEAR ; std::vector<float,std::allocator<float> >::end, COMDAT
; _this$ = ecx

; 473  : 		return (iterator(_Mylast));

  00000	8b 49 08	 mov	 ecx, DWORD PTR [ecx+8]
  00003	8b 44 24 04	 mov	 eax, DWORD PTR ___$ReturnUdt$[esp-4]
  00007	89 08		 mov	 DWORD PTR [eax], ecx

; 474  : 		}

  00009	c2 04 00	 ret	 4
?end@?$vector@MV?$allocator@M@std@@@std@@QAE?AViterator@12@XZ ENDP ; std::vector<float,std::allocator<float> >::end
_TEXT	ENDS
PUBLIC	?_Destroy@?$vector@MV?$allocator@M@std@@@std@@IAEXPAM0@Z ; std::vector<float,std::allocator<float> >::_Destroy
; Function compile flags: /Ogty
;	COMDAT ?_Destroy@?$vector@MV?$allocator@M@std@@@std@@IAEXPAM0@Z
_TEXT	SEGMENT
__First$ = 8						; size = 4
__Last$ = 12						; size = 4
?_Destroy@?$vector@MV?$allocator@M@std@@@std@@IAEXPAM0@Z PROC NEAR ; std::vector<float,std::allocator<float> >::_Destroy, COMDAT
; _this$ = ecx

; 787  : 		_Destroy_range(_First, _Last, this->_Alval);
; 788  : 		}

  00000	c2 08 00	 ret	 8
?_Destroy@?$vector@MV?$allocator@M@std@@@std@@IAEXPAM0@Z ENDP ; std::vector<float,std::allocator<float> >::_Destroy
_TEXT	ENDS
PUBLIC	?_Destroy@?$vector@HV?$allocator@H@std@@@std@@IAEXPAH0@Z ; std::vector<int,std::allocator<int> >::_Destroy
; Function compile flags: /Ogty
;	COMDAT ?_Destroy@?$vector@HV?$allocator@H@std@@@std@@IAEXPAH0@Z
_TEXT	SEGMENT
__First$ = 8						; size = 4
__Last$ = 12						; size = 4
?_Destroy@?$vector@HV?$allocator@H@std@@@std@@IAEXPAH0@Z PROC NEAR ; std::vector<int,std::allocator<int> >::_Destroy, COMDAT
; _this$ = ecx

; 787  : 		_Destroy_range(_First, _Last, this->_Alval);
; 788  : 		}

  00000	c2 08 00	 ret	 8
?_Destroy@?$vector@HV?$allocator@H@std@@@std@@IAEXPAH0@Z ENDP ; std::vector<int,std::allocator<int> >::_Destroy
_TEXT	ENDS
PUBLIC	??$_Uninitialized_fill_n@PAMIMV?$allocator@M@std@@@std@@YAXPAMIABMAAV?$allocator@M@0@@Z ; std::_Uninitialized_fill_n<float *,unsigned int,float,std::allocator<float> >
; Function compile flags: /Ogty
; File c:\program files\microsoft visual studio .net 2003\vc7\include\memory
;	COMDAT ??$_Uninitialized_fill_n@PAMIMV?$allocator@M@std@@@std@@YAXPAMIABMAAV?$allocator@M@0@@Z
_TEXT	SEGMENT
__First$ = 8						; size = 4
__Count$ = 12						; size = 4
__Val$ = 16						; size = 4
__Al$ = 20						; size = 4
??$_Uninitialized_fill_n@PAMIMV?$allocator@M@std@@@std@@YAXPAMIABMAAV?$allocator@M@0@@Z PROC NEAR ; std::_Uninitialized_fill_n<float *,unsigned int,float,std::allocator<float> >, COMDAT

; 256  : 	_Uninit_fill_n(_First, _Count, _Val, _Al,
; 257  : 		_Ptr_cat(_First, _First));

  00000	8b 4c 24 08	 mov	 ecx, DWORD PTR __Count$[esp-4]
  00004	85 c9		 test	 ecx, ecx
  00006	8b 44 24 04	 mov	 eax, DWORD PTR __First$[esp-4]
  0000a	76 10		 jbe	 SHORT $L207731
  0000c	8b 54 24 0c	 mov	 edx, DWORD PTR __Val$[esp-4]
  00010	56		 push	 esi
$L207728:
  00011	8b 32		 mov	 esi, DWORD PTR [edx]
  00013	89 30		 mov	 DWORD PTR [eax], esi
  00015	83 c0 04	 add	 eax, 4
  00018	49		 dec	 ecx
  00019	75 f6		 jne	 SHORT $L207728
  0001b	5e		 pop	 esi
$L207731:

; 258  : 	}

  0001c	c3		 ret	 0
??$_Uninitialized_fill_n@PAMIMV?$allocator@M@std@@@std@@YAXPAMIABMAAV?$allocator@M@0@@Z ENDP ; std::_Uninitialized_fill_n<float *,unsigned int,float,std::allocator<float> >
_TEXT	ENDS
PUBLIC	??$_Uninitialized_fill_n@PAHIHV?$allocator@H@std@@@std@@YAXPAHIABHAAV?$allocator@H@0@@Z ; std::_Uninitialized_fill_n<int *,unsigned int,int,std::allocator<int> >
; Function compile flags: /Ogty
;	COMDAT ??$_Uninitialized_fill_n@PAHIHV?$allocator@H@std@@@std@@YAXPAHIABHAAV?$allocator@H@0@@Z
_TEXT	SEGMENT
__First$ = 8						; size = 4
__Count$ = 12						; size = 4
__Val$ = 16						; size = 4
__Al$ = 20						; size = 4
??$_Uninitialized_fill_n@PAHIHV?$allocator@H@std@@@std@@YAXPAHIABHAAV?$allocator@H@0@@Z PROC NEAR ; std::_Uninitialized_fill_n<int *,unsigned int,int,std::allocator<int> >, COMDAT

; 256  : 	_Uninit_fill_n(_First, _Count, _Val, _Al,
; 257  : 		_Ptr_cat(_First, _First));

  00000	8b 4c 24 08	 mov	 ecx, DWORD PTR __Count$[esp-4]
  00004	85 c9		 test	 ecx, ecx
  00006	8b 44 24 04	 mov	 eax, DWORD PTR __First$[esp-4]
  0000a	76 10		 jbe	 SHORT $L207756
  0000c	8b 54 24 0c	 mov	 edx, DWORD PTR __Val$[esp-4]
  00010	56		 push	 esi
$L207754:
  00011	8b 32		 mov	 esi, DWORD PTR [edx]
  00013	89 30		 mov	 DWORD PTR [eax], esi
  00015	83 c0 04	 add	 eax, 4
  00018	49		 dec	 ecx
  00019	75 f6		 jne	 SHORT $L207754
  0001b	5e		 pop	 esi
$L207756:

; 258  : 	}

  0001c	c3		 ret	 0
??$_Uninitialized_fill_n@PAHIHV?$allocator@H@std@@@std@@YAXPAHIABHAAV?$allocator@H@0@@Z ENDP ; std::_Uninitialized_fill_n<int *,unsigned int,int,std::allocator<int> >
_TEXT	ENDS
PUBLIC	??$_Ucopy@PAM@?$vector@MV?$allocator@M@std@@@std@@IAEPAMPAM00@Z ; std::vector<float,std::allocator<float> >::_Ucopy<float *>
; Function compile flags: /Ogty
; File c:\program files\microsoft visual studio .net 2003\vc7\include\vector
;	COMDAT ??$_Ucopy@PAM@?$vector@MV?$allocator@M@std@@@std@@IAEPAMPAM00@Z
_TEXT	SEGMENT
__First$ = 8						; size = 4
__Last$ = 12						; size = 4
__Ptr$ = 16						; size = 4
??$_Ucopy@PAM@?$vector@MV?$allocator@M@std@@@std@@IAEPAMPAM00@Z PROC NEAR ; std::vector<float,std::allocator<float> >::_Ucopy<float *>, COMDAT
; _this$ = ecx

; 802  : 		{	// copy initializing [_First, _Last), using allocator
; 803  : 		return (_Uninitialized_copy(_First, _Last,
; 804  : 			_Ptr, this->_Alval));

  00000	8b 4c 24 04	 mov	 ecx, DWORD PTR __First$[esp-4]
  00004	8b 44 24 08	 mov	 eax, DWORD PTR __Last$[esp-4]
  00008	2b c1		 sub	 eax, ecx
  0000a	56		 push	 esi
  0000b	c1 f8 02	 sar	 eax, 2
  0000e	8d 34 85 00 00
	00 00		 lea	 esi, DWORD PTR [eax*4]
  00015	8b 44 24 10	 mov	 eax, DWORD PTR __Ptr$[esp]
  00019	56		 push	 esi
  0001a	51		 push	 ecx
  0001b	50		 push	 eax
  0001c	e8 00 00 00 00	 call	 _memmove
  00021	83 c4 0c	 add	 esp, 12			; 0000000cH
  00024	03 c6		 add	 eax, esi
  00026	5e		 pop	 esi

; 805  : 		}

  00027	c2 0c 00	 ret	 12			; 0000000cH
??$_Ucopy@PAM@?$vector@MV?$allocator@M@std@@@std@@IAEPAMPAM00@Z ENDP ; std::vector<float,std::allocator<float> >::_Ucopy<float *>
_TEXT	ENDS
PUBLIC	??$_Ucopy@PAH@?$vector@HV?$allocator@H@std@@@std@@IAEPAHPAH00@Z ; std::vector<int,std::allocator<int> >::_Ucopy<int *>
; Function compile flags: /Ogty
;	COMDAT ??$_Ucopy@PAH@?$vector@HV?$allocator@H@std@@@std@@IAEPAHPAH00@Z
_TEXT	SEGMENT
__First$ = 8						; size = 4
__Last$ = 12						; size = 4
__Ptr$ = 16						; size = 4
??$_Ucopy@PAH@?$vector@HV?$allocator@H@std@@@std@@IAEPAHPAH00@Z PROC NEAR ; std::vector<int,std::allocator<int> >::_Ucopy<int *>, COMDAT
; _this$ = ecx

; 802  : 		{	// copy initializing [_First, _Last), using allocator
; 803  : 		return (_Uninitialized_copy(_First, _Last,
; 804  : 			_Ptr, this->_Alval));

  00000	8b 4c 24 04	 mov	 ecx, DWORD PTR __First$[esp-4]
  00004	8b 44 24 08	 mov	 eax, DWORD PTR __Last$[esp-4]
  00008	2b c1		 sub	 eax, ecx
  0000a	56		 push	 esi
  0000b	c1 f8 02	 sar	 eax, 2
  0000e	8d 34 85 00 00
	00 00		 lea	 esi, DWORD PTR [eax*4]
  00015	8b 44 24 10	 mov	 eax, DWORD PTR __Ptr$[esp]
  00019	56		 push	 esi
  0001a	51		 push	 ecx
  0001b	50		 push	 eax
  0001c	e8 00 00 00 00	 call	 _memmove
  00021	83 c4 0c	 add	 esp, 12			; 0000000cH
  00024	03 c6		 add	 eax, esi
  00026	5e		 pop	 esi

; 805  : 		}

  00027	c2 0c 00	 ret	 12			; 0000000cH
??$_Ucopy@PAH@?$vector@HV?$allocator@H@std@@@std@@IAEPAHPAH00@Z ENDP ; std::vector<int,std::allocator<int> >::_Ucopy<int *>
_TEXT	ENDS
PUBLIC	??1?$CStringT@DV?$StrTraitMFC@DV?$ChTraitsCRT@D@ATL@@@@@ATL@@QAE@XZ ; ATL::CStringT<char,StrTraitMFC<char,ATL::ChTraitsCRT<char> > >::~CStringT<char,StrTraitMFC<char,ATL::ChTraitsCRT<char> > >
; Function compile flags: /Ogty
; File c:\program files\microsoft visual studio .net 2003\vc7\atlmfc\include\cstringt.h
;	COMDAT ??1?$CStringT@DV?$StrTraitMFC@DV?$ChTraitsCRT@D@ATL@@@@@ATL@@QAE@XZ
_TEXT	SEGMENT
??1?$CStringT@DV?$StrTraitMFC@DV?$ChTraitsCRT@D@ATL@@@@@ATL@@QAE@XZ PROC NEAR ; ATL::CStringT<char,StrTraitMFC<char,ATL::ChTraitsCRT<char> > >::~CStringT<char,StrTraitMFC<char,ATL::ChTraitsCRT<char> > >, COMDAT
; _this$ = ecx

; 963  : 	}

  00000	8b 01		 mov	 eax, DWORD PTR [ecx]
  00002	83 e8 10	 sub	 eax, 16			; 00000010H
  00005	8d 48 0c	 lea	 ecx, DWORD PTR [eax+12]
  00008	83 ca ff	 or	 edx, -1
  0000b	f0 0f c1 11	 lock	  xadd	 DWORD PTR [ecx], edx
  0000f	4a		 dec	 edx
  00010	85 d2		 test	 edx, edx
  00012	7f 08		 jg	 SHORT $L207818
  00014	8b 08		 mov	 ecx, DWORD PTR [eax]
  00016	8b 11		 mov	 edx, DWORD PTR [ecx]
  00018	50		 push	 eax
  00019	ff 52 04	 call	 DWORD PTR [edx+4]
$L207818:
  0001c	c3		 ret	 0
??1?$CStringT@DV?$StrTraitMFC@DV?$ChTraitsCRT@D@ATL@@@@@ATL@@QAE@XZ ENDP ; ATL::CStringT<char,StrTraitMFC<char,ATL::ChTraitsCRT<char> > >::~CStringT<char,StrTraitMFC<char,ATL::ChTraitsCRT<char> > >
_TEXT	ENDS
PUBLIC	?PrepareWrite@?$CSimpleStringT@D$0A@@ATL@@AAEPADH@Z ; ATL::CSimpleStringT<char,0>::PrepareWrite
; Function compile flags: /Ogty
; File c:\program files\microsoft visual studio .net 2003\vc7\atlmfc\include\atlsimpstr.h
;	COMDAT ?PrepareWrite@?$CSimpleStringT@D$0A@@ATL@@AAEPADH@Z
_TEXT	SEGMENT
_nLength$ = 8						; size = 4
?PrepareWrite@?$CSimpleStringT@D$0A@@ATL@@AAEPADH@Z PROC NEAR ; ATL::CSimpleStringT<char,0>::PrepareWrite, COMDAT
; _this$ = ecx

; 734  : 	{

  00000	56		 push	 esi
  00001	8b f1		 mov	 esi, ecx

; 735  : 		CStringData* pOldData = GetData();

  00003	8b 06		 mov	 eax, DWORD PTR [esi]

; 736  : 		int nShared = 1-pOldData->nRefs;  // nShared < 0 means true, >= 0 means false

  00005	8b 50 fc	 mov	 edx, DWORD PTR [eax-4]
  00008	83 e8 10	 sub	 eax, 16			; 00000010H
  0000b	b9 01 00 00 00	 mov	 ecx, 1
  00010	2b ca		 sub	 ecx, edx

; 737  : 		int nTooShort = pOldData->nAllocLength-nLength;  // nTooShort < 0 means true, >= 0 means false

  00012	8b 50 08	 mov	 edx, DWORD PTR [eax+8]
  00015	8b 44 24 08	 mov	 eax, DWORD PTR _nLength$[esp]
  00019	2b d0		 sub	 edx, eax

; 738  : 		if( (nShared|nTooShort) < 0 )  // If either sign bit is set (i.e. either is less than zero), we need to copy data

  0001b	0b ca		 or	 ecx, edx
  0001d	7d 08		 jge	 SHORT $L207824

; 739  : 		{
; 740  : 			PrepareWrite2( nLength );

  0001f	50		 push	 eax
  00020	8b ce		 mov	 ecx, esi
  00022	e8 00 00 00 00	 call	 ?PrepareWrite2@?$CSimpleStringT@D$0A@@ATL@@AAEXH@Z ; ATL::CSimpleStringT<char,0>::PrepareWrite2
$L207824:

; 741  : 		}
; 742  : 
; 743  : 		return( m_pszData );

  00027	8b 06		 mov	 eax, DWORD PTR [esi]
  00029	5e		 pop	 esi

; 744  : 	}

  0002a	c2 04 00	 ret	 4
?PrepareWrite@?$CSimpleStringT@D$0A@@ATL@@AAEPADH@Z ENDP ; ATL::CSimpleStringT<char,0>::PrepareWrite
_TEXT	ENDS
PUBLIC	?_Tidy@?$basic_string@DU?$char_traits@D@std@@V?$allocator@D@2@@std@@IAEX_NI@Z ; std::basic_string<char,std::char_traits<char>,std::allocator<char> >::_Tidy
; Function compile flags: /Ogty
; File c:\program files\microsoft visual studio .net 2003\vc7\include\xstring
;	COMDAT ?_Tidy@?$basic_string@DU?$char_traits@D@std@@V?$allocator@D@2@@std@@IAEX_NI@Z
_TEXT	SEGMENT
__Built$ = 8						; size = 1
__Newsize$ = 12						; size = 4
?_Tidy@?$basic_string@DU?$char_traits@D@std@@V?$allocator@D@2@@std@@IAEX_NI@Z PROC NEAR ; std::basic_string<char,std::char_traits<char>,std::allocator<char> >::_Tidy, COMDAT
; _this$ = ecx

; 1510 : 		if (!_Built)

  00000	8a 44 24 04	 mov	 al, BYTE PTR __Built$[esp-4]
  00004	84 c0		 test	 al, al
  00006	53		 push	 ebx
  00007	55		 push	 ebp
  00008	8b 6c 24 10	 mov	 ebp, DWORD PTR __Newsize$[esp+4]
  0000c	8b d9		 mov	 ebx, ecx
  0000e	74 2f		 je	 SHORT $L207831

; 1511 : 			;
; 1512 : 		else if (_BUF_SIZE <= _Myres)

  00010	83 7b 18 10	 cmp	 DWORD PTR [ebx+24], 16	; 00000010H
  00014	72 29		 jb	 SHORT $L207831

; 1513 : 			{	// copy any leftovers to small buffer and deallocate
; 1514 : 			_Elem *_Ptr = _Bx._Ptr;
; 1515 : 			if (0 < _Newsize)

  00016	85 ed		 test	 ebp, ebp
  00018	8b 43 04	 mov	 eax, DWORD PTR [ebx+4]
  0001b	57		 push	 edi
  0001c	8d 7b 04	 lea	 edi, DWORD PTR [ebx+4]
  0001f	76 14		 jbe	 SHORT $L207829
  00021	56		 push	 esi

; 1516 : 				_Traits::copy(_Bx._Buf, _Ptr, _Newsize);

  00022	8b cd		 mov	 ecx, ebp
  00024	8b d1		 mov	 edx, ecx
  00026	c1 e9 02	 shr	 ecx, 2
  00029	8b f0		 mov	 esi, eax
  0002b	f3 a5		 rep movsd
  0002d	8b ca		 mov	 ecx, edx
  0002f	83 e1 03	 and	 ecx, 3
  00032	f3 a4		 rep movsb
  00034	5e		 pop	 esi
$L207829:

; 1517 : 			_Mybase::_Alval.deallocate(_Ptr, _Myres + 1);

  00035	50		 push	 eax
  00036	e8 00 00 00 00	 call	 ??3@YAXPAX@Z		; operator delete
  0003b	83 c4 04	 add	 esp, 4
  0003e	5f		 pop	 edi
$L207831:

; 1518 : 			}
; 1519 : 		_Myres = _BUF_SIZE - 1;
; 1520 : 		_Eos(_Newsize);

  0003f	89 6b 14	 mov	 DWORD PTR [ebx+20], ebp
  00042	c7 43 18 0f 00
	00 00		 mov	 DWORD PTR [ebx+24], 15	; 0000000fH
  00049	c6 44 2b 04 00	 mov	 BYTE PTR [ebx+ebp+4], 0
  0004e	5d		 pop	 ebp
  0004f	5b		 pop	 ebx

; 1521 : 		}

  00050	c2 08 00	 ret	 8
?_Tidy@?$basic_string@DU?$char_traits@D@std@@V?$allocator@D@2@@std@@IAEX_NI@Z ENDP ; std::basic_string<char,std::char_traits<char>,std::allocator<char> >::_Tidy
_TEXT	ENDS
PUBLIC	?erase@?$basic_string@DU?$char_traits@D@std@@V?$allocator@D@2@@std@@QAEAAV12@II@Z ; std::basic_string<char,std::char_traits<char>,std::allocator<char> >::erase
EXTRN	?_Xran@_String_base@std@@QBEXXZ:NEAR		; std::_String_base::_Xran
; Function compile flags: /Ogty
;	COMDAT ?erase@?$basic_string@DU?$char_traits@D@std@@V?$allocator@D@2@@std@@QAEAAV12@II@Z
_TEXT	SEGMENT
__Off$ = 8						; size = 4
__Count$ = 12						; size = 4
?erase@?$basic_string@DU?$char_traits@D@std@@V?$allocator@D@2@@std@@QAEAAV12@II@Z PROC NEAR ; std::basic_string<char,std::char_traits<char>,std::allocator<char> >::erase, COMDAT
; _this$ = ecx

; 792  : 		{	// erase elements [_Off, _Off + _Count)

  00000	55		 push	 ebp

; 793  : 		if (_Mysize < _Off)

  00001	8b 6c 24 08	 mov	 ebp, DWORD PTR __Off$[esp]
  00005	56		 push	 esi
  00006	8b f1		 mov	 esi, ecx
  00008	39 6e 14	 cmp	 DWORD PTR [esi+20], ebp
  0000b	57		 push	 edi
  0000c	73 05		 jae	 SHORT $L184993

; 794  : 			_String_base::_Xran();	// _Off off end

  0000e	e8 00 00 00 00	 call	 ?_Xran@_String_base@std@@QBEXXZ ; std::_String_base::_Xran
$L184993:

; 795  : 		if (_Mysize - _Off < _Count)

  00013	8b 46 14	 mov	 eax, DWORD PTR [esi+20]
  00016	8b 7c 24 14	 mov	 edi, DWORD PTR __Count$[esp+8]
  0001a	2b c5		 sub	 eax, ebp
  0001c	3b c7		 cmp	 eax, edi
  0001e	73 02		 jae	 SHORT $L184994

; 796  : 			_Count = _Mysize - _Off;	// trim _Count

  00020	8b f8		 mov	 edi, eax
$L184994:

; 797  : 		if (0 < _Count)

  00022	85 ff		 test	 edi, edi
  00024	76 47		 jbe	 SHORT $L207896

; 798  : 			{	// move elements down
; 799  : 			_Traits::move(_Myptr() + _Off, _Myptr() + _Off + _Count,
; 800  : 				_Mysize - _Off - _Count);

  00026	8b 4e 18	 mov	 ecx, DWORD PTR [esi+24]
  00029	83 f9 10	 cmp	 ecx, 16			; 00000010H
  0002c	53		 push	 ebx
  0002d	8d 5e 04	 lea	 ebx, DWORD PTR [esi+4]
  00030	72 04		 jb	 SHORT $L207862
  00032	8b 13		 mov	 edx, DWORD PTR [ebx]
  00034	eb 02		 jmp	 SHORT $L207863
$L207862:
  00036	8b d3		 mov	 edx, ebx
$L207863:
  00038	83 f9 10	 cmp	 ecx, 16			; 00000010H
  0003b	72 04		 jb	 SHORT $L207869
  0003d	8b 0b		 mov	 ecx, DWORD PTR [ebx]
  0003f	eb 02		 jmp	 SHORT $L207870
$L207869:
  00041	8b cb		 mov	 ecx, ebx
$L207870:
  00043	2b c7		 sub	 eax, edi

; 803  : 			}
; 804  : 		return (*this);

  00045	03 d5		 add	 edx, ebp
  00047	50		 push	 eax
  00048	03 d7		 add	 edx, edi
  0004a	52		 push	 edx
  0004b	03 cd		 add	 ecx, ebp
  0004d	51		 push	 ecx
  0004e	e8 00 00 00 00	 call	 _memmove
  00053	8b 46 14	 mov	 eax, DWORD PTR [esi+20]
  00056	8b 4e 18	 mov	 ecx, DWORD PTR [esi+24]
  00059	2b c7		 sub	 eax, edi
  0005b	83 c4 0c	 add	 esp, 12			; 0000000cH
  0005e	83 f9 10	 cmp	 ecx, 16			; 00000010H
  00061	89 46 14	 mov	 DWORD PTR [esi+20], eax
  00064	72 02		 jb	 SHORT $L207891

; 801  : 			size_type _Newsize = _Mysize - _Count;
; 802  : 			_Eos(_Newsize);

  00066	8b 1b		 mov	 ebx, DWORD PTR [ebx]
$L207891:
  00068	c6 04 03 00	 mov	 BYTE PTR [ebx+eax], 0
  0006c	5b		 pop	 ebx
$L207896:
  0006d	5f		 pop	 edi

; 803  : 			}
; 804  : 		return (*this);

  0006e	8b c6		 mov	 eax, esi
  00070	5e		 pop	 esi
  00071	5d		 pop	 ebp

; 805  : 		}

  00072	c2 08 00	 ret	 8
?erase@?$basic_string@DU?$char_traits@D@std@@V?$allocator@D@2@@std@@QAEAAV12@II@Z ENDP ; std::basic_string<char,std::char_traits<char>,std::allocator<char> >::erase
_TEXT	ENDS
PUBLIC	?_Copy@?$basic_string@DU?$char_traits@D@std@@V?$allocator@D@2@@std@@IAEXII@Z ; std::basic_string<char,std::char_traits<char>,std::allocator<char> >::_Copy
EXTRN	__CxxThrowException@8:NEAR
;	COMDAT xdata$x
; File c:\program files\microsoft visual studio .net 2003\vc7\include\iosfwd
xdata$x	SEGMENT
$T208100 DD	0ffffffffH
	DD	00H
	DD	0ffffffffH
	DD	00H
	DD	01H
	DD	00H
	DD	01H
	DD	00H
$T208102 DD	00H
	DD	00H
	DD	00H
	DD	FLAT:$L207903
$T208103 DD	00H
	DD	00H
	DD	00H
	DD	FLAT:$L207901
$T208101 DD	02H
	DD	02H
	DD	03H
	DD	01H
	DD	FLAT:$T208102
	DD	00H
	DD	00H
	DD	03H
	DD	01H
	DD	FLAT:$T208103
$T208095 DD	019930520H
	DD	04H
	DD	FLAT:$T208100
	DD	02H
	DD	FLAT:$T208101
	DD	2 DUP(00H)
; Function compile flags: /Ogty
; File c:\program files\microsoft visual studio .net 2003\vc7\include\xstring
xdata$x	ENDS
;	COMDAT ?_Copy@?$basic_string@DU?$char_traits@D@std@@V?$allocator@D@2@@std@@IAEXII@Z
_TEXT	SEGMENT
__Newres$ = -24						; size = 4
_this$ = -20						; size = 4
__$EHRec$ = -16						; size = 16
__Ptr$ = 8						; size = 4
__Newsize$ = 8						; size = 4
__Oldlen$ = 12						; size = 4
?_Copy@?$basic_string@DU?$char_traits@D@std@@V?$allocator@D@2@@std@@IAEXII@Z PROC NEAR ; std::basic_string<char,std::char_traits<char>,std::allocator<char> >::_Copy, COMDAT
; _this$ = ecx

; 1444 : 		{	// copy _Oldlen elements to newly allocated buffer

  00000	55		 push	 ebp
  00001	8b ec		 mov	 ebp, esp
  00003	6a ff		 push	 -1
  00005	68 00 00 00 00	 push	 __ehhandler$?_Copy@?$basic_string@DU?$char_traits@D@std@@V?$allocator@D@2@@std@@IAEXII@Z
  0000a	64 a1 00 00 00
	00		 mov	 eax, DWORD PTR fs:__except_list
  00010	50		 push	 eax
  00011	64 89 25 00 00
	00 00		 mov	 DWORD PTR fs:__except_list, esp
  00018	83 ec 0c	 sub	 esp, 12			; 0000000cH

; 1445 : 		size_type _Newres = _Newsize | _ALLOC_MASK;

  0001b	8b 45 08	 mov	 eax, DWORD PTR __Newsize$[ebp]
  0001e	53		 push	 ebx
  0001f	56		 push	 esi
  00020	8b d8		 mov	 ebx, eax
  00022	83 cb 0f	 or	 ebx, 15			; 0000000fH

; 1446 : 		if (max_size() < _Newres)

  00025	83 fb fe	 cmp	 ebx, -2			; fffffffeH
  00028	57		 push	 edi
  00029	8b f1		 mov	 esi, ecx
  0002b	89 65 f0	 mov	 DWORD PTR __$EHRec$[ebp], esp
  0002e	89 75 ec	 mov	 DWORD PTR _this$[ebp], esi
  00031	76 04		 jbe	 SHORT $L185550

; 1447 : 			_Newres = _Newsize;	// undo roundup if too big

  00033	8b d8		 mov	 ebx, eax

; 1448 : 		else if (_Newres / 3 < _Myres / 2

  00035	eb 22		 jmp	 SHORT $L185552
$L185550:

; 1449 : 			&& _Myres <= max_size() - _Myres / 2)

  00037	8b 7e 18	 mov	 edi, DWORD PTR [esi+24]
  0003a	b8 ab aa aa aa	 mov	 eax, -1431655765	; aaaaaaabH
  0003f	f7 e3		 mul	 ebx
  00041	8b cf		 mov	 ecx, edi
  00043	d1 e9		 shr	 ecx, 1
  00045	d1 ea		 shr	 edx, 1
  00047	3b d1		 cmp	 edx, ecx
  00049	73 0e		 jae	 SHORT $L185552
  0004b	b8 fe ff ff ff	 mov	 eax, -2			; fffffffeH
  00050	2b c1		 sub	 eax, ecx
  00052	3b f8		 cmp	 edi, eax
  00054	77 03		 ja	 SHORT $L185552

; 1450 : 			_Newres = _Myres + _Myres / 2;	// grow exponentially if possible

  00056	8d 1c 39	 lea	 ebx, DWORD PTR [ecx+edi]
$L185552:

; 1451 : 		_Elem *_Ptr;
; 1452 : 
; 1453 : 		_TRY_BEGIN
; 1454 : 			_Ptr = _Mybase::_Alval.allocate(_Newres + 1);

  00059	8d 4b 01	 lea	 ecx, DWORD PTR [ebx+1]
  0005c	51		 push	 ecx
  0005d	c7 45 fc 00 00
	00 00		 mov	 DWORD PTR __$EHRec$[ebp+12], 0
  00064	e8 00 00 00 00	 call	 ??2@YAPAXI@Z		; operator new
  00069	8b d0		 mov	 edx, eax
  0006b	83 c4 04	 add	 esp, 4
  0006e	89 55 08	 mov	 DWORD PTR __Ptr$[ebp], edx
  00071	eb 29		 jmp	 SHORT $L185554
$L207901:

; 1455 : 		_CATCH_ALL
; 1456 : 			_Newres = _Newsize;	// allocation failed, undo roundup and retry

  00073	8b 45 08	 mov	 eax, DWORD PTR __Newsize$[ebp]
  00076	89 45 e8	 mov	 DWORD PTR __Newres$[ebp], eax

; 1457 : 			_TRY_BEGIN
; 1458 : 				_Ptr = _Mybase::_Alval.allocate(_Newres + 1);

  00079	40		 inc	 eax
  0007a	89 65 f0	 mov	 DWORD PTR __$EHRec$[ebp], esp
  0007d	50		 push	 eax
  0007e	c6 45 fc 02	 mov	 BYTE PTR __$EHRec$[ebp+12], 2
  00082	e8 00 00 00 00	 call	 ??2@YAPAXI@Z		; operator new
  00087	89 45 08	 mov	 DWORD PTR __Ptr$[ebp], eax
  0008a	83 c4 04	 add	 esp, 4

; 1462 : 			_CATCH_END
; 1463 : 		_CATCH_END

  0008d	b8 00 00 00 00	 mov	 eax, $L208096
  00092	c3		 ret	 0
$L208096:
  00093	8b 5d e8	 mov	 ebx, DWORD PTR __Newres$[ebp]
  00096	8b 75 ec	 mov	 esi, DWORD PTR _this$[ebp]
  00099	8b 55 08	 mov	 edx, DWORD PTR __Ptr$[ebp]
$L185554:

; 1464 : 
; 1465 : 		if (0 < _Oldlen)

  0009c	8b 4d 0c	 mov	 ecx, DWORD PTR __Oldlen$[ebp]
  0009f	85 c9		 test	 ecx, ecx
  000a1	76 24		 jbe	 SHORT $L208021

; 1466 : 			_Traits::copy(_Ptr, _Myptr(), _Oldlen);	// copy existing elements

  000a3	83 7e 18 10	 cmp	 DWORD PTR [esi+24], 16	; 00000010H
  000a7	72 05		 jb	 SHORT $L208016
  000a9	8b 76 04	 mov	 esi, DWORD PTR [esi+4]
  000ac	eb 03		 jmp	 SHORT $L208017
$L208016:
  000ae	83 c6 04	 add	 esi, 4
$L208017:
  000b1	8b c1		 mov	 eax, ecx
  000b3	c1 e9 02	 shr	 ecx, 2
  000b6	8b fa		 mov	 edi, edx
  000b8	f3 a5		 rep movsd
  000ba	8b c8		 mov	 ecx, eax
  000bc	83 e1 03	 and	 ecx, 3
  000bf	f3 a4		 rep movsb
  000c1	8b 75 ec	 mov	 esi, DWORD PTR _this$[ebp]
  000c4	8b 4d 0c	 mov	 ecx, DWORD PTR __Oldlen$[ebp]
$L208021:

; 1467 : 		_Tidy(true);

  000c7	83 7e 18 10	 cmp	 DWORD PTR [esi+24], 16	; 00000010H
  000cb	72 12		 jb	 SHORT $L208063
  000cd	8b 4e 04	 mov	 ecx, DWORD PTR [esi+4]
  000d0	51		 push	 ecx
  000d1	e8 00 00 00 00	 call	 ??3@YAXPAX@Z		; operator delete
  000d6	8b 55 08	 mov	 edx, DWORD PTR __Ptr$[ebp]
  000d9	8b 4d 0c	 mov	 ecx, DWORD PTR __Oldlen$[ebp]
  000dc	83 c4 04	 add	 esp, 4
$L208063:

; 1468 : 		_Bx._Ptr = _Ptr;
; 1469 : 		_Myres = _Newres;
; 1470 : 		_Eos(_Oldlen);

  000df	83 fb 10	 cmp	 ebx, 16			; 00000010H
  000e2	8d 46 04	 lea	 eax, DWORD PTR [esi+4]
  000e5	c6 00 00	 mov	 BYTE PTR [eax], 0
  000e8	89 10		 mov	 DWORD PTR [eax], edx
  000ea	89 5e 18	 mov	 DWORD PTR [esi+24], ebx
  000ed	89 4e 14	 mov	 DWORD PTR [esi+20], ecx
  000f0	72 02		 jb	 SHORT $L208089
  000f2	8b c2		 mov	 eax, edx
$L208089:

; 1471 : 		}

  000f4	5f		 pop	 edi
  000f5	c6 04 08 00	 mov	 BYTE PTR [eax+ecx], 0
  000f9	8b 4d f4	 mov	 ecx, DWORD PTR __$EHRec$[ebp+4]
  000fc	5e		 pop	 esi
  000fd	64 89 0d 00 00
	00 00		 mov	 DWORD PTR fs:__except_list, ecx
  00104	5b		 pop	 ebx
  00105	8b e5		 mov	 esp, ebp
  00107	5d		 pop	 ebp
  00108	c2 08 00	 ret	 8
$L207903:

; 1459 : 			_CATCH_ALL
; 1460 : 			_Tidy(true);	// failed again, discard storage and reraise

  0010b	8b 75 ec	 mov	 esi, DWORD PTR _this$[ebp]
  0010e	83 7e 18 10	 cmp	 DWORD PTR [esi+24], 16	; 00000010H
  00112	72 0c		 jb	 SHORT $L208002
  00114	8b 56 04	 mov	 edx, DWORD PTR [esi+4]
  00117	52		 push	 edx
  00118	e8 00 00 00 00	 call	 ??3@YAXPAX@Z		; operator delete
  0011d	83 c4 04	 add	 esp, 4
$L208002:

; 1461 : 			_RERAISE;

  00120	6a 00		 push	 0
  00122	c7 46 18 0f 00
	00 00		 mov	 DWORD PTR [esi+24], 15	; 0000000fH
  00129	c7 46 14 00 00
	00 00		 mov	 DWORD PTR [esi+20], 0
  00130	6a 00		 push	 0
  00132	c6 46 04 00	 mov	 BYTE PTR [esi+4], 0
  00136	e8 00 00 00 00	 call	 __CxxThrowException@8
$L208099:
  0013b	cc		 int	 3
_TEXT	ENDS
;	COMDAT text$x
text$x	SEGMENT
__ehhandler$?_Copy@?$basic_string@DU?$char_traits@D@std@@V?$allocator@D@2@@std@@IAEXII@Z:
  00000	b8 00 00 00 00	 mov	 eax, OFFSET FLAT:$T208095
  00005	e9 00 00 00 00	 jmp	 ___CxxFrameHandler
text$x	ENDS
?_Copy@?$basic_string@DU?$char_traits@D@std@@V?$allocator@D@2@@std@@IAEXII@Z ENDP ; std::basic_string<char,std::char_traits<char>,std::allocator<char> >::_Copy
PUBLIC	?PostLordItems@CTElection@@AAEXK@Z		; CTElection::PostLordItems
EXTRN	?GetInstance@CPlayerDataCenter@@SAPAV1@XZ:NEAR	; CPlayerDataCenter::GetInstance
EXTRN	?GetPlayerData@CPlayerDataCenter@@QAEPAU_PlayerData@@K@Z:NEAR ; CPlayerDataCenter::GetPlayerData
;	COMDAT xdata$x
; File c:\program files\microsoft visual studio .net 2003\vc7\include\vector
xdata$x	SEGMENT
$T208188 DD	0ffffffffH
	DD	FLAT:$L208108
$T208183 DD	019930520H
	DD	01H
	DD	FLAT:$T208188
	DD	2 DUP(00H)
	DD	2 DUP(00H)
; Function compile flags: /Ogty
; File c:\documents and settings\test\mes documents\source\virtuos_v17\build\program\databaseserver\tlord.cpp
xdata$x	ENDS
;	COMDAT ?PostLordItems@CTElection@@AAEXK@Z
_TEXT	SEGMENT
_pi$204098 = -20					; size = 8
_Lock$203969 = -20					; size = 4
__$EHRec$ = -12						; size = 12
_idLord$ = 8						; size = 4
?PostLordItems@CTElection@@AAEXK@Z PROC NEAR		; CTElection::PostLordItems, COMDAT
; _this$ = ecx

; 493  : {	//    

  00000	64 a1 00 00 00
	00		 mov	 eax, DWORD PTR fs:__except_list
  00006	6a ff		 push	 -1
  00008	68 00 00 00 00	 push	 __ehhandler$?PostLordItems@CTElection@@AAEXK@Z
  0000d	50		 push	 eax
  0000e	64 89 25 00 00
	00 00		 mov	 DWORD PTR fs:__except_list, esp
  00015	83 ec 08	 sub	 esp, 8
  00018	55		 push	 ebp
  00019	57		 push	 edi

; 494  : 	if( idLord != NULL_ID )

  0001a	8b 7c 24 20	 mov	 edi, DWORD PTR _idLord$[esp+24]
  0001e	83 ff ff	 cmp	 edi, -1
  00021	8b e9		 mov	 ebp, ecx
  00023	0f 84 9c 00 00
	00		 je	 $L204097
  00029	53		 push	 ebx
  0002a	56		 push	 esi

; 495  : 	{
; 496  : 		BYTE iIndex		= SEX_MALE;

  0002b	32 db		 xor	 bl, bl

; 497  : 		{
; 498  : 			CMclAutoLock	Lock( CPlayerDataCenter::GetInstance()->m_Access );

  0002d	e8 00 00 00 00	 call	 ?GetInstance@CPlayerDataCenter@@SAPAV1@XZ ; CPlayerDataCenter::GetInstance
  00032	83 c0 1c	 add	 eax, 28			; 0000001cH
  00035	8d 70 04	 lea	 esi, DWORD PTR [eax+4]
  00038	56		 push	 esi
  00039	89 44 24 14	 mov	 DWORD PTR _Lock$203969[esp+40], eax
  0003d	ff 15 00 00 00
	00		 call	 DWORD PTR __imp__EnterCriticalSection@4

; 499  : 			PlayerData* pData	= CPlayerDataCenter::GetInstance()->GetPlayerData( idLord );

  00043	57		 push	 edi
  00044	c7 44 24 24 00
	00 00 00	 mov	 DWORD PTR __$EHRec$[esp+48], 0
  0004c	e8 00 00 00 00	 call	 ?GetInstance@CPlayerDataCenter@@SAPAV1@XZ ; CPlayerDataCenter::GetInstance
  00051	8b c8		 mov	 ecx, eax
  00053	e8 00 00 00 00	 call	 ?GetPlayerData@CPlayerDataCenter@@QAEPAU_PlayerData@@K@Z ; CPlayerDataCenter::GetPlayerData

; 500  : 			if( pData )

  00058	85 c0		 test	 eax, eax
  0005a	74 0a		 je	 SHORT $L203973

; 501  : 				iIndex	= pData->data.nSex;

  0005c	8a 58 02	 mov	 bl, BYTE PTR [eax+2]

; 502  : 			ASSERT( iIndex >= 0 && iIndex < 2 );
; 503  : 			if( iIndex < 0 || iIndex > 2 )

  0005f	80 fb 02	 cmp	 bl, 2
  00062	76 02		 jbe	 SHORT $L203973

; 504  : 				iIndex	= 0;

  00064	32 db		 xor	 bl, bl
$L203973:

; 505  : 		}

  00066	56		 push	 esi
  00067	c7 44 24 24 ff
	ff ff ff	 mov	 DWORD PTR __$EHRec$[esp+48], -1
  0006f	ff 15 00 00 00
	00		 call	 DWORD PTR __imp__LeaveCriticalSection@4

; 506  : 		for( vector<int>::iterator i = property.m_vItems[iIndex].begin(); i != property.m_vItems[iIndex].end(); ++i )

  00075	0f b6 c3	 movzx	 eax, bl
  00078	8d 48 05	 lea	 ecx, DWORD PTR [eax+5]
  0007b	c1 e0 04	 shl	 eax, 4
  0007e	c1 e1 04	 shl	 ecx, 4
  00081	8b 34 29	 mov	 esi, DWORD PTR [ecx+ebp]
  00084	8d 7c 28 54	 lea	 edi, DWORD PTR [eax+ebp+84]
  00088	3b 37		 cmp	 esi, DWORD PTR [edi]
  0008a	74 37		 je	 SHORT $L208187
  0008c	8d 64 24 00	 npad	 4
$L208145:

; 507  : 		{
; 508  : 			PostItemStruct pi;
; 509  : 			pi.nItem	= *i;

  00090	8b 16		 mov	 edx, DWORD PTR [esi]

; 510  : 			pi.dwKeepTime	= time( NULL ) + 1209600;	// 14

  00092	6a 00		 push	 0
  00094	89 54 24 14	 mov	 DWORD PTR _pi$204098[esp+40], edx
  00098	e8 00 00 00 00	 call	 _time

; 511  : 			PostItem( idLord, pi );

  0009d	8b 4c 24 2c	 mov	 ecx, DWORD PTR _idLord$[esp+36]
  000a1	05 00 75 12 00	 add	 eax, 1209600		; 00127500H
  000a6	83 c4 04	 add	 esp, 4
  000a9	89 44 24 14	 mov	 DWORD PTR _pi$204098[esp+40], eax
  000ad	8d 44 24 10	 lea	 eax, DWORD PTR _pi$204098[esp+36]
  000b1	50		 push	 eax
  000b2	51		 push	 ecx
  000b3	8b cd		 mov	 ecx, ebp
  000b5	e8 00 00 00 00	 call	 ?PostItem@CTElection@@AAEXKAAU_PostItemStruct@@@Z ; CTElection::PostItem
  000ba	8b 07		 mov	 eax, DWORD PTR [edi]
  000bc	83 c6 04	 add	 esi, 4
  000bf	3b f0		 cmp	 esi, eax
  000c1	75 cd		 jne	 SHORT $L208145
$L208187:
  000c3	5e		 pop	 esi
  000c4	5b		 pop	 ebx
$L204097:

; 512  : 		}
; 513  : 	}
; 514  : }

  000c5	8b 4c 24 10	 mov	 ecx, DWORD PTR __$EHRec$[esp+28]
  000c9	5f		 pop	 edi
  000ca	5d		 pop	 ebp
  000cb	64 89 0d 00 00
	00 00		 mov	 DWORD PTR fs:__except_list, ecx
  000d2	83 c4 14	 add	 esp, 20			; 00000014H
  000d5	c2 04 00	 ret	 4
_TEXT	ENDS
;	COMDAT text$x
text$x	SEGMENT
$L208108:
  00000	8d 4d ec	 lea	 ecx, DWORD PTR _Lock$203969[ebp]
  00003	e9 00 00 00 00	 jmp	 ??1CMclAutoLock@@QAE@XZ	; CMclAutoLock::~CMclAutoLock
__ehhandler$?PostLordItems@CTElection@@AAEXK@Z:
  00008	b8 00 00 00 00	 mov	 eax, OFFSET FLAT:$T208183
  0000d	e9 00 00 00 00	 jmp	 ___CxxFrameHandler
text$x	ENDS
?PostLordItems@CTElection@@AAEXK@Z ENDP			; CTElection::PostLordItems
PUBLIC	?DecrementAllComponentTick@CLEvent@@IAEHXZ	; CLEvent::DecrementAllComponentTick
EXTRN	?Decrement@CLEComponent@@QAEHXZ:NEAR		; CLEComponent::Decrement
; Function compile flags: /Ogty
;	COMDAT ?DecrementAllComponentTick@CLEvent@@IAEHXZ
_TEXT	SEGMENT
?DecrementAllComponentTick@CLEvent@@IAEHXZ PROC NEAR	; CLEvent::DecrementAllComponentTick, COMDAT
; _this$ = ecx

; 591  : {	//        

  00000	53		 push	 ebx
  00001	55		 push	 ebp
  00002	8b d9		 mov	 ebx, ecx

; 592  : 	//   0   TRUE 
; 593  : 	BOOL bExpired	= FALSE;
; 594  : 	for( VLEC::iterator i = m_vComponents.begin(); i != m_vComponents.end(); ++i )

  00004	8b 43 2c	 mov	 eax, DWORD PTR [ebx+44]
  00007	56		 push	 esi
  00008	8b 73 28	 mov	 esi, DWORD PTR [ebx+40]
  0000b	33 ed		 xor	 ebp, ebp
  0000d	3b f0		 cmp	 esi, eax
  0000f	74 46		 je	 SHORT $L208278
  00011	57		 push	 edi
$L208211:

; 595  : 	{
; 596  : 		if( ( *i )->Decrement() == 0 )

  00012	8b 0e		 mov	 ecx, DWORD PTR [esi]
  00014	e8 00 00 00 00	 call	 ?Decrement@CLEComponent@@QAEHXZ ; CLEComponent::Decrement
  00019	85 c0		 test	 eax, eax
  0001b	75 05		 jne	 SHORT $L204290

; 597  : 			bExpired	= TRUE;

  0001d	bd 01 00 00 00	 mov	 ebp, 1
$L204290:

; 598  : 		m_pLord->GetController()->UpdateLordEventTick( *i );

  00022	8b 4b 34	 mov	 ecx, DWORD PTR [ebx+52]
  00025	8b 01		 mov	 eax, DWORD PTR [ecx]
  00027	8b 3e		 mov	 edi, DWORD PTR [esi]
  00029	ff 50 08	 call	 DWORD PTR [eax+8]
  0002c	8b 4f 04	 mov	 ecx, DWORD PTR [edi+4]
  0002f	8b 57 08	 mov	 edx, DWORD PTR [edi+8]
  00032	51		 push	 ecx
  00033	8b 0d 00 00 00
	00		 mov	 ecx, DWORD PTR ?g_appInfo@@3UAppInfo@@A
  00039	52		 push	 edx
  0003a	8b 50 0c	 mov	 edx, DWORD PTR [eax+12]
  0003d	51		 push	 ecx
  0003e	68 00 00 00 00	 push	 OFFSET FLAT:??_C@_0BM@INGAOOO@uspLordEventTick?5?$CFd?0?5?$CFd?0?5?$CFd?$AA@
  00043	52		 push	 edx
  00044	e8 00 00 00 00	 call	 ?Execute@CQuery@@QAAHPBDZZ ; CQuery::Execute
  00049	8b 43 2c	 mov	 eax, DWORD PTR [ebx+44]
  0004c	83 c6 04	 add	 esi, 4
  0004f	83 c4 14	 add	 esp, 20			; 00000014H
  00052	3b f0		 cmp	 esi, eax
  00054	75 bc		 jne	 SHORT $L208211
  00056	5f		 pop	 edi
$L208278:
  00057	5e		 pop	 esi

; 599  : 	}
; 600  : 	return bExpired;

  00058	8b c5		 mov	 eax, ebp
  0005a	5d		 pop	 ebp
  0005b	5b		 pop	 ebx

; 601  : }

  0005c	c3		 ret	 0
?DecrementAllComponentTick@CLEvent@@IAEHXZ ENDP		; CLEvent::DecrementAllComponentTick
_TEXT	ENDS
PUBLIC	?OnTimer@CTLordSkill@@QAEXXZ			; CTLordSkill::OnTimer
EXTRN	?SendLordSkillTick@CDPTrans@@QAEXPAVCLordSkill@@@Z:NEAR ; CDPTrans::SendLordSkillTick
; Function compile flags: /Ogty
;	COMDAT ?OnTimer@CTLordSkill@@QAEXXZ
_TEXT	SEGMENT
?OnTimer@CTLordSkill@@QAEXXZ PROC NEAR			; CTLordSkill::OnTimer, COMDAT
; _this$ = ecx

; 774  : {	// 

  00000	53		 push	 ebx
  00001	56		 push	 esi
  00002	57		 push	 edi
  00003	8b f9		 mov	 edi, ecx

; 775  : 	CLController* pController	= m_pLord->GetController();

  00005	8b 4f 04	 mov	 ecx, DWORD PTR [edi+4]
  00008	8b 01		 mov	 eax, DWORD PTR [ecx]
  0000a	ff 50 08	 call	 DWORD PTR [eax+8]

; 776  : 	for( VLSC::iterator i = m_vComponents.begin(); i != m_vComponents.end(); ++i )

  0000d	8b 77 0c	 mov	 esi, DWORD PTR [edi+12]
  00010	8b d8		 mov	 ebx, eax
  00012	3b 77 10	 cmp	 esi, DWORD PTR [edi+16]
  00015	74 34		 je	 SHORT $L204584
$L208299:

; 777  : 	{
; 778  : 		CLordSkillComponentExecutable* pSkill	= *i ;

  00017	8b 06		 mov	 eax, DWORD PTR [esi]

; 779  : 		if( pSkill->GetTick() > 0 )

  00019	8b 48 0c	 mov	 ecx, DWORD PTR [eax+12]
  0001c	85 c9		 test	 ecx, ecx
  0001e	7e 21		 jle	 SHORT $L204583

; 780  : 		{
; 781  : 			//    
; 782  : 			pSkill->SetTick( pSkill->GetTick() - 1 );

  00020	49		 dec	 ecx

; 783  : 			// 
; 784  : 			pController->UpdateLordSkillTick( pSkill, pSkill->GetTick() );

  00021	51		 push	 ecx
  00022	89 48 0c	 mov	 DWORD PTR [eax+12], ecx
  00025	8b 48 04	 mov	 ecx, DWORD PTR [eax+4]
  00028	8b 15 00 00 00
	00		 mov	 edx, DWORD PTR ?g_appInfo@@3UAppInfo@@A
  0002e	8b 43 0c	 mov	 eax, DWORD PTR [ebx+12]
  00031	51		 push	 ecx
  00032	52		 push	 edx
  00033	68 00 00 00 00	 push	 OFFSET FLAT:??_C@_0BM@PHMEBJEL@uspLordSkillTick?5?$CFd?0?5?$CFd?0?5?$CFd?$AA@
  00038	50		 push	 eax
  00039	e8 00 00 00 00	 call	 ?Execute@CQuery@@QAAHPBDZZ ; CQuery::Execute
  0003e	83 c4 14	 add	 esp, 20			; 00000014H
$L204583:
  00041	8b 47 10	 mov	 eax, DWORD PTR [edi+16]
  00044	83 c6 04	 add	 esi, 4
  00047	3b f0		 cmp	 esi, eax
  00049	75 cc		 jne	 SHORT $L208299
$L204584:

; 785  : 		}
; 786  : 	}
; 787  : 	CDPTrans::GetInstance()->SendLordSkillTick( this );

  0004b	57		 push	 edi
  0004c	e8 00 00 00 00	 call	 ?GetInstance@CDPTrans@@SAPAV1@XZ ; CDPTrans::GetInstance
  00051	8b c8		 mov	 ecx, eax
  00053	e8 00 00 00 00	 call	 ?SendLordSkillTick@CDPTrans@@QAEXPAVCLordSkill@@@Z ; CDPTrans::SendLordSkillTick
  00058	5f		 pop	 edi
  00059	5e		 pop	 esi
  0005a	5b		 pop	 ebx

; 788  : }

  0005b	c3		 ret	 0
?OnTimer@CTLordSkill@@QAEXXZ ENDP			; CTLordSkill::OnTimer
_TEXT	ENDS
PUBLIC	??A?$vector@MV?$allocator@M@std@@@std@@QAEAAMI@Z ; std::vector<float,std::allocator<float> >::operator[]
; Function compile flags: /Ogty
; File c:\program files\microsoft visual studio .net 2003\vc7\include\vector
;	COMDAT ??A?$vector@MV?$allocator@M@std@@@std@@QAEAAMI@Z
_TEXT	SEGMENT
__Pos$ = 8						; size = 4
??A?$vector@MV?$allocator@M@std@@@std@@QAEAAMI@Z PROC NEAR ; std::vector<float,std::allocator<float> >::operator[], COMDAT
; _this$ = ecx

; 555  : 		return (*(begin() + _Pos));

  00000	8b 41 04	 mov	 eax, DWORD PTR [ecx+4]
  00003	8b 4c 24 04	 mov	 ecx, DWORD PTR __Pos$[esp-4]
  00007	8d 04 88	 lea	 eax, DWORD PTR [eax+ecx*4]

; 556  : 		}

  0000a	c2 04 00	 ret	 4
??A?$vector@MV?$allocator@M@std@@@std@@QAEAAMI@Z ENDP	; std::vector<float,std::allocator<float> >::operator[]
_TEXT	ENDS
PUBLIC	?_Ufill@?$vector@MV?$allocator@M@std@@@std@@IAEPAMPAMIABM@Z ; std::vector<float,std::allocator<float> >::_Ufill
; Function compile flags: /Ogty
;	COMDAT ?_Ufill@?$vector@MV?$allocator@M@std@@@std@@IAEPAMPAMIABM@Z
_TEXT	SEGMENT
__Ptr$ = 8						; size = 4
__Count$ = 12						; size = 4
__Val$ = 16						; size = 4
?_Ufill@?$vector@MV?$allocator@M@std@@@std@@IAEPAMPAMIABM@Z PROC NEAR ; std::vector<float,std::allocator<float> >::_Ufill, COMDAT
; _this$ = ecx

; 877  : 		{	// copy initializing _Count * _Val, using allocator

  00000	56		 push	 esi

; 878  : 		_Uninitialized_fill_n(_Ptr, _Count, _Val, this->_Alval);

  00001	8b 74 24 0c	 mov	 esi, DWORD PTR __Count$[esp]
  00005	85 f6		 test	 esi, esi
  00007	57		 push	 edi
  00008	8b 7c 24 0c	 mov	 edi, DWORD PTR __Ptr$[esp+4]
  0000c	8b c7		 mov	 eax, edi
  0000e	76 12		 jbe	 SHORT $L208441
  00010	8b 54 24 14	 mov	 edx, DWORD PTR __Val$[esp+4]
  00014	8b ce		 mov	 ecx, esi
  00016	53		 push	 ebx
$L208435:
  00017	8b 1a		 mov	 ebx, DWORD PTR [edx]
  00019	89 18		 mov	 DWORD PTR [eax], ebx
  0001b	83 c0 04	 add	 eax, 4
  0001e	49		 dec	 ecx
  0001f	75 f6		 jne	 SHORT $L208435
  00021	5b		 pop	 ebx
$L208441:

; 879  : 		return (_Ptr + _Count);

  00022	8d 04 b7	 lea	 eax, DWORD PTR [edi+esi*4]
  00025	5f		 pop	 edi
  00026	5e		 pop	 esi

; 880  : 		}

  00027	c2 0c 00	 ret	 12			; 0000000cH
?_Ufill@?$vector@MV?$allocator@M@std@@@std@@IAEPAMPAMIABM@Z ENDP ; std::vector<float,std::allocator<float> >::_Ufill
_TEXT	ENDS
PUBLIC	?_Ufill@?$vector@HV?$allocator@H@std@@@std@@IAEPAHPAHIABH@Z ; std::vector<int,std::allocator<int> >::_Ufill
; Function compile flags: /Ogty
;	COMDAT ?_Ufill@?$vector@HV?$allocator@H@std@@@std@@IAEPAHPAHIABH@Z
_TEXT	SEGMENT
__Ptr$ = 8						; size = 4
__Count$ = 12						; size = 4
__Val$ = 16						; size = 4
?_Ufill@?$vector@HV?$allocator@H@std@@@std@@IAEPAHPAHIABH@Z PROC NEAR ; std::vector<int,std::allocator<int> >::_Ufill, COMDAT
; _this$ = ecx

; 877  : 		{	// copy initializing _Count * _Val, using allocator

  00000	56		 push	 esi

; 878  : 		_Uninitialized_fill_n(_Ptr, _Count, _Val, this->_Alval);

  00001	8b 74 24 0c	 mov	 esi, DWORD PTR __Count$[esp]
  00005	85 f6		 test	 esi, esi
  00007	57		 push	 edi
  00008	8b 7c 24 0c	 mov	 edi, DWORD PTR __Ptr$[esp+4]
  0000c	8b c7		 mov	 eax, edi
  0000e	76 12		 jbe	 SHORT $L208481
  00010	8b 54 24 14	 mov	 edx, DWORD PTR __Val$[esp+4]
  00014	8b ce		 mov	 ecx, esi
  00016	53		 push	 ebx
$L208474:
  00017	8b 1a		 mov	 ebx, DWORD PTR [edx]
  00019	89 18		 mov	 DWORD PTR [eax], ebx
  0001b	83 c0 04	 add	 eax, 4
  0001e	49		 dec	 ecx
  0001f	75 f6		 jne	 SHORT $L208474
  00021	5b		 pop	 ebx
$L208481:

; 879  : 		return (_Ptr + _Count);

  00022	8d 04 b7	 lea	 eax, DWORD PTR [edi+esi*4]
  00025	5f		 pop	 edi
  00026	5e		 pop	 esi

; 880  : 		}

  00027	c2 0c 00	 ret	 12			; 0000000cH
?_Ufill@?$vector@HV?$allocator@H@std@@@std@@IAEPAHPAHIABH@Z ENDP ; std::vector<int,std::allocator<int> >::_Ufill
_TEXT	ENDS
PUBLIC	?GetBuffer@?$CSimpleStringT@D$0A@@ATL@@QAEPADH@Z ; ATL::CSimpleStringT<char,0>::GetBuffer
; Function compile flags: /Ogty
; File c:\program files\microsoft visual studio .net 2003\vc7\atlmfc\include\atlsimpstr.h
;	COMDAT ?GetBuffer@?$CSimpleStringT@D$0A@@ATL@@QAEPADH@Z
_TEXT	SEGMENT
_nMinBufferLength$ = 8					; size = 4
?GetBuffer@?$CSimpleStringT@D$0A@@ATL@@QAEPADH@Z PROC NEAR ; ATL::CSimpleStringT<char,0>::GetBuffer, COMDAT
; _this$ = ecx

; 489  : 	{

  00000	56		 push	 esi
  00001	8b f1		 mov	 esi, ecx

; 490  : 		return( PrepareWrite( nMinBufferLength ) );

  00003	8b 06		 mov	 eax, DWORD PTR [esi]
  00005	8b 50 fc	 mov	 edx, DWORD PTR [eax-4]
  00008	83 e8 10	 sub	 eax, 16			; 00000010H
  0000b	b9 01 00 00 00	 mov	 ecx, 1
  00010	2b ca		 sub	 ecx, edx
  00012	8b 50 08	 mov	 edx, DWORD PTR [eax+8]
  00015	8b 44 24 08	 mov	 eax, DWORD PTR _nMinBufferLength$[esp]
  00019	2b d0		 sub	 edx, eax
  0001b	0b ca		 or	 ecx, edx
  0001d	7d 08		 jge	 SHORT $L208497
  0001f	50		 push	 eax
  00020	8b ce		 mov	 ecx, esi
  00022	e8 00 00 00 00	 call	 ?PrepareWrite2@?$CSimpleStringT@D$0A@@ATL@@AAEXH@Z ; ATL::CSimpleStringT<char,0>::PrepareWrite2
$L208497:
  00027	8b 06		 mov	 eax, DWORD PTR [esi]
  00029	5e		 pop	 esi

; 491  : 	}

  0002a	c2 04 00	 ret	 4
?GetBuffer@?$CSimpleStringT@D$0A@@ATL@@QAEPADH@Z ENDP	; ATL::CSimpleStringT<char,0>::GetBuffer
_TEXT	ENDS
PUBLIC	??1?$basic_string@DU?$char_traits@D@std@@V?$allocator@D@2@@std@@QAE@XZ ; std::basic_string<char,std::char_traits<char>,std::allocator<char> >::~basic_string<char,std::char_traits<char>,std::allocator<char> >
; Function compile flags: /Ogty
; File c:\program files\microsoft visual studio .net 2003\vc7\include\xstring
;	COMDAT ??1?$basic_string@DU?$char_traits@D@std@@V?$allocator@D@2@@std@@QAE@XZ
_TEXT	SEGMENT
??1?$basic_string@DU?$char_traits@D@std@@V?$allocator@D@2@@std@@QAE@XZ PROC NEAR ; std::basic_string<char,std::char_traits<char>,std::allocator<char> >::~basic_string<char,std::char_traits<char>,std::allocator<char> >, COMDAT
; _this$ = ecx

; 456  : 		{	// destroy the string

  00000	56		 push	 esi
  00001	8b f1		 mov	 esi, ecx

; 457  : 		_Tidy(true);

  00003	83 7e 18 10	 cmp	 DWORD PTR [esi+24], 16	; 00000010H
  00007	72 0c		 jb	 SHORT $L208540
  00009	8b 46 04	 mov	 eax, DWORD PTR [esi+4]
  0000c	50		 push	 eax
  0000d	e8 00 00 00 00	 call	 ??3@YAXPAX@Z		; operator delete
  00012	83 c4 04	 add	 esp, 4
$L208540:
  00015	33 c0		 xor	 eax, eax
  00017	c7 46 18 0f 00
	00 00		 mov	 DWORD PTR [esi+24], 15	; 0000000fH
  0001e	89 46 14	 mov	 DWORD PTR [esi+20], eax
  00021	88 46 04	 mov	 BYTE PTR [esi+4], al
  00024	5e		 pop	 esi

; 458  : 		}

  00025	c3		 ret	 0
??1?$basic_string@DU?$char_traits@D@std@@V?$allocator@D@2@@std@@QAE@XZ ENDP ; std::basic_string<char,std::char_traits<char>,std::allocator<char> >::~basic_string<char,std::char_traits<char>,std::allocator<char> >
_TEXT	ENDS
PUBLIC	?LoadStringA@?$CStringT@DV?$StrTraitMFC@DV?$ChTraitsCRT@D@ATL@@@@@ATL@@QAEHPAUHINSTANCE__@@I@Z ; ATL::CStringT<char,StrTraitMFC<char,ATL::ChTraitsCRT<char> > >::LoadStringA
; Function compile flags: /Ogty
; File c:\program files\microsoft visual studio .net 2003\vc7\atlmfc\include\cstringt.h
;	COMDAT ?LoadStringA@?$CStringT@DV?$StrTraitMFC@DV?$ChTraitsCRT@D@ATL@@@@@ATL@@QAEHPAUHINSTANCE__@@I@Z
_TEXT	SEGMENT
_hInstance$ = 8						; size = 4
_nID$ = 12						; size = 4
?LoadStringA@?$CStringT@DV?$StrTraitMFC@DV?$ChTraitsCRT@D@ATL@@@@@ATL@@QAEHPAUHINSTANCE__@@I@Z PROC NEAR ; ATL::CStringT<char,StrTraitMFC<char,ATL::ChTraitsCRT<char> > >::LoadStringA, COMDAT
; _this$ = ecx

; 1981 : 	{

  00000	53		 push	 ebx
  00001	56		 push	 esi

; 1982 : 		const ATLSTRINGRESOURCEIMAGE* pImage = AtlGetStringResourceImage( hInstance, nID );

  00002	8b 74 24 10	 mov	 esi, DWORD PTR _nID$[esp+4]
  00006	8b c6		 mov	 eax, esi
  00008	c1 e8 04	 shr	 eax, 4
  0000b	57		 push	 edi
  0000c	8b 7c 24 10	 mov	 edi, DWORD PTR _hInstance$[esp+8]
  00010	40		 inc	 eax
  00011	8b d9		 mov	 ebx, ecx
  00013	0f b7 c8	 movzx	 ecx, ax
  00016	6a 06		 push	 6
  00018	51		 push	 ecx
  00019	57		 push	 edi
  0001a	ff 15 00 00 00
	00		 call	 DWORD PTR __imp__FindResourceA@12
  00020	85 c0		 test	 eax, eax
  00022	74 11		 je	 SHORT $L208628
  00024	56		 push	 esi
  00025	50		 push	 eax
  00026	57		 push	 edi
  00027	e8 00 00 00 00	 call	 ?_AtlGetStringResourceImage@ATL@@YAPBUATLSTRINGRESOURCEIMAGE@1@PAUHINSTANCE__@@PAUHRSRC__@@I@Z ; ATL::_AtlGetStringResourceImage
  0002c	8b f8		 mov	 edi, eax
  0002e	83 c4 0c	 add	 esp, 12			; 0000000cH

; 1983 : 		if( pImage == NULL )

  00031	85 ff		 test	 edi, edi
  00033	75 08		 jne	 SHORT $L184183
$L208628:
  00035	5f		 pop	 edi
  00036	5e		 pop	 esi

; 1984 : 		{
; 1985 : 			return( FALSE );

  00037	33 c0		 xor	 eax, eax
  00039	5b		 pop	 ebx

; 1994 : 	}

  0003a	c2 08 00	 ret	 8
$L184183:

; 1986 : 		}
; 1987 : 
; 1988 : 		int nLength = StringTraits::GetBaseTypeLength( pImage->achString, pImage->nLength );

  0003d	0f b7 37	 movzx	 esi, WORD PTR [edi]
  00040	55		 push	 ebp
  00041	ff 15 00 00 00
	00		 call	 DWORD PTR ?g_pfnGetThreadACP@ATL@@3P6GIXZA ; ATL::g_pfnGetThreadACP
  00047	6a 00		 push	 0
  00049	6a 00		 push	 0
  0004b	6a 00		 push	 0
  0004d	6a 00		 push	 0
  0004f	56		 push	 esi
  00050	8d 6f 02	 lea	 ebp, DWORD PTR [edi+2]
  00053	55		 push	 ebp
  00054	6a 00		 push	 0
  00056	50		 push	 eax
  00057	ff 15 00 00 00
	00		 call	 DWORD PTR __imp__WideCharToMultiByte@32
  0005d	8b f0		 mov	 esi, eax

; 1989 : 		PXSTR pszBuffer = GetBuffer( nLength );

  0005f	8b 03		 mov	 eax, DWORD PTR [ebx]
  00061	8b 48 fc	 mov	 ecx, DWORD PTR [eax-4]
  00064	83 e8 10	 sub	 eax, 16			; 00000010H
  00067	8b 40 08	 mov	 eax, DWORD PTR [eax+8]
  0006a	ba 01 00 00 00	 mov	 edx, 1
  0006f	2b d1		 sub	 edx, ecx
  00071	2b c6		 sub	 eax, esi
  00073	0b d0		 or	 edx, eax
  00075	7d 08		 jge	 SHORT $L208589
  00077	56		 push	 esi
  00078	8b cb		 mov	 ecx, ebx
  0007a	e8 00 00 00 00	 call	 ?PrepareWrite2@?$CSimpleStringT@D$0A@@ATL@@AAEXH@Z ; ATL::CSimpleStringT<char,0>::PrepareWrite2
$L208589:
  0007f	8b 03		 mov	 eax, DWORD PTR [ebx]

; 1990 : 		StringTraits::ConvertToBaseType( pszBuffer, nLength, pImage->achString, pImage->nLength );

  00081	0f b7 0f	 movzx	 ecx, WORD PTR [edi]
  00084	6a 00		 push	 0
  00086	6a 00		 push	 0
  00088	56		 push	 esi
  00089	50		 push	 eax
  0008a	51		 push	 ecx
  0008b	55		 push	 ebp
  0008c	6a 00		 push	 0
  0008e	ff 15 00 00 00
	00		 call	 DWORD PTR ?g_pfnGetThreadACP@ATL@@3P6GIXZA ; ATL::g_pfnGetThreadACP
  00094	50		 push	 eax
  00095	ff 15 00 00 00
	00		 call	 DWORD PTR __imp__WideCharToMultiByte@32

; 1991 : 		ReleaseBufferSetLength( nLength );

  0009b	85 f6		 test	 esi, esi
  0009d	5d		 pop	 ebp
  0009e	7c 1b		 jl	 SHORT $L208625
  000a0	8b 03		 mov	 eax, DWORD PTR [ebx]
  000a2	3b 70 f8	 cmp	 esi, DWORD PTR [eax-8]
  000a5	7f 14		 jg	 SHORT $L208625
  000a7	89 70 f4	 mov	 DWORD PTR [eax-12], esi
  000aa	8b 0b		 mov	 ecx, DWORD PTR [ebx]
  000ac	5f		 pop	 edi
  000ad	c6 04 0e 00	 mov	 BYTE PTR [esi+ecx], 0
  000b1	5e		 pop	 esi

; 1992 : 
; 1993 : 		return( TRUE );

  000b2	b8 01 00 00 00	 mov	 eax, 1
  000b7	5b		 pop	 ebx

; 1994 : 	}

  000b8	c2 08 00	 ret	 8
$L208625:
  000bb	68 57 00 07 80	 push	 -2147024809		; 80070057H
  000c0	e8 00 00 00 00	 call	 ?AtlThrow@ATL@@YGXJ@Z	; ATL::AtlThrow
$L208629:
  000c5	cc		 int	 3
?LoadStringA@?$CStringT@DV?$StrTraitMFC@DV?$ChTraitsCRT@D@ATL@@@@@ATL@@QAEHPAUHINSTANCE__@@I@Z ENDP ; ATL::CStringT<char,StrTraitMFC<char,ATL::ChTraitsCRT<char> > >::LoadStringA
_TEXT	ENDS
PUBLIC	?SetString@?$CSimpleStringT@D$0A@@ATL@@QAEXPBDH@Z ; ATL::CSimpleStringT<char,0>::SetString
; Function compile flags: /Ogty
; File c:\program files\microsoft visual studio .net 2003\vc7\atlmfc\include\atlsimpstr.h
;	COMDAT ?SetString@?$CSimpleStringT@D$0A@@ATL@@QAEXPBDH@Z
_TEXT	SEGMENT
_pszSrc$ = 8						; size = 4
_nLength$ = 12						; size = 4
?SetString@?$CSimpleStringT@D$0A@@ATL@@QAEXPBDH@Z PROC NEAR ; ATL::CSimpleStringT<char,0>::SetString, COMDAT
; _this$ = ecx

; 583  : 	{

  00000	53		 push	 ebx

; 584  : 		if( nLength == 0 )

  00001	8b 5c 24 0c	 mov	 ebx, DWORD PTR _nLength$[esp]
  00005	85 db		 test	 ebx, ebx
  00007	55		 push	 ebp
  00008	8b e9		 mov	 ebp, ecx
  0000a	75 0a		 jne	 SHORT $L184946

; 585  : 		{
; 586  : 			Empty();

  0000c	e8 00 00 00 00	 call	 ?Empty@?$CSimpleStringT@D$0A@@ATL@@QAEXXZ ; ATL::CSimpleStringT<char,0>::Empty
  00011	5d		 pop	 ebp
  00012	5b		 pop	 ebx

; 614  : 		}
; 615  : 	}

  00013	c2 08 00	 ret	 8
$L184946:

; 587  : 		}
; 588  : 		else
; 589  : 		{
; 590  : 			// It is possible that pszSrc points to a location inside of our 
; 591  : 			// buffer.  GetBuffer() might change m_pszData if (1) the buffer 
; 592  : 			// is shared or (2) the buffer is too small to hold the new 
; 593  : 			// string.  We detect this aliasing, and modify pszSrc to point
; 594  : 			// into the newly allocated buffer instead.
; 595  : 			
; 596  : 			if(pszSrc == NULL)

  00016	8b 54 24 0c	 mov	 edx, DWORD PTR _pszSrc$[esp+4]
  0001a	85 d2		 test	 edx, edx
  0001c	75 0a		 jne	 SHORT $L184948

; 612  : 			}
; 613  : 			ReleaseBufferSetLength( nLength );

$L208700:
  0001e	68 57 00 07 80	 push	 -2147024809		; 80070057H
  00023	e8 00 00 00 00	 call	 ?AtlThrow@ATL@@YGXJ@Z	; ATL::AtlThrow
$L184948:

; 597  : 				AtlThrow(E_INVALIDARG);			
; 598  : 				
; 599  : 			UINT nOldLength = GetLength();

  00028	8b 45 00	 mov	 eax, DWORD PTR [ebp]
  0002b	56		 push	 esi

; 600  : 			UINT_PTR nOffset = pszSrc-GetString();

  0002c	8b f2		 mov	 esi, edx
  0002e	2b f0		 sub	 esi, eax

; 601  : 			// If 0 <= nOffset <= nOldLength, then pszSrc points into our 
; 602  : 			// buffer
; 603  : 
; 604  : 			PXSTR pszBuffer = GetBuffer( nLength );

  00030	b9 01 00 00 00	 mov	 ecx, 1
  00035	2b 48 fc	 sub	 ecx, DWORD PTR [eax-4]
  00038	57		 push	 edi
  00039	8b 78 f4	 mov	 edi, DWORD PTR [eax-12]
  0003c	8b 40 f8	 mov	 eax, DWORD PTR [eax-8]
  0003f	2b c3		 sub	 eax, ebx
  00041	0b c8		 or	 ecx, eax
  00043	7d 0c		 jge	 SHORT $L208667
  00045	53		 push	 ebx
  00046	8b cd		 mov	 ecx, ebp
  00048	e8 00 00 00 00	 call	 ?PrepareWrite2@?$CSimpleStringT@D$0A@@ATL@@AAEXH@Z ; ATL::CSimpleStringT<char,0>::PrepareWrite2
  0004d	8b 54 24 14	 mov	 edx, DWORD PTR _pszSrc$[esp+12]
$L208667:

; 605  : 			if( nOffset <= nOldLength )

  00051	3b f7		 cmp	 esi, edi
  00053	8b 45 00	 mov	 eax, DWORD PTR [ebp]
  00056	77 10		 ja	 SHORT $L184953

; 606  : 			{
; 607  : 				CopyCharsOverlapped( pszBuffer, pszBuffer+nOffset, nLength );

  00058	53		 push	 ebx
  00059	8d 0c 30	 lea	 ecx, DWORD PTR [eax+esi]
  0005c	51		 push	 ecx
  0005d	50		 push	 eax
  0005e	e8 00 00 00 00	 call	 _memmove
  00063	83 c4 0c	 add	 esp, 12			; 0000000cH

; 608  : 			}
; 609  : 			else

  00066	eb 14		 jmp	 SHORT $L208673
$L184953:

; 610  : 			{
; 611  : 				CopyChars( pszBuffer, pszSrc, nLength );

  00068	8b cb		 mov	 ecx, ebx
  0006a	8b f2		 mov	 esi, edx
  0006c	8b d1		 mov	 edx, ecx
  0006e	c1 e9 02	 shr	 ecx, 2
  00071	8b f8		 mov	 edi, eax
  00073	f3 a5		 rep movsd
  00075	8b ca		 mov	 ecx, edx
  00077	83 e1 03	 and	 ecx, 3
  0007a	f3 a4		 rep movsb
$L208673:

; 612  : 			}
; 613  : 			ReleaseBufferSetLength( nLength );

  0007c	85 db		 test	 ebx, ebx
  0007e	5f		 pop	 edi
  0007f	5e		 pop	 esi
  00080	7c 9c		 jl	 SHORT $L208700
  00082	8b 45 00	 mov	 eax, DWORD PTR [ebp]
  00085	3b 58 f8	 cmp	 ebx, DWORD PTR [eax-8]
  00088	7f 94		 jg	 SHORT $L208700
  0008a	89 58 f4	 mov	 DWORD PTR [eax-12], ebx
  0008d	8b 45 00	 mov	 eax, DWORD PTR [ebp]
  00090	5d		 pop	 ebp
  00091	c6 04 03 00	 mov	 BYTE PTR [ebx+eax], 0
  00095	5b		 pop	 ebx

; 614  : 		}
; 615  : 	}

  00096	c2 08 00	 ret	 8
$L208703:
?SetString@?$CSimpleStringT@D$0A@@ATL@@QAEXPBDH@Z ENDP	; ATL::CSimpleStringT<char,0>::SetString
_TEXT	ENDS
PUBLIC	?_Grow@?$basic_string@DU?$char_traits@D@std@@V?$allocator@D@2@@std@@IAE_NI_N@Z ; std::basic_string<char,std::char_traits<char>,std::allocator<char> >::_Grow
EXTRN	?_Xlen@_String_base@std@@QBEXXZ:NEAR		; std::_String_base::_Xlen
; Function compile flags: /Ogty
; File c:\program files\microsoft visual studio .net 2003\vc7\include\xstring
;	COMDAT ?_Grow@?$basic_string@DU?$char_traits@D@std@@V?$allocator@D@2@@std@@IAE_NI_N@Z
_TEXT	SEGMENT
__Newsize$ = 8						; size = 4
__Trim$ = 12						; size = 1
?_Grow@?$basic_string@DU?$char_traits@D@std@@V?$allocator@D@2@@std@@IAE_NI_N@Z PROC NEAR ; std::basic_string<char,std::char_traits<char>,std::allocator<char> >::_Grow, COMDAT
; _this$ = ecx

; 1480 : 		{	// ensure buffer is big enough, trim to size if _Trim is true

  00000	55		 push	 ebp
  00001	56		 push	 esi

; 1481 : 		if (max_size() < _Newsize)

  00002	8b 74 24 0c	 mov	 esi, DWORD PTR __Newsize$[esp+4]
  00006	83 fe fe	 cmp	 esi, -2			; fffffffeH
  00009	8b e9		 mov	 ebp, ecx
  0000b	76 05		 jbe	 SHORT $L185002

; 1482 : 			_String_base::_Xlen();	// result too long

  0000d	e8 00 00 00 00	 call	 ?_Xlen@_String_base@std@@QBEXXZ ; std::_String_base::_Xlen
$L185002:

; 1483 : 		if (_Myres < _Newsize)

  00012	8b 45 18	 mov	 eax, DWORD PTR [ebp+24]
  00015	3b c6		 cmp	 eax, esi
  00017	73 19		 jae	 SHORT $L185003

; 1484 : 			_Copy(_Newsize, _Mysize);	// reallocate to grow

  00019	8b 45 14	 mov	 eax, DWORD PTR [ebp+20]
  0001c	50		 push	 eax
  0001d	56		 push	 esi
  0001e	8b cd		 mov	 ecx, ebp
  00020	e8 00 00 00 00	 call	 ?_Copy@?$basic_string@DU?$char_traits@D@std@@V?$allocator@D@2@@std@@IAEXII@Z ; std::basic_string<char,std::char_traits<char>,std::allocator<char> >::_Copy

; 1490 : 		return (0 < _Newsize);	// return true only if more work to do

  00025	33 c0		 xor	 eax, eax
  00027	3b c6		 cmp	 eax, esi
  00029	1b c0		 sbb	 eax, eax
  0002b	5e		 pop	 esi
  0002c	f7 d8		 neg	 eax
  0002e	5d		 pop	 ebp

; 1491 : 		}

  0002f	c2 08 00	 ret	 8
$L185003:

; 1485 : 		else if (_Trim && _Newsize < _BUF_SIZE)

  00032	8a 4c 24 10	 mov	 cl, BYTE PTR __Trim$[esp+4]
  00036	84 c9		 test	 cl, cl
  00038	74 5c		 je	 SHORT $L185005
  0003a	83 fe 10	 cmp	 esi, 16			; 00000010H
  0003d	73 57		 jae	 SHORT $L185005
  0003f	53		 push	 ebx

; 1486 : 			_Tidy(true,	// copy and deallocate if trimming to small string
; 1487 : 				_Newsize < _Mysize ? _Newsize : _Mysize);

  00040	8b 5d 14	 mov	 ebx, DWORD PTR [ebp+20]
  00043	3b f3		 cmp	 esi, ebx
  00045	73 02		 jae	 SHORT $L208707
  00047	8b de		 mov	 ebx, esi
$L208707:
  00049	83 f8 10	 cmp	 eax, 16			; 00000010H
  0004c	72 2b		 jb	 SHORT $L208767
  0004e	85 db		 test	 ebx, ebx
  00050	8b 45 04	 mov	 eax, DWORD PTR [ebp+4]
  00053	57		 push	 edi
  00054	8d 7d 04	 lea	 edi, DWORD PTR [ebp+4]
  00057	76 16		 jbe	 SHORT $L208766
  00059	8b cb		 mov	 ecx, ebx
  0005b	8b d1		 mov	 edx, ecx
  0005d	c1 e9 02	 shr	 ecx, 2
  00060	8b f0		 mov	 esi, eax
  00062	f3 a5		 rep movsd
  00064	8b ca		 mov	 ecx, edx
  00066	83 e1 03	 and	 ecx, 3
  00069	f3 a4		 rep movsb
  0006b	8b 74 24 14	 mov	 esi, DWORD PTR __Newsize$[esp+12]
$L208766:
  0006f	50		 push	 eax
  00070	e8 00 00 00 00	 call	 ??3@YAXPAX@Z		; operator delete
  00075	83 c4 04	 add	 esp, 4
  00078	5f		 pop	 edi
$L208767:
  00079	89 5d 14	 mov	 DWORD PTR [ebp+20], ebx

; 1490 : 		return (0 < _Newsize);	// return true only if more work to do

  0007c	33 c0		 xor	 eax, eax
  0007e	c7 45 18 0f 00
	00 00		 mov	 DWORD PTR [ebp+24], 15	; 0000000fH
  00085	c6 44 2b 04 00	 mov	 BYTE PTR [ebx+ebp+4], 0
  0008a	3b c6		 cmp	 eax, esi
  0008c	5b		 pop	 ebx
  0008d	1b c0		 sbb	 eax, eax
  0008f	5e		 pop	 esi
  00090	f7 d8		 neg	 eax
  00092	5d		 pop	 ebp

; 1491 : 		}

  00093	c2 08 00	 ret	 8
$L185005:

; 1488 : 		else if (_Newsize == 0)

  00096	85 f6		 test	 esi, esi
  00098	75 23		 jne	 SHORT $L208799

; 1489 : 			_Eos(0);	// new size is zero, just null terminate

  0009a	83 f8 10	 cmp	 eax, 16			; 00000010H
  0009d	89 75 14	 mov	 DWORD PTR [ebp+20], esi
  000a0	72 14		 jb	 SHORT $L208796
  000a2	8b 6d 04	 mov	 ebp, DWORD PTR [ebp+4]

; 1490 : 		return (0 < _Newsize);	// return true only if more work to do

  000a5	33 c0		 xor	 eax, eax
  000a7	3b c6		 cmp	 eax, esi
  000a9	1b c0		 sbb	 eax, eax
  000ab	5e		 pop	 esi
  000ac	c6 45 00 00	 mov	 BYTE PTR [ebp], 0
  000b0	f7 d8		 neg	 eax
  000b2	5d		 pop	 ebp

; 1491 : 		}

  000b3	c2 08 00	 ret	 8

; 1489 : 			_Eos(0);	// new size is zero, just null terminate

$L208796:
  000b6	83 c5 04	 add	 ebp, 4
  000b9	c6 45 00 00	 mov	 BYTE PTR [ebp], 0
$L208799:

; 1490 : 		return (0 < _Newsize);	// return true only if more work to do

  000bd	33 c0		 xor	 eax, eax
  000bf	3b c6		 cmp	 eax, esi
  000c1	1b c0		 sbb	 eax, eax
  000c3	5e		 pop	 esi
  000c4	f7 d8		 neg	 eax
  000c6	5d		 pop	 ebp

; 1491 : 		}

  000c7	c2 08 00	 ret	 8
?_Grow@?$basic_string@DU?$char_traits@D@std@@V?$allocator@D@2@@std@@IAE_NI_N@Z ENDP ; std::basic_string<char,std::char_traits<char>,std::allocator<char> >::_Grow
_TEXT	ENDS
PUBLIC	?GetRetRate@CTElection@@QAEMK@Z			; CTElection::GetRetRate
PUBLIC	__real@00000000
EXTRN	?GetOrder@IElection@@QAEHK@Z:NEAR		; IElection::GetOrder
;	COMDAT __real@00000000
; File c:\program files\microsoft visual studio .net 2003\vc7\include\vector
CONST	SEGMENT
__real@00000000 DD 000000000r			; 0
; Function compile flags: /Ogty
; File c:\documents and settings\test\mes documents\source\virtuos_v17\build\program\databaseserver\tlord.cpp
CONST	ENDS
;	COMDAT ?GetRetRate@CTElection@@QAEMK@Z
_TEXT	SEGMENT
_idPlayer$ = 8						; size = 4
?GetRetRate@CTElection@@QAEMK@Z PROC NEAR		; CTElection::GetRetRate, COMDAT
; _this$ = ecx

; 334  : 	int nOrder	= GetOrder( idPlayer );

  00000	8b 44 24 04	 mov	 eax, DWORD PTR _idPlayer$[esp-4]
  00004	56		 push	 esi
  00005	50		 push	 eax
  00006	8b f1		 mov	 esi, ecx
  00008	e8 00 00 00 00	 call	 ?GetOrder@IElection@@QAEHK@Z ; IElection::GetOrder

; 335  : 	nOrder	= min( nOrder, IElection::nMaxCandidates );

  0000d	83 f8 0a	 cmp	 eax, 10			; 0000000aH
  00010	7c 12		 jl	 SHORT $L208804
  00012	b8 0a 00 00 00	 mov	 eax, 10			; 0000000aH
$L203722:

; 338  : 	return property.m_vReturnDepositRates[nOrder];

  00017	8b 4e 40	 mov	 ecx, DWORD PTR [esi+64]
  0001a	d9 04 81	 fld	 DWORD PTR [ecx+eax*4]
  0001d	8d 04 81	 lea	 eax, DWORD PTR [ecx+eax*4]
  00020	5e		 pop	 esi

; 339  : }

  00021	c2 04 00	 ret	 4
$L208804:

; 336  : 	if( nOrder < 0 )

  00024	85 c0		 test	 eax, eax
  00026	7d ef		 jge	 SHORT $L203722

; 337  : 		return 0.0F;

  00028	d9 05 00 00 00
	00		 fld	 DWORD PTR __real@00000000
  0002e	5e		 pop	 esi

; 339  : }

  0002f	c2 04 00	 ret	 4
?GetRetRate@CTElection@@QAEMK@Z ENDP			; CTElection::GetRetRate
_TEXT	ENDS
PUBLIC	__real@42c80000
PUBLIC	??RPostDeposit@@QBEXABV?$shared_ptr@VCCandidate@@@boost@@@Z ; PostDeposit::operator()
PUBLIC	??_C@_0BP@DDPAGKOB@uspElectionLeaveOut?5?$CFd?0?5?$CFd?0?5?$CFd?$AA@ ; `string'
PUBLIC	??_C@_0CF@DMMBMGJN@couldn?8t?5execute?5uspElectionLeav@ ; `string'
EXTRN	__alldiv:NEAR
EXTRN	__imp__lstrcpyA@8:NEAR
;	COMDAT xdata$x
; File c:\documents and settings\test\mes documents\source\virtuos_v17\build\program\_network\objects\obj.h
xdata$x	SEGMENT
$T209112 DD	0ffffffffH
	DD	FLAT:$L208872
	DD	0ffffffffH
	DD	FLAT:$L208873
$T209100 DD	019930520H
	DD	02H
	DD	FLAT:$T209112
	DD	2 DUP(00H)
	DD	2 DUP(00H)
xdata$x	ENDS
;	COMDAT __real@42c80000
CONST	SEGMENT
__real@42c80000 DD 042c80000r			; 100
CONST	ENDS
;	COMDAT ??_C@_0BP@DDPAGKOB@uspElectionLeaveOut?5?$CFd?0?5?$CFd?0?5?$CFd?$AA@
CONST	SEGMENT
??_C@_0BP@DDPAGKOB@uspElectionLeaveOut?5?$CFd?0?5?$CFd?0?5?$CFd?$AA@ DB 'u'
	DB	'spElectionLeaveOut %d, %d, %d', 00H		; `string'
CONST	ENDS
;	COMDAT ??_C@_0CF@DMMBMGJN@couldn?8t?5execute?5uspElectionLeav@
CONST	SEGMENT
??_C@_0CF@DMMBMGJN@couldn?8t?5execute?5uspElectionLeav@ DB 'couldn''t exe'
	DB	'cute uspElectionLeaveOut', 00H		; `string'
; Function compile flags: /Ogty
; File c:\documents and settings\test\mes documents\source\virtuos_v17\build\program\databaseserver\tlord.cpp
CONST	ENDS
;	COMDAT ??RPostDeposit@@QBEXABV?$shared_ptr@VCCandidate@@@boost@@@Z
_TEXT	SEGMENT
_idReceiver$ = -32					; size = 4
_this$ = -28						; size = 4
_nOrder$ = -24						; size = 4
$T208865 = -24						; size = 4
tv682 = -20						; size = 8
_iDeposit$ = -20					; size = 8
__$EHRec$ = -12						; size = 12
tv375 = 8						; size = 4
$T208869 = 8						; size = 4
_lhs$ = 8						; size = 4
??RPostDeposit@@QBEXABV?$shared_ptr@VCCandidate@@@boost@@@Z PROC NEAR ; PostDeposit::operator(), COMDAT
; _this$ = ecx

; 353  : {	//    

  00000	6a ff		 push	 -1
  00002	68 00 00 00 00	 push	 __ehhandler$??RPostDeposit@@QBEXABV?$shared_ptr@VCCandidate@@@boost@@@Z
  00007	64 a1 00 00 00
	00		 mov	 eax, DWORD PTR fs:__except_list
  0000d	50		 push	 eax
  0000e	64 89 25 00 00
	00 00		 mov	 DWORD PTR fs:__except_list, esp
  00015	83 ec 14	 sub	 esp, 20			; 00000014H
  00018	53		 push	 ebx

; 354  : 	u_long idReceiver	= lhs->GetIdPlayer();

  00019	8b 5c 24 28	 mov	 ebx, DWORD PTR _lhs$[esp+32]
  0001d	8b 03		 mov	 eax, DWORD PTR [ebx]
  0001f	56		 push	 esi
  00020	8b 30		 mov	 esi, DWORD PTR [eax]
  00022	57		 push	 edi
  00023	89 4c 24 10	 mov	 DWORD PTR _this$[esp+44], ecx
  00027	89 74 24 0c	 mov	 DWORD PTR _idReceiver$[esp+44], esi

; 355  : 	CTElection* pElection	= static_cast<CTElection*>( CTLord::Instance()->GetElection() );

  0002b	e8 00 00 00 00	 call	 ?Instance@CTLord@@SAPAV1@XZ ; CTLord::Instance
  00030	8b 78 08	 mov	 edi, DWORD PTR [eax+8]

; 356  : 
; 357  : 	//     
; 358  : 	float fRate		= pElection->GetRetRate( idReceiver );

  00033	56		 push	 esi
  00034	8b cf		 mov	 ecx, edi
  00036	e8 00 00 00 00	 call	 ?GetOrder@IElection@@QAEHK@Z ; IElection::GetOrder
  0003b	83 f8 0a	 cmp	 eax, 10			; 0000000aH
  0003e	7c 07		 jl	 SHORT $L208967
  00040	b8 0a 00 00 00	 mov	 eax, 10			; 0000000aH
  00045	eb 08		 jmp	 SHORT $L208964
$L208967:
  00047	85 c0		 test	 eax, eax
  00049	0f 8c da 02 00
	00		 jl	 $L203734
$L208964:
  0004f	8b 4f 40	 mov	 ecx, DWORD PTR [edi+64]
  00052	d9 04 81	 fld	 DWORD PTR [ecx+eax*4]

; 359  : 	if( fRate == 0.0F )

  00055	d9 05 00 00 00
	00		 fld	 DWORD PTR __real@00000000
  0005b	d9 c1		 fld	 ST(1)
  0005d	da e9		 fucompp
  0005f	df e0		 fnstsw	 ax
  00061	f6 c4 44	 test	 ah, 68			; 00000044H
  00064	0f 8b bd 02 00
	00		 jnp	 $L209108

; 360  : 		return;
; 361  : 	// 2008/10/31 -     - 
; 362  : //	__int64 iDeposit	= lhs->GetDeposit() * fRate;
; 363  : 	__int64 iDeposit	= (__int64)( lhs->GetDeposit() / 100 * ( fRate * 100 ) );

  0006a	8b 03		 mov	 eax, DWORD PTR [ebx]
  0006c	d8 0d 00 00 00
	00		 fmul	 DWORD PTR __real@42c80000
  00072	8b 48 08	 mov	 ecx, DWORD PTR [eax+8]
  00075	8b 40 0c	 mov	 eax, DWORD PTR [eax+12]
  00078	55		 push	 ebp
  00079	d9 5c 24 34	 fstp	 DWORD PTR tv375[esp+44]
  0007d	33 f6		 xor	 esi, esi
  0007f	56		 push	 esi
  00080	6a 64		 push	 100			; 00000064H
  00082	50		 push	 eax
  00083	51		 push	 ecx
  00084	e8 00 00 00 00	 call	 __alldiv
  00089	89 44 24 1c	 mov	 DWORD PTR tv682[esp+48], eax
  0008d	89 54 24 20	 mov	 DWORD PTR tv682[esp+52], edx
  00091	df 6c 24 1c	 fild	 QWORD PTR tv682[esp+48]
  00095	d8 4c 24 34	 fmul	 DWORD PTR tv375[esp+44]
  00099	e8 00 00 00 00	 call	 __ftol2

; 364  : 
; 365  : 	//      
; 366  : 	CMail* pMail	= new CMail;

  0009e	68 40 01 00 00	 push	 320			; 00000140H
  000a3	8b e8		 mov	 ebp, eax
  000a5	89 54 24 24	 mov	 DWORD PTR _iDeposit$[esp+56], edx
  000a9	e8 00 00 00 00	 call	 ??2@YAPAXI@Z		; operator new
  000ae	83 c4 04	 add	 esp, 4
  000b1	89 44 24 18	 mov	 DWORD PTR $T208865[esp+48], eax
  000b5	3b c6		 cmp	 eax, esi
  000b7	89 74 24 2c	 mov	 DWORD PTR __$EHRec$[esp+56], esi
  000bb	74 09		 je	 SHORT $L208867
  000bd	8b c8		 mov	 ecx, eax
  000bf	e8 00 00 00 00	 call	 ??0CMail@@QAE@XZ	; CMail::CMail
  000c4	8b f0		 mov	 esi, eax
$L208867:

; 367  : 	pMail->m_tmCreate	= ::time_null();

  000c6	6a 00		 push	 0
  000c8	c7 44 24 30 ff
	ff ff ff	 mov	 DWORD PTR __$EHRec$[esp+60], -1
  000d0	e8 00 00 00 00	 call	 _time
  000d5	89 46 14	 mov	 DWORD PTR [esi+20], eax

; 368  : 	pMail->m_idSender	= 0;	//
; 369  : 
; 370  : 	int nOrder	= pElection->GetOrder( idReceiver );

  000d8	8b 44 24 14	 mov	 eax, DWORD PTR _idReceiver$[esp+52]
  000dc	83 c4 04	 add	 esp, 4
  000df	50		 push	 eax
  000e0	8b cf		 mov	 ecx, edi
  000e2	c7 46 08 00 00
	00 00		 mov	 DWORD PTR [esi+8], 0
  000e9	e8 00 00 00 00	 call	 ?GetOrder@IElection@@QAEHK@Z ; IElection::GetOrder

; 371  : 
; 372  : 	if( nOrder < IElection::nMaxCandidates )

  000ee	83 f8 0a	 cmp	 eax, 10			; 0000000aH

; 373  : 	{
; 374  : 		lstrcpy( pMail->m_szTitle, prj.GetText( TID_GAME_ELECTION_RETURN_DEPOSIT_MAIL_TITLE_02 ) );	// title

  000f1	8b 0d 7c 00 00
	00		 mov	 ecx, DWORD PTR ?prj@@3VCProject@@A+124
  000f7	89 44 24 18	 mov	 DWORD PTR _nOrder$[esp+48], eax
  000fb	0f 8d aa 00 00
	00		 jge	 $L203748
  00101	81 f9 9c 0e 00
	00		 cmp	 ecx, 3740		; 00000e9cH
  00107	76 0f		 jbe	 SHORT $L209109
  00109	a1 6c 00 00 00	 mov	 eax, DWORD PTR ?prj@@3VCProject@@A+108
  0010e	8b 90 70 3a 00
	00		 mov	 edx, DWORD PTR [eax+14960]
  00114	85 d2		 test	 edx, edx
  00116	75 07		 jne	 SHORT $L208993
$L209109:
  00118	b8 00 00 00 00	 mov	 eax, OFFSET FLAT:??_C@_00CNPNBAHC@?$AA@
  0011d	eb 15		 jmp	 SHORT $L208992
$L208993:
  0011f	81 f9 9c 0e 00
	00		 cmp	 ecx, 3740		; 00000e9cH
  00125	77 04		 ja	 SHORT $L209000
  00127	33 c0		 xor	 eax, eax
  00129	eb 06		 jmp	 SHORT $L208999
$L209000:
  0012b	8b 80 70 3a 00
	00		 mov	 eax, DWORD PTR [eax+14960]
$L208999:
  00131	8b 40 04	 mov	 eax, DWORD PTR [eax+4]
$L208992:
  00134	50		 push	 eax
  00135	8d 4e 19	 lea	 ecx, DWORD PTR [esi+25]
  00138	51		 push	 ecx
  00139	ff 15 00 00 00
	00		 call	 DWORD PTR __imp__lstrcpyA@8

; 375  : 		sprintf( pMail->m_szText, prj.GetText( TID_GAME_ELECTION_RETURN_DEPOSIT_MAIL_TEXT_02 ),
; 376  : 			static_cast<__int64>( lhs->GetDeposit() ),
; 377  : 			nOrder + 1,
; 378  : 			static_cast<float>( fRate * 100.0F ),
; 379  : 			static_cast<__int64>( iDeposit ) );

  0013f	8b 03		 mov	 eax, DWORD PTR [ebx]
  00141	8b 0d 7c 00 00
	00		 mov	 ecx, DWORD PTR ?prj@@3VCProject@@A+124
  00147	81 f9 9d 0e 00
	00		 cmp	 ecx, 3741		; 00000e9dH
  0014d	8b 50 08	 mov	 edx, DWORD PTR [eax+8]
  00150	8b 40 0c	 mov	 eax, DWORD PTR [eax+12]
  00153	76 10		 jbe	 SHORT $L209102
  00155	8b 3d 6c 00 00
	00		 mov	 edi, DWORD PTR ?prj@@3VCProject@@A+108
  0015b	8b 9f 74 3a 00
	00		 mov	 ebx, DWORD PTR [edi+14964]
  00161	85 db		 test	 ebx, ebx
  00163	75 07		 jne	 SHORT $L209024
$L209102:
  00165	b9 00 00 00 00	 mov	 ecx, OFFSET FLAT:??_C@_00CNPNBAHC@?$AA@
  0016a	eb 15		 jmp	 SHORT $L209023
$L209024:
  0016c	81 f9 9d 0e 00
	00		 cmp	 ecx, 3741		; 00000e9dH
  00172	77 04		 ja	 SHORT $L209031
  00174	33 c9		 xor	 ecx, ecx
  00176	eb 06		 jmp	 SHORT $L209030
$L209031:
  00178	8b 8f 74 3a 00
	00		 mov	 ecx, DWORD PTR [edi+14964]
$L209030:
  0017e	8b 49 04	 mov	 ecx, DWORD PTR [ecx+4]
$L209023:
  00181	8b 7c 24 20	 mov	 edi, DWORD PTR _iDeposit$[esp+52]
  00185	d9 44 24 34	 fld	 DWORD PTR tv375[esp+44]
  00189	57		 push	 edi
  0018a	8b 7c 24 1c	 mov	 edi, DWORD PTR _nOrder$[esp+52]
  0018e	55		 push	 ebp
  0018f	83 ec 08	 sub	 esp, 8
  00192	dd 1c 24	 fstp	 QWORD PTR [esp]
  00195	47		 inc	 edi
  00196	57		 push	 edi
  00197	50		 push	 eax
  00198	52		 push	 edx
  00199	51		 push	 ecx
  0019a	8d 56 39	 lea	 edx, DWORD PTR [esi+57]
  0019d	52		 push	 edx
  0019e	e8 00 00 00 00	 call	 _sprintf
  001a3	83 c4 24	 add	 esp, 36			; 00000024H

; 380  : 	}
; 381  : 	else

  001a6	e9 cf 00 00 00	 jmp	 $L209110
$L203748:

; 382  : 	{
; 383  : 		lstrcpy( pMail->m_szTitle, prj.GetText( TID_GAME_ELECTION_RETURN_DEPOSIT_MAIL_TITLE_01 ) );	// title

  001ab	81 f9 98 0e 00
	00		 cmp	 ecx, 3736		; 00000e98H
  001b1	76 0f		 jbe	 SHORT $L209103
  001b3	a1 6c 00 00 00	 mov	 eax, DWORD PTR ?prj@@3VCProject@@A+108
  001b8	8b 90 60 3a 00
	00		 mov	 edx, DWORD PTR [eax+14944]
  001be	85 d2		 test	 edx, edx
  001c0	75 07		 jne	 SHORT $L209047
$L209103:
  001c2	b8 00 00 00 00	 mov	 eax, OFFSET FLAT:??_C@_00CNPNBAHC@?$AA@
  001c7	eb 15		 jmp	 SHORT $L209046
$L209047:
  001c9	81 f9 98 0e 00
	00		 cmp	 ecx, 3736		; 00000e98H
  001cf	77 04		 ja	 SHORT $L209054
  001d1	33 c0		 xor	 eax, eax
  001d3	eb 06		 jmp	 SHORT $L209053
$L209054:
  001d5	8b 80 60 3a 00
	00		 mov	 eax, DWORD PTR [eax+14944]
$L209053:
  001db	8b 40 04	 mov	 eax, DWORD PTR [eax+4]
$L209046:
  001de	50		 push	 eax
  001df	8d 46 19	 lea	 eax, DWORD PTR [esi+25]
  001e2	50		 push	 eax
  001e3	ff 15 00 00 00
	00		 call	 DWORD PTR __imp__lstrcpyA@8

; 384  : 		sprintf( pMail->m_szText, prj.GetText( TID_GAME_ELECTION_RETURN_DEPOSIT_MAIL_TEXT_01 ),
; 385  : 			static_cast<__int64>( lhs->GetDeposit() ),
; 386  : 			static_cast<float>( fRate * 100.0F ),
; 387  : 			static_cast<__int64>( iDeposit ) );

  001e9	8b 03		 mov	 eax, DWORD PTR [ebx]
  001eb	8b 0d 7c 00 00
	00		 mov	 ecx, DWORD PTR ?prj@@3VCProject@@A+124
  001f1	81 f9 99 0e 00
	00		 cmp	 ecx, 3737		; 00000e99H
  001f7	8b 50 08	 mov	 edx, DWORD PTR [eax+8]
  001fa	8b 40 0c	 mov	 eax, DWORD PTR [eax+12]
  001fd	76 0f		 jbe	 SHORT $L209104
  001ff	8b 1d 6c 00 00
	00		 mov	 ebx, DWORD PTR ?prj@@3VCProject@@A+108
  00205	83 bb 64 3a 00
	00 00		 cmp	 DWORD PTR [ebx+14948], 0
  0020c	75 07		 jne	 SHORT $L209078
$L209104:
  0020e	b9 00 00 00 00	 mov	 ecx, OFFSET FLAT:??_C@_00CNPNBAHC@?$AA@
  00213	eb 15		 jmp	 SHORT $L209077
$L209078:
  00215	81 f9 99 0e 00
	00		 cmp	 ecx, 3737		; 00000e99H
  0021b	77 04		 ja	 SHORT $L209085
  0021d	33 c9		 xor	 ecx, ecx
  0021f	eb 06		 jmp	 SHORT $L209084
$L209085:
  00221	8b 8b 64 3a 00
	00		 mov	 ecx, DWORD PTR [ebx+14948]
$L209084:
  00227	8b 49 04	 mov	 ecx, DWORD PTR [ecx+4]
$L209077:
  0022a	8b 5c 24 20	 mov	 ebx, DWORD PTR _iDeposit$[esp+52]
  0022e	d9 44 24 34	 fld	 DWORD PTR tv375[esp+44]
  00232	53		 push	 ebx
  00233	55		 push	 ebp
  00234	83 ec 08	 sub	 esp, 8
  00237	dd 1c 24	 fstp	 QWORD PTR [esp]
  0023a	50		 push	 eax
  0023b	52		 push	 edx
  0023c	51		 push	 ecx
  0023d	8d 4e 39	 lea	 ecx, DWORD PTR [esi+57]
  00240	51		 push	 ecx
  00241	e8 00 00 00 00	 call	 _sprintf

; 388  : 
; 389  : 		if( !m_pQuery->Execute( "uspElectionLeaveOut %d, %d, %d", g_appInfo.dwSys, pElection->GetId(), idReceiver ) )

  00246	8b 54 24 30	 mov	 edx, DWORD PTR _idReceiver$[esp+80]
  0024a	8b 47 08	 mov	 eax, DWORD PTR [edi+8]
  0024d	8b 4c 24 34	 mov	 ecx, DWORD PTR _this$[esp+80]
  00251	52		 push	 edx
  00252	8b 11		 mov	 edx, DWORD PTR [ecx]
  00254	50		 push	 eax
  00255	a1 00 00 00 00	 mov	 eax, DWORD PTR ?g_appInfo@@3UAppInfo@@A
  0025a	50		 push	 eax
  0025b	68 00 00 00 00	 push	 OFFSET FLAT:??_C@_0BP@DDPAGKOB@uspElectionLeaveOut?5?$CFd?0?5?$CFd?0?5?$CFd?$AA@
  00260	52		 push	 edx
  00261	e8 00 00 00 00	 call	 ?Execute@CQuery@@QAAHPBDZZ ; CQuery::Execute
  00266	83 c4 34	 add	 esp, 52			; 00000034H
  00269	85 c0		 test	 eax, eax
  0026b	75 0d		 jne	 SHORT $L209110

; 390  : 			Error( "couldn't execute uspElectionLeaveOut" );

  0026d	68 00 00 00 00	 push	 OFFSET FLAT:??_C@_0CF@DMMBMGJN@couldn?8t?5execute?5uspElectionLeav@
  00272	e8 00 00 00 00	 call	 ?Error@@YAPBDPBDZZ	; Error
  00277	83 c4 04	 add	 esp, 4
$L209110:

; 391  : 	}
; 392  : 	
; 393  : 	//     
; 394  : 	int nPerin	= static_cast<int>( iDeposit / static_cast<__int64>(PERIN_VALUE ) );

  0027a	8b 44 24 20	 mov	 eax, DWORD PTR _iDeposit$[esp+52]
  0027e	6a 00		 push	 0
  00280	68 00 e1 f5 05	 push	 100000000		; 05f5e100H
  00285	50		 push	 eax
  00286	55		 push	 ebp
  00287	e8 00 00 00 00	 call	 __alldiv
  0028c	8b f8		 mov	 edi, eax

; 395  : 	int nPenya	= static_cast<int>( iDeposit - static_cast<__int64>( PERIN_VALUE ) * static_cast<__int64>( nPerin ) );

  0028e	8b cf		 mov	 ecx, edi
  00290	69 c9 00 e1 f5
	05		 imul	 ecx, 100000000		; 05f5e100H
  00296	2b e9		 sub	 ebp, ecx

; 396  : 
; 397  : 	pMail->m_nGold	= nPenya;
; 398  : 	if( nPerin > 0 )

  00298	85 ff		 test	 edi, edi
  0029a	8b c5		 mov	 eax, ebp
  0029c	89 46 10	 mov	 DWORD PTR [esi+16], eax
  0029f	5d		 pop	 ebp
  002a0	7e 5c		 jle	 SHORT $L209096

; 399  : 	{
; 400  : 		pMail->m_pItemElem	= new CItemElem;

  002a2	68 a0 00 00 00	 push	 160			; 000000a0H
  002a7	e8 00 00 00 00	 call	 ??2@YAPAXI@Z		; operator new
  002ac	83 c4 04	 add	 esp, 4
  002af	89 44 24 30	 mov	 DWORD PTR $T208869[esp+40], eax
  002b3	85 c0		 test	 eax, eax
  002b5	c7 44 24 28 01
	00 00 00	 mov	 DWORD PTR __$EHRec$[esp+52], 1
  002bd	74 09		 je	 SHORT $L208870
  002bf	8b c8		 mov	 ecx, eax
  002c1	e8 00 00 00 00	 call	 ??0CItemElem@@QAE@XZ	; CItemElem::CItemElem
  002c6	eb 02		 jmp	 SHORT $L208871
$L208870:
  002c8	33 c0		 xor	 eax, eax
$L208871:
  002ca	89 46 0c	 mov	 DWORD PTR [esi+12], eax

; 401  : 		pMail->m_pItemElem->m_dwItemId	= II_SYS_SYS_SCR_PERIN;

  002cd	c7 40 08 58 67
	00 00		 mov	 DWORD PTR [eax+8], 26456 ; 00006758H

; 402  : 		pMail->m_pItemElem->m_nItemNum	= static_cast<short>( nPerin );

  002d4	8b 56 0c	 mov	 edx, DWORD PTR [esi+12]
  002d7	66 89 7a 72	 mov	 WORD PTR [edx+114], di

; 403  : 		pMail->m_pItemElem->SetSerialNumber( xRand() );

  002db	a1 00 00 00 00	 mov	 eax, DWORD PTR ?g_next@@3KA ; g_next
  002e0	69 c0 6d 4e c6
	41		 imul	 eax, 1103515245		; 41c64e6dH
  002e6	05 39 30 00 00	 add	 eax, 12345		; 00003039H
  002eb	a3 00 00 00 00	 mov	 DWORD PTR ?g_next@@3KA, eax ; g_next
  002f0	8b 4e 0c	 mov	 ecx, DWORD PTR [esi+12]
  002f3	c7 44 24 28 ff
	ff ff ff	 mov	 DWORD PTR __$EHRec$[esp+52], -1
  002fb	89 41 30	 mov	 DWORD PTR [ecx+48], eax
$L209096:

; 404  : 	}
; 405  : 
; 406  : 	//  
; 407  : 	post::Post( idReceiver, pMail, m_pQuery );

  002fe	8b 54 24 10	 mov	 edx, DWORD PTR _this$[esp+44]
  00302	8b 02		 mov	 eax, DWORD PTR [edx]
  00304	8b 4c 24 0c	 mov	 ecx, DWORD PTR _idReceiver$[esp+44]
  00308	50		 push	 eax
  00309	56		 push	 esi
  0030a	51		 push	 ecx
  0030b	e8 00 00 00 00	 call	 ?Post@post@@YAXKPAVCMail@@PAVCQuery@@@Z ; post::Post
  00310	83 c4 0c	 add	 esp, 12			; 0000000cH
  00313	5f		 pop	 edi
  00314	5e		 pop	 esi
  00315	5b		 pop	 ebx

; 408  : }

  00316	8b 4c 24 14	 mov	 ecx, DWORD PTR __$EHRec$[esp+32]
  0031a	64 89 0d 00 00
	00 00		 mov	 DWORD PTR fs:__except_list, ecx
  00321	83 c4 20	 add	 esp, 32			; 00000020H
  00324	c2 04 00	 ret	 4
$L209108:

; 404  : 	}
; 405  : 
; 406  : 	//  
; 407  : 	post::Post( idReceiver, pMail, m_pQuery );

  00327	dd d8		 fstp	 ST(0)
$L203734:

; 408  : }

  00329	8b 4c 24 20	 mov	 ecx, DWORD PTR __$EHRec$[esp+44]
  0032d	5f		 pop	 edi
  0032e	5e		 pop	 esi
  0032f	5b		 pop	 ebx
  00330	64 89 0d 00 00
	00 00		 mov	 DWORD PTR fs:__except_list, ecx
  00337	83 c4 20	 add	 esp, 32			; 00000020H
  0033a	c2 04 00	 ret	 4
_TEXT	ENDS
;	COMDAT text$x
text$x	SEGMENT
$L208872:
  00000	8b 45 e8	 mov	 eax, DWORD PTR $T208865[ebp]
  00003	50		 push	 eax
  00004	e8 00 00 00 00	 call	 ??3@YAXPAX@Z		; operator delete
  00009	59		 pop	 ecx
  0000a	c3		 ret	 0
$L208873:
  0000b	8b 45 04	 mov	 eax, DWORD PTR $T208869[ebp-4]
  0000e	50		 push	 eax
  0000f	e8 00 00 00 00	 call	 ??3@YAXPAX@Z		; operator delete
  00014	59		 pop	 ecx
  00015	c3		 ret	 0
__ehhandler$??RPostDeposit@@QBEXABV?$shared_ptr@VCCandidate@@@boost@@@Z:
  00016	b8 00 00 00 00	 mov	 eax, OFFSET FLAT:$T209100
  0001b	e9 00 00 00 00	 jmp	 ___CxxFrameHandler
text$x	ENDS
??RPostDeposit@@QBEXABV?$shared_ptr@VCCandidate@@@boost@@@Z ENDP ; PostDeposit::operator()
PUBLIC	?OnTimer@CLEvent@@QAEXXZ			; CLEvent::OnTimer
EXTRN	?SendLEventTick@CDPTrans@@QAEXPAVILordEvent@@@Z:NEAR ; CDPTrans::SendLEventTick
EXTRN	?EraseExpiredComponents@ILordEvent@@QAEXXZ:NEAR	; ILordEvent::EraseExpiredComponents
; Function compile flags: /Ogty
;	COMDAT ?OnTimer@CLEvent@@QAEXXZ
_TEXT	SEGMENT
?OnTimer@CLEvent@@QAEXXZ PROC NEAR			; CLEvent::OnTimer, COMDAT
; _this$ = ecx

; 581  : {	// 

  00000	56		 push	 esi
  00001	57		 push	 edi
  00002	8b f1		 mov	 esi, ecx

; 582  : 	//     
; 583  : 	BOOL bExpired	= DecrementAllComponentTick();

  00004	e8 00 00 00 00	 call	 ?DecrementAllComponentTick@CLEvent@@IAEHXZ ; CLEvent::DecrementAllComponentTick

; 584  : 	CDPTrans::GetInstance()->SendLEventTick( this );

  00009	56		 push	 esi
  0000a	8b f8		 mov	 edi, eax
  0000c	e8 00 00 00 00	 call	 ?GetInstance@CDPTrans@@SAPAV1@XZ ; CDPTrans::GetInstance
  00011	8b c8		 mov	 ecx, eax
  00013	e8 00 00 00 00	 call	 ?SendLEventTick@CDPTrans@@QAEXPAVILordEvent@@@Z ; CDPTrans::SendLEventTick

; 585  : 	//     
; 586  : 	if( bExpired )	

  00018	85 ff		 test	 edi, edi
  0001a	5f		 pop	 edi
  0001b	74 08		 je	 SHORT $L204162

; 587  : 		EraseExpiredComponents();

  0001d	8b ce		 mov	 ecx, esi
  0001f	5e		 pop	 esi
  00020	e9 00 00 00 00	 jmp	 ?EraseExpiredComponents@ILordEvent@@QAEXXZ ; ILordEvent::EraseExpiredComponents
$L204162:
  00025	5e		 pop	 esi

; 588  : }

  00026	c3		 ret	 0
?OnTimer@CLEvent@@QAEXXZ ENDP				; CLEvent::OnTimer
_TEXT	ENDS
PUBLIC	??$for_each@Viterator@?$vector@V?$shared_ptr@VCCandidate@@@boost@@V?$allocator@V?$shared_ptr@VCCandidate@@@boost@@@std@@@std@@UPostDeposit@@@std@@YA?AUPostDeposit@@Viterator@?$vector@V?$shared_ptr@VCCandidate@@@boost@@V?$allocator@V?$shared_ptr@VCCandidate@@@boost@@@std@@@0@0U1@@Z ; std::for_each<std::vector<boost::shared_ptr<CCandidate>,std::allocator<boost::shared_ptr<CCandidate> > >::iterator,PostDeposit>
; Function compile flags: /Ogty
; File c:\program files\microsoft visual studio .net 2003\vc7\include\algorithm
;	COMDAT ??$for_each@Viterator@?$vector@V?$shared_ptr@VCCandidate@@@boost@@V?$allocator@V?$shared_ptr@VCCandidate@@@boost@@@std@@@std@@UPostDeposit@@@std@@YA?AUPostDeposit@@Viterator@?$vector@V?$shared_ptr@VCCandidate@@@boost@@V?$allocator@V?$shared_ptr@VCCandidate@@@boost@@@std@@@0@0U1@@Z
_TEXT	SEGMENT
___$ReturnUdt$ = 8					; size = 4
__First$ = 12						; size = 4
__Last$ = 16						; size = 4
__Func$ = 20						; size = 4
??$for_each@Viterator@?$vector@V?$shared_ptr@VCCandidate@@@boost@@V?$allocator@V?$shared_ptr@VCCandidate@@@boost@@@std@@@std@@UPostDeposit@@@std@@YA?AUPostDeposit@@Viterator@?$vector@V?$shared_ptr@VCCandidate@@@boost@@V?$allocator@V?$shared_ptr@VCCandidate@@@boost@@@std@@@0@0U1@@Z PROC NEAR ; std::for_each<std::vector<boost::shared_ptr<CCandidate>,std::allocator<boost::shared_ptr<CCandidate> > >::iterator,PostDeposit>, COMDAT

; 19   : 	{	// perform function for each element

  00000	56		 push	 esi

; 20   : 	for (; _First != _Last; ++_First)

  00001	8b 74 24 0c	 mov	 esi, DWORD PTR __First$[esp]
  00005	57		 push	 edi
  00006	8b 7c 24 14	 mov	 edi, DWORD PTR __Last$[esp+4]
  0000a	3b f7		 cmp	 esi, edi
  0000c	74 20		 je	 SHORT $L209141
  0000e	8b ff		 npad	 2
$L209122:

; 21   : 		_Func(*_First);

  00010	56		 push	 esi
  00011	8d 4c 24 1c	 lea	 ecx, DWORD PTR __Func$[esp+8]
  00015	e8 00 00 00 00	 call	 ??RPostDeposit@@QBEXABV?$shared_ptr@VCCandidate@@@boost@@@Z ; PostDeposit::operator()
  0001a	83 c6 08	 add	 esi, 8
  0001d	3b f7		 cmp	 esi, edi
  0001f	75 ef		 jne	 SHORT $L209122

; 22   : 	return (_Func);

  00021	8b 44 24 0c	 mov	 eax, DWORD PTR ___$ReturnUdt$[esp+4]
  00025	8b 4c 24 18	 mov	 ecx, DWORD PTR __Func$[esp+4]
  00029	5f		 pop	 edi
  0002a	89 08		 mov	 DWORD PTR [eax], ecx
  0002c	5e		 pop	 esi

; 23   : 	}

  0002d	c3		 ret	 0
$L209141:

; 22   : 	return (_Func);

  0002e	8b 44 24 0c	 mov	 eax, DWORD PTR ___$ReturnUdt$[esp+4]
  00032	8b 54 24 18	 mov	 edx, DWORD PTR __Func$[esp+4]
  00036	5f		 pop	 edi
  00037	89 10		 mov	 DWORD PTR [eax], edx
  00039	5e		 pop	 esi

; 23   : 	}

  0003a	c3		 ret	 0
??$for_each@Viterator@?$vector@V?$shared_ptr@VCCandidate@@@boost@@V?$allocator@V?$shared_ptr@VCCandidate@@@boost@@@std@@@std@@UPostDeposit@@@std@@YA?AUPostDeposit@@Viterator@?$vector@V?$shared_ptr@VCCandidate@@@boost@@V?$allocator@V?$shared_ptr@VCCandidate@@@boost@@@std@@@0@0U1@@Z ENDP ; std::for_each<std::vector<boost::shared_ptr<CCandidate>,std::allocator<boost::shared_ptr<CCandidate> > >::iterator,PostDeposit>
_TEXT	ENDS
PUBLIC	??_7logic_error@std@@6B@			; std::logic_error::`vftable'
PUBLIC	??_Glogic_error@std@@UAEPAXI@Z			; std::logic_error::`scalar deleting destructor'
PUBLIC	??1logic_error@std@@UAE@XZ			; std::logic_error::~logic_error
PUBLIC	?what@logic_error@std@@UBEPBDXZ			; std::logic_error::what
EXTRN	??_Elogic_error@std@@UAEPAXI@Z:NEAR		; std::logic_error::`vector deleting destructor'
EXTRN	??1exception@@UAE@XZ:NEAR			; exception::~exception
;	COMDAT ??_7logic_error@std@@6B@
; File c:\program files\microsoft visual studio .net 2003\vc7\include\iosfwd
CONST	SEGMENT
??_7logic_error@std@@6B@ DD FLAT:??_Elogic_error@std@@UAEPAXI@Z ; std::logic_error::`vftable'
	DD	FLAT:?what@logic_error@std@@UBEPBDXZ
; Function compile flags: /Ogty
; File c:\program files\microsoft visual studio .net 2003\vc7\include\stdexcept
CONST	ENDS
;	COMDAT ??1logic_error@std@@UAE@XZ
_TEXT	SEGMENT
??1logic_error@std@@UAE@XZ PROC NEAR			; std::logic_error::~logic_error, COMDAT
; _this$ = ecx

; 23   : 		{}	// destroy the object

  00000	56		 push	 esi
  00001	8b f1		 mov	 esi, ecx
  00003	c7 06 00 00 00
	00		 mov	 DWORD PTR [esi], OFFSET FLAT:??_7logic_error@std@@6B@
  00009	83 7e 24 10	 cmp	 DWORD PTR [esi+36], 16	; 00000010H
  0000d	72 0c		 jb	 SHORT $L209208
  0000f	8b 46 10	 mov	 eax, DWORD PTR [esi+16]
  00012	50		 push	 eax
  00013	e8 00 00 00 00	 call	 ??3@YAXPAX@Z		; operator delete
  00018	83 c4 04	 add	 esp, 4
$L209208:
  0001b	33 c0		 xor	 eax, eax
  0001d	c7 46 24 0f 00
	00 00		 mov	 DWORD PTR [esi+36], 15	; 0000000fH
  00024	89 46 20	 mov	 DWORD PTR [esi+32], eax
  00027	88 46 10	 mov	 BYTE PTR [esi+16], al
  0002a	8b ce		 mov	 ecx, esi
  0002c	5e		 pop	 esi
  0002d	e9 00 00 00 00	 jmp	 ??1exception@@UAE@XZ	; exception::~exception
??1logic_error@std@@UAE@XZ ENDP				; std::logic_error::~logic_error
; Function compile flags: /Ogty
_TEXT	ENDS
;	COMDAT ?what@logic_error@std@@UBEPBDXZ
_TEXT	SEGMENT
?what@logic_error@std@@UBEPBDXZ PROC NEAR		; std::logic_error::what, COMDAT
; _this$ = ecx

; 27   : 		return (_Str.c_str());

  00000	83 79 24 10	 cmp	 DWORD PTR [ecx+36], 16	; 00000010H
  00004	72 04		 jb	 SHORT $L209234
  00006	8b 41 10	 mov	 eax, DWORD PTR [ecx+16]

; 28   : 		}

  00009	c3		 ret	 0

; 27   : 		return (_Str.c_str());

$L209234:
  0000a	8d 41 10	 lea	 eax, DWORD PTR [ecx+16]

; 28   : 		}

  0000d	c3		 ret	 0
?what@logic_error@std@@UBEPBDXZ ENDP			; std::logic_error::what
; Function compile flags: /Ogty
_TEXT	ENDS
;	COMDAT ??_Glogic_error@std@@UAEPAXI@Z
_TEXT	SEGMENT
___flags$ = 8						; size = 4
??_Glogic_error@std@@UAEPAXI@Z PROC NEAR		; std::logic_error::`scalar deleting destructor', COMDAT
; _this$ = ecx
  00000	56		 push	 esi
  00001	8b f1		 mov	 esi, ecx
  00003	e8 00 00 00 00	 call	 ??1logic_error@std@@UAE@XZ ; std::logic_error::~logic_error
  00008	f6 44 24 08 01	 test	 BYTE PTR ___flags$[esp], 1
  0000d	74 09		 je	 SHORT $L209240
  0000f	56		 push	 esi
  00010	e8 00 00 00 00	 call	 ??3@YAXPAX@Z		; operator delete
  00015	83 c4 04	 add	 esp, 4
$L209240:
  00018	8b c6		 mov	 eax, esi
  0001a	5e		 pop	 esi
  0001b	c2 04 00	 ret	 4
??_Glogic_error@std@@UAEPAXI@Z ENDP			; std::logic_error::`scalar deleting destructor'
_TEXT	ENDS
PUBLIC	?LoadStringA@?$CStringT@DV?$StrTraitMFC@DV?$ChTraitsCRT@D@ATL@@@@@ATL@@QAEHI@Z ; ATL::CStringT<char,StrTraitMFC<char,ATL::ChTraitsCRT<char> > >::LoadStringA
; Function compile flags: /Ogty
; File c:\program files\microsoft visual studio .net 2003\vc7\atlmfc\include\cstringt.h
;	COMDAT ?LoadStringA@?$CStringT@DV?$StrTraitMFC@DV?$ChTraitsCRT@D@ATL@@@@@ATL@@QAEHI@Z
_TEXT	SEGMENT
_nID$ = 8						; size = 4
?LoadStringA@?$CStringT@DV?$StrTraitMFC@DV?$ChTraitsCRT@D@ATL@@@@@ATL@@QAEHI@Z PROC NEAR ; ATL::CStringT<char,StrTraitMFC<char,ATL::ChTraitsCRT<char> > >::LoadStringA, COMDAT
; _this$ = ecx

; 1969 : 	{

  00000	56		 push	 esi
  00001	57		 push	 edi

; 1970 : 		HINSTANCE hInst = StringTraits::FindStringResourceInstance( nID );

  00002	8b 7c 24 0c	 mov	 edi, DWORD PTR _nID$[esp+4]
  00006	57		 push	 edi
  00007	8b f1		 mov	 esi, ecx
  00009	e8 00 00 00 00	 call	 ?AfxFindStringResourceHandle@@YGPAUHINSTANCE__@@I@Z ; AfxFindStringResourceHandle

; 1971 : 		if( hInst == NULL )

  0000e	85 c0		 test	 eax, eax
  00010	75 05		 jne	 SHORT $L183105
  00012	5f		 pop	 edi
  00013	5e		 pop	 esi

; 1977 : 	}

  00014	c2 04 00	 ret	 4
$L183105:

; 1972 : 		{
; 1973 : 			return( FALSE );
; 1974 : 		}
; 1975 : 
; 1976 : 		return( LoadString( hInst, nID ) );		

  00017	57		 push	 edi
  00018	50		 push	 eax
  00019	8b ce		 mov	 ecx, esi
  0001b	e8 00 00 00 00	 call	 ?LoadStringA@?$CStringT@DV?$StrTraitMFC@DV?$ChTraitsCRT@D@ATL@@@@@ATL@@QAEHPAUHINSTANCE__@@I@Z ; ATL::CStringT<char,StrTraitMFC<char,ATL::ChTraitsCRT<char> > >::LoadStringA
  00020	5f		 pop	 edi
  00021	5e		 pop	 esi

; 1977 : 	}

  00022	c2 04 00	 ret	 4
?LoadStringA@?$CStringT@DV?$StrTraitMFC@DV?$ChTraitsCRT@D@ATL@@@@@ATL@@QAEHI@Z ENDP ; ATL::CStringT<char,StrTraitMFC<char,ATL::ChTraitsCRT<char> > >::LoadStringA
_TEXT	ENDS
PUBLIC	?CheckImplicitLoad@?$CStringT@DV?$StrTraitMFC@DV?$ChTraitsCRT@D@ATL@@@@@ATL@@AAE_NPBX@Z ; ATL::CStringT<char,StrTraitMFC<char,ATL::ChTraitsCRT<char> > >::CheckImplicitLoad
; Function compile flags: /Ogty
;	COMDAT ?CheckImplicitLoad@?$CStringT@DV?$StrTraitMFC@DV?$ChTraitsCRT@D@ATL@@@@@ATL@@AAE_NPBX@Z
_TEXT	SEGMENT
_pv$ = 8						; size = 4
?CheckImplicitLoad@?$CStringT@DV?$StrTraitMFC@DV?$ChTraitsCRT@D@ATL@@@@@ATL@@AAE_NPBX@Z PROC NEAR ; ATL::CStringT<char,StrTraitMFC<char,ATL::ChTraitsCRT<char> > >::CheckImplicitLoad, COMDAT
; _this$ = ecx

; 2229 : 	{

  00000	57		 push	 edi
  00001	8b f9		 mov	 edi, ecx

; 2230 : 		bool bRet = false;
; 2231 : 
; 2232 : 		if( (pv != NULL) && IS_INTRESOURCE( pv ) )

  00003	8b 4c 24 08	 mov	 ecx, DWORD PTR _pv$[esp]
  00007	32 c0		 xor	 al, al
  00009	85 c9		 test	 ecx, ecx
  0000b	74 22		 je	 SHORT $L184190
  0000d	f7 c1 00 00 ff
	ff		 test	 ecx, -65536		; ffff0000H
  00013	75 1a		 jne	 SHORT $L184190
  00015	56		 push	 esi

; 2233 : 		{
; 2234 : 			UINT nID = LOWORD( reinterpret_cast< DWORD_PTR >( pv ) );

  00016	0f b7 f1	 movzx	 esi, cx

; 2235 : 			if( !LoadString( nID ) )

  00019	56		 push	 esi
  0001a	e8 00 00 00 00	 call	 ?AfxFindStringResourceHandle@@YGPAUHINSTANCE__@@I@Z ; AfxFindStringResourceHandle
  0001f	85 c0		 test	 eax, eax
  00021	74 09		 je	 SHORT $L209255
  00023	56		 push	 esi
  00024	50		 push	 eax
  00025	8b cf		 mov	 ecx, edi
  00027	e8 00 00 00 00	 call	 ?LoadStringA@?$CStringT@DV?$StrTraitMFC@DV?$ChTraitsCRT@D@ATL@@@@@ATL@@QAEHPAUHINSTANCE__@@I@Z ; ATL::CStringT<char,StrTraitMFC<char,ATL::ChTraitsCRT<char> > >::LoadStringA
$L209255:

; 2236 : 			{
; 2237 : 				ATLTRACE( atlTraceString, 2, _T( "Warning: implicit LoadString(%u) failed\n" ), nID );
; 2238 : 			}
; 2239 : 			bRet = true;

  0002c	b0 01		 mov	 al, 1
  0002e	5e		 pop	 esi
$L184190:
  0002f	5f		 pop	 edi

; 2240 : 		}
; 2241 : 
; 2242 : 		return( bRet );
; 2243 : 	}

  00030	c2 04 00	 ret	 4
?CheckImplicitLoad@?$CStringT@DV?$StrTraitMFC@DV?$ChTraitsCRT@D@ATL@@@@@ATL@@AAE_NPBX@Z ENDP ; ATL::CStringT<char,StrTraitMFC<char,ATL::ChTraitsCRT<char> > >::CheckImplicitLoad
_TEXT	ENDS
PUBLIC	?assign@?$basic_string@DU?$char_traits@D@std@@V?$allocator@D@2@@std@@QAEAAV12@ABV12@II@Z ; std::basic_string<char,std::char_traits<char>,std::allocator<char> >::assign
; Function compile flags: /Ogty
; File c:\program files\microsoft visual studio .net 2003\vc7\include\xstring
;	COMDAT ?assign@?$basic_string@DU?$char_traits@D@std@@V?$allocator@D@2@@std@@QAEAAV12@ABV12@II@Z
_TEXT	SEGMENT
__Right$ = 8						; size = 4
__Roff$ = 12						; size = 4
__Count$ = 16						; size = 4
?assign@?$basic_string@DU?$char_traits@D@std@@V?$allocator@D@2@@std@@QAEAAV12@ABV12@II@Z PROC NEAR ; std::basic_string<char,std::char_traits<char>,std::allocator<char> >::assign, COMDAT
; _this$ = ecx

; 590  : 		{	// assign _Right [_Roff, _Roff + _Count)

  00000	53		 push	 ebx
  00001	55		 push	 ebp
  00002	56		 push	 esi

; 591  : 		if (_Right.size() < _Roff)

  00003	8b 74 24 14	 mov	 esi, DWORD PTR __Roff$[esp+8]
  00007	57		 push	 edi
  00008	8b 7c 24 14	 mov	 edi, DWORD PTR __Right$[esp+12]
  0000c	39 77 14	 cmp	 DWORD PTR [edi+20], esi
  0000f	8b d9		 mov	 ebx, ecx
  00011	73 05		 jae	 SHORT $L184271

; 592  : 			_String_base::_Xran();	// _Roff off end

  00013	e8 00 00 00 00	 call	 ?_Xran@_String_base@std@@QBEXXZ ; std::_String_base::_Xran
$L184271:

; 593  : 		size_type _Num = _Right.size() - _Roff;

  00018	8b 6f 14	 mov	 ebp, DWORD PTR [edi+20]

; 594  : 		if (_Count < _Num)

  0001b	8b 44 24 1c	 mov	 eax, DWORD PTR __Count$[esp+12]
  0001f	2b ee		 sub	 ebp, esi
  00021	3b c5		 cmp	 eax, ebp
  00023	73 02		 jae	 SHORT $L184273

; 595  : 			_Num = _Count;	// trim _Num to size

  00025	8b e8		 mov	 ebp, eax
$L184273:

; 596  : 
; 597  : 		if (this == &_Right)

  00027	3b df		 cmp	 ebx, edi
  00029	75 1f		 jne	 SHORT $L184274

; 598  : 			erase((size_type)(_Roff + _Num)), erase(0, _Roff);	// substring

  0002b	6a ff		 push	 -1
  0002d	03 ee		 add	 ebp, esi
  0002f	55		 push	 ebp
  00030	8b cb		 mov	 ecx, ebx
  00032	e8 00 00 00 00	 call	 ?erase@?$basic_string@DU?$char_traits@D@std@@V?$allocator@D@2@@std@@QAEAAV12@II@Z ; std::basic_string<char,std::char_traits<char>,std::allocator<char> >::erase
  00037	56		 push	 esi
  00038	6a 00		 push	 0
  0003a	8b cb		 mov	 ecx, ebx
  0003c	e8 00 00 00 00	 call	 ?erase@?$basic_string@DU?$char_traits@D@std@@V?$allocator@D@2@@std@@QAEAAV12@II@Z ; std::basic_string<char,std::char_traits<char>,std::allocator<char> >::erase
  00041	5f		 pop	 edi
  00042	5e		 pop	 esi
  00043	5d		 pop	 ebp

; 603  : 			}
; 604  : 		return (*this);

  00044	8b c3		 mov	 eax, ebx
  00046	5b		 pop	 ebx

; 605  : 		}

  00047	c2 0c 00	 ret	 12			; 0000000cH
$L184274:

; 599  : 		else if (_Grow(_Num))

  0004a	83 fd fe	 cmp	 ebp, -2			; fffffffeH
  0004d	76 07		 jbe	 SHORT $L209410
  0004f	8b cb		 mov	 ecx, ebx
  00051	e8 00 00 00 00	 call	 ?_Xlen@_String_base@std@@QBEXXZ ; std::_String_base::_Xlen
$L209410:
  00056	8b 43 18	 mov	 eax, DWORD PTR [ebx+24]
  00059	3b c5		 cmp	 eax, ebp
  0005b	73 21		 jae	 SHORT $L209411
  0005d	8b 43 14	 mov	 eax, DWORD PTR [ebx+20]
  00060	50		 push	 eax
  00061	55		 push	 ebp
  00062	8b cb		 mov	 ecx, ebx
  00064	e8 00 00 00 00	 call	 ?_Copy@?$basic_string@DU?$char_traits@D@std@@V?$allocator@D@2@@std@@IAEXII@Z ; std::basic_string<char,std::char_traits<char>,std::allocator<char> >::_Copy
  00069	85 ed		 test	 ebp, ebp
$L209456:
  0006b	76 6d		 jbe	 SHORT $L209455

; 600  : 			{	// make room and assign new stuff
; 601  : 			_Traits::copy(_Myptr(), _Right._Myptr() + _Roff, _Num);

  0006d	8b 4f 18	 mov	 ecx, DWORD PTR [edi+24]
  00070	b8 10 00 00 00	 mov	 eax, 16			; 00000010H
  00075	3b c8		 cmp	 ecx, eax
  00077	72 2f		 jb	 SHORT $L209421
  00079	8b 57 04	 mov	 edx, DWORD PTR [edi+4]
  0007c	eb 2d		 jmp	 SHORT $L209422

; 599  : 		else if (_Grow(_Num))

$L209411:
  0007e	85 ed		 test	 ebp, ebp
  00080	75 e9		 jne	 SHORT $L209456
  00082	83 f8 10	 cmp	 eax, 16			; 00000010H
  00085	89 6b 14	 mov	 DWORD PTR [ebx+20], ebp
  00088	72 0f		 jb	 SHORT $L209403
  0008a	8b 43 04	 mov	 eax, DWORD PTR [ebx+4]
  0008d	5f		 pop	 edi
  0008e	5e		 pop	 esi
  0008f	c6 00 00	 mov	 BYTE PTR [eax], 0
  00092	5d		 pop	 ebp

; 603  : 			}
; 604  : 		return (*this);

  00093	8b c3		 mov	 eax, ebx
  00095	5b		 pop	 ebx

; 605  : 		}

  00096	c2 0c 00	 ret	 12			; 0000000cH

; 599  : 		else if (_Grow(_Num))

$L209403:
  00099	5f		 pop	 edi
  0009a	8d 43 04	 lea	 eax, DWORD PTR [ebx+4]
  0009d	5e		 pop	 esi
  0009e	c6 00 00	 mov	 BYTE PTR [eax], 0
  000a1	5d		 pop	 ebp

; 603  : 			}
; 604  : 		return (*this);

  000a2	8b c3		 mov	 eax, ebx
  000a4	5b		 pop	 ebx

; 605  : 		}

  000a5	c2 0c 00	 ret	 12			; 0000000cH

; 600  : 			{	// make room and assign new stuff
; 601  : 			_Traits::copy(_Myptr(), _Right._Myptr() + _Roff, _Num);

$L209421:
  000a8	8d 57 04	 lea	 edx, DWORD PTR [edi+4]
$L209422:
  000ab	39 43 18	 cmp	 DWORD PTR [ebx+24], eax
  000ae	8d 43 04	 lea	 eax, DWORD PTR [ebx+4]
  000b1	72 04		 jb	 SHORT $L209427
  000b3	8b 38		 mov	 edi, DWORD PTR [eax]
  000b5	eb 02		 jmp	 SHORT $L209428
$L209427:
  000b7	8b f8		 mov	 edi, eax
$L209428:
  000b9	03 f2		 add	 esi, edx
  000bb	8b cd		 mov	 ecx, ebp
  000bd	8b d1		 mov	 edx, ecx
  000bf	c1 e9 02	 shr	 ecx, 2
  000c2	f3 a5		 rep movsd
  000c4	8b ca		 mov	 ecx, edx
  000c6	83 e1 03	 and	 ecx, 3
  000c9	f3 a4		 rep movsb

; 602  : 			_Eos(_Num);

  000cb	83 7b 18 10	 cmp	 DWORD PTR [ebx+24], 16	; 00000010H
  000cf	89 6b 14	 mov	 DWORD PTR [ebx+20], ebp
  000d2	72 02		 jb	 SHORT $L209450
  000d4	8b 00		 mov	 eax, DWORD PTR [eax]
$L209450:
  000d6	c6 04 28 00	 mov	 BYTE PTR [eax+ebp], 0
$L209455:
  000da	5f		 pop	 edi
  000db	5e		 pop	 esi
  000dc	5d		 pop	 ebp

; 603  : 			}
; 604  : 		return (*this);

  000dd	8b c3		 mov	 eax, ebx
  000df	5b		 pop	 ebx

; 605  : 		}

  000e0	c2 0c 00	 ret	 12			; 0000000cH
?assign@?$basic_string@DU?$char_traits@D@std@@V?$allocator@D@2@@std@@QAEAAV12@ABV12@II@Z ENDP ; std::basic_string<char,std::char_traits<char>,std::allocator<char> >::assign
_TEXT	ENDS
PUBLIC	?SetString@?$CSimpleStringT@D$0A@@ATL@@QAEXPBD@Z ; ATL::CSimpleStringT<char,0>::SetString
; Function compile flags: /Ogty
; File c:\program files\microsoft visual studio .net 2003\vc7\atlmfc\include\atlsimpstr.h
;	COMDAT ?SetString@?$CSimpleStringT@D$0A@@ATL@@QAEXPBD@Z
_TEXT	SEGMENT
_pszSrc$ = 8						; size = 4
?SetString@?$CSimpleStringT@D$0A@@ATL@@QAEXPBD@Z PROC NEAR ; ATL::CSimpleStringT<char,0>::SetString, COMDAT
; _this$ = ecx

; 579  : 	{

  00000	56		 push	 esi

; 580  : 		SetString( pszSrc, StringLength( pszSrc ) );

  00001	8b 74 24 08	 mov	 esi, DWORD PTR _pszSrc$[esp]
  00005	85 f6		 test	 esi, esi
  00007	75 0d		 jne	 SHORT $L209462
  00009	33 c0		 xor	 eax, eax
  0000b	50		 push	 eax
  0000c	56		 push	 esi
  0000d	e8 00 00 00 00	 call	 ?SetString@?$CSimpleStringT@D$0A@@ATL@@QAEXPBDH@Z ; ATL::CSimpleStringT<char,0>::SetString
  00012	5e		 pop	 esi

; 581  : 	}

  00013	c2 04 00	 ret	 4

; 580  : 		SetString( pszSrc, StringLength( pszSrc ) );

$L209462:
  00016	8b c6		 mov	 eax, esi
  00018	57		 push	 edi
  00019	8d 78 01	 lea	 edi, DWORD PTR [eax+1]
  0001c	8d 64 24 00	 npad	 4
$L209464:
  00020	8a 10		 mov	 dl, BYTE PTR [eax]
  00022	40		 inc	 eax
  00023	84 d2		 test	 dl, dl
  00025	75 f9		 jne	 SHORT $L209464
  00027	2b c7		 sub	 eax, edi
  00029	5f		 pop	 edi
  0002a	50		 push	 eax
  0002b	56		 push	 esi
  0002c	e8 00 00 00 00	 call	 ?SetString@?$CSimpleStringT@D$0A@@ATL@@QAEXPBDH@Z ; ATL::CSimpleStringT<char,0>::SetString
  00031	5e		 pop	 esi

; 581  : 	}

  00032	c2 04 00	 ret	 4
?SetString@?$CSimpleStringT@D$0A@@ATL@@QAEXPBD@Z ENDP	; ATL::CSimpleStringT<char,0>::SetString
_TEXT	ENDS
PUBLIC	?assign@?$basic_string@DU?$char_traits@D@std@@V?$allocator@D@2@@std@@QAEAAV12@PBDI@Z ; std::basic_string<char,std::char_traits<char>,std::allocator<char> >::assign
; Function compile flags: /Ogty
; File c:\program files\microsoft visual studio .net 2003\vc7\include\xstring
;	COMDAT ?assign@?$basic_string@DU?$char_traits@D@std@@V?$allocator@D@2@@std@@QAEAAV12@PBDI@Z
_TEXT	SEGMENT
__Ptr$ = 8						; size = 4
__Num$ = 12						; size = 4
?assign@?$basic_string@DU?$char_traits@D@std@@V?$allocator@D@2@@std@@QAEAAV12@PBDI@Z PROC NEAR ; std::basic_string<char,std::char_traits<char>,std::allocator<char> >::assign, COMDAT
; _this$ = ecx

; 608  : 		{	// assign [_Ptr, _Ptr + _Num)

  00000	53		 push	 ebx
  00001	8b d9		 mov	 ebx, ecx

; 609  : 		if (_Inside(_Ptr))

  00003	8b 53 18	 mov	 edx, DWORD PTR [ebx+24]
  00006	83 fa 10	 cmp	 edx, 16			; 00000010H
  00009	56		 push	 esi
  0000a	57		 push	 edi
  0000b	72 05		 jb	 SHORT $L209488
  0000d	8b 43 04	 mov	 eax, DWORD PTR [ebx+4]
  00010	eb 03		 jmp	 SHORT $L209489
$L209488:
  00012	8d 43 04	 lea	 eax, DWORD PTR [ebx+4]
$L209489:
  00015	8b 74 24 10	 mov	 esi, DWORD PTR __Ptr$[esp+8]
  00019	3b f0		 cmp	 esi, eax
  0001b	72 34		 jb	 SHORT $L184989
  0001d	83 fa 10	 cmp	 edx, 16			; 00000010H
  00020	8d 43 04	 lea	 eax, DWORD PTR [ebx+4]
  00023	72 04		 jb	 SHORT $L209492
  00025	8b 08		 mov	 ecx, DWORD PTR [eax]
  00027	eb 02		 jmp	 SHORT $L209493
$L209492:
  00029	8b c8		 mov	 ecx, eax
$L209493:
  0002b	8b 7b 14	 mov	 edi, DWORD PTR [ebx+20]
  0002e	03 f9		 add	 edi, ecx
  00030	3b fe		 cmp	 edi, esi
  00032	76 1d		 jbe	 SHORT $L184989

; 610  : 			return (assign(*this, _Ptr - _Myptr(), _Num));	// substring

  00034	83 fa 10	 cmp	 edx, 16			; 00000010H
  00037	72 02		 jb	 SHORT $L209501
  00039	8b 00		 mov	 eax, DWORD PTR [eax]
$L209501:
  0003b	8b 4c 24 14	 mov	 ecx, DWORD PTR __Num$[esp+8]
  0003f	51		 push	 ecx
  00040	2b f0		 sub	 esi, eax
  00042	56		 push	 esi
  00043	53		 push	 ebx
  00044	8b cb		 mov	 ecx, ebx
  00046	e8 00 00 00 00	 call	 ?assign@?$basic_string@DU?$char_traits@D@std@@V?$allocator@D@2@@std@@QAEAAV12@ABV12@II@Z ; std::basic_string<char,std::char_traits<char>,std::allocator<char> >::assign
  0004b	5f		 pop	 edi
  0004c	5e		 pop	 esi
  0004d	5b		 pop	 ebx

; 618  : 		}

  0004e	c2 08 00	 ret	 8
$L184989:
  00051	55		 push	 ebp

; 611  : 
; 612  : 		if (_Grow(_Num))

  00052	8b 6c 24 18	 mov	 ebp, DWORD PTR __Num$[esp+12]
  00056	83 fd fe	 cmp	 ebp, -2			; fffffffeH
  00059	76 07		 jbe	 SHORT $L209633
  0005b	8b cb		 mov	 ecx, ebx
  0005d	e8 00 00 00 00	 call	 ?_Xlen@_String_base@std@@QBEXXZ ; std::_String_base::_Xlen
$L209633:
  00062	8b 43 18	 mov	 eax, DWORD PTR [ebx+24]
  00065	3b c5		 cmp	 eax, ebp
  00067	73 1b		 jae	 SHORT $L209634
  00069	8b 53 14	 mov	 edx, DWORD PTR [ebx+20]
  0006c	52		 push	 edx
  0006d	55		 push	 ebp
  0006e	8b cb		 mov	 ecx, ebx
  00070	e8 00 00 00 00	 call	 ?_Copy@?$basic_string@DU?$char_traits@D@std@@V?$allocator@D@2@@std@@IAEXII@Z ; std::basic_string<char,std::char_traits<char>,std::allocator<char> >::_Copy
  00075	85 ed		 test	 ebp, ebp
$L209681:
  00077	76 68		 jbe	 SHORT $L209679

; 613  : 			{	// make room and assign new stuff
; 614  : 			_Traits::copy(_Myptr(), _Ptr, _Num);

  00079	83 7b 18 10	 cmp	 DWORD PTR [ebx+24], 16	; 00000010H
  0007d	72 2f		 jb	 SHORT $L209653
  0007f	8b 7b 04	 mov	 edi, DWORD PTR [ebx+4]
  00082	eb 2d		 jmp	 SHORT $L209654

; 611  : 
; 612  : 		if (_Grow(_Num))

$L209634:
  00084	85 ed		 test	 ebp, ebp
  00086	75 ef		 jne	 SHORT $L209681
  00088	83 f8 10	 cmp	 eax, 16			; 00000010H
  0008b	89 6b 14	 mov	 DWORD PTR [ebx+20], ebp
  0008e	72 0f		 jb	 SHORT $L209643
  00090	8b 43 04	 mov	 eax, DWORD PTR [ebx+4]
  00093	5d		 pop	 ebp
  00094	5f		 pop	 edi
  00095	c6 00 00	 mov	 BYTE PTR [eax], 0
  00098	5e		 pop	 esi

; 616  : 			}
; 617  : 		return (*this);

  00099	8b c3		 mov	 eax, ebx
  0009b	5b		 pop	 ebx

; 618  : 		}

  0009c	c2 08 00	 ret	 8

; 611  : 
; 612  : 		if (_Grow(_Num))

$L209643:
  0009f	5d		 pop	 ebp
  000a0	8d 43 04	 lea	 eax, DWORD PTR [ebx+4]
  000a3	5f		 pop	 edi
  000a4	c6 00 00	 mov	 BYTE PTR [eax], 0
  000a7	5e		 pop	 esi

; 616  : 			}
; 617  : 		return (*this);

  000a8	8b c3		 mov	 eax, ebx
  000aa	5b		 pop	 ebx

; 618  : 		}

  000ab	c2 08 00	 ret	 8

; 613  : 			{	// make room and assign new stuff
; 614  : 			_Traits::copy(_Myptr(), _Ptr, _Num);

$L209653:
  000ae	8d 7b 04	 lea	 edi, DWORD PTR [ebx+4]
$L209654:
  000b1	8b cd		 mov	 ecx, ebp
  000b3	8b c1		 mov	 eax, ecx
  000b5	c1 e9 02	 shr	 ecx, 2
  000b8	f3 a5		 rep movsd
  000ba	8b c8		 mov	 ecx, eax
  000bc	83 e1 03	 and	 ecx, 3
  000bf	f3 a4		 rep movsb

; 615  : 			_Eos(_Num);

  000c1	83 7b 18 10	 cmp	 DWORD PTR [ebx+24], 16	; 00000010H
  000c5	89 6b 14	 mov	 DWORD PTR [ebx+20], ebp
  000c8	72 10		 jb	 SHORT $L209676
  000ca	8b 43 04	 mov	 eax, DWORD PTR [ebx+4]
  000cd	c6 04 28 00	 mov	 BYTE PTR [eax+ebp], 0
  000d1	5d		 pop	 ebp
  000d2	5f		 pop	 edi
  000d3	5e		 pop	 esi

; 616  : 			}
; 617  : 		return (*this);

  000d4	8b c3		 mov	 eax, ebx
  000d6	5b		 pop	 ebx

; 618  : 		}

  000d7	c2 08 00	 ret	 8

; 615  : 			_Eos(_Num);

$L209676:
  000da	8d 43 04	 lea	 eax, DWORD PTR [ebx+4]
  000dd	c6 04 28 00	 mov	 BYTE PTR [eax+ebp], 0
$L209679:
  000e1	5d		 pop	 ebp
  000e2	5f		 pop	 edi
  000e3	5e		 pop	 esi

; 616  : 			}
; 617  : 		return (*this);

  000e4	8b c3		 mov	 eax, ebx
  000e6	5b		 pop	 ebx

; 618  : 		}

  000e7	c2 08 00	 ret	 8
?assign@?$basic_string@DU?$char_traits@D@std@@V?$allocator@D@2@@std@@QAEAAV12@PBDI@Z ENDP ; std::basic_string<char,std::char_traits<char>,std::allocator<char> >::assign
_TEXT	ENDS
PUBLIC	?OnTimer@CTLord@@QAEXXZ				; CTLord::OnTimer
; Function compile flags: /Ogty
; File c:\documents and settings\test\mes documents\source\virtuos_v17\build\program\databaseserver\tlord.cpp
;	COMDAT ?OnTimer@CTLord@@QAEXXZ
_TEXT	SEGMENT
?OnTimer@CTLord@@QAEXXZ PROC NEAR			; CTLord::OnTimer, COMDAT
; _this$ = ecx

; 151  : {	// 	//  1		// m_pController 

  00000	53		 push	 ebx
  00001	56		 push	 esi
  00002	8b d9		 mov	 ebx, ecx

; 152  : 	TRACE( "CTLord.OnTimer: %d\n", time( NULL ) );
; 153  : 	CTElection* pElection	= static_cast<CTElection*>( GetElection() );

  00004	8b 73 08	 mov	 esi, DWORD PTR [ebx+8]

; 154  : 	pElection->OnTimer();

  00007	8b 46 70	 mov	 eax, DWORD PTR [esi+112]
  0000a	85 c0		 test	 eax, eax
  0000c	57		 push	 edi
  0000d	74 3c		 je	 SHORT $L209715
  0000f	8b 7e 10	 mov	 edi, DWORD PTR [esi+16]
  00012	8b ce		 mov	 ecx, esi
  00014	e8 00 00 00 00	 call	 ?GetPropertyState@IElection@@QAE?AW4ELECTION_STATE@1@XZ ; IElection::GetPropertyState
  00019	3b f8		 cmp	 edi, eax
  0001b	74 2e		 je	 SHORT $L209715
  0001d	8b 46 10	 mov	 eax, DWORD PTR [esi+16]
  00020	85 c0		 test	 eax, eax
  00022	75 09		 jne	 SHORT $L209711
  00024	8b ce		 mov	 ecx, esi
  00026	e8 00 00 00 00	 call	 ?BeginCandidacy@IElection@@QAEXXZ ; IElection::BeginCandidacy
  0002b	eb 1e		 jmp	 SHORT $L209715
$L209711:
  0002d	83 f8 01	 cmp	 eax, 1
  00030	75 0b		 jne	 SHORT $L209713
  00032	6a 00		 push	 0
  00034	8b ce		 mov	 ecx, esi
  00036	e8 00 00 00 00	 call	 ?BeginVote@IElection@@QAEXH@Z ; IElection::BeginVote
  0003b	eb 0e		 jmp	 SHORT $L209715
$L209713:
  0003d	83 f8 02	 cmp	 eax, 2
  00040	75 09		 jne	 SHORT $L209715
  00042	6a 00		 push	 0
  00044	8b ce		 mov	 ecx, esi
  00046	e8 00 00 00 00	 call	 ?EndVote@IElection@@QAEXK@Z ; IElection::EndVote
$L209715:

; 155  : 	CLEvent* pEvent	= static_cast<CLEvent*>( GetEvent() );

  0004b	8b 73 0c	 mov	 esi, DWORD PTR [ebx+12]

; 156  : 	pEvent->OnTimer();

  0004e	8b ce		 mov	 ecx, esi
  00050	e8 00 00 00 00	 call	 ?DecrementAllComponentTick@CLEvent@@IAEHXZ ; CLEvent::DecrementAllComponentTick
  00055	56		 push	 esi
  00056	8b f8		 mov	 edi, eax
  00058	e8 00 00 00 00	 call	 ?GetInstance@CDPTrans@@SAPAV1@XZ ; CDPTrans::GetInstance
  0005d	8b c8		 mov	 ecx, eax
  0005f	e8 00 00 00 00	 call	 ?SendLEventTick@CDPTrans@@QAEXPAVILordEvent@@@Z ; CDPTrans::SendLEventTick
  00064	85 ff		 test	 edi, edi
  00066	74 07		 je	 SHORT $L209733
  00068	8b ce		 mov	 ecx, esi
  0006a	e8 00 00 00 00	 call	 ?EraseExpiredComponents@ILordEvent@@QAEXXZ ; ILordEvent::EraseExpiredComponents
$L209733:

; 157  : 	CTLordSkill* pSkills	= static_cast<CTLordSkill*>( GetSkills() );
; 158  : 	pSkills->OnTimer();

  0006f	8b 4b 10	 mov	 ecx, DWORD PTR [ebx+16]
  00072	5f		 pop	 edi
  00073	5e		 pop	 esi
  00074	5b		 pop	 ebx
  00075	e9 00 00 00 00	 jmp	 ?OnTimer@CTLordSkill@@QAEXXZ ; CTLordSkill::OnTimer
?OnTimer@CTLord@@QAEXXZ ENDP				; CTLord::OnTimer
_TEXT	ENDS
PUBLIC	??_C@_0BL@GDEBELLG@CTElection?4DoReturnDeposit?$AA@ ; `string'
;	COMDAT ??_C@_0BL@GDEBELLG@CTElection?4DoReturnDeposit?$AA@
; File c:\program files\microsoft visual studio .net 2003\vc7\include\vector
CONST	SEGMENT
??_C@_0BL@GDEBELLG@CTElection?4DoReturnDeposit?$AA@ DB 'CTElection.DoRetu'
	DB	'rnDeposit', 00H				; `string'
; Function compile flags: /Ogty
; File c:\documents and settings\test\mes documents\source\virtuos_v17\build\program\databaseserver\tlord.cpp
CONST	ENDS
;	COMDAT ?DoReturnDeposit@CTElection@@MAEXXZ
_TEXT	SEGMENT
$T209745 = -4						; size = 4
?DoReturnDeposit@CTElection@@MAEXXZ PROC NEAR		; CTElection::DoReturnDeposit, COMDAT
; _this$ = ecx

; 411  : {	//       

  00000	51		 push	 ecx
  00001	56		 push	 esi

; 412  : 	// IElection::BeginVote
; 413  : 	election::OutputDebugString( "CTElection.DoReturnDeposit" );

  00002	68 00 00 00 00	 push	 OFFSET FLAT:??_C@_0BL@GDEBELLG@CTElection?4DoReturnDeposit?$AA@
  00007	8b f1		 mov	 esi, ecx
  00009	e8 00 00 00 00	 call	 ?OutputDebugStringA@election@@YAXPBDZZ ; election::OutputDebugStringA

; 414  : 	CLController* pController	= m_pLord->GetController();

  0000e	8b 4e 04	 mov	 ecx, DWORD PTR [esi+4]
  00011	8b 01		 mov	 eax, DWORD PTR [ecx]
  00013	83 c4 04	 add	 esp, 4
  00016	ff 50 08	 call	 DWORD PTR [eax+8]

; 415  : 
; 416  : 	for_each( m_vCandidates.begin() + IElection::nMaxCandidates, m_vCandidates.end(), PostDeposit( pController->GetQueryObject() ) );

  00019	8b 4e 1c	 mov	 ecx, DWORD PTR [esi+28]
  0001c	8b 40 0c	 mov	 eax, DWORD PTR [eax+12]
  0001f	8b 76 18	 mov	 esi, DWORD PTR [esi+24]
  00022	50		 push	 eax
  00023	51		 push	 ecx
  00024	83 c6 50	 add	 esi, 80			; 00000050H
  00027	8d 4c 24 0c	 lea	 ecx, DWORD PTR $T209745[esp+16]
  0002b	56		 push	 esi
  0002c	51		 push	 ecx
  0002d	e8 00 00 00 00	 call	 ??$for_each@Viterator@?$vector@V?$shared_ptr@VCCandidate@@@boost@@V?$allocator@V?$shared_ptr@VCCandidate@@@boost@@@std@@@std@@UPostDeposit@@@std@@YA?AUPostDeposit@@Viterator@?$vector@V?$shared_ptr@VCCandidate@@@boost@@V?$allocator@V?$shared_ptr@VCCandidate@@@boost@@@std@@@0@0U1@@Z ; std::for_each<std::vector<boost::shared_ptr<CCandidate>,std::allocator<boost::shared_ptr<CCandidate> > >::iterator,PostDeposit>
  00032	83 c4 10	 add	 esp, 16			; 00000010H
  00035	5e		 pop	 esi

; 417  : }

  00036	59		 pop	 ecx
  00037	c3		 ret	 0
?DoReturnDeposit@CTElection@@MAEXXZ ENDP		; CTElection::DoReturnDeposit
_TEXT	ENDS
PUBLIC	?PostDepositToAllCandidate@CTElection@@AAEXXZ	; CTElection::PostDepositToAllCandidate
; Function compile flags: /Ogty
;	COMDAT ?PostDepositToAllCandidate@CTElection@@AAEXXZ
_TEXT	SEGMENT
$T209799 = -4						; size = 4
?PostDepositToAllCandidate@CTElection@@AAEXXZ PROC NEAR	; CTElection::PostDepositToAllCandidate, COMDAT
; _this$ = ecx

; 449  : {	//    

  00000	51		 push	 ecx
  00001	56		 push	 esi
  00002	8b f1		 mov	 esi, ecx

; 450  : 	CLController* pController	= m_pLord->GetController();

  00004	8b 4e 04	 mov	 ecx, DWORD PTR [esi+4]
  00007	8b 01		 mov	 eax, DWORD PTR [ecx]
  00009	ff 50 08	 call	 DWORD PTR [eax+8]

; 451  : 	for_each( m_vCandidates.begin(), m_vCandidates.end(), PostDeposit( pController->GetQueryObject() ) );

  0000c	8b 40 0c	 mov	 eax, DWORD PTR [eax+12]
  0000f	8b 4e 1c	 mov	 ecx, DWORD PTR [esi+28]
  00012	8b 76 18	 mov	 esi, DWORD PTR [esi+24]
  00015	50		 push	 eax
  00016	51		 push	 ecx
  00017	8d 4c 24 0c	 lea	 ecx, DWORD PTR $T209799[esp+16]
  0001b	56		 push	 esi
  0001c	51		 push	 ecx
  0001d	e8 00 00 00 00	 call	 ??$for_each@Viterator@?$vector@V?$shared_ptr@VCCandidate@@@boost@@V?$allocator@V?$shared_ptr@VCCandidate@@@boost@@@std@@@std@@UPostDeposit@@@std@@YA?AUPostDeposit@@Viterator@?$vector@V?$shared_ptr@VCCandidate@@@boost@@V?$allocator@V?$shared_ptr@VCCandidate@@@boost@@@std@@@0@0U1@@Z ; std::for_each<std::vector<boost::shared_ptr<CCandidate>,std::allocator<boost::shared_ptr<CCandidate> > >::iterator,PostDeposit>
  00022	83 c4 10	 add	 esp, 16			; 00000010H
  00025	5e		 pop	 esi

; 452  : }

  00026	59		 pop	 ecx
  00027	c3		 ret	 0
?PostDepositToAllCandidate@CTElection@@AAEXXZ ENDP	; CTElection::PostDepositToAllCandidate
; Function compile flags: /Ogty
_TEXT	ENDS
;	COMDAT ?OnTimer@CLController@@UAEXXZ
_TEXT	SEGMENT
?OnTimer@CLController@@UAEXXZ PROC NEAR			; CLController::OnTimer, COMDAT
; _this$ = ecx

; 642  : 	m_pLord->OnTimer();

  00000	8b 49 14	 mov	 ecx, DWORD PTR [ecx+20]
  00003	e9 00 00 00 00	 jmp	 ?OnTimer@CTLord@@QAEXXZ	; CTLord::OnTimer
?OnTimer@CLController@@UAEXXZ ENDP			; CLController::OnTimer
_TEXT	ENDS
PUBLIC	??0?$basic_string@DU?$char_traits@D@std@@V?$allocator@D@2@@std@@QAE@ABV01@@Z ; std::basic_string<char,std::char_traits<char>,std::allocator<char> >::basic_string<char,std::char_traits<char>,std::allocator<char> >
; Function compile flags: /Ogty
; File c:\program files\microsoft visual studio .net 2003\vc7\include\xstring
;	COMDAT ??0?$basic_string@DU?$char_traits@D@std@@V?$allocator@D@2@@std@@QAE@ABV01@@Z
_TEXT	SEGMENT
__Right$ = 8						; size = 4
??0?$basic_string@DU?$char_traits@D@std@@V?$allocator@D@2@@std@@QAE@ABV01@@Z PROC NEAR ; std::basic_string<char,std::char_traits<char>,std::allocator<char> >::basic_string<char,std::char_traits<char>,std::allocator<char> >, COMDAT
; _this$ = ecx

; 323  : 		{	// construct by copying _Right

  00000	56		 push	 esi

; 324  : 		_Tidy();

  00001	33 c0		 xor	 eax, eax
  00003	8b f1		 mov	 esi, ecx

; 325  : 		assign(_Right, 0, npos);

  00005	6a ff		 push	 -1
  00007	89 46 14	 mov	 DWORD PTR [esi+20], eax
  0000a	c7 46 18 0f 00
	00 00		 mov	 DWORD PTR [esi+24], 15	; 0000000fH
  00011	50		 push	 eax
  00012	88 46 04	 mov	 BYTE PTR [esi+4], al
  00015	8b 44 24 10	 mov	 eax, DWORD PTR __Right$[esp+8]
  00019	50		 push	 eax
  0001a	e8 00 00 00 00	 call	 ?assign@?$basic_string@DU?$char_traits@D@std@@V?$allocator@D@2@@std@@QAEAAV12@ABV12@II@Z ; std::basic_string<char,std::char_traits<char>,std::allocator<char> >::assign

; 326  : 		}

  0001f	8b c6		 mov	 eax, esi
  00021	5e		 pop	 esi
  00022	c2 04 00	 ret	 4
??0?$basic_string@DU?$char_traits@D@std@@V?$allocator@D@2@@std@@QAE@ABV01@@Z ENDP ; std::basic_string<char,std::char_traits<char>,std::allocator<char> >::basic_string<char,std::char_traits<char>,std::allocator<char> >
_TEXT	ENDS
PUBLIC	??4?$CSimpleStringT@D$0A@@ATL@@QAEAAV01@PBD@Z	; ATL::CSimpleStringT<char,0>::operator=
; Function compile flags: /Ogty
; File c:\program files\microsoft visual studio .net 2003\vc7\atlmfc\include\atlsimpstr.h
;	COMDAT ??4?$CSimpleStringT@D$0A@@ATL@@QAEAAV01@PBD@Z
_TEXT	SEGMENT
_pszSrc$ = 8						; size = 4
??4?$CSimpleStringT@D$0A@@ATL@@QAEAAV01@PBD@Z PROC NEAR	; ATL::CSimpleStringT<char,0>::operator=, COMDAT
; _this$ = ecx

; 316  : 		SetString( pszSrc );

  00000	8b 54 24 04	 mov	 edx, DWORD PTR _pszSrc$[esp-4]
  00004	85 d2		 test	 edx, edx
  00006	57		 push	 edi
  00007	8b f9		 mov	 edi, ecx
  00009	75 0f		 jne	 SHORT $L209918
  0000b	33 c0		 xor	 eax, eax
  0000d	50		 push	 eax
  0000e	52		 push	 edx
  0000f	e8 00 00 00 00	 call	 ?SetString@?$CSimpleStringT@D$0A@@ATL@@QAEXPBDH@Z ; ATL::CSimpleStringT<char,0>::SetString

; 317  : 
; 318  : 		return( *this );

  00014	8b c7		 mov	 eax, edi
  00016	5f		 pop	 edi

; 319  : 	}

  00017	c2 04 00	 ret	 4

; 316  : 		SetString( pszSrc );

$L209918:
  0001a	8b c2		 mov	 eax, edx
  0001c	56		 push	 esi
  0001d	8d 70 01	 lea	 esi, DWORD PTR [eax+1]
$L209920:
  00020	8a 08		 mov	 cl, BYTE PTR [eax]
  00022	40		 inc	 eax
  00023	84 c9		 test	 cl, cl
  00025	75 f9		 jne	 SHORT $L209920
  00027	2b c6		 sub	 eax, esi
  00029	5e		 pop	 esi
  0002a	50		 push	 eax
  0002b	52		 push	 edx
  0002c	8b cf		 mov	 ecx, edi
  0002e	e8 00 00 00 00	 call	 ?SetString@?$CSimpleStringT@D$0A@@ATL@@QAEXPBDH@Z ; ATL::CSimpleStringT<char,0>::SetString

; 317  : 
; 318  : 		return( *this );

  00033	8b c7		 mov	 eax, edi
  00035	5f		 pop	 edi

; 319  : 	}

  00036	c2 04 00	 ret	 4
??4?$CSimpleStringT@D$0A@@ATL@@QAEAAV01@PBD@Z ENDP	; ATL::CSimpleStringT<char,0>::operator=
_TEXT	ENDS
PUBLIC	?assign@?$basic_string@DU?$char_traits@D@std@@V?$allocator@D@2@@std@@QAEAAV12@PBD@Z ; std::basic_string<char,std::char_traits<char>,std::allocator<char> >::assign
; Function compile flags: /Ogty
; File c:\program files\microsoft visual studio .net 2003\vc7\include\xstring
;	COMDAT ?assign@?$basic_string@DU?$char_traits@D@std@@V?$allocator@D@2@@std@@QAEAAV12@PBD@Z
_TEXT	SEGMENT
__Ptr$ = 8						; size = 4
?assign@?$basic_string@DU?$char_traits@D@std@@V?$allocator@D@2@@std@@QAEAAV12@PBD@Z PROC NEAR ; std::basic_string<char,std::char_traits<char>,std::allocator<char> >::assign, COMDAT
; _this$ = ecx

; 621  : 		{	// assign [_Ptr, <null>)

  00000	56		 push	 esi

; 622  : 		return (assign(_Ptr, _Traits::length(_Ptr)));

  00001	8b 74 24 08	 mov	 esi, DWORD PTR __Ptr$[esp]
  00005	8b c6		 mov	 eax, esi
  00007	57		 push	 edi
  00008	8d 78 01	 lea	 edi, DWORD PTR [eax+1]
  0000b	eb 03 8d 49 00	 npad	 5
$L209926:
  00010	8a 10		 mov	 dl, BYTE PTR [eax]
  00012	40		 inc	 eax
  00013	84 d2		 test	 dl, dl
  00015	75 f9		 jne	 SHORT $L209926
  00017	2b c7		 sub	 eax, edi
  00019	50		 push	 eax
  0001a	56		 push	 esi
  0001b	e8 00 00 00 00	 call	 ?assign@?$basic_string@DU?$char_traits@D@std@@V?$allocator@D@2@@std@@QAEAAV12@PBDI@Z ; std::basic_string<char,std::char_traits<char>,std::allocator<char> >::assign
  00020	5f		 pop	 edi
  00021	5e		 pop	 esi

; 623  : 		}

  00022	c2 04 00	 ret	 4
?assign@?$basic_string@DU?$char_traits@D@std@@V?$allocator@D@2@@std@@QAEAAV12@PBD@Z ENDP ; std::basic_string<char,std::char_traits<char>,std::allocator<char> >::assign
_TEXT	ENDS
PUBLIC	??0logic_error@std@@QAE@ABV?$basic_string@DU?$char_traits@D@std@@V?$allocator@D@2@@1@@Z ; std::logic_error::logic_error
EXTRN	??0exception@@QAE@XZ:NEAR			; exception::exception
;	COMDAT xdata$x
; File c:\program files\microsoft visual studio .net 2003\vc7\include\iosfwd
xdata$x	SEGMENT
$T210029 DD	0ffffffffH
	DD	FLAT:$L209929
$T210027 DD	019930520H
	DD	01H
	DD	FLAT:$T210029
	DD	2 DUP(00H)
	DD	2 DUP(00H)
; Function compile flags: /Ogty
; File c:\program files\microsoft visual studio .net 2003\vc7\include\stdexcept
xdata$x	ENDS
;	COMDAT ??0logic_error@std@@QAE@ABV?$basic_string@DU?$char_traits@D@std@@V?$allocator@D@2@@1@@Z
_TEXT	SEGMENT
_this$ = -16						; size = 4
__$EHRec$ = -12						; size = 12
__Message$ = 8						; size = 4
??0logic_error@std@@QAE@ABV?$basic_string@DU?$char_traits@D@std@@V?$allocator@D@2@@1@@Z PROC NEAR ; std::logic_error::logic_error, COMDAT
; _this$ = ecx

; 19   : 		{	// construct from message string

  00000	6a ff		 push	 -1
  00002	68 00 00 00 00	 push	 __ehhandler$??0logic_error@std@@QAE@ABV?$basic_string@DU?$char_traits@D@std@@V?$allocator@D@2@@1@@Z
  00007	64 a1 00 00 00
	00		 mov	 eax, DWORD PTR fs:__except_list
  0000d	50		 push	 eax
  0000e	64 89 25 00 00
	00 00		 mov	 DWORD PTR fs:__except_list, esp
  00015	51		 push	 ecx
  00016	56		 push	 esi
  00017	8b f1		 mov	 esi, ecx
  00019	89 74 24 04	 mov	 DWORD PTR _this$[esp+20], esi
  0001d	e8 00 00 00 00	 call	 ??0exception@@QAE@XZ	; exception::exception
  00022	33 c0		 xor	 eax, eax
  00024	8d 4e 0c	 lea	 ecx, DWORD PTR [esi+12]
  00027	c7 06 00 00 00
	00		 mov	 DWORD PTR [esi], OFFSET FLAT:??_7logic_error@std@@6B@
  0002d	6a ff		 push	 -1
  0002f	89 41 14	 mov	 DWORD PTR [ecx+20], eax
  00032	c7 41 18 0f 00
	00 00		 mov	 DWORD PTR [ecx+24], 15	; 0000000fH
  00039	50		 push	 eax
  0003a	89 44 24 18	 mov	 DWORD PTR __$EHRec$[esp+36], eax
  0003e	88 41 04	 mov	 BYTE PTR [ecx+4], al
  00041	8b 44 24 20	 mov	 eax, DWORD PTR __Message$[esp+24]
  00045	50		 push	 eax
  00046	e8 00 00 00 00	 call	 ?assign@?$basic_string@DU?$char_traits@D@std@@V?$allocator@D@2@@std@@QAEAAV12@ABV12@II@Z ; std::basic_string<char,std::char_traits<char>,std::allocator<char> >::assign

; 20   : 		}

  0004b	8b 4c 24 08	 mov	 ecx, DWORD PTR __$EHRec$[esp+20]
  0004f	8b c6		 mov	 eax, esi
  00051	5e		 pop	 esi
  00052	64 89 0d 00 00
	00 00		 mov	 DWORD PTR fs:__except_list, ecx
  00059	83 c4 10	 add	 esp, 16			; 00000010H
  0005c	c2 04 00	 ret	 4
_TEXT	ENDS
;	COMDAT text$x
text$x	SEGMENT
$L209929:
  00000	8b 4d f0	 mov	 ecx, DWORD PTR _this$[ebp]
  00003	e9 00 00 00 00	 jmp	 ??1exception@@UAE@XZ	; exception::~exception
__ehhandler$??0logic_error@std@@QAE@ABV?$basic_string@DU?$char_traits@D@std@@V?$allocator@D@2@@1@@Z:
  00008	b8 00 00 00 00	 mov	 eax, OFFSET FLAT:$T210027
  0000d	e9 00 00 00 00	 jmp	 ___CxxFrameHandler
text$x	ENDS
??0logic_error@std@@QAE@ABV?$basic_string@DU?$char_traits@D@std@@V?$allocator@D@2@@1@@Z ENDP ; std::logic_error::logic_error
PUBLIC	??0length_error@std@@QAE@ABV?$basic_string@DU?$char_traits@D@std@@V?$allocator@D@2@@1@@Z ; std::length_error::length_error
PUBLIC	??_7length_error@std@@6B@			; std::length_error::`vftable'
PUBLIC	??_Glength_error@std@@UAEPAXI@Z			; std::length_error::`scalar deleting destructor'
EXTRN	??_Elength_error@std@@UAEPAXI@Z:NEAR		; std::length_error::`vector deleting destructor'
;	COMDAT ??_7length_error@std@@6B@
CONST	SEGMENT
??_7length_error@std@@6B@ DD FLAT:??_Elength_error@std@@UAEPAXI@Z ; std::length_error::`vftable'
	DD	FLAT:?what@logic_error@std@@UBEPBDXZ
; Function compile flags: /Ogty
CONST	ENDS
;	COMDAT ??0length_error@std@@QAE@ABV?$basic_string@DU?$char_traits@D@std@@V?$allocator@D@2@@1@@Z
_TEXT	SEGMENT
__Message$ = 8						; size = 4
??0length_error@std@@QAE@ABV?$basic_string@DU?$char_traits@D@std@@V?$allocator@D@2@@1@@Z PROC NEAR ; std::length_error::length_error, COMDAT
; _this$ = ecx

; 95   : 		{	// construct from message string

  00000	8b 44 24 04	 mov	 eax, DWORD PTR __Message$[esp-4]
  00004	56		 push	 esi
  00005	50		 push	 eax
  00006	8b f1		 mov	 esi, ecx
  00008	e8 00 00 00 00	 call	 ??0logic_error@std@@QAE@ABV?$basic_string@DU?$char_traits@D@std@@V?$allocator@D@2@@1@@Z ; std::logic_error::logic_error
  0000d	c7 06 00 00 00
	00		 mov	 DWORD PTR [esi], OFFSET FLAT:??_7length_error@std@@6B@

; 96   : 		}

  00013	8b c6		 mov	 eax, esi
  00015	5e		 pop	 esi
  00016	c2 04 00	 ret	 4
??0length_error@std@@QAE@ABV?$basic_string@DU?$char_traits@D@std@@V?$allocator@D@2@@1@@Z ENDP ; std::length_error::length_error
_TEXT	ENDS
PUBLIC	??1length_error@std@@UAE@XZ			; std::length_error::~length_error
; Function compile flags: /Ogty
;	COMDAT ??_Glength_error@std@@UAEPAXI@Z
_TEXT	SEGMENT
___flags$ = 8						; size = 4
??_Glength_error@std@@UAEPAXI@Z PROC NEAR		; std::length_error::`scalar deleting destructor', COMDAT
; _this$ = ecx
  00000	56		 push	 esi
  00001	8b f1		 mov	 esi, ecx
  00003	e8 00 00 00 00	 call	 ??1length_error@std@@UAE@XZ ; std::length_error::~length_error
  00008	f6 44 24 08 01	 test	 BYTE PTR ___flags$[esp], 1
  0000d	74 09		 je	 SHORT $L210037
  0000f	56		 push	 esi
  00010	e8 00 00 00 00	 call	 ??3@YAXPAX@Z		; operator delete
  00015	83 c4 04	 add	 esp, 4
$L210037:
  00018	8b c6		 mov	 eax, esi
  0001a	5e		 pop	 esi
  0001b	c2 04 00	 ret	 4
??_Glength_error@std@@UAEPAXI@Z ENDP			; std::length_error::`scalar deleting destructor'
; Function compile flags: /Ogty
_TEXT	ENDS
;	COMDAT ??1length_error@std@@UAE@XZ
_TEXT	SEGMENT
??1length_error@std@@UAE@XZ PROC NEAR			; std::length_error::~length_error, COMDAT
; _this$ = ecx

; 99   : 		{}	// destroy the object

  00000	56		 push	 esi
  00001	8b f1		 mov	 esi, ecx
  00003	c7 06 00 00 00
	00		 mov	 DWORD PTR [esi], OFFSET FLAT:??_7logic_error@std@@6B@
  00009	83 7e 24 10	 cmp	 DWORD PTR [esi+36], 16	; 00000010H
  0000d	72 0c		 jb	 SHORT $L210130
  0000f	8b 46 10	 mov	 eax, DWORD PTR [esi+16]
  00012	50		 push	 eax
  00013	e8 00 00 00 00	 call	 ??3@YAXPAX@Z		; operator delete
  00018	83 c4 04	 add	 esp, 4
$L210130:
  0001b	33 c0		 xor	 eax, eax
  0001d	c7 46 24 0f 00
	00 00		 mov	 DWORD PTR [esi+36], 15	; 0000000fH
  00024	89 46 20	 mov	 DWORD PTR [esi+32], eax
  00027	88 46 10	 mov	 BYTE PTR [esi+16], al
  0002a	8b ce		 mov	 ecx, esi
  0002c	5e		 pop	 esi
  0002d	e9 00 00 00 00	 jmp	 ??1exception@@UAE@XZ	; exception::~exception
??1length_error@std@@UAE@XZ ENDP			; std::length_error::~length_error
_TEXT	ENDS
PUBLIC	??4?$CStringT@DV?$StrTraitMFC@DV?$ChTraitsCRT@D@ATL@@@@@ATL@@QAEAAV01@PBD@Z ; ATL::CStringT<char,StrTraitMFC<char,ATL::ChTraitsCRT<char> > >::operator=
; Function compile flags: /Ogty
; File c:\program files\microsoft visual studio .net 2003\vc7\atlmfc\include\cstringt.h
;	COMDAT ??4?$CStringT@DV?$StrTraitMFC@DV?$ChTraitsCRT@D@ATL@@@@@ATL@@QAEAAV01@PBD@Z
_TEXT	SEGMENT
_pszSrc$ = 8						; size = 4
??4?$CStringT@DV?$StrTraitMFC@DV?$ChTraitsCRT@D@ATL@@@@@ATL@@QAEAAV01@PBD@Z PROC NEAR ; ATL::CStringT<char,StrTraitMFC<char,ATL::ChTraitsCRT<char> > >::operator=, COMDAT
; _this$ = ecx

; 983  : 		CThisSimpleString::operator=( pszSrc );

  00000	8b 54 24 04	 mov	 edx, DWORD PTR _pszSrc$[esp-4]
  00004	85 d2		 test	 edx, edx
  00006	57		 push	 edi
  00007	8b f9		 mov	 edi, ecx
  00009	75 0f		 jne	 SHORT $L210161
  0000b	33 c0		 xor	 eax, eax
  0000d	50		 push	 eax
  0000e	52		 push	 edx
  0000f	e8 00 00 00 00	 call	 ?SetString@?$CSimpleStringT@D$0A@@ATL@@QAEXPBDH@Z ; ATL::CSimpleStringT<char,0>::SetString

; 984  : 
; 985  : 		return( *this );

  00014	8b c7		 mov	 eax, edi
  00016	5f		 pop	 edi

; 986  : 	}

  00017	c2 04 00	 ret	 4

; 983  : 		CThisSimpleString::operator=( pszSrc );

$L210161:
  0001a	8b c2		 mov	 eax, edx
  0001c	56		 push	 esi
  0001d	8d 70 01	 lea	 esi, DWORD PTR [eax+1]
$L210164:
  00020	8a 08		 mov	 cl, BYTE PTR [eax]
  00022	40		 inc	 eax
  00023	84 c9		 test	 cl, cl
  00025	75 f9		 jne	 SHORT $L210164
  00027	2b c6		 sub	 eax, esi
  00029	5e		 pop	 esi
  0002a	50		 push	 eax
  0002b	52		 push	 edx
  0002c	8b cf		 mov	 ecx, edi
  0002e	e8 00 00 00 00	 call	 ?SetString@?$CSimpleStringT@D$0A@@ATL@@QAEXPBDH@Z ; ATL::CSimpleStringT<char,0>::SetString

; 984  : 
; 985  : 		return( *this );

  00033	8b c7		 mov	 eax, edi
  00035	5f		 pop	 edi

; 986  : 	}

  00036	c2 04 00	 ret	 4
??4?$CStringT@DV?$StrTraitMFC@DV?$ChTraitsCRT@D@ATL@@@@@ATL@@QAEAAV01@PBD@Z ENDP ; ATL::CStringT<char,StrTraitMFC<char,ATL::ChTraitsCRT<char> > >::operator=
_TEXT	ENDS
PUBLIC	??0?$basic_string@DU?$char_traits@D@std@@V?$allocator@D@2@@std@@QAE@PBD@Z ; std::basic_string<char,std::char_traits<char>,std::allocator<char> >::basic_string<char,std::char_traits<char>,std::allocator<char> >
; Function compile flags: /Ogty
; File c:\program files\microsoft visual studio .net 2003\vc7\include\xstring
;	COMDAT ??0?$basic_string@DU?$char_traits@D@std@@V?$allocator@D@2@@std@@QAE@PBD@Z
_TEXT	SEGMENT
__Ptr$ = 8						; size = 4
??0?$basic_string@DU?$char_traits@D@std@@V?$allocator@D@2@@std@@QAE@PBD@Z PROC NEAR ; std::basic_string<char,std::char_traits<char>,std::allocator<char> >::basic_string<char,std::char_traits<char>,std::allocator<char> >, COMDAT
; _this$ = ecx

; 361  : 		_Tidy();
; 362  : 		assign(_Ptr);

  00000	8b 54 24 04	 mov	 edx, DWORD PTR __Ptr$[esp-4]
  00004	56		 push	 esi
  00005	8b f1		 mov	 esi, ecx
  00007	8b c2		 mov	 eax, edx
  00009	57		 push	 edi
  0000a	c7 46 18 0f 00
	00 00		 mov	 DWORD PTR [esi+24], 15	; 0000000fH
  00011	c7 46 14 00 00
	00 00		 mov	 DWORD PTR [esi+20], 0
  00018	c6 46 04 00	 mov	 BYTE PTR [esi+4], 0
  0001c	8d 78 01	 lea	 edi, DWORD PTR [eax+1]
  0001f	90		 npad	 1
$L210239:
  00020	8a 08		 mov	 cl, BYTE PTR [eax]
  00022	40		 inc	 eax
  00023	84 c9		 test	 cl, cl
  00025	75 f9		 jne	 SHORT $L210239
  00027	2b c7		 sub	 eax, edi
  00029	50		 push	 eax
  0002a	52		 push	 edx
  0002b	8b ce		 mov	 ecx, esi
  0002d	e8 00 00 00 00	 call	 ?assign@?$basic_string@DU?$char_traits@D@std@@V?$allocator@D@2@@std@@QAEAAV12@PBDI@Z ; std::basic_string<char,std::char_traits<char>,std::allocator<char> >::assign
  00032	5f		 pop	 edi

; 363  : 		}

  00033	8b c6		 mov	 eax, esi
  00035	5e		 pop	 esi
  00036	c2 04 00	 ret	 4
??0?$basic_string@DU?$char_traits@D@std@@V?$allocator@D@2@@std@@QAE@PBD@Z ENDP ; std::basic_string<char,std::char_traits<char>,std::allocator<char> >::basic_string<char,std::char_traits<char>,std::allocator<char> >
_TEXT	ENDS
PUBLIC	??_R0?AVlogic_error@std@@@8			; std::logic_error `RTTI Type Descriptor'
PUBLIC	__CT??_R0?AVlogic_error@std@@@8??0logic_error@std@@QAE@ABV01@@Z40
PUBLIC	??_R0?AVexception@@@8				; exception `RTTI Type Descriptor'
PUBLIC	__CT??_R0?AVexception@@@8??0exception@@QAE@ABV0@@Z12
PUBLIC	??0logic_error@std@@QAE@ABV01@@Z		; std::logic_error::logic_error
PUBLIC	??0length_error@std@@QAE@ABV01@@Z		; std::length_error::length_error
PUBLIC	?_Xlen@?$vector@MV?$allocator@M@std@@@std@@IBEXXZ ; std::vector<float,std::allocator<float> >::_Xlen
PUBLIC	__TI3?AVlength_error@std@@
PUBLIC	__CTA3?AVlength_error@std@@
PUBLIC	??_R0?AVlength_error@std@@@8			; std::length_error `RTTI Type Descriptor'
PUBLIC	__CT??_R0?AVlength_error@std@@@8??0length_error@std@@QAE@ABV01@@Z40
PUBLIC	??_C@_0BD@OLBABOEK@vector?$DMT?$DO?5too?5long?$AA@ ; `string'
EXTRN	??0exception@@QAE@ABV0@@Z:NEAR			; exception::exception
EXTRN	??_7type_info@@6B@:DWORD			; type_info::`vftable'
;	COMDAT xdata$x
; File c:\program files\microsoft visual studio .net 2003\vc7\include\stdexcept
xdata$x	SEGMENT
$T210359 DD	0ffffffffH
	DD	FLAT:$L210244
$T210356 DD	019930520H
	DD	01H
	DD	FLAT:$T210359
	DD	2 DUP(00H)
	DD	2 DUP(00H)
xdata$x	ENDS
;	COMDAT ??_C@_0BD@OLBABOEK@vector?$DMT?$DO?5too?5long?$AA@
CONST	SEGMENT
??_C@_0BD@OLBABOEK@vector?$DMT?$DO?5too?5long?$AA@ DB 'vector<T> too long'
	DB	00H						; `string'
CONST	ENDS
;	COMDAT __TI3?AVlength_error@std@@
xdata$x	SEGMENT
__TI3?AVlength_error@std@@ DD 00H
	DD	FLAT:??1length_error@std@@UAE@XZ
	DD	00H
	DD	FLAT:__CTA3?AVlength_error@std@@
xdata$x	ENDS
;	COMDAT __CTA3?AVlength_error@std@@
xdata$x	SEGMENT
__CTA3?AVlength_error@std@@ DD 03H
	DD	FLAT:__CT??_R0?AVlength_error@std@@@8??0length_error@std@@QAE@ABV01@@Z40
	DD	FLAT:__CT??_R0?AVlogic_error@std@@@8??0logic_error@std@@QAE@ABV01@@Z40
	DD	FLAT:__CT??_R0?AVexception@@@8??0exception@@QAE@ABV0@@Z12
xdata$x	ENDS
;	COMDAT __CT??_R0?AVlength_error@std@@@8??0length_error@std@@QAE@ABV01@@Z40
xdata$x	SEGMENT
__CT??_R0?AVlength_error@std@@@8??0length_error@std@@QAE@ABV01@@Z40 DD 00H
	DD	FLAT:??_R0?AVlength_error@std@@@8
	DD	00H
	DD	0ffffffffH
	ORG $+4
	DD	028H
	DD	FLAT:??0length_error@std@@QAE@ABV01@@Z
xdata$x	ENDS
;	COMDAT ??_R0?AVlength_error@std@@@8
_DATA	SEGMENT
??_R0?AVlength_error@std@@@8 DD FLAT:??_7type_info@@6B@	; std::length_error `RTTI Type Descriptor'
	DD	00H
	DB	'.?AVlength_error@std@@', 00H
_DATA	ENDS
;	COMDAT __CT??_R0?AVlogic_error@std@@@8??0logic_error@std@@QAE@ABV01@@Z40
xdata$x	SEGMENT
__CT??_R0?AVlogic_error@std@@@8??0logic_error@std@@QAE@ABV01@@Z40 DD 00H
	DD	FLAT:??_R0?AVlogic_error@std@@@8
	DD	00H
	DD	0ffffffffH
	ORG $+4
	DD	028H
	DD	FLAT:??0logic_error@std@@QAE@ABV01@@Z
xdata$x	ENDS
;	COMDAT ??_R0?AVlogic_error@std@@@8
_DATA	SEGMENT
??_R0?AVlogic_error@std@@@8 DD FLAT:??_7type_info@@6B@	; std::logic_error `RTTI Type Descriptor'
	DD	00H
	DB	'.?AVlogic_error@std@@', 00H
_DATA	ENDS
;	COMDAT __CT??_R0?AVexception@@@8??0exception@@QAE@ABV0@@Z12
xdata$x	SEGMENT
__CT??_R0?AVexception@@@8??0exception@@QAE@ABV0@@Z12 DD 00H
	DD	FLAT:??_R0?AVexception@@@8
	DD	00H
	DD	0ffffffffH
	ORG $+4
	DD	0cH
	DD	FLAT:??0exception@@QAE@ABV0@@Z
xdata$x	ENDS
;	COMDAT ??_R0?AVexception@@@8
_DATA	SEGMENT
??_R0?AVexception@@@8 DD FLAT:??_7type_info@@6B@	; exception `RTTI Type Descriptor'
	DD	00H
	DB	'.?AVexception@@', 00H
; Function compile flags: /Ogty
; File c:\program files\microsoft visual studio .net 2003\vc7\include\vector
_DATA	ENDS
;	COMDAT ?_Xlen@?$vector@MV?$allocator@M@std@@@std@@IBEXXZ
_TEXT	SEGMENT
$T210243 = -80						; size = 28
$T210242 = -52						; size = 40
__$EHRec$ = -12						; size = 12
?_Xlen@?$vector@MV?$allocator@M@std@@@std@@IBEXXZ PROC NEAR ; std::vector<float,std::allocator<float> >::_Xlen, COMDAT
; _this$ = ecx

; 883  : 		{	// report a length_error

  00000	6a ff		 push	 -1
  00002	68 00 00 00 00	 push	 __ehhandler$?_Xlen@?$vector@MV?$allocator@M@std@@@std@@IBEXXZ
  00007	64 a1 00 00 00
	00		 mov	 eax, DWORD PTR fs:__except_list
  0000d	50		 push	 eax
  0000e	64 89 25 00 00
	00 00		 mov	 DWORD PTR fs:__except_list, esp
  00015	83 ec 44	 sub	 esp, 68			; 00000044H

; 884  : 		_THROW(length_error, "vector<T> too long");

  00018	6a 12		 push	 18			; 00000012H
  0001a	68 00 00 00 00	 push	 OFFSET FLAT:??_C@_0BD@OLBABOEK@vector?$DMT?$DO?5too?5long?$AA@
  0001f	8d 4c 24 08	 lea	 ecx, DWORD PTR $T210243[esp+88]
  00023	c7 44 24 20 0f
	00 00 00	 mov	 DWORD PTR $T210243[esp+112], 15 ; 0000000fH
  0002b	c7 44 24 1c 00
	00 00 00	 mov	 DWORD PTR $T210243[esp+108], 0
  00033	c6 44 24 0c 00	 mov	 BYTE PTR $T210243[esp+92], 0
  00038	e8 00 00 00 00	 call	 ?assign@?$basic_string@DU?$char_traits@D@std@@V?$allocator@D@2@@std@@QAEAAV12@PBDI@Z ; std::basic_string<char,std::char_traits<char>,std::allocator<char> >::assign
  0003d	8d 04 24	 lea	 eax, DWORD PTR $T210243[esp+80]
  00040	50		 push	 eax
  00041	8d 4c 24 20	 lea	 ecx, DWORD PTR $T210242[esp+84]
  00045	c7 44 24 50 00
	00 00 00	 mov	 DWORD PTR __$EHRec$[esp+92], 0
  0004d	e8 00 00 00 00	 call	 ??0logic_error@std@@QAE@ABV?$basic_string@DU?$char_traits@D@std@@V?$allocator@D@2@@1@@Z ; std::logic_error::logic_error
  00052	68 00 00 00 00	 push	 OFFSET FLAT:__TI3?AVlength_error@std@@
  00057	8d 4c 24 20	 lea	 ecx, DWORD PTR $T210242[esp+84]
  0005b	51		 push	 ecx
  0005c	c7 44 24 24 00
	00 00 00	 mov	 DWORD PTR $T210242[esp+88], OFFSET FLAT:??_7length_error@std@@6B@
  00064	e8 00 00 00 00	 call	 __CxxThrowException@8
$L210358:
  00069	cc		 int	 3
_TEXT	ENDS
;	COMDAT text$x
text$x	SEGMENT
$L210244:
  00000	8d 4d b0	 lea	 ecx, DWORD PTR $T210243[ebp]
  00003	e9 00 00 00 00	 jmp	 ??1?$basic_string@DU?$char_traits@D@std@@V?$allocator@D@2@@std@@QAE@XZ ; std::basic_string<char,std::char_traits<char>,std::allocator<char> >::~basic_string<char,std::char_traits<char>,std::allocator<char> >
__ehhandler$?_Xlen@?$vector@MV?$allocator@M@std@@@std@@IBEXXZ:
  00008	b8 00 00 00 00	 mov	 eax, OFFSET FLAT:$T210356
  0000d	e9 00 00 00 00	 jmp	 ___CxxFrameHandler
text$x	ENDS
?_Xlen@?$vector@MV?$allocator@M@std@@@std@@IBEXXZ ENDP	; std::vector<float,std::allocator<float> >::_Xlen
;	COMDAT xdata$x
xdata$x	SEGMENT
$T210464 DD	0ffffffffH
	DD	FLAT:$L210364
$T210462 DD	019930520H
	DD	01H
	DD	FLAT:$T210464
	DD	2 DUP(00H)
	DD	2 DUP(00H)
; Function compile flags: /Ogty
xdata$x	ENDS
;	COMDAT ??0logic_error@std@@QAE@ABV01@@Z
_TEXT	SEGMENT
_this$ = -16						; size = 4
__$EHRec$ = -12						; size = 12
___that$ = 8						; size = 4
??0logic_error@std@@QAE@ABV01@@Z PROC NEAR		; std::logic_error::logic_error, COMDAT
; _this$ = ecx
  00000	6a ff		 push	 -1
  00002	68 00 00 00 00	 push	 __ehhandler$??0logic_error@std@@QAE@ABV01@@Z
  00007	64 a1 00 00 00
	00		 mov	 eax, DWORD PTR fs:__except_list
  0000d	50		 push	 eax
  0000e	64 89 25 00 00
	00 00		 mov	 DWORD PTR fs:__except_list, esp
  00015	51		 push	 ecx
  00016	56		 push	 esi
  00017	57		 push	 edi
  00018	8b 7c 24 1c	 mov	 edi, DWORD PTR ___that$[esp+20]
  0001c	8b f1		 mov	 esi, ecx
  0001e	57		 push	 edi
  0001f	89 74 24 0c	 mov	 DWORD PTR _this$[esp+28], esi
  00023	e8 00 00 00 00	 call	 ??0exception@@QAE@ABV0@@Z ; exception::exception
  00028	33 c0		 xor	 eax, eax
  0002a	6a ff		 push	 -1
  0002c	8d 4e 0c	 lea	 ecx, DWORD PTR [esi+12]
  0002f	c7 06 00 00 00
	00		 mov	 DWORD PTR [esi], OFFSET FLAT:??_7logic_error@std@@6B@
  00035	50		 push	 eax
  00036	83 c7 0c	 add	 edi, 12			; 0000000cH
  00039	c7 41 18 0f 00
	00 00		 mov	 DWORD PTR [ecx+24], 15	; 0000000fH
  00040	89 41 14	 mov	 DWORD PTR [ecx+20], eax
  00043	57		 push	 edi
  00044	89 44 24 20	 mov	 DWORD PTR __$EHRec$[esp+44], eax
  00048	88 41 04	 mov	 BYTE PTR [ecx+4], al
  0004b	e8 00 00 00 00	 call	 ?assign@?$basic_string@DU?$char_traits@D@std@@V?$allocator@D@2@@std@@QAEAAV12@ABV12@II@Z ; std::basic_string<char,std::char_traits<char>,std::allocator<char> >::assign
  00050	8b 4c 24 0c	 mov	 ecx, DWORD PTR __$EHRec$[esp+24]
  00054	5f		 pop	 edi
  00055	8b c6		 mov	 eax, esi
  00057	5e		 pop	 esi
  00058	64 89 0d 00 00
	00 00		 mov	 DWORD PTR fs:__except_list, ecx
  0005f	83 c4 10	 add	 esp, 16			; 00000010H
  00062	c2 04 00	 ret	 4
_TEXT	ENDS
;	COMDAT text$x
text$x	SEGMENT
$L210364:
  00000	8b 4d f0	 mov	 ecx, DWORD PTR _this$[ebp]
  00003	e9 00 00 00 00	 jmp	 ??1exception@@UAE@XZ	; exception::~exception
__ehhandler$??0logic_error@std@@QAE@ABV01@@Z:
  00008	b8 00 00 00 00	 mov	 eax, OFFSET FLAT:$T210462
  0000d	e9 00 00 00 00	 jmp	 ___CxxFrameHandler
text$x	ENDS
??0logic_error@std@@QAE@ABV01@@Z ENDP			; std::logic_error::logic_error
; Function compile flags: /Ogty
;	COMDAT ??0length_error@std@@QAE@ABV01@@Z
_TEXT	SEGMENT
___that$ = 8						; size = 4
??0length_error@std@@QAE@ABV01@@Z PROC NEAR		; std::length_error::length_error, COMDAT
; _this$ = ecx
  00000	8b 44 24 04	 mov	 eax, DWORD PTR ___that$[esp-4]
  00004	56		 push	 esi
  00005	50		 push	 eax
  00006	8b f1		 mov	 esi, ecx
  00008	e8 00 00 00 00	 call	 ??0logic_error@std@@QAE@ABV01@@Z
  0000d	c7 06 00 00 00
	00		 mov	 DWORD PTR [esi], OFFSET FLAT:??_7length_error@std@@6B@
  00013	8b c6		 mov	 eax, esi
  00015	5e		 pop	 esi
  00016	c2 04 00	 ret	 4
??0length_error@std@@QAE@ABV01@@Z ENDP			; std::length_error::length_error
_TEXT	ENDS
PUBLIC	?_Xlen@?$vector@HV?$allocator@H@std@@@std@@IBEXXZ ; std::vector<int,std::allocator<int> >::_Xlen
;	COMDAT xdata$x
; File c:\program files\microsoft visual studio .net 2003\vc7\include\stdexcept
xdata$x	SEGMENT
$T210589 DD	0ffffffffH
	DD	FLAT:$L210474
$T210586 DD	019930520H
	DD	01H
	DD	FLAT:$T210589
	DD	2 DUP(00H)
	DD	2 DUP(00H)
; Function compile flags: /Ogty
; File c:\program files\microsoft visual studio .net 2003\vc7\include\vector
xdata$x	ENDS
;	COMDAT ?_Xlen@?$vector@HV?$allocator@H@std@@@std@@IBEXXZ
_TEXT	SEGMENT
$T210473 = -80						; size = 28
$T210472 = -52						; size = 40
__$EHRec$ = -12						; size = 12
?_Xlen@?$vector@HV?$allocator@H@std@@@std@@IBEXXZ PROC NEAR ; std::vector<int,std::allocator<int> >::_Xlen, COMDAT
; _this$ = ecx

; 883  : 		{	// report a length_error

  00000	6a ff		 push	 -1
  00002	68 00 00 00 00	 push	 __ehhandler$?_Xlen@?$vector@HV?$allocator@H@std@@@std@@IBEXXZ
  00007	64 a1 00 00 00
	00		 mov	 eax, DWORD PTR fs:__except_list
  0000d	50		 push	 eax
  0000e	64 89 25 00 00
	00 00		 mov	 DWORD PTR fs:__except_list, esp
  00015	83 ec 44	 sub	 esp, 68			; 00000044H

; 884  : 		_THROW(length_error, "vector<T> too long");

  00018	6a 12		 push	 18			; 00000012H
  0001a	68 00 00 00 00	 push	 OFFSET FLAT:??_C@_0BD@OLBABOEK@vector?$DMT?$DO?5too?5long?$AA@
  0001f	8d 4c 24 08	 lea	 ecx, DWORD PTR $T210473[esp+88]
  00023	c7 44 24 20 0f
	00 00 00	 mov	 DWORD PTR $T210473[esp+112], 15 ; 0000000fH
  0002b	c7 44 24 1c 00
	00 00 00	 mov	 DWORD PTR $T210473[esp+108], 0
  00033	c6 44 24 0c 00	 mov	 BYTE PTR $T210473[esp+92], 0
  00038	e8 00 00 00 00	 call	 ?assign@?$basic_string@DU?$char_traits@D@std@@V?$allocator@D@2@@std@@QAEAAV12@PBDI@Z ; std::basic_string<char,std::char_traits<char>,std::allocator<char> >::assign
  0003d	8d 04 24	 lea	 eax, DWORD PTR $T210473[esp+80]
  00040	50		 push	 eax
  00041	8d 4c 24 20	 lea	 ecx, DWORD PTR $T210472[esp+84]
  00045	c7 44 24 50 00
	00 00 00	 mov	 DWORD PTR __$EHRec$[esp+92], 0
  0004d	e8 00 00 00 00	 call	 ??0logic_error@std@@QAE@ABV?$basic_string@DU?$char_traits@D@std@@V?$allocator@D@2@@1@@Z ; std::logic_error::logic_error
  00052	68 00 00 00 00	 push	 OFFSET FLAT:__TI3?AVlength_error@std@@
  00057	8d 4c 24 20	 lea	 ecx, DWORD PTR $T210472[esp+84]
  0005b	51		 push	 ecx
  0005c	c7 44 24 24 00
	00 00 00	 mov	 DWORD PTR $T210472[esp+88], OFFSET FLAT:??_7length_error@std@@6B@
  00064	e8 00 00 00 00	 call	 __CxxThrowException@8
$L210588:
  00069	cc		 int	 3
_TEXT	ENDS
;	COMDAT text$x
text$x	SEGMENT
$L210474:
  00000	8d 4d b0	 lea	 ecx, DWORD PTR $T210473[ebp]
  00003	e9 00 00 00 00	 jmp	 ??1?$basic_string@DU?$char_traits@D@std@@V?$allocator@D@2@@std@@QAE@XZ ; std::basic_string<char,std::char_traits<char>,std::allocator<char> >::~basic_string<char,std::char_traits<char>,std::allocator<char> >
__ehhandler$?_Xlen@?$vector@HV?$allocator@H@std@@@std@@IBEXXZ:
  00008	b8 00 00 00 00	 mov	 eax, OFFSET FLAT:$T210586
  0000d	e9 00 00 00 00	 jmp	 ___CxxFrameHandler
text$x	ENDS
?_Xlen@?$vector@HV?$allocator@H@std@@@std@@IBEXXZ ENDP	; std::vector<int,std::allocator<int> >::_Xlen
PUBLIC	??0?$CStringT@DV?$StrTraitMFC@DV?$ChTraitsCRT@D@ATL@@@@@ATL@@QAE@PBD@Z ; ATL::CStringT<char,StrTraitMFC<char,ATL::ChTraitsCRT<char> > >::CStringT<char,StrTraitMFC<char,ATL::ChTraitsCRT<char> > >
;	COMDAT xdata$x
; File c:\program files\microsoft visual studio .net 2003\vc7\atlmfc\include\atlsimpstr.h
xdata$x	SEGMENT
$T210675 DD	0ffffffffH
	DD	FLAT:$L210594
$T210669 DD	019930520H
	DD	01H
	DD	FLAT:$T210675
	DD	2 DUP(00H)
	DD	2 DUP(00H)
; Function compile flags: /Ogty
; File c:\program files\microsoft visual studio .net 2003\vc7\atlmfc\include\cstringt.h
xdata$x	ENDS
;	COMDAT ??0?$CStringT@DV?$StrTraitMFC@DV?$ChTraitsCRT@D@ATL@@@@@ATL@@QAE@PBD@Z
_TEXT	SEGMENT
_this$ = -16						; size = 4
__$EHRec$ = -12						; size = 12
_pszSrc$ = 8						; size = 4
??0?$CStringT@DV?$StrTraitMFC@DV?$ChTraitsCRT@D@ATL@@@@@ATL@@QAE@PBD@Z PROC NEAR ; ATL::CStringT<char,StrTraitMFC<char,ATL::ChTraitsCRT<char> > >::CStringT<char,StrTraitMFC<char,ATL::ChTraitsCRT<char> > >, COMDAT
; _this$ = ecx

; 830  : 	{

  00000	6a ff		 push	 -1
  00002	68 00 00 00 00	 push	 __ehhandler$??0?$CStringT@DV?$StrTraitMFC@DV?$ChTraitsCRT@D@ATL@@@@@ATL@@QAE@PBD@Z
  00007	64 a1 00 00 00
	00		 mov	 eax, DWORD PTR fs:__except_list
  0000d	50		 push	 eax
  0000e	64 89 25 00 00
	00 00		 mov	 DWORD PTR fs:__except_list, esp
  00015	51		 push	 ecx
  00016	56		 push	 esi
  00017	8b f1		 mov	 esi, ecx
  00019	57		 push	 edi
  0001a	89 74 24 08	 mov	 DWORD PTR _this$[esp+24], esi
  0001e	e8 00 00 00 00	 call	 ?AfxGetStringManager@@YGPAUIAtlStringMgr@ATL@@XZ ; AfxGetStringManager
  00023	8b 10		 mov	 edx, DWORD PTR [eax]
  00025	8b c8		 mov	 ecx, eax
  00027	ff 52 0c	 call	 DWORD PTR [edx+12]
  0002a	83 c0 10	 add	 eax, 16			; 00000010H
  0002d	89 06		 mov	 DWORD PTR [esi], eax

; 831  : 		if( !CheckImplicitLoad( pszSrc ) )

  0002f	8b 54 24 1c	 mov	 edx, DWORD PTR _pszSrc$[esp+20]
  00033	85 d2		 test	 edx, edx
  00035	c7 44 24 14 00
	00 00 00	 mov	 DWORD PTR __$EHRec$[esp+32], 0
  0003d	74 33		 je	 SHORT $L210671
  0003f	f7 c2 00 00 ff
	ff		 test	 edx, -65536		; ffff0000H
  00045	75 2f		 jne	 SHORT $L210665
  00047	0f b7 fa	 movzx	 edi, dx
  0004a	57		 push	 edi
  0004b	e8 00 00 00 00	 call	 ?AfxFindStringResourceHandle@@YGPAUHINSTANCE__@@I@Z ; AfxFindStringResourceHandle
  00050	85 c0		 test	 eax, eax
  00052	74 3e		 je	 SHORT $L210673
  00054	57		 push	 edi
  00055	50		 push	 eax
  00056	8b ce		 mov	 ecx, esi
  00058	e8 00 00 00 00	 call	 ?LoadStringA@?$CStringT@DV?$StrTraitMFC@DV?$ChTraitsCRT@D@ATL@@@@@ATL@@QAEHPAUHINSTANCE__@@I@Z ; ATL::CStringT<char,StrTraitMFC<char,ATL::ChTraitsCRT<char> > >::LoadStringA
  0005d	5f		 pop	 edi

; 835  : 		}
; 836  : 	}

  0005e	8b c6		 mov	 eax, esi
  00060	5e		 pop	 esi
  00061	8b 4c 24 04	 mov	 ecx, DWORD PTR __$EHRec$[esp+16]
  00065	64 89 0d 00 00
	00 00		 mov	 DWORD PTR fs:__except_list, ecx
  0006c	83 c4 10	 add	 esp, 16			; 00000010H
  0006f	c2 04 00	 ret	 4
$L210671:

; 832  : 		{
; 833  : 			// nDestLength is in XCHARs
; 834  : 			*this = pszSrc;

  00072	33 c0		 xor	 eax, eax
  00074	eb 13		 jmp	 SHORT $L210664
$L210665:
  00076	8b c2		 mov	 eax, edx
  00078	8d 78 01	 lea	 edi, DWORD PTR [eax+1]
  0007b	eb 03 8d 49 00	 npad	 5
$L210672:
  00080	8a 08		 mov	 cl, BYTE PTR [eax]
  00082	40		 inc	 eax
  00083	84 c9		 test	 cl, cl
  00085	75 f9		 jne	 SHORT $L210672
  00087	2b c7		 sub	 eax, edi
$L210664:
  00089	50		 push	 eax
  0008a	52		 push	 edx
  0008b	8b ce		 mov	 ecx, esi
  0008d	e8 00 00 00 00	 call	 ?SetString@?$CSimpleStringT@D$0A@@ATL@@QAEXPBDH@Z ; ATL::CSimpleStringT<char,0>::SetString
$L210673:

; 835  : 		}
; 836  : 	}

  00092	8b 4c 24 0c	 mov	 ecx, DWORD PTR __$EHRec$[esp+24]
  00096	5f		 pop	 edi
  00097	8b c6		 mov	 eax, esi
  00099	5e		 pop	 esi
  0009a	64 89 0d 00 00
	00 00		 mov	 DWORD PTR fs:__except_list, ecx
  000a1	83 c4 10	 add	 esp, 16			; 00000010H
  000a4	c2 04 00	 ret	 4
_TEXT	ENDS
;	COMDAT text$x
text$x	SEGMENT
$L210594:
  00000	8b 4d f0	 mov	 ecx, DWORD PTR _this$[ebp]
  00003	e9 00 00 00 00	 jmp	 ??1?$CSimpleStringT@D$0A@@ATL@@QAE@XZ ; ATL::CSimpleStringT<char,0>::~CSimpleStringT<char,0>
__ehhandler$??0?$CStringT@DV?$StrTraitMFC@DV?$ChTraitsCRT@D@ATL@@@@@ATL@@QAE@PBD@Z:
  00008	b8 00 00 00 00	 mov	 eax, OFFSET FLAT:$T210669
  0000d	e9 00 00 00 00	 jmp	 ___CxxFrameHandler
text$x	ENDS
??0?$CStringT@DV?$StrTraitMFC@DV?$ChTraitsCRT@D@ATL@@@@@ATL@@QAE@PBD@Z ENDP ; ATL::CStringT<char,StrTraitMFC<char,ATL::ChTraitsCRT<char> > >::CStringT<char,StrTraitMFC<char,ATL::ChTraitsCRT<char> > >
PUBLIC	?Format@CTime@ATL@@QBE?AV?$CStringT@DV?$StrTraitMFC@DV?$ChTraitsCRT@D@ATL@@@@@2@PBD@Z ; ATL::CTime::Format
EXTRN	_strftime:NEAR
EXTRN	__localtime64:NEAR
; Function compile flags: /Ogty
; File c:\program files\microsoft visual studio .net 2003\vc7\atlmfc\include\atltime.h
;	COMDAT ?Format@CTime@ATL@@QBE?AV?$CStringT@DV?$StrTraitMFC@DV?$ChTraitsCRT@D@ATL@@@@@2@PBD@Z
_TEXT	SEGMENT
$T210682 = -136						; size = 4
_szBuffer$ = -132					; size = 128
__$ArrayPad$ = -4					; size = 4
__$ReturnAddr$ = 4					; size = 4
___$ReturnUdt$ = 8					; size = 4
_pFormat$ = 12						; size = 4
?Format@CTime@ATL@@QBE?AV?$CStringT@DV?$StrTraitMFC@DV?$ChTraitsCRT@D@ATL@@@@@2@PBD@Z PROC NEAR ; ATL::CTime::Format, COMDAT
; _this$ = ecx

; 344  : {

  00000	81 ec 88 00 00
	00		 sub	 esp, 136		; 00000088H
  00006	a1 00 00 00 00	 mov	 eax, DWORD PTR ___security_cookie
  0000b	33 c4		 xor	 eax, esp
  0000d	56		 push	 esi
  0000e	8b b4 24 94 00
	00 00		 mov	 esi, DWORD PTR _pFormat$[esp+136]

; 345  : 	if(pFormat == NULL)

  00015	85 f6		 test	 esi, esi
  00017	57		 push	 edi
  00018	8b bc 24 94 00
	00 00		 mov	 edi, DWORD PTR ___$ReturnUdt$[esp+140]
  0001f	89 84 24 8c 00
	00 00		 mov	 DWORD PTR __$ArrayPad$[esp+144], eax
  00026	c7 44 24 08 00
	00 00 00	 mov	 DWORD PTR $T210682[esp+144], 0
  0002e	75 03		 jne	 SHORT $L43108

; 346  : 		return pFormat;

  00030	56		 push	 esi
  00031	eb 2f		 jmp	 SHORT $L210688
$L43108:

; 347  : 
; 348  : 	TCHAR szBuffer[maxTimeBufferSize];
; 349  : 
; 350  : 	struct tm* ptmTemp = _localtime64(&m_time);

  00033	51		 push	 ecx
  00034	e8 00 00 00 00	 call	 __localtime64
  00039	83 c4 04	 add	 esp, 4

; 351  : 	if (ptmTemp == NULL ||
; 352  : 		!_tcsftime(szBuffer, maxTimeBufferSize, pFormat, ptmTemp))

  0003c	85 c0		 test	 eax, eax
  0003e	74 18		 je	 SHORT $L43112
  00040	50		 push	 eax
  00041	56		 push	 esi
  00042	8d 44 24 14	 lea	 eax, DWORD PTR _szBuffer$[esp+152]
  00046	68 80 00 00 00	 push	 128			; 00000080H
  0004b	50		 push	 eax
  0004c	e8 00 00 00 00	 call	 _strftime
  00051	83 c4 10	 add	 esp, 16			; 00000010H
  00054	85 c0		 test	 eax, eax
  00056	75 05		 jne	 SHORT $L43111
$L43112:

; 353  : 		szBuffer[0] = '\0';

  00058	c6 44 24 0c 00	 mov	 BYTE PTR _szBuffer$[esp+144], 0
$L43111:

; 354  : 	return szBuffer;

  0005d	8d 4c 24 0c	 lea	 ecx, DWORD PTR _szBuffer$[esp+144]
  00061	51		 push	 ecx
$L210688:
  00062	8b cf		 mov	 ecx, edi
  00064	e8 00 00 00 00	 call	 ??0?$CStringT@DV?$StrTraitMFC@DV?$ChTraitsCRT@D@ATL@@@@@ATL@@QAE@PBD@Z ; ATL::CStringT<char,StrTraitMFC<char,ATL::ChTraitsCRT<char> > >::CStringT<char,StrTraitMFC<char,ATL::ChTraitsCRT<char> > >

; 355  : }

  00069	8b 8c 24 8c 00
	00 00		 mov	 ecx, DWORD PTR __$ArrayPad$[esp+144]
  00070	8b c7		 mov	 eax, edi
  00072	5f		 pop	 edi
  00073	5e		 pop	 esi
  00074	33 cc		 xor	 ecx, esp
  00076	e8 00 00 00 00	 call	 @__security_check_cookie@4
  0007b	81 c4 88 00 00
	00		 add	 esp, 136		; 00000088H
  00081	c2 08 00	 ret	 8
?Format@CTime@ATL@@QBE?AV?$CStringT@DV?$StrTraitMFC@DV?$ChTraitsCRT@D@ATL@@@@@2@PBD@Z ENDP ; ATL::CTime::Format
_TEXT	ENDS
PUBLIC	?_Insert_n@?$vector@MV?$allocator@M@std@@@std@@IAEXViterator@12@IABM@Z ; std::vector<float,std::allocator<float> >::_Insert_n
; Function compile flags: /Ogty
; File c:\program files\microsoft visual studio .net 2003\vc7\include\vector
;	COMDAT ?_Insert_n@?$vector@MV?$allocator@M@std@@@std@@IAEXViterator@12@IABM@Z
_TEXT	SEGMENT
__Newvec$205063 = -4					; size = 4
tv393 = 8						; size = 4
__Where$ = 8						; size = 4
tv382 = 12						; size = 4
__Count$ = 12						; size = 4
__Tmp$ = 16						; size = 4
__Val$ = 16						; size = 4
?_Insert_n@?$vector@MV?$allocator@M@std@@@std@@IAEXViterator@12@IABM@Z PROC NEAR ; std::vector<float,std::allocator<float> >::_Insert_n, COMDAT
; _this$ = ecx

; 809  : 		{	// insert _Count * _Val at _Where

  00000	51		 push	 ecx

; 810  : 		_Ty _Tmp = _Val;	// in case _Val is in sequence

  00001	8b 44 24 10	 mov	 eax, DWORD PTR __Val$[esp]
  00005	56		 push	 esi
  00006	8b f1		 mov	 esi, ecx

; 811  : 		size_type _Capacity = capacity();

  00008	8b 56 04	 mov	 edx, DWORD PTR [esi+4]
  0000b	85 d2		 test	 edx, edx
  0000d	8b 08		 mov	 ecx, DWORD PTR [eax]
  0000f	57		 push	 edi
  00010	89 4c 24 18	 mov	 DWORD PTR __Tmp$[esp+8], ecx
  00014	75 04		 jne	 SHORT $L210702
  00016	33 c0		 xor	 eax, eax
  00018	eb 08		 jmp	 SHORT $L210703
$L210702:
  0001a	8b 46 0c	 mov	 eax, DWORD PTR [esi+12]
  0001d	2b c2		 sub	 eax, edx
  0001f	c1 f8 02	 sar	 eax, 2
$L210703:

; 812  : 
; 813  : 		if (_Count == 0)

  00022	8b 7c 24 14	 mov	 edi, DWORD PTR __Count$[esp+8]
  00026	85 ff		 test	 edi, edi
  00028	0f 84 ac 01 00
	00		 je	 $L205083

; 814  : 			;
; 815  : 		else if (max_size() - size() < _Count)

  0002e	85 d2		 test	 edx, edx
  00030	75 04		 jne	 SHORT $L210725
  00032	33 c9		 xor	 ecx, ecx
  00034	eb 08		 jmp	 SHORT $L210726
$L210725:
  00036	8b 4e 08	 mov	 ecx, DWORD PTR [esi+8]
  00039	2b ca		 sub	 ecx, edx
  0003b	c1 f9 02	 sar	 ecx, 2
$L210726:
  0003e	53		 push	 ebx
  0003f	bb ff ff ff 3f	 mov	 ebx, 1073741823		; 3fffffffH
  00044	2b d9		 sub	 ebx, ecx
  00046	3b df		 cmp	 ebx, edi
  00048	73 07		 jae	 SHORT $L205059

; 816  : 			_Xlen();	// result too long

  0004a	8b ce		 mov	 ecx, esi
  0004c	e8 00 00 00 00	 call	 ?_Xlen@?$vector@MV?$allocator@M@std@@@std@@IBEXXZ ; std::vector<float,std::allocator<float> >::_Xlen
$L205059:

; 817  : 		else if (_Capacity < size() + _Count)

  00051	85 d2		 test	 edx, edx
  00053	75 04		 jne	 SHORT $L210732
  00055	33 c9		 xor	 ecx, ecx
  00057	eb 08		 jmp	 SHORT $L210733
$L210732:
  00059	8b 4e 08	 mov	 ecx, DWORD PTR [esi+8]
  0005c	2b ca		 sub	 ecx, edx
  0005e	c1 f9 02	 sar	 ecx, 2
$L210733:
  00061	03 cf		 add	 ecx, edi
  00063	3b c1		 cmp	 eax, ecx
  00065	55		 push	 ebp
  00066	0f 83 d6 00 00
	00		 jae	 $L205061

; 818  : 			{	// not enough room, reallocate
; 819  : 			_Capacity = max_size() - _Capacity / 2 < _Capacity
; 820  : 				? 0 : _Capacity + _Capacity / 2;	// try to grow by 50%

  0006c	8b c8		 mov	 ecx, eax
  0006e	d1 e9		 shr	 ecx, 1
  00070	bb ff ff ff 3f	 mov	 ebx, 1073741823		; 3fffffffH
  00075	2b d9		 sub	 ebx, ecx
  00077	3b d8		 cmp	 ebx, eax
  00079	73 04		 jae	 SHORT $L210691
  0007b	33 c0		 xor	 eax, eax
  0007d	eb 02		 jmp	 SHORT $L210692
$L210691:
  0007f	03 c1		 add	 eax, ecx
$L210692:

; 821  : 			if (_Capacity < size() + _Count)

  00081	85 d2		 test	 edx, edx
  00083	75 04		 jne	 SHORT $L210755
  00085	33 c9		 xor	 ecx, ecx
  00087	eb 08		 jmp	 SHORT $L210756
$L210755:
  00089	8b 4e 08	 mov	 ecx, DWORD PTR [esi+8]
  0008c	2b ca		 sub	 ecx, edx
  0008e	c1 f9 02	 sar	 ecx, 2
$L210756:
  00091	03 cf		 add	 ecx, edi
  00093	3b c1		 cmp	 eax, ecx
  00095	73 12		 jae	 SHORT $L205062

; 822  : 				_Capacity = size() + _Count;

  00097	85 d2		 test	 edx, edx
  00099	75 04		 jne	 SHORT $L210762
  0009b	33 c0		 xor	 eax, eax
  0009d	eb 08		 jmp	 SHORT $L210763
$L210762:
  0009f	8b 46 08	 mov	 eax, DWORD PTR [esi+8]
  000a2	2b c2		 sub	 eax, edx
  000a4	c1 f8 02	 sar	 eax, 2
$L210763:
  000a7	03 c7		 add	 eax, edi
$L205062:

; 823  : 			pointer _Newvec = this->_Alval.allocate(_Capacity);

  000a9	c1 e0 02	 shl	 eax, 2
  000ac	50		 push	 eax
  000ad	89 44 24 20	 mov	 DWORD PTR tv382[esp+20], eax
  000b1	e8 00 00 00 00	 call	 ??2@YAPAXI@Z		; operator new

; 824  : 			pointer _Ptr = _Newvec;
; 825  : 
; 826  : 			_TRY_BEGIN
; 827  : 			_Ptr = _Ucopy(_Myfirst, _ITER_BASE(_Where),
; 828  : 				_Newvec);	// copy prefix

  000b6	8b 4e 04	 mov	 ecx, DWORD PTR [esi+4]
  000b9	8b 5c 24 1c	 mov	 ebx, DWORD PTR __Where$[esp+20]
  000bd	8b d0		 mov	 edx, eax
  000bf	8b c3		 mov	 eax, ebx
  000c1	2b c1		 sub	 eax, ecx
  000c3	c1 f8 02	 sar	 eax, 2
  000c6	8d 2c 85 00 00
	00 00		 lea	 ebp, DWORD PTR [eax*4]
  000cd	55		 push	 ebp
  000ce	51		 push	 ecx
  000cf	52		 push	 edx
  000d0	89 54 24 20	 mov	 DWORD PTR __Newvec$205063[esp+36], edx
  000d4	e8 00 00 00 00	 call	 _memmove
  000d9	83 c4 10	 add	 esp, 16			; 00000010H

; 829  : 			_Ptr = _Ufill(_Ptr, _Count, _Tmp);	// add new stuff

  000dc	8d 54 24 20	 lea	 edx, DWORD PTR __Tmp$[esp+16]
  000e0	52		 push	 edx
  000e1	03 c5		 add	 eax, ebp
  000e3	57		 push	 edi
  000e4	50		 push	 eax
  000e5	8b ce		 mov	 ecx, esi
  000e7	e8 00 00 00 00	 call	 ?_Ufill@?$vector@MV?$allocator@M@std@@@std@@IAEPAMPAMIABM@Z ; std::vector<float,std::allocator<float> >::_Ufill

; 830  : 			_Ucopy(_ITER_BASE(_Where), _Mylast, _Ptr);	// copy suffix

  000ec	8b 4e 08	 mov	 ecx, DWORD PTR [esi+8]
  000ef	2b cb		 sub	 ecx, ebx
  000f1	c1 f9 02	 sar	 ecx, 2
  000f4	c1 e1 02	 shl	 ecx, 2
  000f7	51		 push	 ecx
  000f8	53		 push	 ebx
  000f9	50		 push	 eax
  000fa	e8 00 00 00 00	 call	 _memmove

; 831  : 			_CATCH_ALL
; 832  : 			_Destroy(_Newvec, _Ptr);
; 833  : 			this->_Alval.deallocate(_Newvec, _Capacity);
; 834  : 			_RERAISE;
; 835  : 			_CATCH_END
; 836  : 
; 837  : 			_Count += size();

  000ff	8b 46 04	 mov	 eax, DWORD PTR [esi+4]
  00102	83 c4 0c	 add	 esp, 12			; 0000000cH
  00105	85 c0		 test	 eax, eax
  00107	75 04		 jne	 SHORT $L210844
  00109	33 c9		 xor	 ecx, ecx
  0010b	eb 08		 jmp	 SHORT $L210845
$L210844:
  0010d	8b 4e 08	 mov	 ecx, DWORD PTR [esi+8]
  00110	2b c8		 sub	 ecx, eax
  00112	c1 f9 02	 sar	 ecx, 2
$L210845:
  00115	03 f9		 add	 edi, ecx

; 838  : 			if (_Myfirst != 0)

  00117	85 c0		 test	 eax, eax
  00119	74 09		 je	 SHORT $L210847

; 839  : 				{	// destroy and deallocate old array
; 840  : 				_Destroy(_Myfirst, _Mylast);
; 841  : 				this->_Alval.deallocate(_Myfirst, _Myend - _Myfirst);

  0011b	50		 push	 eax
  0011c	e8 00 00 00 00	 call	 ??3@YAXPAX@Z		; operator delete
  00121	83 c4 04	 add	 esp, 4
$L210847:

; 842  : 				}
; 843  : 			_Myend = _Newvec + _Capacity;

  00124	8b 44 24 10	 mov	 eax, DWORD PTR __Newvec$205063[esp+20]
  00128	8b 54 24 1c	 mov	 edx, DWORD PTR tv382[esp+16]
  0012c	5d		 pop	 ebp
  0012d	5b		 pop	 ebx

; 844  : 			_Mylast = _Newvec + _Count;

  0012e	8d 0c b8	 lea	 ecx, DWORD PTR [eax+edi*4]
  00131	03 d0		 add	 edx, eax
  00133	5f		 pop	 edi
  00134	89 56 0c	 mov	 DWORD PTR [esi+12], edx
  00137	89 4e 08	 mov	 DWORD PTR [esi+8], ecx

; 845  : 			_Myfirst = _Newvec;

  0013a	89 46 04	 mov	 DWORD PTR [esi+4], eax
  0013d	5e		 pop	 esi

; 873  : 			}
; 874  : 		}

  0013e	59		 pop	 ecx
  0013f	c2 0c 00	 ret	 12			; 0000000cH
$L205061:

; 846  : 			}
; 847  : 		else if ((size_type)(_Mylast - _ITER_BASE(_Where)) < _Count)

  00142	8b 6e 08	 mov	 ebp, DWORD PTR [esi+8]
  00145	8b 5c 24 18	 mov	 ebx, DWORD PTR __Where$[esp+16]
  00149	8b d5		 mov	 edx, ebp
  0014b	2b d3		 sub	 edx, ebx
  0014d	c1 fa 02	 sar	 edx, 2
  00150	3b d7		 cmp	 edx, edi

; 848  : 			{	// new stuff spills off end
; 849  : 			_Ucopy(_ITER_BASE(_Where), _Mylast,
; 850  : 				_ITER_BASE(_Where) + _Count);	// copy suffix

  00152	8d 04 bd 00 00
	00 00		 lea	 eax, DWORD PTR [edi*4]
  00159	8b ce		 mov	 ecx, esi
  0015b	89 44 24 18	 mov	 DWORD PTR tv393[esp+16], eax
  0015f	73 4b		 jae	 SHORT $L205074
  00161	03 c3		 add	 eax, ebx
  00163	50		 push	 eax
  00164	55		 push	 ebp
  00165	53		 push	 ebx
  00166	e8 00 00 00 00	 call	 ??$_Ucopy@PAM@?$vector@MV?$allocator@M@std@@@std@@IAEPAMPAM00@Z ; std::vector<float,std::allocator<float> >::_Ucopy<float *>

; 851  : 
; 852  : 			_TRY_BEGIN
; 853  : 			_Ufill(_Mylast, _Count - (_Mylast - _ITER_BASE(_Where)),
; 854  : 				_Tmp);	// insert new stuff off end

  0016b	8b 46 08	 mov	 eax, DWORD PTR [esi+8]
  0016e	8b d0		 mov	 edx, eax
  00170	2b d3		 sub	 edx, ebx
  00172	8d 4c 24 20	 lea	 ecx, DWORD PTR __Tmp$[esp+16]
  00176	51		 push	 ecx
  00177	c1 fa 02	 sar	 edx, 2
  0017a	2b fa		 sub	 edi, edx
  0017c	57		 push	 edi
  0017d	50		 push	 eax
  0017e	8b ce		 mov	 ecx, esi
  00180	e8 00 00 00 00	 call	 ?_Ufill@?$vector@MV?$allocator@M@std@@@std@@IAEPAMPAMIABM@Z ; std::vector<float,std::allocator<float> >::_Ufill

; 855  : 			_CATCH_ALL
; 856  : 			_Destroy(_ITER_BASE(_Where) + _Count, _Mylast + _Count);
; 857  : 			_RERAISE;
; 858  : 			_CATCH_END
; 859  : 
; 860  : 			_Mylast += _Count;

  00185	8b 4e 08	 mov	 ecx, DWORD PTR [esi+8]
  00188	8b 44 24 18	 mov	 eax, DWORD PTR tv393[esp+16]
  0018c	03 c8		 add	 ecx, eax
  0018e	89 4e 08	 mov	 DWORD PTR [esi+8], ecx
  00191	8b f1		 mov	 esi, ecx

; 861  : 			fill(_ITER_BASE(_Where), _Mylast - _Count,
; 862  : 				_Tmp);	// insert up to old end

  00193	8d 4c 24 20	 lea	 ecx, DWORD PTR __Tmp$[esp+16]
  00197	51		 push	 ecx
  00198	2b f0		 sub	 esi, eax
  0019a	56		 push	 esi
  0019b	53		 push	 ebx
  0019c	e8 00 00 00 00	 call	 ??$fill@PAMM@std@@YAXPAM0ABM@Z ; std::fill<float *,float>
  001a1	83 c4 0c	 add	 esp, 12			; 0000000cH
  001a4	5d		 pop	 ebp
  001a5	5b		 pop	 ebx
  001a6	5f		 pop	 edi
  001a7	5e		 pop	 esi

; 873  : 			}
; 874  : 		}

  001a8	59		 pop	 ecx
  001a9	c2 0c 00	 ret	 12			; 0000000cH
$L205074:

; 863  : 			}
; 864  : 		else
; 865  : 			{	// new stuff can all be assigned
; 866  : 			pointer _Oldend = _Mylast;
; 867  : 			_Mylast = _Ucopy(_Oldend - _Count, _Oldend,
; 868  : 				_Mylast);	// copy suffix

  001ac	55		 push	 ebp
  001ad	8b fd		 mov	 edi, ebp
  001af	2b f8		 sub	 edi, eax
  001b1	55		 push	 ebp
  001b2	57		 push	 edi
  001b3	e8 00 00 00 00	 call	 ??$_Ucopy@PAM@?$vector@MV?$allocator@M@std@@@std@@IAEPAMPAM00@Z ; std::vector<float,std::allocator<float> >::_Ucopy<float *>

; 869  : 			copy_backward(_ITER_BASE(_Where), _Oldend - _Count,
; 870  : 				_Oldend);	// copy hole

  001b8	55		 push	 ebp
  001b9	57		 push	 edi
  001ba	53		 push	 ebx
  001bb	89 46 08	 mov	 DWORD PTR [esi+8], eax
  001be	e8 00 00 00 00	 call	 ??$copy_backward@PAMPAM@std@@YAPAMPAM00@Z ; std::copy_backward<float *,float *>

; 871  : 			fill(_ITER_BASE(_Where), _ITER_BASE(_Where) + _Count,
; 872  : 				_Tmp);	// insert into hole

  001c3	8b 44 24 24	 mov	 eax, DWORD PTR tv393[esp+28]
  001c7	8d 54 24 2c	 lea	 edx, DWORD PTR __Tmp$[esp+28]
  001cb	52		 push	 edx
  001cc	03 c3		 add	 eax, ebx
  001ce	50		 push	 eax
  001cf	53		 push	 ebx
  001d0	e8 00 00 00 00	 call	 ??$fill@PAMM@std@@YAXPAM0ABM@Z ; std::fill<float *,float>
  001d5	83 c4 18	 add	 esp, 24			; 00000018H
  001d8	5d		 pop	 ebp
  001d9	5b		 pop	 ebx
$L205083:
  001da	5f		 pop	 edi
  001db	5e		 pop	 esi

; 873  : 			}
; 874  : 		}

  001dc	59		 pop	 ecx
  001dd	c2 0c 00	 ret	 12			; 0000000cH
$L210855:
?_Insert_n@?$vector@MV?$allocator@M@std@@@std@@IAEXViterator@12@IABM@Z ENDP ; std::vector<float,std::allocator<float> >::_Insert_n
_TEXT	ENDS
PUBLIC	?_Insert_n@?$vector@HV?$allocator@H@std@@@std@@IAEXViterator@12@IABH@Z ; std::vector<int,std::allocator<int> >::_Insert_n
; Function compile flags: /Ogty
;	COMDAT ?_Insert_n@?$vector@HV?$allocator@H@std@@@std@@IAEXViterator@12@IABH@Z
_TEXT	SEGMENT
__Newvec$205130 = -4					; size = 4
tv393 = 8						; size = 4
__Where$ = 8						; size = 4
tv382 = 12						; size = 4
__Count$ = 12						; size = 4
__Tmp$ = 16						; size = 4
__Val$ = 16						; size = 4
?_Insert_n@?$vector@HV?$allocator@H@std@@@std@@IAEXViterator@12@IABH@Z PROC NEAR ; std::vector<int,std::allocator<int> >::_Insert_n, COMDAT
; _this$ = ecx

; 809  : 		{	// insert _Count * _Val at _Where

  00000	51		 push	 ecx

; 810  : 		_Ty _Tmp = _Val;	// in case _Val is in sequence

  00001	8b 44 24 10	 mov	 eax, DWORD PTR __Val$[esp]
  00005	56		 push	 esi
  00006	8b f1		 mov	 esi, ecx

; 811  : 		size_type _Capacity = capacity();

  00008	8b 56 04	 mov	 edx, DWORD PTR [esi+4]
  0000b	85 d2		 test	 edx, edx
  0000d	8b 08		 mov	 ecx, DWORD PTR [eax]
  0000f	57		 push	 edi
  00010	89 4c 24 18	 mov	 DWORD PTR __Tmp$[esp+8], ecx
  00014	75 04		 jne	 SHORT $L210869
  00016	33 c0		 xor	 eax, eax
  00018	eb 08		 jmp	 SHORT $L210870
$L210869:
  0001a	8b 46 0c	 mov	 eax, DWORD PTR [esi+12]
  0001d	2b c2		 sub	 eax, edx
  0001f	c1 f8 02	 sar	 eax, 2
$L210870:

; 812  : 
; 813  : 		if (_Count == 0)

  00022	8b 7c 24 14	 mov	 edi, DWORD PTR __Count$[esp+8]
  00026	85 ff		 test	 edi, edi
  00028	0f 84 ac 01 00
	00		 je	 $L205150

; 814  : 			;
; 815  : 		else if (max_size() - size() < _Count)

  0002e	85 d2		 test	 edx, edx
  00030	75 04		 jne	 SHORT $L210892
  00032	33 c9		 xor	 ecx, ecx
  00034	eb 08		 jmp	 SHORT $L210893
$L210892:
  00036	8b 4e 08	 mov	 ecx, DWORD PTR [esi+8]
  00039	2b ca		 sub	 ecx, edx
  0003b	c1 f9 02	 sar	 ecx, 2
$L210893:
  0003e	53		 push	 ebx
  0003f	bb ff ff ff 3f	 mov	 ebx, 1073741823		; 3fffffffH
  00044	2b d9		 sub	 ebx, ecx
  00046	3b df		 cmp	 ebx, edi
  00048	73 07		 jae	 SHORT $L205126

; 816  : 			_Xlen();	// result too long

  0004a	8b ce		 mov	 ecx, esi
  0004c	e8 00 00 00 00	 call	 ?_Xlen@?$vector@HV?$allocator@H@std@@@std@@IBEXXZ ; std::vector<int,std::allocator<int> >::_Xlen
$L205126:

; 817  : 		else if (_Capacity < size() + _Count)

  00051	85 d2		 test	 edx, edx
  00053	75 04		 jne	 SHORT $L210899
  00055	33 c9		 xor	 ecx, ecx
  00057	eb 08		 jmp	 SHORT $L210900
$L210899:
  00059	8b 4e 08	 mov	 ecx, DWORD PTR [esi+8]
  0005c	2b ca		 sub	 ecx, edx
  0005e	c1 f9 02	 sar	 ecx, 2
$L210900:
  00061	03 cf		 add	 ecx, edi
  00063	3b c1		 cmp	 eax, ecx
  00065	55		 push	 ebp
  00066	0f 83 d6 00 00
	00		 jae	 $L205128

; 818  : 			{	// not enough room, reallocate
; 819  : 			_Capacity = max_size() - _Capacity / 2 < _Capacity
; 820  : 				? 0 : _Capacity + _Capacity / 2;	// try to grow by 50%

  0006c	8b c8		 mov	 ecx, eax
  0006e	d1 e9		 shr	 ecx, 1
  00070	bb ff ff ff 3f	 mov	 ebx, 1073741823		; 3fffffffH
  00075	2b d9		 sub	 ebx, ecx
  00077	3b d8		 cmp	 ebx, eax
  00079	73 04		 jae	 SHORT $L210858
  0007b	33 c0		 xor	 eax, eax
  0007d	eb 02		 jmp	 SHORT $L210859
$L210858:
  0007f	03 c1		 add	 eax, ecx
$L210859:

; 821  : 			if (_Capacity < size() + _Count)

  00081	85 d2		 test	 edx, edx
  00083	75 04		 jne	 SHORT $L210922
  00085	33 c9		 xor	 ecx, ecx
  00087	eb 08		 jmp	 SHORT $L210923
$L210922:
  00089	8b 4e 08	 mov	 ecx, DWORD PTR [esi+8]
  0008c	2b ca		 sub	 ecx, edx
  0008e	c1 f9 02	 sar	 ecx, 2
$L210923:
  00091	03 cf		 add	 ecx, edi
  00093	3b c1		 cmp	 eax, ecx
  00095	73 12		 jae	 SHORT $L205129

; 822  : 				_Capacity = size() + _Count;

  00097	85 d2		 test	 edx, edx
  00099	75 04		 jne	 SHORT $L210929
  0009b	33 c0		 xor	 eax, eax
  0009d	eb 08		 jmp	 SHORT $L210930
$L210929:
  0009f	8b 46 08	 mov	 eax, DWORD PTR [esi+8]
  000a2	2b c2		 sub	 eax, edx
  000a4	c1 f8 02	 sar	 eax, 2
$L210930:
  000a7	03 c7		 add	 eax, edi
$L205129:

; 823  : 			pointer _Newvec = this->_Alval.allocate(_Capacity);

  000a9	c1 e0 02	 shl	 eax, 2
  000ac	50		 push	 eax
  000ad	89 44 24 20	 mov	 DWORD PTR tv382[esp+20], eax
  000b1	e8 00 00 00 00	 call	 ??2@YAPAXI@Z		; operator new

; 824  : 			pointer _Ptr = _Newvec;
; 825  : 
; 826  : 			_TRY_BEGIN
; 827  : 			_Ptr = _Ucopy(_Myfirst, _ITER_BASE(_Where),
; 828  : 				_Newvec);	// copy prefix

  000b6	8b 4e 04	 mov	 ecx, DWORD PTR [esi+4]
  000b9	8b 5c 24 1c	 mov	 ebx, DWORD PTR __Where$[esp+20]
  000bd	8b d0		 mov	 edx, eax
  000bf	8b c3		 mov	 eax, ebx
  000c1	2b c1		 sub	 eax, ecx
  000c3	c1 f8 02	 sar	 eax, 2
  000c6	8d 2c 85 00 00
	00 00		 lea	 ebp, DWORD PTR [eax*4]
  000cd	55		 push	 ebp
  000ce	51		 push	 ecx
  000cf	52		 push	 edx
  000d0	89 54 24 20	 mov	 DWORD PTR __Newvec$205130[esp+36], edx
  000d4	e8 00 00 00 00	 call	 _memmove
  000d9	83 c4 10	 add	 esp, 16			; 00000010H

; 829  : 			_Ptr = _Ufill(_Ptr, _Count, _Tmp);	// add new stuff

  000dc	8d 54 24 20	 lea	 edx, DWORD PTR __Tmp$[esp+16]
  000e0	52		 push	 edx
  000e1	03 c5		 add	 eax, ebp
  000e3	57		 push	 edi
  000e4	50		 push	 eax
  000e5	8b ce		 mov	 ecx, esi
  000e7	e8 00 00 00 00	 call	 ?_Ufill@?$vector@HV?$allocator@H@std@@@std@@IAEPAHPAHIABH@Z ; std::vector<int,std::allocator<int> >::_Ufill

; 830  : 			_Ucopy(_ITER_BASE(_Where), _Mylast, _Ptr);	// copy suffix

  000ec	8b 4e 08	 mov	 ecx, DWORD PTR [esi+8]
  000ef	2b cb		 sub	 ecx, ebx
  000f1	c1 f9 02	 sar	 ecx, 2
  000f4	c1 e1 02	 shl	 ecx, 2
  000f7	51		 push	 ecx
  000f8	53		 push	 ebx
  000f9	50		 push	 eax
  000fa	e8 00 00 00 00	 call	 _memmove

; 831  : 			_CATCH_ALL
; 832  : 			_Destroy(_Newvec, _Ptr);
; 833  : 			this->_Alval.deallocate(_Newvec, _Capacity);
; 834  : 			_RERAISE;
; 835  : 			_CATCH_END
; 836  : 
; 837  : 			_Count += size();

  000ff	8b 46 04	 mov	 eax, DWORD PTR [esi+4]
  00102	83 c4 0c	 add	 esp, 12			; 0000000cH
  00105	85 c0		 test	 eax, eax
  00107	75 04		 jne	 SHORT $L211010
  00109	33 c9		 xor	 ecx, ecx
  0010b	eb 08		 jmp	 SHORT $L211011
$L211010:
  0010d	8b 4e 08	 mov	 ecx, DWORD PTR [esi+8]
  00110	2b c8		 sub	 ecx, eax
  00112	c1 f9 02	 sar	 ecx, 2
$L211011:
  00115	03 f9		 add	 edi, ecx

; 838  : 			if (_Myfirst != 0)

  00117	85 c0		 test	 eax, eax
  00119	74 09		 je	 SHORT $L211015

; 839  : 				{	// destroy and deallocate old array
; 840  : 				_Destroy(_Myfirst, _Mylast);
; 841  : 				this->_Alval.deallocate(_Myfirst, _Myend - _Myfirst);

  0011b	50		 push	 eax
  0011c	e8 00 00 00 00	 call	 ??3@YAXPAX@Z		; operator delete
  00121	83 c4 04	 add	 esp, 4
$L211015:

; 842  : 				}
; 843  : 			_Myend = _Newvec + _Capacity;

  00124	8b 44 24 10	 mov	 eax, DWORD PTR __Newvec$205130[esp+20]
  00128	8b 54 24 1c	 mov	 edx, DWORD PTR tv382[esp+16]
  0012c	5d		 pop	 ebp
  0012d	5b		 pop	 ebx

; 844  : 			_Mylast = _Newvec + _Count;

  0012e	8d 0c b8	 lea	 ecx, DWORD PTR [eax+edi*4]
  00131	03 d0		 add	 edx, eax
  00133	5f		 pop	 edi
  00134	89 56 0c	 mov	 DWORD PTR [esi+12], edx
  00137	89 4e 08	 mov	 DWORD PTR [esi+8], ecx

; 845  : 			_Myfirst = _Newvec;

  0013a	89 46 04	 mov	 DWORD PTR [esi+4], eax
  0013d	5e		 pop	 esi

; 873  : 			}
; 874  : 		}

  0013e	59		 pop	 ecx
  0013f	c2 0c 00	 ret	 12			; 0000000cH
$L205128:

; 846  : 			}
; 847  : 		else if ((size_type)(_Mylast - _ITER_BASE(_Where)) < _Count)

  00142	8b 6e 08	 mov	 ebp, DWORD PTR [esi+8]
  00145	8b 5c 24 18	 mov	 ebx, DWORD PTR __Where$[esp+16]
  00149	8b d5		 mov	 edx, ebp
  0014b	2b d3		 sub	 edx, ebx
  0014d	c1 fa 02	 sar	 edx, 2
  00150	3b d7		 cmp	 edx, edi

; 848  : 			{	// new stuff spills off end
; 849  : 			_Ucopy(_ITER_BASE(_Where), _Mylast,
; 850  : 				_ITER_BASE(_Where) + _Count);	// copy suffix

  00152	8d 04 bd 00 00
	00 00		 lea	 eax, DWORD PTR [edi*4]
  00159	8b ce		 mov	 ecx, esi
  0015b	89 44 24 18	 mov	 DWORD PTR tv393[esp+16], eax
  0015f	73 4b		 jae	 SHORT $L205141
  00161	03 c3		 add	 eax, ebx
  00163	50		 push	 eax
  00164	55		 push	 ebp
  00165	53		 push	 ebx
  00166	e8 00 00 00 00	 call	 ??$_Ucopy@PAH@?$vector@HV?$allocator@H@std@@@std@@IAEPAHPAH00@Z ; std::vector<int,std::allocator<int> >::_Ucopy<int *>

; 851  : 
; 852  : 			_TRY_BEGIN
; 853  : 			_Ufill(_Mylast, _Count - (_Mylast - _ITER_BASE(_Where)),
; 854  : 				_Tmp);	// insert new stuff off end

  0016b	8b 46 08	 mov	 eax, DWORD PTR [esi+8]
  0016e	8b d0		 mov	 edx, eax
  00170	2b d3		 sub	 edx, ebx
  00172	8d 4c 24 20	 lea	 ecx, DWORD PTR __Tmp$[esp+16]
  00176	51		 push	 ecx
  00177	c1 fa 02	 sar	 edx, 2
  0017a	2b fa		 sub	 edi, edx
  0017c	57		 push	 edi
  0017d	50		 push	 eax
  0017e	8b ce		 mov	 ecx, esi
  00180	e8 00 00 00 00	 call	 ?_Ufill@?$vector@HV?$allocator@H@std@@@std@@IAEPAHPAHIABH@Z ; std::vector<int,std::allocator<int> >::_Ufill

; 855  : 			_CATCH_ALL
; 856  : 			_Destroy(_ITER_BASE(_Where) + _Count, _Mylast + _Count);
; 857  : 			_RERAISE;
; 858  : 			_CATCH_END
; 859  : 
; 860  : 			_Mylast += _Count;

  00185	8b 4e 08	 mov	 ecx, DWORD PTR [esi+8]
  00188	8b 44 24 18	 mov	 eax, DWORD PTR tv393[esp+16]
  0018c	03 c8		 add	 ecx, eax
  0018e	89 4e 08	 mov	 DWORD PTR [esi+8], ecx
  00191	8b f1		 mov	 esi, ecx

; 861  : 			fill(_ITER_BASE(_Where), _Mylast - _Count,
; 862  : 				_Tmp);	// insert up to old end

  00193	8d 4c 24 20	 lea	 ecx, DWORD PTR __Tmp$[esp+16]
  00197	51		 push	 ecx
  00198	2b f0		 sub	 esi, eax
  0019a	56		 push	 esi
  0019b	53		 push	 ebx
  0019c	e8 00 00 00 00	 call	 ??$fill@PAHH@std@@YAXPAH0ABH@Z ; std::fill<int *,int>
  001a1	83 c4 0c	 add	 esp, 12			; 0000000cH
  001a4	5d		 pop	 ebp
  001a5	5b		 pop	 ebx
  001a6	5f		 pop	 edi
  001a7	5e		 pop	 esi

; 873  : 			}
; 874  : 		}

  001a8	59		 pop	 ecx
  001a9	c2 0c 00	 ret	 12			; 0000000cH
$L205141:

; 863  : 			}
; 864  : 		else
; 865  : 			{	// new stuff can all be assigned
; 866  : 			pointer _Oldend = _Mylast;
; 867  : 			_Mylast = _Ucopy(_Oldend - _Count, _Oldend,
; 868  : 				_Mylast);	// copy suffix

  001ac	55		 push	 ebp
  001ad	8b fd		 mov	 edi, ebp
  001af	2b f8		 sub	 edi, eax
  001b1	55		 push	 ebp
  001b2	57		 push	 edi
  001b3	e8 00 00 00 00	 call	 ??$_Ucopy@PAH@?$vector@HV?$allocator@H@std@@@std@@IAEPAHPAH00@Z ; std::vector<int,std::allocator<int> >::_Ucopy<int *>

; 869  : 			copy_backward(_ITER_BASE(_Where), _Oldend - _Count,
; 870  : 				_Oldend);	// copy hole

  001b8	55		 push	 ebp
  001b9	57		 push	 edi
  001ba	53		 push	 ebx
  001bb	89 46 08	 mov	 DWORD PTR [esi+8], eax
  001be	e8 00 00 00 00	 call	 ??$copy_backward@PAHPAH@std@@YAPAHPAH00@Z ; std::copy_backward<int *,int *>

; 871  : 			fill(_ITER_BASE(_Where), _ITER_BASE(_Where) + _Count,
; 872  : 				_Tmp);	// insert into hole

  001c3	8b 44 24 24	 mov	 eax, DWORD PTR tv393[esp+28]
  001c7	8d 54 24 2c	 lea	 edx, DWORD PTR __Tmp$[esp+28]
  001cb	52		 push	 edx
  001cc	03 c3		 add	 eax, ebx
  001ce	50		 push	 eax
  001cf	53		 push	 ebx
  001d0	e8 00 00 00 00	 call	 ??$fill@PAHH@std@@YAXPAH0ABH@Z ; std::fill<int *,int>
  001d5	83 c4 18	 add	 esp, 24			; 00000018H
  001d8	5d		 pop	 ebp
  001d9	5b		 pop	 ebx
$L205150:
  001da	5f		 pop	 edi
  001db	5e		 pop	 esi

; 873  : 			}
; 874  : 		}

  001dc	59		 pop	 ecx
  001dd	c2 0c 00	 ret	 12			; 0000000cH
$L211022:
?_Insert_n@?$vector@HV?$allocator@H@std@@@std@@IAEXViterator@12@IABH@Z ENDP ; std::vector<int,std::allocator<int> >::_Insert_n
_TEXT	ENDS
PUBLIC	?ttos@CTElection@@SA?AV?$CStringT@DV?$StrTraitMFC@DV?$ChTraitsCRT@D@ATL@@@@@ATL@@J@Z ; CTElection::ttos
PUBLIC	??_C@_0N@BNMNAMM@?$CFY?$CFm?$CFd?$CFH?$CFM?$CFS?$AA@ ; `string'
;	COMDAT ??_C@_0N@BNMNAMM@?$CFY?$CFm?$CFd?$CFH?$CFM?$CFS?$AA@
; File c:\program files\microsoft visual studio .net 2003\vc7\atlmfc\include\atltime.inl
CONST	SEGMENT
??_C@_0N@BNMNAMM@?$CFY?$CFm?$CFd?$CFH?$CFM?$CFS?$AA@ DB '%Y%m%d%H%M%S', 00H ; `string'
; Function compile flags: /Ogty
; File c:\documents and settings\test\mes documents\source\virtuos_v17\build\program\databaseserver\tlord.cpp
CONST	ENDS
;	COMDAT ?ttos@CTElection@@SA?AV?$CStringT@DV?$StrTraitMFC@DV?$ChTraitsCRT@D@ATL@@@@@ATL@@J@Z
_TEXT	SEGMENT
$T211026 = -8						; size = 4
_tm$ = -8						; size = 8
___$ReturnUdt$ = 8					; size = 4
_t$ = 12						; size = 4
?ttos@CTElection@@SA?AV?$CStringT@DV?$StrTraitMFC@DV?$ChTraitsCRT@D@ATL@@@@@ATL@@J@Z PROC NEAR ; CTElection::ttos, COMDAT

; 261  : {

  00000	83 ec 08	 sub	 esp, 8

; 262  : 	CTime tm( t );

  00003	8b 44 24 10	 mov	 eax, DWORD PTR _t$[esp+4]
  00007	56		 push	 esi

; 263  : 	return tm.Format( "%Y%m%d%H%M%S" );

  00008	8b 74 24 10	 mov	 esi, DWORD PTR ___$ReturnUdt$[esp+8]
  0000c	99		 cdq
  0000d	68 00 00 00 00	 push	 OFFSET FLAT:??_C@_0N@BNMNAMM@?$CFY?$CFm?$CFd?$CFH?$CFM?$CFS?$AA@
  00012	c7 44 24 08 00
	00 00 00	 mov	 DWORD PTR $T211026[esp+16], 0
  0001a	56		 push	 esi
  0001b	8d 4c 24 0c	 lea	 ecx, DWORD PTR _tm$[esp+20]
  0001f	89 44 24 0c	 mov	 DWORD PTR _tm$[esp+20], eax
  00023	89 54 24 10	 mov	 DWORD PTR _tm$[esp+24], edx
  00027	e8 00 00 00 00	 call	 ?Format@CTime@ATL@@QBE?AV?$CStringT@DV?$StrTraitMFC@DV?$ChTraitsCRT@D@ATL@@@@@2@PBD@Z ; ATL::CTime::Format
  0002c	8b c6		 mov	 eax, esi
  0002e	5e		 pop	 esi

; 264  : }

  0002f	83 c4 08	 add	 esp, 8
  00032	c3		 ret	 0
?ttos@CTElection@@SA?AV?$CStringT@DV?$StrTraitMFC@DV?$ChTraitsCRT@D@ATL@@@@@ATL@@J@Z ENDP ; CTElection::ttos
_TEXT	ENDS
PUBLIC	?Restore@CTElection@@QAEHPAVCQuery@@@Z		; CTElection::Restore
PUBLIC	??_C@_0BG@KGCKLKHB@uspRestoreElection?5?$CFd?$AA@ ; `string'
PUBLIC	??_C@_0L@NBMLJLBM@idElection?$AA@		; `string'
PUBLIC	??_C@_06PFLNLAJN@eState?$AA@			; `string'
PUBLIC	??_C@_07PJNBBDOG@szBegin?$AA@			; `string'
PUBLIC	??_C@_0BM@CHJPNMJK@uspRestoreCandidates?5?$CFd?0?5?$CFd?$AA@ ; `string'
PUBLIC	??_C@_0CG@GCHADNNB@couldn?8t?5execute?5uspRestoreCandi@ ; `string'
PUBLIC	??_C@_08PIPANNIJ@iDeposit?$AA@			; `string'
PUBLIC	??_C@_08BCPGFKB@szPledge?$AA@			; `string'
PUBLIC	??_C@_05ODKHLCCG@nVote?$AA@			; `string'
PUBLIC	??_C@_07BIPEELOH@tCreate?$AA@			; `string'
PUBLIC	??_C@_0CB@FCFJFKNF@uspElectionInitialize?5?$CFd?0?5?$CFd?0?5?$CFs@ ; `string'
PUBLIC	??_C@_0CH@LCMLFLCE@couldn?8t?5execute?5uspElectionInit@ ; `string'
EXTRN	?GetInt64@CQuery@@QAE_JPAD@Z:NEAR		; CQuery::GetInt64
EXTRN	?GetStr@CQuery@@QAEXPAD0@Z:NEAR			; CQuery::GetStr
EXTRN	?AddCandidate@IElection@@QAEPAVCCandidate@@K_JPBDHJ@Z:NEAR ; IElection::AddCandidate
EXTRN	?PrepareNext@IElection@@QAEXXZ:NEAR		; IElection::PrepareNext
EXTRN	?SortDeposit@IElection@@IAEXXZ:NEAR		; IElection::SortDeposit
EXTRN	?SortVote@IElection@@IAEXXZ:NEAR		; IElection::SortVote
;	COMDAT xdata$x
; File c:\program files\microsoft visual studio .net 2003\vc7\atlmfc\include\atlsimpstr.h
xdata$x	SEGMENT
$T211108 DD	0ffffffffH
	DD	FLAT:$L211036
$T211102 DD	019930520H
	DD	01H
	DD	FLAT:$T211108
	DD	2 DUP(00H)
	DD	2 DUP(00H)
xdata$x	ENDS
;	COMDAT ??_C@_0BG@KGCKLKHB@uspRestoreElection?5?$CFd?$AA@
CONST	SEGMENT
??_C@_0BG@KGCKLKHB@uspRestoreElection?5?$CFd?$AA@ DB 'uspRestoreElection '
	DB	'%d', 00H					; `string'
CONST	ENDS
;	COMDAT ??_C@_0L@NBMLJLBM@idElection?$AA@
CONST	SEGMENT
??_C@_0L@NBMLJLBM@idElection?$AA@ DB 'idElection', 00H	; `string'
CONST	ENDS
;	COMDAT ??_C@_06PFLNLAJN@eState?$AA@
CONST	SEGMENT
??_C@_06PFLNLAJN@eState?$AA@ DB 'eState', 00H		; `string'
CONST	ENDS
;	COMDAT ??_C@_07PJNBBDOG@szBegin?$AA@
CONST	SEGMENT
??_C@_07PJNBBDOG@szBegin?$AA@ DB 'szBegin', 00H		; `string'
CONST	ENDS
;	COMDAT ??_C@_0BM@CHJPNMJK@uspRestoreCandidates?5?$CFd?0?5?$CFd?$AA@
CONST	SEGMENT
??_C@_0BM@CHJPNMJK@uspRestoreCandidates?5?$CFd?0?5?$CFd?$AA@ DB 'uspResto'
	DB	'reCandidates %d, %d', 00H			; `string'
CONST	ENDS
;	COMDAT ??_C@_0CG@GCHADNNB@couldn?8t?5execute?5uspRestoreCandi@
CONST	SEGMENT
??_C@_0CG@GCHADNNB@couldn?8t?5execute?5uspRestoreCandi@ DB 'couldn''t exe'
	DB	'cute uspRestoreCandidates', 00H		; `string'
CONST	ENDS
;	COMDAT ??_C@_08PIPANNIJ@iDeposit?$AA@
CONST	SEGMENT
??_C@_08PIPANNIJ@iDeposit?$AA@ DB 'iDeposit', 00H	; `string'
CONST	ENDS
;	COMDAT ??_C@_08BCPGFKB@szPledge?$AA@
CONST	SEGMENT
??_C@_08BCPGFKB@szPledge?$AA@ DB 'szPledge', 00H	; `string'
CONST	ENDS
;	COMDAT ??_C@_05ODKHLCCG@nVote?$AA@
CONST	SEGMENT
??_C@_05ODKHLCCG@nVote?$AA@ DB 'nVote', 00H		; `string'
CONST	ENDS
;	COMDAT ??_C@_07BIPEELOH@tCreate?$AA@
CONST	SEGMENT
??_C@_07BIPEELOH@tCreate?$AA@ DB 'tCreate', 00H		; `string'
CONST	ENDS
;	COMDAT ??_C@_0CB@FCFJFKNF@uspElectionInitialize?5?$CFd?0?5?$CFd?0?5?$CFs@
CONST	SEGMENT
??_C@_0CB@FCFJFKNF@uspElectionInitialize?5?$CFd?0?5?$CFd?0?5?$CFs@ DB 'us'
	DB	'pElectionInitialize %d, %d, %s', 00H	; `string'
CONST	ENDS
;	COMDAT ??_C@_0CH@LCMLFLCE@couldn?8t?5execute?5uspElectionInit@
CONST	SEGMENT
??_C@_0CH@LCMLFLCE@couldn?8t?5execute?5uspElectionInit@ DB 'couldn''t exe'
	DB	'cute uspElectionInitialize', 00H		; `string'
; Function compile flags: /Ogty
; File c:\documents and settings\test\mes documents\source\virtuos_v17\build\program\databaseserver\tlord.cpp
CONST	ENDS
;	COMDAT ?Restore@CTElection@@QAEHPAVCQuery@@@Z
_TEXT	SEGMENT
tv315 = -316						; size = 4
_idPlayer$203697 = -316					; size = 4
_iDeposit$203700 = -312					; size = 8
$T211035 = -304						; size = 4
_szBegin$203689 = -300					; size = 17
_szPledge$203702 = -280					; size = 255
__$ArrayPad$ = -20					; size = 4
__$EHRec$ = -12						; size = 12
__$ReturnAddr$ = 4					; size = 4
_pQuery$ = 8						; size = 4
?Restore@CTElection@@QAEHPAVCQuery@@@Z PROC NEAR	; CTElection::Restore, COMDAT
; _this$ = ecx

; 287  : {	//    

  00000	55		 push	 ebp
  00001	8b ec		 mov	 ebp, esp
  00003	83 e4 f8	 and	 esp, -8			; fffffff8H
  00006	6a ff		 push	 -1
  00008	68 00 00 00 00	 push	 __ehhandler$?Restore@CTElection@@QAEHPAVCQuery@@@Z
  0000d	64 a1 00 00 00
	00		 mov	 eax, DWORD PTR fs:__except_list
  00013	50		 push	 eax
  00014	64 89 25 00 00
	00 00		 mov	 DWORD PTR fs:__except_list, esp
  0001b	81 ec 30 01 00
	00		 sub	 esp, 304		; 00000130H
  00021	a1 00 00 00 00	 mov	 eax, DWORD PTR ___security_cookie
  00026	53		 push	 ebx
  00027	56		 push	 esi
  00028	8b 75 08	 mov	 esi, DWORD PTR _pQuery$[ebp]
  0002b	33 c5		 xor	 eax, ebp
  0002d	89 84 24 30 01
	00 00		 mov	 DWORD PTR __$ArrayPad$[esp+324], eax

; 288  : 	if( !pQuery->Execute( "uspRestoreElection %d", g_appInfo.dwSys ) )

  00034	a1 00 00 00 00	 mov	 eax, DWORD PTR ?g_appInfo@@3UAppInfo@@A
  00039	57		 push	 edi
  0003a	50		 push	 eax
  0003b	68 00 00 00 00	 push	 OFFSET FLAT:??_C@_0BG@KGCKLKHB@uspRestoreElection?5?$CFd?$AA@
  00040	56		 push	 esi
  00041	8b d9		 mov	 ebx, ecx
  00043	e8 00 00 00 00	 call	 ?Execute@CQuery@@QAAHPBDZZ ; CQuery::Execute
  00048	83 c4 0c	 add	 esp, 12			; 0000000cH
  0004b	85 c0		 test	 eax, eax

; 289  : 		return FALSE;

  0004d	0f 84 f1 01 00
	00		 je	 $L211107

; 290  : 	if( pQuery->Fetch() )

  00053	8b ce		 mov	 ecx, esi
  00055	e8 00 00 00 00	 call	 ?Fetch@CQuery@@QAEHXZ	; CQuery::Fetch
  0005a	85 c0		 test	 eax, eax
  0005c	74 75		 je	 SHORT $L211046

; 291  : 	{
; 292  : 		m_idElection	= pQuery->GetInt( "idElection" );

  0005e	68 00 00 00 00	 push	 OFFSET FLAT:??_C@_0L@NBMLJLBM@idElection?$AA@
  00063	8b ce		 mov	 ecx, esi
  00065	e8 00 00 00 00	 call	 ?GetInt@CQuery@@QAEHPAD@Z ; CQuery::GetInt

; 293  : 		ELECTION_STATE eState	= static_cast<ELECTION_STATE>( pQuery->GetInt( "eState" ) );

  0006a	68 00 00 00 00	 push	 OFFSET FLAT:??_C@_06PFLNLAJN@eState?$AA@
  0006f	8b ce		 mov	 ecx, esi
  00071	89 43 08	 mov	 DWORD PTR [ebx+8], eax
  00074	e8 00 00 00 00	 call	 ?GetInt@CQuery@@QAEHPAD@Z ; CQuery::GetInt

; 294  : 		SetState( eState );
; 295  : 		SetRequirement( (int)( pQuery->GetInt( "nRequirement" ) * property.fRequirementFactor ) );

  00079	68 00 00 00 00	 push	 OFFSET FLAT:??_C@_0N@NOMIPDCI@nRequirement?$AA@
  0007e	8b ce		 mov	 ecx, esi
  00080	89 43 10	 mov	 DWORD PTR [ebx+16], eax
  00083	e8 00 00 00 00	 call	 ?GetInt@CQuery@@QAEHPAD@Z ; CQuery::GetInt
  00088	89 44 24 0c	 mov	 DWORD PTR tv315[esp+328], eax
  0008c	db 44 24 0c	 fild	 DWORD PTR tv315[esp+328]
  00090	d8 4b 6c	 fmul	 DWORD PTR [ebx+108]
  00093	e8 00 00 00 00	 call	 __ftol2

; 296  : 		char szBegin[17]	= { 0,};

  00098	33 c9		 xor	 ecx, ecx
  0009a	89 4c 24 1d	 mov	 DWORD PTR _szBegin$203689[esp+329], ecx
  0009e	89 4c 24 21	 mov	 DWORD PTR _szBegin$203689[esp+333], ecx
  000a2	89 4c 24 25	 mov	 DWORD PTR _szBegin$203689[esp+337], ecx

; 297  : 		pQuery->GetStr( "szBegin", szBegin );

  000a6	8d 54 24 1c	 lea	 edx, DWORD PTR _szBegin$203689[esp+328]
  000aa	52		 push	 edx
  000ab	89 4c 24 2d	 mov	 DWORD PTR _szBegin$203689[esp+345], ecx
  000af	68 00 00 00 00	 push	 OFFSET FLAT:??_C@_07PJNBBDOG@szBegin?$AA@
  000b4	8b ce		 mov	 ecx, esi
  000b6	89 43 0c	 mov	 DWORD PTR [ebx+12], eax
  000b9	c6 44 24 24 00	 mov	 BYTE PTR _szBegin$203689[esp+336], 0
  000be	e8 00 00 00 00	 call	 ?GetStr@CQuery@@QAEXPAD0@Z ; CQuery::GetStr

; 298  : 		SetBegin( CTElection::stot( szBegin ) );

  000c3	8d 44 24 1c	 lea	 eax, DWORD PTR _szBegin$203689[esp+328]
  000c7	50		 push	 eax
  000c8	e8 00 00 00 00	 call	 ?stot@CTElection@@SAJPBD@Z ; CTElection::stot
  000cd	83 c4 04	 add	 esp, 4
  000d0	89 43 24	 mov	 DWORD PTR [ebx+36], eax
$L211046:

; 299  : 	}
; 300  : 	if( !pQuery->Execute( "uspRestoreCandidates %d, %d", g_appInfo.dwSys, GetId() ) )

  000d3	8b 43 08	 mov	 eax, DWORD PTR [ebx+8]
  000d6	8b 0d 00 00 00
	00		 mov	 ecx, DWORD PTR ?g_appInfo@@3UAppInfo@@A
  000dc	50		 push	 eax
  000dd	51		 push	 ecx
  000de	68 00 00 00 00	 push	 OFFSET FLAT:??_C@_0BM@CHJPNMJK@uspRestoreCandidates?5?$CFd?0?5?$CFd?$AA@
  000e3	56		 push	 esi
  000e4	e8 00 00 00 00	 call	 ?Execute@CQuery@@QAAHPBDZZ ; CQuery::Execute
  000e9	83 c4 10	 add	 esp, 16			; 00000010H
  000ec	85 c0		 test	 eax, eax
  000ee	75 14		 jne	 SHORT $L211103

; 301  : 	{
; 302  : 		Error( "couldn't execute uspRestoreCandidates" );

  000f0	68 00 00 00 00	 push	 OFFSET FLAT:??_C@_0CG@GCHADNNB@couldn?8t?5execute?5uspRestoreCandi@
  000f5	e8 00 00 00 00	 call	 ?Error@@YAPBDPBDZZ	; Error
  000fa	83 c4 04	 add	 esp, 4

; 303  : 		return FALSE;

  000fd	33 c0		 xor	 eax, eax
  000ff	e9 49 01 00 00	 jmp	 $L203679
$L211103:

; 304  : 	}
; 305  : 	while( pQuery->Fetch() )

  00104	8b ce		 mov	 ecx, esi
  00106	e8 00 00 00 00	 call	 ?Fetch@CQuery@@QAEHXZ	; CQuery::Fetch
  0010b	85 c0		 test	 eax, eax
  0010d	0f 84 8f 00 00
	00		 je	 $L203696
$L203695:

; 306  : 	{
; 307  : 		u_long idPlayer		= static_cast<u_long>( pQuery->GetInt( "idPlayer" ) );

  00113	68 00 00 00 00	 push	 OFFSET FLAT:??_C@_08EPHCN@idPlayer?$AA@
  00118	8b ce		 mov	 ecx, esi
  0011a	e8 00 00 00 00	 call	 ?GetInt@CQuery@@QAEHPAD@Z ; CQuery::GetInt

; 308  : 		__int64 iDeposit	= pQuery->GetInt64( "iDeposit" );

  0011f	68 00 00 00 00	 push	 OFFSET FLAT:??_C@_08PIPANNIJ@iDeposit?$AA@
  00124	8b ce		 mov	 ecx, esi
  00126	89 44 24 10	 mov	 DWORD PTR _idPlayer$203697[esp+332], eax
  0012a	e8 00 00 00 00	 call	 ?GetInt64@CQuery@@QAE_JPAD@Z ; CQuery::GetInt64
  0012f	89 44 24 10	 mov	 DWORD PTR _iDeposit$203700[esp+328], eax

; 309  : 		char szPledge[CCandidate::nMaxPledgeLen]	= { 0,};

  00133	c6 44 24 30 00	 mov	 BYTE PTR _szPledge$203702[esp+328], 0
  00138	33 c0		 xor	 eax, eax
  0013a	b9 3f 00 00 00	 mov	 ecx, 63			; 0000003fH
  0013f	8d 7c 24 31	 lea	 edi, DWORD PTR _szPledge$203702[esp+329]
  00143	f3 ab		 rep stosd
  00145	89 54 24 14	 mov	 DWORD PTR _iDeposit$203700[esp+332], edx

; 310  : 		pQuery->GetStr( "szPledge", szPledge );

  00149	8d 54 24 30	 lea	 edx, DWORD PTR _szPledge$203702[esp+328]
  0014d	52		 push	 edx
  0014e	68 00 00 00 00	 push	 OFFSET FLAT:??_C@_08BCPGFKB@szPledge?$AA@
  00153	8b ce		 mov	 ecx, esi
  00155	66 ab		 stosw
  00157	e8 00 00 00 00	 call	 ?GetStr@CQuery@@QAEXPAD0@Z ; CQuery::GetStr

; 311  : 		int nVote	= pQuery->GetInt( "nVote" );

  0015c	68 00 00 00 00	 push	 OFFSET FLAT:??_C@_05ODKHLCCG@nVote?$AA@
  00161	8b ce		 mov	 ecx, esi
  00163	e8 00 00 00 00	 call	 ?GetInt@CQuery@@QAEHPAD@Z ; CQuery::GetInt

; 312  : 		time_t tCreate	= pQuery->GetInt( "tCreate" );

  00168	68 00 00 00 00	 push	 OFFSET FLAT:??_C@_07BIPEELOH@tCreate?$AA@
  0016d	8b ce		 mov	 ecx, esi
  0016f	8b f8		 mov	 edi, eax
  00171	e8 00 00 00 00	 call	 ?GetInt@CQuery@@QAEHPAD@Z ; CQuery::GetInt

; 313  : 		AddCandidate( idPlayer, iDeposit, szPledge, nVote, tCreate );

  00176	8b 4c 24 14	 mov	 ecx, DWORD PTR _iDeposit$203700[esp+332]
  0017a	8b 54 24 10	 mov	 edx, DWORD PTR _iDeposit$203700[esp+328]
  0017e	50		 push	 eax
  0017f	57		 push	 edi
  00180	8d 44 24 38	 lea	 eax, DWORD PTR _szPledge$203702[esp+336]
  00184	50		 push	 eax
  00185	8b 44 24 18	 mov	 eax, DWORD PTR _idPlayer$203697[esp+340]
  00189	51		 push	 ecx
  0018a	52		 push	 edx
  0018b	50		 push	 eax
  0018c	8b cb		 mov	 ecx, ebx
  0018e	e8 00 00 00 00	 call	 ?AddCandidate@IElection@@QAEPAVCCandidate@@K_JPBDHJ@Z ; IElection::AddCandidate
  00193	8b ce		 mov	 ecx, esi
  00195	e8 00 00 00 00	 call	 ?Fetch@CQuery@@QAEHXZ	; CQuery::Fetch
  0019a	85 c0		 test	 eax, eax
  0019c	0f 85 71 ff ff
	ff		 jne	 $L203695
$L203696:

; 314  : 	}
; 315  : 	if( GetState() == eVote )	//  

  001a2	83 7b 10 02	 cmp	 DWORD PTR [ebx+16], 2

; 316  : 		SortVote();		//  

  001a6	8b cb		 mov	 ecx, ebx
  001a8	75 07		 jne	 SHORT $L203708
  001aa	e8 00 00 00 00	 call	 ?SortVote@IElection@@IAEXXZ ; IElection::SortVote

; 317  : 	else	//   

  001af	eb 05		 jmp	 SHORT $L203709
$L203708:

; 318  : 		SortDeposit();	//  

  001b1	e8 00 00 00 00	 call	 ?SortDeposit@IElection@@IAEXXZ ; IElection::SortDeposit
$L203709:

; 319  : 	
; 320  : 	if( !GetBegin() || GetState() == eExpired )	//    

  001b6	8b 43 24	 mov	 eax, DWORD PTR [ebx+36]
  001b9	85 c0		 test	 eax, eax
  001bb	74 0a		 je	 SHORT $L203711
  001bd	83 7b 10 03	 cmp	 DWORD PTR [ebx+16], 3
  001c1	0f 85 81 00 00
	00		 jne	 $L203713
$L203711:

; 321  : 	{
; 322  : 		PrepareNext();

  001c7	8b cb		 mov	 ecx, ebx
  001c9	e8 00 00 00 00	 call	 ?PrepareNext@IElection@@QAEXXZ ; IElection::PrepareNext

; 323  : 		if( !pQuery->Execute( "uspElectionInitialize %d, %d, %s", g_appInfo.dwSys, GetId(), CTElection::ttos( GetBegin() ) ) )

  001ce	8b 43 24	 mov	 eax, DWORD PTR [ebx+36]
  001d1	50		 push	 eax
  001d2	8d 4c 24 1c	 lea	 ecx, DWORD PTR $T211035[esp+332]
  001d6	51		 push	 ecx
  001d7	e8 00 00 00 00	 call	 ?ttos@CTElection@@SA?AV?$CStringT@DV?$StrTraitMFC@DV?$ChTraitsCRT@D@ATL@@@@@ATL@@J@Z ; CTElection::ttos
  001dc	8b 10		 mov	 edx, DWORD PTR [eax]
  001de	8b 5b 08	 mov	 ebx, DWORD PTR [ebx+8]
  001e1	a1 00 00 00 00	 mov	 eax, DWORD PTR ?g_appInfo@@3UAppInfo@@A
  001e6	52		 push	 edx
  001e7	53		 push	 ebx
  001e8	50		 push	 eax
  001e9	68 00 00 00 00	 push	 OFFSET FLAT:??_C@_0CB@FCFJFKNF@uspElectionInitialize?5?$CFd?0?5?$CFd?0?5?$CFs@
  001ee	56		 push	 esi
  001ef	c7 84 24 60 01
	00 00 00 00 00
	00		 mov	 DWORD PTR __$EHRec$[esp+364], 0
  001fa	e8 00 00 00 00	 call	 ?Execute@CQuery@@QAAHPBDZZ ; CQuery::Execute
  001ff	8b d8		 mov	 ebx, eax
  00201	8b 44 24 34	 mov	 eax, DWORD PTR $T211035[esp+356]
  00205	83 c4 1c	 add	 esp, 28			; 0000001cH
  00208	f7 db		 neg	 ebx
  0020a	1a db		 sbb	 bl, bl
  0020c	83 c0 f0	 add	 eax, -16		; fffffff0H
  0020f	fe c3		 inc	 bl
  00211	c7 84 24 44 01
	00 00 ff ff ff
	ff		 mov	 DWORD PTR __$EHRec$[esp+336], -1
  0021c	8d 48 0c	 lea	 ecx, DWORD PTR [eax+12]
  0021f	83 ca ff	 or	 edx, -1
  00222	f0 0f c1 11	 lock	  xadd	 DWORD PTR [ecx], edx
  00226	4a		 dec	 edx
  00227	85 d2		 test	 edx, edx
  00229	7f 08		 jg	 SHORT $L211095
  0022b	8b 08		 mov	 ecx, DWORD PTR [eax]
  0022d	8b 11		 mov	 edx, DWORD PTR [ecx]
  0022f	50		 push	 eax
  00230	ff 52 04	 call	 DWORD PTR [edx+4]
$L211095:
  00233	84 db		 test	 bl, bl
  00235	74 11		 je	 SHORT $L203713

; 324  : 		{
; 325  : 			Error( "couldn't execute uspElectionInitialize" );

  00237	68 00 00 00 00	 push	 OFFSET FLAT:??_C@_0CH@LCMLFLCE@couldn?8t?5execute?5uspElectionInit@
  0023c	e8 00 00 00 00	 call	 ?Error@@YAPBDPBDZZ	; Error
  00241	83 c4 04	 add	 esp, 4
$L211107:

; 326  : 			return FALSE;

  00244	33 c0		 xor	 eax, eax
  00246	eb 05		 jmp	 SHORT $L203679
$L203713:

; 327  : 		}
; 328  : 	}
; 329  : 	return TRUE;

  00248	b8 01 00 00 00	 mov	 eax, 1
$L203679:

; 330  : }

  0024d	8b 8c 24 3c 01
	00 00		 mov	 ecx, DWORD PTR __$EHRec$[esp+328]
  00254	64 89 0d 00 00
	00 00		 mov	 DWORD PTR fs:__except_list, ecx
  0025b	8b 8c 24 34 01
	00 00		 mov	 ecx, DWORD PTR __$ArrayPad$[esp+328]
  00262	5f		 pop	 edi
  00263	5e		 pop	 esi
  00264	33 cd		 xor	 ecx, ebp
  00266	5b		 pop	 ebx
  00267	e8 00 00 00 00	 call	 @__security_check_cookie@4
  0026c	8b e5		 mov	 esp, ebp
  0026e	5d		 pop	 ebp
  0026f	c2 04 00	 ret	 4
_TEXT	ENDS
;	COMDAT text$x
text$x	SEGMENT
$L211036:
  00000	8d 8d d0 fe ff
	ff		 lea	 ecx, DWORD PTR $T211035[ebp]
  00006	e9 00 00 00 00	 jmp	 ??1?$CStringT@DV?$StrTraitMFC@DV?$ChTraitsCRT@D@ATL@@@@@ATL@@QAE@XZ ; ATL::CStringT<char,StrTraitMFC<char,ATL::ChTraitsCRT<char> > >::~CStringT<char,StrTraitMFC<char,ATL::ChTraitsCRT<char> > >
__ehhandler$?Restore@CTElection@@QAEHPAVCQuery@@@Z:
  0000b	b8 00 00 00 00	 mov	 eax, OFFSET FLAT:$T211102
  00010	e9 00 00 00 00	 jmp	 ___CxxFrameHandler
text$x	ENDS
?Restore@CTElection@@QAEHPAVCQuery@@@Z ENDP		; CTElection::Restore
PUBLIC	?Restore@CLController@@QAEHXZ			; CLController::Restore
EXTRN	?CreateQuery@CDbController@@QAEPAVCQuery@@XZ:NEAR ; CDbController::CreateQuery
; Function compile flags: /Ogty
;	COMDAT ?Restore@CLController@@QAEHXZ
_TEXT	SEGMENT
?Restore@CLController@@QAEHXZ PROC NEAR			; CLController::Restore, COMDAT
; _this$ = ecx

; 646  : {	//      

  00000	56		 push	 esi
  00001	57		 push	 edi
  00002	8b f9		 mov	 edi, ecx

; 647  : 	CQuery* pQuery	= CreateQuery();

  00004	e8 00 00 00 00	 call	 ?CreateQuery@CDbController@@QAEPAVCQuery@@XZ ; CDbController::CreateQuery
  00009	8b f0		 mov	 esi, eax

; 648  : 	if( !pQuery )

  0000b	85 f6		 test	 esi, esi
  0000d	75 03		 jne	 SHORT $L204328
  0000f	5f		 pop	 edi
  00010	5e		 pop	 esi

; 662  : }

  00011	c3		 ret	 0
$L204328:

; 649  : 		return FALSE;
; 650  : 	CTElection* pElection	= static_cast<CTElection*>( m_pLord->GetElection() );

  00012	8b 4f 14	 mov	 ecx, DWORD PTR [edi+20]
  00015	8b 79 08	 mov	 edi, DWORD PTR [ecx+8]
  00018	53		 push	 ebx

; 651  : 	CLEvent* pEvent		= static_cast<CLEvent*>( m_pLord->GetEvent() );

  00019	8b 59 0c	 mov	 ebx, DWORD PTR [ecx+12]
  0001c	55		 push	 ebp

; 652  : 	CTLordSkill* pSkills	= static_cast<CTLordSkill*>( m_pLord->GetSkills() );

  0001d	8b 69 10	 mov	 ebp, DWORD PTR [ecx+16]

; 653  : 	
; 654  : 	if( m_pLord->Restore( pQuery ) && pElection->Restore( pQuery )
; 655  : 		&& pEvent->Restore( pQuery ) && pSkills->Restore( pQuery ) )

  00020	56		 push	 esi
  00021	e8 00 00 00 00	 call	 ?Restore@CTLord@@QAEHPAVCQuery@@@Z ; CTLord::Restore
  00026	85 c0		 test	 eax, eax
  00028	74 3e		 je	 SHORT $L204335
  0002a	56		 push	 esi
  0002b	8b cf		 mov	 ecx, edi
  0002d	e8 00 00 00 00	 call	 ?Restore@CTElection@@QAEHPAVCQuery@@@Z ; CTElection::Restore
  00032	85 c0		 test	 eax, eax
  00034	74 32		 je	 SHORT $L204335
  00036	56		 push	 esi
  00037	8b cb		 mov	 ecx, ebx
  00039	e8 00 00 00 00	 call	 ?Restore@CLEvent@@QAEHPAVCQuery@@@Z ; CLEvent::Restore
  0003e	85 c0		 test	 eax, eax
  00040	74 26		 je	 SHORT $L204335
  00042	56		 push	 esi
  00043	8b cd		 mov	 ecx, ebp
  00045	e8 00 00 00 00	 call	 ?Restore@CTLordSkill@@QAEHPAVCQuery@@@Z ; CTLordSkill::Restore
  0004a	85 c0		 test	 eax, eax
  0004c	74 1a		 je	 SHORT $L204335

; 656  : 	{
; 657  : 		SAFE_DELETE( pQuery );

  0004e	8b ce		 mov	 ecx, esi
  00050	e8 00 00 00 00	 call	 ??1CQuery@@QAE@XZ	; CQuery::~CQuery
  00055	56		 push	 esi
  00056	e8 00 00 00 00	 call	 ??3@YAXPAX@Z		; operator delete
  0005b	83 c4 04	 add	 esp, 4
  0005e	5d		 pop	 ebp
  0005f	5b		 pop	 ebx
  00060	5f		 pop	 edi

; 658  : 		return TRUE;

  00061	b8 01 00 00 00	 mov	 eax, 1
  00066	5e		 pop	 esi

; 662  : }

  00067	c3		 ret	 0
$L204335:

; 659  : 	}
; 660  : 	SAFE_DELETE( pQuery );	

  00068	8b ce		 mov	 ecx, esi
  0006a	e8 00 00 00 00	 call	 ??1CQuery@@QAE@XZ	; CQuery::~CQuery
  0006f	56		 push	 esi
  00070	e8 00 00 00 00	 call	 ??3@YAXPAX@Z		; operator delete
  00075	83 c4 04	 add	 esp, 4
  00078	5d		 pop	 ebp
  00079	5b		 pop	 ebx
  0007a	5f		 pop	 edi

; 661  : 	return FALSE;

  0007b	33 c0		 xor	 eax, eax
  0007d	5e		 pop	 esi

; 662  : }

  0007e	c3		 ret	 0
?Restore@CLController@@QAEHXZ ENDP			; CLController::Restore
_TEXT	ENDS
PUBLIC	?EndVote@CLController@@QAEHK@Z			; CLController::EndVote
PUBLIC	??_C@_0CC@KFNJJIIE@uspElectionEndVote?5?$CFd?0?5?$CFd?0?5?$CFd?0?5?$CF@ ; `string'
EXTRN	?GetNextBegin@IElection@@QAEJXZ:NEAR		; IElection::GetNextBegin
;	COMDAT xdata$x
; File c:\program files\microsoft visual studio .net 2003\vc7\atlmfc\include\atlsimpstr.h
xdata$x	SEGMENT
$T211191 DD	0ffffffffH
	DD	FLAT:$L211143
$T211188 DD	019930520H
	DD	01H
	DD	FLAT:$T211191
	DD	2 DUP(00H)
	DD	2 DUP(00H)
xdata$x	ENDS
;	COMDAT ??_C@_0CC@KFNJJIIE@uspElectionEndVote?5?$CFd?0?5?$CFd?0?5?$CFd?0?5?$CF@
CONST	SEGMENT
??_C@_0CC@KFNJJIIE@uspElectionEndVote?5?$CFd?0?5?$CFd?0?5?$CFd?0?5?$CF@ DB 'u'
	DB	'spElectionEndVote %d, %d, %d, %s', 00H	; `string'
; Function compile flags: /Ogty
; File c:\documents and settings\test\mes documents\source\virtuos_v17\build\program\databaseserver\tlord.cpp
CONST	ENDS
;	COMDAT ?EndVote@CLController@@QAEHK@Z
_TEXT	SEGMENT
$T211142 = -16						; size = 4
__$EHRec$ = -12						; size = 12
_idPlayer$ = 8						; size = 4
?EndVote@CLController@@QAEHK@Z PROC NEAR		; CLController::EndVote, COMDAT
; _this$ = ecx

; 684  : {	//    

  00000	6a ff		 push	 -1
  00002	68 00 00 00 00	 push	 __ehhandler$?EndVote@CLController@@QAEHK@Z
  00007	64 a1 00 00 00
	00		 mov	 eax, DWORD PTR fs:__except_list
  0000d	50		 push	 eax
  0000e	64 89 25 00 00
	00 00		 mov	 DWORD PTR fs:__except_list, esp
  00015	51		 push	 ecx
  00016	56		 push	 esi
  00017	8b f1		 mov	 esi, ecx

; 685  : 	IElection* pElection	= m_pLord->GetElection();

  00019	8b 46 14	 mov	 eax, DWORD PTR [esi+20]
  0001c	57		 push	 edi
  0001d	8b 78 08	 mov	 edi, DWORD PTR [eax+8]

; 686  : 	return GetQueryObject()->Execute( "uspElectionEndVote %d, %d, %d, %s", g_appInfo.dwSys, pElection->GetId(), idPlayer,
; 687  : 		(LPCSTR)CTElection::ttos( pElection->GetNextBegin() ) );

  00020	8b cf		 mov	 ecx, edi
  00022	e8 00 00 00 00	 call	 ?GetNextBegin@IElection@@QAEJXZ ; IElection::GetNextBegin
  00027	50		 push	 eax
  00028	8d 4c 24 0c	 lea	 ecx, DWORD PTR $T211142[esp+28]
  0002c	51		 push	 ecx
  0002d	e8 00 00 00 00	 call	 ?ttos@CTElection@@SA?AV?$CStringT@DV?$StrTraitMFC@DV?$ChTraitsCRT@D@ATL@@@@@ATL@@J@Z ; CTElection::ttos
  00032	8b 00		 mov	 eax, DWORD PTR [eax]
  00034	8b 54 24 24	 mov	 edx, DWORD PTR _idPlayer$[esp+28]
  00038	8b 7f 08	 mov	 edi, DWORD PTR [edi+8]
  0003b	8b 76 0c	 mov	 esi, DWORD PTR [esi+12]
  0003e	50		 push	 eax
  0003f	a1 00 00 00 00	 mov	 eax, DWORD PTR ?g_appInfo@@3UAppInfo@@A
  00044	52		 push	 edx
  00045	57		 push	 edi
  00046	50		 push	 eax
  00047	68 00 00 00 00	 push	 OFFSET FLAT:??_C@_0CC@KFNJJIIE@uspElectionEndVote?5?$CFd?0?5?$CFd?0?5?$CFd?0?5?$CF@
  0004c	56		 push	 esi
  0004d	c7 44 24 34 00
	00 00 00	 mov	 DWORD PTR __$EHRec$[esp+64], 0
  00055	e8 00 00 00 00	 call	 ?Execute@CQuery@@QAAHPBDZZ ; CQuery::Execute
  0005a	8b f0		 mov	 esi, eax
  0005c	8b 44 24 28	 mov	 eax, DWORD PTR $T211142[esp+56]
  00060	83 c0 f0	 add	 eax, -16		; fffffff0H
  00063	83 c4 20	 add	 esp, 32			; 00000020H
  00066	c7 44 24 14 ff
	ff ff ff	 mov	 DWORD PTR __$EHRec$[esp+32], -1
  0006e	8d 48 0c	 lea	 ecx, DWORD PTR [eax+12]
  00071	83 ca ff	 or	 edx, -1
  00074	f0 0f c1 11	 lock	  xadd	 DWORD PTR [ecx], edx
  00078	4a		 dec	 edx
  00079	85 d2		 test	 edx, edx
  0007b	7f 08		 jg	 SHORT $L211189
  0007d	8b 08		 mov	 ecx, DWORD PTR [eax]
  0007f	8b 11		 mov	 edx, DWORD PTR [ecx]
  00081	50		 push	 eax
  00082	ff 52 04	 call	 DWORD PTR [edx+4]
$L211189:

; 688  : }

  00085	8b 4c 24 0c	 mov	 ecx, DWORD PTR __$EHRec$[esp+24]
  00089	5f		 pop	 edi
  0008a	8b c6		 mov	 eax, esi
  0008c	5e		 pop	 esi
  0008d	64 89 0d 00 00
	00 00		 mov	 DWORD PTR fs:__except_list, ecx
  00094	83 c4 10	 add	 esp, 16			; 00000010H
  00097	c2 04 00	 ret	 4
_TEXT	ENDS
;	COMDAT text$x
text$x	SEGMENT
$L211143:
  00000	8d 4d f0	 lea	 ecx, DWORD PTR $T211142[ebp]
  00003	e9 00 00 00 00	 jmp	 ??1?$CStringT@DV?$StrTraitMFC@DV?$ChTraitsCRT@D@ATL@@@@@ATL@@QAE@XZ ; ATL::CStringT<char,StrTraitMFC<char,ATL::ChTraitsCRT<char> > >::~CStringT<char,StrTraitMFC<char,ATL::ChTraitsCRT<char> > >
__ehhandler$?EndVote@CLController@@QAEHK@Z:
  00008	b8 00 00 00 00	 mov	 eax, OFFSET FLAT:$T211188
  0000d	e9 00 00 00 00	 jmp	 ___CxxFrameHandler
text$x	ENDS
?EndVote@CLController@@QAEHK@Z ENDP			; CLController::EndVote
PUBLIC	?insert@?$vector@MV?$allocator@M@std@@@std@@QAE?AViterator@12@V312@ABM@Z ; std::vector<float,std::allocator<float> >::insert
; Function compile flags: /Ogty
; File c:\program files\microsoft visual studio .net 2003\vc7\include\vector
;	COMDAT ?insert@?$vector@MV?$allocator@M@std@@@std@@QAE?AViterator@12@V312@ABM@Z
_TEXT	SEGMENT
___$ReturnUdt$ = 8					; size = 4
__Where$ = 12						; size = 4
__Val$ = 16						; size = 4
?insert@?$vector@MV?$allocator@M@std@@@std@@QAE?AViterator@12@V312@ABM@Z PROC NEAR ; std::vector<float,std::allocator<float> >::insert, COMDAT
; _this$ = ecx

; 621  : 		size_type _Off = size() == 0 ? 0 : _Where - begin();

  00000	8b 54 24 08	 mov	 edx, DWORD PTR __Where$[esp-4]
  00004	56		 push	 esi
  00005	57		 push	 edi
  00006	8b f9		 mov	 edi, ecx
  00008	8b 4f 04	 mov	 ecx, DWORD PTR [edi+4]
  0000b	85 c9		 test	 ecx, ecx
  0000d	74 0c		 je	 SHORT $L211258
  0000f	8b 47 08	 mov	 eax, DWORD PTR [edi+8]
  00012	2b c1		 sub	 eax, ecx
  00014	c1 f8 02	 sar	 eax, 2
  00017	85 c0		 test	 eax, eax
  00019	75 04		 jne	 SHORT $L211197
$L211258:
  0001b	33 f6		 xor	 esi, esi
  0001d	eb 07		 jmp	 SHORT $L211198
$L211197:
  0001f	8b f2		 mov	 esi, edx
  00021	2b f1		 sub	 esi, ecx
  00023	c1 fe 02	 sar	 esi, 2
$L211198:

; 622  : 		_Insert_n(_Where, (size_type)1, _Val);

  00026	8b 44 24 14	 mov	 eax, DWORD PTR __Val$[esp+4]
  0002a	50		 push	 eax
  0002b	6a 01		 push	 1
  0002d	52		 push	 edx
  0002e	8b cf		 mov	 ecx, edi
  00030	e8 00 00 00 00	 call	 ?_Insert_n@?$vector@MV?$allocator@M@std@@@std@@IAEXViterator@12@IABM@Z ; std::vector<float,std::allocator<float> >::_Insert_n

; 623  : 		return (begin() + _Off);

  00035	8b 4f 04	 mov	 ecx, DWORD PTR [edi+4]
  00038	8b 44 24 0c	 mov	 eax, DWORD PTR ___$ReturnUdt$[esp+4]
  0003c	8d 14 b1	 lea	 edx, DWORD PTR [ecx+esi*4]
  0003f	5f		 pop	 edi
  00040	89 10		 mov	 DWORD PTR [eax], edx
  00042	5e		 pop	 esi

; 624  : 		}

  00043	c2 0c 00	 ret	 12			; 0000000cH
?insert@?$vector@MV?$allocator@M@std@@@std@@QAE?AViterator@12@V312@ABM@Z ENDP ; std::vector<float,std::allocator<float> >::insert
_TEXT	ENDS
PUBLIC	?insert@?$vector@HV?$allocator@H@std@@@std@@QAE?AViterator@12@V312@ABH@Z ; std::vector<int,std::allocator<int> >::insert
; Function compile flags: /Ogty
;	COMDAT ?insert@?$vector@HV?$allocator@H@std@@@std@@QAE?AViterator@12@V312@ABH@Z
_TEXT	SEGMENT
___$ReturnUdt$ = 8					; size = 4
__Where$ = 12						; size = 4
__Val$ = 16						; size = 4
?insert@?$vector@HV?$allocator@H@std@@@std@@QAE?AViterator@12@V312@ABH@Z PROC NEAR ; std::vector<int,std::allocator<int> >::insert, COMDAT
; _this$ = ecx

; 621  : 		size_type _Off = size() == 0 ? 0 : _Where - begin();

  00000	8b 54 24 08	 mov	 edx, DWORD PTR __Where$[esp-4]
  00004	56		 push	 esi
  00005	57		 push	 edi
  00006	8b f9		 mov	 edi, ecx
  00008	8b 4f 04	 mov	 ecx, DWORD PTR [edi+4]
  0000b	85 c9		 test	 ecx, ecx
  0000d	74 0c		 je	 SHORT $L211323
  0000f	8b 47 08	 mov	 eax, DWORD PTR [edi+8]
  00012	2b c1		 sub	 eax, ecx
  00014	c1 f8 02	 sar	 eax, 2
  00017	85 c0		 test	 eax, eax
  00019	75 04		 jne	 SHORT $L211262
$L211323:
  0001b	33 f6		 xor	 esi, esi
  0001d	eb 07		 jmp	 SHORT $L211263
$L211262:
  0001f	8b f2		 mov	 esi, edx
  00021	2b f1		 sub	 esi, ecx
  00023	c1 fe 02	 sar	 esi, 2
$L211263:

; 622  : 		_Insert_n(_Where, (size_type)1, _Val);

  00026	8b 44 24 14	 mov	 eax, DWORD PTR __Val$[esp+4]
  0002a	50		 push	 eax
  0002b	6a 01		 push	 1
  0002d	52		 push	 edx
  0002e	8b cf		 mov	 ecx, edi
  00030	e8 00 00 00 00	 call	 ?_Insert_n@?$vector@HV?$allocator@H@std@@@std@@IAEXViterator@12@IABH@Z ; std::vector<int,std::allocator<int> >::_Insert_n

; 623  : 		return (begin() + _Off);

  00035	8b 4f 04	 mov	 ecx, DWORD PTR [edi+4]
  00038	8b 44 24 0c	 mov	 eax, DWORD PTR ___$ReturnUdt$[esp+4]
  0003c	8d 14 b1	 lea	 edx, DWORD PTR [ecx+esi*4]
  0003f	5f		 pop	 edi
  00040	89 10		 mov	 DWORD PTR [eax], edx
  00042	5e		 pop	 esi

; 624  : 		}

  00043	c2 0c 00	 ret	 12			; 0000000cH
?insert@?$vector@HV?$allocator@H@std@@@std@@QAE?AViterator@12@V312@ABH@Z ENDP ; std::vector<int,std::allocator<int> >::insert
_TEXT	ENDS
PUBLIC	?RestoreAll@CTLord@@QAEHXZ			; CTLord::RestoreAll
; Function compile flags: /Ogty
; File c:\documents and settings\test\mes documents\source\virtuos_v17\build\program\databaseserver\tlord.cpp
;	COMDAT ?RestoreAll@CTLord@@QAEHXZ
_TEXT	SEGMENT
?RestoreAll@CTLord@@QAEHXZ PROC NEAR			; CTLord::RestoreAll, COMDAT
; _this$ = ecx

; 163  : 	return GetController()->Restore();

  00000	8b 01		 mov	 eax, DWORD PTR [ecx]
  00002	ff 50 08	 call	 DWORD PTR [eax+8]
  00005	8b c8		 mov	 ecx, eax
  00007	e9 00 00 00 00	 jmp	 ?Restore@CLController@@QAEHXZ ; CLController::Restore
?RestoreAll@CTLord@@QAEHXZ ENDP				; CTLord::RestoreAll
_TEXT	ENDS
PUBLIC	??_C@_0BJ@NBOADCDH@CTElection?4DoTestEndVote?$AA@ ; `string'
EXTRN	?SendElectionEndVote@CDPTrans@@QAEXK@Z:NEAR	; CDPTrans::SendElectionEndVote
;	COMDAT ??_C@_0BJ@NBOADCDH@CTElection?4DoTestEndVote?$AA@
; File c:\program files\microsoft visual studio .net 2003\vc7\include\vector
CONST	SEGMENT
??_C@_0BJ@NBOADCDH@CTElection?4DoTestEndVote?$AA@ DB 'CTElection.DoTestEn'
	DB	'dVote', 00H					; `string'
; Function compile flags: /Ogty
; File c:\documents and settings\test\mes documents\source\virtuos_v17\build\program\databaseserver\tlord.cpp
CONST	ENDS
;	COMDAT ?DoTestEndVote@CTElection@@MAEHK@Z
_TEXT	SEGMENT
$T211379 = 8						; size = 4
_idPlayer$ = 8						; size = 4
?DoTestEndVote@CTElection@@MAEHK@Z PROC NEAR		; CTElection::DoTestEndVote, COMDAT
; _this$ = ecx

; 434  : {	//     

  00000	56		 push	 esi
  00001	57		 push	 edi

; 435  : 	// IElection::EndVote
; 436  : 	election::OutputDebugString( "CTElection.DoTestEndVote" );

  00002	68 00 00 00 00	 push	 OFFSET FLAT:??_C@_0BJ@NBOADCDH@CTElection?4DoTestEndVote?$AA@
  00007	8b f1		 mov	 esi, ecx
  00009	e8 00 00 00 00	 call	 ?OutputDebugStringA@election@@YAXPBDZZ ; election::OutputDebugStringA

; 437  : 	CLController* pController	= m_pLord->GetController();

  0000e	8b 4e 04	 mov	 ecx, DWORD PTR [esi+4]
  00011	8b 01		 mov	 eax, DWORD PTR [ecx]
  00013	83 c4 04	 add	 esp, 4
  00016	ff 50 08	 call	 DWORD PTR [eax+8]

; 438  : 	if( pController->EndVote( idPlayer ) )	//  

  00019	8b 7c 24 0c	 mov	 edi, DWORD PTR _idPlayer$[esp+4]
  0001d	57		 push	 edi
  0001e	8b c8		 mov	 ecx, eax
  00020	e8 00 00 00 00	 call	 ?EndVote@CLController@@QAEHK@Z ; CLController::EndVote
  00025	85 c0		 test	 eax, eax
  00027	74 40		 je	 SHORT $L203921

; 439  : 	{
; 440  : 		CDPTrans::GetInstance()->SendElectionEndVote( idPlayer );		// 

  00029	57		 push	 edi
  0002a	e8 00 00 00 00	 call	 ?GetInstance@CDPTrans@@SAPAV1@XZ ; CDPTrans::GetInstance
  0002f	8b c8		 mov	 ecx, eax
  00031	e8 00 00 00 00	 call	 ?SendElectionEndVote@CDPTrans@@QAEXK@Z ; CDPTrans::SendElectionEndVote

; 441  : 		PostDepositToAllCandidate();	//  

  00036	8b 4e 04	 mov	 ecx, DWORD PTR [esi+4]
  00039	8b 11		 mov	 edx, DWORD PTR [ecx]
  0003b	ff 52 08	 call	 DWORD PTR [edx+8]
  0003e	8b 40 0c	 mov	 eax, DWORD PTR [eax+12]
  00041	8b 4e 1c	 mov	 ecx, DWORD PTR [esi+28]
  00044	8b 56 18	 mov	 edx, DWORD PTR [esi+24]
  00047	50		 push	 eax
  00048	51		 push	 ecx
  00049	52		 push	 edx
  0004a	8d 44 24 18	 lea	 eax, DWORD PTR $T211379[esp+16]
  0004e	50		 push	 eax
  0004f	e8 00 00 00 00	 call	 ??$for_each@Viterator@?$vector@V?$shared_ptr@VCCandidate@@@boost@@V?$allocator@V?$shared_ptr@VCCandidate@@@boost@@@std@@@std@@UPostDeposit@@@std@@YA?AUPostDeposit@@Viterator@?$vector@V?$shared_ptr@VCCandidate@@@boost@@V?$allocator@V?$shared_ptr@VCCandidate@@@boost@@@std@@@0@0U1@@Z ; std::for_each<std::vector<boost::shared_ptr<CCandidate>,std::allocator<boost::shared_ptr<CCandidate> > >::iterator,PostDeposit>
  00054	83 c4 10	 add	 esp, 16			; 00000010H

; 442  : 		PostLordItems( idPlayer );		//   

  00057	57		 push	 edi
  00058	8b ce		 mov	 ecx, esi
  0005a	e8 00 00 00 00	 call	 ?PostLordItems@CTElection@@AAEXK@Z ; CTElection::PostLordItems
  0005f	5f		 pop	 edi

; 443  : 		return TRUE;

  00060	b8 01 00 00 00	 mov	 eax, 1
  00065	5e		 pop	 esi

; 446  : }

  00066	c2 04 00	 ret	 4
$L203921:
  00069	5f		 pop	 edi

; 444  : 	}
; 445  : 	return FALSE;

  0006a	33 c0		 xor	 eax, eax
  0006c	5e		 pop	 esi

; 446  : }

  0006d	c2 04 00	 ret	 4
?DoTestEndVote@CTElection@@MAEHK@Z ENDP			; CTElection::DoTestEndVote
_TEXT	ENDS
PUBLIC	?push_back@?$vector@MV?$allocator@M@std@@@std@@QAEXABM@Z ; std::vector<float,std::allocator<float> >::push_back
; Function compile flags: /Ogty
; File c:\program files\microsoft visual studio .net 2003\vc7\include\vector
;	COMDAT ?push_back@?$vector@MV?$allocator@M@std@@@std@@QAEXABM@Z
_TEXT	SEGMENT
__Val$ = 8						; size = 4
?push_back@?$vector@MV?$allocator@M@std@@@std@@QAEXABM@Z PROC NEAR ; std::vector<float,std::allocator<float> >::push_back, COMDAT
; _this$ = ecx

; 579  : 		{	// insert element at end

  00000	56		 push	 esi

; 580  : 		if (size() < capacity())

  00001	8b 71 04	 mov	 esi, DWORD PTR [ecx+4]
  00004	85 f6		 test	 esi, esi
  00006	75 04		 jne	 SHORT $L211405
  00008	33 d2		 xor	 edx, edx
  0000a	eb 08		 jmp	 SHORT $L211406
$L211405:
  0000c	8b 51 08	 mov	 edx, DWORD PTR [ecx+8]
  0000f	2b d6		 sub	 edx, esi
  00011	c1 fa 02	 sar	 edx, 2
$L211406:
  00014	85 f6		 test	 esi, esi
  00016	74 21		 je	 SHORT $L204776
  00018	8b 41 0c	 mov	 eax, DWORD PTR [ecx+12]
  0001b	2b c6		 sub	 eax, esi
  0001d	c1 f8 02	 sar	 eax, 2
  00020	3b d0		 cmp	 edx, eax
  00022	73 15		 jae	 SHORT $L204776

; 581  : 			_Mylast = _Ufill(_Mylast, 1, _Val);

  00024	8b 41 08	 mov	 eax, DWORD PTR [ecx+8]
  00027	8b 54 24 08	 mov	 edx, DWORD PTR __Val$[esp]
  0002b	8b 12		 mov	 edx, DWORD PTR [edx]
  0002d	89 10		 mov	 DWORD PTR [eax], edx
  0002f	83 c0 04	 add	 eax, 4
  00032	89 41 08	 mov	 DWORD PTR [ecx+8], eax
  00035	5e		 pop	 esi

; 584  : 		}

  00036	c2 04 00	 ret	 4
$L204776:

; 582  : 		else
; 583  : 			insert(end(), _Val);

  00039	8b 54 24 08	 mov	 edx, DWORD PTR __Val$[esp]
  0003d	8b 41 08	 mov	 eax, DWORD PTR [ecx+8]
  00040	52		 push	 edx
  00041	6a 01		 push	 1
  00043	50		 push	 eax
  00044	e8 00 00 00 00	 call	 ?_Insert_n@?$vector@MV?$allocator@M@std@@@std@@IAEXViterator@12@IABM@Z ; std::vector<float,std::allocator<float> >::_Insert_n
  00049	5e		 pop	 esi

; 584  : 		}

  0004a	c2 04 00	 ret	 4
?push_back@?$vector@MV?$allocator@M@std@@@std@@QAEXABM@Z ENDP ; std::vector<float,std::allocator<float> >::push_back
_TEXT	ENDS
PUBLIC	?push_back@?$vector@HV?$allocator@H@std@@@std@@QAEXABH@Z ; std::vector<int,std::allocator<int> >::push_back
; Function compile flags: /Ogty
;	COMDAT ?push_back@?$vector@HV?$allocator@H@std@@@std@@QAEXABH@Z
_TEXT	SEGMENT
__Val$ = 8						; size = 4
?push_back@?$vector@HV?$allocator@H@std@@@std@@QAEXABH@Z PROC NEAR ; std::vector<int,std::allocator<int> >::push_back, COMDAT
; _this$ = ecx

; 579  : 		{	// insert element at end

  00000	56		 push	 esi

; 580  : 		if (size() < capacity())

  00001	8b 71 04	 mov	 esi, DWORD PTR [ecx+4]
  00004	85 f6		 test	 esi, esi
  00006	75 04		 jne	 SHORT $L211590
  00008	33 d2		 xor	 edx, edx
  0000a	eb 08		 jmp	 SHORT $L211591
$L211590:
  0000c	8b 51 08	 mov	 edx, DWORD PTR [ecx+8]
  0000f	2b d6		 sub	 edx, esi
  00011	c1 fa 02	 sar	 edx, 2
$L211591:
  00014	85 f6		 test	 esi, esi
  00016	74 21		 je	 SHORT $L204800
  00018	8b 41 0c	 mov	 eax, DWORD PTR [ecx+12]
  0001b	2b c6		 sub	 eax, esi
  0001d	c1 f8 02	 sar	 eax, 2
  00020	3b d0		 cmp	 edx, eax
  00022	73 15		 jae	 SHORT $L204800

; 581  : 			_Mylast = _Ufill(_Mylast, 1, _Val);

  00024	8b 41 08	 mov	 eax, DWORD PTR [ecx+8]
  00027	8b 54 24 08	 mov	 edx, DWORD PTR __Val$[esp]
  0002b	8b 12		 mov	 edx, DWORD PTR [edx]
  0002d	89 10		 mov	 DWORD PTR [eax], edx
  0002f	83 c0 04	 add	 eax, 4
  00032	89 41 08	 mov	 DWORD PTR [ecx+8], eax
  00035	5e		 pop	 esi

; 584  : 		}

  00036	c2 04 00	 ret	 4
$L204800:

; 582  : 		else
; 583  : 			insert(end(), _Val);

  00039	8b 54 24 08	 mov	 edx, DWORD PTR __Val$[esp]
  0003d	8b 41 08	 mov	 eax, DWORD PTR [ecx+8]
  00040	52		 push	 edx
  00041	6a 01		 push	 1
  00043	50		 push	 eax
  00044	e8 00 00 00 00	 call	 ?_Insert_n@?$vector@HV?$allocator@H@std@@@std@@IAEXViterator@12@IABH@Z ; std::vector<int,std::allocator<int> >::_Insert_n
  00049	5e		 pop	 esi

; 584  : 		}

  0004a	c2 04 00	 ret	 4
?push_back@?$vector@HV?$allocator@H@std@@@std@@QAEXABH@Z ENDP ; std::vector<int,std::allocator<int> >::push_back
_TEXT	ENDS
PUBLIC	?ReadIni@CTElection@@AAEHPBD@Z			; CTElection::ReadIni
PUBLIC	??_C@_08EMBNBNLN@property?$AA@			; `string'
PUBLIC	??_C@_0L@NLLMANDB@nDayOfWeek?$AA@		; `string'
PUBLIC	??_C@_05DIDGHFGE@nHour?$AA@			; `string'
PUBLIC	??_C@_0L@CKDBDEOG@tCandidacy?$AA@		; `string'
PUBLIC	??_C@_05EBOKJDNL@tVote?$AA@			; `string'
PUBLIC	??_C@_05NBICHHD@nDays?$AA@			; `string'
PUBLIC	??_C@_04HCCHHEEF@rate?$AA@			; `string'
PUBLIC	??_C@_0BD@FJBKFPAD@fRequirementFactor?$AA@	; `string'
PUBLIC	??_C@_04NHONDGDE@item?$AA@			; `string'
EXTRN	?GetNumber@CScanner@@QAEHH@Z:NEAR		; CScanner::GetNumber
EXTRN	?GetFloat@CScanner@@QAEMH@Z:NEAR		; CScanner::GetFloat
EXTRN	??0CScript@@QAE@H@Z:NEAR			; CScript::CScript
EXTRN	??1CScript@@UAE@XZ:NEAR				; CScript::~CScript
EXTRN	?Load@CScript@@QAEHPBDHH@Z:NEAR			; CScript::Load
EXTRN	?GetToken@CScript@@UAEHH@Z:NEAR			; CScript::GetToken
;	COMDAT xdata$x
xdata$x	SEGMENT
$T212500 DD	0ffffffffH
	DD	FLAT:$L211771
$T212484 DD	019930520H
	DD	01H
	DD	FLAT:$T212500
	DD	2 DUP(00H)
	DD	2 DUP(00H)
xdata$x	ENDS
;	COMDAT ??_C@_08EMBNBNLN@property?$AA@
CONST	SEGMENT
??_C@_08EMBNBNLN@property?$AA@ DB 'property', 00H	; `string'
CONST	ENDS
;	COMDAT ??_C@_0L@NLLMANDB@nDayOfWeek?$AA@
CONST	SEGMENT
??_C@_0L@NLLMANDB@nDayOfWeek?$AA@ DB 'nDayOfWeek', 00H	; `string'
CONST	ENDS
;	COMDAT ??_C@_05DIDGHFGE@nHour?$AA@
CONST	SEGMENT
??_C@_05DIDGHFGE@nHour?$AA@ DB 'nHour', 00H		; `string'
CONST	ENDS
;	COMDAT ??_C@_0L@CKDBDEOG@tCandidacy?$AA@
CONST	SEGMENT
??_C@_0L@CKDBDEOG@tCandidacy?$AA@ DB 'tCandidacy', 00H	; `string'
CONST	ENDS
;	COMDAT ??_C@_05EBOKJDNL@tVote?$AA@
CONST	SEGMENT
??_C@_05EBOKJDNL@tVote?$AA@ DB 'tVote', 00H		; `string'
CONST	ENDS
;	COMDAT ??_C@_05NBICHHD@nDays?$AA@
CONST	SEGMENT
??_C@_05NBICHHD@nDays?$AA@ DB 'nDays', 00H		; `string'
CONST	ENDS
;	COMDAT ??_C@_04HCCHHEEF@rate?$AA@
CONST	SEGMENT
??_C@_04HCCHHEEF@rate?$AA@ DB 'rate', 00H		; `string'
CONST	ENDS
;	COMDAT ??_C@_0BD@FJBKFPAD@fRequirementFactor?$AA@
CONST	SEGMENT
??_C@_0BD@FJBKFPAD@fRequirementFactor?$AA@ DB 'fRequirementFactor', 00H ; `string'
CONST	ENDS
;	COMDAT ??_C@_04NHONDGDE@item?$AA@
CONST	SEGMENT
??_C@_04NHONDGDE@item?$AA@ DB 'item', 00H		; `string'
; Function compile flags: /Ogty
; File c:\documents and settings\test\mes documents\source\virtuos_v17\build\program\databaseserver\tlord.cpp
CONST	ENDS
;	COMDAT ?ReadIni@CTElection@@AAEHPBD@Z
_TEXT	SEGMENT
_nItem$203651 = -7780					; size = 4
_fRate$203640 = -7780					; size = 4
_s$ = -7776						; size = 7760
__$ArrayPad$ = -16					; size = 4
__$EHRec$ = -12						; size = 12
__$ReturnAddr$ = 4					; size = 4
_szFile$ = 8						; size = 4
?ReadIni@CTElection@@AAEHPBD@Z PROC NEAR		; CTElection::ReadIni, COMDAT
; _this$ = ecx

; 203  : {	//  

  00000	6a ff		 push	 -1
  00002	68 00 00 00 00	 push	 __ehhandler$?ReadIni@CTElection@@AAEHPBD@Z
  00007	64 a1 00 00 00
	00		 mov	 eax, DWORD PTR fs:__except_list
  0000d	50		 push	 eax
  0000e	b8 58 1e 00 00	 mov	 eax, 7768		; 00001e58H
  00013	64 89 25 00 00
	00 00		 mov	 DWORD PTR fs:__except_list, esp
  0001a	e8 00 00 00 00	 call	 __chkstk
  0001f	a1 00 00 00 00	 mov	 eax, DWORD PTR ___security_cookie
  00024	33 c4		 xor	 eax, esp
  00026	53		 push	 ebx
  00027	56		 push	 esi
  00028	8b b4 24 70 1e
	00 00		 mov	 esi, DWORD PTR _szFile$[esp+7784]
  0002f	8b d9		 mov	 ebx, ecx

; 204  : 	CScript s;

  00031	6a 00		 push	 0
  00033	8d 4c 24 10	 lea	 ecx, DWORD PTR _s$[esp+7792]
  00037	89 84 24 60 1e
	00 00		 mov	 DWORD PTR __$ArrayPad$[esp+7792], eax
  0003e	e8 00 00 00 00	 call	 ??0CScript@@QAE@H@Z	; CScript::CScript

; 205  : 	if( s.Load( szFile ) == FALSE )

  00043	6a 00		 push	 0
  00045	6a 01		 push	 1
  00047	56		 push	 esi
  00048	8d 4c 24 18	 lea	 ecx, DWORD PTR _s$[esp+7800]
  0004c	c7 84 24 74 1e
	00 00 00 00 00
	00		 mov	 DWORD PTR __$EHRec$[esp+7808], 0
  00057	e8 00 00 00 00	 call	 ?Load@CScript@@QAEHPBDHH@Z ; CScript::Load
  0005c	85 c0		 test	 eax, eax

; 206  : 		return FALSE;

  0005e	8d 4c 24 0c	 lea	 ecx, DWORD PTR _s$[esp+7788]
  00062	75 17		 jne	 SHORT $L203613
  00064	c7 84 24 68 1e
	00 00 ff ff ff
	ff		 mov	 DWORD PTR __$EHRec$[esp+7796], -1
  0006f	e8 00 00 00 00	 call	 ??1CScript@@UAE@XZ	; CScript::~CScript
  00074	33 c0		 xor	 eax, eax
  00076	e9 e2 02 00 00	 jmp	 $L203611
$L203613:

; 207  : 
; 208  : 	s.GetToken();

  0007b	6a 00		 push	 0
  0007d	e8 00 00 00 00	 call	 ?GetToken@CScript@@UAEHH@Z ; CScript::GetToken

; 209  : 	while( s.tok != FINISHED )

  00082	83 bc 24 38 08
	00 00 15	 cmp	 DWORD PTR _s$[esp+9880], 21 ; 00000015H
  0008a	0f 84 b4 02 00
	00		 je	 $L203617
  00090	57		 push	 edi
$L203616:

; 210  : 	{
; 211  : 		if( s.Token == _T( "property" ) )

  00091	8b 44 24 30	 mov	 eax, DWORD PTR _s$[esp+7824]
  00095	68 00 00 00 00	 push	 OFFSET FLAT:??_C@_08EMBNBNLN@property?$AA@
  0009a	50		 push	 eax
  0009b	e8 00 00 00 00	 call	 __mbscmp
  000a0	83 c4 08	 add	 esp, 8
  000a3	85 c0		 test	 eax, eax
  000a5	0f 85 fc 00 00
	00		 jne	 $L203618

; 212  : 		{
; 213  : 			s.GetToken();	// {

  000ab	50		 push	 eax
  000ac	8d 4c 24 14	 lea	 ecx, DWORD PTR _s$[esp+7796]
  000b0	e8 00 00 00 00	 call	 ?GetToken@CScript@@UAEHH@Z ; CScript::GetToken

; 214  : 			s.GetToken();

  000b5	6a 00		 push	 0
  000b7	8d 4c 24 14	 lea	 ecx, DWORD PTR _s$[esp+7796]
  000bb	e8 00 00 00 00	 call	 ?GetToken@CScript@@UAEHH@Z ; CScript::GetToken

; 215  : 			while( *s.token != '}' )

  000c0	8b 4c 24 34	 mov	 ecx, DWORD PTR _s$[esp+7828]
  000c4	80 39 7d	 cmp	 BYTE PTR [ecx], 125	; 0000007dH
  000c7	0f 84 5d 02 00
	00		 je	 $L203654
  000cd	8d 49 00	 npad	 3
$L203621:

; 216  : 			{
; 217  : 				if( s.Token == _T( "nDayOfWeek" ) )

  000d0	8b 54 24 30	 mov	 edx, DWORD PTR _s$[esp+7824]
  000d4	68 00 00 00 00	 push	 OFFSET FLAT:??_C@_0L@NLLMANDB@nDayOfWeek?$AA@
  000d9	52		 push	 edx
  000da	e8 00 00 00 00	 call	 __mbscmp
  000df	83 c4 08	 add	 esp, 8
  000e2	85 c0		 test	 eax, eax
  000e4	75 12		 jne	 SHORT $L203623

; 218  : 					property.nDayOfWeek		= s.GetNumber();

  000e6	50		 push	 eax
  000e7	8d 4c 24 14	 lea	 ecx, DWORD PTR _s$[esp+7796]
  000eb	e8 00 00 00 00	 call	 ?GetNumber@CScanner@@QAEHH@Z ; CScanner::GetNumber
  000f0	89 43 28	 mov	 DWORD PTR [ebx+40], eax

; 219  : 				else if( s.Token == _T( "nHour" ) )

  000f3	e9 92 00 00 00	 jmp	 $L203635
$L203623:
  000f8	8b 44 24 30	 mov	 eax, DWORD PTR _s$[esp+7824]
  000fc	68 00 00 00 00	 push	 OFFSET FLAT:??_C@_05DIDGHFGE@nHour?$AA@
  00101	50		 push	 eax
  00102	e8 00 00 00 00	 call	 __mbscmp
  00107	83 c4 08	 add	 esp, 8
  0010a	85 c0		 test	 eax, eax
  0010c	75 0f		 jne	 SHORT $L203626

; 220  : 					property.nHour	= s.GetNumber();

  0010e	50		 push	 eax
  0010f	8d 4c 24 14	 lea	 ecx, DWORD PTR _s$[esp+7796]
  00113	e8 00 00 00 00	 call	 ?GetNumber@CScanner@@QAEHH@Z ; CScanner::GetNumber
  00118	89 43 2c	 mov	 DWORD PTR [ebx+44], eax

; 221  : 				else if( s.Token == _T( "tCandidacy" ) )

  0011b	eb 6d		 jmp	 SHORT $L203635
$L203626:
  0011d	8b 4c 24 30	 mov	 ecx, DWORD PTR _s$[esp+7824]
  00121	68 00 00 00 00	 push	 OFFSET FLAT:??_C@_0L@CKDBDEOG@tCandidacy?$AA@
  00126	51		 push	 ecx
  00127	e8 00 00 00 00	 call	 __mbscmp
  0012c	83 c4 08	 add	 esp, 8
  0012f	85 c0		 test	 eax, eax
  00131	75 0f		 jne	 SHORT $L203629

; 222  : 					property.tCandidacy	= s.GetNumber();

  00133	50		 push	 eax
  00134	8d 4c 24 14	 lea	 ecx, DWORD PTR _s$[esp+7796]
  00138	e8 00 00 00 00	 call	 ?GetNumber@CScanner@@QAEHH@Z ; CScanner::GetNumber
  0013d	89 43 30	 mov	 DWORD PTR [ebx+48], eax

; 223  : 				else if( s.Token == _T( "tVote" ) )

  00140	eb 48		 jmp	 SHORT $L203635
$L203629:
  00142	8b 54 24 30	 mov	 edx, DWORD PTR _s$[esp+7824]
  00146	68 00 00 00 00	 push	 OFFSET FLAT:??_C@_05EBOKJDNL@tVote?$AA@
  0014b	52		 push	 edx
  0014c	e8 00 00 00 00	 call	 __mbscmp
  00151	83 c4 08	 add	 esp, 8
  00154	85 c0		 test	 eax, eax
  00156	75 0f		 jne	 SHORT $L203632

; 224  : 					property.tVote	= s.GetNumber();

  00158	50		 push	 eax
  00159	8d 4c 24 14	 lea	 ecx, DWORD PTR _s$[esp+7796]
  0015d	e8 00 00 00 00	 call	 ?GetNumber@CScanner@@QAEHH@Z ; CScanner::GetNumber
  00162	89 43 34	 mov	 DWORD PTR [ebx+52], eax

; 225  : 				else if( s.Token == _T( "nDays" ) )

  00165	eb 23		 jmp	 SHORT $L203635
$L203632:
  00167	8b 44 24 30	 mov	 eax, DWORD PTR _s$[esp+7824]
  0016b	68 00 00 00 00	 push	 OFFSET FLAT:??_C@_05NBICHHD@nDays?$AA@
  00170	50		 push	 eax
  00171	e8 00 00 00 00	 call	 __mbscmp
  00176	83 c4 08	 add	 esp, 8
  00179	85 c0		 test	 eax, eax
  0017b	75 0d		 jne	 SHORT $L203635

; 226  : 					property.nDays	= s.GetNumber();

  0017d	50		 push	 eax
  0017e	8d 4c 24 14	 lea	 ecx, DWORD PTR _s$[esp+7796]
  00182	e8 00 00 00 00	 call	 ?GetNumber@CScanner@@QAEHH@Z ; CScanner::GetNumber
  00187	89 43 38	 mov	 DWORD PTR [ebx+56], eax
$L203635:

; 227  : 				s.GetToken();

  0018a	6a 00		 push	 0
  0018c	8d 4c 24 14	 lea	 ecx, DWORD PTR _s$[esp+7796]
  00190	e8 00 00 00 00	 call	 ?GetToken@CScript@@UAEHH@Z ; CScript::GetToken
  00195	8b 4c 24 34	 mov	 ecx, DWORD PTR _s$[esp+7828]
  00199	80 39 7d	 cmp	 BYTE PTR [ecx], 125	; 0000007dH
  0019c	0f 85 2e ff ff
	ff		 jne	 $L203621

; 228  : 			}
; 229  : 		}
; 230  : 		else if( s.Token == _T( "rate" ) )

  001a2	e9 83 01 00 00	 jmp	 $L203654
$L203618:
  001a7	8b 54 24 30	 mov	 edx, DWORD PTR _s$[esp+7824]
  001ab	68 00 00 00 00	 push	 OFFSET FLAT:??_C@_04HCCHHEEF@rate?$AA@
  001b0	52		 push	 edx
  001b1	e8 00 00 00 00	 call	 __mbscmp
  001b6	83 c4 08	 add	 esp, 8
  001b9	85 c0		 test	 eax, eax
  001bb	0f 85 92 00 00
	00		 jne	 $L203638

; 231  : 		{
; 232  : 			s.GetToken();	// {

  001c1	50		 push	 eax
  001c2	8d 4c 24 14	 lea	 ecx, DWORD PTR _s$[esp+7796]
  001c6	e8 00 00 00 00	 call	 ?GetToken@CScript@@UAEHH@Z ; CScript::GetToken

; 233  : 			float fRate	= s.GetFloat();

  001cb	6a 00		 push	 0
  001cd	8d 4c 24 14	 lea	 ecx, DWORD PTR _s$[esp+7796]
  001d1	e8 00 00 00 00	 call	 ?GetFloat@CScanner@@QAEMH@Z ; CScanner::GetFloat
  001d6	d9 5c 24 0c	 fstp	 DWORD PTR _fRate$203640[esp+7792]

; 234  : 			while( *s.token != '}' )

  001da	8b 44 24 34	 mov	 eax, DWORD PTR _s$[esp+7828]
  001de	80 38 7d	 cmp	 BYTE PTR [eax], 125	; 0000007dH
  001e1	0f 84 43 01 00
	00		 je	 $L203654
  001e7	8d 73 3c	 lea	 esi, DWORD PTR [ebx+60]
  001ea	8d 9b 00 00 00
	00		 npad	 6
$L203642:

; 235  : 			{
; 236  : 				property.m_vReturnDepositRates.push_back( fRate );

  001f0	8b 56 04	 mov	 edx, DWORD PTR [esi+4]
  001f3	85 d2		 test	 edx, edx
  001f5	75 04		 jne	 SHORT $L212174
  001f7	33 c9		 xor	 ecx, ecx
  001f9	eb 08		 jmp	 SHORT $L212175
$L212174:
  001fb	8b 4e 08	 mov	 ecx, DWORD PTR [esi+8]
  001fe	2b ca		 sub	 ecx, edx
  00200	c1 f9 02	 sar	 ecx, 2
$L212175:
  00203	85 d2		 test	 edx, edx
  00205	74 1d		 je	 SHORT $L212177
  00207	8b 46 0c	 mov	 eax, DWORD PTR [esi+12]
  0020a	2b c2		 sub	 eax, edx
  0020c	c1 f8 02	 sar	 eax, 2
  0020f	3b c8		 cmp	 ecx, eax
  00211	73 11		 jae	 SHORT $L212177
  00213	8b 46 08	 mov	 eax, DWORD PTR [esi+8]
  00216	8b 4c 24 0c	 mov	 ecx, DWORD PTR _fRate$203640[esp+7792]
  0021a	89 08		 mov	 DWORD PTR [eax], ecx
  0021c	83 c0 04	 add	 eax, 4
  0021f	89 46 08	 mov	 DWORD PTR [esi+8], eax
  00222	eb 12		 jmp	 SHORT $L212165
$L212177:
  00224	8b 46 08	 mov	 eax, DWORD PTR [esi+8]
  00227	8d 54 24 0c	 lea	 edx, DWORD PTR _fRate$203640[esp+7792]
  0022b	52		 push	 edx
  0022c	6a 01		 push	 1
  0022e	50		 push	 eax
  0022f	8b ce		 mov	 ecx, esi
  00231	e8 00 00 00 00	 call	 ?_Insert_n@?$vector@MV?$allocator@M@std@@@std@@IAEXViterator@12@IABM@Z ; std::vector<float,std::allocator<float> >::_Insert_n
$L212165:

; 237  : 				fRate	= s.GetFloat();

  00236	6a 00		 push	 0
  00238	8d 4c 24 14	 lea	 ecx, DWORD PTR _s$[esp+7796]
  0023c	e8 00 00 00 00	 call	 ?GetFloat@CScanner@@QAEMH@Z ; CScanner::GetFloat
  00241	d9 5c 24 0c	 fstp	 DWORD PTR _fRate$203640[esp+7792]
  00245	8b 44 24 34	 mov	 eax, DWORD PTR _s$[esp+7828]
  00249	80 38 7d	 cmp	 BYTE PTR [eax], 125	; 0000007dH
  0024c	75 a2		 jne	 SHORT $L203642

; 238  : 			}
; 239  : 		}
; 240  : 		else if( s.Token == _T( "fRequirementFactor" ) )

  0024e	e9 d7 00 00 00	 jmp	 $L203654
$L203638:
  00253	8b 4c 24 30	 mov	 ecx, DWORD PTR _s$[esp+7824]
  00257	68 00 00 00 00	 push	 OFFSET FLAT:??_C@_0BD@FJBKFPAD@fRequirementFactor?$AA@
  0025c	51		 push	 ecx
  0025d	e8 00 00 00 00	 call	 __mbscmp
  00262	83 c4 08	 add	 esp, 8
  00265	85 c0		 test	 eax, eax
  00267	75 12		 jne	 SHORT $L203645

; 241  : 		{
; 242  : 			property.fRequirementFactor	= s.GetFloat();

  00269	50		 push	 eax
  0026a	8d 4c 24 14	 lea	 ecx, DWORD PTR _s$[esp+7796]
  0026e	e8 00 00 00 00	 call	 ?GetFloat@CScanner@@QAEMH@Z ; CScanner::GetFloat
  00273	d9 5b 6c	 fstp	 DWORD PTR [ebx+108]

; 243  : 		}
; 244  : 		else if( s.Token == _T( "item" ) )

  00276	e9 af 00 00 00	 jmp	 $L203654
$L203645:
  0027b	8b 54 24 30	 mov	 edx, DWORD PTR _s$[esp+7824]
  0027f	68 00 00 00 00	 push	 OFFSET FLAT:??_C@_04NHONDGDE@item?$AA@
  00284	52		 push	 edx
  00285	e8 00 00 00 00	 call	 __mbscmp
  0028a	83 c4 08	 add	 esp, 8
  0028d	85 c0		 test	 eax, eax
  0028f	0f 85 95 00 00
	00		 jne	 $L203654

; 245  : 		{
; 246  : 			int iIndex	= s.GetNumber();

  00295	50		 push	 eax
  00296	8d 4c 24 14	 lea	 ecx, DWORD PTR _s$[esp+7796]
  0029a	e8 00 00 00 00	 call	 ?GetNumber@CScanner@@QAEHH@Z ; CScanner::GetNumber

; 247  : 			s.GetToken();	// {

  0029f	6a 00		 push	 0
  002a1	8d 4c 24 14	 lea	 ecx, DWORD PTR _s$[esp+7796]
  002a5	8b f0		 mov	 esi, eax
  002a7	e8 00 00 00 00	 call	 ?GetToken@CScript@@UAEHH@Z ; CScript::GetToken

; 248  : 			int nItem		= s.GetNumber();

  002ac	6a 00		 push	 0
  002ae	8d 4c 24 14	 lea	 ecx, DWORD PTR _s$[esp+7796]
  002b2	e8 00 00 00 00	 call	 ?GetNumber@CScanner@@QAEHH@Z ; CScanner::GetNumber

; 249  : 			while( *s.token != '}' )

  002b7	8b 4c 24 34	 mov	 ecx, DWORD PTR _s$[esp+7828]
  002bb	80 39 7d	 cmp	 BYTE PTR [ecx], 125	; 0000007dH
  002be	89 44 24 0c	 mov	 DWORD PTR _nItem$203651[esp+7792], eax
  002c2	74 66		 je	 SHORT $L203654
  002c4	c1 e6 04	 shl	 esi, 4

; 250  : 			{
; 251  : 				property.m_vItems[iIndex].push_back( nItem );

  002c7	8d 74 1e 4c	 lea	 esi, DWORD PTR [esi+ebx+76]
  002cb	eb 03 8d 49 00	 npad	 5
$L203653:
  002d0	8b 7e 04	 mov	 edi, DWORD PTR [esi+4]
  002d3	85 ff		 test	 edi, edi
  002d5	75 04		 jne	 SHORT $L212419
  002d7	33 d2		 xor	 edx, edx
  002d9	eb 08		 jmp	 SHORT $L212420
$L212419:
  002db	8b 56 08	 mov	 edx, DWORD PTR [esi+8]
  002de	2b d7		 sub	 edx, edi
  002e0	c1 fa 02	 sar	 edx, 2
$L212420:
  002e3	85 ff		 test	 edi, edi
  002e5	74 19		 je	 SHORT $L212412
  002e7	8b 4e 0c	 mov	 ecx, DWORD PTR [esi+12]
  002ea	2b cf		 sub	 ecx, edi
  002ec	c1 f9 02	 sar	 ecx, 2
  002ef	3b d1		 cmp	 edx, ecx
  002f1	73 0d		 jae	 SHORT $L212412
  002f3	8b 4e 08	 mov	 ecx, DWORD PTR [esi+8]
  002f6	89 01		 mov	 DWORD PTR [ecx], eax
  002f8	83 c1 04	 add	 ecx, 4
  002fb	89 4e 08	 mov	 DWORD PTR [esi+8], ecx
  002fe	eb 12		 jmp	 SHORT $L212474
$L212412:
  00300	8b 46 08	 mov	 eax, DWORD PTR [esi+8]
  00303	8d 54 24 0c	 lea	 edx, DWORD PTR _nItem$203651[esp+7792]
  00307	52		 push	 edx
  00308	6a 01		 push	 1
  0030a	50		 push	 eax
  0030b	8b ce		 mov	 ecx, esi
  0030d	e8 00 00 00 00	 call	 ?_Insert_n@?$vector@HV?$allocator@H@std@@@std@@IAEXViterator@12@IABH@Z ; std::vector<int,std::allocator<int> >::_Insert_n
$L212474:

; 252  : 				nItem	= s.GetNumber();

  00312	6a 00		 push	 0
  00314	8d 4c 24 14	 lea	 ecx, DWORD PTR _s$[esp+7796]
  00318	e8 00 00 00 00	 call	 ?GetNumber@CScanner@@QAEHH@Z ; CScanner::GetNumber
  0031d	8b 4c 24 34	 mov	 ecx, DWORD PTR _s$[esp+7828]
  00321	80 39 7d	 cmp	 BYTE PTR [ecx], 125	; 0000007dH
  00324	89 44 24 0c	 mov	 DWORD PTR _nItem$203651[esp+7792], eax
  00328	75 a6		 jne	 SHORT $L203653
$L203654:

; 253  : 			}
; 254  : 		}
; 255  : 		s.GetToken();

  0032a	6a 00		 push	 0
  0032c	8d 4c 24 14	 lea	 ecx, DWORD PTR _s$[esp+7796]
  00330	e8 00 00 00 00	 call	 ?GetToken@CScript@@UAEHH@Z ; CScript::GetToken
  00335	83 bc 24 3c 08
	00 00 15	 cmp	 DWORD PTR _s$[esp+9884], 21 ; 00000015H
  0033d	0f 85 4e fd ff
	ff		 jne	 $L203616
  00343	5f		 pop	 edi
$L203617:

; 256  : 	}
; 257  : 	return TRUE;

  00344	8d 4c 24 0c	 lea	 ecx, DWORD PTR _s$[esp+7788]
  00348	c7 84 24 68 1e
	00 00 ff ff ff
	ff		 mov	 DWORD PTR __$EHRec$[esp+7796], -1
  00353	e8 00 00 00 00	 call	 ??1CScript@@UAE@XZ	; CScript::~CScript
  00358	b8 01 00 00 00	 mov	 eax, 1
$L203611:

; 258  : }

  0035d	8b 8c 24 60 1e
	00 00		 mov	 ecx, DWORD PTR __$EHRec$[esp+7788]
  00364	5e		 pop	 esi
  00365	64 89 0d 00 00
	00 00		 mov	 DWORD PTR fs:__except_list, ecx
  0036c	8b 8c 24 58 1e
	00 00		 mov	 ecx, DWORD PTR __$ArrayPad$[esp+7784]
  00373	5b		 pop	 ebx
  00374	33 cc		 xor	 ecx, esp
  00376	e8 00 00 00 00	 call	 @__security_check_cookie@4
  0037b	81 c4 64 1e 00
	00		 add	 esp, 7780		; 00001e64H
  00381	c2 04 00	 ret	 4
_TEXT	ENDS
;	COMDAT text$x
text$x	SEGMENT
$L211771:
  00000	8d 8d a0 e1 ff
	ff		 lea	 ecx, DWORD PTR _s$[ebp]
  00006	e9 00 00 00 00	 jmp	 ??1CScript@@UAE@XZ	; CScript::~CScript
__ehhandler$?ReadIni@CTElection@@AAEHPBD@Z:
  0000b	b8 00 00 00 00	 mov	 eax, OFFSET FLAT:$T212484
  00010	e9 00 00 00 00	 jmp	 ___CxxFrameHandler
text$x	ENDS
?ReadIni@CTElection@@AAEHPBD@Z ENDP			; CTElection::ReadIni
PUBLIC	?Initialize@CTElection@@QAEHPBD@Z		; CTElection::Initialize
PUBLIC	??_C@_0DL@DADIAAPI@CTElection?3?3Initialize?$CI?$CJ?3?5LoadSc@ ; `string'
;	COMDAT ??_C@_0DL@DADIAAPI@CTElection?3?3Initialize?$CI?$CJ?3?5LoadSc@
CONST	SEGMENT
??_C@_0DL@DADIAAPI@CTElection?3?3Initialize?$CI?$CJ?3?5LoadSc@ DB 'CTElec'
	DB	'tion::Initialize(): LoadScript(): file not found: %s', 00H ; `string'
; Function compile flags: /Ogty
CONST	ENDS
;	COMDAT ?Initialize@CTElection@@QAEHPBD@Z
_TEXT	SEGMENT
_szFile$ = 8						; size = 4
?Initialize@CTElection@@QAEHPBD@Z PROC NEAR		; CTElection::Initialize, COMDAT
; _this$ = ecx

; 193  : {	// 

  00000	56		 push	 esi

; 194  : 	if( !ReadIni( szFile ) )	//  

  00001	8b 74 24 08	 mov	 esi, DWORD PTR _szFile$[esp]
  00005	56		 push	 esi
  00006	e8 00 00 00 00	 call	 ?ReadIni@CTElection@@AAEHPBD@Z ; CTElection::ReadIni
  0000b	85 c0		 test	 eax, eax
  0000d	75 14		 jne	 SHORT $L203606

; 195  : 	{
; 196  : 		election::OutputDebugString( "CTElection::Initialize(): LoadScript(): file not found: %s", szFile );

  0000f	56		 push	 esi
  00010	68 00 00 00 00	 push	 OFFSET FLAT:??_C@_0DL@DADIAAPI@CTElection?3?3Initialize?$CI?$CJ?3?5LoadSc@
  00015	e8 00 00 00 00	 call	 ?OutputDebugStringA@election@@YAXPBDZZ ; election::OutputDebugStringA
  0001a	83 c4 08	 add	 esp, 8

; 197  : 		return FALSE;

  0001d	33 c0		 xor	 eax, eax
  0001f	5e		 pop	 esi

; 200  : }

  00020	c2 04 00	 ret	 4
$L203606:

; 198  : 	}
; 199  : 	return TRUE;

  00023	b8 01 00 00 00	 mov	 eax, 1
  00028	5e		 pop	 esi

; 200  : }

  00029	c2 04 00	 ret	 4
?Initialize@CTElection@@QAEHPBD@Z ENDP			; CTElection::Initialize
_TEXT	ENDS
PUBLIC	??_C@_0N@MMPBPIHN@election?4inc?$AA@		; `string'
PUBLIC	??_C@_0O@NKJDDJPP@lordevent?4inc?$AA@		; `string'
PUBLIC	??_C@_0O@DNECDNPA@lordskill?4txt?$AA@		; `string'
PUBLIC	??_C@_0BI@GMEIIJGO@CTLord?4CreateColleagues?$AA@ ; `string'
EXTRN	?Initialize@CLordSkill@@QAEHPBD@Z:NEAR		; CLordSkill::Initialize
EXTRN	?CreateDbHandler@CDbController@@QAEHK@Z:NEAR	; CDbController::CreateDbHandler
EXTRN	_exit:NEAR
EXTRN	?Initialize@ILordEvent@@QAEHPBD@Z:NEAR		; ILordEvent::Initialize
;	COMDAT xdata$x
xdata$x	SEGMENT
$T212554 DD	0ffffffffH
	DD	FLAT:$L212523
	DD	0ffffffffH
	DD	FLAT:$L212524
	DD	0ffffffffH
	DD	FLAT:$L212525
	DD	0ffffffffH
	DD	FLAT:$L212526
$T212551 DD	019930520H
	DD	04H
	DD	FLAT:$T212554
	DD	2 DUP(00H)
	DD	2 DUP(00H)
xdata$x	ENDS
;	COMDAT ??_C@_0N@MMPBPIHN@election?4inc?$AA@
CONST	SEGMENT
??_C@_0N@MMPBPIHN@election?4inc?$AA@ DB 'election.inc', 00H ; `string'
CONST	ENDS
;	COMDAT ??_C@_0O@NKJDDJPP@lordevent?4inc?$AA@
CONST	SEGMENT
??_C@_0O@NKJDDJPP@lordevent?4inc?$AA@ DB 'lordevent.inc', 00H ; `string'
CONST	ENDS
;	COMDAT ??_C@_0O@DNECDNPA@lordskill?4txt?$AA@
CONST	SEGMENT
??_C@_0O@DNECDNPA@lordskill?4txt?$AA@ DB 'lordskill.txt', 00H ; `string'
CONST	ENDS
;	COMDAT ??_C@_0BI@GMEIIJGO@CTLord?4CreateColleagues?$AA@
CONST	SEGMENT
??_C@_0BI@GMEIIJGO@CTLord?4CreateColleagues?$AA@ DB 'CTLord.CreateColleag'
	DB	'ues', 00H					; `string'
; Function compile flags: /Ogty
CONST	ENDS
;	COMDAT ?CreateColleagues@CTLord@@UAEXXZ
_TEXT	SEGMENT
$T212520 = -16						; size = 4
$T212516 = -16						; size = 4
$T212512 = -16						; size = 4
$T212508 = -16						; size = 4
__$EHRec$ = -12						; size = 12
?CreateColleagues@CTLord@@UAEXXZ PROC NEAR		; CTLord::CreateColleagues, COMDAT
; _this$ = ecx

; 30   : {	//     

  00000	6a ff		 push	 -1
  00002	68 00 00 00 00	 push	 __ehhandler$?CreateColleagues@CTLord@@UAEXXZ
  00007	64 a1 00 00 00
	00		 mov	 eax, DWORD PTR fs:__except_list
  0000d	50		 push	 eax
  0000e	64 89 25 00 00
	00 00		 mov	 DWORD PTR fs:__except_list, esp
  00015	51		 push	 ecx
  00016	53		 push	 ebx
  00017	55		 push	 ebp
  00018	56		 push	 esi
  00019	57		 push	 edi

; 31   : 	// 
; 32   : 	m_pController	= new CLController( this );

  0001a	6a 18		 push	 24			; 00000018H
  0001c	8b f1		 mov	 esi, ecx
  0001e	e8 00 00 00 00	 call	 ??2@YAPAXI@Z		; operator new
  00023	8b f8		 mov	 edi, eax
  00025	83 c4 04	 add	 esp, 4
  00028	89 7c 24 10	 mov	 DWORD PTR $T212508[esp+32], edi
  0002c	33 ed		 xor	 ebp, ebp
  0002e	3b fd		 cmp	 edi, ebp
  00030	89 6c 24 1c	 mov	 DWORD PTR __$EHRec$[esp+40], ebp
  00034	74 14		 je	 SHORT $L212509
  00036	8b cf		 mov	 ecx, edi
  00038	e8 00 00 00 00	 call	 ??0CDbController@@QAE@XZ ; CDbController::CDbController
  0003d	c7 07 00 00 00
	00		 mov	 DWORD PTR [edi], OFFSET FLAT:??_7CLController@@6B@
  00043	89 77 14	 mov	 DWORD PTR [edi+20], esi
  00046	8b cf		 mov	 ecx, edi
  00048	eb 02		 jmp	 SHORT $L212510
$L212509:
  0004a	33 c9		 xor	 ecx, ecx
$L212510:

; 33   : 	m_pController->CreateDbHandler( MIN( 1 ) );

  0004c	68 60 ea 00 00	 push	 60000			; 0000ea60H
  00051	c7 44 24 20 ff
	ff ff ff	 mov	 DWORD PTR __$EHRec$[esp+44], -1
  00059	89 4e 14	 mov	 DWORD PTR [esi+20], ecx
  0005c	e8 00 00 00 00	 call	 ?CreateDbHandler@CDbController@@QAEHK@Z ; CDbController::CreateDbHandler

; 34   : 	CTElection * pElection	= new CTElection( this );

  00061	6a 74		 push	 116			; 00000074H
  00063	e8 00 00 00 00	 call	 ??2@YAPAXI@Z		; operator new
  00068	8b f8		 mov	 edi, eax
  0006a	83 c4 04	 add	 esp, 4
  0006d	89 7c 24 10	 mov	 DWORD PTR $T212512[esp+32], edi
  00071	3b fd		 cmp	 edi, ebp
  00073	bb 01 00 00 00	 mov	 ebx, 1
  00078	89 5c 24 1c	 mov	 DWORD PTR __$EHRec$[esp+40], ebx
  0007c	74 13		 je	 SHORT $L212514
  0007e	56		 push	 esi
  0007f	8b cf		 mov	 ecx, edi
  00081	e8 00 00 00 00	 call	 ??0IElection@@IAE@PAVCLord@@@Z ; IElection::IElection
  00086	c7 07 00 00 00
	00		 mov	 DWORD PTR [edi], OFFSET FLAT:??_7CTElection@@6B@
  0008c	89 5f 70	 mov	 DWORD PTR [edi+112], ebx
  0008f	8b ef		 mov	 ebp, edi
$L212514:

; 35   : 	CLEvent* pEvent		= new CLEvent( this );

  00091	6a 38		 push	 56			; 00000038H
  00093	c7 44 24 20 ff
	ff ff ff	 mov	 DWORD PTR __$EHRec$[esp+44], -1
  0009b	e8 00 00 00 00	 call	 ??2@YAPAXI@Z		; operator new
  000a0	8b d8		 mov	 ebx, eax
  000a2	83 c4 04	 add	 esp, 4
  000a5	89 5c 24 10	 mov	 DWORD PTR $T212516[esp+32], ebx
  000a9	85 db		 test	 ebx, ebx
  000ab	c7 44 24 1c 02
	00 00 00	 mov	 DWORD PTR __$EHRec$[esp+40], 2
  000b3	74 12		 je	 SHORT $L212517
  000b5	56		 push	 esi
  000b6	8b cb		 mov	 ecx, ebx
  000b8	e8 00 00 00 00	 call	 ??0ILordEvent@@IAE@PAVCLord@@@Z ; ILordEvent::ILordEvent
  000bd	c7 03 00 00 00
	00		 mov	 DWORD PTR [ebx], OFFSET FLAT:??_7CLEvent@@6B@
  000c3	8b fb		 mov	 edi, ebx
  000c5	eb 02		 jmp	 SHORT $L212518
$L212517:
  000c7	33 ff		 xor	 edi, edi
$L212518:

; 36   : 	CLordSkill* pSkills		= new CTLordSkill( this );

  000c9	6a 18		 push	 24			; 00000018H
  000cb	c7 44 24 20 ff
	ff ff ff	 mov	 DWORD PTR __$EHRec$[esp+44], -1
  000d3	e8 00 00 00 00	 call	 ??2@YAPAXI@Z		; operator new
  000d8	8b d8		 mov	 ebx, eax
  000da	83 c4 04	 add	 esp, 4
  000dd	89 5c 24 10	 mov	 DWORD PTR $T212520[esp+32], ebx
  000e1	85 db		 test	 ebx, ebx
  000e3	c7 44 24 1c 03
	00 00 00	 mov	 DWORD PTR __$EHRec$[esp+40], 3
  000eb	74 10		 je	 SHORT $L212521
  000ed	56		 push	 esi
  000ee	8b cb		 mov	 ecx, ebx
  000f0	e8 00 00 00 00	 call	 ??0CLordSkill@@QAE@PAVCLord@@@Z ; CLordSkill::CLordSkill
  000f5	c7 03 00 00 00
	00		 mov	 DWORD PTR [ebx], OFFSET FLAT:??_7CTLordSkill@@6B@
  000fb	eb 02		 jmp	 SHORT $L212522
$L212521:
  000fd	33 db		 xor	 ebx, ebx
$L212522:

; 37   : 	// 
; 38   : 	pElection->Initialize( "election.inc" );

  000ff	68 00 00 00 00	 push	 OFFSET FLAT:??_C@_0N@MMPBPIHN@election?4inc?$AA@
  00104	8b cd		 mov	 ecx, ebp
  00106	c7 44 24 20 ff
	ff ff ff	 mov	 DWORD PTR __$EHRec$[esp+44], -1
  0010e	e8 00 00 00 00	 call	 ?ReadIni@CTElection@@AAEHPBD@Z ; CTElection::ReadIni
  00113	85 c0		 test	 eax, eax
  00115	75 12		 jne	 SHORT $L212546
  00117	68 00 00 00 00	 push	 OFFSET FLAT:??_C@_0N@MMPBPIHN@election?4inc?$AA@
  0011c	68 00 00 00 00	 push	 OFFSET FLAT:??_C@_0DL@DADIAAPI@CTElection?3?3Initialize?$CI?$CJ?3?5LoadSc@
  00121	e8 00 00 00 00	 call	 ?OutputDebugStringA@election@@YAXPBDZZ ; election::OutputDebugStringA
  00126	83 c4 08	 add	 esp, 8
$L212546:

; 39   : 	pEvent->Initialize( "lordevent.inc" );

  00129	68 00 00 00 00	 push	 OFFSET FLAT:??_C@_0O@NKJDDJPP@lordevent?4inc?$AA@
  0012e	8b cf		 mov	 ecx, edi
  00130	e8 00 00 00 00	 call	 ?Initialize@ILordEvent@@QAEHPBD@Z ; ILordEvent::Initialize

; 40   : 	pSkills->Initialize( "lordskill.txt" );

  00135	68 00 00 00 00	 push	 OFFSET FLAT:??_C@_0O@DNECDNPA@lordskill?4txt?$AA@
  0013a	8b cb		 mov	 ecx, ebx
  0013c	e8 00 00 00 00	 call	 ?Initialize@CLordSkill@@QAEHPBD@Z ; CLordSkill::Initialize

; 41   : 	// 
; 42   : 	m_pElection		= pElection;
; 43   : 	m_pEvent	= pEvent;
; 44   : 	m_pSkills	= pSkills;
; 45   : 	//    
; 46   : 	if( !RestoreAll() )

  00141	8b 06		 mov	 eax, DWORD PTR [esi]
  00143	8b ce		 mov	 ecx, esi
  00145	89 6e 08	 mov	 DWORD PTR [esi+8], ebp
  00148	89 7e 0c	 mov	 DWORD PTR [esi+12], edi
  0014b	89 5e 10	 mov	 DWORD PTR [esi+16], ebx
  0014e	ff 50 08	 call	 DWORD PTR [eax+8]
  00151	8b c8		 mov	 ecx, eax
  00153	e8 00 00 00 00	 call	 ?Restore@CLController@@QAEHXZ ; CLController::Restore
  00158	85 c0		 test	 eax, eax
  0015a	5f		 pop	 edi
  0015b	5e		 pop	 esi
  0015c	5d		 pop	 ebp
  0015d	5b		 pop	 ebx
  0015e	75 14		 jne	 SHORT $L203490

; 47   : 	{
; 48   : 		election::OutputDebugString( "CTLord.CreateColleagues" );

  00160	68 00 00 00 00	 push	 OFFSET FLAT:??_C@_0BI@GMEIIJGO@CTLord?4CreateColleagues?$AA@
  00165	e8 00 00 00 00	 call	 ?OutputDebugStringA@election@@YAXPBDZZ ; election::OutputDebugStringA
  0016a	83 c4 04	 add	 esp, 4

; 49   : 		exit( -1 );

  0016d	6a ff		 push	 -1
  0016f	e8 00 00 00 00	 call	 _exit
$L203490:

; 50   : 	}
; 51   : }

  00174	8b 4c 24 04	 mov	 ecx, DWORD PTR __$EHRec$[esp+16]
  00178	64 89 0d 00 00
	00 00		 mov	 DWORD PTR fs:__except_list, ecx
  0017f	83 c4 10	 add	 esp, 16			; 00000010H
  00182	c3		 ret	 0
$L212553:
_TEXT	ENDS
;	COMDAT text$x
text$x	SEGMENT
$L212523:
  00000	8b 45 f0	 mov	 eax, DWORD PTR $T212508[ebp]
  00003	50		 push	 eax
  00004	e8 00 00 00 00	 call	 ??3@YAXPAX@Z		; operator delete
  00009	59		 pop	 ecx
  0000a	c3		 ret	 0
$L212524:
  0000b	8b 45 f0	 mov	 eax, DWORD PTR $T212512[ebp]
  0000e	50		 push	 eax
  0000f	e8 00 00 00 00	 call	 ??3@YAXPAX@Z		; operator delete
  00014	59		 pop	 ecx
  00015	c3		 ret	 0
$L212525:
  00016	8b 45 f0	 mov	 eax, DWORD PTR $T212516[ebp]
  00019	50		 push	 eax
  0001a	e8 00 00 00 00	 call	 ??3@YAXPAX@Z		; operator delete
  0001f	59		 pop	 ecx
  00020	c3		 ret	 0
$L212526:
  00021	8b 45 f0	 mov	 eax, DWORD PTR $T212520[ebp]
  00024	50		 push	 eax
  00025	e8 00 00 00 00	 call	 ??3@YAXPAX@Z		; operator delete
  0002a	59		 pop	 ecx
  0002b	c3		 ret	 0
__ehhandler$?CreateColleagues@CTLord@@UAEXXZ:
  0002c	b8 00 00 00 00	 mov	 eax, OFFSET FLAT:$T212551
  00031	e9 00 00 00 00	 jmp	 ___CxxFrameHandler
text$x	ENDS
?CreateColleagues@CTLord@@UAEXXZ ENDP			; CTLord::CreateColleagues
; Function compile flags: /Ogty
;	COMDAT _$E2
text$yd	SEGMENT
_$E2	PROC NEAR					; COMDAT
  00000	b9 00 00 00 00	 mov	 ecx, OFFSET FLAT:?sLord@?1??Instance@CTLord@@SAPAV2@XZ@4V2@A
  00005	e9 00 00 00 00	 jmp	 ??1CTLord@@UAE@XZ	; CTLord::~CTLord
_$E2	ENDP
text$yd	ENDS
END
