 AccountServer

 Timestamp is 525db7ef (Tue Oct 15 17:47:27 2013)

 Preferred load address is 00400000

 Start         Length     Name                   Class
 0001:00000000 000517b6H .text                   CODE
 0001:000517b6 00000cf8H .text$AFX_AUX           CODE
 0001:000524ae 000001c9H .text$AFX_CMNCTL        CODE
 0001:00052677 00000a7aH .text$AFX_COL1          CODE
 0001:000530f1 000002e2H .text$AFX_COL2          CODE
 0001:000533d3 0000abeaH .text$AFX_CORE1         CODE
 0001:0005dfbd 000034f6H .text$AFX_CORE2         CODE
 0001:000614b3 00002355H .text$AFX_CORE3         CODE
 0001:00063808 00000751H .text$AFX_CORE4         CODE
 0001:00063f59 00003e18H .text$AFX_INIT          CODE
 0001:00067d71 000014d6H .text$AFX_OLE1          CODE
 0001:00069247 000000ecH .text$AFX_TERM          CODE
 0001:00069340 00002d0fH .text$x                 CODE
 0001:0006c050 0000035aH .text$yc                CODE
 0001:0006c3b0 000000b8H .text$yd                CODE
 0002:00000000 000008d0H .idata$5                DATA
 0002:000008d0 0000fbecH .rdata                  DATA
 0002:000104bc 0000008dH .rdata$debug            DATA
 0002:0001054c 00000298H .rdata$ilfixup          DATA
 0002:000107e4 0000132cH .rdata$r                DATA
 0002:00011b10 00000608H .rdata$sxdata           DATA
 0002:00012118 00000004H .rtc$IAA                DATA
 0002:0001211c 00000004H .rtc$IZZ                DATA
 0002:00012120 00000004H .rtc$TAA                DATA
 0002:00012124 00000004H .rtc$TZZ                DATA
 0002:00012128 0000461cH .xdata$x                DATA
 0002:00016744 00000004H ATL$__a                 DATA
 0002:00016748 00000004H ATL$__z                 DATA
 0002:0001674c 00000020H .didat$2                DATA
 0002:0001676c 00000020H .didat$3                DATA
 0002:0001678c 00000010H .didat$4                DATA
 0002:0001679c 0000004eH .didat$6                DATA
 0002:000167ec 00000010H .didat$7                DATA
 0002:000167fc 00000154H .idata$2                DATA
 0002:00016950 00000014H .idata$3                DATA
 0002:00016964 000008d0H .idata$4                DATA
 0002:00017234 000020d2H .idata$6                DATA
 0002:00019306 00000000H .edata                  DATA
 0003:00000000 00000004H .CRT$XCA                DATA
 0003:00000004 00000004H .CRT$XCA0               DATA
 0003:00000008 00000004H .CRT$XCAA               DATA
 0003:0000000c 0000000cH .CRT$XCC                DATA
 0003:00000018 00000008H .CRT$XCL                DATA
 0003:00000020 00000068H .CRT$XCU                DATA
 0003:00000088 00000004H .CRT$XCZ                DATA
 0003:0000008c 00000004H .CRT$XIA                DATA
 0003:00000090 0000000cH .CRT$XIC                DATA
 0003:0000009c 00000004H .CRT$XIY                DATA
 0003:000000a0 00000004H .CRT$XIZ                DATA
 0003:000000a4 00000004H .CRT$XPA                DATA
 0003:000000a8 00000004H .CRT$XPX                DATA
 0003:000000ac 00000004H .CRT$XPZ                DATA
 0003:000000b0 00000004H .CRT$XTA                DATA
 0003:000000b4 00000004H .CRT$XTB                DATA
 0003:000000b8 00000004H .CRT$XTZ                DATA
 0003:000000c0 0000370cH .data                   DATA
 0003:000037cc 00000010H .didat$5                DATA
 0003:000037e0 00032d04H .bss                    DATA
 0004:00000000 00000310H .rsrc$01                DATA
 0004:00000310 00000c58H .rsrc$02                DATA

  Address         Publics by Value              Rva+Base     Lib:Object

 0000:00000000       __except_list              00000000     <absolute>
 0000:00000182       ___safe_se_handler_count   00000182     <absolute>
 0000:00000000       ___ImageBase               00400000     <linker-defined>
 0001:00000000       ??2@YAPAXIPAX@Z            00401000 f i account.obj
 0001:00000010       ??3@YAXPAX0@Z              00401010 f i account.obj
 0001:00000020       ??1CAccount@@UAE@XZ        00401020 f   account.obj
 0001:00000030       ?IsAdult@CAccount@@QAEHXZ  00401030 f   account.obj
 0001:00000040       ?Free@?$MemPooler@VCAccount@@@@QAEHPAVCAccount@@@Z 00401040 f i account.obj
 0001:00000090       ??0CTimeSpan@ATL@@QAE@_J@Z 00401090 f i account.obj
 0001:000000b0       ?GetTotalHours@CTimeSpan@ATL@@QBE_JXZ 004010b0 f i account.obj
 0001:000000d0       ??0CTime@ATL@@QAE@XZ       004010d0 f i account.obj
 0001:000000e0       ??0CTime@ATL@@QAE@_J@Z     004010e0 f i account.obj
 0001:00000100       ??4CTime@ATL@@QAEAAV01@_J@Z 00401100 f i account.obj
 0001:00000120       ??0?$pair@$$CBKK@std@@QAE@ABK0@Z 00401120 f i account.obj
 0001:00000140       ?GetLocalTm@CTime@ATL@@QBEPAUtm@@PAU3@@Z 00401140 f i account.obj
 0001:00000170       ?GetTime@CTime@ATL@@QBE_JXZ 00401170 f i account.obj
 0001:00000180       ?GetYear@CTime@ATL@@QBEHXZ 00401180 f i account.obj
 0001:000001a0       ?GetMonth@CTime@ATL@@QBEHXZ 004011a0 f i account.obj
 0001:000001c0       ?GetDay@CTime@ATL@@QBEHXZ  004011c0 f i account.obj
 0001:000001e0       ?GetHour@CTime@ATL@@QBEHXZ 004011e0 f i account.obj
 0001:00000200       ?GetMinute@CTime@ATL@@QBEHXZ 00401200 f i account.obj
 0001:00000220       ??8const_iterator@?$_Tree@V?$_Tmap_traits@V?$basic_string@DU?$char_traits@D@std@@V?$allocator@D@2@@std@@PAVCAccount@@U?$less@V?$basic_string@DU?$char_traits@D@std@@V?$allocator@D@2@@std@@@2@V?$allocator@U?$pair@$$CBV?$basic_string@DU?$char_traits@D@std@@V?$allocator@D@2@@std@@PAVCAccount@@@std@@@2@$0A@@std@@@std@@QBE_NABV012@@Z 00401220 f i account.obj
 0001:00000230       ??9const_iterator@?$_Tree@V?$_Tmap_traits@V?$basic_string@DU?$char_traits@D@std@@V?$allocator@D@2@@std@@PAVCAccount@@U?$less@V?$basic_string@DU?$char_traits@D@std@@V?$allocator@D@2@@std@@@2@V?$allocator@U?$pair@$$CBV?$basic_string@DU?$char_traits@D@std@@V?$allocator@D@2@@std@@PAVCAccount@@@std@@@2@$0A@@std@@@std@@QBE_NABV012@@Z 00401230 f i account.obj
 0001:00000250       ??8const_iterator@?$_Tree@V?$_Tmap_traits@KHU?$less@K@std@@V?$allocator@U?$pair@$$CBKH@std@@@2@$0A@@std@@@std@@QBE_NABV012@@Z 00401250 f i account.obj
 0001:00000260       ??9const_iterator@?$_Tree@V?$_Tmap_traits@KHU?$less@K@std@@V?$allocator@U?$pair@$$CBKH@std@@@2@$0A@@std@@@std@@QBE_NABV012@@Z 00401260 f i account.obj
 0001:00000280       ??0?$pair@$$CBKH@std@@QAE@ABKABH@Z 00401280 f i account.obj
 0001:000002a0       ??8const_iterator@?$_Tree@V?$_Tmap_traits@KPAVCAccount@@U?$less@K@std@@V?$allocator@U?$pair@$$CBKPAVCAccount@@@std@@@3@$0A@@std@@@std@@QBE_NABV012@@Z 004012a0 f i account.obj
 0001:000002b0       ??9const_iterator@?$_Tree@V?$_Tmap_traits@KPAVCAccount@@U?$less@K@std@@V?$allocator@U?$pair@$$CBKPAVCAccount@@@std@@@3@$0A@@std@@@std@@QBE_NABV012@@Z 004012b0 f i account.obj
 0001:000002d0       ??0?$pair@$$CBKPAVCAccount@@@std@@QAE@ABKABQAVCAccount@@@Z 004012d0 f i account.obj
 0001:000002f0       ??0?$allocator@D@std@@QAE@XZ 004012f0 f i account.obj
 0001:00000300       ?_Color@?$_Tree@V?$_Tmap_traits@V?$basic_string@DU?$char_traits@D@std@@V?$allocator@D@2@@std@@PAVCAccount@@U?$less@V?$basic_string@DU?$char_traits@D@std@@V?$allocator@D@2@@std@@@2@V?$allocator@U?$pair@$$CBV?$basic_string@DU?$char_traits@D@std@@V?$allocator@D@2@@std@@PAVCAccount@@@std@@@2@$0A@@std@@@std@@KAAADPAU_Node@?$_Tree_nod@V?$_Tmap_traits@V?$basic_string@DU?$char_traits@D@std@@V?$allocator@D@2@@std@@PAVCAccount@@U?$less@V?$basic_string@DU?$char_traits@D@std@@V?$allocator@D@2@@std@@@2@V?$allocator@U?$pair@$$CBV?$basic_string@DU?$char_traits@D@std@@V?$allocator@D@2@@std@@PAVCAccount@@@std@@@2@$0A@@std@@@2@@Z 00401300 f i account.obj
 0001:00000310       ?_Isnil@?$_Tree@V?$_Tmap_traits@V?$basic_string@DU?$char_traits@D@std@@V?$allocator@D@2@@std@@PAVCAccount@@U?$less@V?$basic_string@DU?$char_traits@D@std@@V?$allocator@D@2@@std@@@2@V?$allocator@U?$pair@$$CBV?$basic_string@DU?$char_traits@D@std@@V?$allocator@D@2@@std@@PAVCAccount@@@std@@@2@$0A@@std@@@std@@KAAADPAU_Node@?$_Tree_nod@V?$_Tmap_traits@V?$basic_string@DU?$char_traits@D@std@@V?$allocator@D@2@@std@@PAVCAccount@@U?$less@V?$basic_string@DU?$char_traits@D@std@@V?$allocator@D@2@@std@@@2@V?$allocator@U?$pair@$$CBV?$basic_string@DU?$char_traits@D@std@@V?$allocator@D@2@@std@@PAVCAccount@@@std@@@2@$0A@@std@@@2@@Z 00401310 f i account.obj
 0001:00000320       ?_Left@?$_Tree@V?$_Tmap_traits@V?$basic_string@DU?$char_traits@D@std@@V?$allocator@D@2@@std@@PAVCAccount@@U?$less@V?$basic_string@DU?$char_traits@D@std@@V?$allocator@D@2@@std@@@2@V?$allocator@U?$pair@$$CBV?$basic_string@DU?$char_traits@D@std@@V?$allocator@D@2@@std@@PAVCAccount@@@std@@@2@$0A@@std@@@std@@KAAAPAU_Node@?$_Tree_nod@V?$_Tmap_traits@V?$basic_string@DU?$char_traits@D@std@@V?$allocator@D@2@@std@@PAVCAccount@@U?$less@V?$basic_string@DU?$char_traits@D@std@@V?$allocator@D@2@@std@@@2@V?$allocator@U?$pair@$$CBV?$basic_string@DU?$char_traits@D@std@@V?$allocator@D@2@@std@@PAVCAccount@@@std@@@2@$0A@@std@@@2@PAU342@@Z 00401320 f i account.obj
 0001:00000330       ?_Parent@?$_Tree@V?$_Tmap_traits@V?$basic_string@DU?$char_traits@D@std@@V?$allocator@D@2@@std@@PAVCAccount@@U?$less@V?$basic_string@DU?$char_traits@D@std@@V?$allocator@D@2@@std@@@2@V?$allocator@U?$pair@$$CBV?$basic_string@DU?$char_traits@D@std@@V?$allocator@D@2@@std@@PAVCAccount@@@std@@@2@$0A@@std@@@std@@KAAAPAU_Node@?$_Tree_nod@V?$_Tmap_traits@V?$basic_string@DU?$char_traits@D@std@@V?$allocator@D@2@@std@@PAVCAccount@@U?$less@V?$basic_string@DU?$char_traits@D@std@@V?$allocator@D@2@@std@@@2@V?$allocator@U?$pair@$$CBV?$basic_string@DU?$char_traits@D@std@@V?$allocator@D@2@@std@@PAVCAccount@@@std@@@2@$0A@@std@@@2@PAU342@@Z 00401330 f i account.obj
 0001:00000340       ?_Right@?$_Tree@V?$_Tmap_traits@V?$basic_string@DU?$char_traits@D@std@@V?$allocator@D@2@@std@@PAVCAccount@@U?$less@V?$basic_string@DU?$char_traits@D@std@@V?$allocator@D@2@@std@@@2@V?$allocator@U?$pair@$$CBV?$basic_string@DU?$char_traits@D@std@@V?$allocator@D@2@@std@@PAVCAccount@@@std@@@2@$0A@@std@@@std@@KAAAPAU_Node@?$_Tree_nod@V?$_Tmap_traits@V?$basic_string@DU?$char_traits@D@std@@V?$allocator@D@2@@std@@PAVCAccount@@U?$less@V?$basic_string@DU?$char_traits@D@std@@V?$allocator@D@2@@std@@@2@V?$allocator@U?$pair@$$CBV?$basic_string@DU?$char_traits@D@std@@V?$allocator@D@2@@std@@PAVCAccount@@@std@@@2@$0A@@std@@@2@PAU342@@Z 00401340 f i account.obj
 0001:00000350       ?key_comp@?$_Tree@V?$_Tmap_traits@V?$basic_string@DU?$char_traits@D@std@@V?$allocator@D@2@@std@@PAVCAccount@@U?$less@V?$basic_string@DU?$char_traits@D@std@@V?$allocator@D@2@@std@@@2@V?$allocator@U?$pair@$$CBV?$basic_string@DU?$char_traits@D@std@@V?$allocator@D@2@@std@@PAVCAccount@@@std@@@2@$0A@@std@@@std@@QBE?AU?$less@V?$basic_string@DU?$char_traits@D@std@@V?$allocator@D@2@@std@@@2@XZ 00401350 f i account.obj
 0001:00000360       ?_Lmost@?$_Tree@V?$_Tmap_traits@V?$basic_string@DU?$char_traits@D@std@@V?$allocator@D@2@@std@@PAVCAccount@@U?$less@V?$basic_string@DU?$char_traits@D@std@@V?$allocator@D@2@@std@@@2@V?$allocator@U?$pair@$$CBV?$basic_string@DU?$char_traits@D@std@@V?$allocator@D@2@@std@@PAVCAccount@@@std@@@2@$0A@@std@@@std@@IAEAAPAU_Node@?$_Tree_nod@V?$_Tmap_traits@V?$basic_string@DU?$char_traits@D@std@@V?$allocator@D@2@@std@@PAVCAccount@@U?$less@V?$basic_string@DU?$char_traits@D@std@@V?$allocator@D@2@@std@@@2@V?$allocator@U?$pair@$$CBV?$basic_string@DU?$char_traits@D@std@@V?$allocator@D@2@@std@@PAVCAccount@@@std@@@2@$0A@@std@@@2@XZ 00401360 f i account.obj
 0001:00000370       ?_Max@?$_Tree@V?$_Tmap_traits@V?$basic_string@DU?$char_traits@D@std@@V?$allocator@D@2@@std@@PAVCAccount@@U?$less@V?$basic_string@DU?$char_traits@D@std@@V?$allocator@D@2@@std@@@2@V?$allocator@U?$pair@$$CBV?$basic_string@DU?$char_traits@D@std@@V?$allocator@D@2@@std@@PAVCAccount@@@std@@@2@$0A@@std@@@std@@KAPAU_Node@?$_Tree_nod@V?$_Tmap_traits@V?$basic_string@DU?$char_traits@D@std@@V?$allocator@D@2@@std@@PAVCAccount@@U?$less@V?$basic_string@DU?$char_traits@D@std@@V?$allocator@D@2@@std@@@2@V?$allocator@U?$pair@$$CBV?$basic_string@DU?$char_traits@D@std@@V?$allocator@D@2@@std@@PAVCAccount@@@std@@@2@$0A@@std@@@2@PAU342@@Z 00401370 f i account.obj
 0001:00000390       ?_Min@?$_Tree@V?$_Tmap_traits@V?$basic_string@DU?$char_traits@D@std@@V?$allocator@D@2@@std@@PAVCAccount@@U?$less@V?$basic_string@DU?$char_traits@D@std@@V?$allocator@D@2@@std@@@2@V?$allocator@U?$pair@$$CBV?$basic_string@DU?$char_traits@D@std@@V?$allocator@D@2@@std@@PAVCAccount@@@std@@@2@$0A@@std@@@std@@KAPAU_Node@?$_Tree_nod@V?$_Tmap_traits@V?$basic_string@DU?$char_traits@D@std@@V?$allocator@D@2@@std@@PAVCAccount@@U?$less@V?$basic_string@DU?$char_traits@D@std@@V?$allocator@D@2@@std@@@2@V?$allocator@U?$pair@$$CBV?$basic_string@DU?$char_traits@D@std@@V?$allocator@D@2@@std@@PAVCAccount@@@std@@@2@$0A@@std@@@2@PAU342@@Z 00401390 f i account.obj
 0001:000003b0       ?_Rmost@?$_Tree@V?$_Tmap_traits@V?$basic_string@DU?$char_traits@D@std@@V?$allocator@D@2@@std@@PAVCAccount@@U?$less@V?$basic_string@DU?$char_traits@D@std@@V?$allocator@D@2@@std@@@2@V?$allocator@U?$pair@$$CBV?$basic_string@DU?$char_traits@D@std@@V?$allocator@D@2@@std@@PAVCAccount@@@std@@@2@$0A@@std@@@std@@IAEAAPAU_Node@?$_Tree_nod@V?$_Tmap_traits@V?$basic_string@DU?$char_traits@D@std@@V?$allocator@D@2@@std@@PAVCAccount@@U?$less@V?$basic_string@DU?$char_traits@D@std@@V?$allocator@D@2@@std@@@2@V?$allocator@U?$pair@$$CBV?$basic_string@DU?$char_traits@D@std@@V?$allocator@D@2@@std@@PAVCAccount@@@std@@@2@$0A@@std@@@2@XZ 004013b0 f i account.obj
 0001:000003c0       ?_Root@?$_Tree@V?$_Tmap_traits@V?$basic_string@DU?$char_traits@D@std@@V?$allocator@D@2@@std@@PAVCAccount@@U?$less@V?$basic_string@DU?$char_traits@D@std@@V?$allocator@D@2@@std@@@2@V?$allocator@U?$pair@$$CBV?$basic_string@DU?$char_traits@D@std@@V?$allocator@D@2@@std@@PAVCAccount@@@std@@@2@$0A@@std@@@std@@IAEAAPAU_Node@?$_Tree_nod@V?$_Tmap_traits@V?$basic_string@DU?$char_traits@D@std@@V?$allocator@D@2@@std@@PAVCAccount@@U?$less@V?$basic_string@DU?$char_traits@D@std@@V?$allocator@D@2@@std@@@2@V?$allocator@U?$pair@$$CBV?$basic_string@DU?$char_traits@D@std@@V?$allocator@D@2@@std@@PAVCAccount@@@std@@@2@$0A@@std@@@2@XZ 004013c0 f i account.obj
 0001:000003d0       ?_Rrotate@?$_Tree@V?$_Tmap_traits@V?$basic_string@DU?$char_traits@D@std@@V?$allocator@D@2@@std@@PAVCAccount@@U?$less@V?$basic_string@DU?$char_traits@D@std@@V?$allocator@D@2@@std@@@2@V?$allocator@U?$pair@$$CBV?$basic_string@DU?$char_traits@D@std@@V?$allocator@D@2@@std@@PAVCAccount@@@std@@@2@$0A@@std@@@std@@IAEXPAU_Node@?$_Tree_nod@V?$_Tmap_traits@V?$basic_string@DU?$char_traits@D@std@@V?$allocator@D@2@@std@@PAVCAccount@@U?$less@V?$basic_string@DU?$char_traits@D@std@@V?$allocator@D@2@@std@@@2@V?$allocator@U?$pair@$$CBV?$basic_string@DU?$char_traits@D@std@@V?$allocator@D@2@@std@@PAVCAccount@@@std@@@2@$0A@@std@@@2@@Z 004013d0 f i account.obj
 0001:00000430       ?_Kfn@?$_Tmap_traits@V?$basic_string@DU?$char_traits@D@std@@V?$allocator@D@2@@std@@PAVCAccount@@U?$less@V?$basic_string@DU?$char_traits@D@std@@V?$allocator@D@2@@std@@@2@V?$allocator@U?$pair@$$CBV?$basic_string@DU?$char_traits@D@std@@V?$allocator@D@2@@std@@PAVCAccount@@@std@@@2@$0A@@std@@SAABV?$basic_string@DU?$char_traits@D@std@@V?$allocator@D@2@@2@ABU?$pair@$$CBV?$basic_string@DU?$char_traits@D@std@@V?$allocator@D@2@@std@@PAVCAccount@@@2@@Z 00401430 f i account.obj
 0001:00000440       ??0?$allocator@U?$pair@$$CBV?$basic_string@DU?$char_traits@D@std@@V?$allocator@D@2@@std@@PAVCAccount@@@std@@@std@@QAE@XZ 00401440 f i account.obj
 0001:00000450       ?deallocate@?$allocator@U_Node@?$_Tree_nod@V?$_Tmap_traits@V?$basic_string@DU?$char_traits@D@std@@V?$allocator@D@2@@std@@PAVCAccount@@U?$less@V?$basic_string@DU?$char_traits@D@std@@V?$allocator@D@2@@std@@@2@V?$allocator@U?$pair@$$CBV?$basic_string@DU?$char_traits@D@std@@V?$allocator@D@2@@std@@PAVCAccount@@@std@@@2@$0A@@std@@@std@@@std@@QAEXPAU_Node@?$_Tree_nod@V?$_Tmap_traits@V?$basic_string@DU?$char_traits@D@std@@V?$allocator@D@2@@std@@PAVCAccount@@U?$less@V?$basic_string@DU?$char_traits@D@std@@V?$allocator@D@2@@std@@@2@V?$allocator@U?$pair@$$CBV?$basic_string@DU?$char_traits@D@std@@V?$allocator@D@2@@std@@PAVCAccount@@@std@@@2@$0A@@std@@@2@I@Z 00401450 f i account.obj
 0001:00000460       ?_Isnil@?$_Tree@V?$_Tmap_traits@KHU?$less@K@std@@V?$allocator@U?$pair@$$CBKH@std@@@2@$0A@@std@@@std@@KAAADPAU_Node@?$_Tree_nod@V?$_Tmap_traits@KHU?$less@K@std@@V?$allocator@U?$pair@$$CBKH@std@@@2@$0A@@std@@@2@@Z 00401460 f i account.obj
 0001:00000470       ?_Left@?$_Tree@V?$_Tmap_traits@KHU?$less@K@std@@V?$allocator@U?$pair@$$CBKH@std@@@2@$0A@@std@@@std@@KAAAPAU_Node@?$_Tree_nod@V?$_Tmap_traits@KHU?$less@K@std@@V?$allocator@U?$pair@$$CBKH@std@@@2@$0A@@std@@@2@PAU342@@Z 00401470 f i account.obj
 0001:00000480       ?_Right@?$_Tree@V?$_Tmap_traits@KHU?$less@K@std@@V?$allocator@U?$pair@$$CBKH@std@@@2@$0A@@std@@@std@@KAAAPAU_Node@?$_Tree_nod@V?$_Tmap_traits@KHU?$less@K@std@@V?$allocator@U?$pair@$$CBKH@std@@@2@$0A@@std@@@2@PAU342@@Z 00401480 f i account.obj
 0001:00000490       ?_Lmost@?$_Tree@V?$_Tmap_traits@KHU?$less@K@std@@V?$allocator@U?$pair@$$CBKH@std@@@2@$0A@@std@@@std@@IAEAAPAU_Node@?$_Tree_nod@V?$_Tmap_traits@KHU?$less@K@std@@V?$allocator@U?$pair@$$CBKH@std@@@2@$0A@@std@@@2@XZ 00401490 f i account.obj
 0001:000004a0       ?_Rmost@?$_Tree@V?$_Tmap_traits@KHU?$less@K@std@@V?$allocator@U?$pair@$$CBKH@std@@@2@$0A@@std@@@std@@IAEAAPAU_Node@?$_Tree_nod@V?$_Tmap_traits@KHU?$less@K@std@@V?$allocator@U?$pair@$$CBKH@std@@@2@$0A@@std@@@2@XZ 004014a0 f i account.obj
 0001:000004b0       ?_Kfn@?$_Tmap_traits@KHU?$less@K@std@@V?$allocator@U?$pair@$$CBKH@std@@@2@$0A@@std@@SAABKABU?$pair@$$CBKH@2@@Z 004014b0 f i account.obj
 0001:000004c0       ??0?$allocator@U?$pair@$$CBKH@std@@@std@@QAE@XZ 004014c0 f i account.obj
 0001:000004d0       ??R?$less@K@std@@QBE_NABK0@Z 004014d0 f i account.obj
 0001:000004f0       ?_Color@?$_Tree@V?$_Tmap_traits@KPAVCAccount@@U?$less@K@std@@V?$allocator@U?$pair@$$CBKPAVCAccount@@@std@@@3@$0A@@std@@@std@@KAAADPAU_Node@?$_Tree_nod@V?$_Tmap_traits@KPAVCAccount@@U?$less@K@std@@V?$allocator@U?$pair@$$CBKPAVCAccount@@@std@@@3@$0A@@std@@@2@@Z 004014f0 f i account.obj
 0001:00000500       ?_Isnil@?$_Tree@V?$_Tmap_traits@KPAVCAccount@@U?$less@K@std@@V?$allocator@U?$pair@$$CBKPAVCAccount@@@std@@@3@$0A@@std@@@std@@KAAADPAU_Node@?$_Tree_nod@V?$_Tmap_traits@KPAVCAccount@@U?$less@K@std@@V?$allocator@U?$pair@$$CBKPAVCAccount@@@std@@@3@$0A@@std@@@2@@Z 00401500 f i account.obj
 0001:00000510       ?_Left@?$_Tree@V?$_Tmap_traits@KPAVCAccount@@U?$less@K@std@@V?$allocator@U?$pair@$$CBKPAVCAccount@@@std@@@3@$0A@@std@@@std@@KAAAPAU_Node@?$_Tree_nod@V?$_Tmap_traits@KPAVCAccount@@U?$less@K@std@@V?$allocator@U?$pair@$$CBKPAVCAccount@@@std@@@3@$0A@@std@@@2@PAU342@@Z 00401510 f i account.obj
 0001:00000520       ?_Parent@?$_Tree@V?$_Tmap_traits@KPAVCAccount@@U?$less@K@std@@V?$allocator@U?$pair@$$CBKPAVCAccount@@@std@@@3@$0A@@std@@@std@@KAAAPAU_Node@?$_Tree_nod@V?$_Tmap_traits@KPAVCAccount@@U?$less@K@std@@V?$allocator@U?$pair@$$CBKPAVCAccount@@@std@@@3@$0A@@std@@@2@PAU342@@Z 00401520 f i account.obj
 0001:00000530       ?_Right@?$_Tree@V?$_Tmap_traits@KPAVCAccount@@U?$less@K@std@@V?$allocator@U?$pair@$$CBKPAVCAccount@@@std@@@3@$0A@@std@@@std@@KAAAPAU_Node@?$_Tree_nod@V?$_Tmap_traits@KPAVCAccount@@U?$less@K@std@@V?$allocator@U?$pair@$$CBKPAVCAccount@@@std@@@3@$0A@@std@@@2@PAU342@@Z 00401530 f i account.obj
 0001:00000540       ?_Lmost@?$_Tree@V?$_Tmap_traits@KPAVCAccount@@U?$less@K@std@@V?$allocator@U?$pair@$$CBKPAVCAccount@@@std@@@3@$0A@@std@@@std@@IAEAAPAU_Node@?$_Tree_nod@V?$_Tmap_traits@KPAVCAccount@@U?$less@K@std@@V?$allocator@U?$pair@$$CBKPAVCAccount@@@std@@@3@$0A@@std@@@2@XZ 00401540 f i account.obj
 0001:00000550       ?_Max@?$_Tree@V?$_Tmap_traits@KPAVCAccount@@U?$less@K@std@@V?$allocator@U?$pair@$$CBKPAVCAccount@@@std@@@3@$0A@@std@@@std@@KAPAU_Node@?$_Tree_nod@V?$_Tmap_traits@KPAVCAccount@@U?$less@K@std@@V?$allocator@U?$pair@$$CBKPAVCAccount@@@std@@@3@$0A@@std@@@2@PAU342@@Z 00401550 f i account.obj
 0001:00000570       ?_Min@?$_Tree@V?$_Tmap_traits@KPAVCAccount@@U?$less@K@std@@V?$allocator@U?$pair@$$CBKPAVCAccount@@@std@@@3@$0A@@std@@@std@@KAPAU_Node@?$_Tree_nod@V?$_Tmap_traits@KPAVCAccount@@U?$less@K@std@@V?$allocator@U?$pair@$$CBKPAVCAccount@@@std@@@3@$0A@@std@@@2@PAU342@@Z 00401570 f i account.obj
 0001:00000590       ?_Rmost@?$_Tree@V?$_Tmap_traits@KPAVCAccount@@U?$less@K@std@@V?$allocator@U?$pair@$$CBKPAVCAccount@@@std@@@3@$0A@@std@@@std@@IAEAAPAU_Node@?$_Tree_nod@V?$_Tmap_traits@KPAVCAccount@@U?$less@K@std@@V?$allocator@U?$pair@$$CBKPAVCAccount@@@std@@@3@$0A@@std@@@2@XZ 00401590 f i account.obj
 0001:000005a0       ?_Root@?$_Tree@V?$_Tmap_traits@KPAVCAccount@@U?$less@K@std@@V?$allocator@U?$pair@$$CBKPAVCAccount@@@std@@@3@$0A@@std@@@std@@IAEAAPAU_Node@?$_Tree_nod@V?$_Tmap_traits@KPAVCAccount@@U?$less@K@std@@V?$allocator@U?$pair@$$CBKPAVCAccount@@@std@@@3@$0A@@std@@@2@XZ 004015a0 f i account.obj
 0001:000005b0       ?_Rrotate@?$_Tree@V?$_Tmap_traits@KPAVCAccount@@U?$less@K@std@@V?$allocator@U?$pair@$$CBKPAVCAccount@@@std@@@3@$0A@@std@@@std@@IAEXPAU_Node@?$_Tree_nod@V?$_Tmap_traits@KPAVCAccount@@U?$less@K@std@@V?$allocator@U?$pair@$$CBKPAVCAccount@@@std@@@3@$0A@@std@@@2@@Z 004015b0 f i account.obj
 0001:00000610       ?_Kfn@?$_Tmap_traits@KPAVCAccount@@U?$less@K@std@@V?$allocator@U?$pair@$$CBKPAVCAccount@@@std@@@3@$0A@@std@@SAABKABU?$pair@$$CBKPAVCAccount@@@2@@Z 00401610 f i account.obj
 0001:00000620       ??0?$allocator@U?$pair@$$CBKPAVCAccount@@@std@@@std@@QAE@XZ 00401620 f i account.obj
 0001:00000630       ?deallocate@?$allocator@U_Node@?$_Tree_nod@V?$_Tmap_traits@KPAVCAccount@@U?$less@K@std@@V?$allocator@U?$pair@$$CBKPAVCAccount@@@std@@@3@$0A@@std@@@std@@@std@@QAEXPAU_Node@?$_Tree_nod@V?$_Tmap_traits@KPAVCAccount@@U?$less@K@std@@V?$allocator@U?$pair@$$CBKPAVCAccount@@@std@@@3@$0A@@std@@@2@I@Z 00401630 f i account.obj
 0001:00000640       ?_Color@?$_Tree@V?$_Tmap_traits@KKU?$less@K@std@@V?$allocator@U?$pair@$$CBKK@std@@@2@$0A@@std@@@std@@KAAADPAU_Node@?$_Tree_nod@V?$_Tmap_traits@KKU?$less@K@std@@V?$allocator@U?$pair@$$CBKK@std@@@2@$0A@@std@@@2@@Z 00401640 f i account.obj
 0001:00000650       ?_Isnil@?$_Tree@V?$_Tmap_traits@KKU?$less@K@std@@V?$allocator@U?$pair@$$CBKK@std@@@2@$0A@@std@@@std@@KAAADPAU_Node@?$_Tree_nod@V?$_Tmap_traits@KKU?$less@K@std@@V?$allocator@U?$pair@$$CBKK@std@@@2@$0A@@std@@@2@@Z 00401650 f i account.obj
 0001:00000660       ?_Left@?$_Tree@V?$_Tmap_traits@KKU?$less@K@std@@V?$allocator@U?$pair@$$CBKK@std@@@2@$0A@@std@@@std@@KAAAPAU_Node@?$_Tree_nod@V?$_Tmap_traits@KKU?$less@K@std@@V?$allocator@U?$pair@$$CBKK@std@@@2@$0A@@std@@@2@PAU342@@Z 00401660 f i account.obj
 0001:00000670       ?_Parent@?$_Tree@V?$_Tmap_traits@KKU?$less@K@std@@V?$allocator@U?$pair@$$CBKK@std@@@2@$0A@@std@@@std@@KAAAPAU_Node@?$_Tree_nod@V?$_Tmap_traits@KKU?$less@K@std@@V?$allocator@U?$pair@$$CBKK@std@@@2@$0A@@std@@@2@PAU342@@Z 00401670 f i account.obj
 0001:00000680       ?_Right@?$_Tree@V?$_Tmap_traits@KKU?$less@K@std@@V?$allocator@U?$pair@$$CBKK@std@@@2@$0A@@std@@@std@@KAAAPAU_Node@?$_Tree_nod@V?$_Tmap_traits@KKU?$less@K@std@@V?$allocator@U?$pair@$$CBKK@std@@@2@$0A@@std@@@2@PAU342@@Z 00401680 f i account.obj
 0001:00000690       ?_Lmost@?$_Tree@V?$_Tmap_traits@KKU?$less@K@std@@V?$allocator@U?$pair@$$CBKK@std@@@2@$0A@@std@@@std@@IAEAAPAU_Node@?$_Tree_nod@V?$_Tmap_traits@KKU?$less@K@std@@V?$allocator@U?$pair@$$CBKK@std@@@2@$0A@@std@@@2@XZ 00401690 f i account.obj
 0001:000006a0       ?_Max@?$_Tree@V?$_Tmap_traits@KKU?$less@K@std@@V?$allocator@U?$pair@$$CBKK@std@@@2@$0A@@std@@@std@@KAPAU_Node@?$_Tree_nod@V?$_Tmap_traits@KKU?$less@K@std@@V?$allocator@U?$pair@$$CBKK@std@@@2@$0A@@std@@@2@PAU342@@Z 004016a0 f i account.obj
 0001:000006c0       ?_Min@?$_Tree@V?$_Tmap_traits@KKU?$less@K@std@@V?$allocator@U?$pair@$$CBKK@std@@@2@$0A@@std@@@std@@KAPAU_Node@?$_Tree_nod@V?$_Tmap_traits@KKU?$less@K@std@@V?$allocator@U?$pair@$$CBKK@std@@@2@$0A@@std@@@2@PAU342@@Z 004016c0 f i account.obj
 0001:000006e0       ?_Rmost@?$_Tree@V?$_Tmap_traits@KKU?$less@K@std@@V?$allocator@U?$pair@$$CBKK@std@@@2@$0A@@std@@@std@@IAEAAPAU_Node@?$_Tree_nod@V?$_Tmap_traits@KKU?$less@K@std@@V?$allocator@U?$pair@$$CBKK@std@@@2@$0A@@std@@@2@XZ 004016e0 f i account.obj
 0001:000006f0       ?_Root@?$_Tree@V?$_Tmap_traits@KKU?$less@K@std@@V?$allocator@U?$pair@$$CBKK@std@@@2@$0A@@std@@@std@@IAEAAPAU_Node@?$_Tree_nod@V?$_Tmap_traits@KKU?$less@K@std@@V?$allocator@U?$pair@$$CBKK@std@@@2@$0A@@std@@@2@XZ 004016f0 f i account.obj
 0001:00000700       ?_Rrotate@?$_Tree@V?$_Tmap_traits@KKU?$less@K@std@@V?$allocator@U?$pair@$$CBKK@std@@@2@$0A@@std@@@std@@IAEXPAU_Node@?$_Tree_nod@V?$_Tmap_traits@KKU?$less@K@std@@V?$allocator@U?$pair@$$CBKK@std@@@2@$0A@@std@@@2@@Z 00401700 f i account.obj
 0001:00000760       ?_Kfn@?$_Tmap_traits@KKU?$less@K@std@@V?$allocator@U?$pair@$$CBKK@std@@@2@$0A@@std@@SAABKABU?$pair@$$CBKK@2@@Z 00401760 f i account.obj
 0001:00000770       ??0?$allocator@U?$pair@$$CBKK@std@@@std@@QAE@XZ 00401770 f i account.obj
 0001:00000780       ?deallocate@?$allocator@U_Node@?$_Tree_nod@V?$_Tmap_traits@KKU?$less@K@std@@V?$allocator@U?$pair@$$CBKK@std@@@2@$0A@@std@@@std@@@std@@QAEXPAU_Node@?$_Tree_nod@V?$_Tmap_traits@KKU?$less@K@std@@V?$allocator@U?$pair@$$CBKK@std@@@2@$0A@@std@@@2@I@Z 00401780 f i account.obj
 0001:00000790       ??0?$pair@Viterator@?$_Tree@V?$_Tmap_traits@KKU?$less@K@std@@V?$allocator@U?$pair@$$CBKK@std@@@2@$0A@@std@@@std@@_N@std@@QAE@ABViterator@?$_Tree@V?$_Tmap_traits@KKU?$less@K@std@@V?$allocator@U?$pair@$$CBKK@std@@@2@$0A@@std@@@1@AB_N@Z 00401790 f i account.obj
 0001:000007b0       ??8const_iterator@?$_Tree@V?$_Tmap_traits@KKU?$less@K@std@@V?$allocator@U?$pair@$$CBKK@std@@@2@$0A@@std@@@std@@QBE_NABV012@@Z 004017b0 f i account.obj
 0001:000007c0       ?_Mynode@const_iterator@?$_Tree@V?$_Tmap_traits@KKU?$less@K@std@@V?$allocator@U?$pair@$$CBKK@std@@@2@$0A@@std@@@std@@QBEPAU_Node@?$_Tree_nod@V?$_Tmap_traits@KKU?$less@K@std@@V?$allocator@U?$pair@$$CBKK@std@@@2@$0A@@std@@@3@XZ 004017c0 f i account.obj
 0001:000007d0       ?_Mynode@const_iterator@?$_Tree@V?$_Tmap_traits@V?$basic_string@DU?$char_traits@D@std@@V?$allocator@D@2@@std@@PAVCAccount@@U?$less@V?$basic_string@DU?$char_traits@D@std@@V?$allocator@D@2@@std@@@2@V?$allocator@U?$pair@$$CBV?$basic_string@DU?$char_traits@D@std@@V?$allocator@D@2@@std@@PAVCAccount@@@std@@@2@$0A@@std@@@std@@QBEPAU_Node@?$_Tree_nod@V?$_Tmap_traits@V?$basic_string@DU?$char_traits@D@std@@V?$allocator@D@2@@std@@PAVCAccount@@U?$less@V?$basic_string@DU?$char_traits@D@std@@V?$allocator@D@2@@std@@@2@V?$allocator@U?$pair@$$CBV?$basic_string@DU?$char_traits@D@std@@V?$allocator@D@2@@std@@PAVCAccount@@@std@@@2@$0A@@std@@@3@XZ 004017d0 f i account.obj
 0001:000007e0       ?_Mynode@const_iterator@?$_Tree@V?$_Tmap_traits@KHU?$less@K@std@@V?$allocator@U?$pair@$$CBKH@std@@@2@$0A@@std@@@std@@QBEPAU_Node@?$_Tree_nod@V?$_Tmap_traits@KHU?$less@K@std@@V?$allocator@U?$pair@$$CBKH@std@@@2@$0A@@std@@@3@XZ 004017e0 f i account.obj
 0001:000007f0       ?_Mynode@const_iterator@?$_Tree@V?$_Tmap_traits@KPAVCAccount@@U?$less@K@std@@V?$allocator@U?$pair@$$CBKPAVCAccount@@@std@@@3@$0A@@std@@@std@@QBEPAU_Node@?$_Tree_nod@V?$_Tmap_traits@KPAVCAccount@@U?$less@K@std@@V?$allocator@U?$pair@$$CBKPAVCAccount@@@std@@@3@$0A@@std@@@3@XZ 004017f0 f i account.obj
 0001:00000800       ??0?$pair@Viterator@?$_Tree@V?$_Tmap_traits@V?$basic_string@DU?$char_traits@D@std@@V?$allocator@D@2@@std@@PAVCAccount@@U?$less@V?$basic_string@DU?$char_traits@D@std@@V?$allocator@D@2@@std@@@2@V?$allocator@U?$pair@$$CBV?$basic_string@DU?$char_traits@D@std@@V?$allocator@D@2@@std@@PAVCAccount@@@std@@@2@$0A@@std@@@std@@_N@std@@QAE@ABViterator@?$_Tree@V?$_Tmap_traits@V?$basic_string@DU?$char_traits@D@std@@V?$allocator@D@2@@std@@PAVCAccount@@U?$less@V?$basic_string@DU?$char_traits@D@std@@V?$allocator@D@2@@std@@@2@V?$allocator@U?$pair@$$CBV?$basic_string@DU?$char_traits@D@std@@V?$allocator@D@2@@std@@PAVCAccount@@@std@@@2@$0A@@std@@@1@AB_N@Z 00401800 f i account.obj
 0001:00000820       ??0?$pair@Viterator@?$_Tree@V?$_Tmap_traits@KPAVCAccount@@U?$less@K@std@@V?$allocator@U?$pair@$$CBKPAVCAccount@@@std@@@3@$0A@@std@@@std@@_N@std@@QAE@ABViterator@?$_Tree@V?$_Tmap_traits@KPAVCAccount@@U?$less@K@std@@V?$allocator@U?$pair@$$CBKPAVCAccount@@@std@@@3@$0A@@std@@@1@AB_N@Z 00401820 f i account.obj
 0001:00000840       ??8const_iterator@?$_Tree@V?$_Tmap_traits@KPAUtagSERVER_DESC@@U?$less@K@std@@V?$allocator@U?$pair@$$CBKPAUtagSERVER_DESC@@@std@@@3@$0A@@std@@@std@@QBE_NABV012@@Z 00401840 f i account.obj
 0001:00000850       ?_Mynode@const_iterator@?$_Tree@V?$_Tmap_traits@KPAUtagSERVER_DESC@@U?$less@K@std@@V?$allocator@U?$pair@$$CBKPAUtagSERVER_DESC@@@std@@@3@$0A@@std@@@std@@QBEPAU_Node@?$_Tree_nod@V?$_Tmap_traits@KPAUtagSERVER_DESC@@U?$less@K@std@@V?$allocator@U?$pair@$$CBKPAUtagSERVER_DESC@@@std@@@3@$0A@@std@@@3@XZ 00401850 f i account.obj
 0001:00000860       ??0?$pair@Viterator@?$_Tree@V?$_Tmap_traits@KHU?$less@K@std@@V?$allocator@U?$pair@$$CBKH@std@@@2@$0A@@std@@@std@@_N@std@@QAE@ABViterator@?$_Tree@V?$_Tmap_traits@KHU?$less@K@std@@V?$allocator@U?$pair@$$CBKH@std@@@2@$0A@@std@@@1@AB_N@Z 00401860 f i account.obj
 0001:00000880       ??0?$allocator@PAX@std@@QAE@XZ 00401880 f i account.obj
 0001:00000890       ?_Myval@?$_Tree@V?$_Tmap_traits@V?$basic_string@DU?$char_traits@D@std@@V?$allocator@D@2@@std@@PAVCAccount@@U?$less@V?$basic_string@DU?$char_traits@D@std@@V?$allocator@D@2@@std@@@2@V?$allocator@U?$pair@$$CBV?$basic_string@DU?$char_traits@D@std@@V?$allocator@D@2@@std@@PAVCAccount@@@std@@@2@$0A@@std@@@std@@KAAAU?$pair@$$CBV?$basic_string@DU?$char_traits@D@std@@V?$allocator@D@2@@std@@PAVCAccount@@@2@PAU_Node@?$_Tree_nod@V?$_Tmap_traits@V?$basic_string@DU?$char_traits@D@std@@V?$allocator@D@2@@std@@PAVCAccount@@U?$less@V?$basic_string@DU?$char_traits@D@std@@V?$allocator@D@2@@std@@@2@V?$allocator@U?$pair@$$CBV?$basic_string@DU?$char_traits@D@std@@V?$allocator@D@2@@std@@PAVCAccount@@@std@@@2@$0A@@std@@@2@@Z 00401890 f i account.obj
 0001:000008a0       ?size@?$_Tree@V?$_Tmap_traits@V?$basic_string@DU?$char_traits@D@std@@V?$allocator@D@2@@std@@PAVCAccount@@U?$less@V?$basic_string@DU?$char_traits@D@std@@V?$allocator@D@2@@std@@@2@V?$allocator@U?$pair@$$CBV?$basic_string@DU?$char_traits@D@std@@V?$allocator@D@2@@std@@PAVCAccount@@@std@@@2@$0A@@std@@@std@@QBEIXZ 004018a0 f i account.obj
 0001:000008b0       ?_Root@?$_Tree@V?$_Tmap_traits@V?$basic_string@DU?$char_traits@D@std@@V?$allocator@D@2@@std@@PAVCAccount@@U?$less@V?$basic_string@DU?$char_traits@D@std@@V?$allocator@D@2@@std@@@2@V?$allocator@U?$pair@$$CBV?$basic_string@DU?$char_traits@D@std@@V?$allocator@D@2@@std@@PAVCAccount@@@std@@@2@$0A@@std@@@std@@IBEAAPAU_Node@?$_Tree_nod@V?$_Tmap_traits@V?$basic_string@DU?$char_traits@D@std@@V?$allocator@D@2@@std@@PAVCAccount@@U?$less@V?$basic_string@DU?$char_traits@D@std@@V?$allocator@D@2@@std@@@2@V?$allocator@U?$pair@$$CBV?$basic_string@DU?$char_traits@D@std@@V?$allocator@D@2@@std@@PAVCAccount@@@std@@@2@$0A@@std@@@2@XZ 004018b0 f i account.obj
 0001:000008c0       ??0?$allocator@U?$pair@$$CBV?$basic_string@DU?$char_traits@D@std@@V?$allocator@D@2@@std@@PAVCAccount@@@std@@@std@@QAE@ABV01@@Z 004018c0 f i account.obj
 0001:000008d0       ?_Color@?$_Tree@V?$_Tmap_traits@KHU?$less@K@std@@V?$allocator@U?$pair@$$CBKH@std@@@2@$0A@@std@@@std@@KAAADPAU_Node@?$_Tree_nod@V?$_Tmap_traits@KHU?$less@K@std@@V?$allocator@U?$pair@$$CBKH@std@@@2@$0A@@std@@@2@@Z 004018d0 f i account.obj
 0001:000008e0       ?_Parent@?$_Tree@V?$_Tmap_traits@KHU?$less@K@std@@V?$allocator@U?$pair@$$CBKH@std@@@2@$0A@@std@@@std@@KAAAPAU_Node@?$_Tree_nod@V?$_Tmap_traits@KHU?$less@K@std@@V?$allocator@U?$pair@$$CBKH@std@@@2@$0A@@std@@@2@PAU342@@Z 004018e0 f i account.obj
 0001:000008f0       ?_Myval@?$_Tree@V?$_Tmap_traits@KHU?$less@K@std@@V?$allocator@U?$pair@$$CBKH@std@@@2@$0A@@std@@@std@@KAAAU?$pair@$$CBKH@2@PAU_Node@?$_Tree_nod@V?$_Tmap_traits@KHU?$less@K@std@@V?$allocator@U?$pair@$$CBKH@std@@@2@$0A@@std@@@2@@Z 004018f0 f i account.obj
 0001:00000900       ??0?$allocator@U?$pair@$$CBKH@std@@@std@@QAE@ABV01@@Z 00401900 f i account.obj
 0001:00000910       ?deallocate@?$allocator@U_Node@?$_Tree_nod@V?$_Tmap_traits@KHU?$less@K@std@@V?$allocator@U?$pair@$$CBKH@std@@@2@$0A@@std@@@std@@@std@@QAEXPAU_Node@?$_Tree_nod@V?$_Tmap_traits@KHU?$less@K@std@@V?$allocator@U?$pair@$$CBKH@std@@@2@$0A@@std@@@2@I@Z 00401910 f i account.obj
 0001:00000920       ?_Myval@?$_Tree@V?$_Tmap_traits@KPAVCAccount@@U?$less@K@std@@V?$allocator@U?$pair@$$CBKPAVCAccount@@@std@@@3@$0A@@std@@@std@@KAAAU?$pair@$$CBKPAVCAccount@@@2@PAU_Node@?$_Tree_nod@V?$_Tmap_traits@KPAVCAccount@@U?$less@K@std@@V?$allocator@U?$pair@$$CBKPAVCAccount@@@std@@@3@$0A@@std@@@2@@Z 00401920 f i account.obj
 0001:00000930       ??0?$allocator@U?$pair@$$CBKPAVCAccount@@@std@@@std@@QAE@ABV01@@Z 00401930 f i account.obj
 0001:00000940       ?_Myval@?$_Tree@V?$_Tmap_traits@KKU?$less@K@std@@V?$allocator@U?$pair@$$CBKK@std@@@2@$0A@@std@@@std@@KAAAU?$pair@$$CBKK@2@PAU_Node@?$_Tree_nod@V?$_Tmap_traits@KKU?$less@K@std@@V?$allocator@U?$pair@$$CBKK@std@@@2@$0A@@std@@@2@@Z 00401940 f i account.obj
 0001:00000950       ??0?$allocator@U?$pair@$$CBKK@std@@@std@@QAE@ABV01@@Z 00401950 f i account.obj
 0001:00000960       ??0const_iterator@?$_Tree@V?$_Tmap_traits@KKU?$less@K@std@@V?$allocator@U?$pair@$$CBKK@std@@@2@$0A@@std@@@std@@QAE@PAU_Node@?$_Tree_nod@V?$_Tmap_traits@KKU?$less@K@std@@V?$allocator@U?$pair@$$CBKK@std@@@2@$0A@@std@@@2@@Z 00401960 f i account.obj
 0001:00000970       ??Dconst_iterator@?$_Tree@V?$_Tmap_traits@KKU?$less@K@std@@V?$allocator@U?$pair@$$CBKK@std@@@2@$0A@@std@@@std@@QBEABU?$pair@$$CBKK@2@XZ 00401970 f i account.obj
 0001:00000980       ?_Myval@?$_Tree@V?$_Tmap_traits@KPAUtagSERVER_DESC@@U?$less@K@std@@V?$allocator@U?$pair@$$CBKPAUtagSERVER_DESC@@@std@@@3@$0A@@std@@@std@@KAAAU?$pair@$$CBKPAUtagSERVER_DESC@@@2@PAU_Node@?$_Tree_nod@V?$_Tmap_traits@KPAUtagSERVER_DESC@@U?$less@K@std@@V?$allocator@U?$pair@$$CBKPAUtagSERVER_DESC@@@std@@@3@$0A@@std@@@2@@Z 00401980 f i account.obj
 0001:00000990       ?_Kfn@?$_Tmap_traits@KPAUtagSERVER_DESC@@U?$less@K@std@@V?$allocator@U?$pair@$$CBKPAUtagSERVER_DESC@@@std@@@3@$0A@@std@@SAABKABU?$pair@$$CBKPAUtagSERVER_DESC@@@2@@Z 00401990 f i account.obj
 0001:000009a0       ??0const_iterator@?$_Tree@V?$_Tmap_traits@V?$basic_string@DU?$char_traits@D@std@@V?$allocator@D@2@@std@@PAVCAccount@@U?$less@V?$basic_string@DU?$char_traits@D@std@@V?$allocator@D@2@@std@@@2@V?$allocator@U?$pair@$$CBV?$basic_string@DU?$char_traits@D@std@@V?$allocator@D@2@@std@@PAVCAccount@@@std@@@2@$0A@@std@@@std@@QAE@PAU_Node@?$_Tree_nod@V?$_Tmap_traits@V?$basic_string@DU?$char_traits@D@std@@V?$allocator@D@2@@std@@PAVCAccount@@U?$less@V?$basic_string@DU?$char_traits@D@std@@V?$allocator@D@2@@std@@@2@V?$allocator@U?$pair@$$CBV?$basic_string@DU?$char_traits@D@std@@V?$allocator@D@2@@std@@PAVCAccount@@@std@@@2@$0A@@std@@@2@@Z 004019a0 f i account.obj
 0001:000009b0       ??Dconst_iterator@?$_Tree@V?$_Tmap_traits@V?$basic_string@DU?$char_traits@D@std@@V?$allocator@D@2@@std@@PAVCAccount@@U?$less@V?$basic_string@DU?$char_traits@D@std@@V?$allocator@D@2@@std@@@2@V?$allocator@U?$pair@$$CBV?$basic_string@DU?$char_traits@D@std@@V?$allocator@D@2@@std@@PAVCAccount@@@std@@@2@$0A@@std@@@std@@QBEABU?$pair@$$CBV?$basic_string@DU?$char_traits@D@std@@V?$allocator@D@2@@std@@PAVCAccount@@@2@XZ 004019b0 f i account.obj
 0001:000009c0       ?_Inc@const_iterator@?$_Tree@V?$_Tmap_traits@V?$basic_string@DU?$char_traits@D@std@@V?$allocator@D@2@@std@@PAVCAccount@@U?$less@V?$basic_string@DU?$char_traits@D@std@@V?$allocator@D@2@@std@@@2@V?$allocator@U?$pair@$$CBV?$basic_string@DU?$char_traits@D@std@@V?$allocator@D@2@@std@@PAVCAccount@@@std@@@2@$0A@@std@@@std@@QAEXXZ 004019c0 f i account.obj
 0001:00000a20       ??0const_iterator@?$_Tree@V?$_Tmap_traits@KHU?$less@K@std@@V?$allocator@U?$pair@$$CBKH@std@@@2@$0A@@std@@@std@@QAE@PAU_Node@?$_Tree_nod@V?$_Tmap_traits@KHU?$less@K@std@@V?$allocator@U?$pair@$$CBKH@std@@@2@$0A@@std@@@2@@Z 00401a20 f i account.obj
 0001:00000a30       ??Dconst_iterator@?$_Tree@V?$_Tmap_traits@KHU?$less@K@std@@V?$allocator@U?$pair@$$CBKH@std@@@2@$0A@@std@@@std@@QBEABU?$pair@$$CBKH@2@XZ 00401a30 f i account.obj
 0001:00000a40       ??0const_iterator@?$_Tree@V?$_Tmap_traits@KPAVCAccount@@U?$less@K@std@@V?$allocator@U?$pair@$$CBKPAVCAccount@@@std@@@3@$0A@@std@@@std@@QAE@PAU_Node@?$_Tree_nod@V?$_Tmap_traits@KPAVCAccount@@U?$less@K@std@@V?$allocator@U?$pair@$$CBKPAVCAccount@@@std@@@3@$0A@@std@@@2@@Z 00401a40 f i account.obj
 0001:00000a50       ??Dconst_iterator@?$_Tree@V?$_Tmap_traits@KPAVCAccount@@U?$less@K@std@@V?$allocator@U?$pair@$$CBKPAVCAccount@@@std@@@3@$0A@@std@@@std@@QBEABU?$pair@$$CBKPAVCAccount@@@2@XZ 00401a50 f i account.obj
 0001:00000a60       ?_Inc@const_iterator@?$_Tree@V?$_Tmap_traits@KPAVCAccount@@U?$less@K@std@@V?$allocator@U?$pair@$$CBKPAVCAccount@@@std@@@3@$0A@@std@@@std@@QAEXXZ 00401a60 f i account.obj
 0001:00000ac0       ??0const_iterator@?$_Tree@V?$_Tmap_traits@KPAUtagSERVER_DESC@@U?$less@K@std@@V?$allocator@U?$pair@$$CBKPAUtagSERVER_DESC@@@std@@@3@$0A@@std@@@std@@QAE@PAU_Node@?$_Tree_nod@V?$_Tmap_traits@KPAUtagSERVER_DESC@@U?$less@K@std@@V?$allocator@U?$pair@$$CBKPAUtagSERVER_DESC@@@std@@@3@$0A@@std@@@2@@Z 00401ac0 f i account.obj
 0001:00000ad0       ??Dconst_iterator@?$_Tree@V?$_Tmap_traits@KPAUtagSERVER_DESC@@U?$less@K@std@@V?$allocator@U?$pair@$$CBKPAUtagSERVER_DESC@@@std@@@3@$0A@@std@@@std@@QBEABU?$pair@$$CBKPAUtagSERVER_DESC@@@2@XZ 00401ad0 f i account.obj
 0001:00000ae0       ??0?$pair@Viterator@?$_Tree@V?$_Tmap_traits@KKU?$less@K@std@@V?$allocator@U?$pair@$$CBKK@std@@@2@$0A@@std@@@std@@V123@@std@@QAE@ABViterator@?$_Tree@V?$_Tmap_traits@KKU?$less@K@std@@V?$allocator@U?$pair@$$CBKK@std@@@2@$0A@@std@@@1@0@Z 00401ae0 f i account.obj
 0001:00000b00       ??0?$allocator@PAX@std@@QAE@ABV01@@Z 00401b00 f i account.obj
 0001:00000b10       ?_Nextnode@?$list@PAXV?$allocator@PAX@std@@@std@@KAAAPAU_Node@?$_List_nod@PAXV?$allocator@PAX@std@@@2@PAU342@@Z 00401b10 f i account.obj
 0001:00000b20       ?_Prevnode@?$list@PAXV?$allocator@PAX@std@@@std@@KAAAPAU_Node@?$_List_nod@PAXV?$allocator@PAX@std@@@2@PAU342@@Z 00401b20 f i account.obj
 0001:00000b30       ?deallocate@?$allocator@U_Node@?$_List_nod@PAXV?$allocator@PAX@std@@@std@@@std@@QAEXPAU_Node@?$_List_nod@PAXV?$allocator@PAX@std@@@2@I@Z 00401b30 f i account.obj
 0001:00000b40       ?max_size@?$allocator@U?$pair@$$CBV?$basic_string@DU?$char_traits@D@std@@V?$allocator@D@2@@std@@PAVCAccount@@@std@@@std@@QBEIXZ 00401b40 f i account.obj
 0001:00000b50       ?_Root@?$_Tree@V?$_Tmap_traits@KHU?$less@K@std@@V?$allocator@U?$pair@$$CBKH@std@@@2@$0A@@std@@@std@@IBEAAPAU_Node@?$_Tree_nod@V?$_Tmap_traits@KHU?$less@K@std@@V?$allocator@U?$pair@$$CBKH@std@@@2@$0A@@std@@@2@XZ 00401b50 f i account.obj
 0001:00000b60       ?max_size@?$allocator@U?$pair@$$CBKH@std@@@std@@QBEIXZ 00401b60 f i account.obj
 0001:00000b70       ?_Root@?$_Tree@V?$_Tmap_traits@KPAVCAccount@@U?$less@K@std@@V?$allocator@U?$pair@$$CBKPAVCAccount@@@std@@@3@$0A@@std@@@std@@IBEAAPAU_Node@?$_Tree_nod@V?$_Tmap_traits@KPAVCAccount@@U?$less@K@std@@V?$allocator@U?$pair@$$CBKPAVCAccount@@@std@@@3@$0A@@std@@@2@XZ 00401b70 f i account.obj
 0001:00000b80       ?max_size@?$allocator@U?$pair@$$CBKPAVCAccount@@@std@@@std@@QBEIXZ 00401b80 f i account.obj
 0001:00000b90       ?_Root@?$_Tree@V?$_Tmap_traits@KKU?$less@K@std@@V?$allocator@U?$pair@$$CBKK@std@@@2@$0A@@std@@@std@@IBEAAPAU_Node@?$_Tree_nod@V?$_Tmap_traits@KKU?$less@K@std@@V?$allocator@U?$pair@$$CBKK@std@@@2@$0A@@std@@@2@XZ 00401b90 f i account.obj
 0001:00000ba0       ?max_size@?$allocator@U?$pair@$$CBKK@std@@@std@@QBEIXZ 00401ba0 f i account.obj
 0001:00000bb0       ?_Dec@const_iterator@?$_Tree@V?$_Tmap_traits@KKU?$less@K@std@@V?$allocator@U?$pair@$$CBKK@std@@@2@$0A@@std@@@std@@QAEXXZ 00401bb0 f i account.obj
 0001:00000c10       ?_Inc@const_iterator@?$_Tree@V?$_Tmap_traits@KKU?$less@K@std@@V?$allocator@U?$pair@$$CBKK@std@@@2@$0A@@std@@@std@@QAEXXZ 00401c10 f i account.obj
 0001:00000c70       ?_Isnil@?$_Tree@V?$_Tmap_traits@KPAUtagSERVER_DESC@@U?$less@K@std@@V?$allocator@U?$pair@$$CBKPAUtagSERVER_DESC@@@std@@@3@$0A@@std@@@std@@KAAADPAU_Node@?$_Tree_nod@V?$_Tmap_traits@KPAUtagSERVER_DESC@@U?$less@K@std@@V?$allocator@U?$pair@$$CBKPAUtagSERVER_DESC@@@std@@@3@$0A@@std@@@2@@Z 00401c70 f i account.obj
 0001:00000c80       ?_Left@?$_Tree@V?$_Tmap_traits@KPAUtagSERVER_DESC@@U?$less@K@std@@V?$allocator@U?$pair@$$CBKPAUtagSERVER_DESC@@@std@@@3@$0A@@std@@@std@@KAAAPAU_Node@?$_Tree_nod@V?$_Tmap_traits@KPAUtagSERVER_DESC@@U?$less@K@std@@V?$allocator@U?$pair@$$CBKPAUtagSERVER_DESC@@@std@@@3@$0A@@std@@@2@PAU342@@Z 00401c80 f i account.obj
 0001:00000c90       ?_Right@?$_Tree@V?$_Tmap_traits@KPAUtagSERVER_DESC@@U?$less@K@std@@V?$allocator@U?$pair@$$CBKPAUtagSERVER_DESC@@@std@@@3@$0A@@std@@@std@@KAAAPAU_Node@?$_Tree_nod@V?$_Tmap_traits@KPAUtagSERVER_DESC@@U?$less@K@std@@V?$allocator@U?$pair@$$CBKPAUtagSERVER_DESC@@@std@@@3@$0A@@std@@@2@PAU342@@Z 00401c90 f i account.obj
 0001:00000ca0       ?_Dec@const_iterator@?$_Tree@V?$_Tmap_traits@V?$basic_string@DU?$char_traits@D@std@@V?$allocator@D@2@@std@@PAVCAccount@@U?$less@V?$basic_string@DU?$char_traits@D@std@@V?$allocator@D@2@@std@@@2@V?$allocator@U?$pair@$$CBV?$basic_string@DU?$char_traits@D@std@@V?$allocator@D@2@@std@@PAVCAccount@@@std@@@2@$0A@@std@@@std@@QAEXXZ 00401ca0 f i account.obj
 0001:00000d00       ?_Dec@const_iterator@?$_Tree@V?$_Tmap_traits@KPAVCAccount@@U?$less@K@std@@V?$allocator@U?$pair@$$CBKPAVCAccount@@@std@@@3@$0A@@std@@@std@@QAEXXZ 00401d00 f i account.obj
 0001:00000d60       ??0_Node@?$_Tree_nod@V?$_Tmap_traits@KHU?$less@K@std@@V?$allocator@U?$pair@$$CBKH@std@@@2@$0A@@std@@@std@@QAE@PAU012@00ABU?$pair@$$CBKH@2@D@Z 00401d60 f i account.obj
 0001:00000da0       ??0_Node@?$_Tree_nod@V?$_Tmap_traits@KPAVCAccount@@U?$less@K@std@@V?$allocator@U?$pair@$$CBKPAVCAccount@@@std@@@3@$0A@@std@@@std@@QAE@PAU012@00ABU?$pair@$$CBKPAVCAccount@@@2@D@Z 00401da0 f i account.obj
 0001:00000de0       ??0_Node@?$_Tree_nod@V?$_Tmap_traits@KKU?$less@K@std@@V?$allocator@U?$pair@$$CBKK@std@@@2@$0A@@std@@@std@@QAE@PAU012@00ABU?$pair@$$CBKK@2@D@Z 00401de0 f i account.obj
 0001:00000e20       ??0?$_Tmap_traits@V?$basic_string@DU?$char_traits@D@std@@V?$allocator@D@2@@std@@PAVCAccount@@U?$less@V?$basic_string@DU?$char_traits@D@std@@V?$allocator@D@2@@std@@@2@V?$allocator@U?$pair@$$CBV?$basic_string@DU?$char_traits@D@std@@V?$allocator@D@2@@std@@PAVCAccount@@@std@@@2@$0A@@std@@QAE@U?$less@V?$basic_string@DU?$char_traits@D@std@@V?$allocator@D@2@@std@@@1@@Z 00401e20 f i account.obj
 0001:00000e30       ?_Max@?$_Tree@V?$_Tmap_traits@KHU?$less@K@std@@V?$allocator@U?$pair@$$CBKH@std@@@2@$0A@@std@@@std@@KAPAU_Node@?$_Tree_nod@V?$_Tmap_traits@KHU?$less@K@std@@V?$allocator@U?$pair@$$CBKH@std@@@2@$0A@@std@@@2@PAU342@@Z 00401e30 f i account.obj
 0001:00000e50       ?_Min@?$_Tree@V?$_Tmap_traits@KHU?$less@K@std@@V?$allocator@U?$pair@$$CBKH@std@@@2@$0A@@std@@@std@@KAPAU_Node@?$_Tree_nod@V?$_Tmap_traits@KHU?$less@K@std@@V?$allocator@U?$pair@$$CBKH@std@@@2@$0A@@std@@@2@PAU342@@Z 00401e50 f i account.obj
 0001:00000e70       ?_Parent@?$_Tree@V?$_Tmap_traits@KPAUtagSERVER_DESC@@U?$less@K@std@@V?$allocator@U?$pair@$$CBKPAUtagSERVER_DESC@@@std@@@3@$0A@@std@@@std@@KAAAPAU_Node@?$_Tree_nod@V?$_Tmap_traits@KPAUtagSERVER_DESC@@U?$less@K@std@@V?$allocator@U?$pair@$$CBKPAUtagSERVER_DESC@@@std@@@3@$0A@@std@@@2@PAU342@@Z 00401e70 f i account.obj
 0001:00000e80       ?_Mynode@const_iterator@?$list@PAXV?$allocator@PAX@std@@@std@@QBEPAU_Node@?$_List_nod@PAXV?$allocator@PAX@std@@@3@XZ 00401e80 f i account.obj
 0001:00000e90       ??0?$_Tmap_traits@KHU?$less@K@std@@V?$allocator@U?$pair@$$CBKH@std@@@2@$0A@@std@@QAE@U?$less@K@1@@Z 00401e90 f i account.obj
 0001:00000ea0       ??0?$_Tmap_traits@KPAVCAccount@@U?$less@K@std@@V?$allocator@U?$pair@$$CBKPAVCAccount@@@std@@@3@$0A@@std@@QAE@U?$less@K@1@@Z 00401ea0 f i account.obj
 0001:00000eb0       ??0?$_Tmap_traits@KKU?$less@K@std@@V?$allocator@U?$pair@$$CBKK@std@@@2@$0A@@std@@QAE@U?$less@K@1@@Z 00401eb0 f i account.obj
 0001:00000ec0       ??0const_iterator@?$list@PAXV?$allocator@PAX@std@@@std@@QAE@PAU_Node@?$_List_nod@PAXV?$allocator@PAX@std@@@2@@Z 00401ec0 f i account.obj
 0001:00000ed0       ??0_Node@?$_List_nod@PAXV?$allocator@PAX@std@@@std@@QAE@PAU012@0ABQAX@Z 00401ed0 f i account.obj
 0001:00000ef0       ?max_size@?$allocator@PAX@std@@QBEIXZ 00401ef0 f i account.obj
 0001:00000f00       ?_Inc@const_iterator@?$_Tree@V?$_Tmap_traits@KHU?$less@K@std@@V?$allocator@U?$pair@$$CBKH@std@@@2@$0A@@std@@@std@@QAEXXZ 00401f00 f i account.obj
 0001:00000f60       ??$swap@D@std@@YAXAAD0@Z   00401f60 f i account.obj
 0001:00000f80       ??$_Destroy@U_Node@?$_Tree_nod@V?$_Tmap_traits@KPAVCAccount@@U?$less@K@std@@V?$allocator@U?$pair@$$CBKPAVCAccount@@@std@@@3@$0A@@std@@@std@@@std@@YAXPAU_Node@?$_Tree_nod@V?$_Tmap_traits@KPAVCAccount@@U?$less@K@std@@V?$allocator@U?$pair@$$CBKPAVCAccount@@@std@@@3@$0A@@std@@@0@@Z 00401f80 f i account.obj
 0001:00000f90       ??$_Destroy@U_Node@?$_Tree_nod@V?$_Tmap_traits@KKU?$less@K@std@@V?$allocator@U?$pair@$$CBKK@std@@@2@$0A@@std@@@std@@@std@@YAXPAU_Node@?$_Tree_nod@V?$_Tmap_traits@KKU?$less@K@std@@V?$allocator@U?$pair@$$CBKK@std@@@2@$0A@@std@@@0@@Z 00401f90 f i account.obj
 0001:00000fa0       ??$?0U?$pair@$$CBV?$basic_string@DU?$char_traits@D@std@@V?$allocator@D@2@@std@@PAVCAccount@@@std@@@?$allocator@PAU_Node@?$_Tree_nod@V?$_Tmap_traits@V?$basic_string@DU?$char_traits@D@std@@V?$allocator@D@2@@std@@PAVCAccount@@U?$less@V?$basic_string@DU?$char_traits@D@std@@V?$allocator@D@2@@std@@@2@V?$allocator@U?$pair@$$CBV?$basic_string@DU?$char_traits@D@std@@V?$allocator@D@2@@std@@PAVCAccount@@@std@@@2@$0A@@std@@@std@@@std@@QAE@ABV?$allocator@U?$pair@$$CBV?$basic_string@DU?$char_traits@D@std@@V?$allocator@D@2@@std@@PAVCAccount@@@std@@@1@@Z 00401fa0 f i account.obj
 0001:00000fb0       ??$_Destroy@PAU_Node@?$_Tree_nod@V?$_Tmap_traits@V?$basic_string@DU?$char_traits@D@std@@V?$allocator@D@2@@std@@PAVCAccount@@U?$less@V?$basic_string@DU?$char_traits@D@std@@V?$allocator@D@2@@std@@@2@V?$allocator@U?$pair@$$CBV?$basic_string@DU?$char_traits@D@std@@V?$allocator@D@2@@std@@PAVCAccount@@@std@@@2@$0A@@std@@@std@@@std@@YAXPAPAU_Node@?$_Tree_nod@V?$_Tmap_traits@V?$basic_string@DU?$char_traits@D@std@@V?$allocator@D@2@@std@@PAVCAccount@@U?$less@V?$basic_string@DU?$char_traits@D@std@@V?$allocator@D@2@@std@@@2@V?$allocator@U?$pair@$$CBV?$basic_string@DU?$char_traits@D@std@@V?$allocator@D@2@@std@@PAVCAccount@@@std@@@2@$0A@@std@@@0@@Z 00401fb0 f i account.obj
 0001:00000fc0       ??$_Destroy@U_Node@?$_Tree_nod@V?$_Tmap_traits@KHU?$less@K@std@@V?$allocator@U?$pair@$$CBKH@std@@@2@$0A@@std@@@std@@@std@@YAXPAU_Node@?$_Tree_nod@V?$_Tmap_traits@KHU?$less@K@std@@V?$allocator@U?$pair@$$CBKH@std@@@2@$0A@@std@@@0@@Z 00401fc0 f i account.obj
 0001:00000fd0       ??$_Destroy@PAU_Node@?$_Tree_nod@V?$_Tmap_traits@KHU?$less@K@std@@V?$allocator@U?$pair@$$CBKH@std@@@2@$0A@@std@@@std@@@std@@YAXPAPAU_Node@?$_Tree_nod@V?$_Tmap_traits@KHU?$less@K@std@@V?$allocator@U?$pair@$$CBKH@std@@@2@$0A@@std@@@0@@Z 00401fd0 f i account.obj
 0001:00000fe0       ??$_Destroy@PAU_Node@?$_Tree_nod@V?$_Tmap_traits@KPAVCAccount@@U?$less@K@std@@V?$allocator@U?$pair@$$CBKPAVCAccount@@@std@@@3@$0A@@std@@@std@@@std@@YAXPAPAU_Node@?$_Tree_nod@V?$_Tmap_traits@KPAVCAccount@@U?$less@K@std@@V?$allocator@U?$pair@$$CBKPAVCAccount@@@std@@@3@$0A@@std@@@0@@Z 00401fe0 f i account.obj
 0001:00000ff0       ??$_Destroy@PAU_Node@?$_Tree_nod@V?$_Tmap_traits@KKU?$less@K@std@@V?$allocator@U?$pair@$$CBKK@std@@@2@$0A@@std@@@std@@@std@@YAXPAPAU_Node@?$_Tree_nod@V?$_Tmap_traits@KKU?$less@K@std@@V?$allocator@U?$pair@$$CBKK@std@@@2@$0A@@std@@@0@@Z 00401ff0 f i account.obj
 0001:00001000       ??$?0PAX@?$allocator@PAU_Node@?$_List_nod@PAXV?$allocator@PAX@std@@@std@@@std@@QAE@ABV?$allocator@PAX@1@@Z 00402000 f i account.obj
 0001:00001010       ??$_Allocate@U_Node@?$_List_nod@PAXV?$allocator@PAX@std@@@std@@@std@@YAPAU_Node@?$_List_nod@PAXV?$allocator@PAX@std@@@0@IPAU120@@Z 00402010 f i account.obj
 0001:00001030       ??$_Construct@PAU_Node@?$_List_nod@PAXV?$allocator@PAX@std@@@std@@PAU123@@std@@YAXPAPAU_Node@?$_List_nod@PAXV?$allocator@PAX@std@@@0@ABQAU120@@Z 00402030 f i account.obj
 0001:00001050       ??$_Destroy@PAU_Node@?$_List_nod@PAXV?$allocator@PAX@std@@@std@@@std@@YAXPAPAU_Node@?$_List_nod@PAXV?$allocator@PAX@std@@@0@@Z 00402050 f i account.obj
 0001:00001060       ??$?0U?$pair@$$CBV?$basic_string@DU?$char_traits@D@std@@V?$allocator@D@2@@std@@PAVCAccount@@@std@@@?$allocator@U_Node@?$_Tree_nod@V?$_Tmap_traits@V?$basic_string@DU?$char_traits@D@std@@V?$allocator@D@2@@std@@PAVCAccount@@U?$less@V?$basic_string@DU?$char_traits@D@std@@V?$allocator@D@2@@std@@@2@V?$allocator@U?$pair@$$CBV?$basic_string@DU?$char_traits@D@std@@V?$allocator@D@2@@std@@PAVCAccount@@@std@@@2@$0A@@std@@@std@@@std@@QAE@ABV?$allocator@U?$pair@$$CBV?$basic_string@DU?$char_traits@D@std@@V?$allocator@D@2@@std@@PAVCAccount@@@std@@@1@@Z 00402060 f i account.obj
 0001:00001070       ??$_Allocate@U_Node@?$_Tree_nod@V?$_Tmap_traits@V?$basic_string@DU?$char_traits@D@std@@V?$allocator@D@2@@std@@PAVCAccount@@U?$less@V?$basic_string@DU?$char_traits@D@std@@V?$allocator@D@2@@std@@@2@V?$allocator@U?$pair@$$CBV?$basic_string@DU?$char_traits@D@std@@V?$allocator@D@2@@std@@PAVCAccount@@@std@@@2@$0A@@std@@@std@@@std@@YAPAU_Node@?$_Tree_nod@V?$_Tmap_traits@V?$basic_string@DU?$char_traits@D@std@@V?$allocator@D@2@@std@@PAVCAccount@@U?$less@V?$basic_string@DU?$char_traits@D@std@@V?$allocator@D@2@@std@@@2@V?$allocator@U?$pair@$$CBV?$basic_string@DU?$char_traits@D@std@@V?$allocator@D@2@@std@@PAVCAccount@@@std@@@2@$0A@@std@@@0@IPAU120@@Z 00402070 f i account.obj
 0001:00001090       ??$_Construct@PAU_Node@?$_Tree_nod@V?$_Tmap_traits@V?$basic_string@DU?$char_traits@D@std@@V?$allocator@D@2@@std@@PAVCAccount@@U?$less@V?$basic_string@DU?$char_traits@D@std@@V?$allocator@D@2@@std@@@2@V?$allocator@U?$pair@$$CBV?$basic_string@DU?$char_traits@D@std@@V?$allocator@D@2@@std@@PAVCAccount@@@std@@@2@$0A@@std@@@std@@PAU123@@std@@YAXPAPAU_Node@?$_Tree_nod@V?$_Tmap_traits@V?$basic_string@DU?$char_traits@D@std@@V?$allocator@D@2@@std@@PAVCAccount@@U?$less@V?$basic_string@DU?$char_traits@D@std@@V?$allocator@D@2@@std@@@2@V?$allocator@U?$pair@$$CBV?$basic_string@DU?$char_traits@D@std@@V?$allocator@D@2@@std@@PAVCAccount@@@std@@@2@$0A@@std@@@0@ABQAU120@@Z 00402090 f i account.obj
 0001:000010b0       ??$?0U?$pair@$$CBKH@std@@@?$allocator@PAU_Node@?$_Tree_nod@V?$_Tmap_traits@KHU?$less@K@std@@V?$allocator@U?$pair@$$CBKH@std@@@2@$0A@@std@@@std@@@std@@QAE@ABV?$allocator@U?$pair@$$CBKH@std@@@1@@Z 004020b0 f i account.obj
 0001:000010c0       ??$_Allocate@U_Node@?$_Tree_nod@V?$_Tmap_traits@KHU?$less@K@std@@V?$allocator@U?$pair@$$CBKH@std@@@2@$0A@@std@@@std@@@std@@YAPAU_Node@?$_Tree_nod@V?$_Tmap_traits@KHU?$less@K@std@@V?$allocator@U?$pair@$$CBKH@std@@@2@$0A@@std@@@0@IPAU120@@Z 004020c0 f i account.obj
 0001:000010e0       ??$?0U?$pair@$$CBKPAVCAccount@@@std@@@?$allocator@PAU_Node@?$_Tree_nod@V?$_Tmap_traits@KPAVCAccount@@U?$less@K@std@@V?$allocator@U?$pair@$$CBKPAVCAccount@@@std@@@3@$0A@@std@@@std@@@std@@QAE@ABV?$allocator@U?$pair@$$CBKPAVCAccount@@@std@@@1@@Z 004020e0 f i account.obj
 0001:000010f0       ??$_Allocate@U_Node@?$_Tree_nod@V?$_Tmap_traits@KPAVCAccount@@U?$less@K@std@@V?$allocator@U?$pair@$$CBKPAVCAccount@@@std@@@3@$0A@@std@@@std@@@std@@YAPAU_Node@?$_Tree_nod@V?$_Tmap_traits@KPAVCAccount@@U?$less@K@std@@V?$allocator@U?$pair@$$CBKPAVCAccount@@@std@@@3@$0A@@std@@@0@IPAU120@@Z 004020f0 f i account.obj
 0001:00001110       ??$?0U?$pair@$$CBKK@std@@@?$allocator@PAU_Node@?$_Tree_nod@V?$_Tmap_traits@KKU?$less@K@std@@V?$allocator@U?$pair@$$CBKK@std@@@2@$0A@@std@@@std@@@std@@QAE@ABV?$allocator@U?$pair@$$CBKK@std@@@1@@Z 00402110 f i account.obj
 0001:00001120       ??$_Allocate@U_Node@?$_Tree_nod@V?$_Tmap_traits@KKU?$less@K@std@@V?$allocator@U?$pair@$$CBKK@std@@@2@$0A@@std@@@std@@@std@@YAPAU_Node@?$_Tree_nod@V?$_Tmap_traits@KKU?$less@K@std@@V?$allocator@U?$pair@$$CBKK@std@@@2@$0A@@std@@@0@IPAU120@@Z 00402120 f i account.obj
 0001:00001140       ??$?0PAX@?$allocator@U_Node@?$_List_nod@PAXV?$allocator@PAX@std@@@std@@@std@@QAE@ABV?$allocator@PAX@1@@Z 00402140 f i account.obj
 0001:00001150       ??$_Destroy@U_Node@?$_List_nod@PAXV?$allocator@PAX@std@@@std@@@std@@YAXPAU_Node@?$_List_nod@PAXV?$allocator@PAX@std@@@0@@Z 00402150 f i account.obj
 0001:00001160       ??$?0U?$pair@$$CBKH@std@@@?$allocator@U_Node@?$_Tree_nod@V?$_Tmap_traits@KHU?$less@K@std@@V?$allocator@U?$pair@$$CBKH@std@@@2@$0A@@std@@@std@@@std@@QAE@ABV?$allocator@U?$pair@$$CBKH@std@@@1@@Z 00402160 f i account.obj
 0001:00001170       ??$_Construct@PAU_Node@?$_Tree_nod@V?$_Tmap_traits@KHU?$less@K@std@@V?$allocator@U?$pair@$$CBKH@std@@@2@$0A@@std@@@std@@PAU123@@std@@YAXPAPAU_Node@?$_Tree_nod@V?$_Tmap_traits@KHU?$less@K@std@@V?$allocator@U?$pair@$$CBKH@std@@@2@$0A@@std@@@0@ABQAU120@@Z 00402170 f i account.obj
 0001:00001190       ??$?0U?$pair@$$CBKPAVCAccount@@@std@@@?$allocator@U_Node@?$_Tree_nod@V?$_Tmap_traits@KPAVCAccount@@U?$less@K@std@@V?$allocator@U?$pair@$$CBKPAVCAccount@@@std@@@3@$0A@@std@@@std@@@std@@QAE@ABV?$allocator@U?$pair@$$CBKPAVCAccount@@@std@@@1@@Z 00402190 f i account.obj
 0001:000011a0       ??$_Construct@PAU_Node@?$_Tree_nod@V?$_Tmap_traits@KPAVCAccount@@U?$less@K@std@@V?$allocator@U?$pair@$$CBKPAVCAccount@@@std@@@3@$0A@@std@@@std@@PAU123@@std@@YAXPAPAU_Node@?$_Tree_nod@V?$_Tmap_traits@KPAVCAccount@@U?$less@K@std@@V?$allocator@U?$pair@$$CBKPAVCAccount@@@std@@@3@$0A@@std@@@0@ABQAU120@@Z 004021a0 f i account.obj
 0001:000011c0       ??$?0U?$pair@$$CBKK@std@@@?$allocator@U_Node@?$_Tree_nod@V?$_Tmap_traits@KKU?$less@K@std@@V?$allocator@U?$pair@$$CBKK@std@@@2@$0A@@std@@@std@@@std@@QAE@ABV?$allocator@U?$pair@$$CBKK@std@@@1@@Z 004021c0 f i account.obj
 0001:000011d0       ??$_Construct@PAU_Node@?$_Tree_nod@V?$_Tmap_traits@KKU?$less@K@std@@V?$allocator@U?$pair@$$CBKK@std@@@2@$0A@@std@@@std@@PAU123@@std@@YAXPAPAU_Node@?$_Tree_nod@V?$_Tmap_traits@KKU?$less@K@std@@V?$allocator@U?$pair@$$CBKK@std@@@2@$0A@@std@@@0@ABQAU120@@Z 004021d0 f i account.obj
 0001:000011f0       ??$_Iter_cat@Viterator@?$_Tree@V?$_Tmap_traits@KKU?$less@K@std@@V?$allocator@U?$pair@$$CBKK@std@@@2@$0A@@std@@@std@@@std@@YA?AUbidirectional_iterator_tag@0@ABViterator@?$_Tree@V?$_Tmap_traits@KKU?$less@K@std@@V?$allocator@U?$pair@$$CBKK@std@@@2@$0A@@std@@@0@@Z 004021f0 f i account.obj
 0001:00001200       ?assign@?$char_traits@D@std@@SAXAADABD@Z 00402200 f i account.obj
 0001:00001210       ?compare@?$char_traits@D@std@@SAHPBD0I@Z 00402210 f i account.obj
 0001:00001230       ?length@?$char_traits@D@std@@SAIPBD@Z 00402230 f i account.obj
 0001:00001250       ?copy@?$char_traits@D@std@@SAPADPADPBDI@Z 00402250 f i account.obj
 0001:00001280       ?move@?$char_traits@D@std@@SAPADPADPBDI@Z 00402280 f i account.obj
 0001:00001290       ??0CMclCritSec@@QAE@XZ     00402290 f i account.obj
 0001:000012b0       ??1CMclCritSec@@UAE@XZ     004022b0 f i account.obj
 0001:000012d0       ?Enter@CMclCritSec@@QAEXXZ 004022d0 f i account.obj
 0001:000012e0       ?Leave@CMclCritSec@@QAEXXZ 004022e0 f i account.obj
 0001:000012f0       ??_ECMclCritSec@@UAEPAXI@Z 004022f0 f i account.obj
 0001:000012f0       ??_GCMclCritSec@@UAEPAXI@Z 004022f0 f i account.obj
 0001:00001320       ??0CMclAutoLock@@QAE@AAVCMclCritSec@@@Z 00402320 f i account.obj
 0001:00001340       ??1CMclAutoLock@@QAE@XZ    00402340 f i account.obj
 0001:00001350       ?size@?$basic_string@DU?$char_traits@D@std@@V?$allocator@D@2@@std@@QBEIXZ 00402350 f i account.obj
 0001:00001360       ?_Myptr@?$basic_string@DU?$char_traits@D@std@@V?$allocator@D@2@@std@@QBEPBDXZ 00402360 f i account.obj
 0001:00001370       ??0?$allocator@D@std@@QAE@ABV01@@Z 00402370 f i account.obj
 0001:00001380       ?_Myptr@?$basic_string@DU?$char_traits@D@std@@V?$allocator@D@2@@std@@QAEPADXZ 00402380 f i account.obj
 0001:00001390       ?deallocate@?$allocator@D@std@@QAEXPADI@Z 00402390 f i account.obj
 0001:000013a0       ?_Inside@?$basic_string@DU?$char_traits@D@std@@V?$allocator@D@2@@std@@IAE_NPBD@Z 004023a0 f i account.obj
 0001:000013e0       ?max_size@?$allocator@D@std@@QBEIXZ 004023e0 f i account.obj
 0001:000013f0       ??$_Allocate@D@std@@YAPADIPAD@Z 004023f0 f i account.obj
 0001:00001400       ??3CAccount@@SAXPAX@Z      00402400 f i account.obj
 0001:00001440       ??0CAccount@@QAE@PBDKKEH@Z 00402440 f   account.obj
 0001:000014c0       ??_ECAccount@@UAEPAXI@Z    004024c0 f i account.obj
 0001:000014c0       ??_GCAccount@@UAEPAXI@Z    004024c0 f i account.obj
 0001:00001520       ?SendBillingResult@CAccount@@QAEXPAUBILLING_INFO@@@Z 00402520 f   account.obj
 0001:00001630       ?GetTickCount@CTime@ATL@@SG?AV12@XZ 00402630 f i account.obj
 0001:00001650       ??9const_iterator@?$_Tree@V?$_Tmap_traits@KKU?$less@K@std@@V?$allocator@U?$pair@$$CBKK@std@@@2@$0A@@std@@@std@@QBE_NABV012@@Z 00402650 f i account.obj
 0001:00001670       ??9const_iterator@?$_Tree@V?$_Tmap_traits@KPAUtagSERVER_DESC@@U?$less@K@std@@V?$allocator@U?$pair@$$CBKPAUtagSERVER_DESC@@@std@@@3@$0A@@std@@@std@@QBE_NABV012@@Z 00402670 f i account.obj
 0001:00001690       ?_Key@?$_Tree@V?$_Tmap_traits@V?$basic_string@DU?$char_traits@D@std@@V?$allocator@D@2@@std@@PAVCAccount@@U?$less@V?$basic_string@DU?$char_traits@D@std@@V?$allocator@D@2@@std@@@2@V?$allocator@U?$pair@$$CBV?$basic_string@DU?$char_traits@D@std@@V?$allocator@D@2@@std@@PAVCAccount@@@std@@@2@$0A@@std@@@std@@KAABV?$basic_string@DU?$char_traits@D@std@@V?$allocator@D@2@@2@PAU_Node@?$_Tree_nod@V?$_Tmap_traits@V?$basic_string@DU?$char_traits@D@std@@V?$allocator@D@2@@std@@PAVCAccount@@U?$less@V?$basic_string@DU?$char_traits@D@std@@V?$allocator@D@2@@std@@@2@V?$allocator@U?$pair@$$CBV?$basic_string@DU?$char_traits@D@std@@V?$allocator@D@2@@std@@PAVCAccount@@@std@@@2@$0A@@std@@@2@@Z 00402690 f i account.obj
 0001:000016a0       ?get_allocator@?$_Tree@V?$_Tmap_traits@V?$basic_string@DU?$char_traits@D@std@@V?$allocator@D@2@@std@@PAVCAccount@@U?$less@V?$basic_string@DU?$char_traits@D@std@@V?$allocator@D@2@@std@@@2@V?$allocator@U?$pair@$$CBV?$basic_string@DU?$char_traits@D@std@@V?$allocator@D@2@@std@@PAVCAccount@@@std@@@2@$0A@@std@@@std@@QBE?AV?$allocator@U?$pair@$$CBV?$basic_string@DU?$char_traits@D@std@@V?$allocator@D@2@@std@@PAVCAccount@@@std@@@2@XZ 004026a0 f i account.obj
 0001:000016b0       ?_Lrotate@?$_Tree@V?$_Tmap_traits@V?$basic_string@DU?$char_traits@D@std@@V?$allocator@D@2@@std@@PAVCAccount@@U?$less@V?$basic_string@DU?$char_traits@D@std@@V?$allocator@D@2@@std@@@2@V?$allocator@U?$pair@$$CBV?$basic_string@DU?$char_traits@D@std@@V?$allocator@D@2@@std@@PAVCAccount@@@std@@@2@$0A@@std@@@std@@IAEXPAU_Node@?$_Tree_nod@V?$_Tmap_traits@V?$basic_string@DU?$char_traits@D@std@@V?$allocator@D@2@@std@@PAVCAccount@@U?$less@V?$basic_string@DU?$char_traits@D@std@@V?$allocator@D@2@@std@@@2@V?$allocator@U?$pair@$$CBV?$basic_string@DU?$char_traits@D@std@@V?$allocator@D@2@@std@@PAVCAccount@@@std@@@2@$0A@@std@@@2@@Z 004026b0 f i account.obj
 0001:00001710       ?_Key@?$_Tree@V?$_Tmap_traits@KHU?$less@K@std@@V?$allocator@U?$pair@$$CBKH@std@@@2@$0A@@std@@@std@@KAABKPAU_Node@?$_Tree_nod@V?$_Tmap_traits@KHU?$less@K@std@@V?$allocator@U?$pair@$$CBKH@std@@@2@$0A@@std@@@2@@Z 00402710 f i account.obj
 0001:00001720       ?_Root@?$_Tree@V?$_Tmap_traits@KHU?$less@K@std@@V?$allocator@U?$pair@$$CBKH@std@@@2@$0A@@std@@@std@@IAEAAPAU_Node@?$_Tree_nod@V?$_Tmap_traits@KHU?$less@K@std@@V?$allocator@U?$pair@$$CBKH@std@@@2@$0A@@std@@@2@XZ 00402720 f i account.obj
 0001:00001730       ?_Key@?$_Tree@V?$_Tmap_traits@KPAVCAccount@@U?$less@K@std@@V?$allocator@U?$pair@$$CBKPAVCAccount@@@std@@@3@$0A@@std@@@std@@KAABKPAU_Node@?$_Tree_nod@V?$_Tmap_traits@KPAVCAccount@@U?$less@K@std@@V?$allocator@U?$pair@$$CBKPAVCAccount@@@std@@@3@$0A@@std@@@2@@Z 00402730 f i account.obj
 0001:00001740       ?_Lrotate@?$_Tree@V?$_Tmap_traits@KPAVCAccount@@U?$less@K@std@@V?$allocator@U?$pair@$$CBKPAVCAccount@@@std@@@3@$0A@@std@@@std@@IAEXPAU_Node@?$_Tree_nod@V?$_Tmap_traits@KPAVCAccount@@U?$less@K@std@@V?$allocator@U?$pair@$$CBKPAVCAccount@@@std@@@3@$0A@@std@@@2@@Z 00402740 f i account.obj
 0001:000017a0       ?destroy@?$allocator@U_Node@?$_Tree_nod@V?$_Tmap_traits@KPAVCAccount@@U?$less@K@std@@V?$allocator@U?$pair@$$CBKPAVCAccount@@@std@@@3@$0A@@std@@@std@@@std@@QAEXPAU_Node@?$_Tree_nod@V?$_Tmap_traits@KPAVCAccount@@U?$less@K@std@@V?$allocator@U?$pair@$$CBKPAVCAccount@@@std@@@3@$0A@@std@@@2@@Z 004027a0 f i account.obj
 0001:000017b0       ?_Key@?$_Tree@V?$_Tmap_traits@KKU?$less@K@std@@V?$allocator@U?$pair@$$CBKK@std@@@2@$0A@@std@@@std@@KAABKPAU_Node@?$_Tree_nod@V?$_Tmap_traits@KKU?$less@K@std@@V?$allocator@U?$pair@$$CBKK@std@@@2@$0A@@std@@@2@@Z 004027b0 f i account.obj
 0001:000017c0       ?_Lrotate@?$_Tree@V?$_Tmap_traits@KKU?$less@K@std@@V?$allocator@U?$pair@$$CBKK@std@@@2@$0A@@std@@@std@@IAEXPAU_Node@?$_Tree_nod@V?$_Tmap_traits@KKU?$less@K@std@@V?$allocator@U?$pair@$$CBKK@std@@@2@$0A@@std@@@2@@Z 004027c0 f i account.obj
 0001:00001820       ?destroy@?$allocator@U_Node@?$_Tree_nod@V?$_Tmap_traits@KKU?$less@K@std@@V?$allocator@U?$pair@$$CBKK@std@@@2@$0A@@std@@@std@@@std@@QAEXPAU_Node@?$_Tree_nod@V?$_Tmap_traits@KKU?$less@K@std@@V?$allocator@U?$pair@$$CBKK@std@@@2@$0A@@std@@@2@@Z 00402820 f i account.obj
 0001:00001830       ??0iterator@?$_Tree@V?$_Tmap_traits@KKU?$less@K@std@@V?$allocator@U?$pair@$$CBKK@std@@@2@$0A@@std@@@std@@QAE@PAU_Node@?$_Tree_nod@V?$_Tmap_traits@KKU?$less@K@std@@V?$allocator@U?$pair@$$CBKK@std@@@2@$0A@@std@@@2@@Z 00402830 f i account.obj
 0001:00001840       ??Diterator@?$_Tree@V?$_Tmap_traits@KKU?$less@K@std@@V?$allocator@U?$pair@$$CBKK@std@@@2@$0A@@std@@@std@@QBEAAU?$pair@$$CBKK@2@XZ 00402840 f i account.obj
 0001:00001850       ?_Key@?$_Tree@V?$_Tmap_traits@KPAUtagSERVER_DESC@@U?$less@K@std@@V?$allocator@U?$pair@$$CBKPAUtagSERVER_DESC@@@std@@@3@$0A@@std@@@std@@KAABKPAU_Node@?$_Tree_nod@V?$_Tmap_traits@KPAUtagSERVER_DESC@@U?$less@K@std@@V?$allocator@U?$pair@$$CBKPAUtagSERVER_DESC@@@std@@@3@$0A@@std@@@2@@Z 00402850 f i account.obj
 0001:00001860       ??0iterator@?$_Tree@V?$_Tmap_traits@V?$basic_string@DU?$char_traits@D@std@@V?$allocator@D@2@@std@@PAVCAccount@@U?$less@V?$basic_string@DU?$char_traits@D@std@@V?$allocator@D@2@@std@@@2@V?$allocator@U?$pair@$$CBV?$basic_string@DU?$char_traits@D@std@@V?$allocator@D@2@@std@@PAVCAccount@@@std@@@2@$0A@@std@@@std@@QAE@PAU_Node@?$_Tree_nod@V?$_Tmap_traits@V?$basic_string@DU?$char_traits@D@std@@V?$allocator@D@2@@std@@PAVCAccount@@U?$less@V?$basic_string@DU?$char_traits@D@std@@V?$allocator@D@2@@std@@@2@V?$allocator@U?$pair@$$CBV?$basic_string@DU?$char_traits@D@std@@V?$allocator@D@2@@std@@PAVCAccount@@@std@@@2@$0A@@std@@@2@@Z 00402860 f i account.obj
 0001:00001870       ??Diterator@?$_Tree@V?$_Tmap_traits@V?$basic_string@DU?$char_traits@D@std@@V?$allocator@D@2@@std@@PAVCAccount@@U?$less@V?$basic_string@DU?$char_traits@D@std@@V?$allocator@D@2@@std@@@2@V?$allocator@U?$pair@$$CBV?$basic_string@DU?$char_traits@D@std@@V?$allocator@D@2@@std@@PAVCAccount@@@std@@@2@$0A@@std@@@std@@QBEAAU?$pair@$$CBV?$basic_string@DU?$char_traits@D@std@@V?$allocator@D@2@@std@@PAVCAccount@@@2@XZ 00402870 f i account.obj
 0001:00001880       ??Econst_iterator@?$_Tree@V?$_Tmap_traits@V?$basic_string@DU?$char_traits@D@std@@V?$allocator@D@2@@std@@PAVCAccount@@U?$less@V?$basic_string@DU?$char_traits@D@std@@V?$allocator@D@2@@std@@@2@V?$allocator@U?$pair@$$CBV?$basic_string@DU?$char_traits@D@std@@V?$allocator@D@2@@std@@PAVCAccount@@@std@@@2@$0A@@std@@@std@@QAEAAV012@XZ 00402880 f i account.obj
 0001:00001890       ??0iterator@?$_Tree@V?$_Tmap_traits@KHU?$less@K@std@@V?$allocator@U?$pair@$$CBKH@std@@@2@$0A@@std@@@std@@QAE@PAU_Node@?$_Tree_nod@V?$_Tmap_traits@KHU?$less@K@std@@V?$allocator@U?$pair@$$CBKH@std@@@2@$0A@@std@@@2@@Z 00402890 f i account.obj
 0001:000018a0       ??Diterator@?$_Tree@V?$_Tmap_traits@KHU?$less@K@std@@V?$allocator@U?$pair@$$CBKH@std@@@2@$0A@@std@@@std@@QBEAAU?$pair@$$CBKH@2@XZ 004028a0 f i account.obj
 0001:000018b0       ??0iterator@?$_Tree@V?$_Tmap_traits@KPAVCAccount@@U?$less@K@std@@V?$allocator@U?$pair@$$CBKPAVCAccount@@@std@@@3@$0A@@std@@@std@@QAE@PAU_Node@?$_Tree_nod@V?$_Tmap_traits@KPAVCAccount@@U?$less@K@std@@V?$allocator@U?$pair@$$CBKPAVCAccount@@@std@@@3@$0A@@std@@@2@@Z 004028b0 f i account.obj
 0001:000018c0       ??Diterator@?$_Tree@V?$_Tmap_traits@KPAVCAccount@@U?$less@K@std@@V?$allocator@U?$pair@$$CBKPAVCAccount@@@std@@@3@$0A@@std@@@std@@QBEAAU?$pair@$$CBKPAVCAccount@@@2@XZ 004028c0 f i account.obj
 0001:000018d0       ??Econst_iterator@?$_Tree@V?$_Tmap_traits@KPAVCAccount@@U?$less@K@std@@V?$allocator@U?$pair@$$CBKPAVCAccount@@@std@@@3@$0A@@std@@@std@@QAEAAV012@XZ 004028d0 f i account.obj
 0001:000018e0       ??0iterator@?$_Tree@V?$_Tmap_traits@KPAUtagSERVER_DESC@@U?$less@K@std@@V?$allocator@U?$pair@$$CBKPAUtagSERVER_DESC@@@std@@@3@$0A@@std@@@std@@QAE@PAU_Node@?$_Tree_nod@V?$_Tmap_traits@KPAUtagSERVER_DESC@@U?$less@K@std@@V?$allocator@U?$pair@$$CBKPAUtagSERVER_DESC@@@std@@@3@$0A@@std@@@2@@Z 004028e0 f i account.obj
 0001:000018f0       ??Diterator@?$_Tree@V?$_Tmap_traits@KPAUtagSERVER_DESC@@U?$less@K@std@@V?$allocator@U?$pair@$$CBKPAUtagSERVER_DESC@@@std@@@3@$0A@@std@@@std@@QBEAAU?$pair@$$CBKPAUtagSERVER_DESC@@@2@XZ 004028f0 f i account.obj
 0001:00001900       ?max_size@?$_Tree@V?$_Tmap_traits@V?$basic_string@DU?$char_traits@D@std@@V?$allocator@D@2@@std@@PAVCAccount@@U?$less@V?$basic_string@DU?$char_traits@D@std@@V?$allocator@D@2@@std@@@2@V?$allocator@U?$pair@$$CBV?$basic_string@DU?$char_traits@D@std@@V?$allocator@D@2@@std@@PAVCAccount@@@std@@@2@$0A@@std@@@std@@QBEIXZ 00402900 f i account.obj
 0001:00001910       ?destroy@?$allocator@PAU_Node@?$_Tree_nod@V?$_Tmap_traits@V?$basic_string@DU?$char_traits@D@std@@V?$allocator@D@2@@std@@PAVCAccount@@U?$less@V?$basic_string@DU?$char_traits@D@std@@V?$allocator@D@2@@std@@@2@V?$allocator@U?$pair@$$CBV?$basic_string@DU?$char_traits@D@std@@V?$allocator@D@2@@std@@PAVCAccount@@@std@@@2@$0A@@std@@@std@@@std@@QAEXPAPAU_Node@?$_Tree_nod@V?$_Tmap_traits@V?$basic_string@DU?$char_traits@D@std@@V?$allocator@D@2@@std@@PAVCAccount@@U?$less@V?$basic_string@DU?$char_traits@D@std@@V?$allocator@D@2@@std@@@2@V?$allocator@U?$pair@$$CBV?$basic_string@DU?$char_traits@D@std@@V?$allocator@D@2@@std@@PAVCAccount@@@std@@@2@$0A@@std@@@2@@Z 00402910 f i account.obj
 0001:00001920       ?max_size@?$_Tree@V?$_Tmap_traits@KHU?$less@K@std@@V?$allocator@U?$pair@$$CBKH@std@@@2@$0A@@std@@@std@@QBEIXZ 00402920 f i account.obj
 0001:00001930       ?_Lbound@?$_Tree@V?$_Tmap_traits@KHU?$less@K@std@@V?$allocator@U?$pair@$$CBKH@std@@@2@$0A@@std@@@std@@IBEPAU_Node@?$_Tree_nod@V?$_Tmap_traits@KHU?$less@K@std@@V?$allocator@U?$pair@$$CBKH@std@@@2@$0A@@std@@@2@ABK@Z 00402930 f i account.obj
 0001:00001960       ?_Lrotate@?$_Tree@V?$_Tmap_traits@KHU?$less@K@std@@V?$allocator@U?$pair@$$CBKH@std@@@2@$0A@@std@@@std@@IAEXPAU_Node@?$_Tree_nod@V?$_Tmap_traits@KHU?$less@K@std@@V?$allocator@U?$pair@$$CBKH@std@@@2@$0A@@std@@@2@@Z 00402960 f i account.obj
 0001:000019c0       ?_Rrotate@?$_Tree@V?$_Tmap_traits@KHU?$less@K@std@@V?$allocator@U?$pair@$$CBKH@std@@@2@$0A@@std@@@std@@IAEXPAU_Node@?$_Tree_nod@V?$_Tmap_traits@KHU?$less@K@std@@V?$allocator@U?$pair@$$CBKH@std@@@2@$0A@@std@@@2@@Z 004029c0 f i account.obj
 0001:00001a20       ?destroy@?$allocator@U_Node@?$_Tree_nod@V?$_Tmap_traits@KHU?$less@K@std@@V?$allocator@U?$pair@$$CBKH@std@@@2@$0A@@std@@@std@@@std@@QAEXPAU_Node@?$_Tree_nod@V?$_Tmap_traits@KHU?$less@K@std@@V?$allocator@U?$pair@$$CBKH@std@@@2@$0A@@std@@@2@@Z 00402a20 f i account.obj
 0001:00001a30       ?destroy@?$allocator@PAU_Node@?$_Tree_nod@V?$_Tmap_traits@KHU?$less@K@std@@V?$allocator@U?$pair@$$CBKH@std@@@2@$0A@@std@@@std@@@std@@QAEXPAPAU_Node@?$_Tree_nod@V?$_Tmap_traits@KHU?$less@K@std@@V?$allocator@U?$pair@$$CBKH@std@@@2@$0A@@std@@@2@@Z 00402a30 f i account.obj
 0001:00001a40       ?max_size@?$_Tree@V?$_Tmap_traits@KPAVCAccount@@U?$less@K@std@@V?$allocator@U?$pair@$$CBKPAVCAccount@@@std@@@3@$0A@@std@@@std@@QBEIXZ 00402a40 f i account.obj
 0001:00001a50       ?_Lbound@?$_Tree@V?$_Tmap_traits@KPAVCAccount@@U?$less@K@std@@V?$allocator@U?$pair@$$CBKPAVCAccount@@@std@@@3@$0A@@std@@@std@@IBEPAU_Node@?$_Tree_nod@V?$_Tmap_traits@KPAVCAccount@@U?$less@K@std@@V?$allocator@U?$pair@$$CBKPAVCAccount@@@std@@@3@$0A@@std@@@2@ABK@Z 00402a50 f i account.obj
 0001:00001a80       ?destroy@?$allocator@PAU_Node@?$_Tree_nod@V?$_Tmap_traits@KPAVCAccount@@U?$less@K@std@@V?$allocator@U?$pair@$$CBKPAVCAccount@@@std@@@3@$0A@@std@@@std@@@std@@QAEXPAPAU_Node@?$_Tree_nod@V?$_Tmap_traits@KPAVCAccount@@U?$less@K@std@@V?$allocator@U?$pair@$$CBKPAVCAccount@@@std@@@3@$0A@@std@@@2@@Z 00402a80 f i account.obj
 0001:00001a90       ?max_size@?$_Tree@V?$_Tmap_traits@KKU?$less@K@std@@V?$allocator@U?$pair@$$CBKK@std@@@2@$0A@@std@@@std@@QBEIXZ 00402a90 f i account.obj
 0001:00001aa0       ?_Lbound@?$_Tree@V?$_Tmap_traits@KKU?$less@K@std@@V?$allocator@U?$pair@$$CBKK@std@@@2@$0A@@std@@@std@@IBEPAU_Node@?$_Tree_nod@V?$_Tmap_traits@KKU?$less@K@std@@V?$allocator@U?$pair@$$CBKK@std@@@2@$0A@@std@@@2@ABK@Z 00402aa0 f i account.obj
 0001:00001ad0       ?destroy@?$allocator@PAU_Node@?$_Tree_nod@V?$_Tmap_traits@KKU?$less@K@std@@V?$allocator@U?$pair@$$CBKK@std@@@2@$0A@@std@@@std@@@std@@QAEXPAPAU_Node@?$_Tree_nod@V?$_Tmap_traits@KKU?$less@K@std@@V?$allocator@U?$pair@$$CBKK@std@@@2@$0A@@std@@@2@@Z 00402ad0 f i account.obj
 0001:00001ae0       ??Econst_iterator@?$_Tree@V?$_Tmap_traits@KKU?$less@K@std@@V?$allocator@U?$pair@$$CBKK@std@@@2@$0A@@std@@@std@@QAEAAV012@XZ 00402ae0 f i account.obj
 0001:00001af0       ??Fconst_iterator@?$_Tree@V?$_Tmap_traits@KKU?$less@K@std@@V?$allocator@U?$pair@$$CBKK@std@@@2@$0A@@std@@@std@@QAEAAV012@XZ 00402af0 f i account.obj
 0001:00001b00       ??Fconst_iterator@?$_Tree@V?$_Tmap_traits@V?$basic_string@DU?$char_traits@D@std@@V?$allocator@D@2@@std@@PAVCAccount@@U?$less@V?$basic_string@DU?$char_traits@D@std@@V?$allocator@D@2@@std@@@2@V?$allocator@U?$pair@$$CBV?$basic_string@DU?$char_traits@D@std@@V?$allocator@D@2@@std@@PAVCAccount@@@std@@@2@$0A@@std@@@std@@QAEAAV012@XZ 00402b00 f i account.obj
 0001:00001b10       ??Fconst_iterator@?$_Tree@V?$_Tmap_traits@KPAVCAccount@@U?$less@K@std@@V?$allocator@U?$pair@$$CBKPAVCAccount@@@std@@@3@$0A@@std@@@std@@QAEAAV012@XZ 00402b10 f i account.obj
 0001:00001b20       ?allocate@?$allocator@U_Node@?$_List_nod@PAXV?$allocator@PAX@std@@@std@@@std@@QAEPAU_Node@?$_List_nod@PAXV?$allocator@PAX@std@@@2@I@Z 00402b20 f i account.obj
 0001:00001b40       ?construct@?$allocator@PAU_Node@?$_List_nod@PAXV?$allocator@PAX@std@@@std@@@std@@QAEXPAPAU_Node@?$_List_nod@PAXV?$allocator@PAX@std@@@2@ABQAU342@@Z 00402b40 f i account.obj
 0001:00001b60       ?destroy@?$allocator@PAU_Node@?$_List_nod@PAXV?$allocator@PAX@std@@@std@@@std@@QAEXPAPAU_Node@?$_List_nod@PAXV?$allocator@PAX@std@@@2@@Z 00402b60 f i account.obj
 0001:00001b70       ??0?$_Tree_nod@V?$_Tmap_traits@V?$basic_string@DU?$char_traits@D@std@@V?$allocator@D@2@@std@@PAVCAccount@@U?$less@V?$basic_string@DU?$char_traits@D@std@@V?$allocator@D@2@@std@@@2@V?$allocator@U?$pair@$$CBV?$basic_string@DU?$char_traits@D@std@@V?$allocator@D@2@@std@@PAVCAccount@@@std@@@2@$0A@@std@@@std@@IAE@ABU?$less@V?$basic_string@DU?$char_traits@D@std@@V?$allocator@D@2@@std@@@1@V?$allocator@U?$pair@$$CBV?$basic_string@DU?$char_traits@D@std@@V?$allocator@D@2@@std@@PAVCAccount@@@std@@@1@@Z 00402b70 f i account.obj
 0001:00001b80       ?allocate@?$allocator@U_Node@?$_Tree_nod@V?$_Tmap_traits@V?$basic_string@DU?$char_traits@D@std@@V?$allocator@D@2@@std@@PAVCAccount@@U?$less@V?$basic_string@DU?$char_traits@D@std@@V?$allocator@D@2@@std@@@2@V?$allocator@U?$pair@$$CBV?$basic_string@DU?$char_traits@D@std@@V?$allocator@D@2@@std@@PAVCAccount@@@std@@@2@$0A@@std@@@std@@@std@@QAEPAU_Node@?$_Tree_nod@V?$_Tmap_traits@V?$basic_string@DU?$char_traits@D@std@@V?$allocator@D@2@@std@@PAVCAccount@@U?$less@V?$basic_string@DU?$char_traits@D@std@@V?$allocator@D@2@@std@@@2@V?$allocator@U?$pair@$$CBV?$basic_string@DU?$char_traits@D@std@@V?$allocator@D@2@@std@@PAVCAccount@@@std@@@2@$0A@@std@@@2@I@Z 00402b80 f i account.obj
 0001:00001ba0       ?construct@?$allocator@PAU_Node@?$_Tree_nod@V?$_Tmap_traits@V?$basic_string@DU?$char_traits@D@std@@V?$allocator@D@2@@std@@PAVCAccount@@U?$less@V?$basic_string@DU?$char_traits@D@std@@V?$allocator@D@2@@std@@@2@V?$allocator@U?$pair@$$CBV?$basic_string@DU?$char_traits@D@std@@V?$allocator@D@2@@std@@PAVCAccount@@@std@@@2@$0A@@std@@@std@@@std@@QAEXPAPAU_Node@?$_Tree_nod@V?$_Tmap_traits@V?$basic_string@DU?$char_traits@D@std@@V?$allocator@D@2@@std@@PAVCAccount@@U?$less@V?$basic_string@DU?$char_traits@D@std@@V?$allocator@D@2@@std@@@2@V?$allocator@U?$pair@$$CBV?$basic_string@DU?$char_traits@D@std@@V?$allocator@D@2@@std@@PAVCAccount@@@std@@@2@$0A@@std@@@2@ABQAU342@@Z 00402ba0 f i account.obj
 0001:00001bc0       ?allocate@?$allocator@U_Node@?$_Tree_nod@V?$_Tmap_traits@KHU?$less@K@std@@V?$allocator@U?$pair@$$CBKH@std@@@2@$0A@@std@@@std@@@std@@QAEPAU_Node@?$_Tree_nod@V?$_Tmap_traits@KHU?$less@K@std@@V?$allocator@U?$pair@$$CBKH@std@@@2@$0A@@std@@@2@I@Z 00402bc0 f i account.obj
 0001:00001be0       ?allocate@?$allocator@U_Node@?$_Tree_nod@V?$_Tmap_traits@KPAVCAccount@@U?$less@K@std@@V?$allocator@U?$pair@$$CBKPAVCAccount@@@std@@@3@$0A@@std@@@std@@@std@@QAEPAU_Node@?$_Tree_nod@V?$_Tmap_traits@KPAVCAccount@@U?$less@K@std@@V?$allocator@U?$pair@$$CBKPAVCAccount@@@std@@@3@$0A@@std@@@2@I@Z 00402be0 f i account.obj
 0001:00001c00       ?_Erase@?$_Tree@V?$_Tmap_traits@KKU?$less@K@std@@V?$allocator@U?$pair@$$CBKK@std@@@2@$0A@@std@@@std@@IAEXPAU_Node@?$_Tree_nod@V?$_Tmap_traits@KKU?$less@K@std@@V?$allocator@U?$pair@$$CBKK@std@@@2@$0A@@std@@@2@@Z 00402c00 f i account.obj
 0001:00001c40       ?_Ubound@?$_Tree@V?$_Tmap_traits@KKU?$less@K@std@@V?$allocator@U?$pair@$$CBKK@std@@@2@$0A@@std@@@std@@IBEPAU_Node@?$_Tree_nod@V?$_Tmap_traits@KKU?$less@K@std@@V?$allocator@U?$pair@$$CBKK@std@@@2@$0A@@std@@@2@ABK@Z 00402c40 f i account.obj
 0001:00001c70       ?allocate@?$allocator@U_Node@?$_Tree_nod@V?$_Tmap_traits@KKU?$less@K@std@@V?$allocator@U?$pair@$$CBKK@std@@@2@$0A@@std@@@std@@@std@@QAEPAU_Node@?$_Tree_nod@V?$_Tmap_traits@KKU?$less@K@std@@V?$allocator@U?$pair@$$CBKK@std@@@2@$0A@@std@@@2@I@Z 00402c70 f i account.obj
 0001:00001c90       ?_Root@?$_Tree@V?$_Tmap_traits@KPAUtagSERVER_DESC@@U?$less@K@std@@V?$allocator@U?$pair@$$CBKPAUtagSERVER_DESC@@@std@@@3@$0A@@std@@@std@@IBEAAPAU_Node@?$_Tree_nod@V?$_Tmap_traits@KPAUtagSERVER_DESC@@U?$less@K@std@@V?$allocator@U?$pair@$$CBKPAUtagSERVER_DESC@@@std@@@3@$0A@@std@@@2@XZ 00402c90 f i account.obj
 0001:00001ca0       ?_Dec@const_iterator@?$_Tree@V?$_Tmap_traits@KHU?$less@K@std@@V?$allocator@U?$pair@$$CBKH@std@@@2@$0A@@std@@@std@@QAEXXZ 00402ca0 f i account.obj
 0001:00001d00       ?_Buynode@?$list@PAXV?$allocator@PAX@std@@@std@@IAEPAU_Node@?$_List_nod@PAXV?$allocator@PAX@std@@@2@PAU342@0ABQAX@Z 00402d00 f i account.obj
 0001:00001d30       ??0?$_List_nod@PAXV?$allocator@PAX@std@@@std@@IAE@V?$allocator@PAX@1@@Z 00402d30 f i account.obj
 0001:00001d40       ?destroy@?$allocator@U_Node@?$_List_nod@PAXV?$allocator@PAX@std@@@std@@@std@@QAEXPAU_Node@?$_List_nod@PAXV?$allocator@PAX@std@@@2@@Z 00402d40 f i account.obj
 0001:00001d50       ??0?$_Tree_nod@V?$_Tmap_traits@KHU?$less@K@std@@V?$allocator@U?$pair@$$CBKH@std@@@2@$0A@@std@@@std@@IAE@ABU?$less@K@1@V?$allocator@U?$pair@$$CBKH@std@@@1@@Z 00402d50 f i account.obj
 0001:00001d60       ?construct@?$allocator@PAU_Node@?$_Tree_nod@V?$_Tmap_traits@KHU?$less@K@std@@V?$allocator@U?$pair@$$CBKH@std@@@2@$0A@@std@@@std@@@std@@QAEXPAPAU_Node@?$_Tree_nod@V?$_Tmap_traits@KHU?$less@K@std@@V?$allocator@U?$pair@$$CBKH@std@@@2@$0A@@std@@@2@ABQAU342@@Z 00402d60 f i account.obj
 0001:00001d80       ??0?$_Tree_nod@V?$_Tmap_traits@KPAVCAccount@@U?$less@K@std@@V?$allocator@U?$pair@$$CBKPAVCAccount@@@std@@@3@$0A@@std@@@std@@IAE@ABU?$less@K@1@V?$allocator@U?$pair@$$CBKPAVCAccount@@@std@@@1@@Z 00402d80 f i account.obj
 0001:00001d90       ?construct@?$allocator@PAU_Node@?$_Tree_nod@V?$_Tmap_traits@KPAVCAccount@@U?$less@K@std@@V?$allocator@U?$pair@$$CBKPAVCAccount@@@std@@@3@$0A@@std@@@std@@@std@@QAEXPAPAU_Node@?$_Tree_nod@V?$_Tmap_traits@KPAVCAccount@@U?$less@K@std@@V?$allocator@U?$pair@$$CBKPAVCAccount@@@std@@@3@$0A@@std@@@2@ABQAU342@@Z 00402d90 f i account.obj
 0001:00001db0       ??0?$_Tree_nod@V?$_Tmap_traits@KKU?$less@K@std@@V?$allocator@U?$pair@$$CBKK@std@@@2@$0A@@std@@@std@@IAE@ABU?$less@K@1@V?$allocator@U?$pair@$$CBKK@std@@@1@@Z 00402db0 f i account.obj
 0001:00001dc0       ?construct@?$allocator@PAU_Node@?$_Tree_nod@V?$_Tmap_traits@KKU?$less@K@std@@V?$allocator@U?$pair@$$CBKK@std@@@2@$0A@@std@@@std@@@std@@QAEXPAPAU_Node@?$_Tree_nod@V?$_Tmap_traits@KKU?$less@K@std@@V?$allocator@U?$pair@$$CBKK@std@@@2@$0A@@std@@@2@ABQAU342@@Z 00402dc0 f i account.obj
 0001:00001de0       ??0iterator@?$list@PAXV?$allocator@PAX@std@@@std@@QAE@PAU_Node@?$_List_nod@PAXV?$allocator@PAX@std@@@2@@Z 00402de0 f i account.obj
 0001:00001df0       ?max_size@?$list@PAXV?$allocator@PAX@std@@@std@@QBEIXZ 00402df0 f i account.obj
 0001:00001e00       ??Econst_iterator@?$_Tree@V?$_Tmap_traits@KHU?$less@K@std@@V?$allocator@U?$pair@$$CBKH@std@@@2@$0A@@std@@@std@@QAEAAV012@XZ 00402e00 f i account.obj
 0001:00001e10       ?compare@?$basic_string@DU?$char_traits@D@std@@V?$allocator@D@2@@std@@QBEHIIPBDI@Z 00402e10 f i account.obj
 0001:00001e90       ??0?$_String_val@DV?$allocator@D@std@@@std@@IAE@V?$allocator@D@1@@Z 00402e90 f i account.obj
 0001:00001ea0       ?_Eos@?$basic_string@DU?$char_traits@D@std@@V?$allocator@D@2@@std@@IAEXI@Z 00402ea0 f i account.obj
 0001:00001ec0       ?max_size@?$basic_string@DU?$char_traits@D@std@@V?$allocator@D@2@@std@@QBEIXZ 00402ec0 f i account.obj
 0001:00001ed0       ?allocate@?$allocator@D@std@@QAEPADI@Z 00402ed0 f i account.obj
 0001:00001ee0       ?IsTimeCheckAddr@CAccountMng@@QAEHXZ 00402ee0 f   account.obj
 0001:00001fc0       ?begin@?$_Tree@V?$_Tmap_traits@V?$basic_string@DU?$char_traits@D@std@@V?$allocator@D@2@@std@@PAVCAccount@@U?$less@V?$basic_string@DU?$char_traits@D@std@@V?$allocator@D@2@@std@@@2@V?$allocator@U?$pair@$$CBV?$basic_string@DU?$char_traits@D@std@@V?$allocator@D@2@@std@@PAVCAccount@@@std@@@2@$0A@@std@@@std@@QAE?AViterator@12@XZ 00402fc0 f i account.obj
 0001:00001fd0       ?end@?$_Tree@V?$_Tmap_traits@V?$basic_string@DU?$char_traits@D@std@@V?$allocator@D@2@@std@@PAVCAccount@@U?$less@V?$basic_string@DU?$char_traits@D@std@@V?$allocator@D@2@@std@@@2@V?$allocator@U?$pair@$$CBV?$basic_string@DU?$char_traits@D@std@@V?$allocator@D@2@@std@@PAVCAccount@@@std@@@2@$0A@@std@@@std@@QAE?AViterator@12@XZ 00402fd0 f i account.obj
 0001:00001fe0       ?end@?$_Tree@V?$_Tmap_traits@KHU?$less@K@std@@V?$allocator@U?$pair@$$CBKH@std@@@2@$0A@@std@@@std@@QAE?AViterator@12@XZ 00402fe0 f i account.obj
 0001:00001ff0       ?begin@?$_Tree@V?$_Tmap_traits@KPAVCAccount@@U?$less@K@std@@V?$allocator@U?$pair@$$CBKPAVCAccount@@@std@@@3@$0A@@std@@@std@@QAE?AViterator@12@XZ 00402ff0 f i account.obj
 0001:00002000       ?end@?$_Tree@V?$_Tmap_traits@KPAVCAccount@@U?$less@K@std@@V?$allocator@U?$pair@$$CBKPAVCAccount@@@std@@@3@$0A@@std@@@std@@QAE?AViterator@12@XZ 00403000 f i account.obj
 0001:00002010       ?end@?$_Tree@V?$_Tmap_traits@KKU?$less@K@std@@V?$allocator@U?$pair@$$CBKK@std@@@2@$0A@@std@@@std@@QAE?AViterator@12@XZ 00403010 f i account.obj
 0001:00002020       ??Citerator@?$_Tree@V?$_Tmap_traits@KKU?$less@K@std@@V?$allocator@U?$pair@$$CBKK@std@@@2@$0A@@std@@@std@@QBEPAU?$pair@$$CBKK@2@XZ 00403020 f i account.obj
 0001:00002030       ?end@?$_Tree@V?$_Tmap_traits@KPAUtagSERVER_DESC@@U?$less@K@std@@V?$allocator@U?$pair@$$CBKPAUtagSERVER_DESC@@@std@@@3@$0A@@std@@@std@@QAE?AViterator@12@XZ 00403030 f i account.obj
 0001:00002040       ??Citerator@?$_Tree@V?$_Tmap_traits@V?$basic_string@DU?$char_traits@D@std@@V?$allocator@D@2@@std@@PAVCAccount@@U?$less@V?$basic_string@DU?$char_traits@D@std@@V?$allocator@D@2@@std@@@2@V?$allocator@U?$pair@$$CBV?$basic_string@DU?$char_traits@D@std@@V?$allocator@D@2@@std@@PAVCAccount@@@std@@@2@$0A@@std@@@std@@QBEPAU?$pair@$$CBV?$basic_string@DU?$char_traits@D@std@@V?$allocator@D@2@@std@@PAVCAccount@@@2@XZ 00403040 f i account.obj
 0001:00002050       ??Eiterator@?$_Tree@V?$_Tmap_traits@V?$basic_string@DU?$char_traits@D@std@@V?$allocator@D@2@@std@@PAVCAccount@@U?$less@V?$basic_string@DU?$char_traits@D@std@@V?$allocator@D@2@@std@@@2@V?$allocator@U?$pair@$$CBV?$basic_string@DU?$char_traits@D@std@@V?$allocator@D@2@@std@@PAVCAccount@@@std@@@2@$0A@@std@@@std@@QAEAAV012@XZ 00403050 f i account.obj
 0001:00002060       ??Citerator@?$_Tree@V?$_Tmap_traits@KHU?$less@K@std@@V?$allocator@U?$pair@$$CBKH@std@@@2@$0A@@std@@@std@@QBEPAU?$pair@$$CBKH@2@XZ 00403060 f i account.obj
 0001:00002070       ??Citerator@?$_Tree@V?$_Tmap_traits@KPAVCAccount@@U?$less@K@std@@V?$allocator@U?$pair@$$CBKPAVCAccount@@@std@@@3@$0A@@std@@@std@@QBEPAU?$pair@$$CBKPAVCAccount@@@2@XZ 00403070 f i account.obj
 0001:00002080       ??Eiterator@?$_Tree@V?$_Tmap_traits@KPAVCAccount@@U?$less@K@std@@V?$allocator@U?$pair@$$CBKPAVCAccount@@@std@@@3@$0A@@std@@@std@@QAEAAV012@XZ 00403080 f i account.obj
 0001:00002090       ??Citerator@?$_Tree@V?$_Tmap_traits@KPAUtagSERVER_DESC@@U?$less@K@std@@V?$allocator@U?$pair@$$CBKPAUtagSERVER_DESC@@@std@@@3@$0A@@std@@@std@@QBEPAU?$pair@$$CBKPAUtagSERVER_DESC@@@2@XZ 00403090 f i account.obj
 0001:000020a0       ?begin@?$_Tree@V?$_Tmap_traits@KHU?$less@K@std@@V?$allocator@U?$pair@$$CBKH@std@@@2@$0A@@std@@@std@@QAE?AViterator@12@XZ 004030a0 f i account.obj
 0001:000020b0       ?lower_bound@?$_Tree@V?$_Tmap_traits@KHU?$less@K@std@@V?$allocator@U?$pair@$$CBKH@std@@@2@$0A@@std@@@std@@QAE?AViterator@12@ABK@Z 004030b0 f i account.obj
 0001:000020f0       ?_Erase@?$_Tree@V?$_Tmap_traits@KHU?$less@K@std@@V?$allocator@U?$pair@$$CBKH@std@@@2@$0A@@std@@@std@@IAEXPAU_Node@?$_Tree_nod@V?$_Tmap_traits@KHU?$less@K@std@@V?$allocator@U?$pair@$$CBKH@std@@@2@$0A@@std@@@2@@Z 004030f0 f i account.obj
 0001:00002130       ?lower_bound@?$_Tree@V?$_Tmap_traits@KPAVCAccount@@U?$less@K@std@@V?$allocator@U?$pair@$$CBKPAVCAccount@@@std@@@3@$0A@@std@@@std@@QAE?AViterator@12@ABK@Z 00403130 f i account.obj
 0001:00002170       ?_Erase@?$_Tree@V?$_Tmap_traits@KPAVCAccount@@U?$less@K@std@@V?$allocator@U?$pair@$$CBKPAVCAccount@@@std@@@3@$0A@@std@@@std@@IAEXPAU_Node@?$_Tree_nod@V?$_Tmap_traits@KPAVCAccount@@U?$less@K@std@@V?$allocator@U?$pair@$$CBKPAVCAccount@@@std@@@3@$0A@@std@@@2@@Z 00403170 f i account.obj
 0001:000021b0       ?begin@?$_Tree@V?$_Tmap_traits@KKU?$less@K@std@@V?$allocator@U?$pair@$$CBKK@std@@@2@$0A@@std@@@std@@QAE?AViterator@12@XZ 004031b0 f i account.obj
 0001:000021c0       ?lower_bound@?$_Tree@V?$_Tmap_traits@KKU?$less@K@std@@V?$allocator@U?$pair@$$CBKK@std@@@2@$0A@@std@@@std@@QAE?AViterator@12@ABK@Z 004031c0 f i account.obj
 0001:00002200       ??Eiterator@?$_Tree@V?$_Tmap_traits@KKU?$less@K@std@@V?$allocator@U?$pair@$$CBKK@std@@@2@$0A@@std@@@std@@QAEAAV012@XZ 00403200 f i account.obj
 0001:00002210       ??Fiterator@?$_Tree@V?$_Tmap_traits@KKU?$less@K@std@@V?$allocator@U?$pair@$$CBKK@std@@@2@$0A@@std@@@std@@QAEAAV012@XZ 00403210 f i account.obj
 0001:00002220       ??Fiterator@?$_Tree@V?$_Tmap_traits@V?$basic_string@DU?$char_traits@D@std@@V?$allocator@D@2@@std@@PAVCAccount@@U?$less@V?$basic_string@DU?$char_traits@D@std@@V?$allocator@D@2@@std@@@2@V?$allocator@U?$pair@$$CBV?$basic_string@DU?$char_traits@D@std@@V?$allocator@D@2@@std@@PAVCAccount@@@std@@@2@$0A@@std@@@std@@QAEAAV012@XZ 00403220 f i account.obj
 0001:00002230       ??Fiterator@?$_Tree@V?$_Tmap_traits@KPAVCAccount@@U?$less@K@std@@V?$allocator@U?$pair@$$CBKPAVCAccount@@@std@@@3@$0A@@std@@@std@@QAEAAV012@XZ 00403230 f i account.obj
 0001:00002240       ?_Buynode@?$list@PAXV?$allocator@PAX@std@@@std@@IAEPAU_Node@?$_List_nod@PAXV?$allocator@PAX@std@@@2@XZ 00403240 f i account.obj
 0001:00002260       ?_Buynode@?$_Tree@V?$_Tmap_traits@V?$basic_string@DU?$char_traits@D@std@@V?$allocator@D@2@@std@@PAVCAccount@@U?$less@V?$basic_string@DU?$char_traits@D@std@@V?$allocator@D@2@@std@@@2@V?$allocator@U?$pair@$$CBV?$basic_string@DU?$char_traits@D@std@@V?$allocator@D@2@@std@@PAVCAccount@@@std@@@2@$0A@@std@@@std@@IAEPAU_Node@?$_Tree_nod@V?$_Tmap_traits@V?$basic_string@DU?$char_traits@D@std@@V?$allocator@D@2@@std@@PAVCAccount@@U?$less@V?$basic_string@DU?$char_traits@D@std@@V?$allocator@D@2@@std@@@2@V?$allocator@U?$pair@$$CBV?$basic_string@DU?$char_traits@D@std@@V?$allocator@D@2@@std@@PAVCAccount@@@std@@@2@$0A@@std@@@2@XZ 00403260 f i account.obj
 0001:000022a0       ??0?$_Tree_ptr@V?$_Tmap_traits@V?$basic_string@DU?$char_traits@D@std@@V?$allocator@D@2@@std@@PAVCAccount@@U?$less@V?$basic_string@DU?$char_traits@D@std@@V?$allocator@D@2@@std@@@2@V?$allocator@U?$pair@$$CBV?$basic_string@DU?$char_traits@D@std@@V?$allocator@D@2@@std@@PAVCAccount@@@std@@@2@$0A@@std@@@std@@IAE@ABU?$less@V?$basic_string@DU?$char_traits@D@std@@V?$allocator@D@2@@std@@@1@V?$allocator@U?$pair@$$CBV?$basic_string@DU?$char_traits@D@std@@V?$allocator@D@2@@std@@PAVCAccount@@@std@@@1@@Z 004032a0 f i account.obj
 0001:000022b0       ?_Buynode@?$_Tree@V?$_Tmap_traits@KHU?$less@K@std@@V?$allocator@U?$pair@$$CBKH@std@@@2@$0A@@std@@@std@@IAEPAU_Node@?$_Tree_nod@V?$_Tmap_traits@KHU?$less@K@std@@V?$allocator@U?$pair@$$CBKH@std@@@2@$0A@@std@@@2@PAU342@00ABU?$pair@$$CBKH@2@D@Z 004032b0 f i account.obj
 0001:000022f0       ?_Buynode@?$_Tree@V?$_Tmap_traits@KPAVCAccount@@U?$less@K@std@@V?$allocator@U?$pair@$$CBKPAVCAccount@@@std@@@3@$0A@@std@@@std@@IAEPAU_Node@?$_Tree_nod@V?$_Tmap_traits@KPAVCAccount@@U?$less@K@std@@V?$allocator@U?$pair@$$CBKPAVCAccount@@@std@@@3@$0A@@std@@@2@PAU342@00ABU?$pair@$$CBKPAVCAccount@@@2@D@Z 004032f0 f i account.obj
 0001:00002330       ?clear@?$_Tree@V?$_Tmap_traits@KKU?$less@K@std@@V?$allocator@U?$pair@$$CBKK@std@@@2@$0A@@std@@@std@@QAEXXZ 00403330 f i account.obj
 0001:00002360       ?upper_bound@?$_Tree@V?$_Tmap_traits@KKU?$less@K@std@@V?$allocator@U?$pair@$$CBKK@std@@@2@$0A@@std@@@std@@QAE?AViterator@12@ABK@Z 00403360 f i account.obj
 0001:000023a0       ?_Buynode@?$_Tree@V?$_Tmap_traits@KKU?$less@K@std@@V?$allocator@U?$pair@$$CBKK@std@@@2@$0A@@std@@@std@@IAEPAU_Node@?$_Tree_nod@V?$_Tmap_traits@KKU?$less@K@std@@V?$allocator@U?$pair@$$CBKK@std@@@2@$0A@@std@@@2@PAU342@00ABU?$pair@$$CBKK@2@D@Z 004033a0 f i account.obj
 0001:000023e0       ??Eiterator@?$_Tree@V?$_Tmap_traits@KKU?$less@K@std@@V?$allocator@U?$pair@$$CBKK@std@@@2@$0A@@std@@@std@@QAE?AV012@H@Z 004033e0 f i account.obj
 0001:00002400       ?_Lbound@?$_Tree@V?$_Tmap_traits@KPAUtagSERVER_DESC@@U?$less@K@std@@V?$allocator@U?$pair@$$CBKPAUtagSERVER_DESC@@@std@@@3@$0A@@std@@@std@@IBEPAU_Node@?$_Tree_nod@V?$_Tmap_traits@KPAUtagSERVER_DESC@@U?$less@K@std@@V?$allocator@U?$pair@$$CBKPAUtagSERVER_DESC@@@std@@@3@$0A@@std@@@2@ABK@Z 00403400 f i account.obj
 0001:00002430       ??Fconst_iterator@?$_Tree@V?$_Tmap_traits@KHU?$less@K@std@@V?$allocator@U?$pair@$$CBKH@std@@@2@$0A@@std@@@std@@QAEAAV012@XZ 00403430 f i account.obj
 0001:00002440       ?end@?$list@PAXV?$allocator@PAX@std@@@std@@QAE?AViterator@12@XZ 00403440 f i account.obj
 0001:00002450       ?clear@?$list@PAXV?$allocator@PAX@std@@@std@@QAEXXZ 00403450 f i account.obj
 0001:00002490       ??0?$_List_ptr@PAXV?$allocator@PAX@std@@@std@@IAE@V?$allocator@PAX@1@@Z 00403490 f i account.obj
 0001:000024a0       ?_Buynode@?$_Tree@V?$_Tmap_traits@KHU?$less@K@std@@V?$allocator@U?$pair@$$CBKH@std@@@2@$0A@@std@@@std@@IAEPAU_Node@?$_Tree_nod@V?$_Tmap_traits@KHU?$less@K@std@@V?$allocator@U?$pair@$$CBKH@std@@@2@$0A@@std@@@2@XZ 004034a0 f i account.obj
 0001:000024e0       ??0?$_Tree_ptr@V?$_Tmap_traits@KHU?$less@K@std@@V?$allocator@U?$pair@$$CBKH@std@@@2@$0A@@std@@@std@@IAE@ABU?$less@K@1@V?$allocator@U?$pair@$$CBKH@std@@@1@@Z 004034e0 f i account.obj
 0001:000024f0       ?_Buynode@?$_Tree@V?$_Tmap_traits@KPAVCAccount@@U?$less@K@std@@V?$allocator@U?$pair@$$CBKPAVCAccount@@@std@@@3@$0A@@std@@@std@@IAEPAU_Node@?$_Tree_nod@V?$_Tmap_traits@KPAVCAccount@@U?$less@K@std@@V?$allocator@U?$pair@$$CBKPAVCAccount@@@std@@@3@$0A@@std@@@2@XZ 004034f0 f i account.obj
 0001:00002530       ??0?$_Tree_ptr@V?$_Tmap_traits@KPAVCAccount@@U?$less@K@std@@V?$allocator@U?$pair@$$CBKPAVCAccount@@@std@@@3@$0A@@std@@@std@@IAE@ABU?$less@K@1@V?$allocator@U?$pair@$$CBKPAVCAccount@@@std@@@1@@Z 00403530 f i account.obj
 0001:00002540       ?_Buynode@?$_Tree@V?$_Tmap_traits@KKU?$less@K@std@@V?$allocator@U?$pair@$$CBKK@std@@@2@$0A@@std@@@std@@IAEPAU_Node@?$_Tree_nod@V?$_Tmap_traits@KKU?$less@K@std@@V?$allocator@U?$pair@$$CBKK@std@@@2@$0A@@std@@@2@XZ 00403540 f i account.obj
 0001:00002580       ??0?$_Tree_ptr@V?$_Tmap_traits@KKU?$less@K@std@@V?$allocator@U?$pair@$$CBKK@std@@@2@$0A@@std@@@std@@IAE@ABU?$less@K@1@V?$allocator@U?$pair@$$CBKK@std@@@1@@Z 00403580 f i account.obj
 0001:00002590       ??Eiterator@?$_Tree@V?$_Tmap_traits@V?$basic_string@DU?$char_traits@D@std@@V?$allocator@D@2@@std@@PAVCAccount@@U?$less@V?$basic_string@DU?$char_traits@D@std@@V?$allocator@D@2@@std@@@2@V?$allocator@U?$pair@$$CBV?$basic_string@DU?$char_traits@D@std@@V?$allocator@D@2@@std@@PAVCAccount@@@std@@@2@$0A@@std@@@std@@QAE?AV012@H@Z 00403590 f i account.obj
 0001:000025b0       ??Eiterator@?$_Tree@V?$_Tmap_traits@KPAVCAccount@@U?$less@K@std@@V?$allocator@U?$pair@$$CBKPAVCAccount@@@std@@@3@$0A@@std@@@std@@QAE?AV012@H@Z 004035b0 f i account.obj
 0001:000025d0       ??Eiterator@?$_Tree@V?$_Tmap_traits@KHU?$less@K@std@@V?$allocator@U?$pair@$$CBKH@std@@@2@$0A@@std@@@std@@QAEAAV012@XZ 004035d0 f i account.obj
 0001:000025e0       ?compare@?$basic_string@DU?$char_traits@D@std@@V?$allocator@D@2@@std@@QBEHABV12@@Z 004035e0 f i account.obj
 0001:00002620       ??$_Distance2@Viterator@?$_Tree@V?$_Tmap_traits@KKU?$less@K@std@@V?$allocator@U?$pair@$$CBKK@std@@@2@$0A@@std@@@std@@I@std@@YAXViterator@?$_Tree@V?$_Tmap_traits@KKU?$less@K@std@@V?$allocator@U?$pair@$$CBKK@std@@@2@$0A@@std@@@0@0AAIUbidirectional_iterator_tag@0@@Z 00403620 f i account.obj
 0001:00002650       ?_Tidy@?$basic_string@DU?$char_traits@D@std@@V?$allocator@D@2@@std@@IAEX_NI@Z 00403650 f i account.obj
 0001:000026b0       ?erase@?$basic_string@DU?$char_traits@D@std@@V?$allocator@D@2@@std@@QAEAAV12@II@Z 004036b0 f i account.obj
 0001:00002730       ?_Copy@?$basic_string@DU?$char_traits@D@std@@V?$allocator@D@2@@std@@IAEXII@Z 00403730 f i account.obj
 0001:00002870       ?PreventExcess@CAccountMng@@QAEXXZ 00403870 f   account.obj
 0001:00002960       ?KickOutCheck@CAccountMng@@QAEXXZ 00403960 f   account.obj
 0001:00002a20       ?clear@?$_Tree@V?$_Tmap_traits@KHU?$less@K@std@@V?$allocator@U?$pair@$$CBKH@std@@@2@$0A@@std@@@std@@QAEXXZ 00403a20 f i account.obj
 0001:00002a50       ?find@?$_Tree@V?$_Tmap_traits@KHU?$less@K@std@@V?$allocator@U?$pair@$$CBKH@std@@@2@$0A@@std@@@std@@QAE?AViterator@12@ABK@Z 00403a50 f i account.obj
 0001:00002ac0       ?clear@?$_Tree@V?$_Tmap_traits@KPAVCAccount@@U?$less@K@std@@V?$allocator@U?$pair@$$CBKPAVCAccount@@@std@@@3@$0A@@std@@@std@@QAEXXZ 00403ac0 f i account.obj
 0001:00002af0       ?find@?$_Tree@V?$_Tmap_traits@KPAVCAccount@@U?$less@K@std@@V?$allocator@U?$pair@$$CBKPAVCAccount@@@std@@@3@$0A@@std@@@std@@QAE?AViterator@12@ABK@Z 00403af0 f i account.obj
 0001:00002b60       ?find@?$_Tree@V?$_Tmap_traits@KKU?$less@K@std@@V?$allocator@U?$pair@$$CBKK@std@@@2@$0A@@std@@@std@@QAE?AViterator@12@ABK@Z 00403b60 f i account.obj
 0001:00002bd0       ?_Init@?$_Tree@V?$_Tmap_traits@V?$basic_string@DU?$char_traits@D@std@@V?$allocator@D@2@@std@@PAVCAccount@@U?$less@V?$basic_string@DU?$char_traits@D@std@@V?$allocator@D@2@@std@@@2@V?$allocator@U?$pair@$$CBV?$basic_string@DU?$char_traits@D@std@@V?$allocator@D@2@@std@@PAVCAccount@@@std@@@2@$0A@@std@@@std@@IAEXXZ 00403bd0 f i account.obj
 0001:00002c00       ??0?$_Tree_val@V?$_Tmap_traits@V?$basic_string@DU?$char_traits@D@std@@V?$allocator@D@2@@std@@PAVCAccount@@U?$less@V?$basic_string@DU?$char_traits@D@std@@V?$allocator@D@2@@std@@@2@V?$allocator@U?$pair@$$CBV?$basic_string@DU?$char_traits@D@std@@V?$allocator@D@2@@std@@PAVCAccount@@@std@@@2@$0A@@std@@@std@@IAE@ABU?$less@V?$basic_string@DU?$char_traits@D@std@@V?$allocator@D@2@@std@@@1@V?$allocator@U?$pair@$$CBV?$basic_string@DU?$char_traits@D@std@@V?$allocator@D@2@@std@@PAVCAccount@@@std@@@1@@Z 00403c00 f i account.obj
 0001:00002c10       ?equal_range@?$_Tree@V?$_Tmap_traits@KKU?$less@K@std@@V?$allocator@U?$pair@$$CBKK@std@@@2@$0A@@std@@@std@@QAE?AU?$pair@Viterator@?$_Tree@V?$_Tmap_traits@KKU?$less@K@std@@V?$allocator@U?$pair@$$CBKK@std@@@2@$0A@@std@@@std@@V123@@2@ABK@Z 00403c10 f i account.obj
 0001:00002c80       ?lower_bound@?$_Tree@V?$_Tmap_traits@KPAUtagSERVER_DESC@@U?$less@K@std@@V?$allocator@U?$pair@$$CBKPAUtagSERVER_DESC@@@std@@@3@$0A@@std@@@std@@QAE?AViterator@12@ABK@Z 00403c80 f i account.obj
 0001:00002cc0       ??Fiterator@?$_Tree@V?$_Tmap_traits@KHU?$less@K@std@@V?$allocator@U?$pair@$$CBKH@std@@@2@$0A@@std@@@std@@QAEAAV012@XZ 00403cc0 f i account.obj
 0001:00002cd0       ?_Tidy@?$list@PAXV?$allocator@PAX@std@@@std@@IAEXXZ 00403cd0 f i account.obj
 0001:00002cf0       ??0?$_List_val@PAXV?$allocator@PAX@std@@@std@@IAE@V?$allocator@PAX@1@@Z 00403cf0 f i account.obj
 0001:00002d00       ?_Init@?$_Tree@V?$_Tmap_traits@KHU?$less@K@std@@V?$allocator@U?$pair@$$CBKH@std@@@2@$0A@@std@@@std@@IAEXXZ 00403d00 f i account.obj
 0001:00002d30       ??0?$_Tree_val@V?$_Tmap_traits@KHU?$less@K@std@@V?$allocator@U?$pair@$$CBKH@std@@@2@$0A@@std@@@std@@IAE@ABU?$less@K@1@V?$allocator@U?$pair@$$CBKH@std@@@1@@Z 00403d30 f i account.obj
 0001:00002d40       ?_Init@?$_Tree@V?$_Tmap_traits@KPAVCAccount@@U?$less@K@std@@V?$allocator@U?$pair@$$CBKPAVCAccount@@@std@@@3@$0A@@std@@@std@@IAEXXZ 00403d40 f i account.obj
 0001:00002d70       ??0?$_Tree_val@V?$_Tmap_traits@KPAVCAccount@@U?$less@K@std@@V?$allocator@U?$pair@$$CBKPAVCAccount@@@std@@@3@$0A@@std@@@std@@IAE@ABU?$less@K@1@V?$allocator@U?$pair@$$CBKPAVCAccount@@@std@@@1@@Z 00403d70 f i account.obj
 0001:00002d80       ?_Init@?$_Tree@V?$_Tmap_traits@KKU?$less@K@std@@V?$allocator@U?$pair@$$CBKK@std@@@2@$0A@@std@@@std@@IAEXXZ 00403d80 f i account.obj
 0001:00002db0       ??0?$_Tree_val@V?$_Tmap_traits@KKU?$less@K@std@@V?$allocator@U?$pair@$$CBKK@std@@@2@$0A@@std@@@std@@IAE@ABU?$less@K@1@V?$allocator@U?$pair@$$CBKK@std@@@1@@Z 00403db0 f i account.obj
 0001:00002dc0       ??Eiterator@?$_Tree@V?$_Tmap_traits@KHU?$less@K@std@@V?$allocator@U?$pair@$$CBKH@std@@@2@$0A@@std@@@std@@QAE?AV012@H@Z 00403dc0 f i account.obj
 0001:00002de0       ??$_Distance@Viterator@?$_Tree@V?$_Tmap_traits@KKU?$less@K@std@@V?$allocator@U?$pair@$$CBKK@std@@@2@$0A@@std@@@std@@I@std@@YAXViterator@?$_Tree@V?$_Tmap_traits@KKU?$less@K@std@@V?$allocator@U?$pair@$$CBKK@std@@@2@$0A@@std@@@0@0AAI@Z 00403de0 f i account.obj
 0001:00002e20       ??$?MDU?$char_traits@D@std@@V?$allocator@D@1@@std@@YA_NABV?$basic_string@DU?$char_traits@D@std@@V?$allocator@D@2@@0@0@Z 00403e20 f i account.obj
 0001:00002e50       ??1?$basic_string@DU?$char_traits@D@std@@V?$allocator@D@2@@std@@QAE@XZ 00403e50 f i account.obj
 0001:00002e80       ?_Grow@?$basic_string@DU?$char_traits@D@std@@V?$allocator@D@2@@std@@IAE_NI_N@Z 00403e80 f i account.obj
 0001:00002f50       ?GetIndex@CAccountMng@@QAEHK@Z 00403f50 f   account.obj
 0001:00002f80       ?GetIdofServer@CAccountMng@@QAEHK@Z 00403f80 f   account.obj
 0001:00002fc0       ??1?$pair@$$CBV?$basic_string@DU?$char_traits@D@std@@V?$allocator@D@2@@std@@PAVCAccount@@@std@@QAE@XZ 00403fc0 f i account.obj
 0001:00002ff0       ?GetAccount@CAccountMng@@QAEPAVCAccount@@KK@Z 00403ff0 f   account.obj
 0001:00003060       ?find@?$_Tree@V?$_Tmap_traits@KPAUtagSERVER_DESC@@U?$less@K@std@@V?$allocator@U?$pair@$$CBKPAUtagSERVER_DESC@@@std@@@3@$0A@@std@@@std@@QAE?AViterator@12@ABK@Z 00404060 f i account.obj
 0001:000030d0       ??R?$less@V?$basic_string@DU?$char_traits@D@std@@V?$allocator@D@2@@std@@@std@@QBE_NABV?$basic_string@DU?$char_traits@D@std@@V?$allocator@D@2@@1@0@Z 004040d0 f i account.obj
 0001:00003110       ??0?$list@PAXV?$allocator@PAX@std@@@std@@QAE@XZ 00404110 f i account.obj
 0001:00003130       ??1?$list@PAXV?$allocator@PAX@std@@@std@@QAE@XZ 00404130 f i account.obj
 0001:00003150       ??0?$_Tree@V?$_Tmap_traits@V?$basic_string@DU?$char_traits@D@std@@V?$allocator@D@2@@std@@PAVCAccount@@U?$less@V?$basic_string@DU?$char_traits@D@std@@V?$allocator@D@2@@std@@@2@V?$allocator@U?$pair@$$CBV?$basic_string@DU?$char_traits@D@std@@V?$allocator@D@2@@std@@PAVCAccount@@@std@@@2@$0A@@std@@@std@@QAE@ABU?$less@V?$basic_string@DU?$char_traits@D@std@@V?$allocator@D@2@@std@@@1@ABV?$allocator@U?$pair@$$CBV?$basic_string@DU?$char_traits@D@std@@V?$allocator@D@2@@std@@PAVCAccount@@@std@@@1@@Z 00404150 f i account.obj
 0001:00003180       ??0?$_Tree@V?$_Tmap_traits@KHU?$less@K@std@@V?$allocator@U?$pair@$$CBKH@std@@@2@$0A@@std@@@std@@QAE@ABU?$less@K@1@ABV?$allocator@U?$pair@$$CBKH@std@@@1@@Z 00404180 f i account.obj
 0001:000031b0       ??0?$_Tree@V?$_Tmap_traits@KPAVCAccount@@U?$less@K@std@@V?$allocator@U?$pair@$$CBKPAVCAccount@@@std@@@3@$0A@@std@@@std@@QAE@ABU?$less@K@1@ABV?$allocator@U?$pair@$$CBKPAVCAccount@@@std@@@1@@Z 004041b0 f i account.obj
 0001:000031e0       ??0?$_Tree@V?$_Tmap_traits@KKU?$less@K@std@@V?$allocator@U?$pair@$$CBKK@std@@@2@$0A@@std@@@std@@QAE@ABU?$less@K@1@ABV?$allocator@U?$pair@$$CBKK@std@@@1@@Z 004041e0 f i account.obj
 0001:00003210       ?_Lbound@?$_Tree@V?$_Tmap_traits@V?$basic_string@DU?$char_traits@D@std@@V?$allocator@D@2@@std@@PAVCAccount@@U?$less@V?$basic_string@DU?$char_traits@D@std@@V?$allocator@D@2@@std@@@2@V?$allocator@U?$pair@$$CBV?$basic_string@DU?$char_traits@D@std@@V?$allocator@D@2@@std@@PAVCAccount@@@std@@@2@$0A@@std@@@std@@IBEPAU_Node@?$_Tree_nod@V?$_Tmap_traits@V?$basic_string@DU?$char_traits@D@std@@V?$allocator@D@2@@std@@PAVCAccount@@U?$less@V?$basic_string@DU?$char_traits@D@std@@V?$allocator@D@2@@std@@@2@V?$allocator@U?$pair@$$CBV?$basic_string@DU?$char_traits@D@std@@V?$allocator@D@2@@std@@PAVCAccount@@@std@@@2@$0A@@std@@@2@ABV?$basic_string@DU?$char_traits@D@std@@V?$allocator@D@2@@2@@Z 00404210 f i account.obj
 0001:000032d0       ??1_Node@?$_Tree_nod@V?$_Tmap_traits@V?$basic_string@DU?$char_traits@D@std@@V?$allocator@D@2@@std@@PAVCAccount@@U?$less@V?$basic_string@DU?$char_traits@D@std@@V?$allocator@D@2@@std@@@2@V?$allocator@U?$pair@$$CBV?$basic_string@DU?$char_traits@D@std@@V?$allocator@D@2@@std@@PAVCAccount@@@std@@@2@$0A@@std@@@std@@QAE@XZ 004042d0 f i account.obj
 0001:00003300       ??1logic_error@std@@UAE@XZ 00404300 f i account.obj
 0001:00003340       ?what@logic_error@std@@UBEPBDXZ 00404340 f i account.obj
 0001:00003350       ??_Glogic_error@std@@UAEPAXI@Z 00404350 f i account.obj
 0001:00003350       ??_Elogic_error@std@@UAEPAXI@Z 00404350 f i account.obj
 0001:00003370       ?assign@?$basic_string@DU?$char_traits@D@std@@V?$allocator@D@2@@std@@QAEAAV12@ABV12@II@Z 00404370 f i account.obj
 0001:00003460       ?assign@?$basic_string@DU?$char_traits@D@std@@V?$allocator@D@2@@std@@QAEAAV12@PBDI@Z 00404460 f i account.obj
 0001:00003550       ?lower_bound@?$_Tree@V?$_Tmap_traits@V?$basic_string@DU?$char_traits@D@std@@V?$allocator@D@2@@std@@PAVCAccount@@U?$less@V?$basic_string@DU?$char_traits@D@std@@V?$allocator@D@2@@std@@@2@V?$allocator@U?$pair@$$CBV?$basic_string@DU?$char_traits@D@std@@V?$allocator@D@2@@std@@PAVCAccount@@@std@@@2@$0A@@std@@@std@@QAE?AViterator@12@ABV?$basic_string@DU?$char_traits@D@std@@V?$allocator@D@2@@2@@Z 00404550 f i account.obj
 0001:00003570       ??_G_Node@?$_Tree_nod@V?$_Tmap_traits@V?$basic_string@DU?$char_traits@D@std@@V?$allocator@D@2@@std@@PAVCAccount@@U?$less@V?$basic_string@DU?$char_traits@D@std@@V?$allocator@D@2@@std@@@2@V?$allocator@U?$pair@$$CBV?$basic_string@DU?$char_traits@D@std@@V?$allocator@D@2@@std@@PAVCAccount@@@std@@@2@$0A@@std@@@std@@QAEPAXI@Z 00404570 f i account.obj
 0001:00003590       ??0?$basic_string@DU?$char_traits@D@std@@V?$allocator@D@2@@std@@QAE@ABV01@@Z 00404590 f i account.obj
 0001:000035c0       ?assign@?$basic_string@DU?$char_traits@D@std@@V?$allocator@D@2@@std@@QAEAAV12@PBD@Z 004045c0 f i account.obj
 0001:000035f0       ??0?$basic_string@DU?$char_traits@D@std@@V?$allocator@D@2@@std@@QAE@PBD@Z 004045f0 f i account.obj
 0001:00003630       ?find@?$_Tree@V?$_Tmap_traits@V?$basic_string@DU?$char_traits@D@std@@V?$allocator@D@2@@std@@PAVCAccount@@U?$less@V?$basic_string@DU?$char_traits@D@std@@V?$allocator@D@2@@std@@@2@V?$allocator@U?$pair@$$CBV?$basic_string@DU?$char_traits@D@std@@V?$allocator@D@2@@std@@PAVCAccount@@@std@@@2@$0A@@std@@@std@@QAE?AViterator@12@ABV?$basic_string@DU?$char_traits@D@std@@V?$allocator@D@2@@2@@Z 00404630 f i account.obj
 0001:000036a0       ??0?$pair@$$CBV?$basic_string@DU?$char_traits@D@std@@V?$allocator@D@2@@std@@PAVCAccount@@@std@@QAE@ABV?$basic_string@DU?$char_traits@D@std@@V?$allocator@D@2@@1@ABQAVCAccount@@@Z 004046a0 f i account.obj
 0001:000036d0       ??0?$pair@$$CBV?$basic_string@DU?$char_traits@D@std@@V?$allocator@D@2@@std@@PAVCAccount@@@std@@QAE@ABU01@@Z 004046d0 f i account.obj
 0001:00003700       ??$_Destroy@U_Node@?$_Tree_nod@V?$_Tmap_traits@V?$basic_string@DU?$char_traits@D@std@@V?$allocator@D@2@@std@@PAVCAccount@@U?$less@V?$basic_string@DU?$char_traits@D@std@@V?$allocator@D@2@@std@@@2@V?$allocator@U?$pair@$$CBV?$basic_string@DU?$char_traits@D@std@@V?$allocator@D@2@@std@@PAVCAccount@@@std@@@2@$0A@@std@@@std@@@std@@YAXPAU_Node@?$_Tree_nod@V?$_Tmap_traits@V?$basic_string@DU?$char_traits@D@std@@V?$allocator@D@2@@std@@PAVCAccount@@U?$less@V?$basic_string@DU?$char_traits@D@std@@V?$allocator@D@2@@std@@@2@V?$allocator@U?$pair@$$CBV?$basic_string@DU?$char_traits@D@std@@V?$allocator@D@2@@std@@PAVCAccount@@@std@@@2@$0A@@std@@@0@@Z 00404700 f i account.obj
 0001:00003710       ??0logic_error@std@@QAE@ABV?$basic_string@DU?$char_traits@D@std@@V?$allocator@D@2@@1@@Z 00404710 f i account.obj
 0001:00003770       ??0length_error@std@@QAE@ABV?$basic_string@DU?$char_traits@D@std@@V?$allocator@D@2@@1@@Z 00404770 f i account.obj
 0001:00003790       ??_Elength_error@std@@UAEPAXI@Z 00404790 f i account.obj
 0001:00003790       ??_Glength_error@std@@UAEPAXI@Z 00404790 f i account.obj
 0001:000037b0       ??1length_error@std@@UAE@XZ 004047b0 f i account.obj
 0001:000037f0       ??0out_of_range@std@@QAE@ABV?$basic_string@DU?$char_traits@D@std@@V?$allocator@D@2@@1@@Z 004047f0 f i account.obj
 0001:00003810       ??_Eout_of_range@std@@UAEPAXI@Z 00404810 f i account.obj
 0001:00003810       ??_Gout_of_range@std@@UAEPAXI@Z 00404810 f i account.obj
 0001:00003830       ??1out_of_range@std@@UAE@XZ 00404830 f i account.obj
 0001:00003870       ?GetAccount@CAccountMng@@QAEPAVCAccount@@PBD@Z 00404870 f   account.obj
 0001:00003930       ?GetAccount@CAccountMng@@QAEPAVCAccount@@PBDK@Z 00404930 f   account.obj
 0001:000039c0       ?SendBillingResult@CAccountMng@@QAEXPAUBILLING_INFO@@@Z 004049c0 f   account.obj
 0001:00003a30       ?erase@?$_Tree@V?$_Tmap_traits@KPAVCAccount@@U?$less@K@std@@V?$allocator@U?$pair@$$CBKPAVCAccount@@@std@@@3@$0A@@std@@@std@@QAE?AViterator@12@V312@@Z 00404a30 f i account.obj
 0001:00003cf0       ??0logic_error@std@@QAE@ABV01@@Z 00404cf0 f i account.obj
 0001:00003d60       ?erase@?$_Tree@V?$_Tmap_traits@KKU?$less@K@std@@V?$allocator@U?$pair@$$CBKK@std@@@2@$0A@@std@@@std@@QAE?AViterator@12@V312@@Z 00404d60 f i account.obj
 0001:00004020       ??0out_of_range@std@@QAE@ABV01@@Z 00405020 f i account.obj
 0001:00004040       ?destroy@?$allocator@U_Node@?$_Tree_nod@V?$_Tmap_traits@V?$basic_string@DU?$char_traits@D@std@@V?$allocator@D@2@@std@@PAVCAccount@@U?$less@V?$basic_string@DU?$char_traits@D@std@@V?$allocator@D@2@@std@@@2@V?$allocator@U?$pair@$$CBV?$basic_string@DU?$char_traits@D@std@@V?$allocator@D@2@@std@@PAVCAccount@@@std@@@2@$0A@@std@@@std@@@std@@QAEXPAU_Node@?$_Tree_nod@V?$_Tmap_traits@V?$basic_string@DU?$char_traits@D@std@@V?$allocator@D@2@@std@@PAVCAccount@@U?$less@V?$basic_string@DU?$char_traits@D@std@@V?$allocator@D@2@@std@@@2@V?$allocator@U?$pair@$$CBV?$basic_string@DU?$char_traits@D@std@@V?$allocator@D@2@@std@@PAVCAccount@@@std@@@2@$0A@@std@@@2@@Z 00405040 f i account.obj
 0001:00004050       ?_Insert@?$_Tree@V?$_Tmap_traits@KHU?$less@K@std@@V?$allocator@U?$pair@$$CBKH@std@@@2@$0A@@std@@@std@@IAE?AViterator@12@_NPAU_Node@?$_Tree_nod@V?$_Tmap_traits@KHU?$less@K@std@@V?$allocator@U?$pair@$$CBKH@std@@@2@$0A@@std@@@2@ABU?$pair@$$CBKH@2@@Z 00405050 f i account.obj
 0001:00004200       ??0length_error@std@@QAE@ABV01@@Z 00405200 f i account.obj
 0001:00004220       ?_Insert@?$_Tree@V?$_Tmap_traits@KPAVCAccount@@U?$less@K@std@@V?$allocator@U?$pair@$$CBKPAVCAccount@@@std@@@3@$0A@@std@@@std@@IAE?AViterator@12@_NPAU_Node@?$_Tree_nod@V?$_Tmap_traits@KPAVCAccount@@U?$less@K@std@@V?$allocator@U?$pair@$$CBKPAVCAccount@@@std@@@3@$0A@@std@@@2@ABU?$pair@$$CBKPAVCAccount@@@2@@Z 00405220 f i account.obj
 0001:000043d0       ?erase@?$_Tree@V?$_Tmap_traits@KKU?$less@K@std@@V?$allocator@U?$pair@$$CBKK@std@@@2@$0A@@std@@@std@@QAE?AViterator@12@V312@0@Z 004053d0 f i account.obj
 0001:00004490       ?_Insert@?$_Tree@V?$_Tmap_traits@KKU?$less@K@std@@V?$allocator@U?$pair@$$CBKK@std@@@2@$0A@@std@@@std@@IAE?AViterator@12@_NPAU_Node@?$_Tree_nod@V?$_Tmap_traits@KKU?$less@K@std@@V?$allocator@U?$pair@$$CBKK@std@@@2@$0A@@std@@@2@ABU?$pair@$$CBKK@2@@Z 00405490 f i account.obj
 0001:00004640       ?_Tidy@?$_Tree@V?$_Tmap_traits@KKU?$less@K@std@@V?$allocator@U?$pair@$$CBKK@std@@@2@$0A@@std@@@std@@IAEXXZ 00405640 f i account.obj
 0001:00004670       ?erase@?$_Tree@V?$_Tmap_traits@KPAVCAccount@@U?$less@K@std@@V?$allocator@U?$pair@$$CBKPAVCAccount@@@std@@@3@$0A@@std@@@std@@QAE?AViterator@12@V312@0@Z 00405670 f i account.obj
 0001:00004730       ?erase@?$_Tree@V?$_Tmap_traits@KHU?$less@K@std@@V?$allocator@U?$pair@$$CBKH@std@@@2@$0A@@std@@@std@@QAE?AViterator@12@V312@@Z 00405730 f i account.obj
 0001:000049f0       ??0_Node@?$_Tree_nod@V?$_Tmap_traits@V?$basic_string@DU?$char_traits@D@std@@V?$allocator@D@2@@std@@PAVCAccount@@U?$less@V?$basic_string@DU?$char_traits@D@std@@V?$allocator@D@2@@std@@@2@V?$allocator@U?$pair@$$CBV?$basic_string@DU?$char_traits@D@std@@V?$allocator@D@2@@std@@PAVCAccount@@@std@@@2@$0A@@std@@@std@@QAE@PAU012@00ABU?$pair@$$CBV?$basic_string@DU?$char_traits@D@std@@V?$allocator@D@2@@std@@PAVCAccount@@@2@D@Z 004059f0 f i account.obj
 0001:00004a50       ?_Incsize@?$list@PAXV?$allocator@PAX@std@@@std@@IAEXI@Z 00405a50 f i account.obj
 0001:00004af0       ?PopPCBangPlayer@CAccountMng@@QAEKK@Z 00405af0 f   account.obj
 0001:00004b40       ?erase@?$_Tree@V?$_Tmap_traits@V?$basic_string@DU?$char_traits@D@std@@V?$allocator@D@2@@std@@PAVCAccount@@U?$less@V?$basic_string@DU?$char_traits@D@std@@V?$allocator@D@2@@std@@@2@V?$allocator@U?$pair@$$CBV?$basic_string@DU?$char_traits@D@std@@V?$allocator@D@2@@std@@PAVCAccount@@@std@@@2@$0A@@std@@@std@@QAE?AViterator@12@V312@@Z 00405b40 f i account.obj
 0001:00004e20       ?insert@?$_Tree@V?$_Tmap_traits@KHU?$less@K@std@@V?$allocator@U?$pair@$$CBKH@std@@@2@$0A@@std@@@std@@QAE?AU?$pair@Viterator@?$_Tree@V?$_Tmap_traits@KHU?$less@K@std@@V?$allocator@U?$pair@$$CBKH@std@@@2@$0A@@std@@@std@@_N@2@ABU?$pair@$$CBKH@2@@Z 00405e20 f i account.obj
 0001:00004ee0       ?insert@?$_Tree@V?$_Tmap_traits@KPAVCAccount@@U?$less@K@std@@V?$allocator@U?$pair@$$CBKPAVCAccount@@@std@@@3@$0A@@std@@@std@@QAE?AU?$pair@Viterator@?$_Tree@V?$_Tmap_traits@KPAVCAccount@@U?$less@K@std@@V?$allocator@U?$pair@$$CBKPAVCAccount@@@std@@@3@$0A@@std@@@std@@_N@2@ABU?$pair@$$CBKPAVCAccount@@@2@@Z 00405ee0 f i account.obj
 0001:00004fa0       ??1?$_Tree@V?$_Tmap_traits@KKU?$less@K@std@@V?$allocator@U?$pair@$$CBKK@std@@@2@$0A@@std@@@std@@QAE@XZ 00405fa0 f i account.obj
 0001:00004fd0       ?insert@?$_Tree@V?$_Tmap_traits@KKU?$less@K@std@@V?$allocator@U?$pair@$$CBKK@std@@@2@$0A@@std@@@std@@QAE?AU?$pair@Viterator@?$_Tree@V?$_Tmap_traits@KKU?$less@K@std@@V?$allocator@U?$pair@$$CBKK@std@@@2@$0A@@std@@@std@@_N@2@ABU?$pair@$$CBKK@2@@Z 00405fd0 f i account.obj
 0001:00005090       ?erase@?$_Tree@V?$_Tmap_traits@KKU?$less@K@std@@V?$allocator@U?$pair@$$CBKK@std@@@2@$0A@@std@@@std@@QAEIABK@Z 00406090 f i account.obj
 0001:000050f0       ?_Erase@?$_Tree@V?$_Tmap_traits@V?$basic_string@DU?$char_traits@D@std@@V?$allocator@D@2@@std@@PAVCAccount@@U?$less@V?$basic_string@DU?$char_traits@D@std@@V?$allocator@D@2@@std@@@2@V?$allocator@U?$pair@$$CBV?$basic_string@DU?$char_traits@D@std@@V?$allocator@D@2@@std@@PAVCAccount@@@std@@@2@$0A@@std@@@std@@IAEXPAU_Node@?$_Tree_nod@V?$_Tmap_traits@V?$basic_string@DU?$char_traits@D@std@@V?$allocator@D@2@@std@@PAVCAccount@@U?$less@V?$basic_string@DU?$char_traits@D@std@@V?$allocator@D@2@@std@@@2@V?$allocator@U?$pair@$$CBV?$basic_string@DU?$char_traits@D@std@@V?$allocator@D@2@@std@@PAVCAccount@@@std@@@2@$0A@@std@@@2@@Z 004060f0 f i account.obj
 0001:00005130       ?_Tidy@?$_Tree@V?$_Tmap_traits@KPAVCAccount@@U?$less@K@std@@V?$allocator@U?$pair@$$CBKPAVCAccount@@@std@@@3@$0A@@std@@@std@@IAEXXZ 00406130 f i account.obj
 0001:00005160       ?_Buynode@?$_Tree@V?$_Tmap_traits@V?$basic_string@DU?$char_traits@D@std@@V?$allocator@D@2@@std@@PAVCAccount@@U?$less@V?$basic_string@DU?$char_traits@D@std@@V?$allocator@D@2@@std@@@2@V?$allocator@U?$pair@$$CBV?$basic_string@DU?$char_traits@D@std@@V?$allocator@D@2@@std@@PAVCAccount@@@std@@@2@$0A@@std@@@std@@IAEPAU_Node@?$_Tree_nod@V?$_Tmap_traits@V?$basic_string@DU?$char_traits@D@std@@V?$allocator@D@2@@std@@PAVCAccount@@U?$less@V?$basic_string@DU?$char_traits@D@std@@V?$allocator@D@2@@std@@@2@V?$allocator@U?$pair@$$CBV?$basic_string@DU?$char_traits@D@std@@V?$allocator@D@2@@std@@PAVCAccount@@@std@@@2@$0A@@std@@@2@PAU342@00ABU?$pair@$$CBV?$basic_string@DU?$char_traits@D@std@@V?$allocator@D@2@@std@@PAVCAccount@@@2@D@Z 00406160 f i account.obj
 0001:000051f0       ?erase@?$_Tree@V?$_Tmap_traits@KHU?$less@K@std@@V?$allocator@U?$pair@$$CBKH@std@@@2@$0A@@std@@@std@@QAE?AViterator@12@V312@0@Z 004061f0 f i account.obj
 0001:000052b0       ?_Insert@?$list@PAXV?$allocator@PAX@std@@@std@@QAEXViterator@12@ABQAX@Z 004062b0 f i account.obj
 0001:000052f0       ??1?$map@KKU?$less@K@std@@V?$allocator@U?$pair@$$CBKK@std@@@2@@std@@QAE@XZ 004062f0 f i account.obj
 0001:00005320       ?RemoveAccount@CAccountMng@@QAEXPBD@Z 00406320 f   account.obj
 0001:00005480       ?RemoveAccount@CAccountMng@@QAEXKK@Z 00406480 f   account.obj
 0001:00005550       ?AddConnection@CAccountMng@@QAEXK@Z 00406550 f   account.obj
 0001:000055f0       ?RemoveConnection@CAccountMng@@QAEXK@Z 004065f0 f   account.obj
 0001:000056d0       ?AddIdofServer@CAccountMng@@QAEXKK@Z 004066d0 f   account.obj
 0001:00005780       ?RemoveIdofServer@CAccountMng@@QAEXKH@Z 00406780 f   account.obj
 0001:000058b0       ?clear@?$_Tree@V?$_Tmap_traits@V?$basic_string@DU?$char_traits@D@std@@V?$allocator@D@2@@std@@PAVCAccount@@U?$less@V?$basic_string@DU?$char_traits@D@std@@V?$allocator@D@2@@std@@@2@V?$allocator@U?$pair@$$CBV?$basic_string@DU?$char_traits@D@std@@V?$allocator@D@2@@std@@PAVCAccount@@@std@@@2@$0A@@std@@@std@@QAEXXZ 004068b0 f i account.obj
 0001:000058e0       ??1?$_Tree@V?$_Tmap_traits@KPAVCAccount@@U?$less@K@std@@V?$allocator@U?$pair@$$CBKPAVCAccount@@@std@@@3@$0A@@std@@@std@@QAE@XZ 004068e0 f i account.obj
 0001:00005910       ??0?$map@KKU?$less@K@std@@V?$allocator@U?$pair@$$CBKK@std@@@2@@std@@QAE@XZ 00406910 f i account.obj
 0001:00005940       ?_Insert@?$_Tree@V?$_Tmap_traits@V?$basic_string@DU?$char_traits@D@std@@V?$allocator@D@2@@std@@PAVCAccount@@U?$less@V?$basic_string@DU?$char_traits@D@std@@V?$allocator@D@2@@std@@@2@V?$allocator@U?$pair@$$CBV?$basic_string@DU?$char_traits@D@std@@V?$allocator@D@2@@std@@PAVCAccount@@@std@@@2@$0A@@std@@@std@@IAE?AViterator@12@_NPAU_Node@?$_Tree_nod@V?$_Tmap_traits@V?$basic_string@DU?$char_traits@D@std@@V?$allocator@D@2@@std@@PAVCAccount@@U?$less@V?$basic_string@DU?$char_traits@D@std@@V?$allocator@D@2@@std@@@2@V?$allocator@U?$pair@$$CBV?$basic_string@DU?$char_traits@D@std@@V?$allocator@D@2@@std@@PAVCAccount@@@std@@@2@$0A@@std@@@2@ABU?$pair@$$CBV?$basic_string@DU?$char_traits@D@std@@V?$allocator@D@2@@std@@PAVCAccount@@@2@@Z 00406940 f i account.obj
 0001:00005af0       ?_Tidy@?$_Tree@V?$_Tmap_traits@KHU?$less@K@std@@V?$allocator@U?$pair@$$CBKH@std@@@2@$0A@@std@@@std@@IAEXXZ 00406af0 f i account.obj
 0001:00005b20       ?push_back@?$list@PAXV?$allocator@PAX@std@@@std@@QAEXABQAX@Z 00406b20 f i account.obj
 0001:00005b60       ?erase@?$_Tree@V?$_Tmap_traits@V?$basic_string@DU?$char_traits@D@std@@V?$allocator@D@2@@std@@PAVCAccount@@U?$less@V?$basic_string@DU?$char_traits@D@std@@V?$allocator@D@2@@std@@@2@V?$allocator@U?$pair@$$CBV?$basic_string@DU?$char_traits@D@std@@V?$allocator@D@2@@std@@PAVCAccount@@@std@@@2@$0A@@std@@@std@@QAE?AViterator@12@V312@0@Z 00406b60 f i account.obj
 0001:00005c20       ?_Copy@?$_Tree@V?$_Tmap_traits@V?$basic_string@DU?$char_traits@D@std@@V?$allocator@D@2@@std@@PAVCAccount@@U?$less@V?$basic_string@DU?$char_traits@D@std@@V?$allocator@D@2@@std@@@2@V?$allocator@U?$pair@$$CBV?$basic_string@DU?$char_traits@D@std@@V?$allocator@D@2@@std@@PAVCAccount@@@std@@@2@$0A@@std@@@std@@IAEPAU_Node@?$_Tree_nod@V?$_Tmap_traits@V?$basic_string@DU?$char_traits@D@std@@V?$allocator@D@2@@std@@PAVCAccount@@U?$less@V?$basic_string@DU?$char_traits@D@std@@V?$allocator@D@2@@std@@@2@V?$allocator@U?$pair@$$CBV?$basic_string@DU?$char_traits@D@std@@V?$allocator@D@2@@std@@PAVCAccount@@@std@@@2@$0A@@std@@@2@PAU342@0@Z 00406c20 f i account.obj
 0001:00005cd0       ??1?$map@KPAVCAccount@@U?$less@K@std@@V?$allocator@U?$pair@$$CBKPAVCAccount@@@std@@@3@@std@@QAE@XZ 00406cd0 f i account.obj
 0001:00005d00       ?Clear@CAccountMng@@QAEXXZ 00406d00 f   account.obj
 0001:00005e70       ?insert@?$_Tree@V?$_Tmap_traits@V?$basic_string@DU?$char_traits@D@std@@V?$allocator@D@2@@std@@PAVCAccount@@U?$less@V?$basic_string@DU?$char_traits@D@std@@V?$allocator@D@2@@std@@@2@V?$allocator@U?$pair@$$CBV?$basic_string@DU?$char_traits@D@std@@V?$allocator@D@2@@std@@PAVCAccount@@@std@@@2@$0A@@std@@@std@@QAE?AU?$pair@Viterator@?$_Tree@V?$_Tmap_traits@V?$basic_string@DU?$char_traits@D@std@@V?$allocator@D@2@@std@@PAVCAccount@@U?$less@V?$basic_string@DU?$char_traits@D@std@@V?$allocator@D@2@@std@@@2@V?$allocator@U?$pair@$$CBV?$basic_string@DU?$char_traits@D@std@@V?$allocator@D@2@@std@@PAVCAccount@@@std@@@2@$0A@@std@@@std@@_N@2@ABU?$pair@$$CBV?$basic_string@DU?$char_traits@D@std@@V?$allocator@D@2@@std@@PAVCAccount@@@2@@Z 00406e70 f i account.obj
 0001:00005ff0       ??1?$_Tree@V?$_Tmap_traits@KHU?$less@K@std@@V?$allocator@U?$pair@$$CBKH@std@@@2@$0A@@std@@@std@@QAE@XZ 00406ff0 f i account.obj
 0001:00006020       ??0?$map@KPAVCAccount@@U?$less@K@std@@V?$allocator@U?$pair@$$CBKPAVCAccount@@@std@@@3@@std@@QAE@XZ 00407020 f i account.obj
 0001:00006050       ?Create@?$MemPooler@VCAccount@@@@IAEXXZ 00407050 f i account.obj
 0001:000060e0       ?_Copy@?$_Tree@V?$_Tmap_traits@V?$basic_string@DU?$char_traits@D@std@@V?$allocator@D@2@@std@@PAVCAccount@@U?$less@V?$basic_string@DU?$char_traits@D@std@@V?$allocator@D@2@@std@@@2@V?$allocator@U?$pair@$$CBV?$basic_string@DU?$char_traits@D@std@@V?$allocator@D@2@@std@@PAVCAccount@@@std@@@2@$0A@@std@@@std@@IAEXABV12@@Z 004070e0 f i account.obj
 0001:00006170       ?_Tidy@?$_Tree@V?$_Tmap_traits@V?$basic_string@DU?$char_traits@D@std@@V?$allocator@D@2@@std@@PAVCAccount@@U?$less@V?$basic_string@DU?$char_traits@D@std@@V?$allocator@D@2@@std@@@2@V?$allocator@U?$pair@$$CBV?$basic_string@DU?$char_traits@D@std@@V?$allocator@D@2@@std@@PAVCAccount@@@std@@@2@$0A@@std@@@std@@IAEXXZ 00407170 f i account.obj
 0001:000061a0       ??1?$map@KHU?$less@K@std@@V?$allocator@U?$pair@$$CBKH@std@@@2@@std@@QAE@XZ 004071a0 f i account.obj
 0001:000061d0       ??0?$MemPooler@VCAccount@@@@QAE@H@Z 004071d0 f i account.obj
 0001:00006250       ?Alloc@?$MemPooler@VCAccount@@@@QAEPAVCAccount@@XZ 00407250 f i account.obj
 0001:00006290       ??0?$_Tree@V?$_Tmap_traits@V?$basic_string@DU?$char_traits@D@std@@V?$allocator@D@2@@std@@PAVCAccount@@U?$less@V?$basic_string@DU?$char_traits@D@std@@V?$allocator@D@2@@std@@@2@V?$allocator@U?$pair@$$CBV?$basic_string@DU?$char_traits@D@std@@V?$allocator@D@2@@std@@PAVCAccount@@@std@@@2@$0A@@std@@@std@@QAE@ABV01@@Z 00407290 f i account.obj
 0001:00006320       ??1?$_Tree@V?$_Tmap_traits@V?$basic_string@DU?$char_traits@D@std@@V?$allocator@D@2@@std@@PAVCAccount@@U?$less@V?$basic_string@DU?$char_traits@D@std@@V?$allocator@D@2@@std@@@2@V?$allocator@U?$pair@$$CBV?$basic_string@DU?$char_traits@D@std@@V?$allocator@D@2@@std@@PAVCAccount@@@std@@@2@$0A@@std@@@std@@QAE@XZ 00407320 f i account.obj
 0001:00006350       ??0?$map@KHU?$less@K@std@@V?$allocator@U?$pair@$$CBKH@std@@@2@@std@@QAE@XZ 00407350 f i account.obj
 0001:00006380       ??2CAccount@@SAPAXI@Z      00407380 f i account.obj
 0001:000063c0       ??1?$map@V?$basic_string@DU?$char_traits@D@std@@V?$allocator@D@2@@std@@PAVCAccount@@U?$less@V?$basic_string@DU?$char_traits@D@std@@V?$allocator@D@2@@std@@@2@V?$allocator@U?$pair@$$CBV?$basic_string@DU?$char_traits@D@std@@V?$allocator@D@2@@std@@PAVCAccount@@@std@@@2@@std@@QAE@XZ 004073c0 f i account.obj
 0001:000063f0       ??1CAccountMng@@UAE@XZ     004073f0 f   account.obj
 0001:00006530       ?AddAccount@CAccountMng@@QAEEPBDKKPAKEH@Z 00407530 f   account.obj
 0001:00006800       ??0?$map@V?$basic_string@DU?$char_traits@D@std@@V?$allocator@D@2@@std@@PAVCAccount@@U?$less@V?$basic_string@DU?$char_traits@D@std@@V?$allocator@D@2@@std@@@2@V?$allocator@U?$pair@$$CBV?$basic_string@DU?$char_traits@D@std@@V?$allocator@D@2@@std@@PAVCAccount@@@std@@@2@@std@@QAE@ABV01@@Z 00407800 f i account.obj
 0001:00006820       ??0?$map@V?$basic_string@DU?$char_traits@D@std@@V?$allocator@D@2@@std@@PAVCAccount@@U?$less@V?$basic_string@DU?$char_traits@D@std@@V?$allocator@D@2@@std@@@2@V?$allocator@U?$pair@$$CBV?$basic_string@DU?$char_traits@D@std@@V?$allocator@D@2@@std@@PAVCAccount@@@std@@@2@@std@@QAE@XZ 00407820 f i account.obj
 0001:00006850       ??0CAccountMng@@QAE@XZ     00407850 f   account.obj
 0001:00006a30       ??_ECAccountMng@@UAEPAXI@Z 00407a30 f i account.obj
 0001:00006a30       ??_GCAccountMng@@UAEPAXI@Z 00407a30 f i account.obj
 0001:00006a50       ?GetMapAccount@CAccountMng@@QAE?AV?$map@V?$basic_string@DU?$char_traits@D@std@@V?$allocator@D@2@@std@@PAVCAccount@@U?$less@V?$basic_string@DU?$char_traits@D@std@@V?$allocator@D@2@@std@@@2@V?$allocator@U?$pair@$$CBV?$basic_string@DU?$char_traits@D@std@@V?$allocator@D@2@@std@@PAVCAccount@@@std@@@2@@std@@XZ 00407a50 f   account.obj
 0001:00006a70       ?IsCrcRead@CSock@@QAEHXZ   00407a70 f i AccountServer.obj
 0001:00006a80       ?IsCrcWrite@CSock@@QAEHXZ  00407a80 f i AccountServer.obj
 0001:00006a90       ?GetHandle@CSock@@QAEIXZ   00407a90 f i AccountServer.obj
 0001:00006aa0       ?SetID@CSock@@QAEXK@Z      00407aa0 f i AccountServer.obj
 0001:00006ab0       ?SetPeerID@CSock@@QAEXK@Z  00407ab0 f i AccountServer.obj
 0001:00006ac0       ?crc@CBuffer@@QAEXPAVCRC32@@@Z 00407ac0 f i AccountServer.obj
 0001:00006ad0       ?GetWritableBuffer@CBuffer@@QAEPAEPAH@Z 00407ad0 f i AccountServer.obj
 0001:00006af0       ?GetReadableBuffer@CBuffer@@QAEPAEPAH@Z 00407af0 f i AccountServer.obj
 0001:00006b10       ?GetReadableBufferSize@CBuffer@@QAEHXZ 00407b10 f i AccountServer.obj
 0001:00006b20       ??0CBuffer3@@QAE@K@Z       00407b20 f i AccountServer.obj
 0001:00006b40       ??6CAr@@QAEAAV0@K@Z        00407b40 f i AccountServer.obj
 0001:00006b60       ?Initialize@CMyTrace@@QAEXPAUHWND__@@PBDKK@Z 00407b60 f i AccountServer.obj
 0001:00006bb0       ?InterlockedExchangePointer@@YGPAXPAPAXPAX@Z 00407bb0 f i AccountServer.obj
 0001:00006bc0       ?_AtlGetThreadACPFake@ATL@@YGIXZ 00407bc0 f i AccountServer.obj
 0001:00006c40       ?_AtlGetThreadACPReal@ATL@@YGIXZ 00407c40 f i AccountServer.obj
 0001:00006c50       ?_AtlGetThreadACPThunk@ATL@@YGIXZ 00407c50 f i AccountServer.obj
 0001:00006cc0       ?_AtlGetConversionACP@ATL@@YGIXZ 00407cc0 f i AccountServer.obj
 0001:00006cd0       ?InitLanguageFromResource@@YAXPAUHINSTANCE__@@@Z 00407cd0 f   AccountServer.obj
 0001:00006d60       ?AtlThrow@ATL@@YGXJ@Z      00407d60 f i AccountServer.obj
 0001:00006d80       ?_AtlGetStringResourceImage@ATL@@YAPBUATLSTRINGRESOURCEIMAGE@1@PAUHINSTANCE__@@PAUHRSRC__@@I@Z 00407d80 f i AccountServer.obj
 0001:00006de0       ?AtlGetStringResourceImage@ATL@@YAPBUATLSTRINGRESOURCEIMAGE@1@PAUHINSTANCE__@@I@Z 00407de0 f i AccountServer.obj
 0001:00006e20       ?ToggleDlgProc@@YGHPAUHWND__@@IIJ@Z 00407e20 f   AccountServer.obj
 0001:00006fa0       ?data@CStringData@ATL@@QAEPAXXZ 00407fa0 f i AccountServer.obj
 0001:00006fb0       ?AddRef@CStringData@ATL@@QAEXXZ 00407fb0 f i AccountServer.obj
 0001:00006fc0       ?IsLocked@CStringData@ATL@@QBE_NXZ 00407fc0 f i AccountServer.obj
 0001:00006fd0       ?MaxConnDlgProc@@YGHPAUHWND__@@IIJ@Z 00407fd0 f   AccountServer.obj
 0001:000070b0       ?IsShared@CStringData@ATL@@QBE_NXZ 004080b0 f i AccountServer.obj
 0001:000070c0       ?Release@CStringData@ATL@@QAEXXZ 004080c0 f i AccountServer.obj
 0001:000070e0       ?PrintTimeDlg@@YAXPAUHWND__@@@Z 004080e0 f   AccountServer.obj
 0001:000071d0       ?SetTimeDlg@@YAHPAUHWND__@@@Z 004081d0 f   AccountServer.obj
 0001:00007370       ?Free@?$MemPooler@VCBuffer@@@@QAEHPAVCBuffer@@@Z 00408370 f i AccountServer.obj
 0001:000073c0       ?Free@?$MemPooler@VCBuffer3@@@@QAEHPAVCBuffer3@@@Z 004083c0 f i AccountServer.obj
 0001:00007410       ?size@?$vector@KV?$allocator@K@std@@@std@@QBEIXZ 00408410 f i AccountServer.obj
 0001:00007430       ??0?$pair@$$CBKPAUtagSERVER_DESC@@@std@@QAE@ABKABQAUtagSERVER_DESC@@@Z 00408430 f i AccountServer.obj
 0001:00007450       ??0?$allocator@K@std@@QAE@XZ 00408450 f i AccountServer.obj
 0001:00007460       ?capacity@?$vector@V?$CStringT@DV?$StrTraitMFC@DV?$ChTraitsCRT@D@ATL@@@@@ATL@@V?$allocator@V?$CStringT@DV?$StrTraitMFC@DV?$ChTraitsCRT@D@ATL@@@@@ATL@@@std@@@std@@QBEIXZ 00408460 f i AccountServer.obj
 0001:00007480       ?size@?$vector@V?$CStringT@DV?$StrTraitMFC@DV?$ChTraitsCRT@D@ATL@@@@@ATL@@V?$allocator@V?$CStringT@DV?$StrTraitMFC@DV?$ChTraitsCRT@D@ATL@@@@@ATL@@@std@@@std@@QBEIXZ 00408480 f i AccountServer.obj
 0001:000074a0       ?_Isnil@?$_Tree@V?$_Tmap_traits@KPAU_BUYING_INFO3@@U?$less@K@std@@V?$allocator@U?$pair@$$CBKPAU_BUYING_INFO3@@@std@@@3@$0A@@std@@@std@@KAAADPAU_Node@?$_Tree_nod@V?$_Tmap_traits@KPAU_BUYING_INFO3@@U?$less@K@std@@V?$allocator@U?$pair@$$CBKPAU_BUYING_INFO3@@@std@@@3@$0A@@std@@@2@@Z 004084a0 f i AccountServer.obj
 0001:000074b0       ?_Left@?$_Tree@V?$_Tmap_traits@KPAU_BUYING_INFO3@@U?$less@K@std@@V?$allocator@U?$pair@$$CBKPAU_BUYING_INFO3@@@std@@@3@$0A@@std@@@std@@KAAAPAU_Node@?$_Tree_nod@V?$_Tmap_traits@KPAU_BUYING_INFO3@@U?$less@K@std@@V?$allocator@U?$pair@$$CBKPAU_BUYING_INFO3@@@std@@@3@$0A@@std@@@2@PAU342@@Z 004084b0 f i AccountServer.obj
 0001:000074c0       ?_Right@?$_Tree@V?$_Tmap_traits@KPAU_BUYING_INFO3@@U?$less@K@std@@V?$allocator@U?$pair@$$CBKPAU_BUYING_INFO3@@@std@@@3@$0A@@std@@@std@@KAAAPAU_Node@?$_Tree_nod@V?$_Tmap_traits@KPAU_BUYING_INFO3@@U?$less@K@std@@V?$allocator@U?$pair@$$CBKPAU_BUYING_INFO3@@@std@@@3@$0A@@std@@@2@PAU342@@Z 004084c0 f i AccountServer.obj
 0001:000074d0       ?_Lmost@?$_Tree@V?$_Tmap_traits@KPAU_BUYING_INFO3@@U?$less@K@std@@V?$allocator@U?$pair@$$CBKPAU_BUYING_INFO3@@@std@@@3@$0A@@std@@@std@@IAEAAPAU_Node@?$_Tree_nod@V?$_Tmap_traits@KPAU_BUYING_INFO3@@U?$less@K@std@@V?$allocator@U?$pair@$$CBKPAU_BUYING_INFO3@@@std@@@3@$0A@@std@@@2@XZ 004084d0 f i AccountServer.obj
 0001:000074e0       ?_Rmost@?$_Tree@V?$_Tmap_traits@KPAU_BUYING_INFO3@@U?$less@K@std@@V?$allocator@U?$pair@$$CBKPAU_BUYING_INFO3@@@std@@@3@$0A@@std@@@std@@IAEAAPAU_Node@?$_Tree_nod@V?$_Tmap_traits@KPAU_BUYING_INFO3@@U?$less@K@std@@V?$allocator@U?$pair@$$CBKPAU_BUYING_INFO3@@@std@@@3@$0A@@std@@@2@XZ 004084e0 f i AccountServer.obj
 0001:000074f0       ?_Kfn@?$_Tmap_traits@KPAU_BUYING_INFO3@@U?$less@K@std@@V?$allocator@U?$pair@$$CBKPAU_BUYING_INFO3@@@std@@@3@$0A@@std@@SAABKABU?$pair@$$CBKPAU_BUYING_INFO3@@@2@@Z 004084f0 f i AccountServer.obj
 0001:00007500       ??8const_iterator@?$_Tree@V?$_Tmap_traits@KPAU_BUYING_INFO3@@U?$less@K@std@@V?$allocator@U?$pair@$$CBKPAU_BUYING_INFO3@@@std@@@3@$0A@@std@@@std@@QBE_NABV012@@Z 00408500 f i AccountServer.obj
 0001:00007510       ?_Mynode@const_iterator@?$_Tree@V?$_Tmap_traits@KPAU_BUYING_INFO3@@U?$less@K@std@@V?$allocator@U?$pair@$$CBKPAU_BUYING_INFO3@@@std@@@3@$0A@@std@@@std@@QBEPAU_Node@?$_Tree_nod@V?$_Tmap_traits@KPAU_BUYING_INFO3@@U?$less@K@std@@V?$allocator@U?$pair@$$CBKPAU_BUYING_INFO3@@@std@@@3@$0A@@std@@@3@XZ 00408510 f i AccountServer.obj
 0001:00007520       ?capacity@?$vector@KV?$allocator@K@std@@@std@@QBEIXZ 00408520 f i AccountServer.obj
 0001:00007540       ??0?$pair@Viterator@?$_Tree@V?$_Tmap_traits@KPAUtagSERVER_DESC@@U?$less@K@std@@V?$allocator@U?$pair@$$CBKPAUtagSERVER_DESC@@@std@@@3@$0A@@std@@@std@@_N@std@@QAE@ABViterator@?$_Tree@V?$_Tmap_traits@KPAUtagSERVER_DESC@@U?$less@K@std@@V?$allocator@U?$pair@$$CBKPAUtagSERVER_DESC@@@std@@@3@$0A@@std@@@1@AB_N@Z 00408540 f i AccountServer.obj
 0001:00007560       ?StringCompare@?$ChTraitsCRT@D@ATL@@SAHPBD0@Z 00408560 f i AccountServer.obj
 0001:00007570       ?_Color@?$_Tree@V?$_Tmap_traits@KPAUtagSERVER_DESC@@U?$less@K@std@@V?$allocator@U?$pair@$$CBKPAUtagSERVER_DESC@@@std@@@3@$0A@@std@@@std@@KAAADPAU_Node@?$_Tree_nod@V?$_Tmap_traits@KPAUtagSERVER_DESC@@U?$less@K@std@@V?$allocator@U?$pair@$$CBKPAUtagSERVER_DESC@@@std@@@3@$0A@@std@@@2@@Z 00408570 f i AccountServer.obj
 0001:00007580       ?_Lmost@?$_Tree@V?$_Tmap_traits@KPAUtagSERVER_DESC@@U?$less@K@std@@V?$allocator@U?$pair@$$CBKPAUtagSERVER_DESC@@@std@@@3@$0A@@std@@@std@@IAEAAPAU_Node@?$_Tree_nod@V?$_Tmap_traits@KPAUtagSERVER_DESC@@U?$less@K@std@@V?$allocator@U?$pair@$$CBKPAUtagSERVER_DESC@@@std@@@3@$0A@@std@@@2@XZ 00408580 f i AccountServer.obj
 0001:00007590       ?_Rmost@?$_Tree@V?$_Tmap_traits@KPAUtagSERVER_DESC@@U?$less@K@std@@V?$allocator@U?$pair@$$CBKPAUtagSERVER_DESC@@@std@@@3@$0A@@std@@@std@@IAEAAPAU_Node@?$_Tree_nod@V?$_Tmap_traits@KPAUtagSERVER_DESC@@U?$less@K@std@@V?$allocator@U?$pair@$$CBKPAUtagSERVER_DESC@@@std@@@3@$0A@@std@@@2@XZ 00408590 f i AccountServer.obj
 0001:000075a0       ??0?$allocator@K@std@@QAE@ABV01@@Z 004085a0 f i AccountServer.obj
 0001:000075b0       ?deallocate@?$allocator@K@std@@QAEXPAKI@Z 004085b0 f i AccountServer.obj
 0001:000075c0       ?_Color@?$_Tree@V?$_Tmap_traits@KPAU_BUYING_INFO3@@U?$less@K@std@@V?$allocator@U?$pair@$$CBKPAU_BUYING_INFO3@@@std@@@3@$0A@@std@@@std@@KAAADPAU_Node@?$_Tree_nod@V?$_Tmap_traits@KPAU_BUYING_INFO3@@U?$less@K@std@@V?$allocator@U?$pair@$$CBKPAU_BUYING_INFO3@@@std@@@3@$0A@@std@@@2@@Z 004085c0 f i AccountServer.obj
 0001:000075d0       ?_Parent@?$_Tree@V?$_Tmap_traits@KPAU_BUYING_INFO3@@U?$less@K@std@@V?$allocator@U?$pair@$$CBKPAU_BUYING_INFO3@@@std@@@3@$0A@@std@@@std@@KAAAPAU_Node@?$_Tree_nod@V?$_Tmap_traits@KPAU_BUYING_INFO3@@U?$less@K@std@@V?$allocator@U?$pair@$$CBKPAU_BUYING_INFO3@@@std@@@3@$0A@@std@@@2@PAU342@@Z 004085d0 f i AccountServer.obj
 0001:000075e0       ?_Myval@?$_Tree@V?$_Tmap_traits@KPAU_BUYING_INFO3@@U?$less@K@std@@V?$allocator@U?$pair@$$CBKPAU_BUYING_INFO3@@@std@@@3@$0A@@std@@@std@@KAAAU?$pair@$$CBKPAU_BUYING_INFO3@@@2@PAU_Node@?$_Tree_nod@V?$_Tmap_traits@KPAU_BUYING_INFO3@@U?$less@K@std@@V?$allocator@U?$pair@$$CBKPAU_BUYING_INFO3@@@std@@@3@$0A@@std@@@2@@Z 004085e0 f i AccountServer.obj
 0001:000075f0       ?deallocate@?$allocator@U_Node@?$_Tree_nod@V?$_Tmap_traits@KPAU_BUYING_INFO3@@U?$less@K@std@@V?$allocator@U?$pair@$$CBKPAU_BUYING_INFO3@@@std@@@3@$0A@@std@@@std@@@std@@QAEXPAU_Node@?$_Tree_nod@V?$_Tmap_traits@KPAU_BUYING_INFO3@@U?$less@K@std@@V?$allocator@U?$pair@$$CBKPAU_BUYING_INFO3@@@std@@@3@$0A@@std@@@2@I@Z 004085f0 f i AccountServer.obj
 0001:00007600       ??0const_iterator@?$_Tree@V?$_Tmap_traits@KPAU_BUYING_INFO3@@U?$less@K@std@@V?$allocator@U?$pair@$$CBKPAU_BUYING_INFO3@@@std@@@3@$0A@@std@@@std@@QAE@PAU_Node@?$_Tree_nod@V?$_Tmap_traits@KPAU_BUYING_INFO3@@U?$less@K@std@@V?$allocator@U?$pair@$$CBKPAU_BUYING_INFO3@@@std@@@3@$0A@@std@@@2@@Z 00408600 f i AccountServer.obj
 0001:00007610       ??Dconst_iterator@?$_Tree@V?$_Tmap_traits@KPAU_BUYING_INFO3@@U?$less@K@std@@V?$allocator@U?$pair@$$CBKPAU_BUYING_INFO3@@@std@@@3@$0A@@std@@@std@@QBEABU?$pair@$$CBKPAU_BUYING_INFO3@@@2@XZ 00408610 f i AccountServer.obj
 0001:00007620       ??0?$pair@Viterator@?$_Tree@V?$_Tmap_traits@KPAU_BUYING_INFO3@@U?$less@K@std@@V?$allocator@U?$pair@$$CBKPAU_BUYING_INFO3@@@std@@@3@$0A@@std@@@std@@V123@@std@@QAE@ABViterator@?$_Tree@V?$_Tmap_traits@KPAU_BUYING_INFO3@@U?$less@K@std@@V?$allocator@U?$pair@$$CBKPAU_BUYING_INFO3@@@std@@@3@$0A@@std@@@1@0@Z 00408620 f i AccountServer.obj
 0001:00007640       ??Yiterator@?$vector@KV?$allocator@K@std@@@std@@QAEAAV012@H@Z 00408640 f i AccountServer.obj
 0001:00007660       ??Dconst_iterator@?$vector@KV?$allocator@K@std@@@std@@QBEABKXZ 00408660 f i AccountServer.obj
 0001:00007670       ?max_size@?$allocator@U?$pair@$$CBKPAUtagSERVER_DESC@@@std@@@std@@QBEIXZ 00408670 f i AccountServer.obj
 0001:00007680       ?deallocate@?$allocator@U_Node@?$_Tree_nod@V?$_Tmap_traits@KPAUtagSERVER_DESC@@U?$less@K@std@@V?$allocator@U?$pair@$$CBKPAUtagSERVER_DESC@@@std@@@3@$0A@@std@@@std@@@std@@QAEXPAU_Node@?$_Tree_nod@V?$_Tmap_traits@KPAUtagSERVER_DESC@@U?$less@K@std@@V?$allocator@U?$pair@$$CBKPAUtagSERVER_DESC@@@std@@@3@$0A@@std@@@2@I@Z 00408680 f i AccountServer.obj
 0001:00007690       ?max_size@?$allocator@K@std@@QBEIXZ 00408690 f i AccountServer.obj
 0001:000076a0       ?deallocate@?$allocator@V?$CStringT@DV?$StrTraitMFC@DV?$ChTraitsCRT@D@ATL@@@@@ATL@@@std@@QAEXPAV?$CStringT@DV?$StrTraitMFC@DV?$ChTraitsCRT@D@ATL@@@@@ATL@@I@Z 004086a0 f i AccountServer.obj
 0001:000076b0       ?_Max@?$_Tree@V?$_Tmap_traits@KPAU_BUYING_INFO3@@U?$less@K@std@@V?$allocator@U?$pair@$$CBKPAU_BUYING_INFO3@@@std@@@3@$0A@@std@@@std@@KAPAU_Node@?$_Tree_nod@V?$_Tmap_traits@KPAU_BUYING_INFO3@@U?$less@K@std@@V?$allocator@U?$pair@$$CBKPAU_BUYING_INFO3@@@std@@@3@$0A@@std@@@2@PAU342@@Z 004086b0 f i AccountServer.obj
 0001:000076d0       ?_Min@?$_Tree@V?$_Tmap_traits@KPAU_BUYING_INFO3@@U?$less@K@std@@V?$allocator@U?$pair@$$CBKPAU_BUYING_INFO3@@@std@@@3@$0A@@std@@@std@@KAPAU_Node@?$_Tree_nod@V?$_Tmap_traits@KPAU_BUYING_INFO3@@U?$less@K@std@@V?$allocator@U?$pair@$$CBKPAU_BUYING_INFO3@@@std@@@3@$0A@@std@@@2@PAU342@@Z 004086d0 f i AccountServer.obj
 0001:000076f0       ?_Root@?$_Tree@V?$_Tmap_traits@KPAU_BUYING_INFO3@@U?$less@K@std@@V?$allocator@U?$pair@$$CBKPAU_BUYING_INFO3@@@std@@@3@$0A@@std@@@std@@IBEAAPAU_Node@?$_Tree_nod@V?$_Tmap_traits@KPAU_BUYING_INFO3@@U?$less@K@std@@V?$allocator@U?$pair@$$CBKPAU_BUYING_INFO3@@@std@@@3@$0A@@std@@@2@XZ 004086f0 f i AccountServer.obj
 0001:00007700       ??Yiterator@?$vector@V?$CStringT@DV?$StrTraitMFC@DV?$ChTraitsCRT@D@ATL@@@@@ATL@@V?$allocator@V?$CStringT@DV?$StrTraitMFC@DV?$ChTraitsCRT@D@ATL@@@@@ATL@@@std@@@std@@QAEAAV012@H@Z 00408700 f i AccountServer.obj
 0001:00007720       ??0const_iterator@?$vector@V?$CStringT@DV?$StrTraitMFC@DV?$ChTraitsCRT@D@ATL@@@@@ATL@@V?$allocator@V?$CStringT@DV?$StrTraitMFC@DV?$ChTraitsCRT@D@ATL@@@@@ATL@@@std@@@std@@QAE@PAV?$CStringT@DV?$StrTraitMFC@DV?$ChTraitsCRT@D@ATL@@@@@ATL@@@Z 00408720 f i AccountServer.obj
 0001:00007730       ??Gconst_iterator@?$vector@V?$CStringT@DV?$StrTraitMFC@DV?$ChTraitsCRT@D@ATL@@@@@ATL@@V?$allocator@V?$CStringT@DV?$StrTraitMFC@DV?$ChTraitsCRT@D@ATL@@@@@ATL@@@std@@@std@@QBEHABV012@@Z 00408730 f i AccountServer.obj
 0001:00007740       ??0const_iterator@?$vector@KV?$allocator@K@std@@@std@@QAE@PAK@Z 00408740 f i AccountServer.obj
 0001:00007750       ??Gconst_iterator@?$vector@KV?$allocator@K@std@@@std@@QBEHABV012@@Z 00408750 f i AccountServer.obj
 0001:00007760       ??Econst_iterator@?$list@PAXV?$allocator@PAX@std@@@std@@QAEAAV012@XZ 00408760 f i AccountServer.obj
 0001:00007770       ??8const_iterator@?$list@PAXV?$allocator@PAX@std@@@std@@QBE_NABV012@@Z 00408770 f i AccountServer.obj
 0001:00007780       ??0_Node@?$_Tree_nod@V?$_Tmap_traits@KPAUtagSERVER_DESC@@U?$less@K@std@@V?$allocator@U?$pair@$$CBKPAUtagSERVER_DESC@@@std@@@3@$0A@@std@@@std@@QAE@PAU012@00ABU?$pair@$$CBKPAUtagSERVER_DESC@@@2@D@Z 00408780 f i AccountServer.obj
 0001:000077c0       ?_Myval@?$list@PAXV?$allocator@PAX@std@@@std@@KAAAPAXPAU_Node@?$_List_nod@PAXV?$allocator@PAX@std@@@2@@Z 004087c0 f i AccountServer.obj
 0001:000077d0       ?_Max@?$_Tree@V?$_Tmap_traits@KPAUtagSERVER_DESC@@U?$less@K@std@@V?$allocator@U?$pair@$$CBKPAUtagSERVER_DESC@@@std@@@3@$0A@@std@@@std@@KAPAU_Node@?$_Tree_nod@V?$_Tmap_traits@KPAUtagSERVER_DESC@@U?$less@K@std@@V?$allocator@U?$pair@$$CBKPAUtagSERVER_DESC@@@std@@@3@$0A@@std@@@2@PAU342@@Z 004087d0 f i AccountServer.obj
 0001:000077f0       ?max_size@?$allocator@V?$CStringT@DV?$StrTraitMFC@DV?$ChTraitsCRT@D@ATL@@@@@ATL@@@std@@QBEIXZ 004087f0 f i AccountServer.obj
 0001:00007800       ??$_Allocate@K@std@@YAPAKIPAK@Z 00408800 f i AccountServer.obj
 0001:00007820       ??$_Destroy@U_Node@?$_Tree_nod@V?$_Tmap_traits@KPAU_BUYING_INFO3@@U?$less@K@std@@V?$allocator@U?$pair@$$CBKPAU_BUYING_INFO3@@@std@@@3@$0A@@std@@@std@@@std@@YAXPAU_Node@?$_Tree_nod@V?$_Tmap_traits@KPAU_BUYING_INFO3@@U?$less@K@std@@V?$allocator@U?$pair@$$CBKPAU_BUYING_INFO3@@@std@@@3@$0A@@std@@@0@@Z 00408820 f i AccountServer.obj
 0001:00007830       ??$fill@PAKK@std@@YAXPAK0ABK@Z 00408830 f i AccountServer.obj
 0001:00007850       ??$_Allocate@U_Node@?$_Tree_nod@V?$_Tmap_traits@KPAUtagSERVER_DESC@@U?$less@K@std@@V?$allocator@U?$pair@$$CBKPAUtagSERVER_DESC@@@std@@@3@$0A@@std@@@std@@@std@@YAPAU_Node@?$_Tree_nod@V?$_Tmap_traits@KPAUtagSERVER_DESC@@U?$less@K@std@@V?$allocator@U?$pair@$$CBKPAUtagSERVER_DESC@@@std@@@3@$0A@@std@@@0@IPAU120@@Z 00408850 f i AccountServer.obj
 0001:00007870       ??$_Allocate@V?$CStringT@DV?$StrTraitMFC@DV?$ChTraitsCRT@D@ATL@@@@@ATL@@@std@@YAPAV?$CStringT@DV?$StrTraitMFC@DV?$ChTraitsCRT@D@ATL@@@@@ATL@@IPAV12@@Z 00408870 f i AccountServer.obj
 0001:00007890       ?empty@?$deque@PAUtagDB_OVERLAPPED_PLUS@@V?$allocator@PAUtagDB_OVERLAPPED_PLUS@@@std@@@std@@QBE_NXZ 00408890 f i AccountServer.obj
 0001:000078a0       ?_Nextnode@?$list@PAUtagDB_OVERLAPPED_PLUS@@V?$allocator@PAUtagDB_OVERLAPPED_PLUS@@@std@@@std@@KAAAPAU_Node@?$_List_nod@PAUtagDB_OVERLAPPED_PLUS@@V?$allocator@PAUtagDB_OVERLAPPED_PLUS@@@std@@@2@PAU342@@Z 004088a0 f i AccountServer.obj
 0001:000078b0       ?_Prevnode@?$list@PAUtagDB_OVERLAPPED_PLUS@@V?$allocator@PAUtagDB_OVERLAPPED_PLUS@@@std@@@std@@KAAAPAU_Node@?$_List_nod@PAUtagDB_OVERLAPPED_PLUS@@V?$allocator@PAUtagDB_OVERLAPPED_PLUS@@@std@@@2@PAU342@@Z 004088b0 f i AccountServer.obj
 0001:000078c0       ?deallocate@?$allocator@U_Node@?$_List_nod@PAUtagDB_OVERLAPPED_PLUS@@V?$allocator@PAUtagDB_OVERLAPPED_PLUS@@@std@@@std@@@std@@QAEXPAU_Node@?$_List_nod@PAUtagDB_OVERLAPPED_PLUS@@V?$allocator@PAUtagDB_OVERLAPPED_PLUS@@@std@@@2@I@Z 004088c0 f i AccountServer.obj
 0001:000078d0       ?deallocate@?$allocator@PAPAUtagDB_OVERLAPPED_PLUS@@@std@@QAEXPAPAPAUtagDB_OVERLAPPED_PLUS@@I@Z 004088d0 f i AccountServer.obj
 0001:000078e0       ??0const_iterator@?$list@PAUtagDB_OVERLAPPED_PLUS@@V?$allocator@PAUtagDB_OVERLAPPED_PLUS@@@std@@@std@@QAE@PAU_Node@?$_List_nod@PAUtagDB_OVERLAPPED_PLUS@@V?$allocator@PAUtagDB_OVERLAPPED_PLUS@@@std@@@2@@Z 004088e0 f i AccountServer.obj
 0001:000078f0       ??Dconst_iterator@?$deque@PAUtagDB_OVERLAPPED_PLUS@@V?$allocator@PAUtagDB_OVERLAPPED_PLUS@@@std@@@std@@QBEABQAUtagDB_OVERLAPPED_PLUS@@XZ 004088f0 f i AccountServer.obj
 0001:00007920       ??Yiterator@?$deque@PAUtagDB_OVERLAPPED_PLUS@@V?$allocator@PAUtagDB_OVERLAPPED_PLUS@@@std@@@std@@QAEAAV012@H@Z 00408920 f i AccountServer.obj
 0001:00007940       ??0const_iterator@?$deque@PAUtagDB_OVERLAPPED_PLUS@@V?$allocator@PAUtagDB_OVERLAPPED_PLUS@@@std@@@std@@QAE@IPBV12@@Z 00408940 f i AccountServer.obj
 0001:00007960       ?Send@?$CDPSock@VCBuffer3@@@@QAEHPADKK@Z 00408960 f i AccountServer.obj
 0001:00007990       ??$_Iter_cat@Viterator@?$_Tree@V?$_Tmap_traits@KPAU_BUYING_INFO3@@U?$less@K@std@@V?$allocator@U?$pair@$$CBKPAU_BUYING_INFO3@@@std@@@3@$0A@@std@@@std@@@std@@YA?AUbidirectional_iterator_tag@0@ABViterator@?$_Tree@V?$_Tmap_traits@KPAU_BUYING_INFO3@@U?$less@K@std@@V?$allocator@U?$pair@$$CBKPAU_BUYING_INFO3@@@std@@@3@$0A@@std@@@0@@Z 00408990 f i AccountServer.obj
 0001:000079a0       ??$_Ptr_cat@PAV?$CStringT@DV?$StrTraitMFC@DV?$ChTraitsCRT@D@ATL@@@@@ATL@@PAV12@@std@@YA?AU_Nonscalar_ptr_iterator_tag@0@AAPAV?$CStringT@DV?$StrTraitMFC@DV?$ChTraitsCRT@D@ATL@@@@@ATL@@0@Z 004089a0 f i AccountServer.obj
 0001:000079b0       ??$_Destroy_range@KV?$allocator@K@std@@@std@@YAXPAK0AAV?$allocator@K@0@U_Scalar_ptr_iterator_tag@0@@Z 004089b0 f i AccountServer.obj
 0001:000079c0       ??$_Copy_backward_opt@PAKPAK@std@@YAPAKPAK00U_Scalar_ptr_iterator_tag@0@@Z 004089c0 f i AccountServer.obj
 0001:000079f0       ??$_Destroy@PAUtagDB_OVERLAPPED_PLUS@@@std@@YAXPAPAUtagDB_OVERLAPPED_PLUS@@@Z 004089f0 f i AccountServer.obj
 0001:00007a00       ?_Mynode@const_iterator@?$list@PAUtagDB_OVERLAPPED_PLUS@@V?$allocator@PAUtagDB_OVERLAPPED_PLUS@@@std@@@std@@QBEPAU_Node@?$_List_nod@PAUtagDB_OVERLAPPED_PLUS@@V?$allocator@PAUtagDB_OVERLAPPED_PLUS@@@std@@@3@XZ 00408a00 f i AccountServer.obj
 0001:00007a10       ??0_Node@?$_List_nod@PAUtagDB_OVERLAPPED_PLUS@@V?$allocator@PAUtagDB_OVERLAPPED_PLUS@@@std@@@std@@QAE@PAU012@0ABQAUtagDB_OVERLAPPED_PLUS@@@Z 00408a10 f i AccountServer.obj
 0001:00007a30       ?max_size@?$allocator@PAUtagDB_OVERLAPPED_PLUS@@@std@@QBEIXZ 00408a30 f i AccountServer.obj
 0001:00007a40       ?InitializeConnection@?$CDPSock@VCBuffer@@@@QAEHPAXK@Z 00408a40 f i AccountServer.obj
 0001:00007a80       ?InitializeConnection@?$CDPSock@VCBuffer3@@@@QAEHPAXK@Z 00408a80 f i AccountServer.obj
 0001:00007ac0       ??$fill_n@PAKIK@std@@YAXPAKIABK@Z 00408ac0 f i AccountServer.obj
 0001:00007ae0       ??$_Uninit_copy@KK@std@@YAPAKPAK00AAV?$allocator@K@0@U_Scalar_ptr_iterator_tag@0@@Z 00408ae0 f i AccountServer.obj
 0001:00007b10       ??$_Allocate@PAUtagDB_OVERLAPPED_PLUS@@@std@@YAPAPAUtagDB_OVERLAPPED_PLUS@@IPAPAU1@@Z 00408b10 f i AccountServer.obj
 0001:00007b30       ??$_Construct@PAUtagDB_OVERLAPPED_PLUS@@PAU1@@std@@YAXPAPAUtagDB_OVERLAPPED_PLUS@@ABQAU1@@Z 00408b30 f i AccountServer.obj
 0001:00007b50       ??$_Allocate@PAPAUtagDB_OVERLAPPED_PLUS@@@std@@YAPAPAPAUtagDB_OVERLAPPED_PLUS@@IPAPAPAU1@@Z 00408b50 f i AccountServer.obj
 0001:00007b70       ??$_Allocate@U_Node@?$_List_nod@PAUtagDB_OVERLAPPED_PLUS@@V?$allocator@PAUtagDB_OVERLAPPED_PLUS@@@std@@@std@@@std@@YAPAU_Node@?$_List_nod@PAUtagDB_OVERLAPPED_PLUS@@V?$allocator@PAUtagDB_OVERLAPPED_PLUS@@@std@@@0@IPAU120@@Z 00408b70 f i AccountServer.obj
 0001:00007b90       ?size@?$list@PAXV?$allocator@PAX@std@@@std@@QBEIXZ 00408b90 f i AccountServer.obj
 0001:00007ba0       ?_Left@?$_Tree@V?$_Tmap_traits@KPAV?$CClientSock@VCBuffer@@@@U?$less@K@std@@V?$allocator@U?$pair@$$CBKPAV?$CClientSock@VCBuffer@@@@@std@@@3@$0A@@std@@@std@@KAAAPAU_Node@?$_Tree_nod@V?$_Tmap_traits@KPAV?$CClientSock@VCBuffer@@@@U?$less@K@std@@V?$allocator@U?$pair@$$CBKPAV?$CClientSock@VCBuffer@@@@@std@@@3@$0A@@std@@@2@PAU342@@Z 00408ba0 f i AccountServer.obj
 0001:00007bb0       ?_Parent@?$_Tree@V?$_Tmap_traits@KPAV?$CClientSock@VCBuffer@@@@U?$less@K@std@@V?$allocator@U?$pair@$$CBKPAV?$CClientSock@VCBuffer@@@@@std@@@3@$0A@@std@@@std@@KAAAPAU_Node@?$_Tree_nod@V?$_Tmap_traits@KPAV?$CClientSock@VCBuffer@@@@U?$less@K@std@@V?$allocator@U?$pair@$$CBKPAV?$CClientSock@VCBuffer@@@@@std@@@3@$0A@@std@@@2@PAU342@@Z 00408bb0 f i AccountServer.obj
 0001:00007bc0       ?_Right@?$_Tree@V?$_Tmap_traits@KPAV?$CClientSock@VCBuffer@@@@U?$less@K@std@@V?$allocator@U?$pair@$$CBKPAV?$CClientSock@VCBuffer@@@@@std@@@3@$0A@@std@@@std@@KAAAPAU_Node@?$_Tree_nod@V?$_Tmap_traits@KPAV?$CClientSock@VCBuffer@@@@U?$less@K@std@@V?$allocator@U?$pair@$$CBKPAV?$CClientSock@VCBuffer@@@@@std@@@3@$0A@@std@@@2@PAU342@@Z 00408bc0 f i AccountServer.obj
 0001:00007bd0       ?deallocate@?$allocator@U_Node@?$_Tree_nod@V?$_Tmap_traits@KPAV?$CClientSock@VCBuffer@@@@U?$less@K@std@@V?$allocator@U?$pair@$$CBKPAV?$CClientSock@VCBuffer@@@@@std@@@3@$0A@@std@@@std@@@std@@QAEXPAU_Node@?$_Tree_nod@V?$_Tmap_traits@KPAV?$CClientSock@VCBuffer@@@@U?$less@K@std@@V?$allocator@U?$pair@$$CBKPAV?$CClientSock@VCBuffer@@@@@std@@@3@$0A@@std@@@2@I@Z 00408bd0 f i AccountServer.obj
 0001:00007be0       ?_Left@?$_Tree@V?$_Tmap_traits@KPAV?$CClientSockE@VCBuffer@@@@U?$less@K@std@@V?$allocator@U?$pair@$$CBKPAV?$CClientSockE@VCBuffer@@@@@std@@@3@$0A@@std@@@std@@KAAAPAU_Node@?$_Tree_nod@V?$_Tmap_traits@KPAV?$CClientSockE@VCBuffer@@@@U?$less@K@std@@V?$allocator@U?$pair@$$CBKPAV?$CClientSockE@VCBuffer@@@@@std@@@3@$0A@@std@@@2@PAU342@@Z 00408be0 f i AccountServer.obj
 0001:00007bf0       ?_Parent@?$_Tree@V?$_Tmap_traits@KPAV?$CClientSockE@VCBuffer@@@@U?$less@K@std@@V?$allocator@U?$pair@$$CBKPAV?$CClientSockE@VCBuffer@@@@@std@@@3@$0A@@std@@@std@@KAAAPAU_Node@?$_Tree_nod@V?$_Tmap_traits@KPAV?$CClientSockE@VCBuffer@@@@U?$less@K@std@@V?$allocator@U?$pair@$$CBKPAV?$CClientSockE@VCBuffer@@@@@std@@@3@$0A@@std@@@2@PAU342@@Z 00408bf0 f i AccountServer.obj
 0001:00007c00       ?_Right@?$_Tree@V?$_Tmap_traits@KPAV?$CClientSockE@VCBuffer@@@@U?$less@K@std@@V?$allocator@U?$pair@$$CBKPAV?$CClientSockE@VCBuffer@@@@@std@@@3@$0A@@std@@@std@@KAAAPAU_Node@?$_Tree_nod@V?$_Tmap_traits@KPAV?$CClientSockE@VCBuffer@@@@U?$less@K@std@@V?$allocator@U?$pair@$$CBKPAV?$CClientSockE@VCBuffer@@@@@std@@@3@$0A@@std@@@2@PAU342@@Z 00408c00 f i AccountServer.obj
 0001:00007c10       ?deallocate@?$allocator@U_Node@?$_Tree_nod@V?$_Tmap_traits@KPAV?$CClientSockE@VCBuffer@@@@U?$less@K@std@@V?$allocator@U?$pair@$$CBKPAV?$CClientSockE@VCBuffer@@@@@std@@@3@$0A@@std@@@std@@@std@@QAEXPAU_Node@?$_Tree_nod@V?$_Tmap_traits@KPAV?$CClientSockE@VCBuffer@@@@U?$less@K@std@@V?$allocator@U?$pair@$$CBKPAV?$CClientSockE@VCBuffer@@@@@std@@@3@$0A@@std@@@2@I@Z 00408c10 f i AccountServer.obj
 0001:00007c20       ?_Left@?$_Tree@V?$_Tmap_traits@KPAV?$CClientSock@VCBuffer3@@@@U?$less@K@std@@V?$allocator@U?$pair@$$CBKPAV?$CClientSock@VCBuffer3@@@@@std@@@3@$0A@@std@@@std@@KAAAPAU_Node@?$_Tree_nod@V?$_Tmap_traits@KPAV?$CClientSock@VCBuffer3@@@@U?$less@K@std@@V?$allocator@U?$pair@$$CBKPAV?$CClientSock@VCBuffer3@@@@@std@@@3@$0A@@std@@@2@PAU342@@Z 00408c20 f i AccountServer.obj
 0001:00007c30       ?_Parent@?$_Tree@V?$_Tmap_traits@KPAV?$CClientSock@VCBuffer3@@@@U?$less@K@std@@V?$allocator@U?$pair@$$CBKPAV?$CClientSock@VCBuffer3@@@@@std@@@3@$0A@@std@@@std@@KAAAPAU_Node@?$_Tree_nod@V?$_Tmap_traits@KPAV?$CClientSock@VCBuffer3@@@@U?$less@K@std@@V?$allocator@U?$pair@$$CBKPAV?$CClientSock@VCBuffer3@@@@@std@@@3@$0A@@std@@@2@PAU342@@Z 00408c30 f i AccountServer.obj
 0001:00007c40       ?_Right@?$_Tree@V?$_Tmap_traits@KPAV?$CClientSock@VCBuffer3@@@@U?$less@K@std@@V?$allocator@U?$pair@$$CBKPAV?$CClientSock@VCBuffer3@@@@@std@@@3@$0A@@std@@@std@@KAAAPAU_Node@?$_Tree_nod@V?$_Tmap_traits@KPAV?$CClientSock@VCBuffer3@@@@U?$less@K@std@@V?$allocator@U?$pair@$$CBKPAV?$CClientSock@VCBuffer3@@@@@std@@@3@$0A@@std@@@2@PAU342@@Z 00408c40 f i AccountServer.obj
 0001:00007c50       ?deallocate@?$allocator@U_Node@?$_Tree_nod@V?$_Tmap_traits@KPAV?$CClientSock@VCBuffer3@@@@U?$less@K@std@@V?$allocator@U?$pair@$$CBKPAV?$CClientSock@VCBuffer3@@@@@std@@@3@$0A@@std@@@std@@@std@@QAEXPAU_Node@?$_Tree_nod@V?$_Tmap_traits@KPAV?$CClientSock@VCBuffer3@@@@U?$less@K@std@@V?$allocator@U?$pair@$$CBKPAV?$CClientSock@VCBuffer3@@@@@std@@@3@$0A@@std@@@2@I@Z 00408c50 f i AccountServer.obj
 0001:00007c60       ?_Left@?$_Tree@V?$_Tmap_traits@KPAV?$CClientSockE@VCBuffer3@@@@U?$less@K@std@@V?$allocator@U?$pair@$$CBKPAV?$CClientSockE@VCBuffer3@@@@@std@@@3@$0A@@std@@@std@@KAAAPAU_Node@?$_Tree_nod@V?$_Tmap_traits@KPAV?$CClientSockE@VCBuffer3@@@@U?$less@K@std@@V?$allocator@U?$pair@$$CBKPAV?$CClientSockE@VCBuffer3@@@@@std@@@3@$0A@@std@@@2@PAU342@@Z 00408c60 f i AccountServer.obj
 0001:00007c70       ?_Parent@?$_Tree@V?$_Tmap_traits@KPAV?$CClientSockE@VCBuffer3@@@@U?$less@K@std@@V?$allocator@U?$pair@$$CBKPAV?$CClientSockE@VCBuffer3@@@@@std@@@3@$0A@@std@@@std@@KAAAPAU_Node@?$_Tree_nod@V?$_Tmap_traits@KPAV?$CClientSockE@VCBuffer3@@@@U?$less@K@std@@V?$allocator@U?$pair@$$CBKPAV?$CClientSockE@VCBuffer3@@@@@std@@@3@$0A@@std@@@2@PAU342@@Z 00408c70 f i AccountServer.obj
 0001:00007c80       ?_Right@?$_Tree@V?$_Tmap_traits@KPAV?$CClientSockE@VCBuffer3@@@@U?$less@K@std@@V?$allocator@U?$pair@$$CBKPAV?$CClientSockE@VCBuffer3@@@@@std@@@3@$0A@@std@@@std@@KAAAPAU_Node@?$_Tree_nod@V?$_Tmap_traits@KPAV?$CClientSockE@VCBuffer3@@@@U?$less@K@std@@V?$allocator@U?$pair@$$CBKPAV?$CClientSockE@VCBuffer3@@@@@std@@@3@$0A@@std@@@2@PAU342@@Z 00408c80 f i AccountServer.obj
 0001:00007c90       ?deallocate@?$allocator@U_Node@?$_Tree_nod@V?$_Tmap_traits@KPAV?$CClientSockE@VCBuffer3@@@@U?$less@K@std@@V?$allocator@U?$pair@$$CBKPAV?$CClientSockE@VCBuffer3@@@@@std@@@3@$0A@@std@@@std@@@std@@QAEXPAU_Node@?$_Tree_nod@V?$_Tmap_traits@KPAV?$CClientSockE@VCBuffer3@@@@U?$less@K@std@@V?$allocator@U?$pair@$$CBKPAV?$CClientSockE@VCBuffer3@@@@@std@@@3@$0A@@std@@@2@I@Z 00408c90 f i AccountServer.obj
 0001:00007ca0       ?_Lmost@?$_Tree@V?$_Tmap_traits@KPAV?$CClientSock@VCBuffer@@@@U?$less@K@std@@V?$allocator@U?$pair@$$CBKPAV?$CClientSock@VCBuffer@@@@@std@@@3@$0A@@std@@@std@@IAEAAPAU_Node@?$_Tree_nod@V?$_Tmap_traits@KPAV?$CClientSock@VCBuffer@@@@U?$less@K@std@@V?$allocator@U?$pair@$$CBKPAV?$CClientSock@VCBuffer@@@@@std@@@3@$0A@@std@@@2@XZ 00408ca0 f i AccountServer.obj
 0001:00007cb0       ?_Lmost@?$_Tree@V?$_Tmap_traits@KPAV?$CClientSockE@VCBuffer@@@@U?$less@K@std@@V?$allocator@U?$pair@$$CBKPAV?$CClientSockE@VCBuffer@@@@@std@@@3@$0A@@std@@@std@@IAEAAPAU_Node@?$_Tree_nod@V?$_Tmap_traits@KPAV?$CClientSockE@VCBuffer@@@@U?$less@K@std@@V?$allocator@U?$pair@$$CBKPAV?$CClientSockE@VCBuffer@@@@@std@@@3@$0A@@std@@@2@XZ 00408cb0 f i AccountServer.obj
 0001:00007cc0       ?_Lmost@?$_Tree@V?$_Tmap_traits@KPAV?$CClientSock@VCBuffer3@@@@U?$less@K@std@@V?$allocator@U?$pair@$$CBKPAV?$CClientSock@VCBuffer3@@@@@std@@@3@$0A@@std@@@std@@IAEAAPAU_Node@?$_Tree_nod@V?$_Tmap_traits@KPAV?$CClientSock@VCBuffer3@@@@U?$less@K@std@@V?$allocator@U?$pair@$$CBKPAV?$CClientSock@VCBuffer3@@@@@std@@@3@$0A@@std@@@2@XZ 00408cc0 f i AccountServer.obj
 0001:00007cd0       ?_Lmost@?$_Tree@V?$_Tmap_traits@KPAV?$CClientSockE@VCBuffer3@@@@U?$less@K@std@@V?$allocator@U?$pair@$$CBKPAV?$CClientSockE@VCBuffer3@@@@@std@@@3@$0A@@std@@@std@@IAEAAPAU_Node@?$_Tree_nod@V?$_Tmap_traits@KPAV?$CClientSockE@VCBuffer3@@@@U?$less@K@std@@V?$allocator@U?$pair@$$CBKPAV?$CClientSockE@VCBuffer3@@@@@std@@@3@$0A@@std@@@2@XZ 00408cd0 f i AccountServer.obj
 0001:00007ce0       ??8const_iterator@?$_Tree@V?$_Tmap_traits@KPAV?$CClientSock@VCBuffer@@@@U?$less@K@std@@V?$allocator@U?$pair@$$CBKPAV?$CClientSock@VCBuffer@@@@@std@@@3@$0A@@std@@@std@@QBE_NABV012@@Z 00408ce0 f i AccountServer.obj
 0001:00007cf0       ??9const_iterator@?$_Tree@V?$_Tmap_traits@KPAV?$CClientSock@VCBuffer@@@@U?$less@K@std@@V?$allocator@U?$pair@$$CBKPAV?$CClientSock@VCBuffer@@@@@std@@@3@$0A@@std@@@std@@QBE_NABV012@@Z 00408cf0 f i AccountServer.obj
 0001:00007d10       ??8const_iterator@?$_Tree@V?$_Tmap_traits@KPAV?$CClientSockE@VCBuffer@@@@U?$less@K@std@@V?$allocator@U?$pair@$$CBKPAV?$CClientSockE@VCBuffer@@@@@std@@@3@$0A@@std@@@std@@QBE_NABV012@@Z 00408d10 f i AccountServer.obj
 0001:00007d20       ??9const_iterator@?$_Tree@V?$_Tmap_traits@KPAV?$CClientSockE@VCBuffer@@@@U?$less@K@std@@V?$allocator@U?$pair@$$CBKPAV?$CClientSockE@VCBuffer@@@@@std@@@3@$0A@@std@@@std@@QBE_NABV012@@Z 00408d20 f i AccountServer.obj
 0001:00007d40       ??8const_iterator@?$_Tree@V?$_Tmap_traits@KPAV?$CClientSock@VCBuffer3@@@@U?$less@K@std@@V?$allocator@U?$pair@$$CBKPAV?$CClientSock@VCBuffer3@@@@@std@@@3@$0A@@std@@@std@@QBE_NABV012@@Z 00408d40 f i AccountServer.obj
 0001:00007d50       ??9const_iterator@?$_Tree@V?$_Tmap_traits@KPAV?$CClientSock@VCBuffer3@@@@U?$less@K@std@@V?$allocator@U?$pair@$$CBKPAV?$CClientSock@VCBuffer3@@@@@std@@@3@$0A@@std@@@std@@QBE_NABV012@@Z 00408d50 f i AccountServer.obj
 0001:00007d70       ??8const_iterator@?$_Tree@V?$_Tmap_traits@KPAV?$CClientSockE@VCBuffer3@@@@U?$less@K@std@@V?$allocator@U?$pair@$$CBKPAV?$CClientSockE@VCBuffer3@@@@@std@@@3@$0A@@std@@@std@@QBE_NABV012@@Z 00408d70 f i AccountServer.obj
 0001:00007d80       ??9const_iterator@?$_Tree@V?$_Tmap_traits@KPAV?$CClientSockE@VCBuffer3@@@@U?$less@K@std@@V?$allocator@U?$pair@$$CBKPAV?$CClientSockE@VCBuffer3@@@@@std@@@3@$0A@@std@@@std@@QBE_NABV012@@Z 00408d80 f i AccountServer.obj
 0001:00007da0       ?_Color@?$_Tree@V?$_Tmap_traits@KPAV?$CClientSock@VCBuffer@@@@U?$less@K@std@@V?$allocator@U?$pair@$$CBKPAV?$CClientSock@VCBuffer@@@@@std@@@3@$0A@@std@@@std@@KAAADPAU_Node@?$_Tree_nod@V?$_Tmap_traits@KPAV?$CClientSock@VCBuffer@@@@U?$less@K@std@@V?$allocator@U?$pair@$$CBKPAV?$CClientSock@VCBuffer@@@@@std@@@3@$0A@@std@@@2@@Z 00408da0 f i AccountServer.obj
 0001:00007db0       ?_Isnil@?$_Tree@V?$_Tmap_traits@KPAV?$CClientSock@VCBuffer@@@@U?$less@K@std@@V?$allocator@U?$pair@$$CBKPAV?$CClientSock@VCBuffer@@@@@std@@@3@$0A@@std@@@std@@KAAADPAU_Node@?$_Tree_nod@V?$_Tmap_traits@KPAV?$CClientSock@VCBuffer@@@@U?$less@K@std@@V?$allocator@U?$pair@$$CBKPAV?$CClientSock@VCBuffer@@@@@std@@@3@$0A@@std@@@2@@Z 00408db0 f i AccountServer.obj
 0001:00007dc0       ?_Max@?$_Tree@V?$_Tmap_traits@KPAV?$CClientSock@VCBuffer@@@@U?$less@K@std@@V?$allocator@U?$pair@$$CBKPAV?$CClientSock@VCBuffer@@@@@std@@@3@$0A@@std@@@std@@KAPAU_Node@?$_Tree_nod@V?$_Tmap_traits@KPAV?$CClientSock@VCBuffer@@@@U?$less@K@std@@V?$allocator@U?$pair@$$CBKPAV?$CClientSock@VCBuffer@@@@@std@@@3@$0A@@std@@@2@PAU342@@Z 00408dc0 f i AccountServer.obj
 0001:00007de0       ?_Min@?$_Tree@V?$_Tmap_traits@KPAV?$CClientSock@VCBuffer@@@@U?$less@K@std@@V?$allocator@U?$pair@$$CBKPAV?$CClientSock@VCBuffer@@@@@std@@@3@$0A@@std@@@std@@KAPAU_Node@?$_Tree_nod@V?$_Tmap_traits@KPAV?$CClientSock@VCBuffer@@@@U?$less@K@std@@V?$allocator@U?$pair@$$CBKPAV?$CClientSock@VCBuffer@@@@@std@@@3@$0A@@std@@@2@PAU342@@Z 00408de0 f i AccountServer.obj
 0001:00007e00       ?_Rmost@?$_Tree@V?$_Tmap_traits@KPAV?$CClientSock@VCBuffer@@@@U?$less@K@std@@V?$allocator@U?$pair@$$CBKPAV?$CClientSock@VCBuffer@@@@@std@@@3@$0A@@std@@@std@@IAEAAPAU_Node@?$_Tree_nod@V?$_Tmap_traits@KPAV?$CClientSock@VCBuffer@@@@U?$less@K@std@@V?$allocator@U?$pair@$$CBKPAV?$CClientSock@VCBuffer@@@@@std@@@3@$0A@@std@@@2@XZ 00408e00 f i AccountServer.obj
 0001:00007e10       ?_Root@?$_Tree@V?$_Tmap_traits@KPAV?$CClientSock@VCBuffer@@@@U?$less@K@std@@V?$allocator@U?$pair@$$CBKPAV?$CClientSock@VCBuffer@@@@@std@@@3@$0A@@std@@@std@@IAEAAPAU_Node@?$_Tree_nod@V?$_Tmap_traits@KPAV?$CClientSock@VCBuffer@@@@U?$less@K@std@@V?$allocator@U?$pair@$$CBKPAV?$CClientSock@VCBuffer@@@@@std@@@3@$0A@@std@@@2@XZ 00408e10 f i AccountServer.obj
 0001:00007e20       ?_Rrotate@?$_Tree@V?$_Tmap_traits@KPAV?$CClientSock@VCBuffer@@@@U?$less@K@std@@V?$allocator@U?$pair@$$CBKPAV?$CClientSock@VCBuffer@@@@@std@@@3@$0A@@std@@@std@@IAEXPAU_Node@?$_Tree_nod@V?$_Tmap_traits@KPAV?$CClientSock@VCBuffer@@@@U?$less@K@std@@V?$allocator@U?$pair@$$CBKPAV?$CClientSock@VCBuffer@@@@@std@@@3@$0A@@std@@@2@@Z 00408e20 f i AccountServer.obj
 0001:00007e80       ?_Color@?$_Tree@V?$_Tmap_traits@KPAV?$CClientSockE@VCBuffer@@@@U?$less@K@std@@V?$allocator@U?$pair@$$CBKPAV?$CClientSockE@VCBuffer@@@@@std@@@3@$0A@@std@@@std@@KAAADPAU_Node@?$_Tree_nod@V?$_Tmap_traits@KPAV?$CClientSockE@VCBuffer@@@@U?$less@K@std@@V?$allocator@U?$pair@$$CBKPAV?$CClientSockE@VCBuffer@@@@@std@@@3@$0A@@std@@@2@@Z 00408e80 f i AccountServer.obj
 0001:00007e90       ?_Isnil@?$_Tree@V?$_Tmap_traits@KPAV?$CClientSockE@VCBuffer@@@@U?$less@K@std@@V?$allocator@U?$pair@$$CBKPAV?$CClientSockE@VCBuffer@@@@@std@@@3@$0A@@std@@@std@@KAAADPAU_Node@?$_Tree_nod@V?$_Tmap_traits@KPAV?$CClientSockE@VCBuffer@@@@U?$less@K@std@@V?$allocator@U?$pair@$$CBKPAV?$CClientSockE@VCBuffer@@@@@std@@@3@$0A@@std@@@2@@Z 00408e90 f i AccountServer.obj
 0001:00007ea0       ?_Max@?$_Tree@V?$_Tmap_traits@KPAV?$CClientSockE@VCBuffer@@@@U?$less@K@std@@V?$allocator@U?$pair@$$CBKPAV?$CClientSockE@VCBuffer@@@@@std@@@3@$0A@@std@@@std@@KAPAU_Node@?$_Tree_nod@V?$_Tmap_traits@KPAV?$CClientSockE@VCBuffer@@@@U?$less@K@std@@V?$allocator@U?$pair@$$CBKPAV?$CClientSockE@VCBuffer@@@@@std@@@3@$0A@@std@@@2@PAU342@@Z 00408ea0 f i AccountServer.obj
 0001:00007ec0       ?_Min@?$_Tree@V?$_Tmap_traits@KPAV?$CClientSockE@VCBuffer@@@@U?$less@K@std@@V?$allocator@U?$pair@$$CBKPAV?$CClientSockE@VCBuffer@@@@@std@@@3@$0A@@std@@@std@@KAPAU_Node@?$_Tree_nod@V?$_Tmap_traits@KPAV?$CClientSockE@VCBuffer@@@@U?$less@K@std@@V?$allocator@U?$pair@$$CBKPAV?$CClientSockE@VCBuffer@@@@@std@@@3@$0A@@std@@@2@PAU342@@Z 00408ec0 f i AccountServer.obj
 0001:00007ee0       ?_Rmost@?$_Tree@V?$_Tmap_traits@KPAV?$CClientSockE@VCBuffer@@@@U?$less@K@std@@V?$allocator@U?$pair@$$CBKPAV?$CClientSockE@VCBuffer@@@@@std@@@3@$0A@@std@@@std@@IAEAAPAU_Node@?$_Tree_nod@V?$_Tmap_traits@KPAV?$CClientSockE@VCBuffer@@@@U?$less@K@std@@V?$allocator@U?$pair@$$CBKPAV?$CClientSockE@VCBuffer@@@@@std@@@3@$0A@@std@@@2@XZ 00408ee0 f i AccountServer.obj
 0001:00007ef0       ?_Root@?$_Tree@V?$_Tmap_traits@KPAV?$CClientSockE@VCBuffer@@@@U?$less@K@std@@V?$allocator@U?$pair@$$CBKPAV?$CClientSockE@VCBuffer@@@@@std@@@3@$0A@@std@@@std@@IAEAAPAU_Node@?$_Tree_nod@V?$_Tmap_traits@KPAV?$CClientSockE@VCBuffer@@@@U?$less@K@std@@V?$allocator@U?$pair@$$CBKPAV?$CClientSockE@VCBuffer@@@@@std@@@3@$0A@@std@@@2@XZ 00408ef0 f i AccountServer.obj
 0001:00007f00       ?_Rrotate@?$_Tree@V?$_Tmap_traits@KPAV?$CClientSockE@VCBuffer@@@@U?$less@K@std@@V?$allocator@U?$pair@$$CBKPAV?$CClientSockE@VCBuffer@@@@@std@@@3@$0A@@std@@@std@@IAEXPAU_Node@?$_Tree_nod@V?$_Tmap_traits@KPAV?$CClientSockE@VCBuffer@@@@U?$less@K@std@@V?$allocator@U?$pair@$$CBKPAV?$CClientSockE@VCBuffer@@@@@std@@@3@$0A@@std@@@2@@Z 00408f00 f i AccountServer.obj
 0001:00007f60       ?_Color@?$_Tree@V?$_Tmap_traits@KPAV?$CClientSock@VCBuffer3@@@@U?$less@K@std@@V?$allocator@U?$pair@$$CBKPAV?$CClientSock@VCBuffer3@@@@@std@@@3@$0A@@std@@@std@@KAAADPAU_Node@?$_Tree_nod@V?$_Tmap_traits@KPAV?$CClientSock@VCBuffer3@@@@U?$less@K@std@@V?$allocator@U?$pair@$$CBKPAV?$CClientSock@VCBuffer3@@@@@std@@@3@$0A@@std@@@2@@Z 00408f60 f i AccountServer.obj
 0001:00007f70       ?_Isnil@?$_Tree@V?$_Tmap_traits@KPAV?$CClientSock@VCBuffer3@@@@U?$less@K@std@@V?$allocator@U?$pair@$$CBKPAV?$CClientSock@VCBuffer3@@@@@std@@@3@$0A@@std@@@std@@KAAADPAU_Node@?$_Tree_nod@V?$_Tmap_traits@KPAV?$CClientSock@VCBuffer3@@@@U?$less@K@std@@V?$allocator@U?$pair@$$CBKPAV?$CClientSock@VCBuffer3@@@@@std@@@3@$0A@@std@@@2@@Z 00408f70 f i AccountServer.obj
 0001:00007f80       ?_Max@?$_Tree@V?$_Tmap_traits@KPAV?$CClientSock@VCBuffer3@@@@U?$less@K@std@@V?$allocator@U?$pair@$$CBKPAV?$CClientSock@VCBuffer3@@@@@std@@@3@$0A@@std@@@std@@KAPAU_Node@?$_Tree_nod@V?$_Tmap_traits@KPAV?$CClientSock@VCBuffer3@@@@U?$less@K@std@@V?$allocator@U?$pair@$$CBKPAV?$CClientSock@VCBuffer3@@@@@std@@@3@$0A@@std@@@2@PAU342@@Z 00408f80 f i AccountServer.obj
 0001:00007fa0       ?_Min@?$_Tree@V?$_Tmap_traits@KPAV?$CClientSock@VCBuffer3@@@@U?$less@K@std@@V?$allocator@U?$pair@$$CBKPAV?$CClientSock@VCBuffer3@@@@@std@@@3@$0A@@std@@@std@@KAPAU_Node@?$_Tree_nod@V?$_Tmap_traits@KPAV?$CClientSock@VCBuffer3@@@@U?$less@K@std@@V?$allocator@U?$pair@$$CBKPAV?$CClientSock@VCBuffer3@@@@@std@@@3@$0A@@std@@@2@PAU342@@Z 00408fa0 f i AccountServer.obj
 0001:00007fc0       ?_Rmost@?$_Tree@V?$_Tmap_traits@KPAV?$CClientSock@VCBuffer3@@@@U?$less@K@std@@V?$allocator@U?$pair@$$CBKPAV?$CClientSock@VCBuffer3@@@@@std@@@3@$0A@@std@@@std@@IAEAAPAU_Node@?$_Tree_nod@V?$_Tmap_traits@KPAV?$CClientSock@VCBuffer3@@@@U?$less@K@std@@V?$allocator@U?$pair@$$CBKPAV?$CClientSock@VCBuffer3@@@@@std@@@3@$0A@@std@@@2@XZ 00408fc0 f i AccountServer.obj
 0001:00007fd0       ?_Root@?$_Tree@V?$_Tmap_traits@KPAV?$CClientSock@VCBuffer3@@@@U?$less@K@std@@V?$allocator@U?$pair@$$CBKPAV?$CClientSock@VCBuffer3@@@@@std@@@3@$0A@@std@@@std@@IAEAAPAU_Node@?$_Tree_nod@V?$_Tmap_traits@KPAV?$CClientSock@VCBuffer3@@@@U?$less@K@std@@V?$allocator@U?$pair@$$CBKPAV?$CClientSock@VCBuffer3@@@@@std@@@3@$0A@@std@@@2@XZ 00408fd0 f i AccountServer.obj
 0001:00007fe0       ?_Rrotate@?$_Tree@V?$_Tmap_traits@KPAV?$CClientSock@VCBuffer3@@@@U?$less@K@std@@V?$allocator@U?$pair@$$CBKPAV?$CClientSock@VCBuffer3@@@@@std@@@3@$0A@@std@@@std@@IAEXPAU_Node@?$_Tree_nod@V?$_Tmap_traits@KPAV?$CClientSock@VCBuffer3@@@@U?$less@K@std@@V?$allocator@U?$pair@$$CBKPAV?$CClientSock@VCBuffer3@@@@@std@@@3@$0A@@std@@@2@@Z 00408fe0 f i AccountServer.obj
 0001:00008040       ?_Color@?$_Tree@V?$_Tmap_traits@KPAV?$CClientSockE@VCBuffer3@@@@U?$less@K@std@@V?$allocator@U?$pair@$$CBKPAV?$CClientSockE@VCBuffer3@@@@@std@@@3@$0A@@std@@@std@@KAAADPAU_Node@?$_Tree_nod@V?$_Tmap_traits@KPAV?$CClientSockE@VCBuffer3@@@@U?$less@K@std@@V?$allocator@U?$pair@$$CBKPAV?$CClientSockE@VCBuffer3@@@@@std@@@3@$0A@@std@@@2@@Z 00409040 f i AccountServer.obj
 0001:00008050       ?_Isnil@?$_Tree@V?$_Tmap_traits@KPAV?$CClientSockE@VCBuffer3@@@@U?$less@K@std@@V?$allocator@U?$pair@$$CBKPAV?$CClientSockE@VCBuffer3@@@@@std@@@3@$0A@@std@@@std@@KAAADPAU_Node@?$_Tree_nod@V?$_Tmap_traits@KPAV?$CClientSockE@VCBuffer3@@@@U?$less@K@std@@V?$allocator@U?$pair@$$CBKPAV?$CClientSockE@VCBuffer3@@@@@std@@@3@$0A@@std@@@2@@Z 00409050 f i AccountServer.obj
 0001:00008060       ?_Max@?$_Tree@V?$_Tmap_traits@KPAV?$CClientSockE@VCBuffer3@@@@U?$less@K@std@@V?$allocator@U?$pair@$$CBKPAV?$CClientSockE@VCBuffer3@@@@@std@@@3@$0A@@std@@@std@@KAPAU_Node@?$_Tree_nod@V?$_Tmap_traits@KPAV?$CClientSockE@VCBuffer3@@@@U?$less@K@std@@V?$allocator@U?$pair@$$CBKPAV?$CClientSockE@VCBuffer3@@@@@std@@@3@$0A@@std@@@2@PAU342@@Z 00409060 f i AccountServer.obj
 0001:00008080       ?_Min@?$_Tree@V?$_Tmap_traits@KPAV?$CClientSockE@VCBuffer3@@@@U?$less@K@std@@V?$allocator@U?$pair@$$CBKPAV?$CClientSockE@VCBuffer3@@@@@std@@@3@$0A@@std@@@std@@KAPAU_Node@?$_Tree_nod@V?$_Tmap_traits@KPAV?$CClientSockE@VCBuffer3@@@@U?$less@K@std@@V?$allocator@U?$pair@$$CBKPAV?$CClientSockE@VCBuffer3@@@@@std@@@3@$0A@@std@@@2@PAU342@@Z 00409080 f i AccountServer.obj
 0001:000080a0       ?_Rmost@?$_Tree@V?$_Tmap_traits@KPAV?$CClientSockE@VCBuffer3@@@@U?$less@K@std@@V?$allocator@U?$pair@$$CBKPAV?$CClientSockE@VCBuffer3@@@@@std@@@3@$0A@@std@@@std@@IAEAAPAU_Node@?$_Tree_nod@V?$_Tmap_traits@KPAV?$CClientSockE@VCBuffer3@@@@U?$less@K@std@@V?$allocator@U?$pair@$$CBKPAV?$CClientSockE@VCBuffer3@@@@@std@@@3@$0A@@std@@@2@XZ 004090a0 f i AccountServer.obj
 0001:000080b0       ?_Root@?$_Tree@V?$_Tmap_traits@KPAV?$CClientSockE@VCBuffer3@@@@U?$less@K@std@@V?$allocator@U?$pair@$$CBKPAV?$CClientSockE@VCBuffer3@@@@@std@@@3@$0A@@std@@@std@@IAEAAPAU_Node@?$_Tree_nod@V?$_Tmap_traits@KPAV?$CClientSockE@VCBuffer3@@@@U?$less@K@std@@V?$allocator@U?$pair@$$CBKPAV?$CClientSockE@VCBuffer3@@@@@std@@@3@$0A@@std@@@2@XZ 004090b0 f i AccountServer.obj
 0001:000080c0       ?_Rrotate@?$_Tree@V?$_Tmap_traits@KPAV?$CClientSockE@VCBuffer3@@@@U?$less@K@std@@V?$allocator@U?$pair@$$CBKPAV?$CClientSockE@VCBuffer3@@@@@std@@@3@$0A@@std@@@std@@IAEXPAU_Node@?$_Tree_nod@V?$_Tmap_traits@KPAV?$CClientSockE@VCBuffer3@@@@U?$less@K@std@@V?$allocator@U?$pair@$$CBKPAV?$CClientSockE@VCBuffer3@@@@@std@@@3@$0A@@std@@@2@@Z 004090c0 f i AccountServer.obj
 0001:00008120       ??0const_iterator@?$_Tree@V?$_Tmap_traits@KPAV?$CClientSock@VCBuffer@@@@U?$less@K@std@@V?$allocator@U?$pair@$$CBKPAV?$CClientSock@VCBuffer@@@@@std@@@3@$0A@@std@@@std@@QAE@PAU_Node@?$_Tree_nod@V?$_Tmap_traits@KPAV?$CClientSock@VCBuffer@@@@U?$less@K@std@@V?$allocator@U?$pair@$$CBKPAV?$CClientSock@VCBuffer@@@@@std@@@3@$0A@@std@@@2@@Z 00409120 f i AccountServer.obj
 0001:00008130       ?_Mynode@const_iterator@?$_Tree@V?$_Tmap_traits@KPAV?$CClientSock@VCBuffer@@@@U?$less@K@std@@V?$allocator@U?$pair@$$CBKPAV?$CClientSock@VCBuffer@@@@@std@@@3@$0A@@std@@@std@@QBEPAU_Node@?$_Tree_nod@V?$_Tmap_traits@KPAV?$CClientSock@VCBuffer@@@@U?$less@K@std@@V?$allocator@U?$pair@$$CBKPAV?$CClientSock@VCBuffer@@@@@std@@@3@$0A@@std@@@3@XZ 00409130 f i AccountServer.obj
 0001:00008140       ??0const_iterator@?$_Tree@V?$_Tmap_traits@KPAV?$CClientSockE@VCBuffer@@@@U?$less@K@std@@V?$allocator@U?$pair@$$CBKPAV?$CClientSockE@VCBuffer@@@@@std@@@3@$0A@@std@@@std@@QAE@PAU_Node@?$_Tree_nod@V?$_Tmap_traits@KPAV?$CClientSockE@VCBuffer@@@@U?$less@K@std@@V?$allocator@U?$pair@$$CBKPAV?$CClientSockE@VCBuffer@@@@@std@@@3@$0A@@std@@@2@@Z 00409140 f i AccountServer.obj
 0001:00008150       ?_Mynode@const_iterator@?$_Tree@V?$_Tmap_traits@KPAV?$CClientSockE@VCBuffer@@@@U?$less@K@std@@V?$allocator@U?$pair@$$CBKPAV?$CClientSockE@VCBuffer@@@@@std@@@3@$0A@@std@@@std@@QBEPAU_Node@?$_Tree_nod@V?$_Tmap_traits@KPAV?$CClientSockE@VCBuffer@@@@U?$less@K@std@@V?$allocator@U?$pair@$$CBKPAV?$CClientSockE@VCBuffer@@@@@std@@@3@$0A@@std@@@3@XZ 00409150 f i AccountServer.obj
 0001:00008160       ??0const_iterator@?$_Tree@V?$_Tmap_traits@KPAV?$CClientSock@VCBuffer3@@@@U?$less@K@std@@V?$allocator@U?$pair@$$CBKPAV?$CClientSock@VCBuffer3@@@@@std@@@3@$0A@@std@@@std@@QAE@PAU_Node@?$_Tree_nod@V?$_Tmap_traits@KPAV?$CClientSock@VCBuffer3@@@@U?$less@K@std@@V?$allocator@U?$pair@$$CBKPAV?$CClientSock@VCBuffer3@@@@@std@@@3@$0A@@std@@@2@@Z 00409160 f i AccountServer.obj
 0001:00008170       ?_Mynode@const_iterator@?$_Tree@V?$_Tmap_traits@KPAV?$CClientSock@VCBuffer3@@@@U?$less@K@std@@V?$allocator@U?$pair@$$CBKPAV?$CClientSock@VCBuffer3@@@@@std@@@3@$0A@@std@@@std@@QBEPAU_Node@?$_Tree_nod@V?$_Tmap_traits@KPAV?$CClientSock@VCBuffer3@@@@U?$less@K@std@@V?$allocator@U?$pair@$$CBKPAV?$CClientSock@VCBuffer3@@@@@std@@@3@$0A@@std@@@3@XZ 00409170 f i AccountServer.obj
 0001:00008180       ??0const_iterator@?$_Tree@V?$_Tmap_traits@KPAV?$CClientSockE@VCBuffer3@@@@U?$less@K@std@@V?$allocator@U?$pair@$$CBKPAV?$CClientSockE@VCBuffer3@@@@@std@@@3@$0A@@std@@@std@@QAE@PAU_Node@?$_Tree_nod@V?$_Tmap_traits@KPAV?$CClientSockE@VCBuffer3@@@@U?$less@K@std@@V?$allocator@U?$pair@$$CBKPAV?$CClientSockE@VCBuffer3@@@@@std@@@3@$0A@@std@@@2@@Z 00409180 f i AccountServer.obj
 0001:00008190       ?_Mynode@const_iterator@?$_Tree@V?$_Tmap_traits@KPAV?$CClientSockE@VCBuffer3@@@@U?$less@K@std@@V?$allocator@U?$pair@$$CBKPAV?$CClientSockE@VCBuffer3@@@@@std@@@3@$0A@@std@@@std@@QBEPAU_Node@?$_Tree_nod@V?$_Tmap_traits@KPAV?$CClientSockE@VCBuffer3@@@@U?$less@K@std@@V?$allocator@U?$pair@$$CBKPAV?$CClientSockE@VCBuffer3@@@@@std@@@3@$0A@@std@@@3@XZ 00409190 f i AccountServer.obj
 0001:000081a0       ?_Inc@const_iterator@?$_Tree@V?$_Tmap_traits@KPAV?$CClientSock@VCBuffer@@@@U?$less@K@std@@V?$allocator@U?$pair@$$CBKPAV?$CClientSock@VCBuffer@@@@@std@@@3@$0A@@std@@@std@@QAEXXZ 004091a0 f i AccountServer.obj
 0001:00008200       ?_Inc@const_iterator@?$_Tree@V?$_Tmap_traits@KPAV?$CClientSockE@VCBuffer@@@@U?$less@K@std@@V?$allocator@U?$pair@$$CBKPAV?$CClientSockE@VCBuffer@@@@@std@@@3@$0A@@std@@@std@@QAEXXZ 00409200 f i AccountServer.obj
 0001:00008260       ?_Inc@const_iterator@?$_Tree@V?$_Tmap_traits@KPAV?$CClientSock@VCBuffer3@@@@U?$less@K@std@@V?$allocator@U?$pair@$$CBKPAV?$CClientSock@VCBuffer3@@@@@std@@@3@$0A@@std@@@std@@QAEXXZ 00409260 f i AccountServer.obj
 0001:000082c0       ?_Inc@const_iterator@?$_Tree@V?$_Tmap_traits@KPAV?$CClientSockE@VCBuffer3@@@@U?$less@K@std@@V?$allocator@U?$pair@$$CBKPAV?$CClientSockE@VCBuffer3@@@@@std@@@3@$0A@@std@@@std@@QAEXXZ 004092c0 f i AccountServer.obj
 0001:00008320       ?GetCloseHandle@?$CDPMng@VCBuffer@@@@QAEPAXXZ 00409320 f i AccountServer.obj
 0001:00008330       ?GetHead@?$CBufferQueue@VCBuffer@@@@QAEPAVCBuffer@@XZ 00409330 f i AccountServer.obj
 0001:00008340       ?Listen@?$CServerSock@VCBuffer@@@@QAEHXZ 00409340 f i AccountServer.obj
 0001:00008380       ?Listen@?$CServerSockE@VCBuffer@@@@QAEHXZ 00409380 f i AccountServer.obj
 0001:000083c0       ?GetCloseHandle@?$CDPMng@VCBuffer3@@@@QAEPAXXZ 004093c0 f i AccountServer.obj
 0001:000083d0       ?GetHead@?$CBufferQueue@VCBuffer3@@@@QAEPAVCBuffer3@@XZ 004093d0 f i AccountServer.obj
 0001:000083e0       ?Listen@?$CServerSock@VCBuffer3@@@@QAEHXZ 004093e0 f i AccountServer.obj
 0001:00008420       ?Listen@?$CServerSockE@VCBuffer3@@@@QAEHXZ 00409420 f i AccountServer.obj
 0001:00008460       ??$_Ptr_cat@PAUtagDB_OVERLAPPED_PLUS@@@std@@YA?AU_Scalar_ptr_iterator_tag@0@PAPAPAUtagDB_OVERLAPPED_PLUS@@0@Z 00409460 f i AccountServer.obj
 0001:00008470       ??$_Uninit_copy@PAPAUtagDB_OVERLAPPED_PLUS@@PAPAU1@@std@@YAPAPAPAUtagDB_OVERLAPPED_PLUS@@PAPAPAU1@00AAV?$allocator@PAPAUtagDB_OVERLAPPED_PLUS@@@0@U_Scalar_ptr_iterator_tag@0@@Z 00409470 f i AccountServer.obj
 0001:000084a0       ??$_Destroy_range@PAPAUtagDB_OVERLAPPED_PLUS@@V?$allocator@PAPAUtagDB_OVERLAPPED_PLUS@@@std@@@std@@YAXPAPAPAUtagDB_OVERLAPPED_PLUS@@0AAV?$allocator@PAPAUtagDB_OVERLAPPED_PLUS@@@0@U_Scalar_ptr_iterator_tag@0@@Z 004094a0 f i AccountServer.obj
 0001:000084b0       ??$_Destroy@PAU_Node@?$_Tree_nod@V?$_Tmap_traits@KPAV?$CClientSock@VCBuffer@@@@U?$less@K@std@@V?$allocator@U?$pair@$$CBKPAV?$CClientSock@VCBuffer@@@@@std@@@3@$0A@@std@@@std@@@std@@YAXPAPAU_Node@?$_Tree_nod@V?$_Tmap_traits@KPAV?$CClientSock@VCBuffer@@@@U?$less@K@std@@V?$allocator@U?$pair@$$CBKPAV?$CClientSock@VCBuffer@@@@@std@@@3@$0A@@std@@@0@@Z 004094b0 f i AccountServer.obj
 0001:000084c0       ??$_Destroy@PAU_Node@?$_Tree_nod@V?$_Tmap_traits@KPAV?$CClientSockE@VCBuffer@@@@U?$less@K@std@@V?$allocator@U?$pair@$$CBKPAV?$CClientSockE@VCBuffer@@@@@std@@@3@$0A@@std@@@std@@@std@@YAXPAPAU_Node@?$_Tree_nod@V?$_Tmap_traits@KPAV?$CClientSockE@VCBuffer@@@@U?$less@K@std@@V?$allocator@U?$pair@$$CBKPAV?$CClientSockE@VCBuffer@@@@@std@@@3@$0A@@std@@@0@@Z 004094c0 f i AccountServer.obj
 0001:000084d0       ??$_Destroy@PAU_Node@?$_Tree_nod@V?$_Tmap_traits@KPAV?$CClientSock@VCBuffer3@@@@U?$less@K@std@@V?$allocator@U?$pair@$$CBKPAV?$CClientSock@VCBuffer3@@@@@std@@@3@$0A@@std@@@std@@@std@@YAXPAPAU_Node@?$_Tree_nod@V?$_Tmap_traits@KPAV?$CClientSock@VCBuffer3@@@@U?$less@K@std@@V?$allocator@U?$pair@$$CBKPAV?$CClientSock@VCBuffer3@@@@@std@@@3@$0A@@std@@@0@@Z 004094d0 f i AccountServer.obj
 0001:000084e0       ??$_Destroy@PAU_Node@?$_Tree_nod@V?$_Tmap_traits@KPAV?$CClientSockE@VCBuffer3@@@@U?$less@K@std@@V?$allocator@U?$pair@$$CBKPAV?$CClientSockE@VCBuffer3@@@@@std@@@3@$0A@@std@@@std@@@std@@YAXPAPAU_Node@?$_Tree_nod@V?$_Tmap_traits@KPAV?$CClientSockE@VCBuffer3@@@@U?$less@K@std@@V?$allocator@U?$pair@$$CBKPAV?$CClientSockE@VCBuffer3@@@@@std@@@3@$0A@@std@@@0@@Z 004094e0 f i AccountServer.obj
 0001:000084f0       ??$_Destroy@U_Node@?$_Tree_nod@V?$_Tmap_traits@KPAV?$CClientSock@VCBuffer@@@@U?$less@K@std@@V?$allocator@U?$pair@$$CBKPAV?$CClientSock@VCBuffer@@@@@std@@@3@$0A@@std@@@std@@@std@@YAXPAU_Node@?$_Tree_nod@V?$_Tmap_traits@KPAV?$CClientSock@VCBuffer@@@@U?$less@K@std@@V?$allocator@U?$pair@$$CBKPAV?$CClientSock@VCBuffer@@@@@std@@@3@$0A@@std@@@0@@Z 004094f0 f i AccountServer.obj
 0001:00008500       ??$_Destroy@U_Node@?$_Tree_nod@V?$_Tmap_traits@KPAV?$CClientSockE@VCBuffer@@@@U?$less@K@std@@V?$allocator@U?$pair@$$CBKPAV?$CClientSockE@VCBuffer@@@@@std@@@3@$0A@@std@@@std@@@std@@YAXPAU_Node@?$_Tree_nod@V?$_Tmap_traits@KPAV?$CClientSockE@VCBuffer@@@@U?$less@K@std@@V?$allocator@U?$pair@$$CBKPAV?$CClientSockE@VCBuffer@@@@@std@@@3@$0A@@std@@@0@@Z 00409500 f i AccountServer.obj
 0001:00008510       ??$_Destroy@U_Node@?$_Tree_nod@V?$_Tmap_traits@KPAV?$CClientSock@VCBuffer3@@@@U?$less@K@std@@V?$allocator@U?$pair@$$CBKPAV?$CClientSock@VCBuffer3@@@@@std@@@3@$0A@@std@@@std@@@std@@YAXPAU_Node@?$_Tree_nod@V?$_Tmap_traits@KPAV?$CClientSock@VCBuffer3@@@@U?$less@K@std@@V?$allocator@U?$pair@$$CBKPAV?$CClientSock@VCBuffer3@@@@@std@@@3@$0A@@std@@@0@@Z 00409510 f i AccountServer.obj
 0001:00008520       ??$_Destroy@U_Node@?$_Tree_nod@V?$_Tmap_traits@KPAV?$CClientSockE@VCBuffer3@@@@U?$less@K@std@@V?$allocator@U?$pair@$$CBKPAV?$CClientSockE@VCBuffer3@@@@@std@@@3@$0A@@std@@@std@@@std@@YAXPAU_Node@?$_Tree_nod@V?$_Tmap_traits@KPAV?$CClientSockE@VCBuffer3@@@@U?$less@K@std@@V?$allocator@U?$pair@$$CBKPAV?$CClientSockE@VCBuffer3@@@@@std@@@3@$0A@@std@@@0@@Z 00409520 f i AccountServer.obj
 0001:00008530       ?_Myval@?$_Tree@V?$_Tmap_traits@KPAV?$CClientSock@VCBuffer@@@@U?$less@K@std@@V?$allocator@U?$pair@$$CBKPAV?$CClientSock@VCBuffer@@@@@std@@@3@$0A@@std@@@std@@KAAAU?$pair@$$CBKPAV?$CClientSock@VCBuffer@@@@@2@PAU_Node@?$_Tree_nod@V?$_Tmap_traits@KPAV?$CClientSock@VCBuffer@@@@U?$less@K@std@@V?$allocator@U?$pair@$$CBKPAV?$CClientSock@VCBuffer@@@@@std@@@3@$0A@@std@@@2@@Z 00409530 f i AccountServer.obj
 0001:00008540       ?_Kfn@?$_Tmap_traits@KPAV?$CClientSock@VCBuffer@@@@U?$less@K@std@@V?$allocator@U?$pair@$$CBKPAV?$CClientSock@VCBuffer@@@@@std@@@3@$0A@@std@@SAABKABU?$pair@$$CBKPAV?$CClientSock@VCBuffer@@@@@2@@Z 00409540 f i AccountServer.obj
 0001:00008550       ??0?$allocator@U?$pair@$$CBKPAV?$CClientSock@VCBuffer@@@@@std@@@std@@QAE@XZ 00409550 f i AccountServer.obj
 0001:00008560       ?_Myval@?$_Tree@V?$_Tmap_traits@KPAV?$CClientSockE@VCBuffer@@@@U?$less@K@std@@V?$allocator@U?$pair@$$CBKPAV?$CClientSockE@VCBuffer@@@@@std@@@3@$0A@@std@@@std@@KAAAU?$pair@$$CBKPAV?$CClientSockE@VCBuffer@@@@@2@PAU_Node@?$_Tree_nod@V?$_Tmap_traits@KPAV?$CClientSockE@VCBuffer@@@@U?$less@K@std@@V?$allocator@U?$pair@$$CBKPAV?$CClientSockE@VCBuffer@@@@@std@@@3@$0A@@std@@@2@@Z 00409560 f i AccountServer.obj
 0001:00008570       ?_Kfn@?$_Tmap_traits@KPAV?$CClientSockE@VCBuffer@@@@U?$less@K@std@@V?$allocator@U?$pair@$$CBKPAV?$CClientSockE@VCBuffer@@@@@std@@@3@$0A@@std@@SAABKABU?$pair@$$CBKPAV?$CClientSockE@VCBuffer@@@@@2@@Z 00409570 f i AccountServer.obj
 0001:00008580       ??0?$allocator@U?$pair@$$CBKPAV?$CClientSockE@VCBuffer@@@@@std@@@std@@QAE@XZ 00409580 f i AccountServer.obj
 0001:00008590       ?_Myval@?$_Tree@V?$_Tmap_traits@KPAV?$CClientSock@VCBuffer3@@@@U?$less@K@std@@V?$allocator@U?$pair@$$CBKPAV?$CClientSock@VCBuffer3@@@@@std@@@3@$0A@@std@@@std@@KAAAU?$pair@$$CBKPAV?$CClientSock@VCBuffer3@@@@@2@PAU_Node@?$_Tree_nod@V?$_Tmap_traits@KPAV?$CClientSock@VCBuffer3@@@@U?$less@K@std@@V?$allocator@U?$pair@$$CBKPAV?$CClientSock@VCBuffer3@@@@@std@@@3@$0A@@std@@@2@@Z 00409590 f i AccountServer.obj
 0001:000085a0       ?_Kfn@?$_Tmap_traits@KPAV?$CClientSock@VCBuffer3@@@@U?$less@K@std@@V?$allocator@U?$pair@$$CBKPAV?$CClientSock@VCBuffer3@@@@@std@@@3@$0A@@std@@SAABKABU?$pair@$$CBKPAV?$CClientSock@VCBuffer3@@@@@2@@Z 004095a0 f i AccountServer.obj
 0001:000085b0       ??0?$allocator@U?$pair@$$CBKPAV?$CClientSock@VCBuffer3@@@@@std@@@std@@QAE@XZ 004095b0 f i AccountServer.obj
 0001:000085c0       ?_Myval@?$_Tree@V?$_Tmap_traits@KPAV?$CClientSockE@VCBuffer3@@@@U?$less@K@std@@V?$allocator@U?$pair@$$CBKPAV?$CClientSockE@VCBuffer3@@@@@std@@@3@$0A@@std@@@std@@KAAAU?$pair@$$CBKPAV?$CClientSockE@VCBuffer3@@@@@2@PAU_Node@?$_Tree_nod@V?$_Tmap_traits@KPAV?$CClientSockE@VCBuffer3@@@@U?$less@K@std@@V?$allocator@U?$pair@$$CBKPAV?$CClientSockE@VCBuffer3@@@@@std@@@3@$0A@@std@@@2@@Z 004095c0 f i AccountServer.obj
 0001:000085d0       ?_Kfn@?$_Tmap_traits@KPAV?$CClientSockE@VCBuffer3@@@@U?$less@K@std@@V?$allocator@U?$pair@$$CBKPAV?$CClientSockE@VCBuffer3@@@@@std@@@3@$0A@@std@@SAABKABU?$pair@$$CBKPAV?$CClientSockE@VCBuffer3@@@@@2@@Z 004095d0 f i AccountServer.obj
 0001:000085e0       ??0?$allocator@U?$pair@$$CBKPAV?$CClientSockE@VCBuffer3@@@@@std@@@std@@QAE@XZ 004095e0 f i AccountServer.obj
 0001:000085f0       ??Dconst_iterator@?$_Tree@V?$_Tmap_traits@KPAV?$CClientSock@VCBuffer@@@@U?$less@K@std@@V?$allocator@U?$pair@$$CBKPAV?$CClientSock@VCBuffer@@@@@std@@@3@$0A@@std@@@std@@QBEABU?$pair@$$CBKPAV?$CClientSock@VCBuffer@@@@@2@XZ 004095f0 f i AccountServer.obj
 0001:00008600       ??Dconst_iterator@?$_Tree@V?$_Tmap_traits@KPAV?$CClientSockE@VCBuffer@@@@U?$less@K@std@@V?$allocator@U?$pair@$$CBKPAV?$CClientSockE@VCBuffer@@@@@std@@@3@$0A@@std@@@std@@QBEABU?$pair@$$CBKPAV?$CClientSockE@VCBuffer@@@@@2@XZ 00409600 f i AccountServer.obj
 0001:00008610       ??Dconst_iterator@?$_Tree@V?$_Tmap_traits@KPAV?$CClientSock@VCBuffer3@@@@U?$less@K@std@@V?$allocator@U?$pair@$$CBKPAV?$CClientSock@VCBuffer3@@@@@std@@@3@$0A@@std@@@std@@QBEABU?$pair@$$CBKPAV?$CClientSock@VCBuffer3@@@@@2@XZ 00409610 f i AccountServer.obj
 0001:00008620       ??Dconst_iterator@?$_Tree@V?$_Tmap_traits@KPAV?$CClientSockE@VCBuffer3@@@@U?$less@K@std@@V?$allocator@U?$pair@$$CBKPAV?$CClientSockE@VCBuffer3@@@@@std@@@3@$0A@@std@@@std@@QBEABU?$pair@$$CBKPAV?$CClientSockE@VCBuffer3@@@@@2@XZ 00409620 f i AccountServer.obj
 0001:00008630       ?_Root@?$_Tree@V?$_Tmap_traits@KPAV?$CClientSock@VCBuffer@@@@U?$less@K@std@@V?$allocator@U?$pair@$$CBKPAV?$CClientSock@VCBuffer@@@@@std@@@3@$0A@@std@@@std@@IBEAAPAU_Node@?$_Tree_nod@V?$_Tmap_traits@KPAV?$CClientSock@VCBuffer@@@@U?$less@K@std@@V?$allocator@U?$pair@$$CBKPAV?$CClientSock@VCBuffer@@@@@std@@@3@$0A@@std@@@2@XZ 00409630 f i AccountServer.obj
 0001:00008640       ??0?$allocator@U?$pair@$$CBKPAV?$CClientSock@VCBuffer@@@@@std@@@std@@QAE@ABV01@@Z 00409640 f i AccountServer.obj
 0001:00008650       ?_Root@?$_Tree@V?$_Tmap_traits@KPAV?$CClientSockE@VCBuffer@@@@U?$less@K@std@@V?$allocator@U?$pair@$$CBKPAV?$CClientSockE@VCBuffer@@@@@std@@@3@$0A@@std@@@std@@IBEAAPAU_Node@?$_Tree_nod@V?$_Tmap_traits@KPAV?$CClientSockE@VCBuffer@@@@U?$less@K@std@@V?$allocator@U?$pair@$$CBKPAV?$CClientSockE@VCBuffer@@@@@std@@@3@$0A@@std@@@2@XZ 00409650 f i AccountServer.obj
 0001:00008660       ??0?$allocator@U?$pair@$$CBKPAV?$CClientSockE@VCBuffer@@@@@std@@@std@@QAE@ABV01@@Z 00409660 f i AccountServer.obj
 0001:00008670       ?_Root@?$_Tree@V?$_Tmap_traits@KPAV?$CClientSock@VCBuffer3@@@@U?$less@K@std@@V?$allocator@U?$pair@$$CBKPAV?$CClientSock@VCBuffer3@@@@@std@@@3@$0A@@std@@@std@@IBEAAPAU_Node@?$_Tree_nod@V?$_Tmap_traits@KPAV?$CClientSock@VCBuffer3@@@@U?$less@K@std@@V?$allocator@U?$pair@$$CBKPAV?$CClientSock@VCBuffer3@@@@@std@@@3@$0A@@std@@@2@XZ 00409670 f i AccountServer.obj
 0001:00008680       ??0?$allocator@U?$pair@$$CBKPAV?$CClientSock@VCBuffer3@@@@@std@@@std@@QAE@ABV01@@Z 00409680 f i AccountServer.obj
 0001:00008690       ?_Root@?$_Tree@V?$_Tmap_traits@KPAV?$CClientSockE@VCBuffer3@@@@U?$less@K@std@@V?$allocator@U?$pair@$$CBKPAV?$CClientSockE@VCBuffer3@@@@@std@@@3@$0A@@std@@@std@@IBEAAPAU_Node@?$_Tree_nod@V?$_Tmap_traits@KPAV?$CClientSockE@VCBuffer3@@@@U?$less@K@std@@V?$allocator@U?$pair@$$CBKPAV?$CClientSockE@VCBuffer3@@@@@std@@@3@$0A@@std@@@2@XZ 00409690 f i AccountServer.obj
 0001:000086a0       ??0?$allocator@U?$pair@$$CBKPAV?$CClientSockE@VCBuffer3@@@@@std@@@std@@QAE@ABV01@@Z 004096a0 f i AccountServer.obj
 0001:000086b0       ??0?$_Tmap_traits@KPAV?$CClientSock@VCBuffer@@@@U?$less@K@std@@V?$allocator@U?$pair@$$CBKPAV?$CClientSock@VCBuffer@@@@@std@@@3@$0A@@std@@QAE@U?$less@K@1@@Z 004096b0 f i AccountServer.obj
 0001:000086c0       ??0?$_Tmap_traits@KPAV?$CClientSockE@VCBuffer@@@@U?$less@K@std@@V?$allocator@U?$pair@$$CBKPAV?$CClientSockE@VCBuffer@@@@@std@@@3@$0A@@std@@QAE@U?$less@K@1@@Z 004096c0 f i AccountServer.obj
 0001:000086d0       ??0?$_Tmap_traits@KPAV?$CClientSock@VCBuffer3@@@@U?$less@K@std@@V?$allocator@U?$pair@$$CBKPAV?$CClientSock@VCBuffer3@@@@@std@@@3@$0A@@std@@QAE@U?$less@K@1@@Z 004096d0 f i AccountServer.obj
 0001:000086e0       ??0?$_Tmap_traits@KPAV?$CClientSockE@VCBuffer3@@@@U?$less@K@std@@V?$allocator@U?$pair@$$CBKPAV?$CClientSockE@VCBuffer3@@@@@std@@@3@$0A@@std@@QAE@U?$less@K@1@@Z 004096e0 f i AccountServer.obj
 0001:000086f0       ?GetRecvHandle@?$CDPSock@VCBuffer@@@@QAEPAXXZ 004096f0 f i AccountServer.obj
 0001:00008700       ?GetRecvHandle@?$CDPSock@VCBuffer3@@@@QAEPAXXZ 00409700 f i AccountServer.obj
 0001:00008710       ??$fill_n@PAPAPAUtagDB_OVERLAPPED_PLUS@@IPAPAU1@@std@@YAXPAPAPAUtagDB_OVERLAPPED_PLUS@@IABQAPAU1@@Z 00409710 f i AccountServer.obj
 0001:00008730       ??$?0U?$pair@$$CBKPAV?$CClientSock@VCBuffer@@@@@std@@@?$allocator@PAU_Node@?$_Tree_nod@V?$_Tmap_traits@KPAV?$CClientSock@VCBuffer@@@@U?$less@K@std@@V?$allocator@U?$pair@$$CBKPAV?$CClientSock@VCBuffer@@@@@std@@@3@$0A@@std@@@std@@@std@@QAE@ABV?$allocator@U?$pair@$$CBKPAV?$CClientSock@VCBuffer@@@@@std@@@1@@Z 00409730 f i AccountServer.obj
 0001:00008740       ??$?0U?$pair@$$CBKPAV?$CClientSockE@VCBuffer@@@@@std@@@?$allocator@PAU_Node@?$_Tree_nod@V?$_Tmap_traits@KPAV?$CClientSockE@VCBuffer@@@@U?$less@K@std@@V?$allocator@U?$pair@$$CBKPAV?$CClientSockE@VCBuffer@@@@@std@@@3@$0A@@std@@@std@@@std@@QAE@ABV?$allocator@U?$pair@$$CBKPAV?$CClientSockE@VCBuffer@@@@@std@@@1@@Z 00409740 f i AccountServer.obj
 0001:00008750       ??$?0U?$pair@$$CBKPAV?$CClientSock@VCBuffer3@@@@@std@@@?$allocator@PAU_Node@?$_Tree_nod@V?$_Tmap_traits@KPAV?$CClientSock@VCBuffer3@@@@U?$less@K@std@@V?$allocator@U?$pair@$$CBKPAV?$CClientSock@VCBuffer3@@@@@std@@@3@$0A@@std@@@std@@@std@@QAE@ABV?$allocator@U?$pair@$$CBKPAV?$CClientSock@VCBuffer3@@@@@std@@@1@@Z 00409750 f i AccountServer.obj
 0001:00008760       ??$?0U?$pair@$$CBKPAV?$CClientSockE@VCBuffer3@@@@@std@@@?$allocator@PAU_Node@?$_Tree_nod@V?$_Tmap_traits@KPAV?$CClientSockE@VCBuffer3@@@@U?$less@K@std@@V?$allocator@U?$pair@$$CBKPAV?$CClientSockE@VCBuffer3@@@@@std@@@3@$0A@@std@@@std@@@std@@QAE@ABV?$allocator@U?$pair@$$CBKPAV?$CClientSockE@VCBuffer3@@@@@std@@@1@@Z 00409760 f i AccountServer.obj
 0001:00008770       ??$?0U?$pair@$$CBKPAV?$CClientSock@VCBuffer@@@@@std@@@?$allocator@U_Node@?$_Tree_nod@V?$_Tmap_traits@KPAV?$CClientSock@VCBuffer@@@@U?$less@K@std@@V?$allocator@U?$pair@$$CBKPAV?$CClientSock@VCBuffer@@@@@std@@@3@$0A@@std@@@std@@@std@@QAE@ABV?$allocator@U?$pair@$$CBKPAV?$CClientSock@VCBuffer@@@@@std@@@1@@Z 00409770 f i AccountServer.obj
 0001:00008780       ??$_Allocate@U_Node@?$_Tree_nod@V?$_Tmap_traits@KPAV?$CClientSock@VCBuffer@@@@U?$less@K@std@@V?$allocator@U?$pair@$$CBKPAV?$CClientSock@VCBuffer@@@@@std@@@3@$0A@@std@@@std@@@std@@YAPAU_Node@?$_Tree_nod@V?$_Tmap_traits@KPAV?$CClientSock@VCBuffer@@@@U?$less@K@std@@V?$allocator@U?$pair@$$CBKPAV?$CClientSock@VCBuffer@@@@@std@@@3@$0A@@std@@@0@IPAU120@@Z 00409780 f i AccountServer.obj
 0001:000087a0       ??$_Construct@PAU_Node@?$_Tree_nod@V?$_Tmap_traits@KPAV?$CClientSock@VCBuffer@@@@U?$less@K@std@@V?$allocator@U?$pair@$$CBKPAV?$CClientSock@VCBuffer@@@@@std@@@3@$0A@@std@@@std@@PAU123@@std@@YAXPAPAU_Node@?$_Tree_nod@V?$_Tmap_traits@KPAV?$CClientSock@VCBuffer@@@@U?$less@K@std@@V?$allocator@U?$pair@$$CBKPAV?$CClientSock@VCBuffer@@@@@std@@@3@$0A@@std@@@0@ABQAU120@@Z 004097a0 f i AccountServer.obj
 0001:000087c0       ??$?0U?$pair@$$CBKPAV?$CClientSockE@VCBuffer@@@@@std@@@?$allocator@U_Node@?$_Tree_nod@V?$_Tmap_traits@KPAV?$CClientSockE@VCBuffer@@@@U?$less@K@std@@V?$allocator@U?$pair@$$CBKPAV?$CClientSockE@VCBuffer@@@@@std@@@3@$0A@@std@@@std@@@std@@QAE@ABV?$allocator@U?$pair@$$CBKPAV?$CClientSockE@VCBuffer@@@@@std@@@1@@Z 004097c0 f i AccountServer.obj
 0001:000087d0       ??$_Allocate@U_Node@?$_Tree_nod@V?$_Tmap_traits@KPAV?$CClientSockE@VCBuffer@@@@U?$less@K@std@@V?$allocator@U?$pair@$$CBKPAV?$CClientSockE@VCBuffer@@@@@std@@@3@$0A@@std@@@std@@@std@@YAPAU_Node@?$_Tree_nod@V?$_Tmap_traits@KPAV?$CClientSockE@VCBuffer@@@@U?$less@K@std@@V?$allocator@U?$pair@$$CBKPAV?$CClientSockE@VCBuffer@@@@@std@@@3@$0A@@std@@@0@IPAU120@@Z 004097d0 f i AccountServer.obj
 0001:000087f0       ??$_Construct@PAU_Node@?$_Tree_nod@V?$_Tmap_traits@KPAV?$CClientSockE@VCBuffer@@@@U?$less@K@std@@V?$allocator@U?$pair@$$CBKPAV?$CClientSockE@VCBuffer@@@@@std@@@3@$0A@@std@@@std@@PAU123@@std@@YAXPAPAU_Node@?$_Tree_nod@V?$_Tmap_traits@KPAV?$CClientSockE@VCBuffer@@@@U?$less@K@std@@V?$allocator@U?$pair@$$CBKPAV?$CClientSockE@VCBuffer@@@@@std@@@3@$0A@@std@@@0@ABQAU120@@Z 004097f0 f i AccountServer.obj
 0001:00008810       ??$?0U?$pair@$$CBKPAV?$CClientSock@VCBuffer3@@@@@std@@@?$allocator@U_Node@?$_Tree_nod@V?$_Tmap_traits@KPAV?$CClientSock@VCBuffer3@@@@U?$less@K@std@@V?$allocator@U?$pair@$$CBKPAV?$CClientSock@VCBuffer3@@@@@std@@@3@$0A@@std@@@std@@@std@@QAE@ABV?$allocator@U?$pair@$$CBKPAV?$CClientSock@VCBuffer3@@@@@std@@@1@@Z 00409810 f i AccountServer.obj
 0001:00008820       ??$_Allocate@U_Node@?$_Tree_nod@V?$_Tmap_traits@KPAV?$CClientSock@VCBuffer3@@@@U?$less@K@std@@V?$allocator@U?$pair@$$CBKPAV?$CClientSock@VCBuffer3@@@@@std@@@3@$0A@@std@@@std@@@std@@YAPAU_Node@?$_Tree_nod@V?$_Tmap_traits@KPAV?$CClientSock@VCBuffer3@@@@U?$less@K@std@@V?$allocator@U?$pair@$$CBKPAV?$CClientSock@VCBuffer3@@@@@std@@@3@$0A@@std@@@0@IPAU120@@Z 00409820 f i AccountServer.obj
 0001:00008840       ??$_Construct@PAU_Node@?$_Tree_nod@V?$_Tmap_traits@KPAV?$CClientSock@VCBuffer3@@@@U?$less@K@std@@V?$allocator@U?$pair@$$CBKPAV?$CClientSock@VCBuffer3@@@@@std@@@3@$0A@@std@@@std@@PAU123@@std@@YAXPAPAU_Node@?$_Tree_nod@V?$_Tmap_traits@KPAV?$CClientSock@VCBuffer3@@@@U?$less@K@std@@V?$allocator@U?$pair@$$CBKPAV?$CClientSock@VCBuffer3@@@@@std@@@3@$0A@@std@@@0@ABQAU120@@Z 00409840 f i AccountServer.obj
 0001:00008860       ??$?0U?$pair@$$CBKPAV?$CClientSockE@VCBuffer3@@@@@std@@@?$allocator@U_Node@?$_Tree_nod@V?$_Tmap_traits@KPAV?$CClientSockE@VCBuffer3@@@@U?$less@K@std@@V?$allocator@U?$pair@$$CBKPAV?$CClientSockE@VCBuffer3@@@@@std@@@3@$0A@@std@@@std@@@std@@QAE@ABV?$allocator@U?$pair@$$CBKPAV?$CClientSockE@VCBuffer3@@@@@std@@@1@@Z 00409860 f i AccountServer.obj
 0001:00008870       ??$_Allocate@U_Node@?$_Tree_nod@V?$_Tmap_traits@KPAV?$CClientSockE@VCBuffer3@@@@U?$less@K@std@@V?$allocator@U?$pair@$$CBKPAV?$CClientSockE@VCBuffer3@@@@@std@@@3@$0A@@std@@@std@@@std@@YAPAU_Node@?$_Tree_nod@V?$_Tmap_traits@KPAV?$CClientSockE@VCBuffer3@@@@U?$less@K@std@@V?$allocator@U?$pair@$$CBKPAV?$CClientSockE@VCBuffer3@@@@@std@@@3@$0A@@std@@@0@IPAU120@@Z 00409870 f i AccountServer.obj
 0001:00008890       ??$_Construct@PAU_Node@?$_Tree_nod@V?$_Tmap_traits@KPAV?$CClientSockE@VCBuffer3@@@@U?$less@K@std@@V?$allocator@U?$pair@$$CBKPAV?$CClientSockE@VCBuffer3@@@@@std@@@3@$0A@@std@@@std@@PAU123@@std@@YAXPAPAU_Node@?$_Tree_nod@V?$_Tmap_traits@KPAV?$CClientSockE@VCBuffer3@@@@U?$less@K@std@@V?$allocator@U?$pair@$$CBKPAV?$CClientSockE@VCBuffer3@@@@@std@@@3@$0A@@std@@@0@ABQAU120@@Z 00409890 f i AccountServer.obj
 0001:000088b0       ?GetCompletionPort@?$CDPSock@VCBuffer@@@@QAEPAXXZ 004098b0 f i AccountServer.obj
 0001:000088c0       ?Get@?$CDPSock@VCBuffer@@@@QAEPAV?$CClientSock@VCBuffer@@@@I@Z 004098c0 f i AccountServer.obj
 0001:000088e0       ?IsEmpty@?$CBufferQueue@VCBuffer@@@@QAEHXZ 004098e0 f i AccountServer.obj
 0001:000088f0       ?GetData@?$CBufferQueue@VCBuffer@@@@QAEXPAU_WSABUF@@PAK@Z 004098f0 f i AccountServer.obj
 0001:00008940       ?Recv@?$CClientSock@VCBuffer@@@@QAEHXZ 00409940 f i AccountServer.obj
 0001:000089d0       ?Fetch@?$CClientSock@VCBuffer@@@@QAEPAVCBuffer@@K@Z 004099d0 f i AccountServer.obj
 0001:00008a10       ?GetListenHandle@?$CServerSock@VCBuffer@@@@QAEPAXXZ 00409a10 f i AccountServer.obj
 0001:00008a20       ?GetCloseHandle@?$CServerSock@VCBuffer@@@@QAEPAXXZ 00409a20 f i AccountServer.obj
 0001:00008a30       ?GetCompletionPort@?$CServerSock@VCBuffer@@@@QAEPAXXZ 00409a30 f i AccountServer.obj
 0001:00008a40       ?GetIoWorkerCount@?$CServerSock@VCBuffer@@@@QAEHXZ 00409a40 f i AccountServer.obj
 0001:00008a50       ?GetListenHandle@?$CServerSockE@VCBuffer@@@@QAEPAXXZ 00409a50 f i AccountServer.obj
 0001:00008a60       ?GetCloseHandle@?$CServerSockE@VCBuffer@@@@QAEPAXXZ 00409a60 f i AccountServer.obj
 0001:00008a70       ?Recv@?$CClientSockE@VCBuffer@@@@QAEHXZ 00409a70 f i AccountServer.obj
 0001:00008b10       ?GetCompletionPort@?$CDPSock@VCBuffer3@@@@QAEPAXXZ 00409b10 f i AccountServer.obj
 0001:00008b20       ?Get@?$CDPSock@VCBuffer3@@@@QAEPAV?$CClientSock@VCBuffer3@@@@I@Z 00409b20 f i AccountServer.obj
 0001:00008b40       ?IsEmpty@?$CBufferQueue@VCBuffer3@@@@QAEHXZ 00409b40 f i AccountServer.obj
 0001:00008b50       ?GetData@?$CBufferQueue@VCBuffer3@@@@QAEXPAU_WSABUF@@PAK@Z 00409b50 f i AccountServer.obj
 0001:00008ba0       ?Recv@?$CClientSock@VCBuffer3@@@@QAEHXZ 00409ba0 f i AccountServer.obj
 0001:00008c30       ?Fetch@?$CClientSock@VCBuffer3@@@@QAEPAVCBuffer3@@K@Z 00409c30 f i AccountServer.obj
 0001:00008c70       ?GetListenHandle@?$CServerSock@VCBuffer3@@@@QAEPAXXZ 00409c70 f i AccountServer.obj
 0001:00008c80       ?GetCloseHandle@?$CServerSock@VCBuffer3@@@@QAEPAXXZ 00409c80 f i AccountServer.obj
 0001:00008c90       ?GetCompletionPort@?$CServerSock@VCBuffer3@@@@QAEPAXXZ 00409c90 f i AccountServer.obj
 0001:00008ca0       ?GetIoWorkerCount@?$CServerSock@VCBuffer3@@@@QAEHXZ 00409ca0 f i AccountServer.obj
 0001:00008cb0       ?GetListenHandle@?$CServerSockE@VCBuffer3@@@@QAEPAXXZ 00409cb0 f i AccountServer.obj
 0001:00008cc0       ?GetCloseHandle@?$CServerSockE@VCBuffer3@@@@QAEPAXXZ 00409cc0 f i AccountServer.obj
 0001:00008cd0       ?Recv@?$CClientSockE@VCBuffer3@@@@QAEHXZ 00409cd0 f i AccountServer.obj
 0001:00008d70       ??0?$pair@$$CBKPAV?$CClientSock@VCBuffer@@@@@std@@QAE@ABKABQAV?$CClientSock@VCBuffer@@@@@Z 00409d70 f i AccountServer.obj
 0001:00008d90       ??0?$pair@$$CBKPAV?$CClientSockE@VCBuffer@@@@@std@@QAE@ABKABQAV?$CClientSockE@VCBuffer@@@@@Z 00409d90 f i AccountServer.obj
 0001:00008db0       ??0?$pair@$$CBKPAV?$CClientSock@VCBuffer3@@@@@std@@QAE@ABKABQAV?$CClientSock@VCBuffer3@@@@@Z 00409db0 f i AccountServer.obj
 0001:00008dd0       ??0?$pair@$$CBKPAV?$CClientSockE@VCBuffer3@@@@@std@@QAE@ABKABQAV?$CClientSockE@VCBuffer3@@@@@Z 00409dd0 f i AccountServer.obj
 0001:00008df0       ??0?$pair@Viterator@?$_Tree@V?$_Tmap_traits@KPAV?$CClientSock@VCBuffer@@@@U?$less@K@std@@V?$allocator@U?$pair@$$CBKPAV?$CClientSock@VCBuffer@@@@@std@@@3@$0A@@std@@@std@@_N@std@@QAE@ABViterator@?$_Tree@V?$_Tmap_traits@KPAV?$CClientSock@VCBuffer@@@@U?$less@K@std@@V?$allocator@U?$pair@$$CBKPAV?$CClientSock@VCBuffer@@@@@std@@@3@$0A@@std@@@1@AB_N@Z 00409df0 f i AccountServer.obj
 0001:00008e10       ??0?$pair@Viterator@?$_Tree@V?$_Tmap_traits@KPAV?$CClientSockE@VCBuffer@@@@U?$less@K@std@@V?$allocator@U?$pair@$$CBKPAV?$CClientSockE@VCBuffer@@@@@std@@@3@$0A@@std@@@std@@_N@std@@QAE@ABViterator@?$_Tree@V?$_Tmap_traits@KPAV?$CClientSockE@VCBuffer@@@@U?$less@K@std@@V?$allocator@U?$pair@$$CBKPAV?$CClientSockE@VCBuffer@@@@@std@@@3@$0A@@std@@@1@AB_N@Z 00409e10 f i AccountServer.obj
 0001:00008e30       ??0?$pair@Viterator@?$_Tree@V?$_Tmap_traits@KPAV?$CClientSock@VCBuffer3@@@@U?$less@K@std@@V?$allocator@U?$pair@$$CBKPAV?$CClientSock@VCBuffer3@@@@@std@@@3@$0A@@std@@@std@@_N@std@@QAE@ABViterator@?$_Tree@V?$_Tmap_traits@KPAV?$CClientSock@VCBuffer3@@@@U?$less@K@std@@V?$allocator@U?$pair@$$CBKPAV?$CClientSock@VCBuffer3@@@@@std@@@3@$0A@@std@@@1@AB_N@Z 00409e30 f i AccountServer.obj
 0001:00008e50       ??0?$pair@Viterator@?$_Tree@V?$_Tmap_traits@KPAV?$CClientSockE@VCBuffer3@@@@U?$less@K@std@@V?$allocator@U?$pair@$$CBKPAV?$CClientSockE@VCBuffer3@@@@@std@@@3@$0A@@std@@@std@@_N@std@@QAE@ABViterator@?$_Tree@V?$_Tmap_traits@KPAV?$CClientSockE@VCBuffer3@@@@U?$less@K@std@@V?$allocator@U?$pair@$$CBKPAV?$CClientSockE@VCBuffer3@@@@@std@@@3@$0A@@std@@@1@AB_N@Z 00409e50 f i AccountServer.obj
 0001:00008e70       ?max_size@?$allocator@U?$pair@$$CBKPAV?$CClientSock@VCBuffer@@@@@std@@@std@@QBEIXZ 00409e70 f i AccountServer.obj
 0001:00008e80       ?max_size@?$allocator@U?$pair@$$CBKPAV?$CClientSockE@VCBuffer@@@@@std@@@std@@QBEIXZ 00409e80 f i AccountServer.obj
 0001:00008e90       ?max_size@?$allocator@U?$pair@$$CBKPAV?$CClientSock@VCBuffer3@@@@@std@@@std@@QBEIXZ 00409e90 f i AccountServer.obj
 0001:00008ea0       ?max_size@?$allocator@U?$pair@$$CBKPAV?$CClientSockE@VCBuffer3@@@@@std@@@std@@QBEIXZ 00409ea0 f i AccountServer.obj
 0001:00008eb0       ?_Dec@const_iterator@?$_Tree@V?$_Tmap_traits@KPAV?$CClientSock@VCBuffer@@@@U?$less@K@std@@V?$allocator@U?$pair@$$CBKPAV?$CClientSock@VCBuffer@@@@@std@@@3@$0A@@std@@@std@@QAEXXZ 00409eb0 f i AccountServer.obj
 0001:00008f10       ?_Dec@const_iterator@?$_Tree@V?$_Tmap_traits@KPAV?$CClientSockE@VCBuffer@@@@U?$less@K@std@@V?$allocator@U?$pair@$$CBKPAV?$CClientSockE@VCBuffer@@@@@std@@@3@$0A@@std@@@std@@QAEXXZ 00409f10 f i AccountServer.obj
 0001:00008f70       ?_Dec@const_iterator@?$_Tree@V?$_Tmap_traits@KPAV?$CClientSock@VCBuffer3@@@@U?$less@K@std@@V?$allocator@U?$pair@$$CBKPAV?$CClientSock@VCBuffer3@@@@@std@@@3@$0A@@std@@@std@@QAEXXZ 00409f70 f i AccountServer.obj
 0001:00008fd0       ?_Dec@const_iterator@?$_Tree@V?$_Tmap_traits@KPAV?$CClientSockE@VCBuffer3@@@@U?$less@K@std@@V?$allocator@U?$pair@$$CBKPAV?$CClientSockE@VCBuffer3@@@@@std@@@3@$0A@@std@@@std@@QAEXXZ 00409fd0 f i AccountServer.obj
 0001:00009030       ??0_Node@?$_Tree_nod@V?$_Tmap_traits@KPAV?$CClientSock@VCBuffer@@@@U?$less@K@std@@V?$allocator@U?$pair@$$CBKPAV?$CClientSock@VCBuffer@@@@@std@@@3@$0A@@std@@@std@@QAE@PAU012@00ABU?$pair@$$CBKPAV?$CClientSock@VCBuffer@@@@@2@D@Z 0040a030 f i AccountServer.obj
 0001:00009070       ??0_Node@?$_Tree_nod@V?$_Tmap_traits@KPAV?$CClientSockE@VCBuffer@@@@U?$less@K@std@@V?$allocator@U?$pair@$$CBKPAV?$CClientSockE@VCBuffer@@@@@std@@@3@$0A@@std@@@std@@QAE@PAU012@00ABU?$pair@$$CBKPAV?$CClientSockE@VCBuffer@@@@@2@D@Z 0040a070 f i AccountServer.obj
 0001:000090b0       ??0_Node@?$_Tree_nod@V?$_Tmap_traits@KPAV?$CClientSock@VCBuffer3@@@@U?$less@K@std@@V?$allocator@U?$pair@$$CBKPAV?$CClientSock@VCBuffer3@@@@@std@@@3@$0A@@std@@@std@@QAE@PAU012@00ABU?$pair@$$CBKPAV?$CClientSock@VCBuffer3@@@@@2@D@Z 0040a0b0 f i AccountServer.obj
 0001:000090f0       ??0_Node@?$_Tree_nod@V?$_Tmap_traits@KPAV?$CClientSockE@VCBuffer3@@@@U?$less@K@std@@V?$allocator@U?$pair@$$CBKPAV?$CClientSockE@VCBuffer3@@@@@std@@@3@$0A@@std@@@std@@QAE@PAU012@00ABU?$pair@$$CBKPAV?$CClientSockE@VCBuffer3@@@@@2@D@Z 0040a0f0 f i AccountServer.obj
 0001:00009130       ?crc@?$CBufferQueue@VCBuffer@@@@QAEXPAVCRC32@@@Z 0040a130 f i AccountServer.obj
 0001:00009140       ?crc@?$CBufferQueue@VCBuffer3@@@@QAEXPAVCRC32@@@Z 0040a140 f i AccountServer.obj
 0001:00009150       ?GetCloseHandle@?$CDPSock@VCBuffer@@@@QAEPAXXZ 0040a150 f i AccountServer.obj
 0001:00009160       ?GetSockThreaded@?$CDPSock@VCBuffer@@@@QAEPAVCSock@@XZ 0040a160 f i AccountServer.obj
 0001:00009170       ?Fetch@?$CClientSockE@VCBuffer@@@@QAEPAVCBuffer@@K@Z 0040a170 f i AccountServer.obj
 0001:000091b0       ?GetRecvEvent@?$CClientSockE@VCBuffer@@@@QAEPAXXZ 0040a1b0 f i AccountServer.obj
 0001:000091c0       ?GetSendEvent@?$CClientSockE@VCBuffer@@@@QAEPAXXZ 0040a1c0 f i AccountServer.obj
 0001:000091d0       ?GetCloseHandle@?$CDPSock@VCBuffer3@@@@QAEPAXXZ 0040a1d0 f i AccountServer.obj
 0001:000091e0       ?GetSockThreaded@?$CDPSock@VCBuffer3@@@@QAEPAVCSock@@XZ 0040a1e0 f i AccountServer.obj
 0001:000091f0       ?Fetch@?$CClientSockE@VCBuffer3@@@@QAEPAVCBuffer3@@K@Z 0040a1f0 f i AccountServer.obj
 0001:00009230       ?GetRecvEvent@?$CClientSockE@VCBuffer3@@@@QAEPAXXZ 0040a230 f i AccountServer.obj
 0001:00009240       ?GetSendEvent@?$CClientSockE@VCBuffer3@@@@QAEPAXXZ 0040a240 f i AccountServer.obj
 0001:00009250       ?_Ptr_cat@std@@YA?AU_Scalar_ptr_iterator_tag@1@PAK0@Z 0040a250 f i AccountServer.obj
 0001:00009260       ?chWindows9x@@YAHXZ        0040a260 f i AccountServer.obj
 0001:000092c0       ??0CSystemInfo@@QAE@XZ     0040a2c0 f i AccountServer.obj
 0001:000092d0       ??0_BUYING_INFO@@QAE@XZ    0040a2d0 f i AccountServer.obj
 0001:00009300       ??0_BUYING_INFO2@@QAE@XZ   0040a300 f i AccountServer.obj
 0001:00009340       ??B?$CSimpleStringT@D$0A@@ATL@@QBEPBDXZ 0040a340 f i AccountServer.obj
 0001:00009350       ?GetString@?$CSimpleStringT@D$0A@@ATL@@QBEPBDXZ 0040a350 f i AccountServer.obj
 0001:00009360       ?StringLength@?$CSimpleStringT@D$0A@@ATL@@SAHPBD@Z 0040a360 f i AccountServer.obj
 0001:00009380       ?GetData@?$CSimpleStringT@D$0A@@ATL@@ABEPAUCStringData@2@XZ 0040a380 f i AccountServer.obj
 0001:00009390       ?SetLength@?$CSimpleStringT@D$0A@@ATL@@AAEXH@Z 0040a390 f i AccountServer.obj
 0001:000093c0       ?FindStringResourceInstance@?$StrTraitMFC@DV?$ChTraitsCRT@D@ATL@@@@SAPAUHINSTANCE__@@I@Z 0040a3c0 f i AccountServer.obj
 0001:000093d0       ?GetDefaultManager@?$StrTraitMFC@DV?$ChTraitsCRT@D@ATL@@@@SAPAUIAtlStringMgr@ATL@@XZ 0040a3d0 f i AccountServer.obj
 0001:000093e0       ?Attach@?$CSimpleStringT@D$0A@@ATL@@AAEXPAUCStringData@2@@Z 0040a3e0 f i AccountServer.obj
 0001:000093f0       ?GetBaseTypeLength@?$ChTraitsCRT@D@ATL@@SAHPBGH@Z 0040a3f0 f i AccountServer.obj
 0001:00009420       ?ConvertToBaseType@?$ChTraitsCRT@D@ATL@@SAXPADHPBGH@Z 0040a420 f i AccountServer.obj
 0001:00009450       ?CopyChars@?$CSimpleStringT@D$0A@@ATL@@SAXPADPBDH@Z 0040a450 f i AccountServer.obj
 0001:00009470       ?CopyCharsOverlapped@?$CSimpleStringT@D$0A@@ATL@@SAXPADPBDH@Z 0040a470 f i AccountServer.obj
 0001:00009480       ?ThrowMemoryException@?$CSimpleStringT@D$0A@@ATL@@KAXXZ 0040a480 f i AccountServer.obj
 0001:00009490       ?Fork@?$CSimpleStringT@D$0A@@ATL@@AAEXH@Z 0040a490 f i AccountServer.obj
 0001:00009510       ?Reallocate@?$CSimpleStringT@D$0A@@ATL@@AAEXH@Z 0040a510 f i AccountServer.obj
 0001:00009540       ??3CBuffer@@SAXPAX@Z       0040a540 f i AccountServer.obj
 0001:00009580       ??3CBuffer3@@SAXPAX@Z      0040a580 f i AccountServer.obj
 0001:000095c0       ??_ECBuffer3@@UAEPAXI@Z    0040a5c0 f i AccountServer.obj
 0001:000095c0       ??_GCBuffer3@@UAEPAXI@Z    0040a5c0 f i AccountServer.obj
 0001:00009610       ??1CBuffer3@@UAE@XZ        0040a610 f i AccountServer.obj
 0001:00009620       ??9const_iterator@?$_Tree@V?$_Tmap_traits@KPAU_BUYING_INFO3@@U?$less@K@std@@V?$allocator@U?$pair@$$CBKPAU_BUYING_INFO3@@@std@@@3@$0A@@std@@@std@@QBE_NABV012@@Z 0040a620 f i AccountServer.obj
 0001:00009640       ?Compare@?$CStringT@DV?$StrTraitMFC@DV?$ChTraitsCRT@D@ATL@@@@@ATL@@QBEHPBD@Z 0040a640 f i AccountServer.obj
 0001:00009660       ?_Root@?$_Tree@V?$_Tmap_traits@KPAUtagSERVER_DESC@@U?$less@K@std@@V?$allocator@U?$pair@$$CBKPAUtagSERVER_DESC@@@std@@@3@$0A@@std@@@std@@IAEAAPAU_Node@?$_Tree_nod@V?$_Tmap_traits@KPAUtagSERVER_DESC@@U?$less@K@std@@V?$allocator@U?$pair@$$CBKPAUtagSERVER_DESC@@@std@@@3@$0A@@std@@@2@XZ 0040a660 f i AccountServer.obj
 0001:00009670       ?_Key@?$_Tree@V?$_Tmap_traits@KPAU_BUYING_INFO3@@U?$less@K@std@@V?$allocator@U?$pair@$$CBKPAU_BUYING_INFO3@@@std@@@3@$0A@@std@@@std@@KAABKPAU_Node@?$_Tree_nod@V?$_Tmap_traits@KPAU_BUYING_INFO3@@U?$less@K@std@@V?$allocator@U?$pair@$$CBKPAU_BUYING_INFO3@@@std@@@3@$0A@@std@@@2@@Z 0040a670 f i AccountServer.obj
 0001:00009680       ?_Root@?$_Tree@V?$_Tmap_traits@KPAU_BUYING_INFO3@@U?$less@K@std@@V?$allocator@U?$pair@$$CBKPAU_BUYING_INFO3@@@std@@@3@$0A@@std@@@std@@IAEAAPAU_Node@?$_Tree_nod@V?$_Tmap_traits@KPAU_BUYING_INFO3@@U?$less@K@std@@V?$allocator@U?$pair@$$CBKPAU_BUYING_INFO3@@@std@@@3@$0A@@std@@@2@XZ 0040a680 f i AccountServer.obj
 0001:00009690       ??0iterator@?$_Tree@V?$_Tmap_traits@KPAU_BUYING_INFO3@@U?$less@K@std@@V?$allocator@U?$pair@$$CBKPAU_BUYING_INFO3@@@std@@@3@$0A@@std@@@std@@QAE@PAU_Node@?$_Tree_nod@V?$_Tmap_traits@KPAU_BUYING_INFO3@@U?$less@K@std@@V?$allocator@U?$pair@$$CBKPAU_BUYING_INFO3@@@std@@@3@$0A@@std@@@2@@Z 0040a690 f i AccountServer.obj
 0001:000096a0       ??Diterator@?$_Tree@V?$_Tmap_traits@KPAU_BUYING_INFO3@@U?$less@K@std@@V?$allocator@U?$pair@$$CBKPAU_BUYING_INFO3@@@std@@@3@$0A@@std@@@std@@QBEAAU?$pair@$$CBKPAU_BUYING_INFO3@@@2@XZ 0040a6a0 f i AccountServer.obj
 0001:000096b0       ??0?$_Vector_val@KV?$allocator@K@std@@@std@@IAE@V?$allocator@K@1@@Z 0040a6b0 f i AccountServer.obj
 0001:000096c0       ??Diterator@?$vector@KV?$allocator@K@std@@@std@@QBEAAKXZ 0040a6c0 f i AccountServer.obj
 0001:000096d0       ??Hiterator@?$vector@KV?$allocator@K@std@@@std@@QBE?AV012@H@Z 0040a6d0 f i AccountServer.obj
 0001:000096f0       ?max_size@?$_Tree@V?$_Tmap_traits@KPAUtagSERVER_DESC@@U?$less@K@std@@V?$allocator@U?$pair@$$CBKPAUtagSERVER_DESC@@@std@@@3@$0A@@std@@@std@@QBEIXZ 0040a6f0 f i AccountServer.obj
 0001:00009700       ?_Lrotate@?$_Tree@V?$_Tmap_traits@KPAUtagSERVER_DESC@@U?$less@K@std@@V?$allocator@U?$pair@$$CBKPAUtagSERVER_DESC@@@std@@@3@$0A@@std@@@std@@IAEXPAU_Node@?$_Tree_nod@V?$_Tmap_traits@KPAUtagSERVER_DESC@@U?$less@K@std@@V?$allocator@U?$pair@$$CBKPAUtagSERVER_DESC@@@std@@@3@$0A@@std@@@2@@Z 0040a700 f i AccountServer.obj
 0001:00009760       ?_Rrotate@?$_Tree@V?$_Tmap_traits@KPAUtagSERVER_DESC@@U?$less@K@std@@V?$allocator@U?$pair@$$CBKPAUtagSERVER_DESC@@@std@@@3@$0A@@std@@@std@@IAEXPAU_Node@?$_Tree_nod@V?$_Tmap_traits@KPAUtagSERVER_DESC@@U?$less@K@std@@V?$allocator@U?$pair@$$CBKPAUtagSERVER_DESC@@@std@@@3@$0A@@std@@@2@@Z 0040a760 f i AccountServer.obj
 0001:000097c0       ?allocate@?$allocator@K@std@@QAEPAKI@Z 0040a7c0 f i AccountServer.obj
 0001:000097e0       ?_Lbound@?$_Tree@V?$_Tmap_traits@KPAU_BUYING_INFO3@@U?$less@K@std@@V?$allocator@U?$pair@$$CBKPAU_BUYING_INFO3@@@std@@@3@$0A@@std@@@std@@IBEPAU_Node@?$_Tree_nod@V?$_Tmap_traits@KPAU_BUYING_INFO3@@U?$less@K@std@@V?$allocator@U?$pair@$$CBKPAU_BUYING_INFO3@@@std@@@3@$0A@@std@@@2@ABK@Z 0040a7e0 f i AccountServer.obj
 0001:00009810       ?_Lrotate@?$_Tree@V?$_Tmap_traits@KPAU_BUYING_INFO3@@U?$less@K@std@@V?$allocator@U?$pair@$$CBKPAU_BUYING_INFO3@@@std@@@3@$0A@@std@@@std@@IAEXPAU_Node@?$_Tree_nod@V?$_Tmap_traits@KPAU_BUYING_INFO3@@U?$less@K@std@@V?$allocator@U?$pair@$$CBKPAU_BUYING_INFO3@@@std@@@3@$0A@@std@@@2@@Z 0040a810 f i AccountServer.obj
 0001:00009870       ?_Rrotate@?$_Tree@V?$_Tmap_traits@KPAU_BUYING_INFO3@@U?$less@K@std@@V?$allocator@U?$pair@$$CBKPAU_BUYING_INFO3@@@std@@@3@$0A@@std@@@std@@IAEXPAU_Node@?$_Tree_nod@V?$_Tmap_traits@KPAU_BUYING_INFO3@@U?$less@K@std@@V?$allocator@U?$pair@$$CBKPAU_BUYING_INFO3@@@std@@@3@$0A@@std@@@2@@Z 0040a870 f i AccountServer.obj
 0001:000098d0       ?destroy@?$allocator@U_Node@?$_Tree_nod@V?$_Tmap_traits@KPAU_BUYING_INFO3@@U?$less@K@std@@V?$allocator@U?$pair@$$CBKPAU_BUYING_INFO3@@@std@@@3@$0A@@std@@@std@@@std@@QAEXPAU_Node@?$_Tree_nod@V?$_Tmap_traits@KPAU_BUYING_INFO3@@U?$less@K@std@@V?$allocator@U?$pair@$$CBKPAU_BUYING_INFO3@@@std@@@3@$0A@@std@@@2@@Z 0040a8d0 f i AccountServer.obj
 0001:000098e0       ?_Inc@const_iterator@?$_Tree@V?$_Tmap_traits@KPAU_BUYING_INFO3@@U?$less@K@std@@V?$allocator@U?$pair@$$CBKPAU_BUYING_INFO3@@@std@@@3@$0A@@std@@@std@@QAEXXZ 0040a8e0 f i AccountServer.obj
 0001:00009940       ?max_size@?$vector@KV?$allocator@K@std@@@std@@QBEIXZ 0040a940 f i AccountServer.obj
 0001:00009950       ??0iterator@?$vector@V?$CStringT@DV?$StrTraitMFC@DV?$ChTraitsCRT@D@ATL@@@@@ATL@@V?$allocator@V?$CStringT@DV?$StrTraitMFC@DV?$ChTraitsCRT@D@ATL@@@@@ATL@@@std@@@std@@QAE@PAV?$CStringT@DV?$StrTraitMFC@DV?$ChTraitsCRT@D@ATL@@@@@ATL@@@Z 0040a950 f i AccountServer.obj
 0001:00009960       ??Hiterator@?$vector@V?$CStringT@DV?$StrTraitMFC@DV?$ChTraitsCRT@D@ATL@@@@@ATL@@V?$allocator@V?$CStringT@DV?$StrTraitMFC@DV?$ChTraitsCRT@D@ATL@@@@@ATL@@@std@@@std@@QBE?AV012@H@Z 0040a960 f i AccountServer.obj
 0001:00009980       ??Giterator@?$vector@V?$CStringT@DV?$StrTraitMFC@DV?$ChTraitsCRT@D@ATL@@@@@ATL@@V?$allocator@V?$CStringT@DV?$StrTraitMFC@DV?$ChTraitsCRT@D@ATL@@@@@ATL@@@std@@@std@@QBEHABVconst_iterator@12@@Z 0040a980 f i AccountServer.obj
 0001:00009990       ??0iterator@?$vector@KV?$allocator@K@std@@@std@@QAE@PAK@Z 0040a990 f i AccountServer.obj
 0001:000099a0       ??Giterator@?$vector@KV?$allocator@K@std@@@std@@QBEHABVconst_iterator@12@@Z 0040a9a0 f i AccountServer.obj
 0001:000099b0       ??Eiterator@?$list@PAXV?$allocator@PAX@std@@@std@@QAEAAV012@XZ 0040a9b0 f i AccountServer.obj
 0001:000099c0       ??9const_iterator@?$list@PAXV?$allocator@PAX@std@@@std@@QBE_NABV012@@Z 0040a9c0 f i AccountServer.obj
 0001:000099e0       ?allocate@?$allocator@U_Node@?$_Tree_nod@V?$_Tmap_traits@KPAUtagSERVER_DESC@@U?$less@K@std@@V?$allocator@U?$pair@$$CBKPAUtagSERVER_DESC@@@std@@@3@$0A@@std@@@std@@@std@@QAEPAU_Node@?$_Tree_nod@V?$_Tmap_traits@KPAUtagSERVER_DESC@@U?$less@K@std@@V?$allocator@U?$pair@$$CBKPAUtagSERVER_DESC@@@std@@@3@$0A@@std@@@2@I@Z 0040a9e0 f i AccountServer.obj
 0001:00009a00       ?max_size@?$vector@V?$CStringT@DV?$StrTraitMFC@DV?$ChTraitsCRT@D@ATL@@@@@ATL@@V?$allocator@V?$CStringT@DV?$StrTraitMFC@DV?$ChTraitsCRT@D@ATL@@@@@ATL@@@std@@@std@@QBEIXZ 0040aa00 f i AccountServer.obj
 0001:00009a10       ?allocate@?$allocator@V?$CStringT@DV?$StrTraitMFC@DV?$ChTraitsCRT@D@ATL@@@@@ATL@@@std@@QAEPAV?$CStringT@DV?$StrTraitMFC@DV?$ChTraitsCRT@D@ATL@@@@@ATL@@I@Z 0040aa10 f i AccountServer.obj
 0001:00009a30       ?_Ubound@?$_Tree@V?$_Tmap_traits@KPAU_BUYING_INFO3@@U?$less@K@std@@V?$allocator@U?$pair@$$CBKPAU_BUYING_INFO3@@@std@@@3@$0A@@std@@@std@@IBEPAU_Node@?$_Tree_nod@V?$_Tmap_traits@KPAU_BUYING_INFO3@@U?$less@K@std@@V?$allocator@U?$pair@$$CBKPAU_BUYING_INFO3@@@std@@@3@$0A@@std@@@2@ABK@Z 0040aa30 f i AccountServer.obj
 0001:00009a60       ?_Dec@const_iterator@?$_Tree@V?$_Tmap_traits@KPAUtagSERVER_DESC@@U?$less@K@std@@V?$allocator@U?$pair@$$CBKPAUtagSERVER_DESC@@@std@@@3@$0A@@std@@@std@@QAEXXZ 0040aa60 f i AccountServer.obj
 0001:00009ac0       ??Dconst_iterator@?$list@PAXV?$allocator@PAX@std@@@std@@QBEABQAXXZ 0040aac0 f i AccountServer.obj
 0001:00009ad0       ?Send@?$CDPMng@VCBuffer3@@@@QAEHPAXKK@Z 0040aad0 f i AccountServer.obj
 0001:00009b10       ??$_Destroy_range@KV?$allocator@K@std@@@std@@YAXPAK0AAV?$allocator@K@0@@Z 0040ab10 f i AccountServer.obj
 0001:00009b20       ??$copy_backward@PAKPAK@std@@YAPAKPAK00@Z 0040ab20 f i AccountServer.obj
 0001:00009b50       ?empty@?$stack@PAUtagDB_OVERLAPPED_PLUS@@V?$deque@PAUtagDB_OVERLAPPED_PLUS@@V?$allocator@PAUtagDB_OVERLAPPED_PLUS@@@std@@@std@@@std@@QBE_NXZ 0040ab50 f i AccountServer.obj
 0001:00009b60       ??0iterator@?$list@PAUtagDB_OVERLAPPED_PLUS@@V?$allocator@PAUtagDB_OVERLAPPED_PLUS@@@std@@@std@@QAE@PAU_Node@?$_List_nod@PAUtagDB_OVERLAPPED_PLUS@@V?$allocator@PAUtagDB_OVERLAPPED_PLUS@@@std@@@2@@Z 0040ab60 f i AccountServer.obj
 0001:00009b70       ?destroy@?$allocator@PAUtagDB_OVERLAPPED_PLUS@@@std@@QAEXPAPAUtagDB_OVERLAPPED_PLUS@@@Z 0040ab70 f i AccountServer.obj
 0001:00009b80       ??Diterator@?$deque@PAUtagDB_OVERLAPPED_PLUS@@V?$allocator@PAUtagDB_OVERLAPPED_PLUS@@@std@@@std@@QBEAAPAUtagDB_OVERLAPPED_PLUS@@XZ 0040ab80 f i AccountServer.obj
 0001:00009bb0       ??0iterator@?$deque@PAUtagDB_OVERLAPPED_PLUS@@V?$allocator@PAUtagDB_OVERLAPPED_PLUS@@@std@@@std@@QAE@IPBV12@@Z 0040abb0 f i AccountServer.obj
 0001:00009bd0       ??Ziterator@?$deque@PAUtagDB_OVERLAPPED_PLUS@@V?$allocator@PAUtagDB_OVERLAPPED_PLUS@@@std@@@std@@QAEAAV012@H@Z 0040abd0 f i AccountServer.obj
 0001:00009bf0       ?InitConnection@?$CDPMng@VCBuffer@@@@QAEHPAXG@Z 0040abf0 f i AccountServer.obj
 0001:00009c10       ?InitConnection@?$CDPMng@VCBuffer3@@@@QAEHPAXG@Z 0040ac10 f i AccountServer.obj
 0001:00009c30       ??$_Uninit_fill_n@KIK@std@@YAXPAKIABKAAV?$allocator@K@0@U_Scalar_ptr_iterator_tag@0@@Z 0040ac30 f i AccountServer.obj
 0001:00009c50       ??$_Uninitialized_copy@PAKPAKV?$allocator@K@std@@@std@@YAPAKPAK00AAV?$allocator@K@0@@Z 0040ac50 f i AccountServer.obj
 0001:00009c80       ?allocate@?$allocator@PAUtagDB_OVERLAPPED_PLUS@@@std@@QAEPAPAUtagDB_OVERLAPPED_PLUS@@I@Z 0040ac80 f i AccountServer.obj
 0001:00009ca0       ?construct@?$allocator@PAUtagDB_OVERLAPPED_PLUS@@@std@@QAEXPAPAUtagDB_OVERLAPPED_PLUS@@ABQAU3@@Z 0040aca0 f i AccountServer.obj
 0001:00009cc0       ?max_size@?$deque@PAUtagDB_OVERLAPPED_PLUS@@V?$allocator@PAUtagDB_OVERLAPPED_PLUS@@@std@@@std@@QBEIXZ 0040acc0 f i AccountServer.obj
 0001:00009cd0       ?allocate@?$allocator@PAPAUtagDB_OVERLAPPED_PLUS@@@std@@QAEPAPAPAUtagDB_OVERLAPPED_PLUS@@I@Z 0040acd0 f i AccountServer.obj
 0001:00009cf0       ?max_size@?$list@PAUtagDB_OVERLAPPED_PLUS@@V?$allocator@PAUtagDB_OVERLAPPED_PLUS@@@std@@@std@@QBEIXZ 0040acf0 f i AccountServer.obj
 0001:00009d00       ?allocate@?$allocator@U_Node@?$_List_nod@PAUtagDB_OVERLAPPED_PLUS@@V?$allocator@PAUtagDB_OVERLAPPED_PLUS@@@std@@@std@@@std@@QAEPAU_Node@?$_List_nod@PAUtagDB_OVERLAPPED_PLUS@@V?$allocator@PAUtagDB_OVERLAPPED_PLUS@@@std@@@2@I@Z 0040ad00 f i AccountServer.obj
 0001:00009d20       ?Clear@?$CBufferQueue@VCBuffer@@@@QAEXH@Z 0040ad20 f i AccountServer.obj
 0001:00009da0       ?Clear@?$CBufferQueue@VCBuffer3@@@@QAEXH@Z 0040ada0 f i AccountServer.obj
 0001:00009e20       ??$_Uninitialized_copy@PAPAPAUtagDB_OVERLAPPED_PLUS@@PAPAPAU1@V?$allocator@PAPAUtagDB_OVERLAPPED_PLUS@@@std@@@std@@YAPAPAPAUtagDB_OVERLAPPED_PLUS@@PAPAPAU1@00AAV?$allocator@PAPAUtagDB_OVERLAPPED_PLUS@@@0@@Z 0040ae20 f i AccountServer.obj
 0001:00009e50       ??$_Destroy_range@PAPAUtagDB_OVERLAPPED_PLUS@@V?$allocator@PAPAUtagDB_OVERLAPPED_PLUS@@@std@@@std@@YAXPAPAPAUtagDB_OVERLAPPED_PLUS@@0AAV?$allocator@PAPAUtagDB_OVERLAPPED_PLUS@@@0@@Z 0040ae50 f i AccountServer.obj
 0001:00009e60       ??Eiterator@?$list@PAXV?$allocator@PAX@std@@@std@@QAE?AV012@H@Z 0040ae60 f i AccountServer.obj
 0001:00009e70       ?destroy@?$allocator@PAU_Node@?$_Tree_nod@V?$_Tmap_traits@KPAV?$CClientSock@VCBuffer@@@@U?$less@K@std@@V?$allocator@U?$pair@$$CBKPAV?$CClientSock@VCBuffer@@@@@std@@@3@$0A@@std@@@std@@@std@@QAEXPAPAU_Node@?$_Tree_nod@V?$_Tmap_traits@KPAV?$CClientSock@VCBuffer@@@@U?$less@K@std@@V?$allocator@U?$pair@$$CBKPAV?$CClientSock@VCBuffer@@@@@std@@@3@$0A@@std@@@2@@Z 0040ae70 f i AccountServer.obj
 0001:00009e80       ?destroy@?$allocator@PAU_Node@?$_Tree_nod@V?$_Tmap_traits@KPAV?$CClientSockE@VCBuffer@@@@U?$less@K@std@@V?$allocator@U?$pair@$$CBKPAV?$CClientSockE@VCBuffer@@@@@std@@@3@$0A@@std@@@std@@@std@@QAEXPAPAU_Node@?$_Tree_nod@V?$_Tmap_traits@KPAV?$CClientSockE@VCBuffer@@@@U?$less@K@std@@V?$allocator@U?$pair@$$CBKPAV?$CClientSockE@VCBuffer@@@@@std@@@3@$0A@@std@@@2@@Z 0040ae80 f i AccountServer.obj
 0001:00009e90       ?destroy@?$allocator@PAU_Node@?$_Tree_nod@V?$_Tmap_traits@KPAV?$CClientSock@VCBuffer3@@@@U?$less@K@std@@V?$allocator@U?$pair@$$CBKPAV?$CClientSock@VCBuffer3@@@@@std@@@3@$0A@@std@@@std@@@std@@QAEXPAPAU_Node@?$_Tree_nod@V?$_Tmap_traits@KPAV?$CClientSock@VCBuffer3@@@@U?$less@K@std@@V?$allocator@U?$pair@$$CBKPAV?$CClientSock@VCBuffer3@@@@@std@@@3@$0A@@std@@@2@@Z 0040ae90 f i AccountServer.obj
 0001:00009ea0       ?destroy@?$allocator@PAU_Node@?$_Tree_nod@V?$_Tmap_traits@KPAV?$CClientSockE@VCBuffer3@@@@U?$less@K@std@@V?$allocator@U?$pair@$$CBKPAV?$CClientSockE@VCBuffer3@@@@@std@@@3@$0A@@std@@@std@@@std@@QAEXPAPAU_Node@?$_Tree_nod@V?$_Tmap_traits@KPAV?$CClientSockE@VCBuffer3@@@@U?$less@K@std@@V?$allocator@U?$pair@$$CBKPAV?$CClientSockE@VCBuffer3@@@@@std@@@3@$0A@@std@@@2@@Z 0040aea0 f i AccountServer.obj
 0001:00009eb0       ??0iterator@?$_Tree@V?$_Tmap_traits@KPAV?$CClientSock@VCBuffer@@@@U?$less@K@std@@V?$allocator@U?$pair@$$CBKPAV?$CClientSock@VCBuffer@@@@@std@@@3@$0A@@std@@@std@@QAE@PAU_Node@?$_Tree_nod@V?$_Tmap_traits@KPAV?$CClientSock@VCBuffer@@@@U?$less@K@std@@V?$allocator@U?$pair@$$CBKPAV?$CClientSock@VCBuffer@@@@@std@@@3@$0A@@std@@@2@@Z 0040aeb0 f i AccountServer.obj
 0001:00009ec0       ??0iterator@?$_Tree@V?$_Tmap_traits@KPAV?$CClientSockE@VCBuffer@@@@U?$less@K@std@@V?$allocator@U?$pair@$$CBKPAV?$CClientSockE@VCBuffer@@@@@std@@@3@$0A@@std@@@std@@QAE@PAU_Node@?$_Tree_nod@V?$_Tmap_traits@KPAV?$CClientSockE@VCBuffer@@@@U?$less@K@std@@V?$allocator@U?$pair@$$CBKPAV?$CClientSockE@VCBuffer@@@@@std@@@3@$0A@@std@@@2@@Z 0040aec0 f i AccountServer.obj
 0001:00009ed0       ??0iterator@?$_Tree@V?$_Tmap_traits@KPAV?$CClientSock@VCBuffer3@@@@U?$less@K@std@@V?$allocator@U?$pair@$$CBKPAV?$CClientSock@VCBuffer3@@@@@std@@@3@$0A@@std@@@std@@QAE@PAU_Node@?$_Tree_nod@V?$_Tmap_traits@KPAV?$CClientSock@VCBuffer3@@@@U?$less@K@std@@V?$allocator@U?$pair@$$CBKPAV?$CClientSock@VCBuffer3@@@@@std@@@3@$0A@@std@@@2@@Z 0040aed0 f i AccountServer.obj
 0001:00009ee0       ??0iterator@?$_Tree@V?$_Tmap_traits@KPAV?$CClientSockE@VCBuffer3@@@@U?$less@K@std@@V?$allocator@U?$pair@$$CBKPAV?$CClientSockE@VCBuffer3@@@@@std@@@3@$0A@@std@@@std@@QAE@PAU_Node@?$_Tree_nod@V?$_Tmap_traits@KPAV?$CClientSockE@VCBuffer3@@@@U?$less@K@std@@V?$allocator@U?$pair@$$CBKPAV?$CClientSockE@VCBuffer3@@@@@std@@@3@$0A@@std@@@2@@Z 0040aee0 f i AccountServer.obj
 0001:00009ef0       ?_Lrotate@?$_Tree@V?$_Tmap_traits@KPAV?$CClientSock@VCBuffer@@@@U?$less@K@std@@V?$allocator@U?$pair@$$CBKPAV?$CClientSock@VCBuffer@@@@@std@@@3@$0A@@std@@@std@@IAEXPAU_Node@?$_Tree_nod@V?$_Tmap_traits@KPAV?$CClientSock@VCBuffer@@@@U?$less@K@std@@V?$allocator@U?$pair@$$CBKPAV?$CClientSock@VCBuffer@@@@@std@@@3@$0A@@std@@@2@@Z 0040aef0 f i AccountServer.obj
 0001:00009f50       ?destroy@?$allocator@U_Node@?$_Tree_nod@V?$_Tmap_traits@KPAV?$CClientSock@VCBuffer@@@@U?$less@K@std@@V?$allocator@U?$pair@$$CBKPAV?$CClientSock@VCBuffer@@@@@std@@@3@$0A@@std@@@std@@@std@@QAEXPAU_Node@?$_Tree_nod@V?$_Tmap_traits@KPAV?$CClientSock@VCBuffer@@@@U?$less@K@std@@V?$allocator@U?$pair@$$CBKPAV?$CClientSock@VCBuffer@@@@@std@@@3@$0A@@std@@@2@@Z 0040af50 f i AccountServer.obj
 0001:00009f60       ?_Lrotate@?$_Tree@V?$_Tmap_traits@KPAV?$CClientSockE@VCBuffer@@@@U?$less@K@std@@V?$allocator@U?$pair@$$CBKPAV?$CClientSockE@VCBuffer@@@@@std@@@3@$0A@@std@@@std@@IAEXPAU_Node@?$_Tree_nod@V?$_Tmap_traits@KPAV?$CClientSockE@VCBuffer@@@@U?$less@K@std@@V?$allocator@U?$pair@$$CBKPAV?$CClientSockE@VCBuffer@@@@@std@@@3@$0A@@std@@@2@@Z 0040af60 f i AccountServer.obj
 0001:00009fc0       ?destroy@?$allocator@U_Node@?$_Tree_nod@V?$_Tmap_traits@KPAV?$CClientSockE@VCBuffer@@@@U?$less@K@std@@V?$allocator@U?$pair@$$CBKPAV?$CClientSockE@VCBuffer@@@@@std@@@3@$0A@@std@@@std@@@std@@QAEXPAU_Node@?$_Tree_nod@V?$_Tmap_traits@KPAV?$CClientSockE@VCBuffer@@@@U?$less@K@std@@V?$allocator@U?$pair@$$CBKPAV?$CClientSockE@VCBuffer@@@@@std@@@3@$0A@@std@@@2@@Z 0040afc0 f i AccountServer.obj
 0001:00009fd0       ?_Lrotate@?$_Tree@V?$_Tmap_traits@KPAV?$CClientSock@VCBuffer3@@@@U?$less@K@std@@V?$allocator@U?$pair@$$CBKPAV?$CClientSock@VCBuffer3@@@@@std@@@3@$0A@@std@@@std@@IAEXPAU_Node@?$_Tree_nod@V?$_Tmap_traits@KPAV?$CClientSock@VCBuffer3@@@@U?$less@K@std@@V?$allocator@U?$pair@$$CBKPAV?$CClientSock@VCBuffer3@@@@@std@@@3@$0A@@std@@@2@@Z 0040afd0 f i AccountServer.obj
 0001:0000a030       ?destroy@?$allocator@U_Node@?$_Tree_nod@V?$_Tmap_traits@KPAV?$CClientSock@VCBuffer3@@@@U?$less@K@std@@V?$allocator@U?$pair@$$CBKPAV?$CClientSock@VCBuffer3@@@@@std@@@3@$0A@@std@@@std@@@std@@QAEXPAU_Node@?$_Tree_nod@V?$_Tmap_traits@KPAV?$CClientSock@VCBuffer3@@@@U?$less@K@std@@V?$allocator@U?$pair@$$CBKPAV?$CClientSock@VCBuffer3@@@@@std@@@3@$0A@@std@@@2@@Z 0040b030 f i AccountServer.obj
 0001:0000a040       ?_Lrotate@?$_Tree@V?$_Tmap_traits@KPAV?$CClientSockE@VCBuffer3@@@@U?$less@K@std@@V?$allocator@U?$pair@$$CBKPAV?$CClientSockE@VCBuffer3@@@@@std@@@3@$0A@@std@@@std@@IAEXPAU_Node@?$_Tree_nod@V?$_Tmap_traits@KPAV?$CClientSockE@VCBuffer3@@@@U?$less@K@std@@V?$allocator@U?$pair@$$CBKPAV?$CClientSockE@VCBuffer3@@@@@std@@@3@$0A@@std@@@2@@Z 0040b040 f i AccountServer.obj
 0001:0000a0a0       ?destroy@?$allocator@U_Node@?$_Tree_nod@V?$_Tmap_traits@KPAV?$CClientSockE@VCBuffer3@@@@U?$less@K@std@@V?$allocator@U?$pair@$$CBKPAV?$CClientSockE@VCBuffer3@@@@@std@@@3@$0A@@std@@@std@@@std@@QAEXPAU_Node@?$_Tree_nod@V?$_Tmap_traits@KPAV?$CClientSockE@VCBuffer3@@@@U?$less@K@std@@V?$allocator@U?$pair@$$CBKPAV?$CClientSockE@VCBuffer3@@@@@std@@@3@$0A@@std@@@2@@Z 0040b0a0 f i AccountServer.obj
 0001:0000a0b0       ??Econst_iterator@?$_Tree@V?$_Tmap_traits@KPAV?$CClientSock@VCBuffer@@@@U?$less@K@std@@V?$allocator@U?$pair@$$CBKPAV?$CClientSock@VCBuffer@@@@@std@@@3@$0A@@std@@@std@@QAEAAV012@XZ 0040b0b0 f i AccountServer.obj
 0001:0000a0c0       ??Econst_iterator@?$_Tree@V?$_Tmap_traits@KPAV?$CClientSockE@VCBuffer@@@@U?$less@K@std@@V?$allocator@U?$pair@$$CBKPAV?$CClientSockE@VCBuffer@@@@@std@@@3@$0A@@std@@@std@@QAEAAV012@XZ 0040b0c0 f i AccountServer.obj
 0001:0000a0d0       ??Econst_iterator@?$_Tree@V?$_Tmap_traits@KPAV?$CClientSock@VCBuffer3@@@@U?$less@K@std@@V?$allocator@U?$pair@$$CBKPAV?$CClientSock@VCBuffer3@@@@@std@@@3@$0A@@std@@@std@@QAEAAV012@XZ 0040b0d0 f i AccountServer.obj
 0001:0000a0e0       ??Econst_iterator@?$_Tree@V?$_Tmap_traits@KPAV?$CClientSockE@VCBuffer3@@@@U?$less@K@std@@V?$allocator@U?$pair@$$CBKPAV?$CClientSockE@VCBuffer3@@@@@std@@@3@$0A@@std@@@std@@QAEAAV012@XZ 0040b0e0 f i AccountServer.obj
 0001:0000a0f0       ?GetRecvHandle@?$CDPMng@VCBuffer@@@@QAEPAXXZ 0040b0f0 f i AccountServer.obj
 0001:0000a100       ??0?$CBufferQueue@VCBuffer@@@@QAE@XZ 0040b100 f i AccountServer.obj
 0001:0000a130       ?GetRecvHandle@?$CDPMng@VCBuffer3@@@@QAEPAXXZ 0040b130 f i AccountServer.obj
 0001:0000a140       ??0?$CBufferQueue@VCBuffer3@@@@QAE@XZ 0040b140 f i AccountServer.obj
 0001:0000a170       ??$_Uninit_fill_n@PAPAUtagDB_OVERLAPPED_PLUS@@IPAPAU1@@std@@YAXPAPAPAUtagDB_OVERLAPPED_PLUS@@IABQAPAU1@AAV?$allocator@PAPAUtagDB_OVERLAPPED_PLUS@@@0@U_Scalar_ptr_iterator_tag@0@@Z 0040b170 f i AccountServer.obj
 0001:0000a190       ?_Key@?$_Tree@V?$_Tmap_traits@KPAV?$CClientSock@VCBuffer@@@@U?$less@K@std@@V?$allocator@U?$pair@$$CBKPAV?$CClientSock@VCBuffer@@@@@std@@@3@$0A@@std@@@std@@KAABKPAU_Node@?$_Tree_nod@V?$_Tmap_traits@KPAV?$CClientSock@VCBuffer@@@@U?$less@K@std@@V?$allocator@U?$pair@$$CBKPAV?$CClientSock@VCBuffer@@@@@std@@@3@$0A@@std@@@2@@Z 0040b190 f i AccountServer.obj
 0001:0000a1a0       ?_Key@?$_Tree@V?$_Tmap_traits@KPAV?$CClientSockE@VCBuffer@@@@U?$less@K@std@@V?$allocator@U?$pair@$$CBKPAV?$CClientSockE@VCBuffer@@@@@std@@@3@$0A@@std@@@std@@KAABKPAU_Node@?$_Tree_nod@V?$_Tmap_traits@KPAV?$CClientSockE@VCBuffer@@@@U?$less@K@std@@V?$allocator@U?$pair@$$CBKPAV?$CClientSockE@VCBuffer@@@@@std@@@3@$0A@@std@@@2@@Z 0040b1a0 f i AccountServer.obj
 0001:0000a1b0       ?_Key@?$_Tree@V?$_Tmap_traits@KPAV?$CClientSock@VCBuffer3@@@@U?$less@K@std@@V?$allocator@U?$pair@$$CBKPAV?$CClientSock@VCBuffer3@@@@@std@@@3@$0A@@std@@@std@@KAABKPAU_Node@?$_Tree_nod@V?$_Tmap_traits@KPAV?$CClientSock@VCBuffer3@@@@U?$less@K@std@@V?$allocator@U?$pair@$$CBKPAV?$CClientSock@VCBuffer3@@@@@std@@@3@$0A@@std@@@2@@Z 0040b1b0 f i AccountServer.obj
 0001:0000a1c0       ?_Key@?$_Tree@V?$_Tmap_traits@KPAV?$CClientSockE@VCBuffer3@@@@U?$less@K@std@@V?$allocator@U?$pair@$$CBKPAV?$CClientSockE@VCBuffer3@@@@@std@@@3@$0A@@std@@@std@@KAABKPAU_Node@?$_Tree_nod@V?$_Tmap_traits@KPAV?$CClientSockE@VCBuffer3@@@@U?$less@K@std@@V?$allocator@U?$pair@$$CBKPAV?$CClientSockE@VCBuffer3@@@@@std@@@3@$0A@@std@@@2@@Z 0040b1c0 f i AccountServer.obj
 0001:0000a1d0       ??Diterator@?$_Tree@V?$_Tmap_traits@KPAV?$CClientSock@VCBuffer@@@@U?$less@K@std@@V?$allocator@U?$pair@$$CBKPAV?$CClientSock@VCBuffer@@@@@std@@@3@$0A@@std@@@std@@QBEAAU?$pair@$$CBKPAV?$CClientSock@VCBuffer@@@@@2@XZ 0040b1d0 f i AccountServer.obj
 0001:0000a1e0       ??Diterator@?$_Tree@V?$_Tmap_traits@KPAV?$CClientSockE@VCBuffer@@@@U?$less@K@std@@V?$allocator@U?$pair@$$CBKPAV?$CClientSockE@VCBuffer@@@@@std@@@3@$0A@@std@@@std@@QBEAAU?$pair@$$CBKPAV?$CClientSockE@VCBuffer@@@@@2@XZ 0040b1e0 f i AccountServer.obj
 0001:0000a1f0       ??Diterator@?$_Tree@V?$_Tmap_traits@KPAV?$CClientSock@VCBuffer3@@@@U?$less@K@std@@V?$allocator@U?$pair@$$CBKPAV?$CClientSock@VCBuffer3@@@@@std@@@3@$0A@@std@@@std@@QBEAAU?$pair@$$CBKPAV?$CClientSock@VCBuffer3@@@@@2@XZ 0040b1f0 f i AccountServer.obj
 0001:0000a200       ??Diterator@?$_Tree@V?$_Tmap_traits@KPAV?$CClientSockE@VCBuffer3@@@@U?$less@K@std@@V?$allocator@U?$pair@$$CBKPAV?$CClientSockE@VCBuffer3@@@@@std@@@3@$0A@@std@@@std@@QBEAAU?$pair@$$CBKPAV?$CClientSockE@VCBuffer3@@@@@2@XZ 0040b200 f i AccountServer.obj
 0001:0000a210       ?_Lbound@?$_Tree@V?$_Tmap_traits@KPAV?$CClientSock@VCBuffer@@@@U?$less@K@std@@V?$allocator@U?$pair@$$CBKPAV?$CClientSock@VCBuffer@@@@@std@@@3@$0A@@std@@@std@@IBEPAU_Node@?$_Tree_nod@V?$_Tmap_traits@KPAV?$CClientSock@VCBuffer@@@@U?$less@K@std@@V?$allocator@U?$pair@$$CBKPAV?$CClientSock@VCBuffer@@@@@std@@@3@$0A@@std@@@2@ABK@Z 0040b210 f i AccountServer.obj
 0001:0000a240       ?_Lbound@?$_Tree@V?$_Tmap_traits@KPAV?$CClientSockE@VCBuffer@@@@U?$less@K@std@@V?$allocator@U?$pair@$$CBKPAV?$CClientSockE@VCBuffer@@@@@std@@@3@$0A@@std@@@std@@IBEPAU_Node@?$_Tree_nod@V?$_Tmap_traits@KPAV?$CClientSockE@VCBuffer@@@@U?$less@K@std@@V?$allocator@U?$pair@$$CBKPAV?$CClientSockE@VCBuffer@@@@@std@@@3@$0A@@std@@@2@ABK@Z 0040b240 f i AccountServer.obj
 0001:0000a270       ?_Lbound@?$_Tree@V?$_Tmap_traits@KPAV?$CClientSock@VCBuffer3@@@@U?$less@K@std@@V?$allocator@U?$pair@$$CBKPAV?$CClientSock@VCBuffer3@@@@@std@@@3@$0A@@std@@@std@@IBEPAU_Node@?$_Tree_nod@V?$_Tmap_traits@KPAV?$CClientSock@VCBuffer3@@@@U?$less@K@std@@V?$allocator@U?$pair@$$CBKPAV?$CClientSock@VCBuffer3@@@@@std@@@3@$0A@@std@@@2@ABK@Z 0040b270 f i AccountServer.obj
 0001:0000a2a0       ?_Lbound@?$_Tree@V?$_Tmap_traits@KPAV?$CClientSockE@VCBuffer3@@@@U?$less@K@std@@V?$allocator@U?$pair@$$CBKPAV?$CClientSockE@VCBuffer3@@@@@std@@@3@$0A@@std@@@std@@IBEPAU_Node@?$_Tree_nod@V?$_Tmap_traits@KPAV?$CClientSockE@VCBuffer3@@@@U?$less@K@std@@V?$allocator@U?$pair@$$CBKPAV?$CClientSockE@VCBuffer3@@@@@std@@@3@$0A@@std@@@2@ABK@Z 0040b2a0 f i AccountServer.obj
 0001:0000a2d0       ??0?$_Tree_nod@V?$_Tmap_traits@KPAV?$CClientSock@VCBuffer@@@@U?$less@K@std@@V?$allocator@U?$pair@$$CBKPAV?$CClientSock@VCBuffer@@@@@std@@@3@$0A@@std@@@std@@IAE@ABU?$less@K@1@V?$allocator@U?$pair@$$CBKPAV?$CClientSock@VCBuffer@@@@@std@@@1@@Z 0040b2d0 f i AccountServer.obj
 0001:0000a2e0       ?allocate@?$allocator@U_Node@?$_Tree_nod@V?$_Tmap_traits@KPAV?$CClientSock@VCBuffer@@@@U?$less@K@std@@V?$allocator@U?$pair@$$CBKPAV?$CClientSock@VCBuffer@@@@@std@@@3@$0A@@std@@@std@@@std@@QAEPAU_Node@?$_Tree_nod@V?$_Tmap_traits@KPAV?$CClientSock@VCBuffer@@@@U?$less@K@std@@V?$allocator@U?$pair@$$CBKPAV?$CClientSock@VCBuffer@@@@@std@@@3@$0A@@std@@@2@I@Z 0040b2e0 f i AccountServer.obj
 0001:0000a300       ?construct@?$allocator@PAU_Node@?$_Tree_nod@V?$_Tmap_traits@KPAV?$CClientSock@VCBuffer@@@@U?$less@K@std@@V?$allocator@U?$pair@$$CBKPAV?$CClientSock@VCBuffer@@@@@std@@@3@$0A@@std@@@std@@@std@@QAEXPAPAU_Node@?$_Tree_nod@V?$_Tmap_traits@KPAV?$CClientSock@VCBuffer@@@@U?$less@K@std@@V?$allocator@U?$pair@$$CBKPAV?$CClientSock@VCBuffer@@@@@std@@@3@$0A@@std@@@2@ABQAU342@@Z 0040b300 f i AccountServer.obj
 0001:0000a320       ??0?$_Tree_nod@V?$_Tmap_traits@KPAV?$CClientSockE@VCBuffer@@@@U?$less@K@std@@V?$allocator@U?$pair@$$CBKPAV?$CClientSockE@VCBuffer@@@@@std@@@3@$0A@@std@@@std@@IAE@ABU?$less@K@1@V?$allocator@U?$pair@$$CBKPAV?$CClientSockE@VCBuffer@@@@@std@@@1@@Z 0040b320 f i AccountServer.obj
 0001:0000a330       ?allocate@?$allocator@U_Node@?$_Tree_nod@V?$_Tmap_traits@KPAV?$CClientSockE@VCBuffer@@@@U?$less@K@std@@V?$allocator@U?$pair@$$CBKPAV?$CClientSockE@VCBuffer@@@@@std@@@3@$0A@@std@@@std@@@std@@QAEPAU_Node@?$_Tree_nod@V?$_Tmap_traits@KPAV?$CClientSockE@VCBuffer@@@@U?$less@K@std@@V?$allocator@U?$pair@$$CBKPAV?$CClientSockE@VCBuffer@@@@@std@@@3@$0A@@std@@@2@I@Z 0040b330 f i AccountServer.obj
 0001:0000a350       ?construct@?$allocator@PAU_Node@?$_Tree_nod@V?$_Tmap_traits@KPAV?$CClientSockE@VCBuffer@@@@U?$less@K@std@@V?$allocator@U?$pair@$$CBKPAV?$CClientSockE@VCBuffer@@@@@std@@@3@$0A@@std@@@std@@@std@@QAEXPAPAU_Node@?$_Tree_nod@V?$_Tmap_traits@KPAV?$CClientSockE@VCBuffer@@@@U?$less@K@std@@V?$allocator@U?$pair@$$CBKPAV?$CClientSockE@VCBuffer@@@@@std@@@3@$0A@@std@@@2@ABQAU342@@Z 0040b350 f i AccountServer.obj
 0001:0000a370       ??0?$_Tree_nod@V?$_Tmap_traits@KPAV?$CClientSock@VCBuffer3@@@@U?$less@K@std@@V?$allocator@U?$pair@$$CBKPAV?$CClientSock@VCBuffer3@@@@@std@@@3@$0A@@std@@@std@@IAE@ABU?$less@K@1@V?$allocator@U?$pair@$$CBKPAV?$CClientSock@VCBuffer3@@@@@std@@@1@@Z 0040b370 f i AccountServer.obj
 0001:0000a380       ?allocate@?$allocator@U_Node@?$_Tree_nod@V?$_Tmap_traits@KPAV?$CClientSock@VCBuffer3@@@@U?$less@K@std@@V?$allocator@U?$pair@$$CBKPAV?$CClientSock@VCBuffer3@@@@@std@@@3@$0A@@std@@@std@@@std@@QAEPAU_Node@?$_Tree_nod@V?$_Tmap_traits@KPAV?$CClientSock@VCBuffer3@@@@U?$less@K@std@@V?$allocator@U?$pair@$$CBKPAV?$CClientSock@VCBuffer3@@@@@std@@@3@$0A@@std@@@2@I@Z 0040b380 f i AccountServer.obj
 0001:0000a3a0       ?construct@?$allocator@PAU_Node@?$_Tree_nod@V?$_Tmap_traits@KPAV?$CClientSock@VCBuffer3@@@@U?$less@K@std@@V?$allocator@U?$pair@$$CBKPAV?$CClientSock@VCBuffer3@@@@@std@@@3@$0A@@std@@@std@@@std@@QAEXPAPAU_Node@?$_Tree_nod@V?$_Tmap_traits@KPAV?$CClientSock@VCBuffer3@@@@U?$less@K@std@@V?$allocator@U?$pair@$$CBKPAV?$CClientSock@VCBuffer3@@@@@std@@@3@$0A@@std@@@2@ABQAU342@@Z 0040b3a0 f i AccountServer.obj
 0001:0000a3c0       ??0?$_Tree_nod@V?$_Tmap_traits@KPAV?$CClientSockE@VCBuffer3@@@@U?$less@K@std@@V?$allocator@U?$pair@$$CBKPAV?$CClientSockE@VCBuffer3@@@@@std@@@3@$0A@@std@@@std@@IAE@ABU?$less@K@1@V?$allocator@U?$pair@$$CBKPAV?$CClientSockE@VCBuffer3@@@@@std@@@1@@Z 0040b3c0 f i AccountServer.obj
 0001:0000a3d0       ?allocate@?$allocator@U_Node@?$_Tree_nod@V?$_Tmap_traits@KPAV?$CClientSockE@VCBuffer3@@@@U?$less@K@std@@V?$allocator@U?$pair@$$CBKPAV?$CClientSockE@VCBuffer3@@@@@std@@@3@$0A@@std@@@std@@@std@@QAEPAU_Node@?$_Tree_nod@V?$_Tmap_traits@KPAV?$CClientSockE@VCBuffer3@@@@U?$less@K@std@@V?$allocator@U?$pair@$$CBKPAV?$CClientSockE@VCBuffer3@@@@@std@@@3@$0A@@std@@@2@I@Z 0040b3d0 f i AccountServer.obj
 0001:0000a3f0       ?construct@?$allocator@PAU_Node@?$_Tree_nod@V?$_Tmap_traits@KPAV?$CClientSockE@VCBuffer3@@@@U?$less@K@std@@V?$allocator@U?$pair@$$CBKPAV?$CClientSockE@VCBuffer3@@@@@std@@@3@$0A@@std@@@std@@@std@@QAEXPAPAU_Node@?$_Tree_nod@V?$_Tmap_traits@KPAV?$CClientSockE@VCBuffer3@@@@U?$less@K@std@@V?$allocator@U?$pair@$$CBKPAV?$CClientSockE@VCBuffer3@@@@@std@@@3@$0A@@std@@@2@ABQAU342@@Z 0040b3f0 f i AccountServer.obj
 0001:0000a410       ?AddTail@?$CBufferQueue@VCBuffer@@@@QAEXPAVCBuffer@@@Z 0040b410 f i AccountServer.obj
 0001:0000a470       ?RemoveHead@?$CBufferQueue@VCBuffer@@@@QAEXXZ 0040b470 f i AccountServer.obj
 0001:0000a4b0       ?AddTail@?$CBufferQueue@VCBuffer3@@@@QAEXPAVCBuffer3@@@Z 0040b4b0 f i AccountServer.obj
 0001:0000a510       ?RemoveHead@?$CBufferQueue@VCBuffer3@@@@QAEXXZ 0040b510 f i AccountServer.obj
 0001:0000a550       ?Lock@?$CMapChild@VCBuffer@@@@QAEXXZ 0040b550 f i AccountServer.obj
 0001:0000a560       ?Unlock@?$CMapChild@VCBuffer@@@@QAEXXZ 0040b560 f i AccountServer.obj
 0001:0000a570       ?Lock@?$CMapChildE@VCBuffer@@@@QAEXXZ 0040b570 f i AccountServer.obj
 0001:0000a580       ?Unlock@?$CMapChildE@VCBuffer@@@@QAEXXZ 0040b580 f i AccountServer.obj
 0001:0000a590       ?Lock@?$CMapChild@VCBuffer3@@@@QAEXXZ 0040b590 f i AccountServer.obj
 0001:0000a5a0       ?Unlock@?$CMapChild@VCBuffer3@@@@QAEXXZ 0040b5a0 f i AccountServer.obj
 0001:0000a5b0       ?Lock@?$CMapChildE@VCBuffer3@@@@QAEXXZ 0040b5b0 f i AccountServer.obj
 0001:0000a5c0       ?Unlock@?$CMapChildE@VCBuffer3@@@@QAEXXZ 0040b5c0 f i AccountServer.obj
 0001:0000a5d0       ?max_size@?$_Tree@V?$_Tmap_traits@KPAV?$CClientSock@VCBuffer@@@@U?$less@K@std@@V?$allocator@U?$pair@$$CBKPAV?$CClientSock@VCBuffer@@@@@std@@@3@$0A@@std@@@std@@QBEIXZ 0040b5d0 f i AccountServer.obj
 0001:0000a5e0       ?_Buynode@?$_Tree@V?$_Tmap_traits@KPAV?$CClientSock@VCBuffer@@@@U?$less@K@std@@V?$allocator@U?$pair@$$CBKPAV?$CClientSock@VCBuffer@@@@@std@@@3@$0A@@std@@@std@@IAEPAU_Node@?$_Tree_nod@V?$_Tmap_traits@KPAV?$CClientSock@VCBuffer@@@@U?$less@K@std@@V?$allocator@U?$pair@$$CBKPAV?$CClientSock@VCBuffer@@@@@std@@@3@$0A@@std@@@2@PAU342@00ABU?$pair@$$CBKPAV?$CClientSock@VCBuffer@@@@@2@D@Z 0040b5e0 f i AccountServer.obj
 0001:0000a620       ?max_size@?$_Tree@V?$_Tmap_traits@KPAV?$CClientSockE@VCBuffer@@@@U?$less@K@std@@V?$allocator@U?$pair@$$CBKPAV?$CClientSockE@VCBuffer@@@@@std@@@3@$0A@@std@@@std@@QBEIXZ 0040b620 f i AccountServer.obj
 0001:0000a630       ?_Buynode@?$_Tree@V?$_Tmap_traits@KPAV?$CClientSockE@VCBuffer@@@@U?$less@K@std@@V?$allocator@U?$pair@$$CBKPAV?$CClientSockE@VCBuffer@@@@@std@@@3@$0A@@std@@@std@@IAEPAU_Node@?$_Tree_nod@V?$_Tmap_traits@KPAV?$CClientSockE@VCBuffer@@@@U?$less@K@std@@V?$allocator@U?$pair@$$CBKPAV?$CClientSockE@VCBuffer@@@@@std@@@3@$0A@@std@@@2@PAU342@00ABU?$pair@$$CBKPAV?$CClientSockE@VCBuffer@@@@@2@D@Z 0040b630 f i AccountServer.obj
 0001:0000a670       ?max_size@?$_Tree@V?$_Tmap_traits@KPAV?$CClientSock@VCBuffer3@@@@U?$less@K@std@@V?$allocator@U?$pair@$$CBKPAV?$CClientSock@VCBuffer3@@@@@std@@@3@$0A@@std@@@std@@QBEIXZ 0040b670 f i AccountServer.obj
 0001:0000a680       ?_Buynode@?$_Tree@V?$_Tmap_traits@KPAV?$CClientSock@VCBuffer3@@@@U?$less@K@std@@V?$allocator@U?$pair@$$CBKPAV?$CClientSock@VCBuffer3@@@@@std@@@3@$0A@@std@@@std@@IAEPAU_Node@?$_Tree_nod@V?$_Tmap_traits@KPAV?$CClientSock@VCBuffer3@@@@U?$less@K@std@@V?$allocator@U?$pair@$$CBKPAV?$CClientSock@VCBuffer3@@@@@std@@@3@$0A@@std@@@2@PAU342@00ABU?$pair@$$CBKPAV?$CClientSock@VCBuffer3@@@@@2@D@Z 0040b680 f i AccountServer.obj
 0001:0000a6c0       ?max_size@?$_Tree@V?$_Tmap_traits@KPAV?$CClientSockE@VCBuffer3@@@@U?$less@K@std@@V?$allocator@U?$pair@$$CBKPAV?$CClientSockE@VCBuffer3@@@@@std@@@3@$0A@@std@@@std@@QBEIXZ 0040b6c0 f i AccountServer.obj
 0001:0000a6d0       ?_Buynode@?$_Tree@V?$_Tmap_traits@KPAV?$CClientSockE@VCBuffer3@@@@U?$less@K@std@@V?$allocator@U?$pair@$$CBKPAV?$CClientSockE@VCBuffer3@@@@@std@@@3@$0A@@std@@@std@@IAEPAU_Node@?$_Tree_nod@V?$_Tmap_traits@KPAV?$CClientSockE@VCBuffer3@@@@U?$less@K@std@@V?$allocator@U?$pair@$$CBKPAV?$CClientSockE@VCBuffer3@@@@@std@@@3@$0A@@std@@@2@PAU342@00ABU?$pair@$$CBKPAV?$CClientSockE@VCBuffer3@@@@@2@D@Z 0040b6d0 f i AccountServer.obj
 0001:0000a710       ??Fconst_iterator@?$_Tree@V?$_Tmap_traits@KPAV?$CClientSock@VCBuffer@@@@U?$less@K@std@@V?$allocator@U?$pair@$$CBKPAV?$CClientSock@VCBuffer@@@@@std@@@3@$0A@@std@@@std@@QAEAAV012@XZ 0040b710 f i AccountServer.obj
 0001:0000a720       ??Fconst_iterator@?$_Tree@V?$_Tmap_traits@KPAV?$CClientSockE@VCBuffer@@@@U?$less@K@std@@V?$allocator@U?$pair@$$CBKPAV?$CClientSockE@VCBuffer@@@@@std@@@3@$0A@@std@@@std@@QAEAAV012@XZ 0040b720 f i AccountServer.obj
 0001:0000a730       ??Fconst_iterator@?$_Tree@V?$_Tmap_traits@KPAV?$CClientSock@VCBuffer3@@@@U?$less@K@std@@V?$allocator@U?$pair@$$CBKPAV?$CClientSock@VCBuffer3@@@@@std@@@3@$0A@@std@@@std@@QAEAAV012@XZ 0040b730 f i AccountServer.obj
 0001:0000a740       ??Fconst_iterator@?$_Tree@V?$_Tmap_traits@KPAV?$CClientSockE@VCBuffer3@@@@U?$less@K@std@@V?$allocator@U?$pair@$$CBKPAV?$CClientSockE@VCBuffer3@@@@@std@@@3@$0A@@std@@@std@@QAEAAV012@XZ 0040b740 f i AccountServer.obj
 0001:0000a750       ?RemoveData@?$CBufferQueue@VCBuffer@@@@QAEXK@Z 0040b750 f i AccountServer.obj
 0001:0000a7d0       ?RemoveData@?$CBufferQueue@VCBuffer3@@@@QAEXK@Z 0040b7d0 f i AccountServer.obj
 0001:0000a850       ?SendRemnant@?$CClientSockE@VCBuffer@@@@QAEHK@Z 0040b850 f i AccountServer.obj
 0001:0000a970       ?SendRemnant@?$CClientSockE@VCBuffer3@@@@QAEHK@Z 0040b970 f i AccountServer.obj
 0001:0000aa90       ?GetLength@?$CSimpleStringT@D$0A@@ATL@@QBEHXZ 0040ba90 f i AccountServer.obj
 0001:0000aaa0       ??0?$CSimpleStringT@D$0A@@ATL@@QAE@PAUIAtlStringMgr@1@@Z 0040baa0 f i AccountServer.obj
 0001:0000aac0       ??1?$CSimpleStringT@D$0A@@ATL@@QAE@XZ 0040bac0 f i AccountServer.obj
 0001:0000aae0       ?ReleaseBufferSetLength@?$CSimpleStringT@D$0A@@ATL@@QAEXH@Z 0040bae0 f i AccountServer.obj
 0001:0000ab10       ?Empty@?$CSimpleStringT@D$0A@@ATL@@QAEXXZ 0040bb10 f i AccountServer.obj
 0001:0000ab80       ?PrepareWrite2@?$CSimpleStringT@D$0A@@ATL@@AAEXH@Z 0040bb80 f i AccountServer.obj
 0001:0000abd0       ?CloneData@?$CSimpleStringT@D$0A@@ATL@@CAPAUCStringData@2@PAU32@@Z 0040bbd0 f i AccountServer.obj
 0001:0000ac30       ?SetTimeDlgProc@@YGHPAUHWND__@@IIJ@Z 0040bc30 f   AccountServer.obj
 0001:0000ada0       ??8ATL@@YA_NABV?$CStringT@DV?$StrTraitMFC@DV?$ChTraitsCRT@D@ATL@@@@@0@PBD@Z 0040bda0 f i AccountServer.obj
 0001:0000adc0       ?begin@?$_Tree@V?$_Tmap_traits@KPAU_BUYING_INFO3@@U?$less@K@std@@V?$allocator@U?$pair@$$CBKPAU_BUYING_INFO3@@@std@@@3@$0A@@std@@@std@@QAE?AViterator@12@XZ 0040bdc0 f i AccountServer.obj
 0001:0000add0       ?end@?$_Tree@V?$_Tmap_traits@KPAU_BUYING_INFO3@@U?$less@K@std@@V?$allocator@U?$pair@$$CBKPAU_BUYING_INFO3@@@std@@@3@$0A@@std@@@std@@QAE?AViterator@12@XZ 0040bdd0 f i AccountServer.obj
 0001:0000ade0       ??Citerator@?$_Tree@V?$_Tmap_traits@KPAU_BUYING_INFO3@@U?$less@K@std@@V?$allocator@U?$pair@$$CBKPAU_BUYING_INFO3@@@std@@@3@$0A@@std@@@std@@QBEPAU?$pair@$$CBKPAU_BUYING_INFO3@@@2@XZ 0040bde0 f i AccountServer.obj
 0001:0000adf0       ?begin@?$_Tree@V?$_Tmap_traits@KPAUtagSERVER_DESC@@U?$less@K@std@@V?$allocator@U?$pair@$$CBKPAUtagSERVER_DESC@@@std@@@3@$0A@@std@@@std@@QAE?AViterator@12@XZ 0040bdf0 f i AccountServer.obj
 0001:0000ae00       ?end@?$vector@V?$CStringT@DV?$StrTraitMFC@DV?$ChTraitsCRT@D@ATL@@@@@ATL@@V?$allocator@V?$CStringT@DV?$StrTraitMFC@DV?$ChTraitsCRT@D@ATL@@@@@ATL@@@std@@@std@@QAE?AViterator@12@XZ 0040be00 f i AccountServer.obj
 0001:0000ae10       ?lower_bound@?$_Tree@V?$_Tmap_traits@KPAU_BUYING_INFO3@@U?$less@K@std@@V?$allocator@U?$pair@$$CBKPAU_BUYING_INFO3@@@std@@@3@$0A@@std@@@std@@QAE?AViterator@12@ABK@Z 0040be10 f i AccountServer.obj
 0001:0000ae50       ?_Erase@?$_Tree@V?$_Tmap_traits@KPAU_BUYING_INFO3@@U?$less@K@std@@V?$allocator@U?$pair@$$CBKPAU_BUYING_INFO3@@@std@@@3@$0A@@std@@@std@@IAEXPAU_Node@?$_Tree_nod@V?$_Tmap_traits@KPAU_BUYING_INFO3@@U?$less@K@std@@V?$allocator@U?$pair@$$CBKPAU_BUYING_INFO3@@@std@@@3@$0A@@std@@@2@@Z 0040be50 f i AccountServer.obj
 0001:0000ae90       ??Econst_iterator@?$_Tree@V?$_Tmap_traits@KPAU_BUYING_INFO3@@U?$less@K@std@@V?$allocator@U?$pair@$$CBKPAU_BUYING_INFO3@@@std@@@3@$0A@@std@@@std@@QAEAAV012@XZ 0040be90 f i AccountServer.obj
 0001:0000aea0       ?begin@?$vector@KV?$allocator@K@std@@@std@@QAE?AViterator@12@XZ 0040bea0 f i AccountServer.obj
 0001:0000aeb0       ?end@?$vector@KV?$allocator@K@std@@@std@@QAE?AViterator@12@XZ 0040beb0 f i AccountServer.obj
 0001:0000aec0       ?begin@?$list@PAXV?$allocator@PAX@std@@@std@@QAE?AViterator@12@XZ 0040bec0 f i AccountServer.obj
 0001:0000aed0       ?_Buynode@?$_Tree@V?$_Tmap_traits@KPAUtagSERVER_DESC@@U?$less@K@std@@V?$allocator@U?$pair@$$CBKPAUtagSERVER_DESC@@@std@@@3@$0A@@std@@@std@@IAEPAU_Node@?$_Tree_nod@V?$_Tmap_traits@KPAUtagSERVER_DESC@@U?$less@K@std@@V?$allocator@U?$pair@$$CBKPAUtagSERVER_DESC@@@std@@@3@$0A@@std@@@2@PAU342@00ABU?$pair@$$CBKPAUtagSERVER_DESC@@@2@D@Z 0040bed0 f i AccountServer.obj
 0001:0000af10       ?begin@?$vector@V?$CStringT@DV?$StrTraitMFC@DV?$ChTraitsCRT@D@ATL@@@@@ATL@@V?$allocator@V?$CStringT@DV?$StrTraitMFC@DV?$ChTraitsCRT@D@ATL@@@@@ATL@@@std@@@std@@QAE?AViterator@12@XZ 0040bf10 f i AccountServer.obj
 0001:0000af20       ?upper_bound@?$_Tree@V?$_Tmap_traits@KPAU_BUYING_INFO3@@U?$less@K@std@@V?$allocator@U?$pair@$$CBKPAU_BUYING_INFO3@@@std@@@3@$0A@@std@@@std@@QAE?AViterator@12@ABK@Z 0040bf20 f i AccountServer.obj
 0001:0000af60       ?_Destroy@?$vector@KV?$allocator@K@std@@@std@@IAEXPAK0@Z 0040bf60 f i AccountServer.obj
 0001:0000af70       ??Fconst_iterator@?$_Tree@V?$_Tmap_traits@KPAUtagSERVER_DESC@@U?$less@K@std@@V?$allocator@U?$pair@$$CBKPAUtagSERVER_DESC@@@std@@@3@$0A@@std@@@std@@QAEAAV012@XZ 0040bf70 f i AccountServer.obj
 0001:0000af80       ??Diterator@?$list@PAXV?$allocator@PAX@std@@@std@@QBEAAPAXXZ 0040bf80 f i AccountServer.obj
 0001:0000af90       ??$_Uninitialized_fill_n@PAKIKV?$allocator@K@std@@@std@@YAXPAKIABKAAV?$allocator@K@0@@Z 0040bf90 f i AccountServer.obj
 0001:0000afb0       ??$_Ucopy@PAK@?$vector@KV?$allocator@K@std@@@std@@IAEPAKPAK00@Z 0040bfb0 f i AccountServer.obj
 0001:0000afe0       ?end@?$list@PAUtagDB_OVERLAPPED_PLUS@@V?$allocator@PAUtagDB_OVERLAPPED_PLUS@@@std@@@std@@QAE?AViterator@12@XZ 0040bfe0 f i AccountServer.obj
 0001:0000aff0       ?pop_back@?$deque@PAUtagDB_OVERLAPPED_PLUS@@V?$allocator@PAUtagDB_OVERLAPPED_PLUS@@@std@@@std@@QAEXXZ 0040bff0 f i AccountServer.obj
 0001:0000b010       ?end@?$deque@PAUtagDB_OVERLAPPED_PLUS@@V?$allocator@PAUtagDB_OVERLAPPED_PLUS@@@std@@@std@@QAE?AViterator@12@XZ 0040c010 f i AccountServer.obj
 0001:0000b030       ??Giterator@?$deque@PAUtagDB_OVERLAPPED_PLUS@@V?$allocator@PAUtagDB_OVERLAPPED_PLUS@@@std@@@std@@QBE?AV012@H@Z 0040c030 f i AccountServer.obj
 0001:0000b050       ??1?$CBufferQueue@VCBuffer@@@@UAE@XZ 0040c050 f i AccountServer.obj
 0001:0000b0b0       ??1?$CBufferQueue@VCBuffer3@@@@UAE@XZ 0040c0b0 f i AccountServer.obj
 0001:0000b110       ??_G?$CBufferQueue@VCBuffer@@@@UAEPAXI@Z 0040c110 f i AccountServer.obj
 0001:0000b110       ??_E?$CBufferQueue@VCBuffer@@@@UAEPAXI@Z 0040c110 f i AccountServer.obj
 0001:0000b130       ??_G?$CBufferQueue@VCBuffer3@@@@UAEPAXI@Z 0040c130 f i AccountServer.obj
 0001:0000b130       ??_E?$CBufferQueue@VCBuffer3@@@@UAEPAXI@Z 0040c130 f i AccountServer.obj
 0001:0000b150       ?_Buynode@?$list@PAUtagDB_OVERLAPPED_PLUS@@V?$allocator@PAUtagDB_OVERLAPPED_PLUS@@@std@@@std@@IAEPAU_Node@?$_List_nod@PAUtagDB_OVERLAPPED_PLUS@@V?$allocator@PAUtagDB_OVERLAPPED_PLUS@@@std@@@2@PAU342@0ABQAUtagDB_OVERLAPPED_PLUS@@@Z 0040c150 f i AccountServer.obj
 0001:0000b180       ??$_Uninitialized_fill_n@PAPAPAUtagDB_OVERLAPPED_PLUS@@IPAPAU1@V?$allocator@PAPAUtagDB_OVERLAPPED_PLUS@@@std@@@std@@YAXPAPAPAUtagDB_OVERLAPPED_PLUS@@IABQAPAU1@AAV?$allocator@PAPAUtagDB_OVERLAPPED_PLUS@@@0@@Z 0040c180 f i AccountServer.obj
 0001:0000b1a0       ?front@?$list@PAXV?$allocator@PAX@std@@@std@@QAEAAPAXXZ 0040c1a0 f i AccountServer.obj
 0001:0000b1b0       ?erase@?$list@PAXV?$allocator@PAX@std@@@std@@QAE?AViterator@12@V312@@Z 0040c1b0 f i AccountServer.obj
 0001:0000b1f0       ?begin@?$_Tree@V?$_Tmap_traits@KPAV?$CClientSock@VCBuffer@@@@U?$less@K@std@@V?$allocator@U?$pair@$$CBKPAV?$CClientSock@VCBuffer@@@@@std@@@3@$0A@@std@@@std@@QAE?AViterator@12@XZ 0040c1f0 f i AccountServer.obj
 0001:0000b200       ?end@?$_Tree@V?$_Tmap_traits@KPAV?$CClientSock@VCBuffer@@@@U?$less@K@std@@V?$allocator@U?$pair@$$CBKPAV?$CClientSock@VCBuffer@@@@@std@@@3@$0A@@std@@@std@@QAE?AViterator@12@XZ 0040c200 f i AccountServer.obj
 0001:0000b210       ?begin@?$_Tree@V?$_Tmap_traits@KPAV?$CClientSockE@VCBuffer@@@@U?$less@K@std@@V?$allocator@U?$pair@$$CBKPAV?$CClientSockE@VCBuffer@@@@@std@@@3@$0A@@std@@@std@@QAE?AViterator@12@XZ 0040c210 f i AccountServer.obj
 0001:0000b220       ?end@?$_Tree@V?$_Tmap_traits@KPAV?$CClientSockE@VCBuffer@@@@U?$less@K@std@@V?$allocator@U?$pair@$$CBKPAV?$CClientSockE@VCBuffer@@@@@std@@@3@$0A@@std@@@std@@QAE?AViterator@12@XZ 0040c220 f i AccountServer.obj
 0001:0000b230       ?begin@?$_Tree@V?$_Tmap_traits@KPAV?$CClientSock@VCBuffer3@@@@U?$less@K@std@@V?$allocator@U?$pair@$$CBKPAV?$CClientSock@VCBuffer3@@@@@std@@@3@$0A@@std@@@std@@QAE?AViterator@12@XZ 0040c230 f i AccountServer.obj
 0001:0000b240       ?end@?$_Tree@V?$_Tmap_traits@KPAV?$CClientSock@VCBuffer3@@@@U?$less@K@std@@V?$allocator@U?$pair@$$CBKPAV?$CClientSock@VCBuffer3@@@@@std@@@3@$0A@@std@@@std@@QAE?AViterator@12@XZ 0040c240 f i AccountServer.obj
 0001:0000b250       ?begin@?$_Tree@V?$_Tmap_traits@KPAV?$CClientSockE@VCBuffer3@@@@U?$less@K@std@@V?$allocator@U?$pair@$$CBKPAV?$CClientSockE@VCBuffer3@@@@@std@@@3@$0A@@std@@@std@@QAE?AViterator@12@XZ 0040c250 f i AccountServer.obj
 0001:0000b260       ?end@?$_Tree@V?$_Tmap_traits@KPAV?$CClientSockE@VCBuffer3@@@@U?$less@K@std@@V?$allocator@U?$pair@$$CBKPAV?$CClientSockE@VCBuffer3@@@@@std@@@3@$0A@@std@@@std@@QAE?AViterator@12@XZ 0040c260 f i AccountServer.obj
 0001:0000b270       ?_Erase@?$_Tree@V?$_Tmap_traits@KPAV?$CClientSock@VCBuffer@@@@U?$less@K@std@@V?$allocator@U?$pair@$$CBKPAV?$CClientSock@VCBuffer@@@@@std@@@3@$0A@@std@@@std@@IAEXPAU_Node@?$_Tree_nod@V?$_Tmap_traits@KPAV?$CClientSock@VCBuffer@@@@U?$less@K@std@@V?$allocator@U?$pair@$$CBKPAV?$CClientSock@VCBuffer@@@@@std@@@3@$0A@@std@@@2@@Z 0040c270 f i AccountServer.obj
 0001:0000b2b0       ?_Erase@?$_Tree@V?$_Tmap_traits@KPAV?$CClientSockE@VCBuffer@@@@U?$less@K@std@@V?$allocator@U?$pair@$$CBKPAV?$CClientSockE@VCBuffer@@@@@std@@@3@$0A@@std@@@std@@IAEXPAU_Node@?$_Tree_nod@V?$_Tmap_traits@KPAV?$CClientSockE@VCBuffer@@@@U?$less@K@std@@V?$allocator@U?$pair@$$CBKPAV?$CClientSockE@VCBuffer@@@@@std@@@3@$0A@@std@@@2@@Z 0040c2b0 f i AccountServer.obj
 0001:0000b2f0       ?_Erase@?$_Tree@V?$_Tmap_traits@KPAV?$CClientSock@VCBuffer3@@@@U?$less@K@std@@V?$allocator@U?$pair@$$CBKPAV?$CClientSock@VCBuffer3@@@@@std@@@3@$0A@@std@@@std@@IAEXPAU_Node@?$_Tree_nod@V?$_Tmap_traits@KPAV?$CClientSock@VCBuffer3@@@@U?$less@K@std@@V?$allocator@U?$pair@$$CBKPAV?$CClientSock@VCBuffer3@@@@@std@@@3@$0A@@std@@@2@@Z 0040c2f0 f i AccountServer.obj
 0001:0000b330       ?_Erase@?$_Tree@V?$_Tmap_traits@KPAV?$CClientSockE@VCBuffer3@@@@U?$less@K@std@@V?$allocator@U?$pair@$$CBKPAV?$CClientSockE@VCBuffer3@@@@@std@@@3@$0A@@std@@@std@@IAEXPAU_Node@?$_Tree_nod@V?$_Tmap_traits@KPAV?$CClientSockE@VCBuffer3@@@@U?$less@K@std@@V?$allocator@U?$pair@$$CBKPAV?$CClientSockE@VCBuffer3@@@@@std@@@3@$0A@@std@@@2@@Z 0040c330 f i AccountServer.obj
 0001:0000b370       ??Eiterator@?$_Tree@V?$_Tmap_traits@KPAV?$CClientSock@VCBuffer@@@@U?$less@K@std@@V?$allocator@U?$pair@$$CBKPAV?$CClientSock@VCBuffer@@@@@std@@@3@$0A@@std@@@std@@QAEAAV012@XZ 0040c370 f i AccountServer.obj
 0001:0000b380       ??Eiterator@?$_Tree@V?$_Tmap_traits@KPAV?$CClientSockE@VCBuffer@@@@U?$less@K@std@@V?$allocator@U?$pair@$$CBKPAV?$CClientSockE@VCBuffer@@@@@std@@@3@$0A@@std@@@std@@QAEAAV012@XZ 0040c380 f i AccountServer.obj
 0001:0000b390       ??Eiterator@?$_Tree@V?$_Tmap_traits@KPAV?$CClientSock@VCBuffer3@@@@U?$less@K@std@@V?$allocator@U?$pair@$$CBKPAV?$CClientSock@VCBuffer3@@@@@std@@@3@$0A@@std@@@std@@QAEAAV012@XZ 0040c390 f i AccountServer.obj
 0001:0000b3a0       ??Eiterator@?$_Tree@V?$_Tmap_traits@KPAV?$CClientSockE@VCBuffer3@@@@U?$less@K@std@@V?$allocator@U?$pair@$$CBKPAV?$CClientSockE@VCBuffer3@@@@@std@@@3@$0A@@std@@@std@@QAEAAV012@XZ 0040c3a0 f i AccountServer.obj
 0001:0000b3b0       ??Citerator@?$_Tree@V?$_Tmap_traits@KPAV?$CClientSock@VCBuffer@@@@U?$less@K@std@@V?$allocator@U?$pair@$$CBKPAV?$CClientSock@VCBuffer@@@@@std@@@3@$0A@@std@@@std@@QBEPAU?$pair@$$CBKPAV?$CClientSock@VCBuffer@@@@@2@XZ 0040c3b0 f i AccountServer.obj
 0001:0000b3c0       ??Citerator@?$_Tree@V?$_Tmap_traits@KPAV?$CClientSockE@VCBuffer@@@@U?$less@K@std@@V?$allocator@U?$pair@$$CBKPAV?$CClientSockE@VCBuffer@@@@@std@@@3@$0A@@std@@@std@@QBEPAU?$pair@$$CBKPAV?$CClientSockE@VCBuffer@@@@@2@XZ 0040c3c0 f i AccountServer.obj
 0001:0000b3d0       ??Citerator@?$_Tree@V?$_Tmap_traits@KPAV?$CClientSock@VCBuffer3@@@@U?$less@K@std@@V?$allocator@U?$pair@$$CBKPAV?$CClientSock@VCBuffer3@@@@@std@@@3@$0A@@std@@@std@@QBEPAU?$pair@$$CBKPAV?$CClientSock@VCBuffer3@@@@@2@XZ 0040c3d0 f i AccountServer.obj
 0001:0000b3e0       ??Citerator@?$_Tree@V?$_Tmap_traits@KPAV?$CClientSockE@VCBuffer3@@@@U?$less@K@std@@V?$allocator@U?$pair@$$CBKPAV?$CClientSockE@VCBuffer3@@@@@std@@@3@$0A@@std@@@std@@QBEPAU?$pair@$$CBKPAV?$CClientSockE@VCBuffer3@@@@@2@XZ 0040c3e0 f i AccountServer.obj
 0001:0000b3f0       ?lower_bound@?$_Tree@V?$_Tmap_traits@KPAV?$CClientSock@VCBuffer@@@@U?$less@K@std@@V?$allocator@U?$pair@$$CBKPAV?$CClientSock@VCBuffer@@@@@std@@@3@$0A@@std@@@std@@QAE?AViterator@12@ABK@Z 0040c3f0 f i AccountServer.obj
 0001:0000b430       ?lower_bound@?$_Tree@V?$_Tmap_traits@KPAV?$CClientSockE@VCBuffer@@@@U?$less@K@std@@V?$allocator@U?$pair@$$CBKPAV?$CClientSockE@VCBuffer@@@@@std@@@3@$0A@@std@@@std@@QAE?AViterator@12@ABK@Z 0040c430 f i AccountServer.obj
 0001:0000b470       ?lower_bound@?$_Tree@V?$_Tmap_traits@KPAV?$CClientSock@VCBuffer3@@@@U?$less@K@std@@V?$allocator@U?$pair@$$CBKPAV?$CClientSock@VCBuffer3@@@@@std@@@3@$0A@@std@@@std@@QAE?AViterator@12@ABK@Z 0040c470 f i AccountServer.obj
 0001:0000b4b0       ?lower_bound@?$_Tree@V?$_Tmap_traits@KPAV?$CClientSockE@VCBuffer3@@@@U?$less@K@std@@V?$allocator@U?$pair@$$CBKPAV?$CClientSockE@VCBuffer3@@@@@std@@@3@$0A@@std@@@std@@QAE?AViterator@12@ABK@Z 0040c4b0 f i AccountServer.obj
 0001:0000b4f0       ?_Buynode@?$_Tree@V?$_Tmap_traits@KPAV?$CClientSock@VCBuffer@@@@U?$less@K@std@@V?$allocator@U?$pair@$$CBKPAV?$CClientSock@VCBuffer@@@@@std@@@3@$0A@@std@@@std@@IAEPAU_Node@?$_Tree_nod@V?$_Tmap_traits@KPAV?$CClientSock@VCBuffer@@@@U?$less@K@std@@V?$allocator@U?$pair@$$CBKPAV?$CClientSock@VCBuffer@@@@@std@@@3@$0A@@std@@@2@XZ 0040c4f0 f i AccountServer.obj
 0001:0000b530       ??0?$_Tree_ptr@V?$_Tmap_traits@KPAV?$CClientSock@VCBuffer@@@@U?$less@K@std@@V?$allocator@U?$pair@$$CBKPAV?$CClientSock@VCBuffer@@@@@std@@@3@$0A@@std@@@std@@IAE@ABU?$less@K@1@V?$allocator@U?$pair@$$CBKPAV?$CClientSock@VCBuffer@@@@@std@@@1@@Z 0040c530 f i AccountServer.obj
 0001:0000b540       ?_Buynode@?$_Tree@V?$_Tmap_traits@KPAV?$CClientSockE@VCBuffer@@@@U?$less@K@std@@V?$allocator@U?$pair@$$CBKPAV?$CClientSockE@VCBuffer@@@@@std@@@3@$0A@@std@@@std@@IAEPAU_Node@?$_Tree_nod@V?$_Tmap_traits@KPAV?$CClientSockE@VCBuffer@@@@U?$less@K@std@@V?$allocator@U?$pair@$$CBKPAV?$CClientSockE@VCBuffer@@@@@std@@@3@$0A@@std@@@2@XZ 0040c540 f i AccountServer.obj
 0001:0000b580       ??0?$_Tree_ptr@V?$_Tmap_traits@KPAV?$CClientSockE@VCBuffer@@@@U?$less@K@std@@V?$allocator@U?$pair@$$CBKPAV?$CClientSockE@VCBuffer@@@@@std@@@3@$0A@@std@@@std@@IAE@ABU?$less@K@1@V?$allocator@U?$pair@$$CBKPAV?$CClientSockE@VCBuffer@@@@@std@@@1@@Z 0040c580 f i AccountServer.obj
 0001:0000b590       ?_Buynode@?$_Tree@V?$_Tmap_traits@KPAV?$CClientSock@VCBuffer3@@@@U?$less@K@std@@V?$allocator@U?$pair@$$CBKPAV?$CClientSock@VCBuffer3@@@@@std@@@3@$0A@@std@@@std@@IAEPAU_Node@?$_Tree_nod@V?$_Tmap_traits@KPAV?$CClientSock@VCBuffer3@@@@U?$less@K@std@@V?$allocator@U?$pair@$$CBKPAV?$CClientSock@VCBuffer3@@@@@std@@@3@$0A@@std@@@2@XZ 0040c590 f i AccountServer.obj
 0001:0000b5d0       ??0?$_Tree_ptr@V?$_Tmap_traits@KPAV?$CClientSock@VCBuffer3@@@@U?$less@K@std@@V?$allocator@U?$pair@$$CBKPAV?$CClientSock@VCBuffer3@@@@@std@@@3@$0A@@std@@@std@@IAE@ABU?$less@K@1@V?$allocator@U?$pair@$$CBKPAV?$CClientSock@VCBuffer3@@@@@std@@@1@@Z 0040c5d0 f i AccountServer.obj
 0001:0000b5e0       ?_Buynode@?$_Tree@V?$_Tmap_traits@KPAV?$CClientSockE@VCBuffer3@@@@U?$less@K@std@@V?$allocator@U?$pair@$$CBKPAV?$CClientSockE@VCBuffer3@@@@@std@@@3@$0A@@std@@@std@@IAEPAU_Node@?$_Tree_nod@V?$_Tmap_traits@KPAV?$CClientSockE@VCBuffer3@@@@U?$less@K@std@@V?$allocator@U?$pair@$$CBKPAV?$CClientSockE@VCBuffer3@@@@@std@@@3@$0A@@std@@@2@XZ 0040c5e0 f i AccountServer.obj
 0001:0000b620       ??0?$_Tree_ptr@V?$_Tmap_traits@KPAV?$CClientSockE@VCBuffer3@@@@U?$less@K@std@@V?$allocator@U?$pair@$$CBKPAV?$CClientSockE@VCBuffer3@@@@@std@@@3@$0A@@std@@@std@@IAE@ABU?$less@K@1@V?$allocator@U?$pair@$$CBKPAV?$CClientSockE@VCBuffer3@@@@@std@@@1@@Z 0040c620 f i AccountServer.obj
 0001:0000b630       ?Receive@?$CDPSock@VCBuffer@@@@QAEJPAK0KAAPAVCBuffer@@@Z 0040c630 f i AccountServer.obj
 0001:0000b6b0       ?Receive@?$CDPSock@VCBuffer3@@@@QAEJPAK0KAAPAVCBuffer3@@@Z 0040c6b0 f i AccountServer.obj
 0001:0000b730       ?SendRemnant@?$CClientSock@VCBuffer@@@@QAEHK@Z 0040c730 f i AccountServer.obj
 0001:0000b840       ?SendRemnant@?$CClientSock@VCBuffer3@@@@QAEHK@Z 0040c840 f i AccountServer.obj
 0001:0000b950       ??Fiterator@?$_Tree@V?$_Tmap_traits@KPAV?$CClientSock@VCBuffer@@@@U?$less@K@std@@V?$allocator@U?$pair@$$CBKPAV?$CClientSock@VCBuffer@@@@@std@@@3@$0A@@std@@@std@@QAEAAV012@XZ 0040c950 f i AccountServer.obj
 0001:0000b960       ??Fiterator@?$_Tree@V?$_Tmap_traits@KPAV?$CClientSockE@VCBuffer@@@@U?$less@K@std@@V?$allocator@U?$pair@$$CBKPAV?$CClientSockE@VCBuffer@@@@@std@@@3@$0A@@std@@@std@@QAEAAV012@XZ 0040c960 f i AccountServer.obj
 0001:0000b970       ??Fiterator@?$_Tree@V?$_Tmap_traits@KPAV?$CClientSock@VCBuffer3@@@@U?$less@K@std@@V?$allocator@U?$pair@$$CBKPAV?$CClientSock@VCBuffer3@@@@@std@@@3@$0A@@std@@@std@@QAEAAV012@XZ 0040c970 f i AccountServer.obj
 0001:0000b980       ??Fiterator@?$_Tree@V?$_Tmap_traits@KPAV?$CClientSockE@VCBuffer3@@@@U?$less@K@std@@V?$allocator@U?$pair@$$CBKPAV?$CClientSockE@VCBuffer3@@@@@std@@@3@$0A@@std@@@std@@QAEAAV012@XZ 0040c980 f i AccountServer.obj
 0001:0000b990       ?RemoveThread@?$CDPSock@VCBuffer@@@@QAEXPAX@Z 0040c990 f i AccountServer.obj
 0001:0000ba00       ?RemoveThread@?$CDPSock@VCBuffer3@@@@QAEXPAX@Z 0040ca00 f i AccountServer.obj
 0001:0000ba70       ??1?$CStringT@DV?$StrTraitMFC@DV?$ChTraitsCRT@D@ATL@@@@@ATL@@QAE@XZ 0040ca70 f i AccountServer.obj
 0001:0000ba90       ??0?$CSimpleStringT@D$0A@@ATL@@QAE@ABV01@@Z 0040ca90 f i AccountServer.obj
 0001:0000bab0       ?PrepareWrite@?$CSimpleStringT@D$0A@@ATL@@AAEPADH@Z 0040cab0 f i AccountServer.obj
 0001:0000bae0       ?clear@?$_Tree@V?$_Tmap_traits@KPAU_BUYING_INFO3@@U?$less@K@std@@V?$allocator@U?$pair@$$CBKPAU_BUYING_INFO3@@@std@@@3@$0A@@std@@@std@@QAEXXZ 0040cae0 f i AccountServer.obj
 0001:0000bb10       ?find@?$_Tree@V?$_Tmap_traits@KPAU_BUYING_INFO3@@U?$less@K@std@@V?$allocator@U?$pair@$$CBKPAU_BUYING_INFO3@@@std@@@3@$0A@@std@@@std@@QAE?AViterator@12@ABK@Z 0040cb10 f i AccountServer.obj
 0001:0000bb80       ??Eiterator@?$_Tree@V?$_Tmap_traits@KPAU_BUYING_INFO3@@U?$less@K@std@@V?$allocator@U?$pair@$$CBKPAU_BUYING_INFO3@@@std@@@3@$0A@@std@@@std@@QAEAAV012@XZ 0040cb80 f i AccountServer.obj
 0001:0000bb90       ??A?$vector@KV?$allocator@K@std@@@std@@QAEAAKI@Z 0040cb90 f i AccountServer.obj
 0001:0000bba0       ?Destroy@?$MemPooler@VCBuffer@@@@IAEXXZ 0040cba0 f i AccountServer.obj
 0001:0000bc10       ?Destroy@?$MemPooler@VCBuffer2@@@@IAEXXZ 0040cc10 f i AccountServer.obj
 0001:0000bc80       ?Destroy@?$MemPooler@VCBuffer3@@@@IAEXXZ 0040cc80 f i AccountServer.obj
 0001:0000bcf0       ?Destroy@?$MemPooler@VCAccount@@@@IAEXXZ 0040ccf0 f i AccountServer.obj
 0001:0000bd60       ?equal_range@?$_Tree@V?$_Tmap_traits@KPAU_BUYING_INFO3@@U?$less@K@std@@V?$allocator@U?$pair@$$CBKPAU_BUYING_INFO3@@@std@@@3@$0A@@std@@@std@@QAE?AU?$pair@Viterator@?$_Tree@V?$_Tmap_traits@KPAU_BUYING_INFO3@@U?$less@K@std@@V?$allocator@U?$pair@$$CBKPAU_BUYING_INFO3@@@std@@@3@$0A@@std@@@std@@V123@@2@ABK@Z 0040cd60 f i AccountServer.obj
 0001:0000bdd0       ?_Tidy@?$vector@KV?$allocator@K@std@@@std@@IAEXXZ 0040cdd0 f i AccountServer.obj
 0001:0000be00       ?_Ufill@?$vector@KV?$allocator@K@std@@@std@@IAEPAKPAKIABK@Z 0040ce00 f i AccountServer.obj
 0001:0000be30       ??Fiterator@?$_Tree@V?$_Tmap_traits@KPAUtagSERVER_DESC@@U?$less@K@std@@V?$allocator@U?$pair@$$CBKPAUtagSERVER_DESC@@@std@@@3@$0A@@std@@@std@@QAEAAV012@XZ 0040ce30 f i AccountServer.obj
 0001:0000be40       ??Eiterator@?$_Tree@V?$_Tmap_traits@KPAU_BUYING_INFO3@@U?$less@K@std@@V?$allocator@U?$pair@$$CBKPAU_BUYING_INFO3@@@std@@@3@$0A@@std@@@std@@QAE?AV012@H@Z 0040ce40 f i AccountServer.obj
 0001:0000be60       ?pop@?$stack@PAUtagDB_OVERLAPPED_PLUS@@V?$deque@PAUtagDB_OVERLAPPED_PLUS@@V?$allocator@PAUtagDB_OVERLAPPED_PLUS@@@std@@@std@@@std@@QAEXXZ 0040ce60 f i AccountServer.obj
 0001:0000be80       ?back@?$deque@PAUtagDB_OVERLAPPED_PLUS@@V?$allocator@PAUtagDB_OVERLAPPED_PLUS@@@std@@@std@@QAEAAPAUtagDB_OVERLAPPED_PLUS@@XZ 0040ce80 f i AccountServer.obj
 0001:0000beb0       ??$_Distance2@Viterator@?$_Tree@V?$_Tmap_traits@KPAU_BUYING_INFO3@@U?$less@K@std@@V?$allocator@U?$pair@$$CBKPAU_BUYING_INFO3@@@std@@@3@$0A@@std@@@std@@I@std@@YAXViterator@?$_Tree@V?$_Tmap_traits@KPAU_BUYING_INFO3@@U?$less@K@std@@V?$allocator@U?$pair@$$CBKPAU_BUYING_INFO3@@@std@@@3@$0A@@std@@@0@0AAIUbidirectional_iterator_tag@0@@Z 0040ceb0 f i AccountServer.obj
 0001:0000bee0       ??_G?$CStringT@DV?$StrTraitMFC@DV?$ChTraitsCRT@D@ATL@@@@@ATL@@QAEPAXI@Z 0040cee0 f i AccountServer.obj
 0001:0000bf00       ?pop_front@?$list@PAXV?$allocator@PAX@std@@@std@@QAEXXZ 0040cf00 f i AccountServer.obj
 0001:0000bf30       ?clear@?$_Tree@V?$_Tmap_traits@KPAV?$CClientSock@VCBuffer@@@@U?$less@K@std@@V?$allocator@U?$pair@$$CBKPAV?$CClientSock@VCBuffer@@@@@std@@@3@$0A@@std@@@std@@QAEXXZ 0040cf30 f i AccountServer.obj
 0001:0000bf60       ?clear@?$_Tree@V?$_Tmap_traits@KPAV?$CClientSockE@VCBuffer@@@@U?$less@K@std@@V?$allocator@U?$pair@$$CBKPAV?$CClientSockE@VCBuffer@@@@@std@@@3@$0A@@std@@@std@@QAEXXZ 0040cf60 f i AccountServer.obj
 0001:0000bf90       ?clear@?$_Tree@V?$_Tmap_traits@KPAV?$CClientSock@VCBuffer3@@@@U?$less@K@std@@V?$allocator@U?$pair@$$CBKPAV?$CClientSock@VCBuffer3@@@@@std@@@3@$0A@@std@@@std@@QAEXXZ 0040cf90 f i AccountServer.obj
 0001:0000bfc0       ?clear@?$_Tree@V?$_Tmap_traits@KPAV?$CClientSockE@VCBuffer3@@@@U?$less@K@std@@V?$allocator@U?$pair@$$CBKPAV?$CClientSockE@VCBuffer3@@@@@std@@@3@$0A@@std@@@std@@QAEXXZ 0040cfc0 f i AccountServer.obj
 0001:0000bff0       ??Eiterator@?$_Tree@V?$_Tmap_traits@KPAV?$CClientSock@VCBuffer@@@@U?$less@K@std@@V?$allocator@U?$pair@$$CBKPAV?$CClientSock@VCBuffer@@@@@std@@@3@$0A@@std@@@std@@QAE?AV012@H@Z 0040cff0 f i AccountServer.obj
 0001:0000c010       ??Eiterator@?$_Tree@V?$_Tmap_traits@KPAV?$CClientSockE@VCBuffer@@@@U?$less@K@std@@V?$allocator@U?$pair@$$CBKPAV?$CClientSockE@VCBuffer@@@@@std@@@3@$0A@@std@@@std@@QAE?AV012@H@Z 0040d010 f i AccountServer.obj
 0001:0000c030       ??Eiterator@?$_Tree@V?$_Tmap_traits@KPAV?$CClientSock@VCBuffer3@@@@U?$less@K@std@@V?$allocator@U?$pair@$$CBKPAV?$CClientSock@VCBuffer3@@@@@std@@@3@$0A@@std@@@std@@QAE?AV012@H@Z 0040d030 f i AccountServer.obj
 0001:0000c050       ??Eiterator@?$_Tree@V?$_Tmap_traits@KPAV?$CClientSockE@VCBuffer3@@@@U?$less@K@std@@V?$allocator@U?$pair@$$CBKPAV?$CClientSockE@VCBuffer3@@@@@std@@@3@$0A@@std@@@std@@QAE?AV012@H@Z 0040d050 f i AccountServer.obj
 0001:0000c070       ?ReceiveMessage@?$CDPMng@VCBuffer@@@@QAEHXZ 0040d070 f i AccountServer.obj
 0001:0000c100       ?ReceiveMessage@?$CDPMng@VCBuffer3@@@@QAEHXZ 0040d100 f i AccountServer.obj
 0001:0000c190       ?find@?$_Tree@V?$_Tmap_traits@KPAV?$CClientSock@VCBuffer@@@@U?$less@K@std@@V?$allocator@U?$pair@$$CBKPAV?$CClientSock@VCBuffer@@@@@std@@@3@$0A@@std@@@std@@QAE?AViterator@12@ABK@Z 0040d190 f i AccountServer.obj
 0001:0000c200       ?find@?$_Tree@V?$_Tmap_traits@KPAV?$CClientSockE@VCBuffer@@@@U?$less@K@std@@V?$allocator@U?$pair@$$CBKPAV?$CClientSockE@VCBuffer@@@@@std@@@3@$0A@@std@@@std@@QAE?AViterator@12@ABK@Z 0040d200 f i AccountServer.obj
 0001:0000c270       ?find@?$_Tree@V?$_Tmap_traits@KPAV?$CClientSock@VCBuffer3@@@@U?$less@K@std@@V?$allocator@U?$pair@$$CBKPAV?$CClientSock@VCBuffer3@@@@@std@@@3@$0A@@std@@@std@@QAE?AViterator@12@ABK@Z 0040d270 f i AccountServer.obj
 0001:0000c2e0       ?find@?$_Tree@V?$_Tmap_traits@KPAV?$CClientSockE@VCBuffer3@@@@U?$less@K@std@@V?$allocator@U?$pair@$$CBKPAV?$CClientSockE@VCBuffer3@@@@@std@@@3@$0A@@std@@@std@@QAE?AViterator@12@ABK@Z 0040d2e0 f i AccountServer.obj
 0001:0000c350       ?_Init@?$_Tree@V?$_Tmap_traits@KPAV?$CClientSock@VCBuffer@@@@U?$less@K@std@@V?$allocator@U?$pair@$$CBKPAV?$CClientSock@VCBuffer@@@@@std@@@3@$0A@@std@@@std@@IAEXXZ 0040d350 f i AccountServer.obj
 0001:0000c380       ??0?$_Tree_val@V?$_Tmap_traits@KPAV?$CClientSock@VCBuffer@@@@U?$less@K@std@@V?$allocator@U?$pair@$$CBKPAV?$CClientSock@VCBuffer@@@@@std@@@3@$0A@@std@@@std@@IAE@ABU?$less@K@1@V?$allocator@U?$pair@$$CBKPAV?$CClientSock@VCBuffer@@@@@std@@@1@@Z 0040d380 f i AccountServer.obj
 0001:0000c390       ?_Init@?$_Tree@V?$_Tmap_traits@KPAV?$CClientSockE@VCBuffer@@@@U?$less@K@std@@V?$allocator@U?$pair@$$CBKPAV?$CClientSockE@VCBuffer@@@@@std@@@3@$0A@@std@@@std@@IAEXXZ 0040d390 f i AccountServer.obj
 0001:0000c3c0       ??0?$_Tree_val@V?$_Tmap_traits@KPAV?$CClientSockE@VCBuffer@@@@U?$less@K@std@@V?$allocator@U?$pair@$$CBKPAV?$CClientSockE@VCBuffer@@@@@std@@@3@$0A@@std@@@std@@IAE@ABU?$less@K@1@V?$allocator@U?$pair@$$CBKPAV?$CClientSockE@VCBuffer@@@@@std@@@1@@Z 0040d3c0 f i AccountServer.obj
 0001:0000c3d0       ?_Init@?$_Tree@V?$_Tmap_traits@KPAV?$CClientSock@VCBuffer3@@@@U?$less@K@std@@V?$allocator@U?$pair@$$CBKPAV?$CClientSock@VCBuffer3@@@@@std@@@3@$0A@@std@@@std@@IAEXXZ 0040d3d0 f i AccountServer.obj
 0001:0000c400       ??0?$_Tree_val@V?$_Tmap_traits@KPAV?$CClientSock@VCBuffer3@@@@U?$less@K@std@@V?$allocator@U?$pair@$$CBKPAV?$CClientSock@VCBuffer3@@@@@std@@@3@$0A@@std@@@std@@IAE@ABU?$less@K@1@V?$allocator@U?$pair@$$CBKPAV?$CClientSock@VCBuffer3@@@@@std@@@1@@Z 0040d400 f i AccountServer.obj
 0001:0000c410       ?_Init@?$_Tree@V?$_Tmap_traits@KPAV?$CClientSockE@VCBuffer3@@@@U?$less@K@std@@V?$allocator@U?$pair@$$CBKPAV?$CClientSockE@VCBuffer3@@@@@std@@@3@$0A@@std@@@std@@IAEXXZ 0040d410 f i AccountServer.obj
 0001:0000c440       ??0?$_Tree_val@V?$_Tmap_traits@KPAV?$CClientSockE@VCBuffer3@@@@U?$less@K@std@@V?$allocator@U?$pair@$$CBKPAV?$CClientSockE@VCBuffer3@@@@@std@@@3@$0A@@std@@@std@@IAE@ABU?$less@K@1@V?$allocator@U?$pair@$$CBKPAV?$CClientSockE@VCBuffer3@@@@@std@@@1@@Z 0040d440 f i AccountServer.obj
 0001:0000c450       ??0?$CStringT@DV?$StrTraitMFC@DV?$ChTraitsCRT@D@ATL@@@@@ATL@@QAE@ABV01@@Z 0040d450 f i AccountServer.obj
 0001:0000c470       ?GetBuffer@?$CSimpleStringT@D$0A@@ATL@@QAEPADH@Z 0040d470 f i AccountServer.obj
 0001:0000c4a0       ?LoadStringA@?$CStringT@DV?$StrTraitMFC@DV?$ChTraitsCRT@D@ATL@@@@@ATL@@QAEHPAUHINSTANCE__@@I@Z 0040d4a0 f i AccountServer.obj
 0001:0000c570       ?SetString@?$CSimpleStringT@D$0A@@ATL@@QAEXPBDH@Z 0040d570 f i AccountServer.obj
 0001:0000c610       ?Get@CBuyingInfoMng@@QAEPAU_BUYING_INFO3@@K@Z 0040d610 f i AccountServer.obj
 0001:0000c640       ??1?$MemPooler@VCBuffer@@@@QAE@XZ 0040d640 f i AccountServer.obj
 0001:0000c670       ??1?$MemPooler@VCBuffer2@@@@QAE@XZ 0040d670 f i AccountServer.obj
 0001:0000c6a0       ??1?$MemPooler@VCBuffer3@@@@QAE@XZ 0040d6a0 f i AccountServer.obj
 0001:0000c6d0       ??1?$MemPooler@VCAccount@@@@QAE@XZ 0040d6d0 f i AccountServer.obj
 0001:0000c700       ??1?$vector@KV?$allocator@K@std@@@std@@QAE@XZ 0040d700 f i AccountServer.obj
 0001:0000c730       ?clear@?$vector@KV?$allocator@K@std@@@std@@QAEXXZ 0040d730 f i AccountServer.obj
 0001:0000c760       ??$_Distance@Viterator@?$_Tree@V?$_Tmap_traits@KPAU_BUYING_INFO3@@U?$less@K@std@@V?$allocator@U?$pair@$$CBKPAU_BUYING_INFO3@@@std@@@3@$0A@@std@@@std@@I@std@@YAXViterator@?$_Tree@V?$_Tmap_traits@KPAU_BUYING_INFO3@@U?$less@K@std@@V?$allocator@U?$pair@$$CBKPAU_BUYING_INFO3@@@std@@@3@$0A@@std@@@0@0AAI@Z 0040d760 f i AccountServer.obj
 0001:0000c7a0       ?top@?$stack@PAUtagDB_OVERLAPPED_PLUS@@V?$deque@PAUtagDB_OVERLAPPED_PLUS@@V?$allocator@PAUtagDB_OVERLAPPED_PLUS@@@std@@@std@@@std@@QAEAAPAUtagDB_OVERLAPPED_PLUS@@XZ 0040d7a0 f i AccountServer.obj
 0001:0000c7d0       ?ReceiveThread@?$CDPMng@VCBuffer@@@@QAEHXZ 0040d7d0 f i AccountServer.obj
 0001:0000c820       ?CloseIoWorker@?$CDPSock@VCBuffer@@@@AAEHXZ 0040d820 f i AccountServer.obj
 0001:0000c9a0       ?ReceiveThread@?$CDPMng@VCBuffer3@@@@QAEHXZ 0040d9a0 f i AccountServer.obj
 0001:0000c9f0       ?CloseIoWorker@?$CDPSock@VCBuffer3@@@@AAEHXZ 0040d9f0 f i AccountServer.obj
 0001:0000cb70       ??$_Construct@V?$CStringT@DV?$StrTraitMFC@DV?$ChTraitsCRT@D@ATL@@@@@ATL@@V12@@std@@YAXPAV?$CStringT@DV?$StrTraitMFC@DV?$ChTraitsCRT@D@ATL@@@@@ATL@@ABV12@@Z 0040db70 f i AccountServer.obj
 0001:0000cbd0       ??$_Destroy@V?$CStringT@DV?$StrTraitMFC@DV?$ChTraitsCRT@D@ATL@@@@@ATL@@@std@@YAXPAV?$CStringT@DV?$StrTraitMFC@DV?$ChTraitsCRT@D@ATL@@@@@ATL@@@Z 0040dbd0 f i AccountServer.obj
 0001:0000cbe0       ??0?$_Tree@V?$_Tmap_traits@KPAV?$CClientSock@VCBuffer@@@@U?$less@K@std@@V?$allocator@U?$pair@$$CBKPAV?$CClientSock@VCBuffer@@@@@std@@@3@$0A@@std@@@std@@QAE@ABU?$less@K@1@ABV?$allocator@U?$pair@$$CBKPAV?$CClientSock@VCBuffer@@@@@std@@@1@@Z 0040dbe0 f i AccountServer.obj
 0001:0000cc10       ??0?$_Tree@V?$_Tmap_traits@KPAV?$CClientSockE@VCBuffer@@@@U?$less@K@std@@V?$allocator@U?$pair@$$CBKPAV?$CClientSockE@VCBuffer@@@@@std@@@3@$0A@@std@@@std@@QAE@ABU?$less@K@1@ABV?$allocator@U?$pair@$$CBKPAV?$CClientSockE@VCBuffer@@@@@std@@@1@@Z 0040dc10 f i AccountServer.obj
 0001:0000cc40       ??0?$_Tree@V?$_Tmap_traits@KPAV?$CClientSock@VCBuffer3@@@@U?$less@K@std@@V?$allocator@U?$pair@$$CBKPAV?$CClientSock@VCBuffer3@@@@@std@@@3@$0A@@std@@@std@@QAE@ABU?$less@K@1@ABV?$allocator@U?$pair@$$CBKPAV?$CClientSock@VCBuffer3@@@@@std@@@1@@Z 0040dc40 f i AccountServer.obj
 0001:0000cc70       ??0?$_Tree@V?$_Tmap_traits@KPAV?$CClientSockE@VCBuffer3@@@@U?$less@K@std@@V?$allocator@U?$pair@$$CBKPAV?$CClientSockE@VCBuffer3@@@@@std@@@3@$0A@@std@@@std@@QAE@ABU?$less@K@1@ABV?$allocator@U?$pair@$$CBKPAV?$CClientSockE@VCBuffer3@@@@@std@@@1@@Z 0040dc70 f i AccountServer.obj
 0001:0000cca0       ?LoadStringA@?$CStringT@DV?$StrTraitMFC@DV?$ChTraitsCRT@D@ATL@@@@@ATL@@QAEHI@Z 0040dca0 f i AccountServer.obj
 0001:0000ccd0       ?CheckImplicitLoad@?$CStringT@DV?$StrTraitMFC@DV?$ChTraitsCRT@D@ATL@@@@@ATL@@AAE_NPBX@Z 0040dcd0 f i AccountServer.obj
 0001:0000cd10       ??4?$CSimpleStringT@D$0A@@ATL@@QAEAAV01@ABV01@@Z 0040dd10 f i AccountServer.obj
 0001:0000cd80       ?SetString@?$CSimpleStringT@D$0A@@ATL@@QAEXPBD@Z 0040dd80 f i AccountServer.obj
 0001:0000cdc0       ??_G?$MemPooler@VCAccount@@@@QAEPAXI@Z 0040ddc0 f i AccountServer.obj
 0001:0000cde0       ??_G?$MemPooler@VCBuffer@@@@QAEPAXI@Z 0040dde0 f i AccountServer.obj
 0001:0000ce00       ??_G?$MemPooler@VCBuffer2@@@@QAEPAXI@Z 0040de00 f i AccountServer.obj
 0001:0000ce20       ??_G?$MemPooler@VCBuffer3@@@@QAEPAXI@Z 0040de20 f i AccountServer.obj
 0001:0000ce40       ?Close@?$CDPSock@VCBuffer@@@@QAEHXZ 0040de40 f i AccountServer.obj
 0001:0000ce80       ?Close@?$CDPSock@VCBuffer3@@@@QAEHXZ 0040de80 f i AccountServer.obj
 0001:0000cec0       ?_ReceiveThread@?$CDPMng@VCBuffer@@@@SAIPAX@Z 0040dec0 f i AccountServer.obj
 0001:0000ced0       ?construct@?$allocator@V?$CStringT@DV?$StrTraitMFC@DV?$ChTraitsCRT@D@ATL@@@@@ATL@@@std@@QAEXPAV?$CStringT@DV?$StrTraitMFC@DV?$ChTraitsCRT@D@ATL@@@@@ATL@@ABV34@@Z 0040ded0 f i AccountServer.obj
 0001:0000cef0       ?destroy@?$allocator@V?$CStringT@DV?$StrTraitMFC@DV?$ChTraitsCRT@D@ATL@@@@@ATL@@@std@@QAEXPAV?$CStringT@DV?$StrTraitMFC@DV?$ChTraitsCRT@D@ATL@@@@@ATL@@@Z 0040def0 f i AccountServer.obj
 0001:0000cf00       ?_ReceiveThread@?$CDPMng@VCBuffer3@@@@SAIPAX@Z 0040df00 f i AccountServer.obj
 0001:0000cf10       ??0?$CDPSock@VCBuffer@@@@QAE@XZ 0040df10 f i AccountServer.obj
 0001:0000cfb0       ??0?$CDPSock@VCBuffer3@@@@QAE@XZ 0040dfb0 f i AccountServer.obj
 0001:0000d050       ??$_Uninit_copy@PAV?$CStringT@DV?$StrTraitMFC@DV?$ChTraitsCRT@D@ATL@@@@@ATL@@PAV12@V?$allocator@V?$CStringT@DV?$StrTraitMFC@DV?$ChTraitsCRT@D@ATL@@@@@ATL@@@std@@@std@@YAPAV?$CStringT@DV?$StrTraitMFC@DV?$ChTraitsCRT@D@ATL@@@@@ATL@@PAV12@00AAV?$allocator@V?$CStringT@DV?$StrTraitMFC@DV?$ChTraitsCRT@D@ATL@@@@@ATL@@@0@U_Nonscalar_ptr_iterator_tag@0@@Z 0040e050 f i AccountServer.obj
 0001:0000d160       ??4?$CStringT@DV?$StrTraitMFC@DV?$ChTraitsCRT@D@ATL@@@@@ATL@@QAEAAV01@ABV01@@Z 0040e160 f i AccountServer.obj
 0001:0000d180       ??4?$CSimpleStringT@D$0A@@ATL@@QAEAAV01@PBD@Z 0040e180 f i AccountServer.obj
 0001:0000d1c0       ?DeleteDPObject@?$CDPMng@VCBuffer@@@@QAEHXZ 0040e1c0 f i AccountServer.obj
 0001:0000d250       ?DeleteDPObject@?$CDPMng@VCBuffer3@@@@QAEHXZ 0040e250 f i AccountServer.obj
 0001:0000d2e0       ??$fill@PAV?$CStringT@DV?$StrTraitMFC@DV?$ChTraitsCRT@D@ATL@@@@@ATL@@V12@@std@@YAXPAV?$CStringT@DV?$StrTraitMFC@DV?$ChTraitsCRT@D@ATL@@@@@ATL@@0ABV12@@Z 0040e2e0 f i AccountServer.obj
 0001:0000d310       ?CreateDPObject@?$CDPMng@VCBuffer@@@@QAEHH@Z 0040e310 f i AccountServer.obj
 0001:0000d3c0       ?CreateDPObject@?$CDPMng@VCBuffer3@@@@QAEHH@Z 0040e3c0 f i AccountServer.obj
 0001:0000d470       ??$_Uninit_fill_n@PAV?$CStringT@DV?$StrTraitMFC@DV?$ChTraitsCRT@D@ATL@@@@@ATL@@IV12@V?$allocator@V?$CStringT@DV?$StrTraitMFC@DV?$ChTraitsCRT@D@ATL@@@@@ATL@@@std@@@std@@YAXPAV?$CStringT@DV?$StrTraitMFC@DV?$ChTraitsCRT@D@ATL@@@@@ATL@@IABV12@AAV?$allocator@V?$CStringT@DV?$StrTraitMFC@DV?$ChTraitsCRT@D@ATL@@@@@ATL@@@0@U_Nonscalar_ptr_iterator_tag@0@@Z 0040e470 f i AccountServer.obj
 0001:0000d580       ??$_Uninitialized_copy@PAV?$CStringT@DV?$StrTraitMFC@DV?$ChTraitsCRT@D@ATL@@@@@ATL@@PAV12@V?$allocator@V?$CStringT@DV?$StrTraitMFC@DV?$ChTraitsCRT@D@ATL@@@@@ATL@@@std@@@std@@YAPAV?$CStringT@DV?$StrTraitMFC@DV?$ChTraitsCRT@D@ATL@@@@@ATL@@PAV12@00AAV?$allocator@V?$CStringT@DV?$StrTraitMFC@DV?$ChTraitsCRT@D@ATL@@@@@ATL@@@0@@Z 0040e580 f i AccountServer.obj
 0001:0000d5b0       ??$_Copy_backward_opt@PAV?$CStringT@DV?$StrTraitMFC@DV?$ChTraitsCRT@D@ATL@@@@@ATL@@PAV12@@std@@YAPAV?$CStringT@DV?$StrTraitMFC@DV?$ChTraitsCRT@D@ATL@@@@@ATL@@PAV12@00U_Nonscalar_ptr_iterator_tag@0@@Z 0040e5b0 f i AccountServer.obj
 0001:0000d640       ??$_Destroy_range@V?$CStringT@DV?$StrTraitMFC@DV?$ChTraitsCRT@D@ATL@@@@@ATL@@V?$allocator@V?$CStringT@DV?$StrTraitMFC@DV?$ChTraitsCRT@D@ATL@@@@@ATL@@@std@@@std@@YAXPAV?$CStringT@DV?$StrTraitMFC@DV?$ChTraitsCRT@D@ATL@@@@@ATL@@0AAV?$allocator@V?$CStringT@DV?$StrTraitMFC@DV?$ChTraitsCRT@D@ATL@@@@@ATL@@@0@U_Nonscalar_ptr_iterator_tag@0@@Z 0040e640 f i AccountServer.obj
 0001:0000d670       ??_E?$CDPSock@VCBuffer@@@@UAEPAXI@Z 0040e670 f i AccountServer.obj
 0001:0000d670       ??_G?$CDPSock@VCBuffer@@@@UAEPAXI@Z 0040e670 f i AccountServer.obj
 0001:0000d690       ??1?$CDPSock@VCBuffer@@@@UAE@XZ 0040e690 f i AccountServer.obj
 0001:0000d760       ??_G?$CDPSock@VCBuffer3@@@@UAEPAXI@Z 0040e760 f i AccountServer.obj
 0001:0000d760       ??_E?$CDPSock@VCBuffer3@@@@UAEPAXI@Z 0040e760 f i AccountServer.obj
 0001:0000d780       ??1?$CDPSock@VCBuffer3@@@@UAE@XZ 0040e780 f i AccountServer.obj
 0001:0000d850       ??4?$CStringT@DV?$StrTraitMFC@DV?$ChTraitsCRT@D@ATL@@@@@ATL@@QAEAAV01@PBD@Z 0040e850 f i AccountServer.obj
 0001:0000d890       ?ExitInstance@@YAXXZ       0040e890 f   AccountServer.obj
 0001:0000d980       ?_Insert@?$_Tree@V?$_Tmap_traits@KPAUtagSERVER_DESC@@U?$less@K@std@@V?$allocator@U?$pair@$$CBKPAUtagSERVER_DESC@@@std@@@3@$0A@@std@@@std@@IAE?AViterator@12@_NPAU_Node@?$_Tree_nod@V?$_Tmap_traits@KPAUtagSERVER_DESC@@U?$less@K@std@@V?$allocator@U?$pair@$$CBKPAUtagSERVER_DESC@@@std@@@3@$0A@@std@@@2@ABU?$pair@$$CBKPAUtagSERVER_DESC@@@2@@Z 0040e980 f i AccountServer.obj
 0001:0000db30       ?erase@?$_Tree@V?$_Tmap_traits@KPAU_BUYING_INFO3@@U?$less@K@std@@V?$allocator@U?$pair@$$CBKPAU_BUYING_INFO3@@@std@@@3@$0A@@std@@@std@@QAE?AViterator@12@V312@@Z 0040eb30 f i AccountServer.obj
 0001:0000ddf0       ?_Xlen@?$vector@KV?$allocator@K@std@@@std@@IBEXXZ 0040edf0 f i AccountServer.obj
 0001:0000de60       ?_Xlen@?$vector@V?$CStringT@DV?$StrTraitMFC@DV?$ChTraitsCRT@D@ATL@@@@@ATL@@V?$allocator@V?$CStringT@DV?$StrTraitMFC@DV?$ChTraitsCRT@D@ATL@@@@@ATL@@@std@@@std@@IBEXXZ 0040ee60 f i AccountServer.obj
 0001:0000ded0       ??$_Uninitialized_fill_n@PAV?$CStringT@DV?$StrTraitMFC@DV?$ChTraitsCRT@D@ATL@@@@@ATL@@IV12@V?$allocator@V?$CStringT@DV?$StrTraitMFC@DV?$ChTraitsCRT@D@ATL@@@@@ATL@@@std@@@std@@YAXPAV?$CStringT@DV?$StrTraitMFC@DV?$ChTraitsCRT@D@ATL@@@@@ATL@@IABV12@AAV?$allocator@V?$CStringT@DV?$StrTraitMFC@DV?$ChTraitsCRT@D@ATL@@@@@ATL@@@0@@Z 0040eed0 f i AccountServer.obj
 0001:0000df00       ??$_Ucopy@PAV?$CStringT@DV?$StrTraitMFC@DV?$ChTraitsCRT@D@ATL@@@@@ATL@@@?$vector@V?$CStringT@DV?$StrTraitMFC@DV?$ChTraitsCRT@D@ATL@@@@@ATL@@V?$allocator@V?$CStringT@DV?$StrTraitMFC@DV?$ChTraitsCRT@D@ATL@@@@@ATL@@@std@@@std@@IAEPAV?$CStringT@DV?$StrTraitMFC@DV?$ChTraitsCRT@D@ATL@@@@@ATL@@PAV23@00@Z 0040ef00 f i AccountServer.obj
 0001:0000df20       ??$copy_backward@PAV?$CStringT@DV?$StrTraitMFC@DV?$ChTraitsCRT@D@ATL@@@@@ATL@@PAV12@@std@@YAPAV?$CStringT@DV?$StrTraitMFC@DV?$ChTraitsCRT@D@ATL@@@@@ATL@@PAV12@00@Z 0040ef20 f i AccountServer.obj
 0001:0000df40       ??$_Destroy_range@V?$CStringT@DV?$StrTraitMFC@DV?$ChTraitsCRT@D@ATL@@@@@ATL@@V?$allocator@V?$CStringT@DV?$StrTraitMFC@DV?$ChTraitsCRT@D@ATL@@@@@ATL@@@std@@@std@@YAXPAV?$CStringT@DV?$StrTraitMFC@DV?$ChTraitsCRT@D@ATL@@@@@ATL@@0AAV?$allocator@V?$CStringT@DV?$StrTraitMFC@DV?$ChTraitsCRT@D@ATL@@@@@ATL@@@0@@Z 0040ef40 f i AccountServer.obj
 0001:0000df70       ?_Incsize@?$list@PAUtagDB_OVERLAPPED_PLUS@@V?$allocator@PAUtagDB_OVERLAPPED_PLUS@@@std@@@std@@IAEXI@Z 0040ef70 f i AccountServer.obj
 0001:0000e010       ?_Xlen@?$deque@PAUtagDB_OVERLAPPED_PLUS@@V?$allocator@PAUtagDB_OVERLAPPED_PLUS@@@std@@@std@@IBEXXZ 0040f010 f i AccountServer.obj
 0001:0000e080       ?erase@?$_Tree@V?$_Tmap_traits@KPAV?$CClientSock@VCBuffer@@@@U?$less@K@std@@V?$allocator@U?$pair@$$CBKPAV?$CClientSock@VCBuffer@@@@@std@@@3@$0A@@std@@@std@@QAE?AViterator@12@V312@@Z 0040f080 f i AccountServer.obj
 0001:0000e340       ?erase@?$_Tree@V?$_Tmap_traits@KPAV?$CClientSockE@VCBuffer@@@@U?$less@K@std@@V?$allocator@U?$pair@$$CBKPAV?$CClientSockE@VCBuffer@@@@@std@@@3@$0A@@std@@@std@@QAE?AViterator@12@V312@@Z 0040f340 f i AccountServer.obj
 0001:0000e600       ?erase@?$_Tree@V?$_Tmap_traits@KPAV?$CClientSock@VCBuffer3@@@@U?$less@K@std@@V?$allocator@U?$pair@$$CBKPAV?$CClientSock@VCBuffer3@@@@@std@@@3@$0A@@std@@@std@@QAE?AViterator@12@V312@@Z 0040f600 f i AccountServer.obj
 0001:0000e8c0       ?erase@?$_Tree@V?$_Tmap_traits@KPAV?$CClientSockE@VCBuffer3@@@@U?$less@K@std@@V?$allocator@U?$pair@$$CBKPAV?$CClientSockE@VCBuffer3@@@@@std@@@3@$0A@@std@@@std@@QAE?AViterator@12@V312@@Z 0040f8c0 f i AccountServer.obj
 0001:0000eb80       ?CloseChild@?$CServerSock@VCBuffer@@@@QAEHI@Z 0040fb80 f i AccountServer.obj
 0001:0000ec40       ?CloseChild@?$CServerSockE@VCBuffer@@@@QAEHI@Z 0040fc40 f i AccountServer.obj
 0001:0000ed00       ?CloseChild@?$CServerSock@VCBuffer3@@@@QAEHI@Z 0040fd00 f i AccountServer.obj
 0001:0000edc0       ?CloseChild@?$CServerSockE@VCBuffer3@@@@QAEHI@Z 0040fdc0 f i AccountServer.obj
 0001:0000ee80       ?_Insert@?$_Tree@V?$_Tmap_traits@KPAV?$CClientSock@VCBuffer@@@@U?$less@K@std@@V?$allocator@U?$pair@$$CBKPAV?$CClientSock@VCBuffer@@@@@std@@@3@$0A@@std@@@std@@IAE?AViterator@12@_NPAU_Node@?$_Tree_nod@V?$_Tmap_traits@KPAV?$CClientSock@VCBuffer@@@@U?$less@K@std@@V?$allocator@U?$pair@$$CBKPAV?$CClientSock@VCBuffer@@@@@std@@@3@$0A@@std@@@2@ABU?$pair@$$CBKPAV?$CClientSock@VCBuffer@@@@@2@@Z 0040fe80 f i AccountServer.obj
 0001:0000f030       ?_Insert@?$_Tree@V?$_Tmap_traits@KPAV?$CClientSockE@VCBuffer@@@@U?$less@K@std@@V?$allocator@U?$pair@$$CBKPAV?$CClientSockE@VCBuffer@@@@@std@@@3@$0A@@std@@@std@@IAE?AViterator@12@_NPAU_Node@?$_Tree_nod@V?$_Tmap_traits@KPAV?$CClientSockE@VCBuffer@@@@U?$less@K@std@@V?$allocator@U?$pair@$$CBKPAV?$CClientSockE@VCBuffer@@@@@std@@@3@$0A@@std@@@2@ABU?$pair@$$CBKPAV?$CClientSockE@VCBuffer@@@@@2@@Z 00410030 f i AccountServer.obj
 0001:0000f1e0       ?_Insert@?$_Tree@V?$_Tmap_traits@KPAV?$CClientSock@VCBuffer3@@@@U?$less@K@std@@V?$allocator@U?$pair@$$CBKPAV?$CClientSock@VCBuffer3@@@@@std@@@3@$0A@@std@@@std@@IAE?AViterator@12@_NPAU_Node@?$_Tree_nod@V?$_Tmap_traits@KPAV?$CClientSock@VCBuffer3@@@@U?$less@K@std@@V?$allocator@U?$pair@$$CBKPAV?$CClientSock@VCBuffer3@@@@@std@@@3@$0A@@std@@@2@ABU?$pair@$$CBKPAV?$CClientSock@VCBuffer3@@@@@2@@Z 004101e0 f i AccountServer.obj
 0001:0000f390       ?_Insert@?$_Tree@V?$_Tmap_traits@KPAV?$CClientSockE@VCBuffer3@@@@U?$less@K@std@@V?$allocator@U?$pair@$$CBKPAV?$CClientSockE@VCBuffer3@@@@@std@@@3@$0A@@std@@@std@@IAE?AViterator@12@_NPAU_Node@?$_Tree_nod@V?$_Tmap_traits@KPAV?$CClientSockE@VCBuffer3@@@@U?$less@K@std@@V?$allocator@U?$pair@$$CBKPAV?$CClientSockE@VCBuffer3@@@@@std@@@3@$0A@@std@@@2@ABU?$pair@$$CBKPAV?$CClientSockE@VCBuffer3@@@@@2@@Z 00410390 f i AccountServer.obj
 0001:0000f540       ??0?$CStringT@DV?$StrTraitMFC@DV?$ChTraitsCRT@D@ATL@@@@@ATL@@QAE@PBD@Z 00410540 f i AccountServer.obj
 0001:0000f5f0       ?insert@?$_Tree@V?$_Tmap_traits@KPAUtagSERVER_DESC@@U?$less@K@std@@V?$allocator@U?$pair@$$CBKPAUtagSERVER_DESC@@@std@@@3@$0A@@std@@@std@@QAE?AU?$pair@Viterator@?$_Tree@V?$_Tmap_traits@KPAUtagSERVER_DESC@@U?$less@K@std@@V?$allocator@U?$pair@$$CBKPAUtagSERVER_DESC@@@std@@@3@$0A@@std@@@std@@_N@2@ABU?$pair@$$CBKPAUtagSERVER_DESC@@@2@@Z 004105f0 f i AccountServer.obj
 0001:0000f6b0       ?_Ufill@?$vector@V?$CStringT@DV?$StrTraitMFC@DV?$ChTraitsCRT@D@ATL@@@@@ATL@@V?$allocator@V?$CStringT@DV?$StrTraitMFC@DV?$ChTraitsCRT@D@ATL@@@@@ATL@@@std@@@std@@IAEPAV?$CStringT@DV?$StrTraitMFC@DV?$ChTraitsCRT@D@ATL@@@@@ATL@@PAV34@IABV34@@Z 004106b0 f i AccountServer.obj
 0001:0000f6e0       ?erase@?$_Tree@V?$_Tmap_traits@KPAU_BUYING_INFO3@@U?$less@K@std@@V?$allocator@U?$pair@$$CBKPAU_BUYING_INFO3@@@std@@@3@$0A@@std@@@std@@QAE?AViterator@12@V312@0@Z 004106e0 f i AccountServer.obj
 0001:0000f7a0       ?Format@CTime@ATL@@QBE?AV?$CStringT@DV?$StrTraitMFC@DV?$ChTraitsCRT@D@ATL@@@@@2@PBD@Z 004107a0 f i AccountServer.obj
 0001:0000f830       ?_Buy@?$vector@KV?$allocator@K@std@@@std@@IAE_NI@Z 00410830 f i AccountServer.obj
 0001:0000f880       ?_Insert_n@?$vector@KV?$allocator@K@std@@@std@@IAEXViterator@12@IABK@Z 00410880 f i AccountServer.obj
 0001:0000fa60       ?_Destroy@?$vector@V?$CStringT@DV?$StrTraitMFC@DV?$ChTraitsCRT@D@ATL@@@@@ATL@@V?$allocator@V?$CStringT@DV?$StrTraitMFC@DV?$ChTraitsCRT@D@ATL@@@@@ATL@@@std@@@std@@IAEXPAV?$CStringT@DV?$StrTraitMFC@DV?$ChTraitsCRT@D@ATL@@@@@ATL@@0@Z 00410a60 f i AccountServer.obj
 0001:0000fa90       ?_Insert@?$list@PAUtagDB_OVERLAPPED_PLUS@@V?$allocator@PAUtagDB_OVERLAPPED_PLUS@@@std@@@std@@QAEXViterator@12@ABQAUtagDB_OVERLAPPED_PLUS@@@Z 00410a90 f i AccountServer.obj
 0001:0000fad0       ?_Growmap@?$deque@PAUtagDB_OVERLAPPED_PLUS@@V?$allocator@PAUtagDB_OVERLAPPED_PLUS@@@std@@@std@@IAEXI@Z 00410ad0 f i AccountServer.obj
 0001:0000fc30       ?erase@?$_Tree@V?$_Tmap_traits@KPAV?$CClientSock@VCBuffer@@@@U?$less@K@std@@V?$allocator@U?$pair@$$CBKPAV?$CClientSock@VCBuffer@@@@@std@@@3@$0A@@std@@@std@@QAE?AViterator@12@V312@0@Z 00410c30 f i AccountServer.obj
 0001:0000fcf0       ?erase@?$_Tree@V?$_Tmap_traits@KPAV?$CClientSockE@VCBuffer@@@@U?$less@K@std@@V?$allocator@U?$pair@$$CBKPAV?$CClientSockE@VCBuffer@@@@@std@@@3@$0A@@std@@@std@@QAE?AViterator@12@V312@0@Z 00410cf0 f i AccountServer.obj
 0001:0000fdb0       ?erase@?$_Tree@V?$_Tmap_traits@KPAV?$CClientSock@VCBuffer3@@@@U?$less@K@std@@V?$allocator@U?$pair@$$CBKPAV?$CClientSock@VCBuffer3@@@@@std@@@3@$0A@@std@@@std@@QAE?AViterator@12@V312@0@Z 00410db0 f i AccountServer.obj
 0001:0000fe70       ?erase@?$_Tree@V?$_Tmap_traits@KPAV?$CClientSockE@VCBuffer3@@@@U?$less@K@std@@V?$allocator@U?$pair@$$CBKPAV?$CClientSockE@VCBuffer3@@@@@std@@@3@$0A@@std@@@std@@QAE?AViterator@12@V312@0@Z 00410e70 f i AccountServer.obj
 0001:0000ff30       ?insert@?$_Tree@V?$_Tmap_traits@KPAV?$CClientSock@VCBuffer@@@@U?$less@K@std@@V?$allocator@U?$pair@$$CBKPAV?$CClientSock@VCBuffer@@@@@std@@@3@$0A@@std@@@std@@QAE?AU?$pair@Viterator@?$_Tree@V?$_Tmap_traits@KPAV?$CClientSock@VCBuffer@@@@U?$less@K@std@@V?$allocator@U?$pair@$$CBKPAV?$CClientSock@VCBuffer@@@@@std@@@3@$0A@@std@@@std@@_N@2@ABU?$pair@$$CBKPAV?$CClientSock@VCBuffer@@@@@2@@Z 00410f30 f i AccountServer.obj
 0001:0000fff0       ?insert@?$_Tree@V?$_Tmap_traits@KPAV?$CClientSockE@VCBuffer@@@@U?$less@K@std@@V?$allocator@U?$pair@$$CBKPAV?$CClientSockE@VCBuffer@@@@@std@@@3@$0A@@std@@@std@@QAE?AU?$pair@Viterator@?$_Tree@V?$_Tmap_traits@KPAV?$CClientSockE@VCBuffer@@@@U?$less@K@std@@V?$allocator@U?$pair@$$CBKPAV?$CClientSockE@VCBuffer@@@@@std@@@3@$0A@@std@@@std@@_N@2@ABU?$pair@$$CBKPAV?$CClientSockE@VCBuffer@@@@@2@@Z 00410ff0 f i AccountServer.obj
 0001:000100b0       ?insert@?$_Tree@V?$_Tmap_traits@KPAV?$CClientSock@VCBuffer3@@@@U?$less@K@std@@V?$allocator@U?$pair@$$CBKPAV?$CClientSock@VCBuffer3@@@@@std@@@3@$0A@@std@@@std@@QAE?AU?$pair@Viterator@?$_Tree@V?$_Tmap_traits@KPAV?$CClientSock@VCBuffer3@@@@U?$less@K@std@@V?$allocator@U?$pair@$$CBKPAV?$CClientSock@VCBuffer3@@@@@std@@@3@$0A@@std@@@std@@_N@2@ABU?$pair@$$CBKPAV?$CClientSock@VCBuffer3@@@@@2@@Z 004110b0 f i AccountServer.obj
 0001:00010170       ?insert@?$_Tree@V?$_Tmap_traits@KPAV?$CClientSockE@VCBuffer3@@@@U?$less@K@std@@V?$allocator@U?$pair@$$CBKPAV?$CClientSockE@VCBuffer3@@@@@std@@@3@$0A@@std@@@std@@QAE?AU?$pair@Viterator@?$_Tree@V?$_Tmap_traits@KPAV?$CClientSockE@VCBuffer3@@@@U?$less@K@std@@V?$allocator@U?$pair@$$CBKPAV?$CClientSockE@VCBuffer3@@@@@std@@@3@$0A@@std@@@std@@_N@2@ABU?$pair@$$CBKPAV?$CClientSockE@VCBuffer3@@@@@2@@Z 00411170 f i AccountServer.obj
 0001:00010230       ?erase@?$_Tree@V?$_Tmap_traits@KPAU_BUYING_INFO3@@U?$less@K@std@@V?$allocator@U?$pair@$$CBKPAU_BUYING_INFO3@@@std@@@3@$0A@@std@@@std@@QAEIABK@Z 00411230 f i AccountServer.obj
 0001:00010290       ??0?$vector@KV?$allocator@K@std@@@std@@QAE@XZ 00411290 f i AccountServer.obj
 0001:000102a0       ?insert@?$vector@KV?$allocator@K@std@@@std@@QAE?AViterator@12@V312@ABK@Z 004112a0 f i AccountServer.obj
 0001:000102f0       ?_Insert_n@?$vector@V?$CStringT@DV?$StrTraitMFC@DV?$ChTraitsCRT@D@ATL@@@@@ATL@@V?$allocator@V?$CStringT@DV?$StrTraitMFC@DV?$ChTraitsCRT@D@ATL@@@@@ATL@@@std@@@std@@IAEXViterator@12@IABV?$CStringT@DV?$StrTraitMFC@DV?$ChTraitsCRT@D@ATL@@@@@ATL@@@Z 004112f0 f i AccountServer.obj
 0001:000105a0       ?push_back@?$list@PAUtagDB_OVERLAPPED_PLUS@@V?$allocator@PAUtagDB_OVERLAPPED_PLUS@@@std@@@std@@QAEXABQAUtagDB_OVERLAPPED_PLUS@@@Z 004115a0 f i AccountServer.obj
 0001:000105e0       ?push_back@?$deque@PAUtagDB_OVERLAPPED_PLUS@@V?$allocator@PAUtagDB_OVERLAPPED_PLUS@@@std@@@std@@QAEXABQAUtagDB_OVERLAPPED_PLUS@@@Z 004115e0 f i AccountServer.obj
 0001:00010660       ?_Tidy@?$_Tree@V?$_Tmap_traits@KPAV?$CClientSock@VCBuffer@@@@U?$less@K@std@@V?$allocator@U?$pair@$$CBKPAV?$CClientSock@VCBuffer@@@@@std@@@3@$0A@@std@@@std@@IAEXXZ 00411660 f i AccountServer.obj
 0001:00010690       ?_Tidy@?$_Tree@V?$_Tmap_traits@KPAV?$CClientSockE@VCBuffer@@@@U?$less@K@std@@V?$allocator@U?$pair@$$CBKPAV?$CClientSockE@VCBuffer@@@@@std@@@3@$0A@@std@@@std@@IAEXXZ 00411690 f i AccountServer.obj
 0001:000106c0       ?_Tidy@?$_Tree@V?$_Tmap_traits@KPAV?$CClientSock@VCBuffer3@@@@U?$less@K@std@@V?$allocator@U?$pair@$$CBKPAV?$CClientSock@VCBuffer3@@@@@std@@@3@$0A@@std@@@std@@IAEXXZ 004116c0 f i AccountServer.obj
 0001:000106f0       ?_Tidy@?$_Tree@V?$_Tmap_traits@KPAV?$CClientSockE@VCBuffer3@@@@U?$less@K@std@@V?$allocator@U?$pair@$$CBKPAV?$CClientSockE@VCBuffer3@@@@@std@@@3@$0A@@std@@@std@@IAEXXZ 004116f0 f i AccountServer.obj
 0001:00010720       ?Remove@CBuyingInfoMng@@QAEXK@Z 00411720 f i AccountServer.obj
 0001:00010750       ?push_back@?$vector@KV?$allocator@K@std@@@std@@QAEXABK@Z 00411750 f i AccountServer.obj
 0001:000107a0       ?Create@?$MemPooler@VCBuffer@@@@IAEXXZ 004117a0 f i AccountServer.obj
 0001:00010830       ?Create@?$MemPooler@VCBuffer3@@@@IAEXXZ 00411830 f i AccountServer.obj
 0001:000108c0       ?insert@?$vector@V?$CStringT@DV?$StrTraitMFC@DV?$ChTraitsCRT@D@ATL@@@@@ATL@@V?$allocator@V?$CStringT@DV?$StrTraitMFC@DV?$ChTraitsCRT@D@ATL@@@@@ATL@@@std@@@std@@QAE?AViterator@12@V312@ABV?$CStringT@DV?$StrTraitMFC@DV?$ChTraitsCRT@D@ATL@@@@@ATL@@@Z 004118c0 f i AccountServer.obj
 0001:00010910       ?push@?$stack@PAUtagDB_OVERLAPPED_PLUS@@V?$deque@PAUtagDB_OVERLAPPED_PLUS@@V?$allocator@PAUtagDB_OVERLAPPED_PLUS@@@std@@@std@@@std@@QAEXABQAUtagDB_OVERLAPPED_PLUS@@@Z 00411910 f i AccountServer.obj
 0001:00010920       ??1?$_Tree@V?$_Tmap_traits@KPAV?$CClientSock@VCBuffer@@@@U?$less@K@std@@V?$allocator@U?$pair@$$CBKPAV?$CClientSock@VCBuffer@@@@@std@@@3@$0A@@std@@@std@@QAE@XZ 00411920 f i AccountServer.obj
 0001:00010950       ??1?$_Tree@V?$_Tmap_traits@KPAV?$CClientSockE@VCBuffer@@@@U?$less@K@std@@V?$allocator@U?$pair@$$CBKPAV?$CClientSockE@VCBuffer@@@@@std@@@3@$0A@@std@@@std@@QAE@XZ 00411950 f i AccountServer.obj
 0001:00010980       ??1?$_Tree@V?$_Tmap_traits@KPAV?$CClientSock@VCBuffer3@@@@U?$less@K@std@@V?$allocator@U?$pair@$$CBKPAV?$CClientSock@VCBuffer3@@@@@std@@@3@$0A@@std@@@std@@QAE@XZ 00411980 f i AccountServer.obj
 0001:000109b0       ??1?$_Tree@V?$_Tmap_traits@KPAV?$CClientSockE@VCBuffer3@@@@U?$less@K@std@@V?$allocator@U?$pair@$$CBKPAV?$CClientSockE@VCBuffer3@@@@@std@@@3@$0A@@std@@@std@@QAE@XZ 004119b0 f i AccountServer.obj
 0001:000109e0       ??0?$map@KPAV?$CClientSock@VCBuffer@@@@U?$less@K@std@@V?$allocator@U?$pair@$$CBKPAV?$CClientSock@VCBuffer@@@@@std@@@3@@std@@QAE@XZ 004119e0 f i AccountServer.obj
 0001:00010a10       ??0?$map@KPAV?$CClientSockE@VCBuffer@@@@U?$less@K@std@@V?$allocator@U?$pair@$$CBKPAV?$CClientSockE@VCBuffer@@@@@std@@@3@@std@@QAE@XZ 00411a10 f i AccountServer.obj
 0001:00010a40       ??0?$map@KPAV?$CClientSock@VCBuffer3@@@@U?$less@K@std@@V?$allocator@U?$pair@$$CBKPAV?$CClientSock@VCBuffer3@@@@@std@@@3@@std@@QAE@XZ 00411a40 f i AccountServer.obj
 0001:00010a70       ??0?$map@KPAV?$CClientSockE@VCBuffer3@@@@U?$less@K@std@@V?$allocator@U?$pair@$$CBKPAV?$CClientSockE@VCBuffer3@@@@@std@@@3@@std@@QAE@XZ 00411a70 f i AccountServer.obj
 0001:00010aa0       ?Alloc@?$MemPooler@VCBuffer@@@@QAEPAVCBuffer@@XZ 00411aa0 f i AccountServer.obj
 0001:00010ae0       ?Alloc@?$MemPooler@VCBuffer3@@@@QAEPAVCBuffer3@@XZ 00411ae0 f i AccountServer.obj
 0001:00010b20       ?push_back@?$vector@V?$CStringT@DV?$StrTraitMFC@DV?$ChTraitsCRT@D@ATL@@@@@ATL@@V?$allocator@V?$CStringT@DV?$StrTraitMFC@DV?$ChTraitsCRT@D@ATL@@@@@ATL@@@std@@@std@@QAEXABV?$CStringT@DV?$StrTraitMFC@DV?$ChTraitsCRT@D@ATL@@@@@ATL@@@Z 00411b20 f i AccountServer.obj
 0001:00010b90       ?Grow@?$CMemPool@UtagDB_OVERLAPPED_PLUS@@@@AAEXXZ 00411b90 f i AccountServer.obj
 0001:00010c10       ??1?$map@KPAV?$CClientSock@VCBuffer@@@@U?$less@K@std@@V?$allocator@U?$pair@$$CBKPAV?$CClientSock@VCBuffer@@@@@std@@@3@@std@@QAE@XZ 00411c10 f i AccountServer.obj
 0001:00010c40       ??1?$map@KPAV?$CClientSockE@VCBuffer@@@@U?$less@K@std@@V?$allocator@U?$pair@$$CBKPAV?$CClientSockE@VCBuffer@@@@@std@@@3@@std@@QAE@XZ 00411c40 f i AccountServer.obj
 0001:00010c70       ??1?$map@KPAV?$CClientSock@VCBuffer3@@@@U?$less@K@std@@V?$allocator@U?$pair@$$CBKPAV?$CClientSock@VCBuffer3@@@@@std@@@3@@std@@QAE@XZ 00411c70 f i AccountServer.obj
 0001:00010ca0       ??1?$map@KPAV?$CClientSockE@VCBuffer3@@@@U?$less@K@std@@V?$allocator@U?$pair@$$CBKPAV?$CClientSockE@VCBuffer3@@@@@std@@@3@@std@@QAE@XZ 00411ca0 f i AccountServer.obj
 0001:00010cd0       ??0?$CMapChild@VCBuffer@@@@QAE@XZ 00411cd0 f i AccountServer.obj
 0001:00010d20       ??0?$CMapChildE@VCBuffer@@@@QAE@XZ 00411d20 f i AccountServer.obj
 0001:00010d70       ??0?$CMapChild@VCBuffer3@@@@QAE@XZ 00411d70 f i AccountServer.obj
 0001:00010dc0       ??0?$CMapChildE@VCBuffer3@@@@QAE@XZ 00411dc0 f i AccountServer.obj
 0001:00010e10       ??2CBuffer@@SAPAXI@Z       00411e10 f i AccountServer.obj
 0001:00010e50       ??2CBuffer3@@SAPAXI@Z      00411e50 f i AccountServer.obj
 0001:00010e90       ?Script@@YAHPBD@Z          00411e90 f   AccountServer.obj
 0001:00011550       ?Alloc@?$CMemPool@UtagDB_OVERLAPPED_PLUS@@@@QAEPAUtagDB_OVERLAPPED_PLUS@@XZ 00412550 f i AccountServer.obj
 0001:000115f0       ??1?$CMapChild@VCBuffer@@@@UAE@XZ 004125f0 f i AccountServer.obj
 0001:00011640       ??1?$CMapChildE@VCBuffer@@@@UAE@XZ 00412640 f i AccountServer.obj
 0001:00011690       ??1?$CMapChild@VCBuffer3@@@@UAE@XZ 00412690 f i AccountServer.obj
 0001:000116e0       ??1?$CMapChildE@VCBuffer3@@@@UAE@XZ 004126e0 f i AccountServer.obj
 0001:00011730       ??_E?$CMapChild@VCBuffer@@@@UAEPAXI@Z 00412730 f i AccountServer.obj
 0001:00011730       ??_G?$CMapChild@VCBuffer@@@@UAEPAXI@Z 00412730 f i AccountServer.obj
 0001:00011750       ??_E?$CMapChildE@VCBuffer@@@@UAEPAXI@Z 00412750 f i AccountServer.obj
 0001:00011750       ??_G?$CMapChildE@VCBuffer@@@@UAEPAXI@Z 00412750 f i AccountServer.obj
 0001:00011770       ??_E?$CMapChild@VCBuffer3@@@@UAEPAXI@Z 00412770 f i AccountServer.obj
 0001:00011770       ??_G?$CMapChild@VCBuffer3@@@@UAEPAXI@Z 00412770 f i AccountServer.obj
 0001:00011790       ??_G?$CMapChildE@VCBuffer3@@@@UAEPAXI@Z 00412790 f i AccountServer.obj
 0001:00011790       ??_E?$CMapChildE@VCBuffer3@@@@UAEPAXI@Z 00412790 f i AccountServer.obj
 0001:000117b0       ??0?$CServerSock@VCBuffer@@@@QAE@K@Z 004127b0 f i AccountServer.obj
 0001:00011850       ?Detach@CSock@@UAEXXZ      00412850 f i AccountServer.obj
 0001:00011860       ?GetPeerAddr@?$CServerSock@VCBuffer@@@@UAEJKPAXPAK@Z 00412860 f i AccountServer.obj
 0001:00011920       ?Shutdown@?$CServerSock@VCBuffer@@@@UAEHI@Z 00412920 f i AccountServer.obj
 0001:000119b0       ?Send@?$CServerSock@VCBuffer@@@@UAEXPADKK@Z 004129b0 f i AccountServer.obj
 0001:00011a90       ?Close@?$CServerSock@VCBuffer@@@@UAEXXZ 00412a90 f i AccountServer.obj
 0001:00011af0       ?CloseAllChild@?$CServerSock@VCBuffer@@@@QAEXXZ 00412af0 f i AccountServer.obj
 0001:00011bd0       ?Get@?$CServerSock@VCBuffer@@@@UAEPAVCSock@@I@Z 00412bd0 f i AccountServer.obj
 0001:00011c10       ?CloseConnection@?$CServerSock@VCBuffer@@@@UAEHI@Z 00412c10 f i AccountServer.obj
 0001:00011c20       ??0?$CServerSockE@VCBuffer@@@@QAE@K@Z 00412c20 f i AccountServer.obj
 0001:00011cc0       ?Shutdown@?$CServerSockE@VCBuffer@@@@UAEHI@Z 00412cc0 f i AccountServer.obj
 0001:00011cd0       ?GetPeerAddr@?$CServerSockE@VCBuffer@@@@UAEJKPAXPAK@Z 00412cd0 f i AccountServer.obj
 0001:00011d90       ?Send@?$CServerSockE@VCBuffer@@@@UAEXPADKK@Z 00412d90 f i AccountServer.obj
 0001:00011e70       ?Close@?$CServerSockE@VCBuffer@@@@UAEXXZ 00412e70 f i AccountServer.obj
 0001:00011ed0       ?CloseAllChild@?$CServerSockE@VCBuffer@@@@QAEXXZ 00412ed0 f i AccountServer.obj
 0001:00011fa0       ?Get@?$CServerSockE@VCBuffer@@@@UAEPAVCSock@@I@Z 00412fa0 f i AccountServer.obj
 0001:00011fe0       ?CloseConnection@?$CServerSockE@VCBuffer@@@@UAEHI@Z 00412fe0 f i AccountServer.obj
 0001:00011ff0       ??0?$CServerSock@VCBuffer3@@@@QAE@K@Z 00412ff0 f i AccountServer.obj
 0001:00012090       ?GetPeerAddr@?$CServerSock@VCBuffer3@@@@UAEJKPAXPAK@Z 00413090 f i AccountServer.obj
 0001:00012150       ?Shutdown@?$CServerSock@VCBuffer3@@@@UAEHI@Z 00413150 f i AccountServer.obj
 0001:000121e0       ?Send@?$CServerSock@VCBuffer3@@@@UAEXPADKK@Z 004131e0 f i AccountServer.obj
 0001:000122c0       ?Close@?$CServerSock@VCBuffer3@@@@UAEXXZ 004132c0 f i AccountServer.obj
 0001:00012320       ?CloseAllChild@?$CServerSock@VCBuffer3@@@@QAEXXZ 00413320 f i AccountServer.obj
 0001:00012400       ?Get@?$CServerSock@VCBuffer3@@@@UAEPAVCSock@@I@Z 00413400 f i AccountServer.obj
 0001:00012440       ?CloseConnection@?$CServerSock@VCBuffer3@@@@UAEHI@Z 00413440 f i AccountServer.obj
 0001:00012450       ??0?$CServerSockE@VCBuffer3@@@@QAE@K@Z 00413450 f i AccountServer.obj
 0001:000124f0       ?Shutdown@?$CServerSockE@VCBuffer3@@@@UAEHI@Z 004134f0 f i AccountServer.obj
 0001:00012500       ?GetPeerAddr@?$CServerSockE@VCBuffer3@@@@UAEJKPAXPAK@Z 00413500 f i AccountServer.obj
 0001:000125c0       ?Send@?$CServerSockE@VCBuffer3@@@@UAEXPADKK@Z 004135c0 f i AccountServer.obj
 0001:000126a0       ?Close@?$CServerSockE@VCBuffer3@@@@UAEXXZ 004136a0 f i AccountServer.obj
 0001:00012700       ?CloseAllChild@?$CServerSockE@VCBuffer3@@@@QAEXXZ 00413700 f i AccountServer.obj
 0001:000127d0       ?Get@?$CServerSockE@VCBuffer3@@@@UAEPAVCSock@@I@Z 004137d0 f i AccountServer.obj
 0001:00012810       ?CloseConnection@?$CServerSockE@VCBuffer3@@@@UAEHI@Z 00413810 f i AccountServer.obj
 0001:00012820       ??_G?$CServerSock@VCBuffer@@@@UAEPAXI@Z 00413820 f i AccountServer.obj
 0001:00012820       ??_E?$CServerSock@VCBuffer@@@@UAEPAXI@Z 00413820 f i AccountServer.obj
 0001:00012840       ??1?$CServerSock@VCBuffer@@@@UAE@XZ 00413840 f i AccountServer.obj
 0001:000128e0       ??_G?$CServerSockE@VCBuffer@@@@UAEPAXI@Z 004138e0 f i AccountServer.obj
 0001:000128e0       ??_E?$CServerSockE@VCBuffer@@@@UAEPAXI@Z 004138e0 f i AccountServer.obj
 0001:00012900       ??1?$CServerSockE@VCBuffer@@@@UAE@XZ 00413900 f i AccountServer.obj
 0001:000129a0       ??_G?$CServerSock@VCBuffer3@@@@UAEPAXI@Z 004139a0 f i AccountServer.obj
 0001:000129a0       ??_E?$CServerSock@VCBuffer3@@@@UAEPAXI@Z 004139a0 f i AccountServer.obj
 0001:000129c0       ??1?$CServerSock@VCBuffer3@@@@UAE@XZ 004139c0 f i AccountServer.obj
 0001:00012a60       ??_G?$CServerSockE@VCBuffer3@@@@UAEPAXI@Z 00413a60 f i AccountServer.obj
 0001:00012a60       ??_E?$CServerSockE@VCBuffer3@@@@UAEPAXI@Z 00413a60 f i AccountServer.obj
 0001:00012a80       ??1?$CServerSockE@VCBuffer3@@@@UAE@XZ 00413a80 f i AccountServer.obj
 0001:00012b20       ?AddCreatePlayerOrGroupMsg@?$CDPSock@VCBuffer@@@@QAEXK@Z 00413b20 f i AccountServer.obj
 0001:00012c10       ?AddCreatePlayerOrGroupMsg@?$CDPSock@VCBuffer3@@@@QAEXK@Z 00413c10 f i AccountServer.obj
 0001:00012d00       ?AddDestroyPlayerOrGroupMsg@?$CDPSock@VCBuffer@@@@QAEXK@Z 00413d00 f i AccountServer.obj
 0001:00012df0       ??0?$CClientSock@VCBuffer@@@@QAE@K@Z 00413df0 f i AccountServer.obj
 0001:00012ee0       ?Get@CSock@@UAEPAV1@I@Z    00413ee0 f i AccountServer.obj
 0001:00012f00       ?Close@?$CClientSock@VCBuffer@@@@UAEXXZ 00413f00 f i AccountServer.obj
 0001:00012f40       ?CloseConnection@?$CClientSock@VCBuffer@@@@UAEHI@Z 00413f40 f i AccountServer.obj
 0001:00012f50       ?Shutdown@?$CClientSock@VCBuffer@@@@UAEHI@Z 00413f50 f i AccountServer.obj
 0001:00012f60       ?GetPeerAddr@?$CClientSock@VCBuffer@@@@UAEJKPAXPAK@Z 00413f60 f i AccountServer.obj
 0001:00013000       ??_E?$CClientSock@VCBuffer@@@@UAEPAXI@Z 00414000 f i AccountServer.obj
 0001:00013000       ??_G?$CClientSock@VCBuffer@@@@UAEPAXI@Z 00414000 f i AccountServer.obj
 0001:00013020       ??1?$CClientSock@VCBuffer@@@@UAE@XZ 00414020 f i AccountServer.obj
 0001:000130b0       ??0?$CClientSockE@VCBuffer@@@@QAE@K@Z 004140b0 f i AccountServer.obj
 0001:000131b0       ?Create@?$CClientSockE@VCBuffer@@@@UAEHGH@Z 004141b0 f i AccountServer.obj
 0001:000131f0       ?Attach@?$CClientSockE@VCBuffer@@@@UAEXI@Z 004141f0 f i AccountServer.obj
 0001:00013230       ?Close@?$CClientSockE@VCBuffer@@@@UAEXXZ 00414230 f i AccountServer.obj
 0001:00013290       ?CloseConnection@?$CClientSockE@VCBuffer@@@@UAEHI@Z 00414290 f i AccountServer.obj
 0001:000132a0       ?Shutdown@?$CClientSockE@VCBuffer@@@@UAEHI@Z 004142a0 f i AccountServer.obj
 0001:000132b0       ?GetPeerAddr@?$CClientSockE@VCBuffer@@@@UAEJKPAXPAK@Z 004142b0 f i AccountServer.obj
 0001:00013350       ??_G?$CClientSockE@VCBuffer@@@@UAEPAXI@Z 00414350 f i AccountServer.obj
 0001:00013350       ??_E?$CClientSockE@VCBuffer@@@@UAEPAXI@Z 00414350 f i AccountServer.obj
 0001:00013370       ??1?$CClientSockE@VCBuffer@@@@UAE@XZ 00414370 f i AccountServer.obj
 0001:000133d0       ?AddDestroyPlayerOrGroupMsg@?$CDPSock@VCBuffer3@@@@QAEXK@Z 004143d0 f i AccountServer.obj
 0001:000134c0       ??0?$CClientSock@VCBuffer3@@@@QAE@K@Z 004144c0 f i AccountServer.obj
 0001:000135c0       ?Close@?$CClientSock@VCBuffer3@@@@UAEXXZ 004145c0 f i AccountServer.obj
 0001:00013600       ?CloseConnection@?$CClientSock@VCBuffer3@@@@UAEHI@Z 00414600 f i AccountServer.obj
 0001:00013610       ?Shutdown@?$CClientSock@VCBuffer3@@@@UAEHI@Z 00414610 f i AccountServer.obj
 0001:00013620       ?GetPeerAddr@?$CClientSock@VCBuffer3@@@@UAEJKPAXPAK@Z 00414620 f i AccountServer.obj
 0001:000136c0       ??_G?$CClientSock@VCBuffer3@@@@UAEPAXI@Z 004146c0 f i AccountServer.obj
 0001:000136c0       ??_E?$CClientSock@VCBuffer3@@@@UAEPAXI@Z 004146c0 f i AccountServer.obj
 0001:000136e0       ??1?$CClientSock@VCBuffer3@@@@UAE@XZ 004146e0 f i AccountServer.obj
 0001:00013770       ??0?$CClientSockE@VCBuffer3@@@@QAE@K@Z 00414770 f i AccountServer.obj
 0001:00013870       ?Create@?$CClientSockE@VCBuffer3@@@@UAEHGH@Z 00414870 f i AccountServer.obj
 0001:000138b0       ?Attach@?$CClientSockE@VCBuffer3@@@@UAEXI@Z 004148b0 f i AccountServer.obj
 0001:000138f0       ?Close@?$CClientSockE@VCBuffer3@@@@UAEXXZ 004148f0 f i AccountServer.obj
 0001:00013950       ?CloseConnection@?$CClientSockE@VCBuffer3@@@@UAEHI@Z 00414950 f i AccountServer.obj
 0001:00013960       ?Shutdown@?$CClientSockE@VCBuffer3@@@@UAEHI@Z 00414960 f i AccountServer.obj
 0001:00013970       ?GetPeerAddr@?$CClientSockE@VCBuffer3@@@@UAEJKPAXPAK@Z 00414970 f i AccountServer.obj
 0001:00013a10       ??_G?$CClientSockE@VCBuffer3@@@@UAEPAXI@Z 00414a10 f i AccountServer.obj
 0001:00013a10       ??_E?$CClientSockE@VCBuffer3@@@@UAEPAXI@Z 00414a10 f i AccountServer.obj
 0001:00013a30       ??1?$CClientSockE@VCBuffer3@@@@UAE@XZ 00414a30 f i AccountServer.obj
 0001:00013a90       ?Process@CBuyingInfoMng@@QAEXXZ 00414a90 f i AccountServer.obj
 0001:00013e30       ?WndProc@@YGJPAUHWND__@@IIJ@Z 00414e30 f   AccountServer.obj
 0001:000140f0       ?Send@?$CClientSock@VCBuffer@@@@UAEXPADKK@Z 004150f0 f i AccountServer.obj
 0001:000141f0       ?AddData@?$CBufferQueue@VCBuffer@@@@QAEXPAEK@Z 004151f0 f i AccountServer.obj
 0001:000143f0       ?Send@?$CClientSockE@VCBuffer@@@@UAEXPADKK@Z 004153f0 f i AccountServer.obj
 0001:000144f0       ?Send@?$CClientSock@VCBuffer3@@@@UAEXPADKK@Z 004154f0 f i AccountServer.obj
 0001:000145f0       ?AddData@?$CBufferQueue@VCBuffer3@@@@QAEXPAEK@Z 004155f0 f i AccountServer.obj
 0001:00014800       ?Send@?$CClientSockE@VCBuffer3@@@@UAEXPADKK@Z 00415800 f i AccountServer.obj
 0001:00014900       ?CloseConnection@?$CDPSock@VCBuffer@@@@QAEXK@Z 00415900 f i AccountServer.obj
 0001:00014940       ?AddChild@?$CServerSock@VCBuffer@@@@QAEPAV?$CClientSock@VCBuffer@@@@I@Z 00415940 f i AccountServer.obj
 0001:000149e0       ?AddChild@?$CServerSockE@VCBuffer@@@@QAEPAV?$CClientSockE@VCBuffer@@@@I@Z 004159e0 f i AccountServer.obj
 0001:00014a80       ?CloseConnection@?$CDPSock@VCBuffer3@@@@QAEXK@Z 00415a80 f i AccountServer.obj
 0001:00014ac0       ?AddChild@?$CServerSock@VCBuffer3@@@@QAEPAV?$CClientSock@VCBuffer3@@@@I@Z 00415ac0 f i AccountServer.obj
 0001:00014b60       ?AddChild@?$CServerSockE@VCBuffer3@@@@QAEPAV?$CClientSockE@VCBuffer3@@@@I@Z 00415b60 f i AccountServer.obj
 0001:00014c00       ?EventWorkerThread@?$CDPSock@VCBuffer@@@@QAEHXZ 00415c00 f i AccountServer.obj
 0001:00014da0       ?EventWorkerThread@?$CDPSock@VCBuffer3@@@@QAEHXZ 00415da0 f i AccountServer.obj
 0001:00014f40       ?MyRegisterClass@@YAGPAUHINSTANCE__@@@Z 00415f40 f   AccountServer.obj
 0001:00014fd0       ?IoWorkerThread@?$CDPSock@VCBuffer@@@@QAEHXZ 00415fd0 f i AccountServer.obj
 0001:000151b0       ?ListenThread@?$CServerSock@VCBuffer@@@@QAEHXZ 004161b0 f i AccountServer.obj
 0001:000152d0       ?IoWorkerThread@?$CDPSock@VCBuffer3@@@@QAEHXZ 004162d0 f i AccountServer.obj
 0001:000154b0       ?ListenThread@?$CServerSock@VCBuffer3@@@@QAEHXZ 004164b0 f i AccountServer.obj
 0001:000155d0       ?_EventWorkerThread@?$CDPSock@VCBuffer@@@@SAIPAX@Z 004165d0 f i AccountServer.obj
 0001:000155e0       ?_EventWorkerThread@?$CDPSock@VCBuffer3@@@@SAIPAX@Z 004165e0 f i AccountServer.obj
 0001:000155f0       ?_IoWorkerThread@?$CDPSock@VCBuffer@@@@SAIPAX@Z 004165f0 f i AccountServer.obj
 0001:00015600       ?_IoWorkerThread@?$CDPSock@VCBuffer3@@@@SAIPAX@Z 00416600 f i AccountServer.obj
 0001:00015610       ?_ListenThread@?$CServerSock@VCBuffer@@@@SAIPAX@Z 00416610 f i AccountServer.obj
 0001:00015620       ?_ListenThread@?$CServerSock@VCBuffer3@@@@SAIPAX@Z 00416620 f i AccountServer.obj
 0001:00015630       ?CreateEventWorker@?$CDPSock@VCBuffer@@@@QAEHPAVCSock@@@Z 00416630 f i AccountServer.obj
 0001:000156d0       ?CreateEventWorker@?$CDPSock@VCBuffer3@@@@QAEHPAVCSock@@@Z 004166d0 f i AccountServer.obj
 0001:00015770       ?CreateIoWorker@?$CDPSock@VCBuffer@@@@AAEHK@Z 00416770 f i AccountServer.obj
 0001:00015820       ?StartServer@?$CServerSock@VCBuffer@@@@QAEHPAXK@Z 00416820 f i AccountServer.obj
 0001:00015890       ?CreateIoWorker@?$CDPSock@VCBuffer3@@@@AAEHK@Z 00416890 f i AccountServer.obj
 0001:00015940       ?StartServer@?$CServerSock@VCBuffer3@@@@QAEHPAXK@Z 00416940 f i AccountServer.obj
 0001:000159b0       ?ListenThreadE@?$CServerSockE@VCBuffer@@@@QAEHXZ 004169b0 f i AccountServer.obj
 0001:00015ad0       ?ListenThreadE@?$CServerSockE@VCBuffer3@@@@QAEHXZ 00416ad0 f i AccountServer.obj
 0001:00015bf0       ?CreateServer@?$CDPSock@VCBuffer@@@@QAEHK@Z 00416bf0 f i AccountServer.obj
 0001:00015d30       ?CreateServer@?$CDPSock@VCBuffer3@@@@QAEHK@Z 00416d30 f i AccountServer.obj
 0001:00015e70       ?_ListenThreadE@?$CServerSockE@VCBuffer@@@@SAIPAX@Z 00416e70 f i AccountServer.obj
 0001:00015e80       ?_ListenThreadE@?$CServerSockE@VCBuffer3@@@@SAIPAX@Z 00416e80 f i AccountServer.obj
 0001:00015e90       ?StartServer@?$CServerSockE@VCBuffer@@@@QAEHPAV?$CDPSock@VCBuffer@@@@@Z 00416e90 f i AccountServer.obj
 0001:00015ef0       ?StartServer@?$CServerSockE@VCBuffer3@@@@QAEHPAV?$CDPSock@VCBuffer3@@@@@Z 00416ef0 f i AccountServer.obj
 0001:00015f50       ?CreateServerE@?$CDPSock@VCBuffer@@@@QAEHK@Z 00416f50 f i AccountServer.obj
 0001:00016070       ?CreateServerE@?$CDPSock@VCBuffer3@@@@QAEHK@Z 00417070 f i AccountServer.obj
 0001:00016190       ?CreateSession@?$CDPMng@VCBuffer@@@@QAEHPBDK@Z 00417190 f i AccountServer.obj
 0001:000161d0       ?CreateSession@?$CDPMng@VCBuffer3@@@@QAEHPBDK@Z 004171d0 f i AccountServer.obj
 0001:00016210       ?StartServer@?$CDPMng@VCBuffer@@@@QAEHGHK@Z 00417210 f i AccountServer.obj
 0001:00016250       ?StartServer@?$CDPMng@VCBuffer3@@@@QAEHGHK@Z 00417250 f i AccountServer.obj
 0001:00016290       ?InitInstance@@YAHPAUHINSTANCE__@@H@Z 00417290 f   AccountServer.obj
 0001:00016540       _WinMain@16                00417540 f   AccountServer.obj
 0001:00016600       ??5CAr@@QAEAAV0@AAK@Z      00417600 f i DBManager.obj
 0001:00016640       ??0LOG_SM_ITEM_INFO@@QAE@PBD@Z 00417640 f i DBManager.obj
 0001:000166d0       ??1CDbManager@@QAE@XZ      004176d0 f   DBManager.obj
 0001:000166f0       ?CloseDbWorkers@CDbManager@@QAEXXZ 004176f0 f   DBManager.obj
 0001:00016770       ?SetTracking@CDbManager@@QAEXH@Z 00417770 f   DBManager.obj
 0001:00016790       ?SetLogging@CDbManager@@QAEXH@Z 00417790 f   DBManager.obj
 0001:000167a0       ?DBQryAccount@CDbManager@@QAEXPAD00@Z 004177a0 f   DBManager.obj
 0001:000167c0       ?AllOff@CDbManager@@QAEHXZ 004177c0 f   DBManager.obj
 0001:000168f0       ?CharNextA@?$ChTraitsCRT@D@ATL@@SAPADPBD@Z 004178f0 f i DBManager.obj
 0001:00016900       ??0CTime@ATL@@QAE@HHHHHHH@Z 00417900 f i DBManager.obj
 0001:00016980       ??0?$allocator@PAUtagDB_OVERLAPPED_PLUS@@@std@@QAE@XZ 00417980 f i DBManager.obj
 0001:00016990       ??0?$allocator@PAUtagDB_OVERLAPPED_PLUS@@@std@@QAE@ABV01@@Z 00417990 f i DBManager.obj
 0001:000169a0       ?deallocate@?$allocator@PAUtagDB_OVERLAPPED_PLUS@@@std@@QAEXPAPAUtagDB_OVERLAPPED_PLUS@@I@Z 004179a0 f i DBManager.obj
 0001:000169b0       ??$_Destroy@U_Node@?$_List_nod@PAUtagDB_OVERLAPPED_PLUS@@V?$allocator@PAUtagDB_OVERLAPPED_PLUS@@@std@@@std@@@std@@YAXPAU_Node@?$_List_nod@PAUtagDB_OVERLAPPED_PLUS@@V?$allocator@PAUtagDB_OVERLAPPED_PLUS@@@std@@@0@@Z 004179b0 f i DBManager.obj
 0001:000169c0       ??$_Destroy@PAPAUtagDB_OVERLAPPED_PLUS@@@std@@YAXPAPAPAUtagDB_OVERLAPPED_PLUS@@@Z 004179c0 f i DBManager.obj
 0001:000169d0       ??$?0PAUtagDB_OVERLAPPED_PLUS@@@?$allocator@PAU_Node@?$_List_nod@PAUtagDB_OVERLAPPED_PLUS@@V?$allocator@PAUtagDB_OVERLAPPED_PLUS@@@std@@@std@@@std@@QAE@ABV?$allocator@PAUtagDB_OVERLAPPED_PLUS@@@1@@Z 004179d0 f i DBManager.obj
 0001:000169e0       ??$_Construct@PAU_Node@?$_List_nod@PAUtagDB_OVERLAPPED_PLUS@@V?$allocator@PAUtagDB_OVERLAPPED_PLUS@@@std@@@std@@PAU123@@std@@YAXPAPAU_Node@?$_List_nod@PAUtagDB_OVERLAPPED_PLUS@@V?$allocator@PAUtagDB_OVERLAPPED_PLUS@@@std@@@0@ABQAU120@@Z 004179e0 f i DBManager.obj
 0001:00016a00       ??$_Destroy@PAU_Node@?$_List_nod@PAUtagDB_OVERLAPPED_PLUS@@V?$allocator@PAUtagDB_OVERLAPPED_PLUS@@@std@@@std@@@std@@YAXPAPAU_Node@?$_List_nod@PAUtagDB_OVERLAPPED_PLUS@@V?$allocator@PAUtagDB_OVERLAPPED_PLUS@@@std@@@0@@Z 00417a00 f i DBManager.obj
 0001:00016a10       ??$?0PAUtagDB_OVERLAPPED_PLUS@@@?$allocator@PAPAUtagDB_OVERLAPPED_PLUS@@@std@@QAE@ABV?$allocator@PAUtagDB_OVERLAPPED_PLUS@@@1@@Z 00417a10 f i DBManager.obj
 0001:00016a20       ??$?0PAUtagDB_OVERLAPPED_PLUS@@@?$allocator@U_Node@?$_List_nod@PAUtagDB_OVERLAPPED_PLUS@@V?$allocator@PAUtagDB_OVERLAPPED_PLUS@@@std@@@std@@@std@@QAE@ABV?$allocator@PAUtagDB_OVERLAPPED_PLUS@@@1@@Z 00417a20 f i DBManager.obj
 0001:00016a30       ?GetStrTime@CDbManager@@QAEXPAVCTime@ATL@@PAD@Z 00417a30 f   DBManager.obj
 0001:00016b40       ?destroy@?$allocator@U_Node@?$_List_nod@PAUtagDB_OVERLAPPED_PLUS@@V?$allocator@PAUtagDB_OVERLAPPED_PLUS@@@std@@@std@@@std@@QAEXPAU_Node@?$_List_nod@PAUtagDB_OVERLAPPED_PLUS@@V?$allocator@PAUtagDB_OVERLAPPED_PLUS@@@std@@@2@@Z 00417b40 f i DBManager.obj
 0001:00016b50       ?destroy@?$allocator@PAPAUtagDB_OVERLAPPED_PLUS@@@std@@QAEXPAPAPAUtagDB_OVERLAPPED_PLUS@@@Z 00417b50 f i DBManager.obj
 0001:00016b60       ?construct@?$allocator@PAU_Node@?$_List_nod@PAUtagDB_OVERLAPPED_PLUS@@V?$allocator@PAUtagDB_OVERLAPPED_PLUS@@@std@@@std@@@std@@QAEXPAPAU_Node@?$_List_nod@PAUtagDB_OVERLAPPED_PLUS@@V?$allocator@PAUtagDB_OVERLAPPED_PLUS@@@std@@@2@ABQAU342@@Z 00417b60 f i DBManager.obj
 0001:00016b80       ?destroy@?$allocator@PAU_Node@?$_List_nod@PAUtagDB_OVERLAPPED_PLUS@@V?$allocator@PAUtagDB_OVERLAPPED_PLUS@@@std@@@std@@@std@@QAEXPAPAU_Node@?$_List_nod@PAUtagDB_OVERLAPPED_PLUS@@V?$allocator@PAUtagDB_OVERLAPPED_PLUS@@@std@@@2@@Z 00417b80 f i DBManager.obj
 0001:00016b90       ??0?$_Deque_map@PAUtagDB_OVERLAPPED_PLUS@@V?$allocator@PAUtagDB_OVERLAPPED_PLUS@@@std@@@std@@IAE@V?$allocator@PAUtagDB_OVERLAPPED_PLUS@@@1@@Z 00417b90 f i DBManager.obj
 0001:00016ba0       ??0?$_List_nod@PAUtagDB_OVERLAPPED_PLUS@@V?$allocator@PAUtagDB_OVERLAPPED_PLUS@@@std@@@std@@IAE@V?$allocator@PAUtagDB_OVERLAPPED_PLUS@@@1@@Z 00417ba0 f i DBManager.obj
 0001:00016bb0       ?clear@?$list@PAUtagDB_OVERLAPPED_PLUS@@V?$allocator@PAUtagDB_OVERLAPPED_PLUS@@@std@@@std@@QAEXXZ 00417bb0 f i DBManager.obj
 0001:00016bf0       ?_Tidy@?$deque@PAUtagDB_OVERLAPPED_PLUS@@V?$allocator@PAUtagDB_OVERLAPPED_PLUS@@@std@@@std@@IAEXXZ 00417bf0 f i DBManager.obj
 0001:00016c60       ?_Buynode@?$list@PAUtagDB_OVERLAPPED_PLUS@@V?$allocator@PAUtagDB_OVERLAPPED_PLUS@@@std@@@std@@IAEPAU_Node@?$_List_nod@PAUtagDB_OVERLAPPED_PLUS@@V?$allocator@PAUtagDB_OVERLAPPED_PLUS@@@std@@@2@XZ 00417c60 f i DBManager.obj
 0001:00016c80       ?_Tidy@?$list@PAUtagDB_OVERLAPPED_PLUS@@V?$allocator@PAUtagDB_OVERLAPPED_PLUS@@@std@@@std@@IAEXXZ 00417c80 f i DBManager.obj
 0001:00016ca0       ??0?$_Deque_val@PAUtagDB_OVERLAPPED_PLUS@@V?$allocator@PAUtagDB_OVERLAPPED_PLUS@@@std@@@std@@IAE@V?$allocator@PAUtagDB_OVERLAPPED_PLUS@@@1@@Z 00417ca0 f i DBManager.obj
 0001:00016cb0       ??0?$_List_ptr@PAUtagDB_OVERLAPPED_PLUS@@V?$allocator@PAUtagDB_OVERLAPPED_PLUS@@@std@@@std@@IAE@V?$allocator@PAUtagDB_OVERLAPPED_PLUS@@@1@@Z 00417cb0 f i DBManager.obj
 0001:00016cc0       ??1?$deque@PAUtagDB_OVERLAPPED_PLUS@@V?$allocator@PAUtagDB_OVERLAPPED_PLUS@@@std@@@std@@QAE@XZ 00417cc0 f i DBManager.obj
 0001:00016cd0       ??1?$list@PAUtagDB_OVERLAPPED_PLUS@@V?$allocator@PAUtagDB_OVERLAPPED_PLUS@@@std@@@std@@QAE@XZ 00417cd0 f i DBManager.obj
 0001:00016cf0       ??0?$deque@PAUtagDB_OVERLAPPED_PLUS@@V?$allocator@PAUtagDB_OVERLAPPED_PLUS@@@std@@@std@@QAE@XZ 00417cf0 f i DBManager.obj
 0001:00016d10       ??0?$_List_val@PAUtagDB_OVERLAPPED_PLUS@@V?$allocator@PAUtagDB_OVERLAPPED_PLUS@@@std@@@std@@IAE@V?$allocator@PAUtagDB_OVERLAPPED_PLUS@@@1@@Z 00417d10 f i DBManager.obj
 0001:00016d20       ?Replace@?$CStringT@DV?$StrTraitMFC@DV?$ChTraitsCRT@D@ATL@@@@@ATL@@QAEHDD@Z 00417d20 f i DBManager.obj
 0001:00016de0       ??1?$stack@PAUtagDB_OVERLAPPED_PLUS@@V?$deque@PAUtagDB_OVERLAPPED_PLUS@@V?$allocator@PAUtagDB_OVERLAPPED_PLUS@@@std@@@std@@@std@@QAE@XZ 00417de0 f i DBManager.obj
 0001:00016df0       ??0?$stack@PAUtagDB_OVERLAPPED_PLUS@@V?$deque@PAUtagDB_OVERLAPPED_PLUS@@V?$allocator@PAUtagDB_OVERLAPPED_PLUS@@@std@@@std@@@std@@QAE@XZ 00417df0 f i DBManager.obj
 0001:00016e10       ??0?$list@PAUtagDB_OVERLAPPED_PLUS@@V?$allocator@PAUtagDB_OVERLAPPED_PLUS@@@std@@@std@@QAE@XZ 00417e10 f i DBManager.obj
 0001:00016e30       ?DBQryLogSMItem@CDbManager@@QAEXPADABULOG_SM_ITEM_INFO@@@Z 00417e30 f   DBManager.obj
 0001:00016f60       ??0?$CMemPool@UtagDB_OVERLAPPED_PLUS@@@@QAE@I@Z 00417f60 f i DBManager.obj
 0001:00016ff0       ??_G?$CMemPool@UtagDB_OVERLAPPED_PLUS@@@@UAEPAXI@Z 00417ff0 f i DBManager.obj
 0001:00016ff0       ??_E?$CMemPool@UtagDB_OVERLAPPED_PLUS@@@@UAEPAXI@Z 00417ff0 f i DBManager.obj
 0001:00017010       ??1?$CMemPool@UtagDB_OVERLAPPED_PLUS@@@@UAE@XZ 00418010 f i DBManager.obj
 0001:00017100       ?Free@?$CMemPool@UtagDB_OVERLAPPED_PLUS@@@@QAEXPAUtagDB_OVERLAPPED_PLUS@@@Z 00418100 f i DBManager.obj
 0001:00017160       ??0CDbManager@@QAE@XZ      00418160 f   DBManager.obj
 0001:000171d0       ?UpdateTracking@CDbManager@@QAEXHPBD@Z 004181d0 f   DBManager.obj
 0001:00017220       ?AccountOn@CDbManager@@QAEXAAVCQuery@@PAUtagDB_OVERLAPPED_PLUS@@@Z 00418220 f   DBManager.obj
 0001:00017280       ?AccountOff@CDbManager@@QAEXAAVCQuery@@PAUtagDB_OVERLAPPED_PLUS@@@Z 00418280 f   DBManager.obj
 0001:00017330       ?LogSMItem@CDbManager@@QAEXAAVCQuery@@PAUtagDB_OVERLAPPED_PLUS@@@Z 00418330 f   DBManager.obj
 0001:00017570       ?QueryBillingInfo@CDbManager@@QAEXAAVCQuery@@PAUtagDB_OVERLAPPED_PLUS@@@Z 00418570 f   DBManager.obj
 0001:000175a0       ?PostBillingQuery@CDbManager@@QAEXPBDKH@Z 004185a0 f   DBManager.obj
 0001:00017600       ?DbWorkerThread@@YGIPAX@Z  00418600 f   DBManager.obj
 0001:000177d0       ?CreateDbWorkers@CDbManager@@QAEXXZ 004187d0 f   DBManager.obj
 0001:00017860       ??6CAr@@QAEAAV0@J@Z        00418860 f i dpdbsrvr.obj
 0001:00017880       ??5CAr@@QAEAAV0@AAJ@Z      00418880 f i dpdbsrvr.obj
 0001:000178c0       ?OnAddConnection@CDPDBSrvr@@AAEXAAVCAr@@KPAEK@Z 004188c0 f   dpdbsrvr.obj
 0001:00017910       ?OnRemoveConnection@CDPDBSrvr@@QAEXK@Z 00418910 f   dpdbsrvr.obj
 0001:00017930       ?OnRemoveAccount@CDPDBSrvr@@AAEXAAVCAr@@KPAEK@Z 00418930 f   dpdbsrvr.obj
 0001:00017970       ?OnRemoveAllAccounts@CDPDBSrvr@@AAEXAAVCAr@@KPAEK@Z 00418970 f   dpdbsrvr.obj
 0001:00017990       ?SendLogSMItem@CDPDBSrvr@@QAEXXZ 00418990 f   dpdbsrvr.obj
 0001:000179a0       ??0?$pair@$$CBKP8CDPDBSrvr@@AEXAAVCAr@@KPAEK@Z@std@@QAE@ABKABQ8CDPDBSrvr@@AEXAAVCAr@@KPAEK@Z@Z 004189a0 f i dpdbsrvr.obj
 0001:000179c0       ??0?$allocator@V?$CStringT@DV?$StrTraitMFC@DV?$ChTraitsCRT@D@ATL@@@@@ATL@@@std@@QAE@XZ 004189c0 f i dpdbsrvr.obj
 0001:000179d0       ?_Isnil@?$_Tree@V?$_Tmap_traits@KP8CDPDBSrvr@@AEXAAVCAr@@KPAEK@ZU?$less@K@std@@V?$allocator@U?$pair@$$CBKP8CDPDBSrvr@@AEXAAVCAr@@KPAEK@Z@std@@@4@$0A@@std@@@std@@KAAADPAU_Node@?$_Tree_nod@V?$_Tmap_traits@KP8CDPDBSrvr@@AEXAAVCAr@@KPAEK@ZU?$less@K@std@@V?$allocator@U?$pair@$$CBKP8CDPDBSrvr@@AEXAAVCAr@@KPAEK@Z@std@@@4@$0A@@std@@@2@@Z 004189d0 f i dpdbsrvr.obj
 0001:000179e0       ?_Left@?$_Tree@V?$_Tmap_traits@KP8CDPDBSrvr@@AEXAAVCAr@@KPAEK@ZU?$less@K@std@@V?$allocator@U?$pair@$$CBKP8CDPDBSrvr@@AEXAAVCAr@@KPAEK@Z@std@@@4@$0A@@std@@@std@@KAAAPAU_Node@?$_Tree_nod@V?$_Tmap_traits@KP8CDPDBSrvr@@AEXAAVCAr@@KPAEK@ZU?$less@K@std@@V?$allocator@U?$pair@$$CBKP8CDPDBSrvr@@AEXAAVCAr@@KPAEK@Z@std@@@4@$0A@@std@@@2@PAU342@@Z 004189e0 f i dpdbsrvr.obj
 0001:000179f0       ?_Right@?$_Tree@V?$_Tmap_traits@KP8CDPDBSrvr@@AEXAAVCAr@@KPAEK@ZU?$less@K@std@@V?$allocator@U?$pair@$$CBKP8CDPDBSrvr@@AEXAAVCAr@@KPAEK@Z@std@@@4@$0A@@std@@@std@@KAAAPAU_Node@?$_Tree_nod@V?$_Tmap_traits@KP8CDPDBSrvr@@AEXAAVCAr@@KPAEK@ZU?$less@K@std@@V?$allocator@U?$pair@$$CBKP8CDPDBSrvr@@AEXAAVCAr@@KPAEK@Z@std@@@4@$0A@@std@@@2@PAU342@@Z 004189f0 f i dpdbsrvr.obj
 0001:00017a00       ?_Kfn@?$_Tmap_traits@KP8CDPDBSrvr@@AEXAAVCAr@@KPAEK@ZU?$less@K@std@@V?$allocator@U?$pair@$$CBKP8CDPDBSrvr@@AEXAAVCAr@@KPAEK@Z@std@@@4@$0A@@std@@SAABKABU?$pair@$$CBKP8CDPDBSrvr@@AEXAAVCAr@@KPAEK@Z@2@@Z 00418a00 f i dpdbsrvr.obj
 0001:00017a10       ??0?$allocator@U?$pair@$$CBKP8CDPDBSrvr@@AEXAAVCAr@@KPAEK@Z@std@@@std@@QAE@XZ 00418a10 f i dpdbsrvr.obj
 0001:00017a20       ??8const_iterator@?$_Tree@V?$_Tmap_traits@KP8CDPDBSrvr@@AEXAAVCAr@@KPAEK@ZU?$less@K@std@@V?$allocator@U?$pair@$$CBKP8CDPDBSrvr@@AEXAAVCAr@@KPAEK@Z@std@@@4@$0A@@std@@@std@@QBE_NABV012@@Z 00418a20 f i dpdbsrvr.obj
 0001:00017a30       ?_Mynode@const_iterator@?$_Tree@V?$_Tmap_traits@KP8CDPDBSrvr@@AEXAAVCAr@@KPAEK@ZU?$less@K@std@@V?$allocator@U?$pair@$$CBKP8CDPDBSrvr@@AEXAAVCAr@@KPAEK@Z@std@@@4@$0A@@std@@@std@@QBEPAU_Node@?$_Tree_nod@V?$_Tmap_traits@KP8CDPDBSrvr@@AEXAAVCAr@@KPAEK@ZU?$less@K@std@@V?$allocator@U?$pair@$$CBKP8CDPDBSrvr@@AEXAAVCAr@@KPAEK@Z@std@@@4@$0A@@std@@@3@XZ 00418a30 f i dpdbsrvr.obj
 0001:00017a40       ??0?$pair@Viterator@?$_Tree@V?$_Tmap_traits@KP8CDPDBSrvr@@AEXAAVCAr@@KPAEK@ZU?$less@K@std@@V?$allocator@U?$pair@$$CBKP8CDPDBSrvr@@AEXAAVCAr@@KPAEK@Z@std@@@4@$0A@@std@@@std@@_N@std@@QAE@ABViterator@?$_Tree@V?$_Tmap_traits@KP8CDPDBSrvr@@AEXAAVCAr@@KPAEK@ZU?$less@K@std@@V?$allocator@U?$pair@$$CBKP8CDPDBSrvr@@AEXAAVCAr@@KPAEK@Z@std@@@4@$0A@@std@@@1@AB_N@Z 00418a40 f i dpdbsrvr.obj
 0001:00017a60       ??0?$allocator@V?$CStringT@DV?$StrTraitMFC@DV?$ChTraitsCRT@D@ATL@@@@@ATL@@@std@@QAE@ABV01@@Z 00418a60 f i dpdbsrvr.obj
 0001:00017a70       ?_Color@?$_Tree@V?$_Tmap_traits@KP8CDPDBSrvr@@AEXAAVCAr@@KPAEK@ZU?$less@K@std@@V?$allocator@U?$pair@$$CBKP8CDPDBSrvr@@AEXAAVCAr@@KPAEK@Z@std@@@4@$0A@@std@@@std@@KAAADPAU_Node@?$_Tree_nod@V?$_Tmap_traits@KP8CDPDBSrvr@@AEXAAVCAr@@KPAEK@ZU?$less@K@std@@V?$allocator@U?$pair@$$CBKP8CDPDBSrvr@@AEXAAVCAr@@KPAEK@Z@std@@@4@$0A@@std@@@2@@Z 00418a70 f i dpdbsrvr.obj
 0001:00017a80       ?_Parent@?$_Tree@V?$_Tmap_traits@KP8CDPDBSrvr@@AEXAAVCAr@@KPAEK@ZU?$less@K@std@@V?$allocator@U?$pair@$$CBKP8CDPDBSrvr@@AEXAAVCAr@@KPAEK@Z@std@@@4@$0A@@std@@@std@@KAAAPAU_Node@?$_Tree_nod@V?$_Tmap_traits@KP8CDPDBSrvr@@AEXAAVCAr@@KPAEK@ZU?$less@K@std@@V?$allocator@U?$pair@$$CBKP8CDPDBSrvr@@AEXAAVCAr@@KPAEK@Z@std@@@4@$0A@@std@@@2@PAU342@@Z 00418a80 f i dpdbsrvr.obj
 0001:00017a90       ?_Myval@?$_Tree@V?$_Tmap_traits@KP8CDPDBSrvr@@AEXAAVCAr@@KPAEK@ZU?$less@K@std@@V?$allocator@U?$pair@$$CBKP8CDPDBSrvr@@AEXAAVCAr@@KPAEK@Z@std@@@4@$0A@@std@@@std@@KAAAU?$pair@$$CBKP8CDPDBSrvr@@AEXAAVCAr@@KPAEK@Z@2@PAU_Node@?$_Tree_nod@V?$_Tmap_traits@KP8CDPDBSrvr@@AEXAAVCAr@@KPAEK@ZU?$less@K@std@@V?$allocator@U?$pair@$$CBKP8CDPDBSrvr@@AEXAAVCAr@@KPAEK@Z@std@@@4@$0A@@std@@@2@@Z 00418a90 f i dpdbsrvr.obj
 0001:00017aa0       ?_Lmost@?$_Tree@V?$_Tmap_traits@KP8CDPDBSrvr@@AEXAAVCAr@@KPAEK@ZU?$less@K@std@@V?$allocator@U?$pair@$$CBKP8CDPDBSrvr@@AEXAAVCAr@@KPAEK@Z@std@@@4@$0A@@std@@@std@@IAEAAPAU_Node@?$_Tree_nod@V?$_Tmap_traits@KP8CDPDBSrvr@@AEXAAVCAr@@KPAEK@ZU?$less@K@std@@V?$allocator@U?$pair@$$CBKP8CDPDBSrvr@@AEXAAVCAr@@KPAEK@Z@std@@@4@$0A@@std@@@2@XZ 00418aa0 f i dpdbsrvr.obj
 0001:00017ab0       ?_Rmost@?$_Tree@V?$_Tmap_traits@KP8CDPDBSrvr@@AEXAAVCAr@@KPAEK@ZU?$less@K@std@@V?$allocator@U?$pair@$$CBKP8CDPDBSrvr@@AEXAAVCAr@@KPAEK@Z@std@@@4@$0A@@std@@@std@@IAEAAPAU_Node@?$_Tree_nod@V?$_Tmap_traits@KP8CDPDBSrvr@@AEXAAVCAr@@KPAEK@ZU?$less@K@std@@V?$allocator@U?$pair@$$CBKP8CDPDBSrvr@@AEXAAVCAr@@KPAEK@Z@std@@@4@$0A@@std@@@2@XZ 00418ab0 f i dpdbsrvr.obj
 0001:00017ac0       ??0?$allocator@U?$pair@$$CBKP8CDPDBSrvr@@AEXAAVCAr@@KPAEK@Z@std@@@std@@QAE@ABV01@@Z 00418ac0 f i dpdbsrvr.obj
 0001:00017ad0       ?deallocate@?$allocator@U_Node@?$_Tree_nod@V?$_Tmap_traits@KP8CDPDBSrvr@@AEXAAVCAr@@KPAEK@ZU?$less@K@std@@V?$allocator@U?$pair@$$CBKP8CDPDBSrvr@@AEXAAVCAr@@KPAEK@Z@std@@@4@$0A@@std@@@std@@@std@@QAEXPAU_Node@?$_Tree_nod@V?$_Tmap_traits@KP8CDPDBSrvr@@AEXAAVCAr@@KPAEK@ZU?$less@K@std@@V?$allocator@U?$pair@$$CBKP8CDPDBSrvr@@AEXAAVCAr@@KPAEK@Z@std@@@4@$0A@@std@@@2@I@Z 00418ad0 f i dpdbsrvr.obj
 0001:00017ae0       ??0const_iterator@?$_Tree@V?$_Tmap_traits@KP8CDPDBSrvr@@AEXAAVCAr@@KPAEK@ZU?$less@K@std@@V?$allocator@U?$pair@$$CBKP8CDPDBSrvr@@AEXAAVCAr@@KPAEK@Z@std@@@4@$0A@@std@@@std@@QAE@PAU_Node@?$_Tree_nod@V?$_Tmap_traits@KP8CDPDBSrvr@@AEXAAVCAr@@KPAEK@ZU?$less@K@std@@V?$allocator@U?$pair@$$CBKP8CDPDBSrvr@@AEXAAVCAr@@KPAEK@Z@std@@@4@$0A@@std@@@2@@Z 00418ae0 f i dpdbsrvr.obj
 0001:00017af0       ??Dconst_iterator@?$_Tree@V?$_Tmap_traits@KP8CDPDBSrvr@@AEXAAVCAr@@KPAEK@ZU?$less@K@std@@V?$allocator@U?$pair@$$CBKP8CDPDBSrvr@@AEXAAVCAr@@KPAEK@Z@std@@@4@$0A@@std@@@std@@QBEABU?$pair@$$CBKP8CDPDBSrvr@@AEXAAVCAr@@KPAEK@Z@2@XZ 00418af0 f i dpdbsrvr.obj
 0001:00017b00       ??Dconst_iterator@?$vector@V?$CStringT@DV?$StrTraitMFC@DV?$ChTraitsCRT@D@ATL@@@@@ATL@@V?$allocator@V?$CStringT@DV?$StrTraitMFC@DV?$ChTraitsCRT@D@ATL@@@@@ATL@@@std@@@std@@QBEABV?$CStringT@DV?$StrTraitMFC@DV?$ChTraitsCRT@D@ATL@@@@@ATL@@XZ 00418b00 f i dpdbsrvr.obj
 0001:00017b10       ?_Root@?$_Tree@V?$_Tmap_traits@KP8CDPDBSrvr@@AEXAAVCAr@@KPAEK@ZU?$less@K@std@@V?$allocator@U?$pair@$$CBKP8CDPDBSrvr@@AEXAAVCAr@@KPAEK@Z@std@@@4@$0A@@std@@@std@@IBEAAPAU_Node@?$_Tree_nod@V?$_Tmap_traits@KP8CDPDBSrvr@@AEXAAVCAr@@KPAEK@ZU?$less@K@std@@V?$allocator@U?$pair@$$CBKP8CDPDBSrvr@@AEXAAVCAr@@KPAEK@Z@std@@@4@$0A@@std@@@2@XZ 00418b10 f i dpdbsrvr.obj
 0001:00017b20       ?max_size@?$allocator@U?$pair@$$CBKP8CDPDBSrvr@@AEXAAVCAr@@KPAEK@Z@std@@@std@@QBEIXZ 00418b20 f i dpdbsrvr.obj
 0001:00017b30       ??0_Node@?$_Tree_nod@V?$_Tmap_traits@KP8CDPDBSrvr@@AEXAAVCAr@@KPAEK@ZU?$less@K@std@@V?$allocator@U?$pair@$$CBKP8CDPDBSrvr@@AEXAAVCAr@@KPAEK@Z@std@@@4@$0A@@std@@@std@@QAE@PAU012@00ABU?$pair@$$CBKP8CDPDBSrvr@@AEXAAVCAr@@KPAEK@Z@2@D@Z 00418b30 f i dpdbsrvr.obj
 0001:00017b70       ?_Max@?$_Tree@V?$_Tmap_traits@KP8CDPDBSrvr@@AEXAAVCAr@@KPAEK@ZU?$less@K@std@@V?$allocator@U?$pair@$$CBKP8CDPDBSrvr@@AEXAAVCAr@@KPAEK@Z@std@@@4@$0A@@std@@@std@@KAPAU_Node@?$_Tree_nod@V?$_Tmap_traits@KP8CDPDBSrvr@@AEXAAVCAr@@KPAEK@ZU?$less@K@std@@V?$allocator@U?$pair@$$CBKP8CDPDBSrvr@@AEXAAVCAr@@KPAEK@Z@std@@@4@$0A@@std@@@2@PAU342@@Z 00418b70 f i dpdbsrvr.obj
 0001:00017b90       ?_Min@?$_Tree@V?$_Tmap_traits@KP8CDPDBSrvr@@AEXAAVCAr@@KPAEK@ZU?$less@K@std@@V?$allocator@U?$pair@$$CBKP8CDPDBSrvr@@AEXAAVCAr@@KPAEK@Z@std@@@4@$0A@@std@@@std@@KAPAU_Node@?$_Tree_nod@V?$_Tmap_traits@KP8CDPDBSrvr@@AEXAAVCAr@@KPAEK@ZU?$less@K@std@@V?$allocator@U?$pair@$$CBKP8CDPDBSrvr@@AEXAAVCAr@@KPAEK@Z@std@@@4@$0A@@std@@@2@PAU342@@Z 00418b90 f i dpdbsrvr.obj
 0001:00017bb0       ??0?$_Tmap_traits@KP8CDPDBSrvr@@AEXAAVCAr@@KPAEK@ZU?$less@K@std@@V?$allocator@U?$pair@$$CBKP8CDPDBSrvr@@AEXAAVCAr@@KPAEK@Z@std@@@4@$0A@@std@@QAE@U?$less@K@1@@Z 00418bb0 f i dpdbsrvr.obj
 0001:00017bc0       ?_Inc@const_iterator@?$_Tree@V?$_Tmap_traits@KP8CDPDBSrvr@@AEXAAVCAr@@KPAEK@ZU?$less@K@std@@V?$allocator@U?$pair@$$CBKP8CDPDBSrvr@@AEXAAVCAr@@KPAEK@Z@std@@@4@$0A@@std@@@std@@QAEXXZ 00418bc0 f i dpdbsrvr.obj
 0001:00017c20       ??0?$CDPMng@VCBuffer@@@@QAE@XZ 00418c20 f i dpdbsrvr.obj
 0001:00017c40       ??1?$CDPMng@VCBuffer@@@@UAE@XZ 00418c40 f i dpdbsrvr.obj
 0001:00017c50       ??$_Destroy@PAU_Node@?$_Tree_nod@V?$_Tmap_traits@KP8CDPDBSrvr@@AEXAAVCAr@@KPAEK@ZU?$less@K@std@@V?$allocator@U?$pair@$$CBKP8CDPDBSrvr@@AEXAAVCAr@@KPAEK@Z@std@@@4@$0A@@std@@@std@@@std@@YAXPAPAU_Node@?$_Tree_nod@V?$_Tmap_traits@KP8CDPDBSrvr@@AEXAAVCAr@@KPAEK@ZU?$less@K@std@@V?$allocator@U?$pair@$$CBKP8CDPDBSrvr@@AEXAAVCAr@@KPAEK@Z@std@@@4@$0A@@std@@@0@@Z 00418c50 f i dpdbsrvr.obj
 0001:00017c60       ??$?0U?$pair@$$CBKP8CDPDBSrvr@@AEXAAVCAr@@KPAEK@Z@std@@@?$allocator@PAU_Node@?$_Tree_nod@V?$_Tmap_traits@KP8CDPDBSrvr@@AEXAAVCAr@@KPAEK@ZU?$less@K@std@@V?$allocator@U?$pair@$$CBKP8CDPDBSrvr@@AEXAAVCAr@@KPAEK@Z@std@@@4@$0A@@std@@@std@@@std@@QAE@ABV?$allocator@U?$pair@$$CBKP8CDPDBSrvr@@AEXAAVCAr@@KPAEK@Z@std@@@1@@Z 00418c60 f i dpdbsrvr.obj
 0001:00017c70       ??$_Allocate@U_Node@?$_Tree_nod@V?$_Tmap_traits@KP8CDPDBSrvr@@AEXAAVCAr@@KPAEK@ZU?$less@K@std@@V?$allocator@U?$pair@$$CBKP8CDPDBSrvr@@AEXAAVCAr@@KPAEK@Z@std@@@4@$0A@@std@@@std@@@std@@YAPAU_Node@?$_Tree_nod@V?$_Tmap_traits@KP8CDPDBSrvr@@AEXAAVCAr@@KPAEK@ZU?$less@K@std@@V?$allocator@U?$pair@$$CBKP8CDPDBSrvr@@AEXAAVCAr@@KPAEK@Z@std@@@4@$0A@@std@@@0@IPAU120@@Z 00418c70 f i dpdbsrvr.obj
 0001:00017c90       ??$?0U?$pair@$$CBKP8CDPDBSrvr@@AEXAAVCAr@@KPAEK@Z@std@@@?$allocator@U_Node@?$_Tree_nod@V?$_Tmap_traits@KP8CDPDBSrvr@@AEXAAVCAr@@KPAEK@ZU?$less@K@std@@V?$allocator@U?$pair@$$CBKP8CDPDBSrvr@@AEXAAVCAr@@KPAEK@Z@std@@@4@$0A@@std@@@std@@@std@@QAE@ABV?$allocator@U?$pair@$$CBKP8CDPDBSrvr@@AEXAAVCAr@@KPAEK@Z@std@@@1@@Z 00418c90 f i dpdbsrvr.obj
 0001:00017ca0       ??$_Destroy@U_Node@?$_Tree_nod@V?$_Tmap_traits@KP8CDPDBSrvr@@AEXAAVCAr@@KPAEK@ZU?$less@K@std@@V?$allocator@U?$pair@$$CBKP8CDPDBSrvr@@AEXAAVCAr@@KPAEK@Z@std@@@4@$0A@@std@@@std@@@std@@YAXPAU_Node@?$_Tree_nod@V?$_Tmap_traits@KP8CDPDBSrvr@@AEXAAVCAr@@KPAEK@ZU?$less@K@std@@V?$allocator@U?$pair@$$CBKP8CDPDBSrvr@@AEXAAVCAr@@KPAEK@Z@std@@@4@$0A@@std@@@0@@Z 00418ca0 f i dpdbsrvr.obj
 0001:00017cb0       ??$_Construct@PAU_Node@?$_Tree_nod@V?$_Tmap_traits@KP8CDPDBSrvr@@AEXAAVCAr@@KPAEK@ZU?$less@K@std@@V?$allocator@U?$pair@$$CBKP8CDPDBSrvr@@AEXAAVCAr@@KPAEK@Z@std@@@4@$0A@@std@@@std@@PAU123@@std@@YAXPAPAU_Node@?$_Tree_nod@V?$_Tmap_traits@KP8CDPDBSrvr@@AEXAAVCAr@@KPAEK@ZU?$less@K@std@@V?$allocator@U?$pair@$$CBKP8CDPDBSrvr@@AEXAAVCAr@@KPAEK@Z@std@@@4@$0A@@std@@@0@ABQAU120@@Z 00418cb0 f i dpdbsrvr.obj
 0001:00017cd0       ??_E?$CDPMng@VCBuffer@@@@UAEPAXI@Z 00418cd0 f i dpdbsrvr.obj
 0001:00017cd0       ??_G?$CDPMng@VCBuffer@@@@UAEPAXI@Z 00418cd0 f i dpdbsrvr.obj
 0001:00017cf0       ?Send@?$CDPSock@VCBuffer@@@@QAEHPADKK@Z 00418cf0 f i dpdbsrvr.obj
 0001:00017d20       ?find@?$char_traits@D@std@@SAPBDPBDIABD@Z 00418d20 f i dpdbsrvr.obj
 0001:00017d40       ??6CAr@@QAEAAV0@H@Z        00418d40 f i dpdbsrvr.obj
 0001:00017d60       ??5CAr@@QAEAAV0@AAI@Z      00418d60 f i dpdbsrvr.obj
 0001:00017da0       ?SysMessageHandler@CDPDBSrvr@@UAEXPAUDPMSG_GENERIC@@KK@Z 00418da0 f   dpdbsrvr.obj
 0001:00017dc0       ??9const_iterator@?$_Tree@V?$_Tmap_traits@KP8CDPDBSrvr@@AEXAAVCAr@@KPAEK@ZU?$less@K@std@@V?$allocator@U?$pair@$$CBKP8CDPDBSrvr@@AEXAAVCAr@@KPAEK@Z@std@@@4@$0A@@std@@@std@@QBE_NABV012@@Z 00418dc0 f i dpdbsrvr.obj
 0001:00017de0       ?find@?$basic_string@DU?$char_traits@D@std@@V?$allocator@D@2@@std@@QBEIPBDII@Z 00418de0 f i dpdbsrvr.obj
 0001:00017eb0       ??0?$_Vector_val@V?$CStringT@DV?$StrTraitMFC@DV?$ChTraitsCRT@D@ATL@@@@@ATL@@V?$allocator@V?$CStringT@DV?$StrTraitMFC@DV?$ChTraitsCRT@D@ATL@@@@@ATL@@@std@@@std@@IAE@V?$allocator@V?$CStringT@DV?$StrTraitMFC@DV?$ChTraitsCRT@D@ATL@@@@@ATL@@@1@@Z 00418eb0 f i dpdbsrvr.obj
 0001:00017ec0       ?_Key@?$_Tree@V?$_Tmap_traits@KP8CDPDBSrvr@@AEXAAVCAr@@KPAEK@ZU?$less@K@std@@V?$allocator@U?$pair@$$CBKP8CDPDBSrvr@@AEXAAVCAr@@KPAEK@Z@std@@@4@$0A@@std@@@std@@KAABKPAU_Node@?$_Tree_nod@V?$_Tmap_traits@KP8CDPDBSrvr@@AEXAAVCAr@@KPAEK@ZU?$less@K@std@@V?$allocator@U?$pair@$$CBKP8CDPDBSrvr@@AEXAAVCAr@@KPAEK@Z@std@@@4@$0A@@std@@@2@@Z 00418ec0 f i dpdbsrvr.obj
 0001:00017ed0       ?_Root@?$_Tree@V?$_Tmap_traits@KP8CDPDBSrvr@@AEXAAVCAr@@KPAEK@ZU?$less@K@std@@V?$allocator@U?$pair@$$CBKP8CDPDBSrvr@@AEXAAVCAr@@KPAEK@Z@std@@@4@$0A@@std@@@std@@IAEAAPAU_Node@?$_Tree_nod@V?$_Tmap_traits@KP8CDPDBSrvr@@AEXAAVCAr@@KPAEK@ZU?$less@K@std@@V?$allocator@U?$pair@$$CBKP8CDPDBSrvr@@AEXAAVCAr@@KPAEK@Z@std@@@4@$0A@@std@@@2@XZ 00418ed0 f i dpdbsrvr.obj
 0001:00017ee0       ??0iterator@?$_Tree@V?$_Tmap_traits@KP8CDPDBSrvr@@AEXAAVCAr@@KPAEK@ZU?$less@K@std@@V?$allocator@U?$pair@$$CBKP8CDPDBSrvr@@AEXAAVCAr@@KPAEK@Z@std@@@4@$0A@@std@@@std@@QAE@PAU_Node@?$_Tree_nod@V?$_Tmap_traits@KP8CDPDBSrvr@@AEXAAVCAr@@KPAEK@ZU?$less@K@std@@V?$allocator@U?$pair@$$CBKP8CDPDBSrvr@@AEXAAVCAr@@KPAEK@Z@std@@@4@$0A@@std@@@2@@Z 00418ee0 f i dpdbsrvr.obj
 0001:00017ef0       ??Diterator@?$_Tree@V?$_Tmap_traits@KP8CDPDBSrvr@@AEXAAVCAr@@KPAEK@ZU?$less@K@std@@V?$allocator@U?$pair@$$CBKP8CDPDBSrvr@@AEXAAVCAr@@KPAEK@Z@std@@@4@$0A@@std@@@std@@QBEAAU?$pair@$$CBKP8CDPDBSrvr@@AEXAAVCAr@@KPAEK@Z@2@XZ 00418ef0 f i dpdbsrvr.obj
 0001:00017f00       ??Diterator@?$vector@V?$CStringT@DV?$StrTraitMFC@DV?$ChTraitsCRT@D@ATL@@@@@ATL@@V?$allocator@V?$CStringT@DV?$StrTraitMFC@DV?$ChTraitsCRT@D@ATL@@@@@ATL@@@std@@@std@@QBEAAV?$CStringT@DV?$StrTraitMFC@DV?$ChTraitsCRT@D@ATL@@@@@ATL@@XZ 00418f00 f i dpdbsrvr.obj
 0001:00017f10       ?max_size@?$_Tree@V?$_Tmap_traits@KP8CDPDBSrvr@@AEXAAVCAr@@KPAEK@ZU?$less@K@std@@V?$allocator@U?$pair@$$CBKP8CDPDBSrvr@@AEXAAVCAr@@KPAEK@Z@std@@@4@$0A@@std@@@std@@QBEIXZ 00418f10 f i dpdbsrvr.obj
 0001:00017f20       ?_Lbound@?$_Tree@V?$_Tmap_traits@KP8CDPDBSrvr@@AEXAAVCAr@@KPAEK@ZU?$less@K@std@@V?$allocator@U?$pair@$$CBKP8CDPDBSrvr@@AEXAAVCAr@@KPAEK@Z@std@@@4@$0A@@std@@@std@@IBEPAU_Node@?$_Tree_nod@V?$_Tmap_traits@KP8CDPDBSrvr@@AEXAAVCAr@@KPAEK@ZU?$less@K@std@@V?$allocator@U?$pair@$$CBKP8CDPDBSrvr@@AEXAAVCAr@@KPAEK@Z@std@@@4@$0A@@std@@@2@ABK@Z 00418f20 f i dpdbsrvr.obj
 0001:00017f50       ?_Lrotate@?$_Tree@V?$_Tmap_traits@KP8CDPDBSrvr@@AEXAAVCAr@@KPAEK@ZU?$less@K@std@@V?$allocator@U?$pair@$$CBKP8CDPDBSrvr@@AEXAAVCAr@@KPAEK@Z@std@@@4@$0A@@std@@@std@@IAEXPAU_Node@?$_Tree_nod@V?$_Tmap_traits@KP8CDPDBSrvr@@AEXAAVCAr@@KPAEK@ZU?$less@K@std@@V?$allocator@U?$pair@$$CBKP8CDPDBSrvr@@AEXAAVCAr@@KPAEK@Z@std@@@4@$0A@@std@@@2@@Z 00418f50 f i dpdbsrvr.obj
 0001:00017fb0       ?_Rrotate@?$_Tree@V?$_Tmap_traits@KP8CDPDBSrvr@@AEXAAVCAr@@KPAEK@ZU?$less@K@std@@V?$allocator@U?$pair@$$CBKP8CDPDBSrvr@@AEXAAVCAr@@KPAEK@Z@std@@@4@$0A@@std@@@std@@IAEXPAU_Node@?$_Tree_nod@V?$_Tmap_traits@KP8CDPDBSrvr@@AEXAAVCAr@@KPAEK@ZU?$less@K@std@@V?$allocator@U?$pair@$$CBKP8CDPDBSrvr@@AEXAAVCAr@@KPAEK@Z@std@@@4@$0A@@std@@@2@@Z 00418fb0 f i dpdbsrvr.obj
 0001:00018010       ?destroy@?$allocator@PAU_Node@?$_Tree_nod@V?$_Tmap_traits@KP8CDPDBSrvr@@AEXAAVCAr@@KPAEK@ZU?$less@K@std@@V?$allocator@U?$pair@$$CBKP8CDPDBSrvr@@AEXAAVCAr@@KPAEK@Z@std@@@4@$0A@@std@@@std@@@std@@QAEXPAPAU_Node@?$_Tree_nod@V?$_Tmap_traits@KP8CDPDBSrvr@@AEXAAVCAr@@KPAEK@ZU?$less@K@std@@V?$allocator@U?$pair@$$CBKP8CDPDBSrvr@@AEXAAVCAr@@KPAEK@Z@std@@@4@$0A@@std@@@2@@Z 00419010 f i dpdbsrvr.obj
 0001:00018020       ?allocate@?$allocator@U_Node@?$_Tree_nod@V?$_Tmap_traits@KP8CDPDBSrvr@@AEXAAVCAr@@KPAEK@ZU?$less@K@std@@V?$allocator@U?$pair@$$CBKP8CDPDBSrvr@@AEXAAVCAr@@KPAEK@Z@std@@@4@$0A@@std@@@std@@@std@@QAEPAU_Node@?$_Tree_nod@V?$_Tmap_traits@KP8CDPDBSrvr@@AEXAAVCAr@@KPAEK@ZU?$less@K@std@@V?$allocator@U?$pair@$$CBKP8CDPDBSrvr@@AEXAAVCAr@@KPAEK@Z@std@@@4@$0A@@std@@@2@I@Z 00419020 f i dpdbsrvr.obj
 0001:00018040       ?_Dec@const_iterator@?$_Tree@V?$_Tmap_traits@KP8CDPDBSrvr@@AEXAAVCAr@@KPAEK@ZU?$less@K@std@@V?$allocator@U?$pair@$$CBKP8CDPDBSrvr@@AEXAAVCAr@@KPAEK@Z@std@@@4@$0A@@std@@@std@@QAEXXZ 00419040 f i dpdbsrvr.obj
 0001:000180a0       ??0?$_Tree_nod@V?$_Tmap_traits@KP8CDPDBSrvr@@AEXAAVCAr@@KPAEK@ZU?$less@K@std@@V?$allocator@U?$pair@$$CBKP8CDPDBSrvr@@AEXAAVCAr@@KPAEK@Z@std@@@4@$0A@@std@@@std@@IAE@ABU?$less@K@1@V?$allocator@U?$pair@$$CBKP8CDPDBSrvr@@AEXAAVCAr@@KPAEK@Z@std@@@1@@Z 004190a0 f i dpdbsrvr.obj
 0001:000180b0       ?destroy@?$allocator@U_Node@?$_Tree_nod@V?$_Tmap_traits@KP8CDPDBSrvr@@AEXAAVCAr@@KPAEK@ZU?$less@K@std@@V?$allocator@U?$pair@$$CBKP8CDPDBSrvr@@AEXAAVCAr@@KPAEK@Z@std@@@4@$0A@@std@@@std@@@std@@QAEXPAU_Node@?$_Tree_nod@V?$_Tmap_traits@KP8CDPDBSrvr@@AEXAAVCAr@@KPAEK@ZU?$less@K@std@@V?$allocator@U?$pair@$$CBKP8CDPDBSrvr@@AEXAAVCAr@@KPAEK@Z@std@@@4@$0A@@std@@@2@@Z 004190b0 f i dpdbsrvr.obj
 0001:000180c0       ?construct@?$allocator@PAU_Node@?$_Tree_nod@V?$_Tmap_traits@KP8CDPDBSrvr@@AEXAAVCAr@@KPAEK@ZU?$less@K@std@@V?$allocator@U?$pair@$$CBKP8CDPDBSrvr@@AEXAAVCAr@@KPAEK@Z@std@@@4@$0A@@std@@@std@@@std@@QAEXPAPAU_Node@?$_Tree_nod@V?$_Tmap_traits@KP8CDPDBSrvr@@AEXAAVCAr@@KPAEK@ZU?$less@K@std@@V?$allocator@U?$pair@$$CBKP8CDPDBSrvr@@AEXAAVCAr@@KPAEK@Z@std@@@4@$0A@@std@@@2@ABQAU342@@Z 004190c0 f i dpdbsrvr.obj
 0001:000180e0       ??Econst_iterator@?$_Tree@V?$_Tmap_traits@KP8CDPDBSrvr@@AEXAAVCAr@@KPAEK@ZU?$less@K@std@@V?$allocator@U?$pair@$$CBKP8CDPDBSrvr@@AEXAAVCAr@@KPAEK@Z@std@@@4@$0A@@std@@@std@@QAEAAV012@XZ 004190e0 f i dpdbsrvr.obj
 0001:000180f0       ?Send@?$CDPMng@VCBuffer@@@@QAEHPAXKK@Z 004190f0 f i dpdbsrvr.obj
 0001:00018130       ?OnRemovePlayer@CDPDBSrvr@@AAEXAAVCAr@@KPAEK@Z 00419130 f   dpdbsrvr.obj
 0001:000182c0       ?SendCloseExistingConnection@CDPDBSrvr@@QAEXPBDJ@Z 004192c0 f   dpdbsrvr.obj
 0001:000183a0       ?SendFail@CDPDBSrvr@@QAEXJPBDK@Z 004193a0 f   dpdbsrvr.obj
 0001:000184b0       ?SendOneHourNotify@CDPDBSrvr@@QAEXPAVCAccount@@@Z 004194b0 f   dpdbsrvr.obj
 0001:00018590       ?SendBuyingInfo@CDPDBSrvr@@QAEXPAU_BUYING_INFO2@@@Z 00419590 f   dpdbsrvr.obj
 0001:00018680       ?find@?$basic_string@DU?$char_traits@D@std@@V?$allocator@D@2@@std@@QBEIPBDI@Z 00419680 f i dpdbsrvr.obj
 0001:000186b0       ?end@?$_Tree@V?$_Tmap_traits@KP8CDPDBSrvr@@AEXAAVCAr@@KPAEK@ZU?$less@K@std@@V?$allocator@U?$pair@$$CBKP8CDPDBSrvr@@AEXAAVCAr@@KPAEK@Z@std@@@4@$0A@@std@@@std@@QAE?AViterator@12@XZ 004196b0 f i dpdbsrvr.obj
 0001:000186c0       ??Citerator@?$_Tree@V?$_Tmap_traits@KP8CDPDBSrvr@@AEXAAVCAr@@KPAEK@ZU?$less@K@std@@V?$allocator@U?$pair@$$CBKP8CDPDBSrvr@@AEXAAVCAr@@KPAEK@Z@std@@@4@$0A@@std@@@std@@QBEPAU?$pair@$$CBKP8CDPDBSrvr@@AEXAAVCAr@@KPAEK@Z@2@XZ 004196c0 f i dpdbsrvr.obj
 0001:000186d0       ?begin@?$_Tree@V?$_Tmap_traits@KP8CDPDBSrvr@@AEXAAVCAr@@KPAEK@ZU?$less@K@std@@V?$allocator@U?$pair@$$CBKP8CDPDBSrvr@@AEXAAVCAr@@KPAEK@Z@std@@@4@$0A@@std@@@std@@QAE?AViterator@12@XZ 004196d0 f i dpdbsrvr.obj
 0001:000186e0       ?lower_bound@?$_Tree@V?$_Tmap_traits@KP8CDPDBSrvr@@AEXAAVCAr@@KPAEK@ZU?$less@K@std@@V?$allocator@U?$pair@$$CBKP8CDPDBSrvr@@AEXAAVCAr@@KPAEK@Z@std@@@4@$0A@@std@@@std@@QAE?AViterator@12@ABK@Z 004196e0 f i dpdbsrvr.obj
 0001:00018720       ?_Buynode@?$_Tree@V?$_Tmap_traits@KP8CDPDBSrvr@@AEXAAVCAr@@KPAEK@ZU?$less@K@std@@V?$allocator@U?$pair@$$CBKP8CDPDBSrvr@@AEXAAVCAr@@KPAEK@Z@std@@@4@$0A@@std@@@std@@IAEPAU_Node@?$_Tree_nod@V?$_Tmap_traits@KP8CDPDBSrvr@@AEXAAVCAr@@KPAEK@ZU?$less@K@std@@V?$allocator@U?$pair@$$CBKP8CDPDBSrvr@@AEXAAVCAr@@KPAEK@Z@std@@@4@$0A@@std@@@2@PAU342@00ABU?$pair@$$CBKP8CDPDBSrvr@@AEXAAVCAr@@KPAEK@Z@2@D@Z 00419720 f i dpdbsrvr.obj
 0001:00018760       ??Fconst_iterator@?$_Tree@V?$_Tmap_traits@KP8CDPDBSrvr@@AEXAAVCAr@@KPAEK@ZU?$less@K@std@@V?$allocator@U?$pair@$$CBKP8CDPDBSrvr@@AEXAAVCAr@@KPAEK@Z@std@@@4@$0A@@std@@@std@@QAEAAV012@XZ 00419760 f i dpdbsrvr.obj
 0001:00018770       ?_Buynode@?$_Tree@V?$_Tmap_traits@KP8CDPDBSrvr@@AEXAAVCAr@@KPAEK@ZU?$less@K@std@@V?$allocator@U?$pair@$$CBKP8CDPDBSrvr@@AEXAAVCAr@@KPAEK@Z@std@@@4@$0A@@std@@@std@@IAEPAU_Node@?$_Tree_nod@V?$_Tmap_traits@KP8CDPDBSrvr@@AEXAAVCAr@@KPAEK@ZU?$less@K@std@@V?$allocator@U?$pair@$$CBKP8CDPDBSrvr@@AEXAAVCAr@@KPAEK@Z@std@@@4@$0A@@std@@@2@XZ 00419770 f i dpdbsrvr.obj
 0001:000187b0       ??0?$_Tree_ptr@V?$_Tmap_traits@KP8CDPDBSrvr@@AEXAAVCAr@@KPAEK@ZU?$less@K@std@@V?$allocator@U?$pair@$$CBKP8CDPDBSrvr@@AEXAAVCAr@@KPAEK@Z@std@@@4@$0A@@std@@@std@@IAE@ABU?$less@K@1@V?$allocator@U?$pair@$$CBKP8CDPDBSrvr@@AEXAAVCAr@@KPAEK@Z@std@@@1@@Z 004197b0 f i dpdbsrvr.obj
 0001:000187c0       ?_Erase@?$_Tree@V?$_Tmap_traits@KP8CDPDBSrvr@@AEXAAVCAr@@KPAEK@ZU?$less@K@std@@V?$allocator@U?$pair@$$CBKP8CDPDBSrvr@@AEXAAVCAr@@KPAEK@Z@std@@@4@$0A@@std@@@std@@IAEXPAU_Node@?$_Tree_nod@V?$_Tmap_traits@KP8CDPDBSrvr@@AEXAAVCAr@@KPAEK@ZU?$less@K@std@@V?$allocator@U?$pair@$$CBKP8CDPDBSrvr@@AEXAAVCAr@@KPAEK@Z@std@@@4@$0A@@std@@@2@@Z 004197c0 f i dpdbsrvr.obj
 0001:00018800       ??Eiterator@?$_Tree@V?$_Tmap_traits@KP8CDPDBSrvr@@AEXAAVCAr@@KPAEK@ZU?$less@K@std@@V?$allocator@U?$pair@$$CBKP8CDPDBSrvr@@AEXAAVCAr@@KPAEK@Z@std@@@4@$0A@@std@@@std@@QAEAAV012@XZ 00419800 f i dpdbsrvr.obj
 0001:00018810       ??A?$vector@V?$CStringT@DV?$StrTraitMFC@DV?$ChTraitsCRT@D@ATL@@@@@ATL@@V?$allocator@V?$CStringT@DV?$StrTraitMFC@DV?$ChTraitsCRT@D@ATL@@@@@ATL@@@std@@@std@@QAEAAV?$CStringT@DV?$StrTraitMFC@DV?$ChTraitsCRT@D@ATL@@@@@ATL@@I@Z 00419810 f i dpdbsrvr.obj
 0001:00018820       ?find@?$_Tree@V?$_Tmap_traits@KP8CDPDBSrvr@@AEXAAVCAr@@KPAEK@ZU?$less@K@std@@V?$allocator@U?$pair@$$CBKP8CDPDBSrvr@@AEXAAVCAr@@KPAEK@Z@std@@@4@$0A@@std@@@std@@QAE?AViterator@12@ABK@Z 00419820 f i dpdbsrvr.obj
 0001:00018890       ??Fiterator@?$_Tree@V?$_Tmap_traits@KP8CDPDBSrvr@@AEXAAVCAr@@KPAEK@ZU?$less@K@std@@V?$allocator@U?$pair@$$CBKP8CDPDBSrvr@@AEXAAVCAr@@KPAEK@Z@std@@@4@$0A@@std@@@std@@QAEAAV012@XZ 00419890 f i dpdbsrvr.obj
 0001:000188a0       ?_Init@?$_Tree@V?$_Tmap_traits@KP8CDPDBSrvr@@AEXAAVCAr@@KPAEK@ZU?$less@K@std@@V?$allocator@U?$pair@$$CBKP8CDPDBSrvr@@AEXAAVCAr@@KPAEK@Z@std@@@4@$0A@@std@@@std@@IAEXXZ 004198a0 f i dpdbsrvr.obj
 0001:000188d0       ??0?$_Tree_val@V?$_Tmap_traits@KP8CDPDBSrvr@@AEXAAVCAr@@KPAEK@ZU?$less@K@std@@V?$allocator@U?$pair@$$CBKP8CDPDBSrvr@@AEXAAVCAr@@KPAEK@Z@std@@@4@$0A@@std@@@std@@IAE@ABU?$less@K@1@V?$allocator@U?$pair@$$CBKP8CDPDBSrvr@@AEXAAVCAr@@KPAEK@Z@std@@@1@@Z 004198d0 f i dpdbsrvr.obj
 0001:000188e0       ?clear@?$_Tree@V?$_Tmap_traits@KP8CDPDBSrvr@@AEXAAVCAr@@KPAEK@ZU?$less@K@std@@V?$allocator@U?$pair@$$CBKP8CDPDBSrvr@@AEXAAVCAr@@KPAEK@Z@std@@@4@$0A@@std@@@std@@QAEXXZ 004198e0 f i dpdbsrvr.obj
 0001:00018910       ??Eiterator@?$_Tree@V?$_Tmap_traits@KP8CDPDBSrvr@@AEXAAVCAr@@KPAEK@ZU?$less@K@std@@V?$allocator@U?$pair@$$CBKP8CDPDBSrvr@@AEXAAVCAr@@KPAEK@Z@std@@@4@$0A@@std@@@std@@QAE?AV012@H@Z 00419910 f i dpdbsrvr.obj
 0001:00018930       ?GetHandler@CDPDBSrvr@@AAEP81@AEXAAVCAr@@KPAEK@ZK@Z 00419930 f i dpdbsrvr.obj
 0001:00018960       ?UserMessageHandler@CDPDBSrvr@@UAEXPAUDPMSG_GENERIC@@KK@Z 00419960 f   dpdbsrvr.obj
 0001:00018a50       ??0?$_Tree@V?$_Tmap_traits@KP8CDPDBSrvr@@AEXAAVCAr@@KPAEK@ZU?$less@K@std@@V?$allocator@U?$pair@$$CBKP8CDPDBSrvr@@AEXAAVCAr@@KPAEK@Z@std@@@4@$0A@@std@@@std@@QAE@ABU?$less@K@1@ABV?$allocator@U?$pair@$$CBKP8CDPDBSrvr@@AEXAAVCAr@@KPAEK@Z@std@@@1@@Z 00419a50 f i dpdbsrvr.obj
 0001:00018a80       ?OnGetPlayerList@CDPDBSrvr@@AAEXAAVCAr@@KPAEK@Z 00419a80 f   dpdbsrvr.obj
 0001:00018c10       ?OnJoin@CDPDBSrvr@@AAEXAAVCAr@@KPAEK@Z 00419c10 f   dpdbsrvr.obj
 0001:00018d70       ?_Insert@?$_Tree@V?$_Tmap_traits@KP8CDPDBSrvr@@AEXAAVCAr@@KPAEK@ZU?$less@K@std@@V?$allocator@U?$pair@$$CBKP8CDPDBSrvr@@AEXAAVCAr@@KPAEK@Z@std@@@4@$0A@@std@@@std@@IAE?AViterator@12@_NPAU_Node@?$_Tree_nod@V?$_Tmap_traits@KP8CDPDBSrvr@@AEXAAVCAr@@KPAEK@ZU?$less@K@std@@V?$allocator@U?$pair@$$CBKP8CDPDBSrvr@@AEXAAVCAr@@KPAEK@Z@std@@@4@$0A@@std@@@2@ABU?$pair@$$CBKP8CDPDBSrvr@@AEXAAVCAr@@KPAEK@Z@2@@Z 00419d70 f i dpdbsrvr.obj
 0001:00018f20       ?erase@?$_Tree@V?$_Tmap_traits@KP8CDPDBSrvr@@AEXAAVCAr@@KPAEK@ZU?$less@K@std@@V?$allocator@U?$pair@$$CBKP8CDPDBSrvr@@AEXAAVCAr@@KPAEK@Z@std@@@4@$0A@@std@@@std@@QAE?AViterator@12@V312@@Z 00419f20 f i dpdbsrvr.obj
 0001:000191e0       ?insert@?$_Tree@V?$_Tmap_traits@KP8CDPDBSrvr@@AEXAAVCAr@@KPAEK@ZU?$less@K@std@@V?$allocator@U?$pair@$$CBKP8CDPDBSrvr@@AEXAAVCAr@@KPAEK@Z@std@@@4@$0A@@std@@@std@@QAE?AU?$pair@Viterator@?$_Tree@V?$_Tmap_traits@KP8CDPDBSrvr@@AEXAAVCAr@@KPAEK@ZU?$less@K@std@@V?$allocator@U?$pair@$$CBKP8CDPDBSrvr@@AEXAAVCAr@@KPAEK@Z@std@@@4@$0A@@std@@@std@@_N@2@ABU?$pair@$$CBKP8CDPDBSrvr@@AEXAAVCAr@@KPAEK@Z@2@@Z 0041a1e0 f i dpdbsrvr.obj
 0001:000192a0       ?_Buy@?$vector@V?$CStringT@DV?$StrTraitMFC@DV?$ChTraitsCRT@D@ATL@@@@@ATL@@V?$allocator@V?$CStringT@DV?$StrTraitMFC@DV?$ChTraitsCRT@D@ATL@@@@@ATL@@@std@@@std@@IAE_NI@Z 0041a2a0 f i dpdbsrvr.obj
 0001:000192f0       ?erase@?$_Tree@V?$_Tmap_traits@KP8CDPDBSrvr@@AEXAAVCAr@@KPAEK@ZU?$less@K@std@@V?$allocator@U?$pair@$$CBKP8CDPDBSrvr@@AEXAAVCAr@@KPAEK@Z@std@@@4@$0A@@std@@@std@@QAE?AViterator@12@V312@0@Z 0041a2f0 f i dpdbsrvr.obj
 0001:000193b0       ??0?$vector@V?$CStringT@DV?$StrTraitMFC@DV?$ChTraitsCRT@D@ATL@@@@@ATL@@V?$allocator@V?$CStringT@DV?$StrTraitMFC@DV?$ChTraitsCRT@D@ATL@@@@@ATL@@@std@@@std@@QAE@XZ 0041a3b0 f i dpdbsrvr.obj
 0001:000193c0       ?_Tidy@?$vector@V?$CStringT@DV?$StrTraitMFC@DV?$ChTraitsCRT@D@ATL@@@@@ATL@@V?$allocator@V?$CStringT@DV?$StrTraitMFC@DV?$ChTraitsCRT@D@ATL@@@@@ATL@@@std@@@std@@IAEXXZ 0041a3c0 f i dpdbsrvr.obj
 0001:00019410       ?_Tidy@?$_Tree@V?$_Tmap_traits@KP8CDPDBSrvr@@AEXAAVCAr@@KPAEK@ZU?$less@K@std@@V?$allocator@U?$pair@$$CBKP8CDPDBSrvr@@AEXAAVCAr@@KPAEK@Z@std@@@4@$0A@@std@@@std@@IAEXXZ 0041a410 f i dpdbsrvr.obj
 0001:00019440       ??1?$vector@V?$CStringT@DV?$StrTraitMFC@DV?$ChTraitsCRT@D@ATL@@@@@ATL@@V?$allocator@V?$CStringT@DV?$StrTraitMFC@DV?$ChTraitsCRT@D@ATL@@@@@ATL@@@std@@@std@@QAE@XZ 0041a440 f i dpdbsrvr.obj
 0001:00019450       ??1?$_Tree@V?$_Tmap_traits@KP8CDPDBSrvr@@AEXAAVCAr@@KPAEK@ZU?$less@K@std@@V?$allocator@U?$pair@$$CBKP8CDPDBSrvr@@AEXAAVCAr@@KPAEK@Z@std@@@4@$0A@@std@@@std@@QAE@XZ 0041a450 f i dpdbsrvr.obj
 0001:00019480       ??1?$map@KP8CDPDBSrvr@@AEXAAVCAr@@KPAEK@ZU?$less@K@std@@V?$allocator@U?$pair@$$CBKP8CDPDBSrvr@@AEXAAVCAr@@KPAEK@Z@std@@@4@@std@@QAE@XZ 0041a480 f i dpdbsrvr.obj
 0001:000194b0       ??1CDPDBSrvr@@UAE@XZ       0041a4b0 f   dpdbsrvr.obj
 0001:00019530       ??0?$map@KP8CDPDBSrvr@@AEXAAVCAr@@KPAEK@ZU?$less@K@std@@V?$allocator@U?$pair@$$CBKP8CDPDBSrvr@@AEXAAVCAr@@KPAEK@Z@std@@@4@@std@@QAE@XZ 0041a530 f i dpdbsrvr.obj
 0001:00019560       ??_GCDPDBSrvr@@UAEPAXI@Z   0041a560 f i dpdbsrvr.obj
 0001:00019560       ??_ECDPDBSrvr@@UAEPAXI@Z   0041a560 f i dpdbsrvr.obj
 0001:00019580       ?OnBuyingInfo@CDPDBSrvr@@AAEXAAVCAr@@KPAEK@Z 0041a580 f   dpdbsrvr.obj
 0001:00019740       ??0CDPDBSrvr@@QAE@XZ       0041a740 f   dpdbsrvr.obj
 0001:000198b0       ?SendPlayerCount@CDPDBSrvr@@QAEXXZ 0041a8b0 f   dpdbsrvr.obj
 0001:00019db0       ??6CAr@@QAEAAV0@E@Z        0041adb0 f i dpsrvr.obj
 0001:00019dd0       ??5CAr@@QAEAAV0@AAE@Z      0041add0 f i dpsrvr.obj
 0001:00019e00       ??0tagSERVER_DESC@@QAE@XZ  0041ae00 f i dpsrvr.obj
 0001:00019e30       ??_H@YGXPAXIHP6EPAX0@Z@Z   0041ae30 f i dpsrvr.obj
 0001:00019e60       ?OnRemoveConnection@CDPSrvr@@QAEXK@Z 0041ae60 f   dpsrvr.obj
 0001:00019e70       ?OnRemoveAccount@CDPSrvr@@AAEXAAVCAr@@KK@Z 0041ae70 f   dpsrvr.obj
 0001:00019e90       ??0?$pair@$$CBKP8CDPSrvr@@AEXAAVCAr@@KK@Z@std@@QAE@ABKABQ8CDPSrvr@@AEXAAVCAr@@KK@Z@Z 0041ae90 f i dpsrvr.obj
 0001:00019eb0       ?_Isnil@?$_Tree@V?$_Tmap_traits@V?$basic_string@DU?$char_traits@D@std@@V?$allocator@D@2@@std@@HU?$less@V?$basic_string@DU?$char_traits@D@std@@V?$allocator@D@2@@std@@@2@V?$allocator@U?$pair@$$CBV?$basic_string@DU?$char_traits@D@std@@V?$allocator@D@2@@std@@H@std@@@2@$0A@@std@@@std@@KAAADPAU_Node@?$_Tree_nod@V?$_Tmap_traits@V?$basic_string@DU?$char_traits@D@std@@V?$allocator@D@2@@std@@HU?$less@V?$basic_string@DU?$char_traits@D@std@@V?$allocator@D@2@@std@@@2@V?$allocator@U?$pair@$$CBV?$basic_string@DU?$char_traits@D@std@@V?$allocator@D@2@@std@@H@std@@@2@$0A@@std@@@2@@Z 0041aeb0 f i dpsrvr.obj
 0001:00019ec0       ?_Left@?$_Tree@V?$_Tmap_traits@V?$basic_string@DU?$char_traits@D@std@@V?$allocator@D@2@@std@@HU?$less@V?$basic_string@DU?$char_traits@D@std@@V?$allocator@D@2@@std@@@2@V?$allocator@U?$pair@$$CBV?$basic_string@DU?$char_traits@D@std@@V?$allocator@D@2@@std@@H@std@@@2@$0A@@std@@@std@@KAAAPAU_Node@?$_Tree_nod@V?$_Tmap_traits@V?$basic_string@DU?$char_traits@D@std@@V?$allocator@D@2@@std@@HU?$less@V?$basic_string@DU?$char_traits@D@std@@V?$allocator@D@2@@std@@@2@V?$allocator@U?$pair@$$CBV?$basic_string@DU?$char_traits@D@std@@V?$allocator@D@2@@std@@H@std@@@2@$0A@@std@@@2@PAU342@@Z 0041aec0 f i dpsrvr.obj
 0001:00019ed0       ?_Right@?$_Tree@V?$_Tmap_traits@V?$basic_string@DU?$char_traits@D@std@@V?$allocator@D@2@@std@@HU?$less@V?$basic_string@DU?$char_traits@D@std@@V?$allocator@D@2@@std@@@2@V?$allocator@U?$pair@$$CBV?$basic_string@DU?$char_traits@D@std@@V?$allocator@D@2@@std@@H@std@@@2@$0A@@std@@@std@@KAAAPAU_Node@?$_Tree_nod@V?$_Tmap_traits@V?$basic_string@DU?$char_traits@D@std@@V?$allocator@D@2@@std@@HU?$less@V?$basic_string@DU?$char_traits@D@std@@V?$allocator@D@2@@std@@@2@V?$allocator@U?$pair@$$CBV?$basic_string@DU?$char_traits@D@std@@V?$allocator@D@2@@std@@H@std@@@2@$0A@@std@@@2@PAU342@@Z 0041aed0 f i dpsrvr.obj
 0001:00019ee0       ?_Lmost@?$_Tree@V?$_Tmap_traits@V?$basic_string@DU?$char_traits@D@std@@V?$allocator@D@2@@std@@HU?$less@V?$basic_string@DU?$char_traits@D@std@@V?$allocator@D@2@@std@@@2@V?$allocator@U?$pair@$$CBV?$basic_string@DU?$char_traits@D@std@@V?$allocator@D@2@@std@@H@std@@@2@$0A@@std@@@std@@IAEAAPAU_Node@?$_Tree_nod@V?$_Tmap_traits@V?$basic_string@DU?$char_traits@D@std@@V?$allocator@D@2@@std@@HU?$less@V?$basic_string@DU?$char_traits@D@std@@V?$allocator@D@2@@std@@@2@V?$allocator@U?$pair@$$CBV?$basic_string@DU?$char_traits@D@std@@V?$allocator@D@2@@std@@H@std@@@2@$0A@@std@@@2@XZ 0041aee0 f i dpsrvr.obj
 0001:00019ef0       ?_Rmost@?$_Tree@V?$_Tmap_traits@V?$basic_string@DU?$char_traits@D@std@@V?$allocator@D@2@@std@@HU?$less@V?$basic_string@DU?$char_traits@D@std@@V?$allocator@D@2@@std@@@2@V?$allocator@U?$pair@$$CBV?$basic_string@DU?$char_traits@D@std@@V?$allocator@D@2@@std@@H@std@@@2@$0A@@std@@@std@@IAEAAPAU_Node@?$_Tree_nod@V?$_Tmap_traits@V?$basic_string@DU?$char_traits@D@std@@V?$allocator@D@2@@std@@HU?$less@V?$basic_string@DU?$char_traits@D@std@@V?$allocator@D@2@@std@@@2@V?$allocator@U?$pair@$$CBV?$basic_string@DU?$char_traits@D@std@@V?$allocator@D@2@@std@@H@std@@@2@$0A@@std@@@2@XZ 0041aef0 f i dpsrvr.obj
 0001:00019f00       ?_Kfn@?$_Tmap_traits@V?$basic_string@DU?$char_traits@D@std@@V?$allocator@D@2@@std@@HU?$less@V?$basic_string@DU?$char_traits@D@std@@V?$allocator@D@2@@std@@@2@V?$allocator@U?$pair@$$CBV?$basic_string@DU?$char_traits@D@std@@V?$allocator@D@2@@std@@H@std@@@2@$0A@@std@@SAABV?$basic_string@DU?$char_traits@D@std@@V?$allocator@D@2@@2@ABU?$pair@$$CBV?$basic_string@DU?$char_traits@D@std@@V?$allocator@D@2@@std@@H@2@@Z 0041af00 f i dpsrvr.obj
 0001:00019f10       ??0?$allocator@U?$pair@$$CBV?$basic_string@DU?$char_traits@D@std@@V?$allocator@D@2@@std@@H@std@@@std@@QAE@XZ 0041af10 f i dpsrvr.obj
 0001:00019f20       ??0?$allocator@U?$pair@$$CBKPAUtagSERVER_DESC@@@std@@@std@@QAE@XZ 0041af20 f i dpsrvr.obj
 0001:00019f30       ?_Isnil@?$_Tree@V?$_Tmap_traits@KP8CDPSrvr@@AEXAAVCAr@@KK@ZU?$less@K@std@@V?$allocator@U?$pair@$$CBKP8CDPSrvr@@AEXAAVCAr@@KK@Z@std@@@4@$0A@@std@@@std@@KAAADPAU_Node@?$_Tree_nod@V?$_Tmap_traits@KP8CDPSrvr@@AEXAAVCAr@@KK@ZU?$less@K@std@@V?$allocator@U?$pair@$$CBKP8CDPSrvr@@AEXAAVCAr@@KK@Z@std@@@4@$0A@@std@@@2@@Z 0041af30 f i dpsrvr.obj
 0001:00019f40       ?_Left@?$_Tree@V?$_Tmap_traits@KP8CDPSrvr@@AEXAAVCAr@@KK@ZU?$less@K@std@@V?$allocator@U?$pair@$$CBKP8CDPSrvr@@AEXAAVCAr@@KK@Z@std@@@4@$0A@@std@@@std@@KAAAPAU_Node@?$_Tree_nod@V?$_Tmap_traits@KP8CDPSrvr@@AEXAAVCAr@@KK@ZU?$less@K@std@@V?$allocator@U?$pair@$$CBKP8CDPSrvr@@AEXAAVCAr@@KK@Z@std@@@4@$0A@@std@@@2@PAU342@@Z 0041af40 f i dpsrvr.obj
 0001:00019f50       ?_Right@?$_Tree@V?$_Tmap_traits@KP8CDPSrvr@@AEXAAVCAr@@KK@ZU?$less@K@std@@V?$allocator@U?$pair@$$CBKP8CDPSrvr@@AEXAAVCAr@@KK@Z@std@@@4@$0A@@std@@@std@@KAAAPAU_Node@?$_Tree_nod@V?$_Tmap_traits@KP8CDPSrvr@@AEXAAVCAr@@KK@ZU?$less@K@std@@V?$allocator@U?$pair@$$CBKP8CDPSrvr@@AEXAAVCAr@@KK@Z@std@@@4@$0A@@std@@@2@PAU342@@Z 0041af50 f i dpsrvr.obj
 0001:00019f60       ?_Kfn@?$_Tmap_traits@KP8CDPSrvr@@AEXAAVCAr@@KK@ZU?$less@K@std@@V?$allocator@U?$pair@$$CBKP8CDPSrvr@@AEXAAVCAr@@KK@Z@std@@@4@$0A@@std@@SAABKABU?$pair@$$CBKP8CDPSrvr@@AEXAAVCAr@@KK@Z@2@@Z 0041af60 f i dpsrvr.obj
 0001:00019f70       ??0?$allocator@U?$pair@$$CBKP8CDPSrvr@@AEXAAVCAr@@KK@Z@std@@@std@@QAE@XZ 0041af70 f i dpsrvr.obj
 0001:00019f80       ??8const_iterator@?$_Tree@V?$_Tmap_traits@KP8CDPSrvr@@AEXAAVCAr@@KK@ZU?$less@K@std@@V?$allocator@U?$pair@$$CBKP8CDPSrvr@@AEXAAVCAr@@KK@Z@std@@@4@$0A@@std@@@std@@QBE_NABV012@@Z 0041af80 f i dpsrvr.obj
 0001:00019f90       ?_Mynode@const_iterator@?$_Tree@V?$_Tmap_traits@KP8CDPSrvr@@AEXAAVCAr@@KK@ZU?$less@K@std@@V?$allocator@U?$pair@$$CBKP8CDPSrvr@@AEXAAVCAr@@KK@Z@std@@@4@$0A@@std@@@std@@QBEPAU_Node@?$_Tree_nod@V?$_Tmap_traits@KP8CDPSrvr@@AEXAAVCAr@@KK@ZU?$less@K@std@@V?$allocator@U?$pair@$$CBKP8CDPSrvr@@AEXAAVCAr@@KK@Z@std@@@4@$0A@@std@@@3@XZ 0041af90 f i dpsrvr.obj
 0001:00019fa0       ??0?$pair@Viterator@?$_Tree@V?$_Tmap_traits@KP8CDPSrvr@@AEXAAVCAr@@KK@ZU?$less@K@std@@V?$allocator@U?$pair@$$CBKP8CDPSrvr@@AEXAAVCAr@@KK@Z@std@@@4@$0A@@std@@@std@@_N@std@@QAE@ABViterator@?$_Tree@V?$_Tmap_traits@KP8CDPSrvr@@AEXAAVCAr@@KK@ZU?$less@K@std@@V?$allocator@U?$pair@$$CBKP8CDPSrvr@@AEXAAVCAr@@KK@Z@std@@@4@$0A@@std@@@1@AB_N@Z 0041afa0 f i dpsrvr.obj
 0001:00019fc0       ??8const_iterator@?$_Tree@V?$_Tmap_traits@V?$basic_string@DU?$char_traits@D@std@@V?$allocator@D@2@@std@@HU?$less@V?$basic_string@DU?$char_traits@D@std@@V?$allocator@D@2@@std@@@2@V?$allocator@U?$pair@$$CBV?$basic_string@DU?$char_traits@D@std@@V?$allocator@D@2@@std@@H@std@@@2@$0A@@std@@@std@@QBE_NABV012@@Z 0041afc0 f i dpsrvr.obj
 0001:00019fd0       ?_Mynode@const_iterator@?$_Tree@V?$_Tmap_traits@V?$basic_string@DU?$char_traits@D@std@@V?$allocator@D@2@@std@@HU?$less@V?$basic_string@DU?$char_traits@D@std@@V?$allocator@D@2@@std@@@2@V?$allocator@U?$pair@$$CBV?$basic_string@DU?$char_traits@D@std@@V?$allocator@D@2@@std@@H@std@@@2@$0A@@std@@@std@@QBEPAU_Node@?$_Tree_nod@V?$_Tmap_traits@V?$basic_string@DU?$char_traits@D@std@@V?$allocator@D@2@@std@@HU?$less@V?$basic_string@DU?$char_traits@D@std@@V?$allocator@D@2@@std@@@2@V?$allocator@U?$pair@$$CBV?$basic_string@DU?$char_traits@D@std@@V?$allocator@D@2@@std@@H@std@@@2@$0A@@std@@@3@XZ 0041afd0 f i dpsrvr.obj
 0001:00019fe0       ??0?$pair@Viterator@?$_Tree@V?$_Tmap_traits@V?$basic_string@DU?$char_traits@D@std@@V?$allocator@D@2@@std@@HU?$less@V?$basic_string@DU?$char_traits@D@std@@V?$allocator@D@2@@std@@@2@V?$allocator@U?$pair@$$CBV?$basic_string@DU?$char_traits@D@std@@V?$allocator@D@2@@std@@H@std@@@2@$0A@@std@@@std@@_N@std@@QAE@ABViterator@?$_Tree@V?$_Tmap_traits@V?$basic_string@DU?$char_traits@D@std@@V?$allocator@D@2@@std@@HU?$less@V?$basic_string@DU?$char_traits@D@std@@V?$allocator@D@2@@std@@@2@V?$allocator@U?$pair@$$CBV?$basic_string@DU?$char_traits@D@std@@V?$allocator@D@2@@std@@H@std@@@2@$0A@@std@@@1@AB_N@Z 0041afe0 f i dpsrvr.obj
 0001:0001a000       ?_Color@?$_Tree@V?$_Tmap_traits@V?$basic_string@DU?$char_traits@D@std@@V?$allocator@D@2@@std@@HU?$less@V?$basic_string@DU?$char_traits@D@std@@V?$allocator@D@2@@std@@@2@V?$allocator@U?$pair@$$CBV?$basic_string@DU?$char_traits@D@std@@V?$allocator@D@2@@std@@H@std@@@2@$0A@@std@@@std@@KAAADPAU_Node@?$_Tree_nod@V?$_Tmap_traits@V?$basic_string@DU?$char_traits@D@std@@V?$allocator@D@2@@std@@HU?$less@V?$basic_string@DU?$char_traits@D@std@@V?$allocator@D@2@@std@@@2@V?$allocator@U?$pair@$$CBV?$basic_string@DU?$char_traits@D@std@@V?$allocator@D@2@@std@@H@std@@@2@$0A@@std@@@2@@Z 0041b000 f i dpsrvr.obj
 0001:0001a010       ?_Parent@?$_Tree@V?$_Tmap_traits@V?$basic_string@DU?$char_traits@D@std@@V?$allocator@D@2@@std@@HU?$less@V?$basic_string@DU?$char_traits@D@std@@V?$allocator@D@2@@std@@@2@V?$allocator@U?$pair@$$CBV?$basic_string@DU?$char_traits@D@std@@V?$allocator@D@2@@std@@H@std@@@2@$0A@@std@@@std@@KAAAPAU_Node@?$_Tree_nod@V?$_Tmap_traits@V?$basic_string@DU?$char_traits@D@std@@V?$allocator@D@2@@std@@HU?$less@V?$basic_string@DU?$char_traits@D@std@@V?$allocator@D@2@@std@@@2@V?$allocator@U?$pair@$$CBV?$basic_string@DU?$char_traits@D@std@@V?$allocator@D@2@@std@@H@std@@@2@$0A@@std@@@2@PAU342@@Z 0041b010 f i dpsrvr.obj
 0001:0001a020       ?_Myval@?$_Tree@V?$_Tmap_traits@V?$basic_string@DU?$char_traits@D@std@@V?$allocator@D@2@@std@@HU?$less@V?$basic_string@DU?$char_traits@D@std@@V?$allocator@D@2@@std@@@2@V?$allocator@U?$pair@$$CBV?$basic_string@DU?$char_traits@D@std@@V?$allocator@D@2@@std@@H@std@@@2@$0A@@std@@@std@@KAAAU?$pair@$$CBV?$basic_string@DU?$char_traits@D@std@@V?$allocator@D@2@@std@@H@2@PAU_Node@?$_Tree_nod@V?$_Tmap_traits@V?$basic_string@DU?$char_traits@D@std@@V?$allocator@D@2@@std@@HU?$less@V?$basic_string@DU?$char_traits@D@std@@V?$allocator@D@2@@std@@@2@V?$allocator@U?$pair@$$CBV?$basic_string@DU?$char_traits@D@std@@V?$allocator@D@2@@std@@H@std@@@2@$0A@@std@@@2@@Z 0041b020 f i dpsrvr.obj
 0001:0001a030       ??0?$allocator@U?$pair@$$CBV?$basic_string@DU?$char_traits@D@std@@V?$allocator@D@2@@std@@H@std@@@std@@QAE@ABV01@@Z 0041b030 f i dpsrvr.obj
 0001:0001a040       ?deallocate@?$allocator@U_Node@?$_Tree_nod@V?$_Tmap_traits@V?$basic_string@DU?$char_traits@D@std@@V?$allocator@D@2@@std@@HU?$less@V?$basic_string@DU?$char_traits@D@std@@V?$allocator@D@2@@std@@@2@V?$allocator@U?$pair@$$CBV?$basic_string@DU?$char_traits@D@std@@V?$allocator@D@2@@std@@H@std@@@2@$0A@@std@@@std@@@std@@QAEXPAU_Node@?$_Tree_nod@V?$_Tmap_traits@V?$basic_string@DU?$char_traits@D@std@@V?$allocator@D@2@@std@@HU?$less@V?$basic_string@DU?$char_traits@D@std@@V?$allocator@D@2@@std@@@2@V?$allocator@U?$pair@$$CBV?$basic_string@DU?$char_traits@D@std@@V?$allocator@D@2@@std@@H@std@@@2@$0A@@std@@@2@I@Z 0041b040 f i dpsrvr.obj
 0001:0001a050       ??0?$allocator@U?$pair@$$CBKPAUtagSERVER_DESC@@@std@@@std@@QAE@ABV01@@Z 0041b050 f i dpsrvr.obj
 0001:0001a060       ?_Color@?$_Tree@V?$_Tmap_traits@KP8CDPSrvr@@AEXAAVCAr@@KK@ZU?$less@K@std@@V?$allocator@U?$pair@$$CBKP8CDPSrvr@@AEXAAVCAr@@KK@Z@std@@@4@$0A@@std@@@std@@KAAADPAU_Node@?$_Tree_nod@V?$_Tmap_traits@KP8CDPSrvr@@AEXAAVCAr@@KK@ZU?$less@K@std@@V?$allocator@U?$pair@$$CBKP8CDPSrvr@@AEXAAVCAr@@KK@Z@std@@@4@$0A@@std@@@2@@Z 0041b060 f i dpsrvr.obj
 0001:0001a070       ?_Parent@?$_Tree@V?$_Tmap_traits@KP8CDPSrvr@@AEXAAVCAr@@KK@ZU?$less@K@std@@V?$allocator@U?$pair@$$CBKP8CDPSrvr@@AEXAAVCAr@@KK@Z@std@@@4@$0A@@std@@@std@@KAAAPAU_Node@?$_Tree_nod@V?$_Tmap_traits@KP8CDPSrvr@@AEXAAVCAr@@KK@ZU?$less@K@std@@V?$allocator@U?$pair@$$CBKP8CDPSrvr@@AEXAAVCAr@@KK@Z@std@@@4@$0A@@std@@@2@PAU342@@Z 0041b070 f i dpsrvr.obj
 0001:0001a080       ?_Myval@?$_Tree@V?$_Tmap_traits@KP8CDPSrvr@@AEXAAVCAr@@KK@ZU?$less@K@std@@V?$allocator@U?$pair@$$CBKP8CDPSrvr@@AEXAAVCAr@@KK@Z@std@@@4@$0A@@std@@@std@@KAAAU?$pair@$$CBKP8CDPSrvr@@AEXAAVCAr@@KK@Z@2@PAU_Node@?$_Tree_nod@V?$_Tmap_traits@KP8CDPSrvr@@AEXAAVCAr@@KK@ZU?$less@K@std@@V?$allocator@U?$pair@$$CBKP8CDPSrvr@@AEXAAVCAr@@KK@Z@std@@@4@$0A@@std@@@2@@Z 0041b080 f i dpsrvr.obj
 0001:0001a090       ?_Lmost@?$_Tree@V?$_Tmap_traits@KP8CDPSrvr@@AEXAAVCAr@@KK@ZU?$less@K@std@@V?$allocator@U?$pair@$$CBKP8CDPSrvr@@AEXAAVCAr@@KK@Z@std@@@4@$0A@@std@@@std@@IAEAAPAU_Node@?$_Tree_nod@V?$_Tmap_traits@KP8CDPSrvr@@AEXAAVCAr@@KK@ZU?$less@K@std@@V?$allocator@U?$pair@$$CBKP8CDPSrvr@@AEXAAVCAr@@KK@Z@std@@@4@$0A@@std@@@2@XZ 0041b090 f i dpsrvr.obj
 0001:0001a0a0       ?_Rmost@?$_Tree@V?$_Tmap_traits@KP8CDPSrvr@@AEXAAVCAr@@KK@ZU?$less@K@std@@V?$allocator@U?$pair@$$CBKP8CDPSrvr@@AEXAAVCAr@@KK@Z@std@@@4@$0A@@std@@@std@@IAEAAPAU_Node@?$_Tree_nod@V?$_Tmap_traits@KP8CDPSrvr@@AEXAAVCAr@@KK@ZU?$less@K@std@@V?$allocator@U?$pair@$$CBKP8CDPSrvr@@AEXAAVCAr@@KK@Z@std@@@4@$0A@@std@@@2@XZ 0041b0a0 f i dpsrvr.obj
 0001:0001a0b0       ??0?$allocator@U?$pair@$$CBKP8CDPSrvr@@AEXAAVCAr@@KK@Z@std@@@std@@QAE@ABV01@@Z 0041b0b0 f i dpsrvr.obj
 0001:0001a0c0       ?deallocate@?$allocator@U_Node@?$_Tree_nod@V?$_Tmap_traits@KP8CDPSrvr@@AEXAAVCAr@@KK@ZU?$less@K@std@@V?$allocator@U?$pair@$$CBKP8CDPSrvr@@AEXAAVCAr@@KK@Z@std@@@4@$0A@@std@@@std@@@std@@QAEXPAU_Node@?$_Tree_nod@V?$_Tmap_traits@KP8CDPSrvr@@AEXAAVCAr@@KK@ZU?$less@K@std@@V?$allocator@U?$pair@$$CBKP8CDPSrvr@@AEXAAVCAr@@KK@Z@std@@@4@$0A@@std@@@2@I@Z 0041b0c0 f i dpsrvr.obj
 0001:0001a0d0       ??0const_iterator@?$_Tree@V?$_Tmap_traits@KP8CDPSrvr@@AEXAAVCAr@@KK@ZU?$less@K@std@@V?$allocator@U?$pair@$$CBKP8CDPSrvr@@AEXAAVCAr@@KK@Z@std@@@4@$0A@@std@@@std@@QAE@PAU_Node@?$_Tree_nod@V?$_Tmap_traits@KP8CDPSrvr@@AEXAAVCAr@@KK@ZU?$less@K@std@@V?$allocator@U?$pair@$$CBKP8CDPSrvr@@AEXAAVCAr@@KK@Z@std@@@4@$0A@@std@@@2@@Z 0041b0d0 f i dpsrvr.obj
 0001:0001a0e0       ??Dconst_iterator@?$_Tree@V?$_Tmap_traits@KP8CDPSrvr@@AEXAAVCAr@@KK@ZU?$less@K@std@@V?$allocator@U?$pair@$$CBKP8CDPSrvr@@AEXAAVCAr@@KK@Z@std@@@4@$0A@@std@@@std@@QBEABU?$pair@$$CBKP8CDPSrvr@@AEXAAVCAr@@KK@Z@2@XZ 0041b0e0 f i dpsrvr.obj
 0001:0001a0f0       ??0const_iterator@?$_Tree@V?$_Tmap_traits@V?$basic_string@DU?$char_traits@D@std@@V?$allocator@D@2@@std@@HU?$less@V?$basic_string@DU?$char_traits@D@std@@V?$allocator@D@2@@std@@@2@V?$allocator@U?$pair@$$CBV?$basic_string@DU?$char_traits@D@std@@V?$allocator@D@2@@std@@H@std@@@2@$0A@@std@@@std@@QAE@PAU_Node@?$_Tree_nod@V?$_Tmap_traits@V?$basic_string@DU?$char_traits@D@std@@V?$allocator@D@2@@std@@HU?$less@V?$basic_string@DU?$char_traits@D@std@@V?$allocator@D@2@@std@@@2@V?$allocator@U?$pair@$$CBV?$basic_string@DU?$char_traits@D@std@@V?$allocator@D@2@@std@@H@std@@@2@$0A@@std@@@2@@Z 0041b0f0 f i dpsrvr.obj
 0001:0001a100       ??Dconst_iterator@?$_Tree@V?$_Tmap_traits@V?$basic_string@DU?$char_traits@D@std@@V?$allocator@D@2@@std@@HU?$less@V?$basic_string@DU?$char_traits@D@std@@V?$allocator@D@2@@std@@@2@V?$allocator@U?$pair@$$CBV?$basic_string@DU?$char_traits@D@std@@V?$allocator@D@2@@std@@H@std@@@2@$0A@@std@@@std@@QBEABU?$pair@$$CBV?$basic_string@DU?$char_traits@D@std@@V?$allocator@D@2@@std@@H@2@XZ 0041b100 f i dpsrvr.obj
 0001:0001a110       ?_Root@?$_Tree@V?$_Tmap_traits@V?$basic_string@DU?$char_traits@D@std@@V?$allocator@D@2@@std@@HU?$less@V?$basic_string@DU?$char_traits@D@std@@V?$allocator@D@2@@std@@@2@V?$allocator@U?$pair@$$CBV?$basic_string@DU?$char_traits@D@std@@V?$allocator@D@2@@std@@H@std@@@2@$0A@@std@@@std@@IBEAAPAU_Node@?$_Tree_nod@V?$_Tmap_traits@V?$basic_string@DU?$char_traits@D@std@@V?$allocator@D@2@@std@@HU?$less@V?$basic_string@DU?$char_traits@D@std@@V?$allocator@D@2@@std@@@2@V?$allocator@U?$pair@$$CBV?$basic_string@DU?$char_traits@D@std@@V?$allocator@D@2@@std@@H@std@@@2@$0A@@std@@@2@XZ 0041b110 f i dpsrvr.obj
 0001:0001a120       ?max_size@?$allocator@U?$pair@$$CBV?$basic_string@DU?$char_traits@D@std@@V?$allocator@D@2@@std@@H@std@@@std@@QBEIXZ 0041b120 f i dpsrvr.obj
 0001:0001a130       ?_Root@?$_Tree@V?$_Tmap_traits@KP8CDPSrvr@@AEXAAVCAr@@KK@ZU?$less@K@std@@V?$allocator@U?$pair@$$CBKP8CDPSrvr@@AEXAAVCAr@@KK@Z@std@@@4@$0A@@std@@@std@@IBEAAPAU_Node@?$_Tree_nod@V?$_Tmap_traits@KP8CDPSrvr@@AEXAAVCAr@@KK@ZU?$less@K@std@@V?$allocator@U?$pair@$$CBKP8CDPSrvr@@AEXAAVCAr@@KK@Z@std@@@4@$0A@@std@@@2@XZ 0041b130 f i dpsrvr.obj
 0001:0001a140       ?max_size@?$allocator@U?$pair@$$CBKP8CDPSrvr@@AEXAAVCAr@@KK@Z@std@@@std@@QBEIXZ 0041b140 f i dpsrvr.obj
 0001:0001a150       ??0_Node@?$_Tree_nod@V?$_Tmap_traits@KP8CDPSrvr@@AEXAAVCAr@@KK@ZU?$less@K@std@@V?$allocator@U?$pair@$$CBKP8CDPSrvr@@AEXAAVCAr@@KK@Z@std@@@4@$0A@@std@@@std@@QAE@PAU012@00ABU?$pair@$$CBKP8CDPSrvr@@AEXAAVCAr@@KK@Z@2@D@Z 0041b150 f i dpsrvr.obj
 0001:0001a190       ?_Max@?$_Tree@V?$_Tmap_traits@V?$basic_string@DU?$char_traits@D@std@@V?$allocator@D@2@@std@@HU?$less@V?$basic_string@DU?$char_traits@D@std@@V?$allocator@D@2@@std@@@2@V?$allocator@U?$pair@$$CBV?$basic_string@DU?$char_traits@D@std@@V?$allocator@D@2@@std@@H@std@@@2@$0A@@std@@@std@@KAPAU_Node@?$_Tree_nod@V?$_Tmap_traits@V?$basic_string@DU?$char_traits@D@std@@V?$allocator@D@2@@std@@HU?$less@V?$basic_string@DU?$char_traits@D@std@@V?$allocator@D@2@@std@@@2@V?$allocator@U?$pair@$$CBV?$basic_string@DU?$char_traits@D@std@@V?$allocator@D@2@@std@@H@std@@@2@$0A@@std@@@2@PAU342@@Z 0041b190 f i dpsrvr.obj
 0001:0001a1b0       ?_Min@?$_Tree@V?$_Tmap_traits@V?$basic_string@DU?$char_traits@D@std@@V?$allocator@D@2@@std@@HU?$less@V?$basic_string@DU?$char_traits@D@std@@V?$allocator@D@2@@std@@@2@V?$allocator@U?$pair@$$CBV?$basic_string@DU?$char_traits@D@std@@V?$allocator@D@2@@std@@H@std@@@2@$0A@@std@@@std@@KAPAU_Node@?$_Tree_nod@V?$_Tmap_traits@V?$basic_string@DU?$char_traits@D@std@@V?$allocator@D@2@@std@@HU?$less@V?$basic_string@DU?$char_traits@D@std@@V?$allocator@D@2@@std@@@2@V?$allocator@U?$pair@$$CBV?$basic_string@DU?$char_traits@D@std@@V?$allocator@D@2@@std@@H@std@@@2@$0A@@std@@@2@PAU342@@Z 0041b1b0 f i dpsrvr.obj
 0001:0001a1d0       ?_Min@?$_Tree@V?$_Tmap_traits@KPAUtagSERVER_DESC@@U?$less@K@std@@V?$allocator@U?$pair@$$CBKPAUtagSERVER_DESC@@@std@@@3@$0A@@std@@@std@@KAPAU_Node@?$_Tree_nod@V?$_Tmap_traits@KPAUtagSERVER_DESC@@U?$less@K@std@@V?$allocator@U?$pair@$$CBKPAUtagSERVER_DESC@@@std@@@3@$0A@@std@@@2@PAU342@@Z 0041b1d0 f i dpsrvr.obj
 0001:0001a1f0       ?_Max@?$_Tree@V?$_Tmap_traits@KP8CDPSrvr@@AEXAAVCAr@@KK@ZU?$less@K@std@@V?$allocator@U?$pair@$$CBKP8CDPSrvr@@AEXAAVCAr@@KK@Z@std@@@4@$0A@@std@@@std@@KAPAU_Node@?$_Tree_nod@V?$_Tmap_traits@KP8CDPSrvr@@AEXAAVCAr@@KK@ZU?$less@K@std@@V?$allocator@U?$pair@$$CBKP8CDPSrvr@@AEXAAVCAr@@KK@Z@std@@@4@$0A@@std@@@2@PAU342@@Z 0041b1f0 f i dpsrvr.obj
 0001:0001a210       ?_Min@?$_Tree@V?$_Tmap_traits@KP8CDPSrvr@@AEXAAVCAr@@KK@ZU?$less@K@std@@V?$allocator@U?$pair@$$CBKP8CDPSrvr@@AEXAAVCAr@@KK@Z@std@@@4@$0A@@std@@@std@@KAPAU_Node@?$_Tree_nod@V?$_Tmap_traits@KP8CDPSrvr@@AEXAAVCAr@@KK@ZU?$less@K@std@@V?$allocator@U?$pair@$$CBKP8CDPSrvr@@AEXAAVCAr@@KK@Z@std@@@4@$0A@@std@@@2@PAU342@@Z 0041b210 f i dpsrvr.obj
 0001:0001a230       ??0?$_Tmap_traits@V?$basic_string@DU?$char_traits@D@std@@V?$allocator@D@2@@std@@HU?$less@V?$basic_string@DU?$char_traits@D@std@@V?$allocator@D@2@@std@@@2@V?$allocator@U?$pair@$$CBV?$basic_string@DU?$char_traits@D@std@@V?$allocator@D@2@@std@@H@std@@@2@$0A@@std@@QAE@U?$less@V?$basic_string@DU?$char_traits@D@std@@V?$allocator@D@2@@std@@@1@@Z 0041b230 f i dpsrvr.obj
 0001:0001a240       ??0?$_Tmap_traits@KPAUtagSERVER_DESC@@U?$less@K@std@@V?$allocator@U?$pair@$$CBKPAUtagSERVER_DESC@@@std@@@3@$0A@@std@@QAE@U?$less@K@1@@Z 0041b240 f i dpsrvr.obj
 0001:0001a250       ??0?$_Tmap_traits@KP8CDPSrvr@@AEXAAVCAr@@KK@ZU?$less@K@std@@V?$allocator@U?$pair@$$CBKP8CDPSrvr@@AEXAAVCAr@@KK@Z@std@@@4@$0A@@std@@QAE@U?$less@K@1@@Z 0041b250 f i dpsrvr.obj
 0001:0001a260       ?_Inc@const_iterator@?$_Tree@V?$_Tmap_traits@KP8CDPSrvr@@AEXAAVCAr@@KK@ZU?$less@K@std@@V?$allocator@U?$pair@$$CBKP8CDPSrvr@@AEXAAVCAr@@KK@Z@std@@@4@$0A@@std@@@std@@QAEXXZ 0041b260 f i dpsrvr.obj
 0001:0001a2c0       ?_Inc@const_iterator@?$_Tree@V?$_Tmap_traits@V?$basic_string@DU?$char_traits@D@std@@V?$allocator@D@2@@std@@HU?$less@V?$basic_string@DU?$char_traits@D@std@@V?$allocator@D@2@@std@@@2@V?$allocator@U?$pair@$$CBV?$basic_string@DU?$char_traits@D@std@@V?$allocator@D@2@@std@@H@std@@@2@$0A@@std@@@std@@QAEXXZ 0041b2c0 f i dpsrvr.obj
 0001:0001a320       ?_Inc@const_iterator@?$_Tree@V?$_Tmap_traits@KPAUtagSERVER_DESC@@U?$less@K@std@@V?$allocator@U?$pair@$$CBKPAUtagSERVER_DESC@@@std@@@3@$0A@@std@@@std@@QAEXXZ 0041b320 f i dpsrvr.obj
 0001:0001a380       ??$_Destroy@PAU_Node@?$_Tree_nod@V?$_Tmap_traits@V?$basic_string@DU?$char_traits@D@std@@V?$allocator@D@2@@std@@HU?$less@V?$basic_string@DU?$char_traits@D@std@@V?$allocator@D@2@@std@@@2@V?$allocator@U?$pair@$$CBV?$basic_string@DU?$char_traits@D@std@@V?$allocator@D@2@@std@@H@std@@@2@$0A@@std@@@std@@@std@@YAXPAPAU_Node@?$_Tree_nod@V?$_Tmap_traits@V?$basic_string@DU?$char_traits@D@std@@V?$allocator@D@2@@std@@HU?$less@V?$basic_string@DU?$char_traits@D@std@@V?$allocator@D@2@@std@@@2@V?$allocator@U?$pair@$$CBV?$basic_string@DU?$char_traits@D@std@@V?$allocator@D@2@@std@@H@std@@@2@$0A@@std@@@0@@Z 0041b380 f i dpsrvr.obj
 0001:0001a390       ??$_Destroy@PAU_Node@?$_Tree_nod@V?$_Tmap_traits@KPAUtagSERVER_DESC@@U?$less@K@std@@V?$allocator@U?$pair@$$CBKPAUtagSERVER_DESC@@@std@@@3@$0A@@std@@@std@@@std@@YAXPAPAU_Node@?$_Tree_nod@V?$_Tmap_traits@KPAUtagSERVER_DESC@@U?$less@K@std@@V?$allocator@U?$pair@$$CBKPAUtagSERVER_DESC@@@std@@@3@$0A@@std@@@0@@Z 0041b390 f i dpsrvr.obj
 0001:0001a3a0       ??$_Destroy@PAU_Node@?$_Tree_nod@V?$_Tmap_traits@KP8CDPSrvr@@AEXAAVCAr@@KK@ZU?$less@K@std@@V?$allocator@U?$pair@$$CBKP8CDPSrvr@@AEXAAVCAr@@KK@Z@std@@@4@$0A@@std@@@std@@@std@@YAXPAPAU_Node@?$_Tree_nod@V?$_Tmap_traits@KP8CDPSrvr@@AEXAAVCAr@@KK@ZU?$less@K@std@@V?$allocator@U?$pair@$$CBKP8CDPSrvr@@AEXAAVCAr@@KK@Z@std@@@4@$0A@@std@@@0@@Z 0041b3a0 f i dpsrvr.obj
 0001:0001a3b0       ??$?0U?$pair@$$CBV?$basic_string@DU?$char_traits@D@std@@V?$allocator@D@2@@std@@H@std@@@?$allocator@PAU_Node@?$_Tree_nod@V?$_Tmap_traits@V?$basic_string@DU?$char_traits@D@std@@V?$allocator@D@2@@std@@HU?$less@V?$basic_string@DU?$char_traits@D@std@@V?$allocator@D@2@@std@@@2@V?$allocator@U?$pair@$$CBV?$basic_string@DU?$char_traits@D@std@@V?$allocator@D@2@@std@@H@std@@@2@$0A@@std@@@std@@@std@@QAE@ABV?$allocator@U?$pair@$$CBV?$basic_string@DU?$char_traits@D@std@@V?$allocator@D@2@@std@@H@std@@@1@@Z 0041b3b0 f i dpsrvr.obj
 0001:0001a3c0       ??$_Allocate@U_Node@?$_Tree_nod@V?$_Tmap_traits@V?$basic_string@DU?$char_traits@D@std@@V?$allocator@D@2@@std@@HU?$less@V?$basic_string@DU?$char_traits@D@std@@V?$allocator@D@2@@std@@@2@V?$allocator@U?$pair@$$CBV?$basic_string@DU?$char_traits@D@std@@V?$allocator@D@2@@std@@H@std@@@2@$0A@@std@@@std@@@std@@YAPAU_Node@?$_Tree_nod@V?$_Tmap_traits@V?$basic_string@DU?$char_traits@D@std@@V?$allocator@D@2@@std@@HU?$less@V?$basic_string@DU?$char_traits@D@std@@V?$allocator@D@2@@std@@@2@V?$allocator@U?$pair@$$CBV?$basic_string@DU?$char_traits@D@std@@V?$allocator@D@2@@std@@H@std@@@2@$0A@@std@@@0@IPAU120@@Z 0041b3c0 f i dpsrvr.obj
 0001:0001a3e0       ??$?0U?$pair@$$CBKPAUtagSERVER_DESC@@@std@@@?$allocator@PAU_Node@?$_Tree_nod@V?$_Tmap_traits@KPAUtagSERVER_DESC@@U?$less@K@std@@V?$allocator@U?$pair@$$CBKPAUtagSERVER_DESC@@@std@@@3@$0A@@std@@@std@@@std@@QAE@ABV?$allocator@U?$pair@$$CBKPAUtagSERVER_DESC@@@std@@@1@@Z 0041b3e0 f i dpsrvr.obj
 0001:0001a3f0       ??$?0U?$pair@$$CBKP8CDPSrvr@@AEXAAVCAr@@KK@Z@std@@@?$allocator@PAU_Node@?$_Tree_nod@V?$_Tmap_traits@KP8CDPSrvr@@AEXAAVCAr@@KK@ZU?$less@K@std@@V?$allocator@U?$pair@$$CBKP8CDPSrvr@@AEXAAVCAr@@KK@Z@std@@@4@$0A@@std@@@std@@@std@@QAE@ABV?$allocator@U?$pair@$$CBKP8CDPSrvr@@AEXAAVCAr@@KK@Z@std@@@1@@Z 0041b3f0 f i dpsrvr.obj
 0001:0001a400       ??$_Allocate@U_Node@?$_Tree_nod@V?$_Tmap_traits@KP8CDPSrvr@@AEXAAVCAr@@KK@ZU?$less@K@std@@V?$allocator@U?$pair@$$CBKP8CDPSrvr@@AEXAAVCAr@@KK@Z@std@@@4@$0A@@std@@@std@@@std@@YAPAU_Node@?$_Tree_nod@V?$_Tmap_traits@KP8CDPSrvr@@AEXAAVCAr@@KK@ZU?$less@K@std@@V?$allocator@U?$pair@$$CBKP8CDPSrvr@@AEXAAVCAr@@KK@Z@std@@@4@$0A@@std@@@0@IPAU120@@Z 0041b400 f i dpsrvr.obj
 0001:0001a420       ??$?0U?$pair@$$CBV?$basic_string@DU?$char_traits@D@std@@V?$allocator@D@2@@std@@H@std@@@?$allocator@U_Node@?$_Tree_nod@V?$_Tmap_traits@V?$basic_string@DU?$char_traits@D@std@@V?$allocator@D@2@@std@@HU?$less@V?$basic_string@DU?$char_traits@D@std@@V?$allocator@D@2@@std@@@2@V?$allocator@U?$pair@$$CBV?$basic_string@DU?$char_traits@D@std@@V?$allocator@D@2@@std@@H@std@@@2@$0A@@std@@@std@@@std@@QAE@ABV?$allocator@U?$pair@$$CBV?$basic_string@DU?$char_traits@D@std@@V?$allocator@D@2@@std@@H@std@@@1@@Z 0041b420 f i dpsrvr.obj
 0001:0001a430       ??$_Construct@PAU_Node@?$_Tree_nod@V?$_Tmap_traits@V?$basic_string@DU?$char_traits@D@std@@V?$allocator@D@2@@std@@HU?$less@V?$basic_string@DU?$char_traits@D@std@@V?$allocator@D@2@@std@@@2@V?$allocator@U?$pair@$$CBV?$basic_string@DU?$char_traits@D@std@@V?$allocator@D@2@@std@@H@std@@@2@$0A@@std@@@std@@PAU123@@std@@YAXPAPAU_Node@?$_Tree_nod@V?$_Tmap_traits@V?$basic_string@DU?$char_traits@D@std@@V?$allocator@D@2@@std@@HU?$less@V?$basic_string@DU?$char_traits@D@std@@V?$allocator@D@2@@std@@@2@V?$allocator@U?$pair@$$CBV?$basic_string@DU?$char_traits@D@std@@V?$allocator@D@2@@std@@H@std@@@2@$0A@@std@@@0@ABQAU120@@Z 0041b430 f i dpsrvr.obj
 0001:0001a450       ??$?0U?$pair@$$CBKPAUtagSERVER_DESC@@@std@@@?$allocator@U_Node@?$_Tree_nod@V?$_Tmap_traits@KPAUtagSERVER_DESC@@U?$less@K@std@@V?$allocator@U?$pair@$$CBKPAUtagSERVER_DESC@@@std@@@3@$0A@@std@@@std@@@std@@QAE@ABV?$allocator@U?$pair@$$CBKPAUtagSERVER_DESC@@@std@@@1@@Z 0041b450 f i dpsrvr.obj
 0001:0001a460       ??$_Destroy@U_Node@?$_Tree_nod@V?$_Tmap_traits@KPAUtagSERVER_DESC@@U?$less@K@std@@V?$allocator@U?$pair@$$CBKPAUtagSERVER_DESC@@@std@@@3@$0A@@std@@@std@@@std@@YAXPAU_Node@?$_Tree_nod@V?$_Tmap_traits@KPAUtagSERVER_DESC@@U?$less@K@std@@V?$allocator@U?$pair@$$CBKPAUtagSERVER_DESC@@@std@@@3@$0A@@std@@@0@@Z 0041b460 f i dpsrvr.obj
 0001:0001a470       ??$_Construct@PAU_Node@?$_Tree_nod@V?$_Tmap_traits@KPAUtagSERVER_DESC@@U?$less@K@std@@V?$allocator@U?$pair@$$CBKPAUtagSERVER_DESC@@@std@@@3@$0A@@std@@@std@@PAU123@@std@@YAXPAPAU_Node@?$_Tree_nod@V?$_Tmap_traits@KPAUtagSERVER_DESC@@U?$less@K@std@@V?$allocator@U?$pair@$$CBKPAUtagSERVER_DESC@@@std@@@3@$0A@@std@@@0@ABQAU120@@Z 0041b470 f i dpsrvr.obj
 0001:0001a490       ??$?0U?$pair@$$CBKP8CDPSrvr@@AEXAAVCAr@@KK@Z@std@@@?$allocator@U_Node@?$_Tree_nod@V?$_Tmap_traits@KP8CDPSrvr@@AEXAAVCAr@@KK@ZU?$less@K@std@@V?$allocator@U?$pair@$$CBKP8CDPSrvr@@AEXAAVCAr@@KK@Z@std@@@4@$0A@@std@@@std@@@std@@QAE@ABV?$allocator@U?$pair@$$CBKP8CDPSrvr@@AEXAAVCAr@@KK@Z@std@@@1@@Z 0041b490 f i dpsrvr.obj
 0001:0001a4a0       ??$_Destroy@U_Node@?$_Tree_nod@V?$_Tmap_traits@KP8CDPSrvr@@AEXAAVCAr@@KK@ZU?$less@K@std@@V?$allocator@U?$pair@$$CBKP8CDPSrvr@@AEXAAVCAr@@KK@Z@std@@@4@$0A@@std@@@std@@@std@@YAXPAU_Node@?$_Tree_nod@V?$_Tmap_traits@KP8CDPSrvr@@AEXAAVCAr@@KK@ZU?$less@K@std@@V?$allocator@U?$pair@$$CBKP8CDPSrvr@@AEXAAVCAr@@KK@Z@std@@@4@$0A@@std@@@0@@Z 0041b4a0 f i dpsrvr.obj
 0001:0001a4b0       ??$_Construct@PAU_Node@?$_Tree_nod@V?$_Tmap_traits@KP8CDPSrvr@@AEXAAVCAr@@KK@ZU?$less@K@std@@V?$allocator@U?$pair@$$CBKP8CDPSrvr@@AEXAAVCAr@@KK@Z@std@@@4@$0A@@std@@@std@@PAU123@@std@@YAXPAPAU_Node@?$_Tree_nod@V?$_Tmap_traits@KP8CDPSrvr@@AEXAAVCAr@@KK@ZU?$less@K@std@@V?$allocator@U?$pair@$$CBKP8CDPSrvr@@AEXAAVCAr@@KK@Z@std@@@4@$0A@@std@@@0@ABQAU120@@Z 0041b4b0 f i dpsrvr.obj
 0001:0001a4d0       ?StringFindString@?$ChTraitsCRT@D@ATL@@SAPBDPBD0@Z 0041b4d0 f i dpsrvr.obj
 0001:0001a4e0       ??6CAr@@QAEAAV0@I@Z        0041b4e0 f i dpsrvr.obj
 0001:0001a500       ?OnPing@CDPSrvr@@AAEXAAVCAr@@KK@Z 0041b500 f   dpsrvr.obj
 0001:0001a580       ?LoadAddrPmttd@CDPSrvr@@QAE_NPBD@Z 0041b580 f   dpsrvr.obj
 0001:0001a6b0       ??9const_iterator@?$_Tree@V?$_Tmap_traits@KP8CDPSrvr@@AEXAAVCAr@@KK@ZU?$less@K@std@@V?$allocator@U?$pair@$$CBKP8CDPSrvr@@AEXAAVCAr@@KK@Z@std@@@4@$0A@@std@@@std@@QBE_NABV012@@Z 0041b6b0 f i dpsrvr.obj
 0001:0001a6d0       ??9const_iterator@?$_Tree@V?$_Tmap_traits@V?$basic_string@DU?$char_traits@D@std@@V?$allocator@D@2@@std@@HU?$less@V?$basic_string@DU?$char_traits@D@std@@V?$allocator@D@2@@std@@@2@V?$allocator@U?$pair@$$CBV?$basic_string@DU?$char_traits@D@std@@V?$allocator@D@2@@std@@H@std@@@2@$0A@@std@@@std@@QBE_NABV012@@Z 0041b6d0 f i dpsrvr.obj
 0001:0001a6f0       ?_Key@?$_Tree@V?$_Tmap_traits@V?$basic_string@DU?$char_traits@D@std@@V?$allocator@D@2@@std@@HU?$less@V?$basic_string@DU?$char_traits@D@std@@V?$allocator@D@2@@std@@@2@V?$allocator@U?$pair@$$CBV?$basic_string@DU?$char_traits@D@std@@V?$allocator@D@2@@std@@H@std@@@2@$0A@@std@@@std@@KAABV?$basic_string@DU?$char_traits@D@std@@V?$allocator@D@2@@2@PAU_Node@?$_Tree_nod@V?$_Tmap_traits@V?$basic_string@DU?$char_traits@D@std@@V?$allocator@D@2@@std@@HU?$less@V?$basic_string@DU?$char_traits@D@std@@V?$allocator@D@2@@std@@@2@V?$allocator@U?$pair@$$CBV?$basic_string@DU?$char_traits@D@std@@V?$allocator@D@2@@std@@H@std@@@2@$0A@@std@@@2@@Z 0041b6f0 f i dpsrvr.obj
 0001:0001a700       ?_Root@?$_Tree@V?$_Tmap_traits@V?$basic_string@DU?$char_traits@D@std@@V?$allocator@D@2@@std@@HU?$less@V?$basic_string@DU?$char_traits@D@std@@V?$allocator@D@2@@std@@@2@V?$allocator@U?$pair@$$CBV?$basic_string@DU?$char_traits@D@std@@V?$allocator@D@2@@std@@H@std@@@2@$0A@@std@@@std@@IAEAAPAU_Node@?$_Tree_nod@V?$_Tmap_traits@V?$basic_string@DU?$char_traits@D@std@@V?$allocator@D@2@@std@@HU?$less@V?$basic_string@DU?$char_traits@D@std@@V?$allocator@D@2@@std@@@2@V?$allocator@U?$pair@$$CBV?$basic_string@DU?$char_traits@D@std@@V?$allocator@D@2@@std@@H@std@@@2@$0A@@std@@@2@XZ 0041b700 f i dpsrvr.obj
 0001:0001a710       ?_Key@?$_Tree@V?$_Tmap_traits@KP8CDPSrvr@@AEXAAVCAr@@KK@ZU?$less@K@std@@V?$allocator@U?$pair@$$CBKP8CDPSrvr@@AEXAAVCAr@@KK@Z@std@@@4@$0A@@std@@@std@@KAABKPAU_Node@?$_Tree_nod@V?$_Tmap_traits@KP8CDPSrvr@@AEXAAVCAr@@KK@ZU?$less@K@std@@V?$allocator@U?$pair@$$CBKP8CDPSrvr@@AEXAAVCAr@@KK@Z@std@@@4@$0A@@std@@@2@@Z 0041b710 f i dpsrvr.obj
 0001:0001a720       ?_Root@?$_Tree@V?$_Tmap_traits@KP8CDPSrvr@@AEXAAVCAr@@KK@ZU?$less@K@std@@V?$allocator@U?$pair@$$CBKP8CDPSrvr@@AEXAAVCAr@@KK@Z@std@@@4@$0A@@std@@@std@@IAEAAPAU_Node@?$_Tree_nod@V?$_Tmap_traits@KP8CDPSrvr@@AEXAAVCAr@@KK@ZU?$less@K@std@@V?$allocator@U?$pair@$$CBKP8CDPSrvr@@AEXAAVCAr@@KK@Z@std@@@4@$0A@@std@@@2@XZ 0041b720 f i dpsrvr.obj
 0001:0001a730       ??0iterator@?$_Tree@V?$_Tmap_traits@KP8CDPSrvr@@AEXAAVCAr@@KK@ZU?$less@K@std@@V?$allocator@U?$pair@$$CBKP8CDPSrvr@@AEXAAVCAr@@KK@Z@std@@@4@$0A@@std@@@std@@QAE@PAU_Node@?$_Tree_nod@V?$_Tmap_traits@KP8CDPSrvr@@AEXAAVCAr@@KK@ZU?$less@K@std@@V?$allocator@U?$pair@$$CBKP8CDPSrvr@@AEXAAVCAr@@KK@Z@std@@@4@$0A@@std@@@2@@Z 0041b730 f i dpsrvr.obj
 0001:0001a740       ??Diterator@?$_Tree@V?$_Tmap_traits@KP8CDPSrvr@@AEXAAVCAr@@KK@ZU?$less@K@std@@V?$allocator@U?$pair@$$CBKP8CDPSrvr@@AEXAAVCAr@@KK@Z@std@@@4@$0A@@std@@@std@@QBEAAU?$pair@$$CBKP8CDPSrvr@@AEXAAVCAr@@KK@Z@2@XZ 0041b740 f i dpsrvr.obj
 0001:0001a750       ??0iterator@?$_Tree@V?$_Tmap_traits@V?$basic_string@DU?$char_traits@D@std@@V?$allocator@D@2@@std@@HU?$less@V?$basic_string@DU?$char_traits@D@std@@V?$allocator@D@2@@std@@@2@V?$allocator@U?$pair@$$CBV?$basic_string@DU?$char_traits@D@std@@V?$allocator@D@2@@std@@H@std@@@2@$0A@@std@@@std@@QAE@PAU_Node@?$_Tree_nod@V?$_Tmap_traits@V?$basic_string@DU?$char_traits@D@std@@V?$allocator@D@2@@std@@HU?$less@V?$basic_string@DU?$char_traits@D@std@@V?$allocator@D@2@@std@@@2@V?$allocator@U?$pair@$$CBV?$basic_string@DU?$char_traits@D@std@@V?$allocator@D@2@@std@@H@std@@@2@$0A@@std@@@2@@Z 0041b750 f i dpsrvr.obj
 0001:0001a760       ??Diterator@?$_Tree@V?$_Tmap_traits@V?$basic_string@DU?$char_traits@D@std@@V?$allocator@D@2@@std@@HU?$less@V?$basic_string@DU?$char_traits@D@std@@V?$allocator@D@2@@std@@@2@V?$allocator@U?$pair@$$CBV?$basic_string@DU?$char_traits@D@std@@V?$allocator@D@2@@std@@H@std@@@2@$0A@@std@@@std@@QBEAAU?$pair@$$CBV?$basic_string@DU?$char_traits@D@std@@V?$allocator@D@2@@std@@H@2@XZ 0041b760 f i dpsrvr.obj
 0001:0001a770       ?max_size@?$_Tree@V?$_Tmap_traits@V?$basic_string@DU?$char_traits@D@std@@V?$allocator@D@2@@std@@HU?$less@V?$basic_string@DU?$char_traits@D@std@@V?$allocator@D@2@@std@@@2@V?$allocator@U?$pair@$$CBV?$basic_string@DU?$char_traits@D@std@@V?$allocator@D@2@@std@@H@std@@@2@$0A@@std@@@std@@QBEIXZ 0041b770 f i dpsrvr.obj
 0001:0001a780       ?_Lrotate@?$_Tree@V?$_Tmap_traits@V?$basic_string@DU?$char_traits@D@std@@V?$allocator@D@2@@std@@HU?$less@V?$basic_string@DU?$char_traits@D@std@@V?$allocator@D@2@@std@@@2@V?$allocator@U?$pair@$$CBV?$basic_string@DU?$char_traits@D@std@@V?$allocator@D@2@@std@@H@std@@@2@$0A@@std@@@std@@IAEXPAU_Node@?$_Tree_nod@V?$_Tmap_traits@V?$basic_string@DU?$char_traits@D@std@@V?$allocator@D@2@@std@@HU?$less@V?$basic_string@DU?$char_traits@D@std@@V?$allocator@D@2@@std@@@2@V?$allocator@U?$pair@$$CBV?$basic_string@DU?$char_traits@D@std@@V?$allocator@D@2@@std@@H@std@@@2@$0A@@std@@@2@@Z 0041b780 f i dpsrvr.obj
 0001:0001a7e0       ?_Rrotate@?$_Tree@V?$_Tmap_traits@V?$basic_string@DU?$char_traits@D@std@@V?$allocator@D@2@@std@@HU?$less@V?$basic_string@DU?$char_traits@D@std@@V?$allocator@D@2@@std@@@2@V?$allocator@U?$pair@$$CBV?$basic_string@DU?$char_traits@D@std@@V?$allocator@D@2@@std@@H@std@@@2@$0A@@std@@@std@@IAEXPAU_Node@?$_Tree_nod@V?$_Tmap_traits@V?$basic_string@DU?$char_traits@D@std@@V?$allocator@D@2@@std@@HU?$less@V?$basic_string@DU?$char_traits@D@std@@V?$allocator@D@2@@std@@@2@V?$allocator@U?$pair@$$CBV?$basic_string@DU?$char_traits@D@std@@V?$allocator@D@2@@std@@H@std@@@2@$0A@@std@@@2@@Z 0041b7e0 f i dpsrvr.obj
 0001:0001a840       ?destroy@?$allocator@PAU_Node@?$_Tree_nod@V?$_Tmap_traits@V?$basic_string@DU?$char_traits@D@std@@V?$allocator@D@2@@std@@HU?$less@V?$basic_string@DU?$char_traits@D@std@@V?$allocator@D@2@@std@@@2@V?$allocator@U?$pair@$$CBV?$basic_string@DU?$char_traits@D@std@@V?$allocator@D@2@@std@@H@std@@@2@$0A@@std@@@std@@@std@@QAEXPAPAU_Node@?$_Tree_nod@V?$_Tmap_traits@V?$basic_string@DU?$char_traits@D@std@@V?$allocator@D@2@@std@@HU?$less@V?$basic_string@DU?$char_traits@D@std@@V?$allocator@D@2@@std@@@2@V?$allocator@U?$pair@$$CBV?$basic_string@DU?$char_traits@D@std@@V?$allocator@D@2@@std@@H@std@@@2@$0A@@std@@@2@@Z 0041b840 f i dpsrvr.obj
 0001:0001a850       ?destroy@?$allocator@PAU_Node@?$_Tree_nod@V?$_Tmap_traits@KPAUtagSERVER_DESC@@U?$less@K@std@@V?$allocator@U?$pair@$$CBKPAUtagSERVER_DESC@@@std@@@3@$0A@@std@@@std@@@std@@QAEXPAPAU_Node@?$_Tree_nod@V?$_Tmap_traits@KPAUtagSERVER_DESC@@U?$less@K@std@@V?$allocator@U?$pair@$$CBKPAUtagSERVER_DESC@@@std@@@3@$0A@@std@@@2@@Z 0041b850 f i dpsrvr.obj
 0001:0001a860       ?max_size@?$_Tree@V?$_Tmap_traits@KP8CDPSrvr@@AEXAAVCAr@@KK@ZU?$less@K@std@@V?$allocator@U?$pair@$$CBKP8CDPSrvr@@AEXAAVCAr@@KK@Z@std@@@4@$0A@@std@@@std@@QBEIXZ 0041b860 f i dpsrvr.obj
 0001:0001a870       ?_Lbound@?$_Tree@V?$_Tmap_traits@KP8CDPSrvr@@AEXAAVCAr@@KK@ZU?$less@K@std@@V?$allocator@U?$pair@$$CBKP8CDPSrvr@@AEXAAVCAr@@KK@Z@std@@@4@$0A@@std@@@std@@IBEPAU_Node@?$_Tree_nod@V?$_Tmap_traits@KP8CDPSrvr@@AEXAAVCAr@@KK@ZU?$less@K@std@@V?$allocator@U?$pair@$$CBKP8CDPSrvr@@AEXAAVCAr@@KK@Z@std@@@4@$0A@@std@@@2@ABK@Z 0041b870 f i dpsrvr.obj
 0001:0001a8a0       ?_Lrotate@?$_Tree@V?$_Tmap_traits@KP8CDPSrvr@@AEXAAVCAr@@KK@ZU?$less@K@std@@V?$allocator@U?$pair@$$CBKP8CDPSrvr@@AEXAAVCAr@@KK@Z@std@@@4@$0A@@std@@@std@@IAEXPAU_Node@?$_Tree_nod@V?$_Tmap_traits@KP8CDPSrvr@@AEXAAVCAr@@KK@ZU?$less@K@std@@V?$allocator@U?$pair@$$CBKP8CDPSrvr@@AEXAAVCAr@@KK@Z@std@@@4@$0A@@std@@@2@@Z 0041b8a0 f i dpsrvr.obj
 0001:0001a900       ?_Rrotate@?$_Tree@V?$_Tmap_traits@KP8CDPSrvr@@AEXAAVCAr@@KK@ZU?$less@K@std@@V?$allocator@U?$pair@$$CBKP8CDPSrvr@@AEXAAVCAr@@KK@Z@std@@@4@$0A@@std@@@std@@IAEXPAU_Node@?$_Tree_nod@V?$_Tmap_traits@KP8CDPSrvr@@AEXAAVCAr@@KK@ZU?$less@K@std@@V?$allocator@U?$pair@$$CBKP8CDPSrvr@@AEXAAVCAr@@KK@Z@std@@@4@$0A@@std@@@2@@Z 0041b900 f i dpsrvr.obj
 0001:0001a960       ?destroy@?$allocator@PAU_Node@?$_Tree_nod@V?$_Tmap_traits@KP8CDPSrvr@@AEXAAVCAr@@KK@ZU?$less@K@std@@V?$allocator@U?$pair@$$CBKP8CDPSrvr@@AEXAAVCAr@@KK@Z@std@@@4@$0A@@std@@@std@@@std@@QAEXPAPAU_Node@?$_Tree_nod@V?$_Tmap_traits@KP8CDPSrvr@@AEXAAVCAr@@KK@ZU?$less@K@std@@V?$allocator@U?$pair@$$CBKP8CDPSrvr@@AEXAAVCAr@@KK@Z@std@@@4@$0A@@std@@@2@@Z 0041b960 f i dpsrvr.obj
 0001:0001a970       ?allocate@?$allocator@U_Node@?$_Tree_nod@V?$_Tmap_traits@V?$basic_string@DU?$char_traits@D@std@@V?$allocator@D@2@@std@@HU?$less@V?$basic_string@DU?$char_traits@D@std@@V?$allocator@D@2@@std@@@2@V?$allocator@U?$pair@$$CBV?$basic_string@DU?$char_traits@D@std@@V?$allocator@D@2@@std@@H@std@@@2@$0A@@std@@@std@@@std@@QAEPAU_Node@?$_Tree_nod@V?$_Tmap_traits@V?$basic_string@DU?$char_traits@D@std@@V?$allocator@D@2@@std@@HU?$less@V?$basic_string@DU?$char_traits@D@std@@V?$allocator@D@2@@std@@@2@V?$allocator@U?$pair@$$CBV?$basic_string@DU?$char_traits@D@std@@V?$allocator@D@2@@std@@H@std@@@2@$0A@@std@@@2@I@Z 0041b970 f i dpsrvr.obj
 0001:0001a990       ?allocate@?$allocator@U_Node@?$_Tree_nod@V?$_Tmap_traits@KP8CDPSrvr@@AEXAAVCAr@@KK@ZU?$less@K@std@@V?$allocator@U?$pair@$$CBKP8CDPSrvr@@AEXAAVCAr@@KK@Z@std@@@4@$0A@@std@@@std@@@std@@QAEPAU_Node@?$_Tree_nod@V?$_Tmap_traits@KP8CDPSrvr@@AEXAAVCAr@@KK@ZU?$less@K@std@@V?$allocator@U?$pair@$$CBKP8CDPSrvr@@AEXAAVCAr@@KK@Z@std@@@4@$0A@@std@@@2@I@Z 0041b990 f i dpsrvr.obj
 0001:0001a9b0       ?_Dec@const_iterator@?$_Tree@V?$_Tmap_traits@KP8CDPSrvr@@AEXAAVCAr@@KK@ZU?$less@K@std@@V?$allocator@U?$pair@$$CBKP8CDPSrvr@@AEXAAVCAr@@KK@Z@std@@@4@$0A@@std@@@std@@QAEXXZ 0041b9b0 f i dpsrvr.obj
 0001:0001aa10       ?_Dec@const_iterator@?$_Tree@V?$_Tmap_traits@V?$basic_string@DU?$char_traits@D@std@@V?$allocator@D@2@@std@@HU?$less@V?$basic_string@DU?$char_traits@D@std@@V?$allocator@D@2@@std@@@2@V?$allocator@U?$pair@$$CBV?$basic_string@DU?$char_traits@D@std@@V?$allocator@D@2@@std@@H@std@@@2@$0A@@std@@@std@@QAEXXZ 0041ba10 f i dpsrvr.obj
 0001:0001aa70       ??0?$_Tree_nod@V?$_Tmap_traits@V?$basic_string@DU?$char_traits@D@std@@V?$allocator@D@2@@std@@HU?$less@V?$basic_string@DU?$char_traits@D@std@@V?$allocator@D@2@@std@@@2@V?$allocator@U?$pair@$$CBV?$basic_string@DU?$char_traits@D@std@@V?$allocator@D@2@@std@@H@std@@@2@$0A@@std@@@std@@IAE@ABU?$less@V?$basic_string@DU?$char_traits@D@std@@V?$allocator@D@2@@std@@@1@V?$allocator@U?$pair@$$CBV?$basic_string@DU?$char_traits@D@std@@V?$allocator@D@2@@std@@H@std@@@1@@Z 0041ba70 f i dpsrvr.obj
 0001:0001aa80       ?construct@?$allocator@PAU_Node@?$_Tree_nod@V?$_Tmap_traits@V?$basic_string@DU?$char_traits@D@std@@V?$allocator@D@2@@std@@HU?$less@V?$basic_string@DU?$char_traits@D@std@@V?$allocator@D@2@@std@@@2@V?$allocator@U?$pair@$$CBV?$basic_string@DU?$char_traits@D@std@@V?$allocator@D@2@@std@@H@std@@@2@$0A@@std@@@std@@@std@@QAEXPAPAU_Node@?$_Tree_nod@V?$_Tmap_traits@V?$basic_string@DU?$char_traits@D@std@@V?$allocator@D@2@@std@@HU?$less@V?$basic_string@DU?$char_traits@D@std@@V?$allocator@D@2@@std@@@2@V?$allocator@U?$pair@$$CBV?$basic_string@DU?$char_traits@D@std@@V?$allocator@D@2@@std@@H@std@@@2@$0A@@std@@@2@ABQAU342@@Z 0041ba80 f i dpsrvr.obj
 0001:0001aaa0       ??0?$_Tree_nod@V?$_Tmap_traits@KPAUtagSERVER_DESC@@U?$less@K@std@@V?$allocator@U?$pair@$$CBKPAUtagSERVER_DESC@@@std@@@3@$0A@@std@@@std@@IAE@ABU?$less@K@1@V?$allocator@U?$pair@$$CBKPAUtagSERVER_DESC@@@std@@@1@@Z 0041baa0 f i dpsrvr.obj
 0001:0001aab0       ?destroy@?$allocator@U_Node@?$_Tree_nod@V?$_Tmap_traits@KPAUtagSERVER_DESC@@U?$less@K@std@@V?$allocator@U?$pair@$$CBKPAUtagSERVER_DESC@@@std@@@3@$0A@@std@@@std@@@std@@QAEXPAU_Node@?$_Tree_nod@V?$_Tmap_traits@KPAUtagSERVER_DESC@@U?$less@K@std@@V?$allocator@U?$pair@$$CBKPAUtagSERVER_DESC@@@std@@@3@$0A@@std@@@2@@Z 0041bab0 f i dpsrvr.obj
 0001:0001aac0       ?construct@?$allocator@PAU_Node@?$_Tree_nod@V?$_Tmap_traits@KPAUtagSERVER_DESC@@U?$less@K@std@@V?$allocator@U?$pair@$$CBKPAUtagSERVER_DESC@@@std@@@3@$0A@@std@@@std@@@std@@QAEXPAPAU_Node@?$_Tree_nod@V?$_Tmap_traits@KPAUtagSERVER_DESC@@U?$less@K@std@@V?$allocator@U?$pair@$$CBKPAUtagSERVER_DESC@@@std@@@3@$0A@@std@@@2@ABQAU342@@Z 0041bac0 f i dpsrvr.obj
 0001:0001aae0       ??0?$_Tree_nod@V?$_Tmap_traits@KP8CDPSrvr@@AEXAAVCAr@@KK@ZU?$less@K@std@@V?$allocator@U?$pair@$$CBKP8CDPSrvr@@AEXAAVCAr@@KK@Z@std@@@4@$0A@@std@@@std@@IAE@ABU?$less@K@1@V?$allocator@U?$pair@$$CBKP8CDPSrvr@@AEXAAVCAr@@KK@Z@std@@@1@@Z 0041bae0 f i dpsrvr.obj
 0001:0001aaf0       ?destroy@?$allocator@U_Node@?$_Tree_nod@V?$_Tmap_traits@KP8CDPSrvr@@AEXAAVCAr@@KK@ZU?$less@K@std@@V?$allocator@U?$pair@$$CBKP8CDPSrvr@@AEXAAVCAr@@KK@Z@std@@@4@$0A@@std@@@std@@@std@@QAEXPAU_Node@?$_Tree_nod@V?$_Tmap_traits@KP8CDPSrvr@@AEXAAVCAr@@KK@ZU?$less@K@std@@V?$allocator@U?$pair@$$CBKP8CDPSrvr@@AEXAAVCAr@@KK@Z@std@@@4@$0A@@std@@@2@@Z 0041baf0 f i dpsrvr.obj
 0001:0001ab00       ?construct@?$allocator@PAU_Node@?$_Tree_nod@V?$_Tmap_traits@KP8CDPSrvr@@AEXAAVCAr@@KK@ZU?$less@K@std@@V?$allocator@U?$pair@$$CBKP8CDPSrvr@@AEXAAVCAr@@KK@Z@std@@@4@$0A@@std@@@std@@@std@@QAEXPAPAU_Node@?$_Tree_nod@V?$_Tmap_traits@KP8CDPSrvr@@AEXAAVCAr@@KK@ZU?$less@K@std@@V?$allocator@U?$pair@$$CBKP8CDPSrvr@@AEXAAVCAr@@KK@Z@std@@@4@$0A@@std@@@2@ABQAU342@@Z 0041bb00 f i dpsrvr.obj
 0001:0001ab20       ??Econst_iterator@?$_Tree@V?$_Tmap_traits@KP8CDPSrvr@@AEXAAVCAr@@KK@ZU?$less@K@std@@V?$allocator@U?$pair@$$CBKP8CDPSrvr@@AEXAAVCAr@@KK@Z@std@@@4@$0A@@std@@@std@@QAEAAV012@XZ 0041bb20 f i dpsrvr.obj
 0001:0001ab30       ??Econst_iterator@?$_Tree@V?$_Tmap_traits@V?$basic_string@DU?$char_traits@D@std@@V?$allocator@D@2@@std@@HU?$less@V?$basic_string@DU?$char_traits@D@std@@V?$allocator@D@2@@std@@@2@V?$allocator@U?$pair@$$CBV?$basic_string@DU?$char_traits@D@std@@V?$allocator@D@2@@std@@H@std@@@2@$0A@@std@@@std@@QAEAAV012@XZ 0041bb30 f i dpsrvr.obj
 0001:0001ab40       ??Econst_iterator@?$_Tree@V?$_Tmap_traits@KPAUtagSERVER_DESC@@U?$less@K@std@@V?$allocator@U?$pair@$$CBKPAUtagSERVER_DESC@@@std@@@3@$0A@@std@@@std@@QAEAAV012@XZ 0041bb40 f i dpsrvr.obj
 0001:0001ab50       ?DestroyPlayer@CDPSrvr@@QAEXKK@Z 0041bb50 f   dpsrvr.obj
 0001:0001ac40       ?OnAfterChecking@CDPSrvr@@QAEXEPBDKKKEJ00@Z 0041bc40 f   dpsrvr.obj
 0001:0001ae00       ?SendServersetList@CDPSrvr@@QAEXK@Z 0041be00 f   dpsrvr.obj
 0001:0001b010       ?SendPlayerCount@CDPSrvr@@QAEXKJ@Z 0041c010 f   dpsrvr.obj
 0001:0001b140       ?SendEnableServer@CDPSrvr@@QAEXKJ@Z 0041c140 f   dpsrvr.obj
 0001:0001b270       ?CloseExistingConnection@CDPSrvr@@QAEXPBDJ@Z 0041c270 f   dpsrvr.obj
 0001:0001b320       ?end@?$_Tree@V?$_Tmap_traits@V?$basic_string@DU?$char_traits@D@std@@V?$allocator@D@2@@std@@HU?$less@V?$basic_string@DU?$char_traits@D@std@@V?$allocator@D@2@@std@@@2@V?$allocator@U?$pair@$$CBV?$basic_string@DU?$char_traits@D@std@@V?$allocator@D@2@@std@@H@std@@@2@$0A@@std@@@std@@QAE?AViterator@12@XZ 0041c320 f i dpsrvr.obj
 0001:0001b330       ?end@?$_Tree@V?$_Tmap_traits@KP8CDPSrvr@@AEXAAVCAr@@KK@ZU?$less@K@std@@V?$allocator@U?$pair@$$CBKP8CDPSrvr@@AEXAAVCAr@@KK@Z@std@@@4@$0A@@std@@@std@@QAE?AViterator@12@XZ 0041c330 f i dpsrvr.obj
 0001:0001b340       ??Citerator@?$_Tree@V?$_Tmap_traits@KP8CDPSrvr@@AEXAAVCAr@@KK@ZU?$less@K@std@@V?$allocator@U?$pair@$$CBKP8CDPSrvr@@AEXAAVCAr@@KK@Z@std@@@4@$0A@@std@@@std@@QBEPAU?$pair@$$CBKP8CDPSrvr@@AEXAAVCAr@@KK@Z@2@XZ 0041c340 f i dpsrvr.obj
 0001:0001b350       ??Citerator@?$_Tree@V?$_Tmap_traits@V?$basic_string@DU?$char_traits@D@std@@V?$allocator@D@2@@std@@HU?$less@V?$basic_string@DU?$char_traits@D@std@@V?$allocator@D@2@@std@@@2@V?$allocator@U?$pair@$$CBV?$basic_string@DU?$char_traits@D@std@@V?$allocator@D@2@@std@@H@std@@@2@$0A@@std@@@std@@QBEPAU?$pair@$$CBV?$basic_string@DU?$char_traits@D@std@@V?$allocator@D@2@@std@@H@2@XZ 0041c350 f i dpsrvr.obj
 0001:0001b360       ?begin@?$_Tree@V?$_Tmap_traits@V?$basic_string@DU?$char_traits@D@std@@V?$allocator@D@2@@std@@HU?$less@V?$basic_string@DU?$char_traits@D@std@@V?$allocator@D@2@@std@@@2@V?$allocator@U?$pair@$$CBV?$basic_string@DU?$char_traits@D@std@@V?$allocator@D@2@@std@@H@std@@@2@$0A@@std@@@std@@QAE?AViterator@12@XZ 0041c360 f i dpsrvr.obj
 0001:0001b370       ?begin@?$_Tree@V?$_Tmap_traits@KP8CDPSrvr@@AEXAAVCAr@@KK@ZU?$less@K@std@@V?$allocator@U?$pair@$$CBKP8CDPSrvr@@AEXAAVCAr@@KK@Z@std@@@4@$0A@@std@@@std@@QAE?AViterator@12@XZ 0041c370 f i dpsrvr.obj
 0001:0001b380       ?lower_bound@?$_Tree@V?$_Tmap_traits@KP8CDPSrvr@@AEXAAVCAr@@KK@ZU?$less@K@std@@V?$allocator@U?$pair@$$CBKP8CDPSrvr@@AEXAAVCAr@@KK@Z@std@@@4@$0A@@std@@@std@@QAE?AViterator@12@ABK@Z 0041c380 f i dpsrvr.obj
 0001:0001b3c0       ?_Buynode@?$_Tree@V?$_Tmap_traits@KP8CDPSrvr@@AEXAAVCAr@@KK@ZU?$less@K@std@@V?$allocator@U?$pair@$$CBKP8CDPSrvr@@AEXAAVCAr@@KK@Z@std@@@4@$0A@@std@@@std@@IAEPAU_Node@?$_Tree_nod@V?$_Tmap_traits@KP8CDPSrvr@@AEXAAVCAr@@KK@ZU?$less@K@std@@V?$allocator@U?$pair@$$CBKP8CDPSrvr@@AEXAAVCAr@@KK@Z@std@@@4@$0A@@std@@@2@PAU342@00ABU?$pair@$$CBKP8CDPSrvr@@AEXAAVCAr@@KK@Z@2@D@Z 0041c3c0 f i dpsrvr.obj
 0001:0001b400       ??Fconst_iterator@?$_Tree@V?$_Tmap_traits@KP8CDPSrvr@@AEXAAVCAr@@KK@ZU?$less@K@std@@V?$allocator@U?$pair@$$CBKP8CDPSrvr@@AEXAAVCAr@@KK@Z@std@@@4@$0A@@std@@@std@@QAEAAV012@XZ 0041c400 f i dpsrvr.obj
 0001:0001b410       ??Fconst_iterator@?$_Tree@V?$_Tmap_traits@V?$basic_string@DU?$char_traits@D@std@@V?$allocator@D@2@@std@@HU?$less@V?$basic_string@DU?$char_traits@D@std@@V?$allocator@D@2@@std@@@2@V?$allocator@U?$pair@$$CBV?$basic_string@DU?$char_traits@D@std@@V?$allocator@D@2@@std@@H@std@@@2@$0A@@std@@@std@@QAEAAV012@XZ 0041c410 f i dpsrvr.obj
 0001:0001b420       ?_Buynode@?$_Tree@V?$_Tmap_traits@V?$basic_string@DU?$char_traits@D@std@@V?$allocator@D@2@@std@@HU?$less@V?$basic_string@DU?$char_traits@D@std@@V?$allocator@D@2@@std@@@2@V?$allocator@U?$pair@$$CBV?$basic_string@DU?$char_traits@D@std@@V?$allocator@D@2@@std@@H@std@@@2@$0A@@std@@@std@@IAEPAU_Node@?$_Tree_nod@V?$_Tmap_traits@V?$basic_string@DU?$char_traits@D@std@@V?$allocator@D@2@@std@@HU?$less@V?$basic_string@DU?$char_traits@D@std@@V?$allocator@D@2@@std@@@2@V?$allocator@U?$pair@$$CBV?$basic_string@DU?$char_traits@D@std@@V?$allocator@D@2@@std@@H@std@@@2@$0A@@std@@@2@XZ 0041c420 f i dpsrvr.obj
 0001:0001b460       ??0?$_Tree_ptr@V?$_Tmap_traits@V?$basic_string@DU?$char_traits@D@std@@V?$allocator@D@2@@std@@HU?$less@V?$basic_string@DU?$char_traits@D@std@@V?$allocator@D@2@@std@@@2@V?$allocator@U?$pair@$$CBV?$basic_string@DU?$char_traits@D@std@@V?$allocator@D@2@@std@@H@std@@@2@$0A@@std@@@std@@IAE@ABU?$less@V?$basic_string@DU?$char_traits@D@std@@V?$allocator@D@2@@std@@@1@V?$allocator@U?$pair@$$CBV?$basic_string@DU?$char_traits@D@std@@V?$allocator@D@2@@std@@H@std@@@1@@Z 0041c460 f i dpsrvr.obj
 0001:0001b470       ?_Buynode@?$_Tree@V?$_Tmap_traits@KPAUtagSERVER_DESC@@U?$less@K@std@@V?$allocator@U?$pair@$$CBKPAUtagSERVER_DESC@@@std@@@3@$0A@@std@@@std@@IAEPAU_Node@?$_Tree_nod@V?$_Tmap_traits@KPAUtagSERVER_DESC@@U?$less@K@std@@V?$allocator@U?$pair@$$CBKPAUtagSERVER_DESC@@@std@@@3@$0A@@std@@@2@XZ 0041c470 f i dpsrvr.obj
 0001:0001b4b0       ??0?$_Tree_ptr@V?$_Tmap_traits@KPAUtagSERVER_DESC@@U?$less@K@std@@V?$allocator@U?$pair@$$CBKPAUtagSERVER_DESC@@@std@@@3@$0A@@std@@@std@@IAE@ABU?$less@K@1@V?$allocator@U?$pair@$$CBKPAUtagSERVER_DESC@@@std@@@1@@Z 0041c4b0 f i dpsrvr.obj
 0001:0001b4c0       ?_Buynode@?$_Tree@V?$_Tmap_traits@KP8CDPSrvr@@AEXAAVCAr@@KK@ZU?$less@K@std@@V?$allocator@U?$pair@$$CBKP8CDPSrvr@@AEXAAVCAr@@KK@Z@std@@@4@$0A@@std@@@std@@IAEPAU_Node@?$_Tree_nod@V?$_Tmap_traits@KP8CDPSrvr@@AEXAAVCAr@@KK@ZU?$less@K@std@@V?$allocator@U?$pair@$$CBKP8CDPSrvr@@AEXAAVCAr@@KK@Z@std@@@4@$0A@@std@@@2@XZ 0041c4c0 f i dpsrvr.obj
 0001:0001b500       ??0?$_Tree_ptr@V?$_Tmap_traits@KP8CDPSrvr@@AEXAAVCAr@@KK@ZU?$less@K@std@@V?$allocator@U?$pair@$$CBKP8CDPSrvr@@AEXAAVCAr@@KK@Z@std@@@4@$0A@@std@@@std@@IAE@ABU?$less@K@1@V?$allocator@U?$pair@$$CBKP8CDPSrvr@@AEXAAVCAr@@KK@Z@std@@@1@@Z 0041c500 f i dpsrvr.obj
 0001:0001b510       ?_Erase@?$_Tree@V?$_Tmap_traits@KPAUtagSERVER_DESC@@U?$less@K@std@@V?$allocator@U?$pair@$$CBKPAUtagSERVER_DESC@@@std@@@3@$0A@@std@@@std@@IAEXPAU_Node@?$_Tree_nod@V?$_Tmap_traits@KPAUtagSERVER_DESC@@U?$less@K@std@@V?$allocator@U?$pair@$$CBKPAUtagSERVER_DESC@@@std@@@3@$0A@@std@@@2@@Z 0041c510 f i dpsrvr.obj
 0001:0001b550       ?_Erase@?$_Tree@V?$_Tmap_traits@KP8CDPSrvr@@AEXAAVCAr@@KK@ZU?$less@K@std@@V?$allocator@U?$pair@$$CBKP8CDPSrvr@@AEXAAVCAr@@KK@Z@std@@@4@$0A@@std@@@std@@IAEXPAU_Node@?$_Tree_nod@V?$_Tmap_traits@KP8CDPSrvr@@AEXAAVCAr@@KK@ZU?$less@K@std@@V?$allocator@U?$pair@$$CBKP8CDPSrvr@@AEXAAVCAr@@KK@Z@std@@@4@$0A@@std@@@2@@Z 0041c550 f i dpsrvr.obj
 0001:0001b590       ??Eiterator@?$_Tree@V?$_Tmap_traits@KP8CDPSrvr@@AEXAAVCAr@@KK@ZU?$less@K@std@@V?$allocator@U?$pair@$$CBKP8CDPSrvr@@AEXAAVCAr@@KK@Z@std@@@4@$0A@@std@@@std@@QAEAAV012@XZ 0041c590 f i dpsrvr.obj
 0001:0001b5a0       ??Eiterator@?$_Tree@V?$_Tmap_traits@V?$basic_string@DU?$char_traits@D@std@@V?$allocator@D@2@@std@@HU?$less@V?$basic_string@DU?$char_traits@D@std@@V?$allocator@D@2@@std@@@2@V?$allocator@U?$pair@$$CBV?$basic_string@DU?$char_traits@D@std@@V?$allocator@D@2@@std@@H@std@@@2@$0A@@std@@@std@@QAEAAV012@XZ 0041c5a0 f i dpsrvr.obj
 0001:0001b5b0       ??Eiterator@?$_Tree@V?$_Tmap_traits@KPAUtagSERVER_DESC@@U?$less@K@std@@V?$allocator@U?$pair@$$CBKPAUtagSERVER_DESC@@@std@@@3@$0A@@std@@@std@@QAEAAV012@XZ 0041c5b0 f i dpsrvr.obj
 0001:0001b5c0       ??0?$CStringT@DV?$StrTraitMFC@DV?$ChTraitsCRT@D@ATL@@@@@ATL@@QAE@XZ 0041c5c0 f i dpsrvr.obj
 0001:0001b5e0       ?Find@?$CStringT@DV?$StrTraitMFC@DV?$ChTraitsCRT@D@ATL@@@@@ATL@@QBEHPBDH@Z 0041c5e0 f i dpsrvr.obj
 0001:0001b620       ?OnAddConnection@CDPSrvr@@QAEXK@Z 0041c620 f   dpsrvr.obj
 0001:0001b640       ?OnCloseExistingConnection@CDPSrvr@@AAEXAAVCAr@@KK@Z 0041c640 f   dpsrvr.obj
 0001:0001b6a0       ?find@?$_Tree@V?$_Tmap_traits@KP8CDPSrvr@@AEXAAVCAr@@KK@ZU?$less@K@std@@V?$allocator@U?$pair@$$CBKP8CDPSrvr@@AEXAAVCAr@@KK@Z@std@@@4@$0A@@std@@@std@@QAE?AViterator@12@ABK@Z 0041c6a0 f i dpsrvr.obj
 0001:0001b710       ??Fiterator@?$_Tree@V?$_Tmap_traits@KP8CDPSrvr@@AEXAAVCAr@@KK@ZU?$less@K@std@@V?$allocator@U?$pair@$$CBKP8CDPSrvr@@AEXAAVCAr@@KK@Z@std@@@4@$0A@@std@@@std@@QAEAAV012@XZ 0041c710 f i dpsrvr.obj
 0001:0001b720       ??Fiterator@?$_Tree@V?$_Tmap_traits@V?$basic_string@DU?$char_traits@D@std@@V?$allocator@D@2@@std@@HU?$less@V?$basic_string@DU?$char_traits@D@std@@V?$allocator@D@2@@std@@@2@V?$allocator@U?$pair@$$CBV?$basic_string@DU?$char_traits@D@std@@V?$allocator@D@2@@std@@H@std@@@2@$0A@@std@@@std@@QAEAAV012@XZ 0041c720 f i dpsrvr.obj
 0001:0001b730       ?_Init@?$_Tree@V?$_Tmap_traits@V?$basic_string@DU?$char_traits@D@std@@V?$allocator@D@2@@std@@HU?$less@V?$basic_string@DU?$char_traits@D@std@@V?$allocator@D@2@@std@@@2@V?$allocator@U?$pair@$$CBV?$basic_string@DU?$char_traits@D@std@@V?$allocator@D@2@@std@@H@std@@@2@$0A@@std@@@std@@IAEXXZ 0041c730 f i dpsrvr.obj
 0001:0001b760       ??0?$_Tree_val@V?$_Tmap_traits@V?$basic_string@DU?$char_traits@D@std@@V?$allocator@D@2@@std@@HU?$less@V?$basic_string@DU?$char_traits@D@std@@V?$allocator@D@2@@std@@@2@V?$allocator@U?$pair@$$CBV?$basic_string@DU?$char_traits@D@std@@V?$allocator@D@2@@std@@H@std@@@2@$0A@@std@@@std@@IAE@ABU?$less@V?$basic_string@DU?$char_traits@D@std@@V?$allocator@D@2@@std@@@1@V?$allocator@U?$pair@$$CBV?$basic_string@DU?$char_traits@D@std@@V?$allocator@D@2@@std@@H@std@@@1@@Z 0041c760 f i dpsrvr.obj
 0001:0001b770       ?_Init@?$_Tree@V?$_Tmap_traits@KPAUtagSERVER_DESC@@U?$less@K@std@@V?$allocator@U?$pair@$$CBKPAUtagSERVER_DESC@@@std@@@3@$0A@@std@@@std@@IAEXXZ 0041c770 f i dpsrvr.obj
 0001:0001b7a0       ??0?$_Tree_val@V?$_Tmap_traits@KPAUtagSERVER_DESC@@U?$less@K@std@@V?$allocator@U?$pair@$$CBKPAUtagSERVER_DESC@@@std@@@3@$0A@@std@@@std@@IAE@ABU?$less@K@1@V?$allocator@U?$pair@$$CBKPAUtagSERVER_DESC@@@std@@@1@@Z 0041c7a0 f i dpsrvr.obj
 0001:0001b7b0       ?_Init@?$_Tree@V?$_Tmap_traits@KP8CDPSrvr@@AEXAAVCAr@@KK@ZU?$less@K@std@@V?$allocator@U?$pair@$$CBKP8CDPSrvr@@AEXAAVCAr@@KK@Z@std@@@4@$0A@@std@@@std@@IAEXXZ 0041c7b0 f i dpsrvr.obj
 0001:0001b7e0       ??0?$_Tree_val@V?$_Tmap_traits@KP8CDPSrvr@@AEXAAVCAr@@KK@ZU?$less@K@std@@V?$allocator@U?$pair@$$CBKP8CDPSrvr@@AEXAAVCAr@@KK@Z@std@@@4@$0A@@std@@@std@@IAE@ABU?$less@K@1@V?$allocator@U?$pair@$$CBKP8CDPSrvr@@AEXAAVCAr@@KK@Z@std@@@1@@Z 0041c7e0 f i dpsrvr.obj
 0001:0001b7f0       ?clear@?$_Tree@V?$_Tmap_traits@KPAUtagSERVER_DESC@@U?$less@K@std@@V?$allocator@U?$pair@$$CBKPAUtagSERVER_DESC@@@std@@@3@$0A@@std@@@std@@QAEXXZ 0041c7f0 f i dpsrvr.obj
 0001:0001b820       ?clear@?$_Tree@V?$_Tmap_traits@KP8CDPSrvr@@AEXAAVCAr@@KK@ZU?$less@K@std@@V?$allocator@U?$pair@$$CBKP8CDPSrvr@@AEXAAVCAr@@KK@Z@std@@@4@$0A@@std@@@std@@QAEXXZ 0041c820 f i dpsrvr.obj
 0001:0001b850       ??Eiterator@?$_Tree@V?$_Tmap_traits@KP8CDPSrvr@@AEXAAVCAr@@KK@ZU?$less@K@std@@V?$allocator@U?$pair@$$CBKP8CDPSrvr@@AEXAAVCAr@@KK@Z@std@@@4@$0A@@std@@@std@@QAE?AV012@H@Z 0041c850 f i dpsrvr.obj
 0001:0001b870       ??Eiterator@?$_Tree@V?$_Tmap_traits@V?$basic_string@DU?$char_traits@D@std@@V?$allocator@D@2@@std@@HU?$less@V?$basic_string@DU?$char_traits@D@std@@V?$allocator@D@2@@std@@@2@V?$allocator@U?$pair@$$CBV?$basic_string@DU?$char_traits@D@std@@V?$allocator@D@2@@std@@H@std@@@2@$0A@@std@@@std@@QAE?AV012@H@Z 0041c870 f i dpsrvr.obj
 0001:0001b890       ??Eiterator@?$_Tree@V?$_Tmap_traits@KPAUtagSERVER_DESC@@U?$less@K@std@@V?$allocator@U?$pair@$$CBKPAUtagSERVER_DESC@@@std@@@3@$0A@@std@@@std@@QAE?AV012@H@Z 0041c890 f i dpsrvr.obj
 0001:0001b8b0       ?GetHandler@CDPSrvr@@AAEP81@AEXAAVCAr@@KK@ZK@Z 0041c8b0 f i dpsrvr.obj
 0001:0001b8f0       ?SysMessageHandler@CDPSrvr@@UAEXPAUDPMSG_GENERIC@@KK@Z 0041c8f0 f   dpsrvr.obj
 0001:0001b940       ?UserMessageHandler@CDPSrvr@@UAEXPAUDPMSG_GENERIC@@KK@Z 0041c940 f   dpsrvr.obj
 0001:0001ba40       ??1?$pair@$$CBV?$basic_string@DU?$char_traits@D@std@@V?$allocator@D@2@@std@@H@std@@QAE@XZ 0041ca40 f i dpsrvr.obj
 0001:0001ba70       ?EnableServer@CDPSrvr@@QAEHKKJ@Z 0041ca70 f   dpsrvr.obj
 0001:0001bb10       ??0?$_Tree@V?$_Tmap_traits@V?$basic_string@DU?$char_traits@D@std@@V?$allocator@D@2@@std@@HU?$less@V?$basic_string@DU?$char_traits@D@std@@V?$allocator@D@2@@std@@@2@V?$allocator@U?$pair@$$CBV?$basic_string@DU?$char_traits@D@std@@V?$allocator@D@2@@std@@H@std@@@2@$0A@@std@@@std@@QAE@ABU?$less@V?$basic_string@DU?$char_traits@D@std@@V?$allocator@D@2@@std@@@1@ABV?$allocator@U?$pair@$$CBV?$basic_string@DU?$char_traits@D@std@@V?$allocator@D@2@@std@@H@std@@@1@@Z 0041cb10 f i dpsrvr.obj
 0001:0001bb40       ??0?$_Tree@V?$_Tmap_traits@KPAUtagSERVER_DESC@@U?$less@K@std@@V?$allocator@U?$pair@$$CBKPAUtagSERVER_DESC@@@std@@@3@$0A@@std@@@std@@QAE@ABU?$less@K@1@ABV?$allocator@U?$pair@$$CBKPAUtagSERVER_DESC@@@std@@@1@@Z 0041cb40 f i dpsrvr.obj
 0001:0001bb70       ??0?$_Tree@V?$_Tmap_traits@KP8CDPSrvr@@AEXAAVCAr@@KK@ZU?$less@K@std@@V?$allocator@U?$pair@$$CBKP8CDPSrvr@@AEXAAVCAr@@KK@Z@std@@@4@$0A@@std@@@std@@QAE@ABU?$less@K@1@ABV?$allocator@U?$pair@$$CBKP8CDPSrvr@@AEXAAVCAr@@KK@Z@std@@@1@@Z 0041cb70 f i dpsrvr.obj
 0001:0001bba0       ?_Lbound@?$_Tree@V?$_Tmap_traits@V?$basic_string@DU?$char_traits@D@std@@V?$allocator@D@2@@std@@HU?$less@V?$basic_string@DU?$char_traits@D@std@@V?$allocator@D@2@@std@@@2@V?$allocator@U?$pair@$$CBV?$basic_string@DU?$char_traits@D@std@@V?$allocator@D@2@@std@@H@std@@@2@$0A@@std@@@std@@IBEPAU_Node@?$_Tree_nod@V?$_Tmap_traits@V?$basic_string@DU?$char_traits@D@std@@V?$allocator@D@2@@std@@HU?$less@V?$basic_string@DU?$char_traits@D@std@@V?$allocator@D@2@@std@@@2@V?$allocator@U?$pair@$$CBV?$basic_string@DU?$char_traits@D@std@@V?$allocator@D@2@@std@@H@std@@@2@$0A@@std@@@2@ABV?$basic_string@DU?$char_traits@D@std@@V?$allocator@D@2@@2@@Z 0041cba0 f i dpsrvr.obj
 0001:0001bc60       ??1_Node@?$_Tree_nod@V?$_Tmap_traits@V?$basic_string@DU?$char_traits@D@std@@V?$allocator@D@2@@std@@HU?$less@V?$basic_string@DU?$char_traits@D@std@@V?$allocator@D@2@@std@@@2@V?$allocator@U?$pair@$$CBV?$basic_string@DU?$char_traits@D@std@@V?$allocator@D@2@@std@@H@std@@@2@$0A@@std@@@std@@QAE@XZ 0041cc60 f i dpsrvr.obj
 0001:0001bc90       ?lower_bound@?$_Tree@V?$_Tmap_traits@V?$basic_string@DU?$char_traits@D@std@@V?$allocator@D@2@@std@@HU?$less@V?$basic_string@DU?$char_traits@D@std@@V?$allocator@D@2@@std@@@2@V?$allocator@U?$pair@$$CBV?$basic_string@DU?$char_traits@D@std@@V?$allocator@D@2@@std@@H@std@@@2@$0A@@std@@@std@@QAE?AViterator@12@ABV?$basic_string@DU?$char_traits@D@std@@V?$allocator@D@2@@2@@Z 0041cc90 f i dpsrvr.obj
 0001:0001bcb0       ??_G_Node@?$_Tree_nod@V?$_Tmap_traits@V?$basic_string@DU?$char_traits@D@std@@V?$allocator@D@2@@std@@HU?$less@V?$basic_string@DU?$char_traits@D@std@@V?$allocator@D@2@@std@@@2@V?$allocator@U?$pair@$$CBV?$basic_string@DU?$char_traits@D@std@@V?$allocator@D@2@@std@@H@std@@@2@$0A@@std@@@std@@QAEPAXI@Z 0041ccb0 f i dpsrvr.obj
 0001:0001bcd0       ?find@?$_Tree@V?$_Tmap_traits@V?$basic_string@DU?$char_traits@D@std@@V?$allocator@D@2@@std@@HU?$less@V?$basic_string@DU?$char_traits@D@std@@V?$allocator@D@2@@std@@@2@V?$allocator@U?$pair@$$CBV?$basic_string@DU?$char_traits@D@std@@V?$allocator@D@2@@std@@H@std@@@2@$0A@@std@@@std@@QAE?AViterator@12@ABV?$basic_string@DU?$char_traits@D@std@@V?$allocator@D@2@@2@@Z 0041ccd0 f i dpsrvr.obj
 0001:0001bd40       ??0?$pair@$$CBV?$basic_string@DU?$char_traits@D@std@@V?$allocator@D@2@@std@@H@std@@QAE@ABV?$basic_string@DU?$char_traits@D@std@@V?$allocator@D@2@@1@ABH@Z 0041cd40 f i dpsrvr.obj
 0001:0001bd70       ??0?$pair@$$CBV?$basic_string@DU?$char_traits@D@std@@V?$allocator@D@2@@std@@H@std@@QAE@ABU01@@Z 0041cd70 f i dpsrvr.obj
 0001:0001bda0       ??$_Destroy@U_Node@?$_Tree_nod@V?$_Tmap_traits@V?$basic_string@DU?$char_traits@D@std@@V?$allocator@D@2@@std@@HU?$less@V?$basic_string@DU?$char_traits@D@std@@V?$allocator@D@2@@std@@@2@V?$allocator@U?$pair@$$CBV?$basic_string@DU?$char_traits@D@std@@V?$allocator@D@2@@std@@H@std@@@2@$0A@@std@@@std@@@std@@YAXPAU_Node@?$_Tree_nod@V?$_Tmap_traits@V?$basic_string@DU?$char_traits@D@std@@V?$allocator@D@2@@std@@HU?$less@V?$basic_string@DU?$char_traits@D@std@@V?$allocator@D@2@@std@@@2@V?$allocator@U?$pair@$$CBV?$basic_string@DU?$char_traits@D@std@@V?$allocator@D@2@@std@@H@std@@@2@$0A@@std@@@0@@Z 0041cda0 f i dpsrvr.obj
 0001:0001bdb0       ?GetABCClasstoString@CDPSrvr@@QAEXPBDPADAAH@Z 0041cdb0 f   dpsrvr.obj
 0001:0001bf90       ?_Insert@?$_Tree@V?$_Tmap_traits@KP8CDPSrvr@@AEXAAVCAr@@KK@ZU?$less@K@std@@V?$allocator@U?$pair@$$CBKP8CDPSrvr@@AEXAAVCAr@@KK@Z@std@@@4@$0A@@std@@@std@@IAE?AViterator@12@_NPAU_Node@?$_Tree_nod@V?$_Tmap_traits@KP8CDPSrvr@@AEXAAVCAr@@KK@ZU?$less@K@std@@V?$allocator@U?$pair@$$CBKP8CDPSrvr@@AEXAAVCAr@@KK@Z@std@@@4@$0A@@std@@@2@ABU?$pair@$$CBKP8CDPSrvr@@AEXAAVCAr@@KK@Z@2@@Z 0041cf90 f i dpsrvr.obj
 0001:0001c140       ?destroy@?$allocator@U_Node@?$_Tree_nod@V?$_Tmap_traits@V?$basic_string@DU?$char_traits@D@std@@V?$allocator@D@2@@std@@HU?$less@V?$basic_string@DU?$char_traits@D@std@@V?$allocator@D@2@@std@@@2@V?$allocator@U?$pair@$$CBV?$basic_string@DU?$char_traits@D@std@@V?$allocator@D@2@@std@@H@std@@@2@$0A@@std@@@std@@@std@@QAEXPAU_Node@?$_Tree_nod@V?$_Tmap_traits@V?$basic_string@DU?$char_traits@D@std@@V?$allocator@D@2@@std@@HU?$less@V?$basic_string@DU?$char_traits@D@std@@V?$allocator@D@2@@std@@@2@V?$allocator@U?$pair@$$CBV?$basic_string@DU?$char_traits@D@std@@V?$allocator@D@2@@std@@H@std@@@2@$0A@@std@@@2@@Z 0041d140 f i dpsrvr.obj
 0001:0001c150       ?erase@?$_Tree@V?$_Tmap_traits@V?$basic_string@DU?$char_traits@D@std@@V?$allocator@D@2@@std@@HU?$less@V?$basic_string@DU?$char_traits@D@std@@V?$allocator@D@2@@std@@@2@V?$allocator@U?$pair@$$CBV?$basic_string@DU?$char_traits@D@std@@V?$allocator@D@2@@std@@H@std@@@2@$0A@@std@@@std@@QAE?AViterator@12@V312@@Z 0041d150 f i dpsrvr.obj
 0001:0001c430       ?erase@?$_Tree@V?$_Tmap_traits@KPAUtagSERVER_DESC@@U?$less@K@std@@V?$allocator@U?$pair@$$CBKPAUtagSERVER_DESC@@@std@@@3@$0A@@std@@@std@@QAE?AViterator@12@V312@@Z 0041d430 f i dpsrvr.obj
 0001:0001c6f0       ?erase@?$_Tree@V?$_Tmap_traits@KP8CDPSrvr@@AEXAAVCAr@@KK@ZU?$less@K@std@@V?$allocator@U?$pair@$$CBKP8CDPSrvr@@AEXAAVCAr@@KK@Z@std@@@4@$0A@@std@@@std@@QAE?AViterator@12@V312@@Z 0041d6f0 f i dpsrvr.obj
 0001:0001c9b0       ??0_Node@?$_Tree_nod@V?$_Tmap_traits@V?$basic_string@DU?$char_traits@D@std@@V?$allocator@D@2@@std@@HU?$less@V?$basic_string@DU?$char_traits@D@std@@V?$allocator@D@2@@std@@@2@V?$allocator@U?$pair@$$CBV?$basic_string@DU?$char_traits@D@std@@V?$allocator@D@2@@std@@H@std@@@2@$0A@@std@@@std@@QAE@PAU012@00ABU?$pair@$$CBV?$basic_string@DU?$char_traits@D@std@@V?$allocator@D@2@@std@@H@2@D@Z 0041d9b0 f i dpsrvr.obj
 0001:0001ca10       ?IsABClass@CDPSrvr@@QAEHPBD@Z 0041da10 f   dpsrvr.obj
 0001:0001cb70       ?insert@?$_Tree@V?$_Tmap_traits@KP8CDPSrvr@@AEXAAVCAr@@KK@ZU?$less@K@std@@V?$allocator@U?$pair@$$CBKP8CDPSrvr@@AEXAAVCAr@@KK@Z@std@@@4@$0A@@std@@@std@@QAE?AU?$pair@Viterator@?$_Tree@V?$_Tmap_traits@KP8CDPSrvr@@AEXAAVCAr@@KK@ZU?$less@K@std@@V?$allocator@U?$pair@$$CBKP8CDPSrvr@@AEXAAVCAr@@KK@Z@std@@@4@$0A@@std@@@std@@_N@2@ABU?$pair@$$CBKP8CDPSrvr@@AEXAAVCAr@@KK@Z@2@@Z 0041db70 f i dpsrvr.obj
 0001:0001cc30       ?_Erase@?$_Tree@V?$_Tmap_traits@V?$basic_string@DU?$char_traits@D@std@@V?$allocator@D@2@@std@@HU?$less@V?$basic_string@DU?$char_traits@D@std@@V?$allocator@D@2@@std@@@2@V?$allocator@U?$pair@$$CBV?$basic_string@DU?$char_traits@D@std@@V?$allocator@D@2@@std@@H@std@@@2@$0A@@std@@@std@@IAEXPAU_Node@?$_Tree_nod@V?$_Tmap_traits@V?$basic_string@DU?$char_traits@D@std@@V?$allocator@D@2@@std@@HU?$less@V?$basic_string@DU?$char_traits@D@std@@V?$allocator@D@2@@std@@@2@V?$allocator@U?$pair@$$CBV?$basic_string@DU?$char_traits@D@std@@V?$allocator@D@2@@std@@H@std@@@2@$0A@@std@@@2@@Z 0041dc30 f i dpsrvr.obj
 0001:0001cc70       ?_Buynode@?$_Tree@V?$_Tmap_traits@V?$basic_string@DU?$char_traits@D@std@@V?$allocator@D@2@@std@@HU?$less@V?$basic_string@DU?$char_traits@D@std@@V?$allocator@D@2@@std@@@2@V?$allocator@U?$pair@$$CBV?$basic_string@DU?$char_traits@D@std@@V?$allocator@D@2@@std@@H@std@@@2@$0A@@std@@@std@@IAEPAU_Node@?$_Tree_nod@V?$_Tmap_traits@V?$basic_string@DU?$char_traits@D@std@@V?$allocator@D@2@@std@@HU?$less@V?$basic_string@DU?$char_traits@D@std@@V?$allocator@D@2@@std@@@2@V?$allocator@U?$pair@$$CBV?$basic_string@DU?$char_traits@D@std@@V?$allocator@D@2@@std@@H@std@@@2@$0A@@std@@@2@PAU342@00ABU?$pair@$$CBV?$basic_string@DU?$char_traits@D@std@@V?$allocator@D@2@@std@@H@2@D@Z 0041dc70 f i dpsrvr.obj
 0001:0001cd00       ?erase@?$_Tree@V?$_Tmap_traits@KPAUtagSERVER_DESC@@U?$less@K@std@@V?$allocator@U?$pair@$$CBKPAUtagSERVER_DESC@@@std@@@3@$0A@@std@@@std@@QAE?AViterator@12@V312@0@Z 0041dd00 f i dpsrvr.obj
 0001:0001cdc0       ?erase@?$_Tree@V?$_Tmap_traits@KP8CDPSrvr@@AEXAAVCAr@@KK@ZU?$less@K@std@@V?$allocator@U?$pair@$$CBKP8CDPSrvr@@AEXAAVCAr@@KK@Z@std@@@4@$0A@@std@@@std@@QAE?AViterator@12@V312@0@Z 0041ddc0 f i dpsrvr.obj
 0001:0001ce80       ?PushPCBangPlayer@CAccountMng@@QAEXKK@Z 0041de80 f i dpsrvr.obj
 0001:0001ceb0       ?OnAddAccount@CDPSrvr@@AAEXAAVCAr@@KK@Z 0041deb0 f   dpsrvr.obj
 0001:0001d140       ?clear@?$_Tree@V?$_Tmap_traits@V?$basic_string@DU?$char_traits@D@std@@V?$allocator@D@2@@std@@HU?$less@V?$basic_string@DU?$char_traits@D@std@@V?$allocator@D@2@@std@@@2@V?$allocator@U?$pair@$$CBV?$basic_string@DU?$char_traits@D@std@@V?$allocator@D@2@@std@@H@std@@@2@$0A@@std@@@std@@QAEXXZ 0041e140 f i dpsrvr.obj
 0001:0001d170       ?_Insert@?$_Tree@V?$_Tmap_traits@V?$basic_string@DU?$char_traits@D@std@@V?$allocator@D@2@@std@@HU?$less@V?$basic_string@DU?$char_traits@D@std@@V?$allocator@D@2@@std@@@2@V?$allocator@U?$pair@$$CBV?$basic_string@DU?$char_traits@D@std@@V?$allocator@D@2@@std@@H@std@@@2@$0A@@std@@@std@@IAE?AViterator@12@_NPAU_Node@?$_Tree_nod@V?$_Tmap_traits@V?$basic_string@DU?$char_traits@D@std@@V?$allocator@D@2@@std@@HU?$less@V?$basic_string@DU?$char_traits@D@std@@V?$allocator@D@2@@std@@@2@V?$allocator@U?$pair@$$CBV?$basic_string@DU?$char_traits@D@std@@V?$allocator@D@2@@std@@H@std@@@2@$0A@@std@@@2@ABU?$pair@$$CBV?$basic_string@DU?$char_traits@D@std@@V?$allocator@D@2@@std@@H@2@@Z 0041e170 f i dpsrvr.obj
 0001:0001d320       ?_Tidy@?$_Tree@V?$_Tmap_traits@KPAUtagSERVER_DESC@@U?$less@K@std@@V?$allocator@U?$pair@$$CBKPAUtagSERVER_DESC@@@std@@@3@$0A@@std@@@std@@IAEXXZ 0041e320 f i dpsrvr.obj
 0001:0001d350       ?_Tidy@?$_Tree@V?$_Tmap_traits@KP8CDPSrvr@@AEXAAVCAr@@KK@ZU?$less@K@std@@V?$allocator@U?$pair@$$CBKP8CDPSrvr@@AEXAAVCAr@@KK@Z@std@@@4@$0A@@std@@@std@@IAEXXZ 0041e350 f i dpsrvr.obj
 0001:0001d380       ?erase@?$_Tree@V?$_Tmap_traits@V?$basic_string@DU?$char_traits@D@std@@V?$allocator@D@2@@std@@HU?$less@V?$basic_string@DU?$char_traits@D@std@@V?$allocator@D@2@@std@@@2@V?$allocator@U?$pair@$$CBV?$basic_string@DU?$char_traits@D@std@@V?$allocator@D@2@@std@@H@std@@@2@$0A@@std@@@std@@QAE?AViterator@12@V312@0@Z 0041e380 f i dpsrvr.obj
 0001:0001d440       ?InitIPCut@CDPSrvr@@QAEXXZ 0041e440 f   dpsrvr.obj
 0001:0001d4a0       ?insert@?$_Tree@V?$_Tmap_traits@V?$basic_string@DU?$char_traits@D@std@@V?$allocator@D@2@@std@@HU?$less@V?$basic_string@DU?$char_traits@D@std@@V?$allocator@D@2@@std@@@2@V?$allocator@U?$pair@$$CBV?$basic_string@DU?$char_traits@D@std@@V?$allocator@D@2@@std@@H@std@@@2@$0A@@std@@@std@@QAE?AU?$pair@Viterator@?$_Tree@V?$_Tmap_traits@V?$basic_string@DU?$char_traits@D@std@@V?$allocator@D@2@@std@@HU?$less@V?$basic_string@DU?$char_traits@D@std@@V?$allocator@D@2@@std@@@2@V?$allocator@U?$pair@$$CBV?$basic_string@DU?$char_traits@D@std@@V?$allocator@D@2@@std@@H@std@@@2@$0A@@std@@@std@@_N@2@ABU?$pair@$$CBV?$basic_string@DU?$char_traits@D@std@@V?$allocator@D@2@@std@@H@2@@Z 0041e4a0 f i dpsrvr.obj
 0001:0001d620       ??1?$_Tree@V?$_Tmap_traits@KPAUtagSERVER_DESC@@U?$less@K@std@@V?$allocator@U?$pair@$$CBKPAUtagSERVER_DESC@@@std@@@3@$0A@@std@@@std@@QAE@XZ 0041e620 f i dpsrvr.obj
 0001:0001d650       ??1?$_Tree@V?$_Tmap_traits@KP8CDPSrvr@@AEXAAVCAr@@KK@ZU?$less@K@std@@V?$allocator@U?$pair@$$CBKP8CDPSrvr@@AEXAAVCAr@@KK@Z@std@@@4@$0A@@std@@@std@@QAE@XZ 0041e650 f i dpsrvr.obj
 0001:0001d680       ?_Tidy@?$_Tree@V?$_Tmap_traits@V?$basic_string@DU?$char_traits@D@std@@V?$allocator@D@2@@std@@HU?$less@V?$basic_string@DU?$char_traits@D@std@@V?$allocator@D@2@@std@@@2@V?$allocator@U?$pair@$$CBV?$basic_string@DU?$char_traits@D@std@@V?$allocator@D@2@@std@@H@std@@@2@$0A@@std@@@std@@IAEXXZ 0041e680 f i dpsrvr.obj
 0001:0001d6b0       ??1?$map@KPAUtagSERVER_DESC@@U?$less@K@std@@V?$allocator@U?$pair@$$CBKPAUtagSERVER_DESC@@@std@@@3@@std@@QAE@XZ 0041e6b0 f i dpsrvr.obj
 0001:0001d6e0       ??1?$map@KP8CDPSrvr@@AEXAAVCAr@@KK@ZU?$less@K@std@@V?$allocator@U?$pair@$$CBKP8CDPSrvr@@AEXAAVCAr@@KK@Z@std@@@4@@std@@QAE@XZ 0041e6e0 f i dpsrvr.obj
 0001:0001d710       ?LoadIPCut@CDPSrvr@@QAEHPBD@Z 0041e710 f   dpsrvr.obj
 0001:0001dab0       ??1?$_Tree@V?$_Tmap_traits@V?$basic_string@DU?$char_traits@D@std@@V?$allocator@D@2@@std@@HU?$less@V?$basic_string@DU?$char_traits@D@std@@V?$allocator@D@2@@std@@@2@V?$allocator@U?$pair@$$CBV?$basic_string@DU?$char_traits@D@std@@V?$allocator@D@2@@std@@H@std@@@2@$0A@@std@@@std@@QAE@XZ 0041eab0 f i dpsrvr.obj
 0001:0001dae0       ??0?$map@KPAUtagSERVER_DESC@@U?$less@K@std@@V?$allocator@U?$pair@$$CBKPAUtagSERVER_DESC@@@std@@@3@@std@@QAE@XZ 0041eae0 f i dpsrvr.obj
 0001:0001db10       ??0?$map@KP8CDPSrvr@@AEXAAVCAr@@KK@ZU?$less@K@std@@V?$allocator@U?$pair@$$CBKP8CDPSrvr@@AEXAAVCAr@@KK@Z@std@@@4@@std@@QAE@XZ 0041eb10 f i dpsrvr.obj
 0001:0001db40       ??1?$map@V?$basic_string@DU?$char_traits@D@std@@V?$allocator@D@2@@std@@HU?$less@V?$basic_string@DU?$char_traits@D@std@@V?$allocator@D@2@@std@@@2@V?$allocator@U?$pair@$$CBV?$basic_string@DU?$char_traits@D@std@@V?$allocator@D@2@@std@@H@std@@@2@@std@@QAE@XZ 0041eb40 f i dpsrvr.obj
 0001:0001db70       ??1CDPSrvr@@UAE@XZ         0041eb70 f   dpsrvr.obj
 0001:0001dc70       ??0?$map@V?$basic_string@DU?$char_traits@D@std@@V?$allocator@D@2@@std@@HU?$less@V?$basic_string@DU?$char_traits@D@std@@V?$allocator@D@2@@std@@@2@V?$allocator@U?$pair@$$CBV?$basic_string@DU?$char_traits@D@std@@V?$allocator@D@2@@std@@H@std@@@2@@std@@QAE@XZ 0041ec70 f i dpsrvr.obj
 0001:0001dca0       ??0CDPSrvr@@QAE@XZ         0041eca0 f   dpsrvr.obj
 0001:0001dea0       ??_ECDPSrvr@@UAEPAXI@Z     0041eea0 f i dpsrvr.obj
 0001:0001dea0       ??_GCDPSrvr@@UAEPAXI@Z     0041eea0 f i dpsrvr.obj
 0001:0001dec0       ?SysMessageHandler@CDPWldSrvr@@UAEXPAUDPMSG_GENERIC@@KK@Z 0041eec0 f   dpwldsrvr.obj
 0001:0001ded0       ?OnUpload@CDPWldSrvr@@AAEXAAVCAr@@K@Z 0041eed0 f   dpwldsrvr.obj
 0001:0001def0       ?OnQuery@CDPWldSrvr@@AAEXAAVCAr@@K@Z 0041eef0 f   dpwldsrvr.obj
 0001:0001df10       ?OnRestore@CDPWldSrvr@@AAEXAAVCAr@@K@Z 0041ef10 f   dpwldsrvr.obj
 0001:0001df30       ??0?$pair@$$CBKP8CDPWldSrvr@@AEXAAVCAr@@K@Z@std@@QAE@ABKABQ8CDPWldSrvr@@AEXAAVCAr@@K@Z@Z 0041ef30 f i dpwldsrvr.obj
 0001:0001df50       ?_Isnil@?$_Tree@V?$_Tmap_traits@KP8CDPWldSrvr@@AEXAAVCAr@@K@ZU?$less@K@std@@V?$allocator@U?$pair@$$CBKP8CDPWldSrvr@@AEXAAVCAr@@K@Z@std@@@4@$0A@@std@@@std@@KAAADPAU_Node@?$_Tree_nod@V?$_Tmap_traits@KP8CDPWldSrvr@@AEXAAVCAr@@K@ZU?$less@K@std@@V?$allocator@U?$pair@$$CBKP8CDPWldSrvr@@AEXAAVCAr@@K@Z@std@@@4@$0A@@std@@@2@@Z 0041ef50 f i dpwldsrvr.obj
 0001:0001df60       ?_Left@?$_Tree@V?$_Tmap_traits@KP8CDPWldSrvr@@AEXAAVCAr@@K@ZU?$less@K@std@@V?$allocator@U?$pair@$$CBKP8CDPWldSrvr@@AEXAAVCAr@@K@Z@std@@@4@$0A@@std@@@std@@KAAAPAU_Node@?$_Tree_nod@V?$_Tmap_traits@KP8CDPWldSrvr@@AEXAAVCAr@@K@ZU?$less@K@std@@V?$allocator@U?$pair@$$CBKP8CDPWldSrvr@@AEXAAVCAr@@K@Z@std@@@4@$0A@@std@@@2@PAU342@@Z 0041ef60 f i dpwldsrvr.obj
 0001:0001df70       ?_Right@?$_Tree@V?$_Tmap_traits@KP8CDPWldSrvr@@AEXAAVCAr@@K@ZU?$less@K@std@@V?$allocator@U?$pair@$$CBKP8CDPWldSrvr@@AEXAAVCAr@@K@Z@std@@@4@$0A@@std@@@std@@KAAAPAU_Node@?$_Tree_nod@V?$_Tmap_traits@KP8CDPWldSrvr@@AEXAAVCAr@@K@ZU?$less@K@std@@V?$allocator@U?$pair@$$CBKP8CDPWldSrvr@@AEXAAVCAr@@K@Z@std@@@4@$0A@@std@@@2@PAU342@@Z 0041ef70 f i dpwldsrvr.obj
 0001:0001df80       ?_Kfn@?$_Tmap_traits@KP8CDPWldSrvr@@AEXAAVCAr@@K@ZU?$less@K@std@@V?$allocator@U?$pair@$$CBKP8CDPWldSrvr@@AEXAAVCAr@@K@Z@std@@@4@$0A@@std@@SAABKABU?$pair@$$CBKP8CDPWldSrvr@@AEXAAVCAr@@K@Z@2@@Z 0041ef80 f i dpwldsrvr.obj
 0001:0001df90       ??0?$allocator@U?$pair@$$CBKP8CDPWldSrvr@@AEXAAVCAr@@K@Z@std@@@std@@QAE@XZ 0041ef90 f i dpwldsrvr.obj
 0001:0001dfa0       ??8const_iterator@?$_Tree@V?$_Tmap_traits@KP8CDPWldSrvr@@AEXAAVCAr@@K@ZU?$less@K@std@@V?$allocator@U?$pair@$$CBKP8CDPWldSrvr@@AEXAAVCAr@@K@Z@std@@@4@$0A@@std@@@std@@QBE_NABV012@@Z 0041efa0 f i dpwldsrvr.obj
 0001:0001dfb0       ?_Mynode@const_iterator@?$_Tree@V?$_Tmap_traits@KP8CDPWldSrvr@@AEXAAVCAr@@K@ZU?$less@K@std@@V?$allocator@U?$pair@$$CBKP8CDPWldSrvr@@AEXAAVCAr@@K@Z@std@@@4@$0A@@std@@@std@@QBEPAU_Node@?$_Tree_nod@V?$_Tmap_traits@KP8CDPWldSrvr@@AEXAAVCAr@@K@ZU?$less@K@std@@V?$allocator@U?$pair@$$CBKP8CDPWldSrvr@@AEXAAVCAr@@K@Z@std@@@4@$0A@@std@@@3@XZ 0041efb0 f i dpwldsrvr.obj
 0001:0001dfc0       ??0?$pair@Viterator@?$_Tree@V?$_Tmap_traits@KP8CDPWldSrvr@@AEXAAVCAr@@K@ZU?$less@K@std@@V?$allocator@U?$pair@$$CBKP8CDPWldSrvr@@AEXAAVCAr@@K@Z@std@@@4@$0A@@std@@@std@@_N@std@@QAE@ABViterator@?$_Tree@V?$_Tmap_traits@KP8CDPWldSrvr@@AEXAAVCAr@@K@ZU?$less@K@std@@V?$allocator@U?$pair@$$CBKP8CDPWldSrvr@@AEXAAVCAr@@K@Z@std@@@4@$0A@@std@@@1@AB_N@Z 0041efc0 f i dpwldsrvr.obj
 0001:0001dfe0       ?_Color@?$_Tree@V?$_Tmap_traits@KP8CDPWldSrvr@@AEXAAVCAr@@K@ZU?$less@K@std@@V?$allocator@U?$pair@$$CBKP8CDPWldSrvr@@AEXAAVCAr@@K@Z@std@@@4@$0A@@std@@@std@@KAAADPAU_Node@?$_Tree_nod@V?$_Tmap_traits@KP8CDPWldSrvr@@AEXAAVCAr@@K@ZU?$less@K@std@@V?$allocator@U?$pair@$$CBKP8CDPWldSrvr@@AEXAAVCAr@@K@Z@std@@@4@$0A@@std@@@2@@Z 0041efe0 f i dpwldsrvr.obj
 0001:0001dff0       ?_Parent@?$_Tree@V?$_Tmap_traits@KP8CDPWldSrvr@@AEXAAVCAr@@K@ZU?$less@K@std@@V?$allocator@U?$pair@$$CBKP8CDPWldSrvr@@AEXAAVCAr@@K@Z@std@@@4@$0A@@std@@@std@@KAAAPAU_Node@?$_Tree_nod@V?$_Tmap_traits@KP8CDPWldSrvr@@AEXAAVCAr@@K@ZU?$less@K@std@@V?$allocator@U?$pair@$$CBKP8CDPWldSrvr@@AEXAAVCAr@@K@Z@std@@@4@$0A@@std@@@2@PAU342@@Z 0041eff0 f i dpwldsrvr.obj
 0001:0001e000       ?_Myval@?$_Tree@V?$_Tmap_traits@KP8CDPWldSrvr@@AEXAAVCAr@@K@ZU?$less@K@std@@V?$allocator@U?$pair@$$CBKP8CDPWldSrvr@@AEXAAVCAr@@K@Z@std@@@4@$0A@@std@@@std@@KAAAU?$pair@$$CBKP8CDPWldSrvr@@AEXAAVCAr@@K@Z@2@PAU_Node@?$_Tree_nod@V?$_Tmap_traits@KP8CDPWldSrvr@@AEXAAVCAr@@K@ZU?$less@K@std@@V?$allocator@U?$pair@$$CBKP8CDPWldSrvr@@AEXAAVCAr@@K@Z@std@@@4@$0A@@std@@@2@@Z 0041f000 f i dpwldsrvr.obj
 0001:0001e010       ?_Lmost@?$_Tree@V?$_Tmap_traits@KP8CDPWldSrvr@@AEXAAVCAr@@K@ZU?$less@K@std@@V?$allocator@U?$pair@$$CBKP8CDPWldSrvr@@AEXAAVCAr@@K@Z@std@@@4@$0A@@std@@@std@@IAEAAPAU_Node@?$_Tree_nod@V?$_Tmap_traits@KP8CDPWldSrvr@@AEXAAVCAr@@K@ZU?$less@K@std@@V?$allocator@U?$pair@$$CBKP8CDPWldSrvr@@AEXAAVCAr@@K@Z@std@@@4@$0A@@std@@@2@XZ 0041f010 f i dpwldsrvr.obj
 0001:0001e020       ?_Rmost@?$_Tree@V?$_Tmap_traits@KP8CDPWldSrvr@@AEXAAVCAr@@K@ZU?$less@K@std@@V?$allocator@U?$pair@$$CBKP8CDPWldSrvr@@AEXAAVCAr@@K@Z@std@@@4@$0A@@std@@@std@@IAEAAPAU_Node@?$_Tree_nod@V?$_Tmap_traits@KP8CDPWldSrvr@@AEXAAVCAr@@K@ZU?$less@K@std@@V?$allocator@U?$pair@$$CBKP8CDPWldSrvr@@AEXAAVCAr@@K@Z@std@@@4@$0A@@std@@@2@XZ 0041f020 f i dpwldsrvr.obj
 0001:0001e030       ??0?$allocator@U?$pair@$$CBKP8CDPWldSrvr@@AEXAAVCAr@@K@Z@std@@@std@@QAE@ABV01@@Z 0041f030 f i dpwldsrvr.obj
 0001:0001e040       ?deallocate@?$allocator@U_Node@?$_Tree_nod@V?$_Tmap_traits@KP8CDPWldSrvr@@AEXAAVCAr@@K@ZU?$less@K@std@@V?$allocator@U?$pair@$$CBKP8CDPWldSrvr@@AEXAAVCAr@@K@Z@std@@@4@$0A@@std@@@std@@@std@@QAEXPAU_Node@?$_Tree_nod@V?$_Tmap_traits@KP8CDPWldSrvr@@AEXAAVCAr@@K@ZU?$less@K@std@@V?$allocator@U?$pair@$$CBKP8CDPWldSrvr@@AEXAAVCAr@@K@Z@std@@@4@$0A@@std@@@2@I@Z 0041f040 f i dpwldsrvr.obj
 0001:0001e050       ??0const_iterator@?$_Tree@V?$_Tmap_traits@KP8CDPWldSrvr@@AEXAAVCAr@@K@ZU?$less@K@std@@V?$allocator@U?$pair@$$CBKP8CDPWldSrvr@@AEXAAVCAr@@K@Z@std@@@4@$0A@@std@@@std@@QAE@PAU_Node@?$_Tree_nod@V?$_Tmap_traits@KP8CDPWldSrvr@@AEXAAVCAr@@K@ZU?$less@K@std@@V?$allocator@U?$pair@$$CBKP8CDPWldSrvr@@AEXAAVCAr@@K@Z@std@@@4@$0A@@std@@@2@@Z 0041f050 f i dpwldsrvr.obj
 0001:0001e060       ??Dconst_iterator@?$_Tree@V?$_Tmap_traits@KP8CDPWldSrvr@@AEXAAVCAr@@K@ZU?$less@K@std@@V?$allocator@U?$pair@$$CBKP8CDPWldSrvr@@AEXAAVCAr@@K@Z@std@@@4@$0A@@std@@@std@@QBEABU?$pair@$$CBKP8CDPWldSrvr@@AEXAAVCAr@@K@Z@2@XZ 0041f060 f i dpwldsrvr.obj
 0001:0001e070       ?_Root@?$_Tree@V?$_Tmap_traits@KP8CDPWldSrvr@@AEXAAVCAr@@K@ZU?$less@K@std@@V?$allocator@U?$pair@$$CBKP8CDPWldSrvr@@AEXAAVCAr@@K@Z@std@@@4@$0A@@std@@@std@@IBEAAPAU_Node@?$_Tree_nod@V?$_Tmap_traits@KP8CDPWldSrvr@@AEXAAVCAr@@K@ZU?$less@K@std@@V?$allocator@U?$pair@$$CBKP8CDPWldSrvr@@AEXAAVCAr@@K@Z@std@@@4@$0A@@std@@@2@XZ 0041f070 f i dpwldsrvr.obj
 0001:0001e080       ?max_size@?$allocator@U?$pair@$$CBKP8CDPWldSrvr@@AEXAAVCAr@@K@Z@std@@@std@@QBEIXZ 0041f080 f i dpwldsrvr.obj
 0001:0001e090       ??0_Node@?$_Tree_nod@V?$_Tmap_traits@KP8CDPWldSrvr@@AEXAAVCAr@@K@ZU?$less@K@std@@V?$allocator@U?$pair@$$CBKP8CDPWldSrvr@@AEXAAVCAr@@K@Z@std@@@4@$0A@@std@@@std@@QAE@PAU012@00ABU?$pair@$$CBKP8CDPWldSrvr@@AEXAAVCAr@@K@Z@2@D@Z 0041f090 f i dpwldsrvr.obj
 0001:0001e0d0       ?_Max@?$_Tree@V?$_Tmap_traits@KP8CDPWldSrvr@@AEXAAVCAr@@K@ZU?$less@K@std@@V?$allocator@U?$pair@$$CBKP8CDPWldSrvr@@AEXAAVCAr@@K@Z@std@@@4@$0A@@std@@@std@@KAPAU_Node@?$_Tree_nod@V?$_Tmap_traits@KP8CDPWldSrvr@@AEXAAVCAr@@K@ZU?$less@K@std@@V?$allocator@U?$pair@$$CBKP8CDPWldSrvr@@AEXAAVCAr@@K@Z@std@@@4@$0A@@std@@@2@PAU342@@Z 0041f0d0 f i dpwldsrvr.obj
 0001:0001e0f0       ?_Min@?$_Tree@V?$_Tmap_traits@KP8CDPWldSrvr@@AEXAAVCAr@@K@ZU?$less@K@std@@V?$allocator@U?$pair@$$CBKP8CDPWldSrvr@@AEXAAVCAr@@K@Z@std@@@4@$0A@@std@@@std@@KAPAU_Node@?$_Tree_nod@V?$_Tmap_traits@KP8CDPWldSrvr@@AEXAAVCAr@@K@ZU?$less@K@std@@V?$allocator@U?$pair@$$CBKP8CDPWldSrvr@@AEXAAVCAr@@K@Z@std@@@4@$0A@@std@@@2@PAU342@@Z 0041f0f0 f i dpwldsrvr.obj
 0001:0001e110       ??0?$_Tmap_traits@KP8CDPWldSrvr@@AEXAAVCAr@@K@ZU?$less@K@std@@V?$allocator@U?$pair@$$CBKP8CDPWldSrvr@@AEXAAVCAr@@K@Z@std@@@4@$0A@@std@@QAE@U?$less@K@1@@Z 0041f110 f i dpwldsrvr.obj
 0001:0001e120       ?_Inc@const_iterator@?$_Tree@V?$_Tmap_traits@KP8CDPWldSrvr@@AEXAAVCAr@@K@ZU?$less@K@std@@V?$allocator@U?$pair@$$CBKP8CDPWldSrvr@@AEXAAVCAr@@K@Z@std@@@4@$0A@@std@@@std@@QAEXXZ 0041f120 f i dpwldsrvr.obj
 0001:0001e180       ??$_Destroy@PAU_Node@?$_Tree_nod@V?$_Tmap_traits@KP8CDPWldSrvr@@AEXAAVCAr@@K@ZU?$less@K@std@@V?$allocator@U?$pair@$$CBKP8CDPWldSrvr@@AEXAAVCAr@@K@Z@std@@@4@$0A@@std@@@std@@@std@@YAXPAPAU_Node@?$_Tree_nod@V?$_Tmap_traits@KP8CDPWldSrvr@@AEXAAVCAr@@K@ZU?$less@K@std@@V?$allocator@U?$pair@$$CBKP8CDPWldSrvr@@AEXAAVCAr@@K@Z@std@@@4@$0A@@std@@@0@@Z 0041f180 f i dpwldsrvr.obj
 0001:0001e190       ??$?0U?$pair@$$CBKP8CDPWldSrvr@@AEXAAVCAr@@K@Z@std@@@?$allocator@PAU_Node@?$_Tree_nod@V?$_Tmap_traits@KP8CDPWldSrvr@@AEXAAVCAr@@K@ZU?$less@K@std@@V?$allocator@U?$pair@$$CBKP8CDPWldSrvr@@AEXAAVCAr@@K@Z@std@@@4@$0A@@std@@@std@@@std@@QAE@ABV?$allocator@U?$pair@$$CBKP8CDPWldSrvr@@AEXAAVCAr@@K@Z@std@@@1@@Z 0041f190 f i dpwldsrvr.obj
 0001:0001e1a0       ??$_Allocate@U_Node@?$_Tree_nod@V?$_Tmap_traits@KP8CDPWldSrvr@@AEXAAVCAr@@K@ZU?$less@K@std@@V?$allocator@U?$pair@$$CBKP8CDPWldSrvr@@AEXAAVCAr@@K@Z@std@@@4@$0A@@std@@@std@@@std@@YAPAU_Node@?$_Tree_nod@V?$_Tmap_traits@KP8CDPWldSrvr@@AEXAAVCAr@@K@ZU?$less@K@std@@V?$allocator@U?$pair@$$CBKP8CDPWldSrvr@@AEXAAVCAr@@K@Z@std@@@4@$0A@@std@@@0@IPAU120@@Z 0041f1a0 f i dpwldsrvr.obj
 0001:0001e1c0       ??$?0U?$pair@$$CBKP8CDPWldSrvr@@AEXAAVCAr@@K@Z@std@@@?$allocator@U_Node@?$_Tree_nod@V?$_Tmap_traits@KP8CDPWldSrvr@@AEXAAVCAr@@K@ZU?$less@K@std@@V?$allocator@U?$pair@$$CBKP8CDPWldSrvr@@AEXAAVCAr@@K@Z@std@@@4@$0A@@std@@@std@@@std@@QAE@ABV?$allocator@U?$pair@$$CBKP8CDPWldSrvr@@AEXAAVCAr@@K@Z@std@@@1@@Z 0041f1c0 f i dpwldsrvr.obj
 0001:0001e1d0       ??$_Destroy@U_Node@?$_Tree_nod@V?$_Tmap_traits@KP8CDPWldSrvr@@AEXAAVCAr@@K@ZU?$less@K@std@@V?$allocator@U?$pair@$$CBKP8CDPWldSrvr@@AEXAAVCAr@@K@Z@std@@@4@$0A@@std@@@std@@@std@@YAXPAU_Node@?$_Tree_nod@V?$_Tmap_traits@KP8CDPWldSrvr@@AEXAAVCAr@@K@ZU?$less@K@std@@V?$allocator@U?$pair@$$CBKP8CDPWldSrvr@@AEXAAVCAr@@K@Z@std@@@4@$0A@@std@@@0@@Z 0041f1d0 f i dpwldsrvr.obj
 0001:0001e1e0       ??$_Construct@PAU_Node@?$_Tree_nod@V?$_Tmap_traits@KP8CDPWldSrvr@@AEXAAVCAr@@K@ZU?$less@K@std@@V?$allocator@U?$pair@$$CBKP8CDPWldSrvr@@AEXAAVCAr@@K@Z@std@@@4@$0A@@std@@@std@@PAU123@@std@@YAXPAPAU_Node@?$_Tree_nod@V?$_Tmap_traits@KP8CDPWldSrvr@@AEXAAVCAr@@K@ZU?$less@K@std@@V?$allocator@U?$pair@$$CBKP8CDPWldSrvr@@AEXAAVCAr@@K@Z@std@@@4@$0A@@std@@@0@ABQAU120@@Z 0041f1e0 f i dpwldsrvr.obj
 0001:0001e200       ??9const_iterator@?$_Tree@V?$_Tmap_traits@KP8CDPWldSrvr@@AEXAAVCAr@@K@ZU?$less@K@std@@V?$allocator@U?$pair@$$CBKP8CDPWldSrvr@@AEXAAVCAr@@K@Z@std@@@4@$0A@@std@@@std@@QBE_NABV012@@Z 0041f200 f i dpwldsrvr.obj
 0001:0001e220       ?_Key@?$_Tree@V?$_Tmap_traits@KP8CDPWldSrvr@@AEXAAVCAr@@K@ZU?$less@K@std@@V?$allocator@U?$pair@$$CBKP8CDPWldSrvr@@AEXAAVCAr@@K@Z@std@@@4@$0A@@std@@@std@@KAABKPAU_Node@?$_Tree_nod@V?$_Tmap_traits@KP8CDPWldSrvr@@AEXAAVCAr@@K@ZU?$less@K@std@@V?$allocator@U?$pair@$$CBKP8CDPWldSrvr@@AEXAAVCAr@@K@Z@std@@@4@$0A@@std@@@2@@Z 0041f220 f i dpwldsrvr.obj
 0001:0001e230       ?_Root@?$_Tree@V?$_Tmap_traits@KP8CDPWldSrvr@@AEXAAVCAr@@K@ZU?$less@K@std@@V?$allocator@U?$pair@$$CBKP8CDPWldSrvr@@AEXAAVCAr@@K@Z@std@@@4@$0A@@std@@@std@@IAEAAPAU_Node@?$_Tree_nod@V?$_Tmap_traits@KP8CDPWldSrvr@@AEXAAVCAr@@K@ZU?$less@K@std@@V?$allocator@U?$pair@$$CBKP8CDPWldSrvr@@AEXAAVCAr@@K@Z@std@@@4@$0A@@std@@@2@XZ 0041f230 f i dpwldsrvr.obj
 0001:0001e240       ??0iterator@?$_Tree@V?$_Tmap_traits@KP8CDPWldSrvr@@AEXAAVCAr@@K@ZU?$less@K@std@@V?$allocator@U?$pair@$$CBKP8CDPWldSrvr@@AEXAAVCAr@@K@Z@std@@@4@$0A@@std@@@std@@QAE@PAU_Node@?$_Tree_nod@V?$_Tmap_traits@KP8CDPWldSrvr@@AEXAAVCAr@@K@ZU?$less@K@std@@V?$allocator@U?$pair@$$CBKP8CDPWldSrvr@@AEXAAVCAr@@K@Z@std@@@4@$0A@@std@@@2@@Z 0041f240 f i dpwldsrvr.obj
 0001:0001e250       ??Diterator@?$_Tree@V?$_Tmap_traits@KP8CDPWldSrvr@@AEXAAVCAr@@K@ZU?$less@K@std@@V?$allocator@U?$pair@$$CBKP8CDPWldSrvr@@AEXAAVCAr@@K@Z@std@@@4@$0A@@std@@@std@@QBEAAU?$pair@$$CBKP8CDPWldSrvr@@AEXAAVCAr@@K@Z@2@XZ 0041f250 f i dpwldsrvr.obj
 0001:0001e260       ?max_size@?$_Tree@V?$_Tmap_traits@KP8CDPWldSrvr@@AEXAAVCAr@@K@ZU?$less@K@std@@V?$allocator@U?$pair@$$CBKP8CDPWldSrvr@@AEXAAVCAr@@K@Z@std@@@4@$0A@@std@@@std@@QBEIXZ 0041f260 f i dpwldsrvr.obj
 0001:0001e270       ?_Lbound@?$_Tree@V?$_Tmap_traits@KP8CDPWldSrvr@@AEXAAVCAr@@K@ZU?$less@K@std@@V?$allocator@U?$pair@$$CBKP8CDPWldSrvr@@AEXAAVCAr@@K@Z@std@@@4@$0A@@std@@@std@@IBEPAU_Node@?$_Tree_nod@V?$_Tmap_traits@KP8CDPWldSrvr@@AEXAAVCAr@@K@ZU?$less@K@std@@V?$allocator@U?$pair@$$CBKP8CDPWldSrvr@@AEXAAVCAr@@K@Z@std@@@4@$0A@@std@@@2@ABK@Z 0041f270 f i dpwldsrvr.obj
 0001:0001e2a0       ?_Lrotate@?$_Tree@V?$_Tmap_traits@KP8CDPWldSrvr@@AEXAAVCAr@@K@ZU?$less@K@std@@V?$allocator@U?$pair@$$CBKP8CDPWldSrvr@@AEXAAVCAr@@K@Z@std@@@4@$0A@@std@@@std@@IAEXPAU_Node@?$_Tree_nod@V?$_Tmap_traits@KP8CDPWldSrvr@@AEXAAVCAr@@K@ZU?$less@K@std@@V?$allocator@U?$pair@$$CBKP8CDPWldSrvr@@AEXAAVCAr@@K@Z@std@@@4@$0A@@std@@@2@@Z 0041f2a0 f i dpwldsrvr.obj
 0001:0001e300       ?_Rrotate@?$_Tree@V?$_Tmap_traits@KP8CDPWldSrvr@@AEXAAVCAr@@K@ZU?$less@K@std@@V?$allocator@U?$pair@$$CBKP8CDPWldSrvr@@AEXAAVCAr@@K@Z@std@@@4@$0A@@std@@@std@@IAEXPAU_Node@?$_Tree_nod@V?$_Tmap_traits@KP8CDPWldSrvr@@AEXAAVCAr@@K@ZU?$less@K@std@@V?$allocator@U?$pair@$$CBKP8CDPWldSrvr@@AEXAAVCAr@@K@Z@std@@@4@$0A@@std@@@2@@Z 0041f300 f i dpwldsrvr.obj
 0001:0001e360       ?destroy@?$allocator@PAU_Node@?$_Tree_nod@V?$_Tmap_traits@KP8CDPWldSrvr@@AEXAAVCAr@@K@ZU?$less@K@std@@V?$allocator@U?$pair@$$CBKP8CDPWldSrvr@@AEXAAVCAr@@K@Z@std@@@4@$0A@@std@@@std@@@std@@QAEXPAPAU_Node@?$_Tree_nod@V?$_Tmap_traits@KP8CDPWldSrvr@@AEXAAVCAr@@K@ZU?$less@K@std@@V?$allocator@U?$pair@$$CBKP8CDPWldSrvr@@AEXAAVCAr@@K@Z@std@@@4@$0A@@std@@@2@@Z 0041f360 f i dpwldsrvr.obj
 0001:0001e370       ?allocate@?$allocator@U_Node@?$_Tree_nod@V?$_Tmap_traits@KP8CDPWldSrvr@@AEXAAVCAr@@K@ZU?$less@K@std@@V?$allocator@U?$pair@$$CBKP8CDPWldSrvr@@AEXAAVCAr@@K@Z@std@@@4@$0A@@std@@@std@@@std@@QAEPAU_Node@?$_Tree_nod@V?$_Tmap_traits@KP8CDPWldSrvr@@AEXAAVCAr@@K@ZU?$less@K@std@@V?$allocator@U?$pair@$$CBKP8CDPWldSrvr@@AEXAAVCAr@@K@Z@std@@@4@$0A@@std@@@2@I@Z 0041f370 f i dpwldsrvr.obj
 0001:0001e390       ?_Dec@const_iterator@?$_Tree@V?$_Tmap_traits@KP8CDPWldSrvr@@AEXAAVCAr@@K@ZU?$less@K@std@@V?$allocator@U?$pair@$$CBKP8CDPWldSrvr@@AEXAAVCAr@@K@Z@std@@@4@$0A@@std@@@std@@QAEXXZ 0041f390 f i dpwldsrvr.obj
 0001:0001e3f0       ??0?$_Tree_nod@V?$_Tmap_traits@KP8CDPWldSrvr@@AEXAAVCAr@@K@ZU?$less@K@std@@V?$allocator@U?$pair@$$CBKP8CDPWldSrvr@@AEXAAVCAr@@K@Z@std@@@4@$0A@@std@@@std@@IAE@ABU?$less@K@1@V?$allocator@U?$pair@$$CBKP8CDPWldSrvr@@AEXAAVCAr@@K@Z@std@@@1@@Z 0041f3f0 f i dpwldsrvr.obj
 0001:0001e400       ?destroy@?$allocator@U_Node@?$_Tree_nod@V?$_Tmap_traits@KP8CDPWldSrvr@@AEXAAVCAr@@K@ZU?$less@K@std@@V?$allocator@U?$pair@$$CBKP8CDPWldSrvr@@AEXAAVCAr@@K@Z@std@@@4@$0A@@std@@@std@@@std@@QAEXPAU_Node@?$_Tree_nod@V?$_Tmap_traits@KP8CDPWldSrvr@@AEXAAVCAr@@K@ZU?$less@K@std@@V?$allocator@U?$pair@$$CBKP8CDPWldSrvr@@AEXAAVCAr@@K@Z@std@@@4@$0A@@std@@@2@@Z 0041f400 f i dpwldsrvr.obj
 0001:0001e410       ?construct@?$allocator@PAU_Node@?$_Tree_nod@V?$_Tmap_traits@KP8CDPWldSrvr@@AEXAAVCAr@@K@ZU?$less@K@std@@V?$allocator@U?$pair@$$CBKP8CDPWldSrvr@@AEXAAVCAr@@K@Z@std@@@4@$0A@@std@@@std@@@std@@QAEXPAPAU_Node@?$_Tree_nod@V?$_Tmap_traits@KP8CDPWldSrvr@@AEXAAVCAr@@K@ZU?$less@K@std@@V?$allocator@U?$pair@$$CBKP8CDPWldSrvr@@AEXAAVCAr@@K@Z@std@@@4@$0A@@std@@@2@ABQAU342@@Z 0041f410 f i dpwldsrvr.obj
 0001:0001e430       ??Econst_iterator@?$_Tree@V?$_Tmap_traits@KP8CDPWldSrvr@@AEXAAVCAr@@K@ZU?$less@K@std@@V?$allocator@U?$pair@$$CBKP8CDPWldSrvr@@AEXAAVCAr@@K@Z@std@@@4@$0A@@std@@@std@@QAEAAV012@XZ 0041f430 f i dpwldsrvr.obj
 0001:0001e440       ?end@?$_Tree@V?$_Tmap_traits@KP8CDPWldSrvr@@AEXAAVCAr@@K@ZU?$less@K@std@@V?$allocator@U?$pair@$$CBKP8CDPWldSrvr@@AEXAAVCAr@@K@Z@std@@@4@$0A@@std@@@std@@QAE?AViterator@12@XZ 0041f440 f i dpwldsrvr.obj
 0001:0001e450       ??Citerator@?$_Tree@V?$_Tmap_traits@KP8CDPWldSrvr@@AEXAAVCAr@@K@ZU?$less@K@std@@V?$allocator@U?$pair@$$CBKP8CDPWldSrvr@@AEXAAVCAr@@K@Z@std@@@4@$0A@@std@@@std@@QBEPAU?$pair@$$CBKP8CDPWldSrvr@@AEXAAVCAr@@K@Z@2@XZ 0041f450 f i dpwldsrvr.obj
 0001:0001e460       ?begin@?$_Tree@V?$_Tmap_traits@KP8CDPWldSrvr@@AEXAAVCAr@@K@ZU?$less@K@std@@V?$allocator@U?$pair@$$CBKP8CDPWldSrvr@@AEXAAVCAr@@K@Z@std@@@4@$0A@@std@@@std@@QAE?AViterator@12@XZ 0041f460 f i dpwldsrvr.obj
 0001:0001e470       ?lower_bound@?$_Tree@V?$_Tmap_traits@KP8CDPWldSrvr@@AEXAAVCAr@@K@ZU?$less@K@std@@V?$allocator@U?$pair@$$CBKP8CDPWldSrvr@@AEXAAVCAr@@K@Z@std@@@4@$0A@@std@@@std@@QAE?AViterator@12@ABK@Z 0041f470 f i dpwldsrvr.obj
 0001:0001e4b0       ?_Buynode@?$_Tree@V?$_Tmap_traits@KP8CDPWldSrvr@@AEXAAVCAr@@K@ZU?$less@K@std@@V?$allocator@U?$pair@$$CBKP8CDPWldSrvr@@AEXAAVCAr@@K@Z@std@@@4@$0A@@std@@@std@@IAEPAU_Node@?$_Tree_nod@V?$_Tmap_traits@KP8CDPWldSrvr@@AEXAAVCAr@@K@ZU?$less@K@std@@V?$allocator@U?$pair@$$CBKP8CDPWldSrvr@@AEXAAVCAr@@K@Z@std@@@4@$0A@@std@@@2@PAU342@00ABU?$pair@$$CBKP8CDPWldSrvr@@AEXAAVCAr@@K@Z@2@D@Z 0041f4b0 f i dpwldsrvr.obj
 0001:0001e4f0       ??Fconst_iterator@?$_Tree@V?$_Tmap_traits@KP8CDPWldSrvr@@AEXAAVCAr@@K@ZU?$less@K@std@@V?$allocator@U?$pair@$$CBKP8CDPWldSrvr@@AEXAAVCAr@@K@Z@std@@@4@$0A@@std@@@std@@QAEAAV012@XZ 0041f4f0 f i dpwldsrvr.obj
 0001:0001e500       ?_Buynode@?$_Tree@V?$_Tmap_traits@KP8CDPWldSrvr@@AEXAAVCAr@@K@ZU?$less@K@std@@V?$allocator@U?$pair@$$CBKP8CDPWldSrvr@@AEXAAVCAr@@K@Z@std@@@4@$0A@@std@@@std@@IAEPAU_Node@?$_Tree_nod@V?$_Tmap_traits@KP8CDPWldSrvr@@AEXAAVCAr@@K@ZU?$less@K@std@@V?$allocator@U?$pair@$$CBKP8CDPWldSrvr@@AEXAAVCAr@@K@Z@std@@@4@$0A@@std@@@2@XZ 0041f500 f i dpwldsrvr.obj
 0001:0001e540       ??0?$_Tree_ptr@V?$_Tmap_traits@KP8CDPWldSrvr@@AEXAAVCAr@@K@ZU?$less@K@std@@V?$allocator@U?$pair@$$CBKP8CDPWldSrvr@@AEXAAVCAr@@K@Z@std@@@4@$0A@@std@@@std@@IAE@ABU?$less@K@1@V?$allocator@U?$pair@$$CBKP8CDPWldSrvr@@AEXAAVCAr@@K@Z@std@@@1@@Z 0041f540 f i dpwldsrvr.obj
 0001:0001e550       ?_Erase@?$_Tree@V?$_Tmap_traits@KP8CDPWldSrvr@@AEXAAVCAr@@K@ZU?$less@K@std@@V?$allocator@U?$pair@$$CBKP8CDPWldSrvr@@AEXAAVCAr@@K@Z@std@@@4@$0A@@std@@@std@@IAEXPAU_Node@?$_Tree_nod@V?$_Tmap_traits@KP8CDPWldSrvr@@AEXAAVCAr@@K@ZU?$less@K@std@@V?$allocator@U?$pair@$$CBKP8CDPWldSrvr@@AEXAAVCAr@@K@Z@std@@@4@$0A@@std@@@2@@Z 0041f550 f i dpwldsrvr.obj
 0001:0001e590       ??Eiterator@?$_Tree@V?$_Tmap_traits@KP8CDPWldSrvr@@AEXAAVCAr@@K@ZU?$less@K@std@@V?$allocator@U?$pair@$$CBKP8CDPWldSrvr@@AEXAAVCAr@@K@Z@std@@@4@$0A@@std@@@std@@QAEAAV012@XZ 0041f590 f i dpwldsrvr.obj
 0001:0001e5a0       ?find@?$_Tree@V?$_Tmap_traits@KP8CDPWldSrvr@@AEXAAVCAr@@K@ZU?$less@K@std@@V?$allocator@U?$pair@$$CBKP8CDPWldSrvr@@AEXAAVCAr@@K@Z@std@@@4@$0A@@std@@@std@@QAE?AViterator@12@ABK@Z 0041f5a0 f i dpwldsrvr.obj
 0001:0001e610       ??Fiterator@?$_Tree@V?$_Tmap_traits@KP8CDPWldSrvr@@AEXAAVCAr@@K@ZU?$less@K@std@@V?$allocator@U?$pair@$$CBKP8CDPWldSrvr@@AEXAAVCAr@@K@Z@std@@@4@$0A@@std@@@std@@QAEAAV012@XZ 0041f610 f i dpwldsrvr.obj
 0001:0001e620       ?_Init@?$_Tree@V?$_Tmap_traits@KP8CDPWldSrvr@@AEXAAVCAr@@K@ZU?$less@K@std@@V?$allocator@U?$pair@$$CBKP8CDPWldSrvr@@AEXAAVCAr@@K@Z@std@@@4@$0A@@std@@@std@@IAEXXZ 0041f620 f i dpwldsrvr.obj
 0001:0001e650       ??0?$_Tree_val@V?$_Tmap_traits@KP8CDPWldSrvr@@AEXAAVCAr@@K@ZU?$less@K@std@@V?$allocator@U?$pair@$$CBKP8CDPWldSrvr@@AEXAAVCAr@@K@Z@std@@@4@$0A@@std@@@std@@IAE@ABU?$less@K@1@V?$allocator@U?$pair@$$CBKP8CDPWldSrvr@@AEXAAVCAr@@K@Z@std@@@1@@Z 0041f650 f i dpwldsrvr.obj
 0001:0001e660       ?clear@?$_Tree@V?$_Tmap_traits@KP8CDPWldSrvr@@AEXAAVCAr@@K@ZU?$less@K@std@@V?$allocator@U?$pair@$$CBKP8CDPWldSrvr@@AEXAAVCAr@@K@Z@std@@@4@$0A@@std@@@std@@QAEXXZ 0041f660 f i dpwldsrvr.obj
 0001:0001e690       ??Eiterator@?$_Tree@V?$_Tmap_traits@KP8CDPWldSrvr@@AEXAAVCAr@@K@ZU?$less@K@std@@V?$allocator@U?$pair@$$CBKP8CDPWldSrvr@@AEXAAVCAr@@K@Z@std@@@4@$0A@@std@@@std@@QAE?AV012@H@Z 0041f690 f i dpwldsrvr.obj
 0001:0001e6b0       ?GetHandler@CDPWldSrvr@@AAEP81@AEXAAVCAr@@K@ZK@Z 0041f6b0 f i dpwldsrvr.obj
 0001:0001e6e0       ?UserMessageHandler@CDPWldSrvr@@UAEXPAUDPMSG_GENERIC@@KK@Z 0041f6e0 f   dpwldsrvr.obj
 0001:0001e7d0       ??0?$_Tree@V?$_Tmap_traits@KP8CDPWldSrvr@@AEXAAVCAr@@K@ZU?$less@K@std@@V?$allocator@U?$pair@$$CBKP8CDPWldSrvr@@AEXAAVCAr@@K@Z@std@@@4@$0A@@std@@@std@@QAE@ABU?$less@K@1@ABV?$allocator@U?$pair@$$CBKP8CDPWldSrvr@@AEXAAVCAr@@K@Z@std@@@1@@Z 0041f7d0 f i dpwldsrvr.obj
 0001:0001e800       ?_Insert@?$_Tree@V?$_Tmap_traits@KP8CDPWldSrvr@@AEXAAVCAr@@K@ZU?$less@K@std@@V?$allocator@U?$pair@$$CBKP8CDPWldSrvr@@AEXAAVCAr@@K@Z@std@@@4@$0A@@std@@@std@@IAE?AViterator@12@_NPAU_Node@?$_Tree_nod@V?$_Tmap_traits@KP8CDPWldSrvr@@AEXAAVCAr@@K@ZU?$less@K@std@@V?$allocator@U?$pair@$$CBKP8CDPWldSrvr@@AEXAAVCAr@@K@Z@std@@@4@$0A@@std@@@2@ABU?$pair@$$CBKP8CDPWldSrvr@@AEXAAVCAr@@K@Z@2@@Z 0041f800 f i dpwldsrvr.obj
 0001:0001e9b0       ?erase@?$_Tree@V?$_Tmap_traits@KP8CDPWldSrvr@@AEXAAVCAr@@K@ZU?$less@K@std@@V?$allocator@U?$pair@$$CBKP8CDPWldSrvr@@AEXAAVCAr@@K@Z@std@@@4@$0A@@std@@@std@@QAE?AViterator@12@V312@@Z 0041f9b0 f i dpwldsrvr.obj
 0001:0001ec70       ?insert@?$_Tree@V?$_Tmap_traits@KP8CDPWldSrvr@@AEXAAVCAr@@K@ZU?$less@K@std@@V?$allocator@U?$pair@$$CBKP8CDPWldSrvr@@AEXAAVCAr@@K@Z@std@@@4@$0A@@std@@@std@@QAE?AU?$pair@Viterator@?$_Tree@V?$_Tmap_traits@KP8CDPWldSrvr@@AEXAAVCAr@@K@ZU?$less@K@std@@V?$allocator@U?$pair@$$CBKP8CDPWldSrvr@@AEXAAVCAr@@K@Z@std@@@4@$0A@@std@@@std@@_N@2@ABU?$pair@$$CBKP8CDPWldSrvr@@AEXAAVCAr@@K@Z@2@@Z 0041fc70 f i dpwldsrvr.obj
 0001:0001ed30       ?erase@?$_Tree@V?$_Tmap_traits@KP8CDPWldSrvr@@AEXAAVCAr@@K@ZU?$less@K@std@@V?$allocator@U?$pair@$$CBKP8CDPWldSrvr@@AEXAAVCAr@@K@Z@std@@@4@$0A@@std@@@std@@QAE?AViterator@12@V312@0@Z 0041fd30 f i dpwldsrvr.obj
 0001:0001edf0       ?_Tidy@?$_Tree@V?$_Tmap_traits@KP8CDPWldSrvr@@AEXAAVCAr@@K@ZU?$less@K@std@@V?$allocator@U?$pair@$$CBKP8CDPWldSrvr@@AEXAAVCAr@@K@Z@std@@@4@$0A@@std@@@std@@IAEXXZ 0041fdf0 f i dpwldsrvr.obj
 0001:0001ee20       ??1?$_Tree@V?$_Tmap_traits@KP8CDPWldSrvr@@AEXAAVCAr@@K@ZU?$less@K@std@@V?$allocator@U?$pair@$$CBKP8CDPWldSrvr@@AEXAAVCAr@@K@Z@std@@@4@$0A@@std@@@std@@QAE@XZ 0041fe20 f i dpwldsrvr.obj
 0001:0001ee50       ??1?$map@KP8CDPWldSrvr@@AEXAAVCAr@@K@ZU?$less@K@std@@V?$allocator@U?$pair@$$CBKP8CDPWldSrvr@@AEXAAVCAr@@K@Z@std@@@4@@std@@QAE@XZ 0041fe50 f i dpwldsrvr.obj
 0001:0001ee80       ??1CDPWldSrvr@@UAE@XZ      0041fe80 f   dpwldsrvr.obj
 0001:0001ef00       ??0?$map@KP8CDPWldSrvr@@AEXAAVCAr@@K@ZU?$less@K@std@@V?$allocator@U?$pair@$$CBKP8CDPWldSrvr@@AEXAAVCAr@@K@Z@std@@@4@@std@@QAE@XZ 0041ff00 f i dpwldsrvr.obj
 0001:0001ef30       ??0CDPWldSrvr@@QAE@XZ      0041ff30 f   dpwldsrvr.obj
 0001:0001f010       ??_ECDPWldSrvr@@UAEPAXI@Z  00420010 f i dpwldsrvr.obj
 0001:0001f010       ??_GCDPWldSrvr@@UAEPAXI@Z  00420010 f i dpwldsrvr.obj
 0001:0001f030       ?GetInstance@CDPWldSrvr@@SAPAV1@XZ 00420030 f   dpwldsrvr.obj
 0001:0001f090       ??5CAr@@QAEAAV0@AAH@Z      00420090 f i globalgiftbox.obj
 0001:0001f0d0       ?Save@CGlobalGiftbox@@AAEHXZ 004200d0 f   globalgiftbox.obj
 0001:0001f150       ?OnQuery@CGlobalGiftbox@@QAEXPAV?$CDPMng@VCBuffer@@@@AAVCAr@@K@Z 00420150 f   globalgiftbox.obj
 0001:0001f400       ?OnRestore@CGlobalGiftbox@@QAEXAAVCAr@@@Z 00420400 f   globalgiftbox.obj
 0001:0001f490       ?OnUpload@CGlobalGiftbox@@QAEXAAVCAr@@@Z 00420490 f   globalgiftbox.obj
 0001:0001f710       ??1CGlobalGiftbox@@UAE@XZ  00420710 f   globalgiftbox.obj
 0001:0001f7a0       ??0CGlobalGiftbox@@QAE@XZ  004207a0 f   globalgiftbox.obj
 0001:0001f7e0       ??_ECGlobalGiftbox@@UAEPAXI@Z 004207e0 f i globalgiftbox.obj
 0001:0001f7e0       ??_GCGlobalGiftbox@@UAEPAXI@Z 004207e0 f i globalgiftbox.obj
 0001:0001f800       ?GetInstance@CGlobalGiftbox@@SAPAV1@XZ 00420800 f   globalgiftbox.obj
 0001:0001f8a0       ?Allocate@CCRTAllocator@ATL@@SAPAXI@Z 004208a0 f i StdAfx.obj
 0001:0001f8b0       ?Free@CCRTAllocator@ATL@@SAXPAX@Z 004208b0 f i StdAfx.obj
 0001:0001f8c0       ?_AtlVerifyStackAvailable@_ATL_SAFE_ALLOCA_IMPL@ATL@@YA_NK@Z 004208c0 f i StdAfx.obj
 0001:0001f950       ?AtlA2WHelper@@YGPAGPAGPBDHI@Z 00420950 f i StdAfx.obj
 0001:0001f990       ?AtlW2AHelper@@YGPADPADPBGHI@Z 00420990 f i StdAfx.obj
 0001:0001f9d0       ?AtlThrowLastWin32@ATL@@YGXXZ 004209d0 f i StdAfx.obj
 0001:0001f9f0       ?_AtlInstallStringThunk@ATL@@YAXPAPAXPAX1@Z 004209f0 f i StdAfx.obj
 0001:0001fa30       ?lstrcmpiWFake@ATL@@YGHPBG0@Z 00420a30 f i StdAfx.obj
 0001:0001fb00       ?lstrcmpiWThunk@ATL@@YGHPBG0@Z 00420b00 f i StdAfx.obj
 0001:0001fb50       ?CharLowerWFake@ATL@@YGPAGPAG@Z 00420b50 f i StdAfx.obj
 0001:0001fc10       ?CharLowerWThunk@ATL@@YGPAGPAG@Z 00420c10 f i StdAfx.obj
 0001:0001fc60       ?CharUpperWFake@ATL@@YGPAGPAG@Z 00420c60 f i StdAfx.obj
 0001:0001fd20       ?CharUpperWThunk@ATL@@YGPAGPAG@Z 00420d20 f i StdAfx.obj
 0001:0001fd70       ??0?$CAtlSafeAllocBufferManager@VCCRTAllocator@ATL@@@_ATL_SAFE_ALLOCA_IMPL@ATL@@QAE@XZ 00420d70 f i StdAfx.obj
 0001:0001fd80       ??1?$CAtlSafeAllocBufferManager@VCCRTAllocator@ATL@@@_ATL_SAFE_ALLOCA_IMPL@ATL@@QAE@XZ 00420d80 f i StdAfx.obj
 0001:0001fda0       ??0?$CTempBuffer@D$0IA@VCCRTAllocator@ATL@@@ATL@@QAE@XZ 00420da0 f i StdAfx.obj
 0001:0001fdb0       ??B?$CTempBuffer@D$0IA@VCCRTAllocator@ATL@@@ATL@@QBEPADXZ 00420db0 f i StdAfx.obj
 0001:0001fdc0       ??1?$CW2AEX@$0IA@@ATL@@QAE@XZ 00420dc0 f i StdAfx.obj
 0001:0001fde0       ??B?$CW2AEX@$0IA@@ATL@@QBEPADXZ 00420de0 f i StdAfx.obj
 0001:0001fdf0       ?FreeHeap@?$CTempBuffer@D$0IA@VCCRTAllocator@ATL@@@ATL@@AAEXXZ 00420df0 f i StdAfx.obj
 0001:0001fe00       ?Init@?$CW2AEX@$0IA@@ATL@@AAEXPBGI@Z 00420e00 f i StdAfx.obj
 0001:0001fe70       ?StringUppercase@?$ChTraitsCRT@D@ATL@@SAPADPAD@Z 00420e70 f i StdAfx.obj
 0001:0001fe80       ?GetData@CAtlSafeAllocBufferNode@?$CAtlSafeAllocBufferManager@VCCRTAllocator@ATL@@@_ATL_SAFE_ALLOCA_IMPL@ATL@@QAEPAXXZ 00420e80 f i StdAfx.obj
 0001:0001fe90       ?AllocateHeap@?$CTempBuffer@D$0IA@VCCRTAllocator@ATL@@@ATL@@AAEXI@Z 00420e90 f i StdAfx.obj
 0001:0001fec0       ?Allocate@?$CAtlSafeAllocBufferManager@VCCRTAllocator@ATL@@@_ATL_SAFE_ALLOCA_IMPL@ATL@@QAEPAXK@Z 00420ec0 f i StdAfx.obj
 0001:0001fef0       ??1?$CTempBuffer@D$0IA@VCCRTAllocator@ATL@@@ATL@@QAE@XZ 00420ef0 f i StdAfx.obj
 0001:0001ff00       ??0?$CW2AEX@$0IA@@ATL@@QAE@PBG@Z 00420f00 f i StdAfx.obj
 0001:0001ff30       ?AllocateBytes@?$CTempBuffer@D$0IA@VCCRTAllocator@ATL@@@ATL@@QAEPADI@Z 00420f30 f i StdAfx.obj
 0001:0001ff60       ?CompareStringWFake@ATL@@YGHKKPBGH0H@Z 00420f60 f i StdAfx.obj
 0001:000200c0       ?CompareStringWThunk@ATL@@YGHKKPBGH0H@Z 004210c0 f i StdAfx.obj
 0001:00020110       ?Allocate@?$CTempBuffer@D$0IA@VCCRTAllocator@ATL@@@ATL@@QAEPADI@Z 00421110 f i StdAfx.obj
 0001:00020140       ?GetEnvironmentVariableWFake@ATL@@YGKPBGPAGK@Z 00421140 f i StdAfx.obj
 0001:000202d0       ?GetEnvironmentVariableWThunk@ATL@@YGKPBGPAGK@Z 004212d0 f i StdAfx.obj
 0001:00020320       ?GetStringTypeExWFake@ATL@@YGHKKPBGHPAG@Z 00421320 f i StdAfx.obj
 0001:00020430       ?GetStringTypeExWThunk@ATL@@YGHKKPBGHPAG@Z 00421430 f i StdAfx.obj
 0001:00020480       ?MakeUpper@?$CStringT@DV?$StrTraitMFC@DV?$ChTraitsCRT@D@ATL@@@@@ATL@@QAEAAV12@XZ 00421480 f i StdAfx.obj
 0001:000204e0       ?KillProcess@@YAHV?$CStringT@DV?$StrTraitMFC@DV?$ChTraitsCRT@D@ATL@@@@@ATL@@@Z 004214e0 f   StdAfx.obj
 0001:00020780       ?IsStoring@CAr@@QBEHXZ     00421780 f i ar.obj
 0001:00020790       ??0CAr@@QAE@PAXI@Z         00421790 f   ar.obj
 0001:000207e0       ??1CAr@@QAE@XZ             004217e0 f   ar.obj
 0001:00020810       ?Read@CAr@@QAEXPAXI@Z      00421810 f   ar.obj
 0001:00020870       ?Reserve@CAr@@QAEXI@Z      00421870 f   ar.obj
 0001:000208a0       ?CheckBuf@CAr@@QAEXI@Z     004218a0 f   ar.obj
 0001:00020930       ?GetBuffer@CAr@@QAEPAEPAH@Z 00421930 f   ar.obj
 0001:00020950       ?Flush@CAr@@QAEXXZ         00421950 f   ar.obj
 0001:00020960       ?ReelIn@CAr@@QAEXI@Z       00421960 f   ar.obj
 0001:000209a0       ?Write@CAr@@QAEXPBXI@Z     004219a0 f   ar.obj
 0001:000209e0       ?ReadString@CAr@@QAEPADPAD@Z 004219e0 f   ar.obj
 0001:00020a20       ?ReadString@CAr@@QAEPADPADH@Z 00421a20 f   ar.obj
 0001:00020a90       ?WriteString@CAr@@QAEXPBD@Z 00421a90 f   ar.obj
 0001:00020af0       ??1CHeapMng@@UAE@XZ        00421af0 f   heapmng.obj
 0001:00020b10       ?Malloc@CHeapMng@@QAEPAXI@Z 00421b10 f   heapmng.obj
 0001:00020b30       ?Free@CHeapMng@@QAEXPAX@Z  00421b30 f   heapmng.obj
 0001:00020b50       ?Realloc@CHeapMng@@QAEPAXPAXI@Z 00421b50 f   heapmng.obj
 0001:00020b70       ??0CHeapMng@@QAE@XZ        00421b70 f   heapmng.obj
 0001:00020ba0       ??_GCHeapMng@@UAEPAXI@Z    00421ba0 f i heapmng.obj
 0001:00020ba0       ??_ECHeapMng@@UAEPAXI@Z    00421ba0 f i heapmng.obj
 0001:00020bd0       ?FindKey@CMyTrace@@AAEHK@Z 00421bd0 f   mytrace.obj
 0001:00020c70       ?Key@CMyTrace@@SAKPBD@Z    00421c70 f   mytrace.obj
 0001:00020cf0       ?TextOutA@CMyTrace@@AAEXPAUHDC__@@HHPBDH@Z 00421cf0 f   mytrace.obj
 0001:00020d60       ?GetText@CMyTrace@@QAEXKPAD@Z 00421d60 f   mytrace.obj
 0001:00020d90       ??0CMyTrace@@QAE@XZ        00421d90 f   mytrace.obj
 0001:00020de0       ??1CMyTrace@@UAE@XZ        00421de0 f   mytrace.obj
 0001:00020e20       ?Add@CMyTrace@@QAAXKHPBDZZ 00421e20 f   mytrace.obj
 0001:00020ff0       ?AddLine@CMyTrace@@QAEXD@Z 00421ff0 f   mytrace.obj
 0001:00021060       ?Paint@CMyTrace@@QAEXPAUHDC__@@@Z 00422060 f   mytrace.obj
 0001:000212f0       ??_ECMyTrace@@UAEPAXI@Z    004222f0 f i mytrace.obj
 0001:000212f0       ??_GCMyTrace@@UAEPAXI@Z    004222f0 f i mytrace.obj
 0001:00021310       ?Restart@CRC32@@QAEXXZ     00422310 f i buffer.obj
 0001:00021320       ?DigestSize@CRC32@@QBEIXZ  00422320 f i buffer.obj
 0001:00021330       ?GetHdrSize@CBuffer@@SAKH@Z 00422330 f i buffer.obj
 0001:00021350       ?GetSize@CBuffer@@QAEHXZ   00422350 f i buffer.obj
 0001:00021360       ?GetHdrSize@CBuffer2@@SAKH@Z 00422360 f i buffer.obj
 0001:00021380       ??0CBuffer@@QAE@K@Z        00422380 f   buffer.obj
 0001:000213f0       ??1CBuffer@@UAE@XZ         004223f0 f   buffer.obj
 0001:00021420       ?AddSysMsg@CBuffer@@UAEXPAXK@Z 00422420 f   buffer.obj
 0001:000214c0       ?AddData@CBuffer@@UAEXPAEKAAK@Z 004224c0 f   buffer.obj
 0001:00021520       ?MessageHandler@CBuffer@@QAEXPAV?$CDPMng@VCBuffer@@@@K@Z 00422520 f   buffer.obj
 0001:000215c0       ?AddSysMsg@CBuffer2@@UAEXPAXK@Z 004225c0 f   buffer.obj
 0001:00021650       ?MessageHandler@CBuffer2@@QAEXPAV?$CDPMng@VCBuffer2@@@@K@Z 00422650 f   buffer.obj
 0001:000216f0       ?AddSysMsg@CBuffer3@@UAEXPAXK@Z 004226f0 f   buffer.obj
 0001:00021750       ?AddHdr@CBuffer3@@UAEXPAEK@Z 00422750 f   buffer.obj
 0001:00021760       ?MessageHandler@CBuffer3@@QAEXPAV?$CDPMng@VCBuffer3@@@@K@Z 00422760 f   buffer.obj
 0001:000217c0       ?Free@?$MemPooler@VCBuffer2@@@@QAEHPAVCBuffer2@@@Z 004227c0 f i buffer.obj
 0001:00021810       ?Final@CRC32@@QAEXPAE@Z    00422810 f i buffer.obj
 0001:00021820       ??0CBuffer2@@QAE@K@Z       00422820 f i buffer.obj
 0001:00021840       ??3CBuffer2@@SAXPAX@Z      00422840 f i buffer.obj
 0001:00021880       ??_GCBuffer2@@UAEPAXI@Z    00422880 f i buffer.obj
 0001:00021880       ??_ECBuffer2@@UAEPAXI@Z    00422880 f i buffer.obj
 0001:000218d0       ??1CBuffer2@@UAE@XZ        004228d0 f i buffer.obj
 0001:00021900       ??_ECBuffer@@UAEPAXI@Z     00422900 f i buffer.obj
 0001:00021900       ??_GCBuffer@@UAEPAXI@Z     00422900 f i buffer.obj
 0001:00021980       ?AddHdr@CBuffer@@UAEXPAEK@Z 00422980 f   buffer.obj
 0001:00021a40       ?AddHdr@CBuffer2@@UAEXPAEK@Z 00422a40 f   buffer.obj
 0001:00021b10       ?Create@?$MemPooler@VCBuffer2@@@@IAEXXZ 00422b10 f i buffer.obj
 0001:00021ba0       ??0?$MemPooler@VCBuffer@@@@QAE@H@Z 00422ba0 f i buffer.obj
 0001:00021c20       ??0?$MemPooler@VCBuffer2@@@@QAE@H@Z 00422c20 f i buffer.obj
 0001:00021ca0       ?Alloc@?$MemPooler@VCBuffer2@@@@QAEPAVCBuffer2@@XZ 00422ca0 f i buffer.obj
 0001:00021ce0       ??0?$MemPooler@VCBuffer3@@@@QAE@H@Z 00422ce0 f i buffer.obj
 0001:00021d60       ??2CBuffer2@@SAPAXI@Z      00422d60 f i buffer.obj
 0001:00021da0       ?Fetch@CBuffer@@QAEPAV1@PAPAV1@KPAVCRC32@@@Z 00422da0 f   buffer.obj
 0001:00022050       ?Fetch@CBuffer2@@QAEPAV1@PAPAV1@KPAVCRC32@@@Z 00423050 f   buffer.obj
 0001:00022350       ?Fetch@CBuffer3@@QAEPAV1@PAPAV1@KPAVCRC32@@@Z 00423350 f   buffer.obj
 0001:00022480       ?GetCrcByte@CRC32@@QBEEI@Z 00423480 f i crc.obj
 0001:00022490       ?Reset@CRC32@@AAEXXZ       00423490 f i crc.obj
 0001:000224a0       ??0CRC32@@QAE@XZ           004234a0 f   crc.obj
 0001:000224b0       ?ThrowIfInvalidTruncatedSize@CRC32@@ABEXI@Z 004234b0 f   crc.obj
 0001:000224c0       ?TruncatedFinal@CRC32@@QAEXPAEI@Z 004234c0 f   crc.obj
 0001:00022500       ??$IsPowerOf2@I@@YA_NI@Z   00423500 f i crc.obj
 0001:00022520       ??$ModPowerOf2@II@@YAIII@Z 00423520 f i crc.obj
 0001:00022530       ??$GetAlignment@I@@YAIPAI@Z 00423530 f i crc.obj
 0001:00022540       ?IsAlignedOn@@YA_NPBXI@Z   00423540 f i crc.obj
 0001:00022570       ??$IsAligned@I@@YA_NPBXPAI@Z 00423570 f i crc.obj
 0001:00022580       ?Update@CRC32@@QAEXPBEI@Z  00423580 f   crc.obj
 0001:00022660       ??0CSock@@QAE@XZ           00423660 f   sock.obj
 0001:00022680       ?Clear@CSock@@QAEXXZ       00423680 f   sock.obj
 0001:000226b0       ?Attach@CSock@@UAEXI@Z     004236b0 f   sock.obj
 0001:000226f0       ?GetHostAddr@CSock@@UAEJPAXPAK@Z 004236f0 f   sock.obj
 0001:000227a0       ??1CSock@@UAE@XZ           004237a0 f   sock.obj
 0001:000227e0       ?Create@CSock@@UAEHGH@Z    004237e0 f   sock.obj
 0001:000228f0       ??_GCSock@@UAEPAXI@Z       004238f0 f i sock.obj
 0001:000228f0       ??_ECSock@@UAEPAXI@Z       004238f0 f i sock.obj
 0001:00022940       ?DXUtil_GetDXSDKMediaPathCch@@YAJPADH@Z 00423940 f   dxutil.obj
 0001:00022a30       ?DXUtil_WriteStringRegKey@@YAJPAUHKEY__@@PAD1@Z 00423a30 f   dxutil.obj
 0001:00022a70       ?DXUtil_ReadIntRegKey@@YAJPAUHKEY__@@PADPAKK@Z 00423a70 f   dxutil.obj
 0001:00022ad0       ?DXUtil_WriteIntRegKey@@YAJPAUHKEY__@@PADK@Z 00423ad0 f   dxutil.obj
 0001:00022b00       ?DXUtil_ReadBoolRegKey@@YAJPAUHKEY__@@PADPAHH@Z 00423b00 f   dxutil.obj
 0001:00022b60       ?DXUtil_WriteBoolRegKey@@YAJPAUHKEY__@@PADH@Z 00423b60 f   dxutil.obj
 0001:00022b90       ?DXUtil_ReadGuidRegKey@@YAJPAUHKEY__@@PADPAU_GUID@@AAU2@@Z 00423b90 f   dxutil.obj
 0001:00022c00       ?DXUtil_WriteGuidRegKey@@YAJPAUHKEY__@@PADU_GUID@@@Z 00423c00 f   dxutil.obj
 0001:00022c60       ?DXUtil_Timer@@YGMW4TIMER_COMMAND@@@Z 00423c60 f   dxutil.obj
 0001:00023030       __tcsncpy                  00424030 f i dxutil.obj
 0001:00023040       __tcsrchr                  00424040 f i dxutil.obj
 0001:00023050       ?DXUtil_ConvertAnsiStringToWideCch@@YAJPAGPBDH@Z 00424050 f   dxutil.obj
 0001:000230a0       ?DXUtil_ConvertWideStringToAnsiCch@@YAJPADPBGH@Z 004240a0 f   dxutil.obj
 0001:000230f0       ?DXUtil_ConvertGenericStringToAnsiCch@@YAJPADPBDH@Z 004240f0 f   dxutil.obj
 0001:00023130       ?DXUtil_ConvertGenericStringToWideCch@@YAJPAGPBDH@Z 00424130 f   dxutil.obj
 0001:00023160       ?DXUtil_ConvertAnsiStringToGenericCch@@YAJPADPBDH@Z 00424160 f   dxutil.obj
 0001:000231a0       ?DXUtil_ConvertWideStringToGenericCch@@YAJPADPBGH@Z 004241a0 f   dxutil.obj
 0001:000231d0       ?DXUtil_LaunchReadme@@YAXPAUHWND__@@PAD@Z 004241d0 f   dxutil.obj
 0001:00023550       ?DXUtil_Trace@@YAXPADZZ    00424550 f   dxutil.obj
 0001:00023560       ?DXUtil_ConvertStringToGUID@@YAJPBDPAU_GUID@@@Z 00424560 f   dxutil.obj
 0001:00023620       ?DXUtil_ConvertGUIDToStringCch@@YAJPBU_GUID@@PADH@Z 00424620 f   dxutil.obj
 0001:00023690       ??0CArrayList@@QAE@W4ArrayListType@@I@Z 00424690 f   dxutil.obj
 0001:000236c0       ??1CArrayList@@QAE@XZ      004246c0 f   dxutil.obj
 0001:000236d0       ?Add@CArrayList@@QAEJPAX@Z 004246d0 f   dxutil.obj
 0001:000237c0       ?Remove@CArrayList@@QAEXI@Z 004247c0 f   dxutil.obj
 0001:00023800       ?GetPtr@CArrayList@@QAEPAXI@Z 00424800 f   dxutil.obj
 0001:00023820       ?Contains@CArrayList@@QAE_NPAX@Z 00424820 f   dxutil.obj
 0001:00023870       ?DXUtil_ConvertAnsiStringToWideCb@@YAJPAGPBDH@Z 00424870 f   dxutil.obj
 0001:000238c0       ?DXUtil_ConvertWideStringToAnsiCb@@YAJPADPBGH@Z 004248c0 f   dxutil.obj
 0001:00023910       ?DXUtil_ConvertGenericStringToAnsiCb@@YAJPADPBDH@Z 00424910 f   dxutil.obj
 0001:00023950       ?DXUtil_ConvertGenericStringToWideCb@@YAJPAGPBDH@Z 00424950 f   dxutil.obj
 0001:00023990       ?DXUtil_ConvertAnsiStringToGenericCb@@YAJPADPBDH@Z 00424990 f   dxutil.obj
 0001:000239d0       ?DXUtil_ConvertWideStringToGenericCb@@YAJPADPBGH@Z 004249d0 f   dxutil.obj
 0001:00023a00       ?DXUtil_ConvertGUIDToStringCb@@YAJPBU_GUID@@PADH@Z 00424a00 f   dxutil.obj
 0001:00023a10       ?DXUtil_GetDXSDKMediaPathCb@@YAJPADH@Z 00424a10 f   dxutil.obj
 0001:00023a20       ?DXUtil_FindMediaFileCch@@YAJPADH0@Z 00424a20 f   dxutil.obj
 0001:00023be0       ?DXUtil_ReadStringRegKeyCch@@YAJPAUHKEY__@@PAD1K1@Z 00424be0 f   dxutil.obj
 0001:00023c40       ?DXUtil_ReadStringRegKeyCb@@YAJPAUHKEY__@@PAD1K1@Z 00424c40 f   dxutil.obj
 0001:00023c50       ?DXUtil_FindMediaFileCb@@YAJPADH0@Z 00424c50 f   dxutil.obj
 0001:00023c60       ?OUTPUTDEBUGSTRING@@YAXPBDZZ 00424c60 f   debug.obj
 0001:00023cd0       ?MakeFileNameDate@@YAPBDPBD@Z 00424cd0 f   debug.obj
 0001:00023f30       ?DEBUGOUT2@@YAXPBD0@Z      00424f30 f   debug.obj
 0001:00023f90       ?FILEOUT@@YAXPBD0ZZ        00424f90 f   debug.obj
 0001:00023fb0       ?WriteLog@@YAXPBDZZ        00424fb0 f   debug.obj
 0001:00023fd0       ?WriteError@@YAXPBDZZ      00424fd0 f   debug.obj
 0001:00023ff0       ?Close@CFileIO@@UAEHXZ     00424ff0 f   file.obj
 0001:00024020       ?Open@CFileIO@@UAEHPBDPAD@Z 00425020 f   file.obj
 0001:00024050       ?Read@CFileIO@@UAEPAXXZ    00425050 f   file.obj
 0001:000240b0       ??0CFileFinder@@QAE@XZ     004250b0 f   file.obj
 0001:000240c0       ??1CFileFinder@@QAE@XZ     004250c0 f   file.obj
 0001:000240d0       ?WildCmp@CFileFinder@@QAEHPBD0@Z 004250d0 f   file.obj
 0001:00024170       ?FindFirst@CFileFinder@@QAEHPBDPAU_finddata_t@@@Z 00425170 f   file.obj
 0001:000241a0       ?FindNext@CFileFinder@@QAEHPAU_finddata_t@@@Z 004251a0 f   file.obj
 0001:000241c0       ?FindClose@CFileFinder@@QAEXXZ 004251c0 f   file.obj
 0001:000241e0       ?_mbstowcsz@ATL@@YAHPAGPBDK@Z 004251e0 f i file.obj
 0001:00024230       ?Write@CFileIO@@QAEIPAXII@Z 00425230 f i file.obj
 0001:00024250       ?PutWideString@CFileIO@@QAEHPBD@Z 00425250 f   file.obj
 0001:000242f0       ?iswhite@@YAHG@Z           004252f0 f i scanner.obj
 0001:00024310       ?isdelim@@YAHG@Z           00425310 f i scanner.obj
 0001:00024350       ?IsComposibleTh@@YA_NEEH@Z 00425350 f   scanner.obj
 0001:00024390       ?CharNextTh@@YAPBDPBD@Z    00425390 f   scanner.obj
 0001:00024400       ?CharNextVt@@YAPBDPBD@Z    00425400 f   scanner.obj
 0001:00024460       ?CharNextEx@@YAPBDPBDG@Z   00425460 f   scanner.obj
 0001:000244b0       ?IsTone@@YAHG@Z            004254b0 f   scanner.obj
 0001:000244e0       ?ComposeTone@@YAGGH@Z      004254e0 f   scanner.obj
 0001:00024520       ?GetTone@@YA_NGPAH0@Z      00425520 f   scanner.obj
 0001:00024580       ?ComposeString@@YAXPAG0H@Z 00425580 f   scanner.obj
 0001:00024600       ?DecomposeString@@YAXPAG0H@Z 00425600 f   scanner.obj
 0001:00024680       ?IsCyrillic@@YAHD@Z        00425680 f   scanner.obj
 0001:000246a0       ?WideCharToMultiByteEx@@YAHIKPBGHPADHPBDPAH@Z 004256a0 f   scanner.obj
 0001:000247a0       ?MultiByteToWideCharEx@@YAHIKPBDHPAGH@Z 004257a0 f   scanner.obj
 0001:00024840       ?Free@CScanner@@QAEXXZ     00425840 f   scanner.obj
 0001:00024870       ?Read@CScanner@@IAEHPAVCFileIO@@H@Z 00425870 f   scanner.obj
 0001:00024930       ?SetProg@CScanner@@QAEXPAX@Z 00425930 f   scanner.obj
 0001:00024950       ?GetLineNum@CScanner@@UAEHPAX@Z 00425950 f   scanner.obj
 0001:00024980       ?PutBack@CScanner@@UAEXXZ  00425980 f   scanner.obj
 0001:000249b0       ?StringLowercase@?$ChTraitsCRT@D@ATL@@SAPADPAD@Z 004259b0 f i scanner.obj
 0001:000249c0       ?isdigit2@@YAHD@Z          004259c0 f i scanner.obj
 0001:000249e0       ??0CFileIO@@QAE@XZ         004259e0 f i scanner.obj
 0001:000249f0       ??1CFileIO@@UAE@XZ         004259f0 f i scanner.obj
 0001:00024a00       ?Flush@CFileIO@@UAEHXZ     00425a00 f i scanner.obj
 0001:00024a10       ?GetC@CFileIO@@UAEDXZ      00425a10 f i scanner.obj
 0001:00024a20       ?GetW@CFileIO@@UAEGXZ      00425a20 f i scanner.obj
 0001:00024a30       ?GetDW@CFileIO@@UAEKXZ     00425a30 f i scanner.obj
 0001:00024a50       ?Tell@CFileIO@@UAEJXZ      00425a50 f i scanner.obj
 0001:00024a60       ?Seek@CFileIO@@UAEHJH@Z    00425a60 f i scanner.obj
 0001:00024a80       ?Read@CFileIO@@UAEIPAXII@Z 00425a80 f i scanner.obj
 0001:00024aa0       ??_GCFileIO@@UAEPAXI@Z     00425aa0 f i scanner.obj
 0001:00024aa0       ??_ECFileIO@@UAEPAXI@Z     00425aa0 f i scanner.obj
 0001:00024ad0       ?GetFormattedLength@?$ChTraitsCRT@D@ATL@@SAHPBDPAD@Z 00425ad0 f i scanner.obj
 0001:00024ae0       ?Format@?$ChTraitsCRT@D@ATL@@SAHPADPBD0@Z 00425ae0 f i scanner.obj
 0001:00024af0       ?GetLength@CFileIO@@UAEJXZ 00425af0 f i scanner.obj
 0001:00024b10       ??A?$CSimpleStringT@D$0A@@ATL@@QBEDH@Z 00425b10 f i scanner.obj
 0001:00024b30       ?IsEmpty@?$CSimpleStringT@D$0A@@ATL@@QBE_NXZ 00425b30 f i scanner.obj
 0001:00024b40       ??0CScanner@@QAE@H@Z       00425b40 f   scanner.obj
 0001:00024bb0       ?SetMark@CScanner@@UAEXXZ  00425bb0 f i scanner.obj
 0001:00024bc0       ?GoMark@CScanner@@UAEXXZ   00425bc0 f i scanner.obj
 0001:00024bd0       ??0CScanner@@QAE@PAXH@Z    00425bd0 f   scanner.obj
 0001:00024c40       ??1CScanner@@UAE@XZ        00425c40 f   scanner.obj
 0001:00024cb0       ?GetInt64@CScanner@@QAE_JH@Z 00425cb0 f   scanner.obj
 0001:00024d80       ?GetFloat@CScanner@@QAEMH@Z 00425d80 f   scanner.obj
 0001:00024e20       ??_ECScanner@@UAEPAXI@Z    00425e20 f i scanner.obj
 0001:00024e20       ??_GCScanner@@UAEPAXI@Z    00425e20 f i scanner.obj
 0001:00024e40       ?MakeLower@?$CStringT@DV?$StrTraitMFC@DV?$ChTraitsCRT@D@ATL@@@@@ATL@@QAEAAV12@XZ 00425e40 f i scanner.obj
 0001:00024ea0       ?FormatV@?$CStringT@DV?$StrTraitMFC@DV?$ChTraitsCRT@D@ATL@@@@@ATL@@QAEXPBDPAD@Z 00425ea0 f i scanner.obj
 0001:00024f20       ?GetNumber@CScanner@@QAEHH@Z 00425f20 f   scanner.obj
 0001:00025070       ?GetHex@CScanner@@QAEKH@Z  00426070 f   scanner.obj
 0001:00025120       ?GetSerialNumber@CScanner@@QAEKH@Z 00426120 f   scanner.obj
 0001:00025130       ?Format@?$CStringT@DV?$StrTraitMFC@DV?$ChTraitsCRT@D@ATL@@@@@ATL@@QAAXPBDZZ 00426130 f i scanner.obj
 0001:00025150       ?GetLastFull@CScanner@@QAEXXZ 00426150 f   scanner.obj
 0001:00025200       ?GetToken@CScanner@@UAEHH@Z 00426200 f   scanner.obj
 0001:00025900       ?Load@CScanner@@QAEHPBDH@Z 00426900 f   scanner.obj
 0001:00025a40       ?Load_FileIO@CScanner@@QAEHPBDH@Z 00426a40 f   scanner.obj
 0001:00025b80       ?GetTime@CTimer@@QAENXZ    00426b80 f   timer.obj
 0001:00025ba0       ?Set@CTimer@@QAEXMH@Z      00426ba0 f   timer.obj
 0001:00025be0       ?Reset@CTimer@@UAEXXZ      00426be0 f   timer.obj
 0001:00025c20       ?Over@CTimer@@UAEHXZ       00426c20 f   timer.obj
 0001:00025c80       ?GetLeftTime@CTimer@@QAENXZ 00426c80 f   timer.obj
 0001:00025cb0       ?GetInterval@CTimer@@QAEMXZ 00426cb0 f   timer.obj
 0001:00025cc0       ??RCTimer@@QAEXXZ          00426cc0 f   timer.obj
 0001:00025cd0       ??RCTimer@@QAEXN@Z         00426cd0 f   timer.obj
 0001:00025d20       ?GetSunPercent@CGameTimer@@QAEHXZ 00426d20 f   timer.obj
 0001:00025da0       ?GetMoonPercent@CGameTimer@@QAEHXZ 00426da0 f   timer.obj
 0001:00025db0       ??1CGameTimer@@QAE@XZ      00426db0 f   timer.obj
 0001:00025dc0       ?SetCurrentTime@CGameTimer@@QAEXN@Z 00426dc0 f   timer.obj
 0001:00025df0       ?GetTickCount@CGameTimer@@QAENXZ 00426df0 f   timer.obj
 0001:00025e20       ?SetCurrentTime@CGameTimer@@QAEXHH@Z 00426e20 f   timer.obj
 0001:00025e60       ?Compute@CGameTimer@@QAEXXZ 00426e60 f   timer.obj
 0001:00025ed0       ?SetTime@CGameTimer@@QAEXHHHH@Z 00426ed0 f   timer.obj
 0001:00025ef0       ?Set@CSkipTimer@@QAEXM@Z   00426ef0 f   timer.obj
 0001:00025f30       ?Over@CSkipTimer@@UAEHXZ   00426f30 f   timer.obj
 0001:00025fa0       ?IsNeedSkip@CSkipTimer@@QAEHXZ 00426fa0 f   timer.obj
 0001:00025fe0       ?Skip@CSkipTimer@@QAEXXZ   00426fe0 f   timer.obj
 0001:00025ff0       ?IsMaxSkip@CSkipTimer@@QAEHXZ 00426ff0 f   timer.obj
 0001:00026050       ?IsNight@CDate@@QAEHXZ     00427050 f   timer.obj
 0001:00026070       ?GetDay@CDate@@QAEHXZ      00427070 f   timer.obj
 0001:00026090       ?ComputeShade@CDate@@QAEHH@Z 00427090 f   timer.obj
 0001:000260f0       ?GetTimeColor@CDate@@QAEXPAUtagTIMECOLOR@@@Z 004270f0 f   timer.obj
 0001:000261a0       ?Process@CDate@@QAEXXZ     004271a0 f   timer.obj
 0001:00026220       ?InitFST@@YAXXZ            00427220 f   timer.obj
 0001:00026240       ?SetFrameSkip@@YAXH@Z      00427240 f   timer.obj
 0001:00026270       ?GetFrameSkip@@YAHXZ       00427270 f   timer.obj
 0001:000262c0       ?IsDrawTiming@@YAHXZ       004272c0 f   timer.obj
 0001:00026320       ?SetFST@@YAXXZ             00427320 f   timer.obj
 0001:000263b0       ??1CTimer@@UAE@XZ          004273b0 f i timer.obj
 0001:000263c0       ??_ECTimer@@UAEPAXI@Z      004273c0 f i timer.obj
 0001:000263c0       ??_GCTimer@@UAEPAXI@Z      004273c0 f i timer.obj
 0001:000263e0       ??1CSkipTimer@@UAE@XZ      004273e0 f i timer.obj
 0001:000263f0       ??0CTimer@@QAE@XZ          004273f0 f   timer.obj
 0001:00026430       ??0CTimer@@QAE@M@Z         00427430 f   timer.obj
 0001:00026470       ??0CTimer@@QAE@MH@Z        00427470 f   timer.obj
 0001:000264c0       ??0CGameTimer@@QAE@XZ      004274c0 f   timer.obj
 0001:00026510       ??0CGameTimer@@QAE@N@Z     00427510 f   timer.obj
 0001:00026560       ??1CDate@@QAE@XZ           00427560 f   timer.obj
 0001:00026570       ??0CSkipTimer@@QAE@XZ      00427570 f i timer.obj
 0001:000265b0       ??_ECSkipTimer@@UAEPAXI@Z  004275b0 f i timer.obj
 0001:000265b0       ??_GCSkipTimer@@UAEPAXI@Z  004275b0 f i timer.obj
 0001:000265d0       ??0CDate@@QAE@XZ           004275d0 f   timer.obj
 0001:00026630       ??0CDate@@QAE@HHHHHHH@Z    00427630 f   timer.obj
 0001:000266d0       ?GetCharLen@@YAHPBD@Z      004276d0 f   vutil.obj
 0001:000266e0       ?GetStrCut@@YAHPBDPADH@Z   004276e0 f   vutil.obj
 0001:00026730       ?GetStrLen@@YAHPBD@Z       00427730 f   vutil.obj
 0001:00026770       ?CopyChar@@YAHPBDPAD@Z     00427770 f   vutil.obj
 0001:000267b0       ?IsMultiByte@@YAHPBD@Z     004277b0 f   vutil.obj
 0001:000267e0       ?IsHangul@@YAHG@Z          004277e0 f   vutil.obj
 0001:00026830       ?SetStrNull@@YAXPADH@Z     00427830 f   vutil.obj
 0001:00026890       ?IsNative@@YAHPBD@Z        00427890 f   vutil.obj
 0001:00026950       ?GetManager@?$CSimpleStringT@D$0A@@ATL@@QBEPAUIAtlStringMgr@2@XZ 00427950 f i vutil.obj
 0001:00026960       ??0?$CSimpleStringT@D$0A@@ATL@@QAE@PBDHPAUIAtlStringMgr@1@@Z 00427960 f i vutil.obj
 0001:000269d0       ??0?$CStringT@DV?$StrTraitMFC@DV?$ChTraitsCRT@D@ATL@@@@@ATL@@QAE@PBDHPAUIAtlStringMgr@1@@Z 004279d0 f i vutil.obj
 0001:000269f0       ?Left@?$CStringT@DV?$StrTraitMFC@DV?$ChTraitsCRT@D@ATL@@@@@ATL@@QBE?AV12@H@Z 004279f0 f i vutil.obj
 0001:00026a50       ?SetStrNull@@YAXAAV?$CStringT@DV?$StrTraitMFC@DV?$ChTraitsCRT@D@ATL@@@@@ATL@@H@Z 00427a50 f   vutil.obj
 0001:00026b40       ?xRandomF@@YAMM@Z          00427b40 f   xutil.obj
 0001:00026b60       ?xSRand@@YAXK@Z            00427b60 f   xutil.obj
 0001:00026b70       ?Error@@YAPBDPBDZZ         00427b70 f   xutil.obj
 0001:00026c30       ?GetFileName@@YAXPBDPAD@Z  00427c30 f   xutil.obj
 0001:00026c80       ?GetFileTitle@@YAXPBDPAD@Z 00427c80 f   xutil.obj
 0001:00026cc0       ?GetFileExt@@YAXPBDPAD@Z   00427cc0 f   xutil.obj
 0001:00026d00       ?GetFilePath@@YAXPBDPAD@Z  00427d00 f   xutil.obj
 0001:00026d50       ?StringFind@@YAHPBDH@Z     00427d50 f   xutil.obj
 0001:00026d70       ?MakeEven@@YAXAAJ@Z        00427d70 f   xutil.obj
 0001:00026d80       ?SetLanguageInfo@@YAXHH@Z  00427d80 f   xutil.obj
 0001:00026da0       ?GetLanguage@@YAHXZ        00427da0 f   xutil.obj
 0001:00026db0       ?GetSubLanguage@@YAHXZ     00427db0 f   xutil.obj
 0001:00026dc0       ?SetUse2ndPassWord@@YAXH@Z 00427dc0 f   xutil.obj
 0001:00026dd0       ?IsUse2ndPassWord@@YAHXZ   00427dd0 f   xutil.obj
 0001:00026de0       __tcsinc                   00427de0 f i xutil.obj
 0001:00026df0       ?xRand@@YAKXZ              00427df0 f i xutil.obj
 0001:00026e10       ?xRandom@@YAKK@Z           00427e10 f i xutil.obj
 0001:00026e30       ?xRandom@@YAKKK@Z          00427e30 f   xutil.obj
 0001:00026e70       ?StringTrimRight@@YAXPAD@Z 00427e70 f   xutil.obj
 0001:00026ec0       ?Insert@?$CStringT@DV?$StrTraitMFC@DV?$ChTraitsCRT@D@ATL@@@@@ATL@@QAEHHD@Z 00427ec0 f i xutil.obj
 0001:00026f40       ?GetNumberFormatEx@@YA?AV?$CStringT@DV?$StrTraitMFC@DV?$ChTraitsCRT@D@ATL@@@@@ATL@@PBD@Z 00427f40 f   xutil.obj
 0001:00027140       _des_main_ks               00428140 f   des.obj
 0001:00027560       _des_set_key               00428560 f   des.obj
 0001:000275a0       _des_crypt                 004285a0 f   des.obj
 0001:00028030       _des_encrypt               00429030 f   des.obj
 0001:00028040       _des_decrypt               00429040 f   des.obj
 0001:00028060       _des3_set_2keys            00429060 f   des.obj
 0001:000280f0       _des3_set_3keys            004290f0 f   des.obj
 0001:00028180       _des3_crypt                00429180 f   des.obj
 0001:00029e70       _des3_encrypt              0042ae70 f   des.obj
 0001:00029e80       _des3_decrypt              0042ae80 f   des.obj
 0001:00029ea0       ?Decrpyt@@YAXPAEPAD@Z      0042aea0 f   Query.obj
 0001:00029f10       ?GetPWDFromToken@@YAHPBDPAD@Z 0042af10 f   Query.obj
 0001:00029fc0       ??0CQuery@@QAE@XZ          0042afc0 f   Query.obj
 0001:0002a000       ??1CQuery@@QAE@XZ          0042b000 f   Query.obj
 0001:0002a080       ?DisConnect@CQuery@@QAEXXZ 0042b080 f   Query.obj
 0001:0002a0f0       ?EnableConnectionPooling@CQuery@@SAHXZ 0042b0f0 f   Query.obj
 0001:0002a110       ?BindParameter@CQuery@@QAEHGFFFKFPAXJPAJ@Z 0042b110 f   Query.obj
 0001:0002a180       ?Fetch@CQuery@@QAEHXZ      0042b180 f   Query.obj
 0001:0002a220       ?Clear@CQuery@@QAEXXZ      0042b220 f   Query.obj
 0001:0002a240       ?FindCol@CQuery@@AAEHPAD@Z 0042b240 f   Query.obj
 0001:0002a2a0       ?GetInt@CQuery@@QAEHH@Z    0042b2a0 f   Query.obj
 0001:0002a2e0       ?GetInt@CQuery@@QAEHPAD@Z  0042b2e0 f   Query.obj
 0001:0002a330       ?GetInt64@CQuery@@QAE_JH@Z 0042b330 f   Query.obj
 0001:0002a380       ?GetInt64@CQuery@@QAE_JPAD@Z 0042b380 f   Query.obj
 0001:0002a3d0       ?GetFloat@CQuery@@QAEMH@Z  0042b3d0 f   Query.obj
 0001:0002a410       ?GetFloat@CQuery@@QAEMPAD@Z 0042b410 f   Query.obj
 0001:0002a470       ?GetChar@CQuery@@QAEDH@Z   0042b470 f   Query.obj
 0001:0002a4a0       ?GetChar@CQuery@@QAEDPAD@Z 0042b4a0 f   Query.obj
 0001:0002a4e0       ?GetStr@CQuery@@QAEXHPAD@Z 0042b4e0 f   Query.obj
 0001:0002a550       ?GetStr@CQuery@@QAEXPAD0@Z 0042b550 f   Query.obj
 0001:0002a590       ?WriteBlob@CQuery@@QAEXPBDPAXH@Z 0042b590 f   Query.obj
 0001:0002a6f0       ?WriteLogFile@CQuery@@QAAXPADZZ 0042b6f0 f   Query.obj
 0001:0002a7c0       ?PrepareFetch@CQuery@@QAEHXZ 0042b7c0 f   Query.obj
 0001:0002a8b0       ?PrintDiag@CQuery@@QAEXPBDF@Z 0042b8b0 f   Query.obj
 0001:0002a990       ?ReadBlob@CQuery@@QAEHPBDPAX@Z 0042b990 f   Query.obj
 0001:0002ab10       ?Connect@CQuery@@QAEHHPAD0PBD@Z 0042bb10 f   Query.obj
 0001:0002acd0       ?Exec@CQuery@@QAEHPBD@Z    0042bcd0 f   Query.obj
 0001:0002ad80       ?MoreResults@CQuery@@QAEHXZ 0042bd80 f   Query.obj
 0001:0002adc0       ?Exec@CQuery@@QAEHPBDHQAUQUERY_BINDINFO@@@Z 0042bdc0 f   Query.obj
 0001:0002ae70       ?Execute@CQuery@@QAAHPBDZZ 0042be70 f   Query.obj
 0001:0002af00       ?_AddErrorMsg@@YAXPBD0@Z   0042bf00 f   exceptionhandler.obj
 0001:0002afb0       ?CrashHandlerExceptionFilter@@YGJPAU_EXCEPTION_POINTERS@@@Z 0042bfb0 f   exceptionhandler.obj
 0001:0002b210       ?InitEH@@YAXXZ             0042c210 f   exceptionhandler.obj
 0001:0002b250       ?StrCpyExcludeNull@@YAPADPADPBD@Z 0042c250 f   BillingMgr.obj
 0001:0002b270       ?AppendSpace@@YAXPAD0@Z    0042c270 f   BillingMgr.obj
 0001:0002b2a0       ?GetBillingPWD@@YAPADXZ    0042c2a0 f   BillingMgr.obj
 0001:0002b2b0       ?CreateBillingMgr@@YAHXZ   0042c2b0 f   BillingMgr.obj
 0001:0002b2c0       ?GetBillingMgr@@YAPAVCBillingMgr@@XZ 0042c2c0 f   BillingMgr.obj
 0001:0002b2d0       ?GetID@CSock@@QAEKXZ       0042c2d0 f i BillingMgrJP.obj
 0001:0002b2e0       ?Init@CDPBilling@@QAEXPAUHWND__@@@Z 0042c2e0 f i BillingMgrJP.obj
 0001:0002b2f0       ??0CBillingMgr@@QAE@XZ     0042c2f0 f i BillingMgrJP.obj
 0001:0002b300       ??_ECDPBilling@@UAEPAXI@Z  0042c300 f i BillingMgrJP.obj
 0001:0002b360       ?Release@CBillingMgrJP@@UAEXXZ 0042c360 f   BillingMgrJP.obj
 0001:0002b370       ?RequestBillingInfo@CBillingMgrJP@@AAE_NPBD0@Z 0042c370 f   BillingMgrJP.obj
 0001:0002b3f0       ?SendKeepAlive@CBillingMgrJP@@AAEXXZ 0042c3f0 f   BillingMgrJP.obj
 0001:0002b420       ?size@?$vector@V?$basic_string@DU?$char_traits@D@std@@V?$allocator@D@2@@std@@V?$allocator@V?$basic_string@DU?$char_traits@D@std@@V?$allocator@D@2@@std@@@2@@std@@QBEIXZ 0042c420 f i BillingMgrJP.obj
 0001:0002b450       ?size@?$vector@GV?$allocator@G@std@@@std@@QBEIXZ 0042c450 f i BillingMgrJP.obj
 0001:0002b470       ??0?$allocator@V?$basic_string@DU?$char_traits@D@std@@V?$allocator@D@2@@std@@@std@@QAE@XZ 0042c470 f i BillingMgrJP.obj
 0001:0002b480       ??0?$allocator@G@std@@QAE@XZ 0042c480 f i BillingMgrJP.obj
 0001:0002b490       ?capacity@?$vector@V?$basic_string@DU?$char_traits@D@std@@V?$allocator@D@2@@std@@V?$allocator@V?$basic_string@DU?$char_traits@D@std@@V?$allocator@D@2@@std@@@2@@std@@QBEIXZ 0042c490 f i BillingMgrJP.obj
 0001:0002b4c0       ?capacity@?$vector@GV?$allocator@G@std@@@std@@QBEIXZ 0042c4c0 f i BillingMgrJP.obj
 0001:0002b4e0       ??0?$allocator@V?$basic_string@DU?$char_traits@D@std@@V?$allocator@D@2@@std@@@std@@QAE@ABV01@@Z 0042c4e0 f i BillingMgrJP.obj
 0001:0002b4f0       ?deallocate@?$allocator@V?$basic_string@DU?$char_traits@D@std@@V?$allocator@D@2@@std@@@std@@QAEXPAV?$basic_string@DU?$char_traits@D@std@@V?$allocator@D@2@@2@I@Z 0042c4f0 f i BillingMgrJP.obj
 0001:0002b500       ??0?$allocator@G@std@@QAE@ABV01@@Z 0042c500 f i BillingMgrJP.obj
 0001:0002b510       ?deallocate@?$allocator@G@std@@QAEXPAGI@Z 0042c510 f i BillingMgrJP.obj
 0001:0002b520       ?GetTotalMinutes@CTimeSpan@ATL@@QBE_JXZ 0042c520 f i BillingMgrJP.obj
 0001:0002b540       ??GCTime@ATL@@QBE?AVCTimeSpan@1@V01@@Z 0042c540 f i BillingMgrJP.obj
 0001:0002b560       ??8CTime@ATL@@QBE_NV01@@Z  0042c560 f i BillingMgrJP.obj
 0001:0002b580       ??Yiterator@?$vector@V?$basic_string@DU?$char_traits@D@std@@V?$allocator@D@2@@std@@V?$allocator@V?$basic_string@DU?$char_traits@D@std@@V?$allocator@D@2@@std@@@2@@std@@QAEAAV012@H@Z 0042c580 f i BillingMgrJP.obj
 0001:0002b5a0       ??NCTime@ATL@@QBE_NV01@@Z  0042c5a0 f i BillingMgrJP.obj
 0001:0002b5c0       ??Dconst_iterator@?$vector@V?$basic_string@DU?$char_traits@D@std@@V?$allocator@D@2@@std@@V?$allocator@V?$basic_string@DU?$char_traits@D@std@@V?$allocator@D@2@@std@@@2@@std@@QBEABV?$basic_string@DU?$char_traits@D@std@@V?$allocator@D@2@@2@XZ 0042c5c0 f i BillingMgrJP.obj
 0001:0002b5d0       ??Yiterator@?$vector@GV?$allocator@G@std@@@std@@QAEAAV012@H@Z 0042c5d0 f i BillingMgrJP.obj
 0001:0002b5e0       ??Dconst_iterator@?$vector@GV?$allocator@G@std@@@std@@QBEABGXZ 0042c5e0 f i BillingMgrJP.obj
 0001:0002b5f0       ?max_size@?$allocator@V?$basic_string@DU?$char_traits@D@std@@V?$allocator@D@2@@std@@@std@@QBEIXZ 0042c5f0 f i BillingMgrJP.obj
 0001:0002b600       ?max_size@?$allocator@G@std@@QBEIXZ 0042c600 f i BillingMgrJP.obj
 0001:0002b610       ??0const_iterator@?$vector@V?$basic_string@DU?$char_traits@D@std@@V?$allocator@D@2@@std@@V?$allocator@V?$basic_string@DU?$char_traits@D@std@@V?$allocator@D@2@@std@@@2@@std@@QAE@PAV?$basic_string@DU?$char_traits@D@std@@V?$allocator@D@2@@2@@Z 0042c610 f i BillingMgrJP.obj
 0001:0002b620       ??Gconst_iterator@?$vector@V?$basic_string@DU?$char_traits@D@std@@V?$allocator@D@2@@std@@V?$allocator@V?$basic_string@DU?$char_traits@D@std@@V?$allocator@D@2@@std@@@2@@std@@QBEHABV012@@Z 0042c620 f i BillingMgrJP.obj
 0001:0002b640       ??0const_iterator@?$vector@GV?$allocator@G@std@@@std@@QAE@PAG@Z 0042c640 f i BillingMgrJP.obj
 0001:0002b650       ??Gconst_iterator@?$vector@GV?$allocator@G@std@@@std@@QBEHABV012@@Z 0042c650 f i BillingMgrJP.obj
 0001:0002b660       ??$_Allocate@V?$basic_string@DU?$char_traits@D@std@@V?$allocator@D@2@@std@@@std@@YAPAV?$basic_string@DU?$char_traits@D@std@@V?$allocator@D@2@@0@IPAV10@@Z 0042c660 f i BillingMgrJP.obj
 0001:0002b680       ??$_Allocate@G@std@@YAPAGIPAG@Z 0042c680 f i BillingMgrJP.obj
 0001:0002b6a0       ??$fill@PAGG@std@@YAXPAG0ABG@Z 0042c6a0 f i BillingMgrJP.obj
 0001:0002b6c0       ??$_Ptr_cat@PAV?$basic_string@DU?$char_traits@D@std@@V?$allocator@D@2@@std@@PAV12@@std@@YA?AU_Nonscalar_ptr_iterator_tag@0@AAPAV?$basic_string@DU?$char_traits@D@std@@V?$allocator@D@2@@0@0@Z 0042c6c0 f i BillingMgrJP.obj
 0001:0002b6d0       ??$_Destroy_range@GV?$allocator@G@std@@@std@@YAXPAG0AAV?$allocator@G@0@U_Scalar_ptr_iterator_tag@0@@Z 0042c6d0 f i BillingMgrJP.obj
 0001:0002b6e0       ??$_Copy_backward_opt@PAGPAG@std@@YAPAGPAG00U_Scalar_ptr_iterator_tag@0@@Z 0042c6e0 f i BillingMgrJP.obj
 0001:0002b700       ?InitializeConnection@?$CDPSock@VCBuffer2@@@@QAEHPAXK@Z 0042c700 f i BillingMgrJP.obj
 0001:0002b740       ??$fill_n@PAGIG@std@@YAXPAGIABG@Z 0042c740 f i BillingMgrJP.obj
 0001:0002b760       ??$_Uninit_copy@GG@std@@YAPAGPAG00AAV?$allocator@G@0@U_Scalar_ptr_iterator_tag@0@@Z 0042c760 f i BillingMgrJP.obj
 0001:0002b790       ?GetCloseHandle@?$CDPMng@VCBuffer2@@@@QAEPAXXZ 0042c790 f i BillingMgrJP.obj
 0001:0002b7a0       ?GetHead@?$CBufferQueue@VCBuffer2@@@@QAEPAVCBuffer2@@XZ 0042c7a0 f i BillingMgrJP.obj
 0001:0002b7b0       ?Connect@?$CClientSock@VCBuffer2@@@@QAEHPADG@Z 0042c7b0 f i BillingMgrJP.obj
 0001:0002b880       ?Connect@?$CClientSockE@VCBuffer2@@@@QAEHPADG@Z 0042c880 f i BillingMgrJP.obj
 0001:0002b950       ?Recv@?$CClientSockE@VCBuffer2@@@@QAEHXZ 0042c950 f i BillingMgrJP.obj
 0001:0002b9f0       ?crc@?$CBufferQueue@VCBuffer2@@@@QAEXPAVCRC32@@@Z 0042c9f0 f i BillingMgrJP.obj
 0001:0002ba00       ?GetRecvHandle@?$CDPSock@VCBuffer2@@@@QAEPAXXZ 0042ca00 f i BillingMgrJP.obj
 0001:0002ba10       ?IsEmpty@?$CBufferQueue@VCBuffer2@@@@QAEHXZ 0042ca10 f i BillingMgrJP.obj
 0001:0002ba20       ?GetData@?$CBufferQueue@VCBuffer2@@@@QAEXPAU_WSABUF@@PAK@Z 0042ca20 f i BillingMgrJP.obj
 0001:0002ba70       ?GetCompletionPort@?$CDPSock@VCBuffer2@@@@QAEPAXXZ 0042ca70 f i BillingMgrJP.obj
 0001:0002ba80       ?GetCloseHandle@?$CDPSock@VCBuffer2@@@@QAEPAXXZ 0042ca80 f i BillingMgrJP.obj
 0001:0002ba90       ?GetSockThreaded@?$CDPSock@VCBuffer2@@@@QAEPAVCSock@@XZ 0042ca90 f i BillingMgrJP.obj
 0001:0002baa0       ?Get@?$CDPSock@VCBuffer2@@@@QAEPAV?$CClientSock@VCBuffer2@@@@I@Z 0042caa0 f i BillingMgrJP.obj
 0001:0002bac0       ?RemoveHead@?$CBufferQueue@VCBuffer2@@@@QAEXXZ 0042cac0 f i BillingMgrJP.obj
 0001:0002bb00       ?Recv@?$CClientSock@VCBuffer2@@@@QAEHXZ 0042cb00 f i BillingMgrJP.obj
 0001:0002bb90       ?Fetch@?$CClientSock@VCBuffer2@@@@QAEPAVCBuffer2@@K@Z 0042cb90 f i BillingMgrJP.obj
 0001:0002bbd0       ?Fetch@?$CClientSockE@VCBuffer2@@@@QAEPAVCBuffer2@@K@Z 0042cbd0 f i BillingMgrJP.obj
 0001:0002bc10       ?GetRecvEvent@?$CClientSockE@VCBuffer2@@@@QAEPAXXZ 0042cc10 f i BillingMgrJP.obj
 0001:0002bc20       ?GetSendEvent@?$CClientSockE@VCBuffer2@@@@QAEPAXXZ 0042cc20 f i BillingMgrJP.obj
 0001:0002bc30       ?RemoveData@?$CBufferQueue@VCBuffer2@@@@QAEXK@Z 0042cc30 f i BillingMgrJP.obj
 0001:0002bcb0       ?_Ptr_cat@std@@YA?AU_Scalar_ptr_iterator_tag@1@PAG0@Z 0042ccb0 f i BillingMgrJP.obj
 0001:0002bcc0       ?Init@CBillingMgrJP@@UAE_NPAUHWND__@@@Z 0042ccc0 f   BillingMgrJP.obj
 0001:0002be60       ?CheckAccount@CBillingMgrJP@@UAEEHKPBD0@Z 0042ce60 f   BillingMgrJP.obj
 0001:0002bee0       ??0?$_Vector_val@V?$basic_string@DU?$char_traits@D@std@@V?$allocator@D@2@@std@@V?$allocator@V?$basic_string@DU?$char_traits@D@std@@V?$allocator@D@2@@std@@@2@@std@@IAE@V?$allocator@V?$basic_string@DU?$char_traits@D@std@@V?$allocator@D@2@@std@@@1@@Z 0042cee0 f i BillingMgrJP.obj
 0001:0002bef0       ??0?$_Vector_val@GV?$allocator@G@std@@@std@@IAE@V?$allocator@G@1@@Z 0042cef0 f i BillingMgrJP.obj
 0001:0002bf00       ??Diterator@?$vector@V?$basic_string@DU?$char_traits@D@std@@V?$allocator@D@2@@std@@V?$allocator@V?$basic_string@DU?$char_traits@D@std@@V?$allocator@D@2@@std@@@2@@std@@QBEAAV?$basic_string@DU?$char_traits@D@std@@V?$allocator@D@2@@2@XZ 0042cf00 f i BillingMgrJP.obj
 0001:0002bf10       ??Hiterator@?$vector@V?$basic_string@DU?$char_traits@D@std@@V?$allocator@D@2@@std@@V?$allocator@V?$basic_string@DU?$char_traits@D@std@@V?$allocator@D@2@@std@@@2@@std@@QBE?AV012@H@Z 0042cf10 f i BillingMgrJP.obj
 0001:0002bf30       ??Diterator@?$vector@GV?$allocator@G@std@@@std@@QBEAAGXZ 0042cf30 f i BillingMgrJP.obj
 0001:0002bf40       ??Hiterator@?$vector@GV?$allocator@G@std@@@std@@QBE?AV012@H@Z 0042cf40 f i BillingMgrJP.obj
 0001:0002bf60       ?allocate@?$allocator@V?$basic_string@DU?$char_traits@D@std@@V?$allocator@D@2@@std@@@std@@QAEPAV?$basic_string@DU?$char_traits@D@std@@V?$allocator@D@2@@2@I@Z 0042cf60 f i BillingMgrJP.obj
 0001:0002bf80       ?allocate@?$allocator@G@std@@QAEPAGI@Z 0042cf80 f i BillingMgrJP.obj
 0001:0002bfa0       ?max_size@?$vector@V?$basic_string@DU?$char_traits@D@std@@V?$allocator@D@2@@std@@V?$allocator@V?$basic_string@DU?$char_traits@D@std@@V?$allocator@D@2@@std@@@2@@std@@QBEIXZ 0042cfa0 f i BillingMgrJP.obj
 0001:0002bfb0       ?max_size@?$vector@GV?$allocator@G@std@@@std@@QBEIXZ 0042cfb0 f i BillingMgrJP.obj
 0001:0002bfc0       ??0iterator@?$vector@V?$basic_string@DU?$char_traits@D@std@@V?$allocator@D@2@@std@@V?$allocator@V?$basic_string@DU?$char_traits@D@std@@V?$allocator@D@2@@std@@@2@@std@@QAE@PAV?$basic_string@DU?$char_traits@D@std@@V?$allocator@D@2@@2@@Z 0042cfc0 f i BillingMgrJP.obj
 0001:0002bfd0       ??Giterator@?$vector@V?$basic_string@DU?$char_traits@D@std@@V?$allocator@D@2@@std@@V?$allocator@V?$basic_string@DU?$char_traits@D@std@@V?$allocator@D@2@@std@@@2@@std@@QBEHABVconst_iterator@12@@Z 0042cfd0 f i BillingMgrJP.obj
 0001:0002bff0       ??0iterator@?$vector@GV?$allocator@G@std@@@std@@QAE@PAG@Z 0042cff0 f i BillingMgrJP.obj
 0001:0002c000       ??Giterator@?$vector@GV?$allocator@G@std@@@std@@QBEHABVconst_iterator@12@@Z 0042d000 f i BillingMgrJP.obj
 0001:0002c010       ??$_Destroy_range@GV?$allocator@G@std@@@std@@YAXPAG0AAV?$allocator@G@0@@Z 0042d010 f i BillingMgrJP.obj
 0001:0002c020       ??$copy_backward@PAGPAG@std@@YAPAGPAG00@Z 0042d020 f i BillingMgrJP.obj
 0001:0002c040       ?InitConnection@?$CDPMng@VCBuffer2@@@@QAEHPAXG@Z 0042d040 f i BillingMgrJP.obj
 0001:0002c060       ??$_Uninit_fill_n@GIG@std@@YAXPAGIABGAAV?$allocator@G@0@U_Scalar_ptr_iterator_tag@0@@Z 0042d060 f i BillingMgrJP.obj
 0001:0002c080       ??$_Uninitialized_copy@PAGPAGV?$allocator@G@std@@@std@@YAPAGPAG00AAV?$allocator@G@0@@Z 0042d080 f i BillingMgrJP.obj
 0001:0002c0b0       ?Clear@?$CBufferQueue@VCBuffer2@@@@QAEXH@Z 0042d0b0 f i BillingMgrJP.obj
 0001:0002c130       ?GetRecvHandle@?$CDPMng@VCBuffer2@@@@QAEPAXXZ 0042d130 f i BillingMgrJP.obj
 0001:0002c140       ??0?$CBufferQueue@VCBuffer2@@@@QAE@XZ 0042d140 f i BillingMgrJP.obj
 0001:0002c170       ?Receive@?$CDPSock@VCBuffer2@@@@QAEJPAK0KAAPAVCBuffer2@@@Z 0042d170 f i BillingMgrJP.obj
 0001:0002c1f0       ?AddTail@?$CBufferQueue@VCBuffer2@@@@QAEXPAVCBuffer2@@@Z 0042d1f0 f i BillingMgrJP.obj
 0001:0002c250       ?SendRemnant@?$CClientSock@VCBuffer2@@@@QAEHK@Z 0042d250 f i BillingMgrJP.obj
 0001:0002c360       ?SendRemnant@?$CClientSockE@VCBuffer2@@@@QAEHK@Z 0042d360 f i BillingMgrJP.obj
 0001:0002c480       ?c_str@?$basic_string@DU?$char_traits@D@std@@V?$allocator@D@2@@std@@QBEPBDXZ 0042d480 f i BillingMgrJP.obj
 0001:0002c490       ?OnTimer@CBillingMgrJP@@UAEXPAVCAccount@@@Z 0042d490 f   BillingMgrJP.obj
 0001:0002c540       ?begin@?$vector@V?$basic_string@DU?$char_traits@D@std@@V?$allocator@D@2@@std@@V?$allocator@V?$basic_string@DU?$char_traits@D@std@@V?$allocator@D@2@@std@@@2@@std@@QAE?AViterator@12@XZ 0042d540 f i BillingMgrJP.obj
 0001:0002c550       ?end@?$vector@V?$basic_string@DU?$char_traits@D@std@@V?$allocator@D@2@@std@@V?$allocator@V?$basic_string@DU?$char_traits@D@std@@V?$allocator@D@2@@std@@@2@@std@@QAE?AViterator@12@XZ 0042d550 f i BillingMgrJP.obj
 0001:0002c560       ?begin@?$vector@GV?$allocator@G@std@@@std@@QAE?AViterator@12@XZ 0042d560 f i BillingMgrJP.obj
 0001:0002c570       ?end@?$vector@GV?$allocator@G@std@@@std@@QAE?AViterator@12@XZ 0042d570 f i BillingMgrJP.obj
 0001:0002c580       ?_Destroy@?$vector@GV?$allocator@G@std@@@std@@IAEXPAG0@Z 0042d580 f i BillingMgrJP.obj
 0001:0002c590       ??$_Uninitialized_fill_n@PAGIGV?$allocator@G@std@@@std@@YAXPAGIABGAAV?$allocator@G@0@@Z 0042d590 f i BillingMgrJP.obj
 0001:0002c5b0       ??$_Ucopy@PAG@?$vector@GV?$allocator@G@std@@@std@@IAEPAGPAG00@Z 0042d5b0 f i BillingMgrJP.obj
 0001:0002c5e0       ??1?$CBufferQueue@VCBuffer2@@@@UAE@XZ 0042d5e0 f i BillingMgrJP.obj
 0001:0002c640       ??_E?$CBufferQueue@VCBuffer2@@@@UAEPAXI@Z 0042d640 f i BillingMgrJP.obj
 0001:0002c640       ??_G?$CBufferQueue@VCBuffer2@@@@UAEPAXI@Z 0042d640 f i BillingMgrJP.obj
 0001:0002c660       ?ReceiveMessage@?$CDPMng@VCBuffer2@@@@QAEHXZ 0042d660 f i BillingMgrJP.obj
 0001:0002c6f0       ??A?$vector@V?$basic_string@DU?$char_traits@D@std@@V?$allocator@D@2@@std@@V?$allocator@V?$basic_string@DU?$char_traits@D@std@@V?$allocator@D@2@@std@@@2@@std@@QAEAAV?$basic_string@DU?$char_traits@D@std@@V?$allocator@D@2@@1@I@Z 0042d6f0 f i BillingMgrJP.obj
 0001:0002c700       ??A?$vector@GV?$allocator@G@std@@@std@@QAEAAGI@Z 0042d700 f i BillingMgrJP.obj
 0001:0002c710       ?_Tidy@?$vector@GV?$allocator@G@std@@@std@@IAEXXZ 0042d710 f i BillingMgrJP.obj
 0001:0002c740       ?_Ufill@?$vector@GV?$allocator@G@std@@@std@@IAEPAGPAGIABG@Z 0042d740 f i BillingMgrJP.obj
 0001:0002c770       ?ReceiveThread@?$CDPMng@VCBuffer2@@@@QAEHXZ 0042d770 f i BillingMgrJP.obj
 0001:0002c7c0       ?RemoveThread@?$CDPSock@VCBuffer2@@@@QAEXPAX@Z 0042d7c0 f i BillingMgrJP.obj
 0001:0002c830       ??1?$vector@GV?$allocator@G@std@@@std@@QAE@XZ 0042d830 f i BillingMgrJP.obj
 0001:0002c860       ?_ReceiveThread@?$CDPMng@VCBuffer2@@@@SAIPAX@Z 0042d860 f i BillingMgrJP.obj
 0001:0002c870       ??_G?$basic_string@DU?$char_traits@D@std@@V?$allocator@D@2@@std@@QAEPAXI@Z 0042d870 f i BillingMgrJP.obj
 0001:0002c8b0       ?assign@?$basic_string@DU?$char_traits@D@std@@V?$allocator@D@2@@std@@QAEAAV12@ABV12@@Z 0042d8b0 f i BillingMgrJP.obj
 0001:0002c8d0       ?CloseIoWorker@?$CDPSock@VCBuffer2@@@@AAEHXZ 0042d8d0 f i BillingMgrJP.obj
 0001:0002ca50       ??0?$CDPSock@VCBuffer2@@@@QAE@XZ 0042da50 f i BillingMgrJP.obj
 0001:0002caf0       ??$_Destroy@V?$basic_string@DU?$char_traits@D@std@@V?$allocator@D@2@@std@@@std@@YAXPAV?$basic_string@DU?$char_traits@D@std@@V?$allocator@D@2@@0@@Z 0042daf0 f i BillingMgrJP.obj
 0001:0002cb20       ??4?$basic_string@DU?$char_traits@D@std@@V?$allocator@D@2@@std@@QAEAAV01@ABV01@@Z 0042db20 f i BillingMgrJP.obj
 0001:0002cb40       ?Close@?$CDPSock@VCBuffer2@@@@QAEHXZ 0042db40 f i BillingMgrJP.obj
 0001:0002cb80       ??$_Copy_backward_opt@PAV?$basic_string@DU?$char_traits@D@std@@V?$allocator@D@2@@std@@PAV12@@std@@YAPAV?$basic_string@DU?$char_traits@D@std@@V?$allocator@D@2@@0@PAV10@00U_Nonscalar_ptr_iterator_tag@0@@Z 0042db80 f i BillingMgrJP.obj
 0001:0002cbc0       ?destroy@?$allocator@V?$basic_string@DU?$char_traits@D@std@@V?$allocator@D@2@@std@@@std@@QAEXPAV?$basic_string@DU?$char_traits@D@std@@V?$allocator@D@2@@2@@Z 0042dbc0 f i BillingMgrJP.obj
 0001:0002cbf0       ??$_Construct@V?$basic_string@DU?$char_traits@D@std@@V?$allocator@D@2@@std@@V12@@std@@YAXPAV?$basic_string@DU?$char_traits@D@std@@V?$allocator@D@2@@0@ABV10@@Z 0042dbf0 f i BillingMgrJP.obj
 0001:0002cc40       ?_Xlen@?$vector@V?$basic_string@DU?$char_traits@D@std@@V?$allocator@D@2@@std@@V?$allocator@V?$basic_string@DU?$char_traits@D@std@@V?$allocator@D@2@@std@@@2@@std@@IBEXXZ 0042dc40 f i BillingMgrJP.obj
 0001:0002ccb0       ?_Xlen@?$vector@GV?$allocator@G@std@@@std@@IBEXXZ 0042dcb0 f i BillingMgrJP.obj
 0001:0002cd20       ?DeleteDPObject@?$CDPMng@VCBuffer2@@@@QAEHXZ 0042dd20 f i BillingMgrJP.obj
 0001:0002cdb0       ??$fill@PAV?$basic_string@DU?$char_traits@D@std@@V?$allocator@D@2@@std@@V12@@std@@YAXPAV?$basic_string@DU?$char_traits@D@std@@V?$allocator@D@2@@0@0ABV10@@Z 0042ddb0 f i BillingMgrJP.obj
 0001:0002cde0       ??$copy_backward@PAV?$basic_string@DU?$char_traits@D@std@@V?$allocator@D@2@@std@@PAV12@@std@@YAPAV?$basic_string@DU?$char_traits@D@std@@V?$allocator@D@2@@0@PAV10@00@Z 0042dde0 f i BillingMgrJP.obj
 0001:0002ce00       ?CreateDPObject@?$CDPMng@VCBuffer2@@@@QAEHH@Z 0042de00 f i BillingMgrJP.obj
 0001:0002ceb0       ??$_Destroy_range@V?$basic_string@DU?$char_traits@D@std@@V?$allocator@D@2@@std@@V?$allocator@V?$basic_string@DU?$char_traits@D@std@@V?$allocator@D@2@@std@@@2@@std@@YAXPAV?$basic_string@DU?$char_traits@D@std@@V?$allocator@D@2@@0@0AAV?$allocator@V?$basic_string@DU?$char_traits@D@std@@V?$allocator@D@2@@std@@@0@U_Nonscalar_ptr_iterator_tag@0@@Z 0042deb0 f i BillingMgrJP.obj
 0001:0002cef0       ??_E?$CDPSock@VCBuffer2@@@@UAEPAXI@Z 0042def0 f i BillingMgrJP.obj
 0001:0002cef0       ??_G?$CDPSock@VCBuffer2@@@@UAEPAXI@Z 0042def0 f i BillingMgrJP.obj
 0001:0002cf10       ??1?$CDPSock@VCBuffer2@@@@UAE@XZ 0042df10 f i BillingMgrJP.obj
 0001:0002cfe0       ?construct@?$allocator@V?$basic_string@DU?$char_traits@D@std@@V?$allocator@D@2@@std@@@std@@QAEXPAV?$basic_string@DU?$char_traits@D@std@@V?$allocator@D@2@@2@ABV32@@Z 0042dfe0 f i BillingMgrJP.obj
 0001:0002d000       ??$_Uninit_copy@PAV?$basic_string@DU?$char_traits@D@std@@V?$allocator@D@2@@std@@PAV12@V?$allocator@V?$basic_string@DU?$char_traits@D@std@@V?$allocator@D@2@@std@@@2@@std@@YAPAV?$basic_string@DU?$char_traits@D@std@@V?$allocator@D@2@@0@PAV10@00AAV?$allocator@V?$basic_string@DU?$char_traits@D@std@@V?$allocator@D@2@@std@@@0@U_Nonscalar_ptr_iterator_tag@0@@Z 0042e000 f i BillingMgrJP.obj
 0001:0002d0a0       ?_Buy@?$vector@V?$basic_string@DU?$char_traits@D@std@@V?$allocator@D@2@@std@@V?$allocator@V?$basic_string@DU?$char_traits@D@std@@V?$allocator@D@2@@std@@@2@@std@@IAE_NI@Z 0042e0a0 f i BillingMgrJP.obj
 0001:0002d0f0       ?_Buy@?$vector@GV?$allocator@G@std@@@std@@IAE_NI@Z 0042e0f0 f i BillingMgrJP.obj
 0001:0002d140       ?_Insert_n@?$vector@GV?$allocator@G@std@@@std@@IAEXViterator@12@IABG@Z 0042e140 f i BillingMgrJP.obj
 0001:0002d310       ??$_Destroy_range@V?$basic_string@DU?$char_traits@D@std@@V?$allocator@D@2@@std@@V?$allocator@V?$basic_string@DU?$char_traits@D@std@@V?$allocator@D@2@@std@@@2@@std@@YAXPAV?$basic_string@DU?$char_traits@D@std@@V?$allocator@D@2@@0@0AAV?$allocator@V?$basic_string@DU?$char_traits@D@std@@V?$allocator@D@2@@std@@@0@@Z 0042e310 f i BillingMgrJP.obj
 0001:0002d330       ??$_Uninit_fill_n@PAV?$basic_string@DU?$char_traits@D@std@@V?$allocator@D@2@@std@@IV12@V?$allocator@V?$basic_string@DU?$char_traits@D@std@@V?$allocator@D@2@@std@@@2@@std@@YAXPAV?$basic_string@DU?$char_traits@D@std@@V?$allocator@D@2@@0@IABV10@AAV?$allocator@V?$basic_string@DU?$char_traits@D@std@@V?$allocator@D@2@@std@@@0@U_Nonscalar_ptr_iterator_tag@0@@Z 0042e330 f i BillingMgrJP.obj
 0001:0002d3d0       ??$_Uninitialized_copy@PAV?$basic_string@DU?$char_traits@D@std@@V?$allocator@D@2@@std@@PAV12@V?$allocator@V?$basic_string@DU?$char_traits@D@std@@V?$allocator@D@2@@std@@@2@@std@@YAPAV?$basic_string@DU?$char_traits@D@std@@V?$allocator@D@2@@0@PAV10@00AAV?$allocator@V?$basic_string@DU?$char_traits@D@std@@V?$allocator@D@2@@std@@@0@@Z 0042e3d0 f i BillingMgrJP.obj
 0001:0002d400       ??0?$vector@V?$basic_string@DU?$char_traits@D@std@@V?$allocator@D@2@@std@@V?$allocator@V?$basic_string@DU?$char_traits@D@std@@V?$allocator@D@2@@std@@@2@@std@@QAE@XZ 0042e400 f i BillingMgrJP.obj
 0001:0002d410       ??0?$vector@GV?$allocator@G@std@@@std@@QAE@XZ 0042e410 f i BillingMgrJP.obj
 0001:0002d420       ?insert@?$vector@GV?$allocator@G@std@@@std@@QAE?AViterator@12@V312@ABG@Z 0042e420 f i BillingMgrJP.obj
 0001:0002d470       ?_Destroy@?$vector@V?$basic_string@DU?$char_traits@D@std@@V?$allocator@D@2@@std@@V?$allocator@V?$basic_string@DU?$char_traits@D@std@@V?$allocator@D@2@@std@@@2@@std@@IAEXPAV?$basic_string@DU?$char_traits@D@std@@V?$allocator@D@2@@2@0@Z 0042e470 f i BillingMgrJP.obj
 0001:0002d490       ??$_Uninitialized_fill_n@PAV?$basic_string@DU?$char_traits@D@std@@V?$allocator@D@2@@std@@IV12@V?$allocator@V?$basic_string@DU?$char_traits@D@std@@V?$allocator@D@2@@std@@@2@@std@@YAXPAV?$basic_string@DU?$char_traits@D@std@@V?$allocator@D@2@@0@IABV10@AAV?$allocator@V?$basic_string@DU?$char_traits@D@std@@V?$allocator@D@2@@std@@@0@@Z 0042e490 f i BillingMgrJP.obj
 0001:0002d4c0       ??$_Ucopy@PAV?$basic_string@DU?$char_traits@D@std@@V?$allocator@D@2@@std@@@?$vector@V?$basic_string@DU?$char_traits@D@std@@V?$allocator@D@2@@std@@V?$allocator@V?$basic_string@DU?$char_traits@D@std@@V?$allocator@D@2@@std@@@2@@std@@IAEPAV?$basic_string@DU?$char_traits@D@std@@V?$allocator@D@2@@1@PAV21@00@Z 0042e4c0 f i BillingMgrJP.obj
 0001:0002d4e0       ?push_back@?$vector@GV?$allocator@G@std@@@std@@QAEXABG@Z 0042e4e0 f i BillingMgrJP.obj
 0001:0002d530       ?_Tidy@?$vector@V?$basic_string@DU?$char_traits@D@std@@V?$allocator@D@2@@std@@V?$allocator@V?$basic_string@DU?$char_traits@D@std@@V?$allocator@D@2@@std@@@2@@std@@IAEXXZ 0042e530 f i BillingMgrJP.obj
 0001:0002d570       ?_Ufill@?$vector@V?$basic_string@DU?$char_traits@D@std@@V?$allocator@D@2@@std@@V?$allocator@V?$basic_string@DU?$char_traits@D@std@@V?$allocator@D@2@@std@@@2@@std@@IAEPAV?$basic_string@DU?$char_traits@D@std@@V?$allocator@D@2@@2@PAV32@IABV32@@Z 0042e570 f i BillingMgrJP.obj
 0001:0002d5a0       ?_Insert_n@?$vector@V?$basic_string@DU?$char_traits@D@std@@V?$allocator@D@2@@std@@V?$allocator@V?$basic_string@DU?$char_traits@D@std@@V?$allocator@D@2@@std@@@2@@std@@IAEXViterator@12@IABV?$basic_string@DU?$char_traits@D@std@@V?$allocator@D@2@@2@@Z 0042e5a0 f i BillingMgrJP.obj
 0001:0002d8e0       ??1?$vector@V?$basic_string@DU?$char_traits@D@std@@V?$allocator@D@2@@std@@V?$allocator@V?$basic_string@DU?$char_traits@D@std@@V?$allocator@D@2@@std@@@2@@std@@QAE@XZ 0042e8e0 f i BillingMgrJP.obj
 0001:0002d920       ?insert@?$vector@V?$basic_string@DU?$char_traits@D@std@@V?$allocator@D@2@@std@@V?$allocator@V?$basic_string@DU?$char_traits@D@std@@V?$allocator@D@2@@std@@@2@@std@@QAE?AViterator@12@V312@ABV?$basic_string@DU?$char_traits@D@std@@V?$allocator@D@2@@2@@Z 0042e920 f i BillingMgrJP.obj
 0001:0002d990       ??0CBillingMgrJP@@QAE@XZ   0042e990 f   BillingMgrJP.obj
 0001:0002d9e0       ?OnDBQuery@CBillingMgrJP@@UAEXAAVCQuery@@PAUtagDB_OVERLAPPED_PLUS@@@Z 0042e9e0 f i BillingMgrJP.obj
 0001:0002d9f0       ?NotifyLogout@CBillingMgrJP@@UAEXPBDK@Z 0042e9f0 f i BillingMgrJP.obj
 0001:0002da00       ??1CBillingMgrJP@@UAE@XZ   0042ea00 f   BillingMgrJP.obj
 0001:0002dae0       ?push_back@?$vector@V?$basic_string@DU?$char_traits@D@std@@V?$allocator@D@2@@std@@V?$allocator@V?$basic_string@DU?$char_traits@D@std@@V?$allocator@D@2@@std@@@2@@std@@QAEXABV?$basic_string@DU?$char_traits@D@std@@V?$allocator@D@2@@2@@Z 0042eae0 f i BillingMgrJP.obj
 0001:0002db70       ??0?$CClientSock@VCBuffer2@@@@QAE@K@Z 0042eb70 f i BillingMgrJP.obj
 0001:0002dc70       ?Close@?$CClientSock@VCBuffer2@@@@UAEXXZ 0042ec70 f i BillingMgrJP.obj
 0001:0002dcb0       ?CloseConnection@?$CClientSock@VCBuffer2@@@@UAEHI@Z 0042ecb0 f i BillingMgrJP.obj
 0001:0002dcc0       ?Shutdown@?$CClientSock@VCBuffer2@@@@UAEHI@Z 0042ecc0 f i BillingMgrJP.obj
 0001:0002dcd0       ?GetPeerAddr@?$CClientSock@VCBuffer2@@@@UAEJKPAXPAK@Z 0042ecd0 f i BillingMgrJP.obj
 0001:0002dd70       ??_E?$CClientSock@VCBuffer2@@@@UAEPAXI@Z 0042ed70 f i BillingMgrJP.obj
 0001:0002dd70       ??_G?$CClientSock@VCBuffer2@@@@UAEPAXI@Z 0042ed70 f i BillingMgrJP.obj
 0001:0002dd90       ??1?$CClientSock@VCBuffer2@@@@UAE@XZ 0042ed90 f i BillingMgrJP.obj
 0001:0002de20       ??0?$CClientSockE@VCBuffer2@@@@QAE@K@Z 0042ee20 f i BillingMgrJP.obj
 0001:0002df20       ?Create@?$CClientSockE@VCBuffer2@@@@UAEHGH@Z 0042ef20 f i BillingMgrJP.obj
 0001:0002df60       ?Attach@?$CClientSockE@VCBuffer2@@@@UAEXI@Z 0042ef60 f i BillingMgrJP.obj
 0001:0002dfa0       ?Close@?$CClientSockE@VCBuffer2@@@@UAEXXZ 0042efa0 f i BillingMgrJP.obj
 0001:0002e000       ?CloseConnection@?$CClientSockE@VCBuffer2@@@@UAEHI@Z 0042f000 f i BillingMgrJP.obj
 0001:0002e010       ?Shutdown@?$CClientSockE@VCBuffer2@@@@UAEHI@Z 0042f010 f i BillingMgrJP.obj
 0001:0002e020       ?GetPeerAddr@?$CClientSockE@VCBuffer2@@@@UAEJKPAXPAK@Z 0042f020 f i BillingMgrJP.obj
 0001:0002e0c0       ??_E?$CClientSockE@VCBuffer2@@@@UAEPAXI@Z 0042f0c0 f i BillingMgrJP.obj
 0001:0002e0c0       ??_G?$CClientSockE@VCBuffer2@@@@UAEPAXI@Z 0042f0c0 f i BillingMgrJP.obj
 0001:0002e0e0       ??1?$CClientSockE@VCBuffer2@@@@UAE@XZ 0042f0e0 f i BillingMgrJP.obj
 0001:0002e140       ?AddCreatePlayerOrGroupMsg@?$CDPSock@VCBuffer2@@@@QAEXK@Z 0042f140 f i BillingMgrJP.obj
 0001:0002e230       ?AddDestroyPlayerOrGroupMsg@?$CDPSock@VCBuffer2@@@@QAEXK@Z 0042f230 f i BillingMgrJP.obj
 0001:0002e320       ??_ECBillingMgrJP@@UAEPAXI@Z 0042f320 f i BillingMgrJP.obj
 0001:0002e320       ??_GCBillingMgrJP@@UAEPAXI@Z 0042f320 f i BillingMgrJP.obj
 0001:0002e340       ?SetConfig@CBillingMgrJP@@UAEHW4BILLING_ENUM@@K@Z 0042f340 f   BillingMgrJP.obj
 0001:0002e3e0       ?CloseConnection@?$CDPSock@VCBuffer2@@@@QAEXK@Z 0042f3e0 f i BillingMgrJP.obj
 0001:0002e420       ?Send@?$CClientSock@VCBuffer2@@@@UAEXPADKK@Z 0042f420 f i BillingMgrJP.obj
 0001:0002e520       ?AddData@?$CBufferQueue@VCBuffer2@@@@QAEXPAEK@Z 0042f520 f i BillingMgrJP.obj
 0001:0002e730       ?Send@?$CClientSockE@VCBuffer2@@@@UAEXPADKK@Z 0042f730 f i BillingMgrJP.obj
 0001:0002e830       ?IoWorkerThread@?$CDPSock@VCBuffer2@@@@QAEHXZ 0042f830 f i BillingMgrJP.obj
 0001:0002ea10       ?EventWorkerThread@?$CDPSock@VCBuffer2@@@@QAEHXZ 0042fa10 f i BillingMgrJP.obj
 0001:0002ebb0       ?_IoWorkerThread@?$CDPSock@VCBuffer2@@@@SAIPAX@Z 0042fbb0 f i BillingMgrJP.obj
 0001:0002ebc0       ?_EventWorkerThread@?$CDPSock@VCBuffer2@@@@SAIPAX@Z 0042fbc0 f i BillingMgrJP.obj
 0001:0002ebd0       ?CreateIoWorker@?$CDPSock@VCBuffer2@@@@AAEHK@Z 0042fbd0 f i BillingMgrJP.obj
 0001:0002ec80       ?CreateEventWorker@?$CDPSock@VCBuffer2@@@@QAEHPAVCSock@@@Z 0042fc80 f i BillingMgrJP.obj
 0001:0002ed20       ?JoinToServer@?$CDPSock@VCBuffer2@@@@QAEHKK@Z 0042fd20 f i BillingMgrJP.obj
 0001:0002eea0       ?JoinToServerE@?$CDPSock@VCBuffer2@@@@QAEHKK@Z 0042fea0 f i BillingMgrJP.obj
 0001:0002f040       ?JoinSession@?$CDPMng@VCBuffer2@@@@QAEHPBDKK@Z 00430040 f i BillingMgrJP.obj
 0001:0002f090       ?ConnectToServer@?$CDPMng@VCBuffer2@@@@QAEHPBDGHKK@Z 00430090 f i BillingMgrJP.obj
 0001:0002f0e0       ?Connect@CBillingMgrJP@@AAE_NXZ 004300e0 f   BillingMgrJP.obj
 0001:0002f1c0       ?PreTranslateMessage@CBillingMgrJP@@UAEHPAUHWND__@@IIJ@Z 004301c0 f   BillingMgrJP.obj
 0001:0002f260       ??0BILLING_INFO@@QAE@XZ    00430260 f i BillingMgrJP2.obj
 0001:0002f280       ??1CBillingMgrJP2@@UAE@XZ  00430280 f   BillingMgrJP2.obj
 0001:0002f290       ?NotifyLogout@CBillingMgrJP2@@UAEXPBDK@Z 00430290 f i BillingMgrJP2.obj
 0001:0002f2a0       ?SetConfig@CBillingMgrJP2@@UAEHW4BILLING_ENUM@@K@Z 004302a0 f   BillingMgrJP2.obj
 0001:0002f2c0       ?Init@CBillingMgrJP2@@UAE_NPAUHWND__@@@Z 004302c0 f   BillingMgrJP2.obj
 0001:0002f2e0       ?Release@CBillingMgrJP2@@UAEXXZ 004302e0 f   BillingMgrJP2.obj
 0001:0002f2f0       ?CheckAccount@CBillingMgrJP2@@UAEEHKPBD0@Z 004302f0 f   BillingMgrJP2.obj
 0001:0002f380       ?PreTranslateMessage@CBillingMgrJP2@@UAEHPAUHWND__@@IIJ@Z 00430380 f   BillingMgrJP2.obj
 0001:0002f3b0       ??0CTimeSpan@ATL@@QAE@JHHH@Z 004303b0 f i BillingMgrJP2.obj
 0001:0002f410       ?GetTimeSpan@CTimeSpan@ATL@@QBE_JXZ 00430410 f i BillingMgrJP2.obj
 0001:0002f420       ??YCTime@ATL@@QAEAAV01@VCTimeSpan@1@@Z 00430420 f i BillingMgrJP2.obj
 0001:0002f440       ??0CBillingMgrJP2@@QAE@XZ  00430440 f   BillingMgrJP2.obj
 0001:0002f450       ??_ECBillingMgrJP2@@UAEPAXI@Z 00430450 f i BillingMgrJP2.obj
 0001:0002f450       ??_GCBillingMgrJP2@@UAEPAXI@Z 00430450 f i BillingMgrJP2.obj
 0001:0002f470       ?OnTimer@CBillingMgrJP2@@UAEXPAVCAccount@@@Z 00430470 f   BillingMgrJP2.obj
 0001:0002f520       ?OnDBQuery@CBillingMgrJP2@@UAEXAAVCQuery@@PAUtagDB_OVERLAPPED_PLUS@@@Z 00430520 f   BillingMgrJP2.obj
 0001:0002f630       ?Init@CDPBillingTH@@QAEXPAUHWND__@@@Z 00430630 f i BillingMgrTH.obj
 0001:0002f640       ??_ECDPBillingTH@@UAEPAXI@Z 00430640 f i BillingMgrTH.obj
 0001:0002f6a0       ?Release@CBillingMgrTH@@UAEXXZ 004306a0 f   BillingMgrTH.obj
 0001:0002f6b0       ?GetBilling@CBillingMgrTH@@AAEPAVCDPBillingTH@@K@Z 004306b0 f   BillingMgrTH.obj
 0001:0002f6e0       ?RequestBillingInfo@CBillingMgrTH@@AAE_NPBD0K@Z 004306e0 f   BillingMgrTH.obj
 0001:0002f730       ?NotifyLogout@CBillingMgrTH@@UAEXPBDK@Z 00430730 f   BillingMgrTH.obj
 0001:0002f770       ?SendKeepAlive@CBillingMgrTH@@AAEXXZ 00430770 f   BillingMgrTH.obj
 0001:0002f7a0       ?Init@CBillingMgrTH@@UAE_NPAUHWND__@@@Z 004307a0 f   BillingMgrTH.obj
 0001:0002f940       ?CheckAccount@CBillingMgrTH@@UAEEHKPBD0@Z 00430940 f   BillingMgrTH.obj
 0001:0002f990       ?OnTimer@CBillingMgrTH@@UAEXPAVCAccount@@@Z 00430990 f   BillingMgrTH.obj
 0001:0002fa70       ??0CBillingMgrTH@@QAE@XZ   00430a70 f   BillingMgrTH.obj
 0001:0002fac0       ?OnDBQuery@CBillingMgrTH@@UAEXAAVCQuery@@PAUtagDB_OVERLAPPED_PLUS@@@Z 00430ac0 f i BillingMgrTH.obj
 0001:0002fad0       ??1CBillingMgrTH@@UAE@XZ   00430ad0 f   BillingMgrTH.obj
 0001:0002fbb0       ??_ECBillingMgrTH@@UAEPAXI@Z 00430bb0 f i BillingMgrTH.obj
 0001:0002fbb0       ??_GCBillingMgrTH@@UAEPAXI@Z 00430bb0 f i BillingMgrTH.obj
 0001:0002fbd0       ?SetConfig@CBillingMgrTH@@UAEHW4BILLING_ENUM@@K@Z 00430bd0 f   BillingMgrTH.obj
 0001:0002fc60       ?Connect@CBillingMgrTH@@AAE_NXZ 00430c60 f   BillingMgrTH.obj
 0001:0002fd40       ?PreTranslateMessage@CBillingMgrTH@@UAEHPAUHWND__@@IIJ@Z 00430d40 f   BillingMgrTH.obj
 0001:0002fde0       ??1CBillingMgrTW@@UAE@XZ   00430de0 f   BillingMgrTW.obj
 0001:0002fdf0       ?NotifyLogout@CBillingMgrTW@@UAEXPBDK@Z 00430df0 f i BillingMgrTW.obj
 0001:0002fe00       ?SetConfig@CBillingMgrTW@@UAEHW4BILLING_ENUM@@K@Z 00430e00 f   BillingMgrTW.obj
 0001:0002fe20       ?Init@CBillingMgrTW@@UAE_NPAUHWND__@@@Z 00430e20 f   BillingMgrTW.obj
 0001:0002fe40       ?Release@CBillingMgrTW@@UAEXXZ 00430e40 f   BillingMgrTW.obj
 0001:0002fe50       ?CheckAccount@CBillingMgrTW@@UAEEHKPBD0@Z 00430e50 f   BillingMgrTW.obj
 0001:0002fe70       ?PreTranslateMessage@CBillingMgrTW@@UAEHPAUHWND__@@IIJ@Z 00430e70 f   BillingMgrTW.obj
 0001:0002fea0       ??OCTime@ATL@@QBE_NV01@@Z  00430ea0 f i BillingMgrTW.obj
 0001:0002fec0       ?GetSecond@CTime@ATL@@QBEHXZ 00430ec0 f i BillingMgrTW.obj
 0001:0002fee0       ??0CBillingMgrTW@@QAE@XZ   00430ee0 f   BillingMgrTW.obj
 0001:0002fef0       ??_ECBillingMgrTW@@UAEPAXI@Z 00430ef0 f i BillingMgrTW.obj
 0001:0002fef0       ??_GCBillingMgrTW@@UAEPAXI@Z 00430ef0 f i BillingMgrTW.obj
 0001:0002ff10       ?OnTimer@CBillingMgrTW@@UAEXPAVCAccount@@@Z 00430f10 f   BillingMgrTW.obj
 0001:0002ffb0       ?OnDBQuery@CBillingMgrTW@@UAEXAAVCQuery@@PAUtagDB_OVERLAPPED_PLUS@@@Z 00430fb0 f   BillingMgrTW.obj
 0001:00030320       ?SysMessageHandler@CDPAdbill@@UAEXPAUDPMSG_GENERIC@@KK@Z 00431320 f   dpadbill.obj
 0001:00030330       ??0?$pair@$$CBKPAU_BUYING_INFO3@@@std@@QAE@ABKABQAU_BUYING_INFO3@@@Z 00431330 f i dpadbill.obj
 0001:00030350       ??0?$allocator@U?$pair@$$CBKPAU_BUYING_INFO3@@@std@@@std@@QAE@XZ 00431350 f i dpadbill.obj
 0001:00030360       ??0?$pair@Viterator@?$_Tree@V?$_Tmap_traits@KPAU_BUYING_INFO3@@U?$less@K@std@@V?$allocator@U?$pair@$$CBKPAU_BUYING_INFO3@@@std@@@3@$0A@@std@@@std@@_N@std@@QAE@ABViterator@?$_Tree@V?$_Tmap_traits@KPAU_BUYING_INFO3@@U?$less@K@std@@V?$allocator@U?$pair@$$CBKPAU_BUYING_INFO3@@@std@@@3@$0A@@std@@@1@AB_N@Z 00431360 f i dpadbill.obj
 0001:00030380       ??0?$allocator@U?$pair@$$CBKPAU_BUYING_INFO3@@@std@@@std@@QAE@ABV01@@Z 00431380 f i dpadbill.obj
 0001:00030390       ?max_size@?$allocator@U?$pair@$$CBKPAU_BUYING_INFO3@@@std@@@std@@QBEIXZ 00431390 f i dpadbill.obj
 0001:000303a0       ?_Dec@const_iterator@?$_Tree@V?$_Tmap_traits@KPAU_BUYING_INFO3@@U?$less@K@std@@V?$allocator@U?$pair@$$CBKPAU_BUYING_INFO3@@@std@@@3@$0A@@std@@@std@@QAEXXZ 004313a0 f i dpadbill.obj
 0001:00030400       ??0_Node@?$_Tree_nod@V?$_Tmap_traits@KPAU_BUYING_INFO3@@U?$less@K@std@@V?$allocator@U?$pair@$$CBKPAU_BUYING_INFO3@@@std@@@3@$0A@@std@@@std@@QAE@PAU012@00ABU?$pair@$$CBKPAU_BUYING_INFO3@@@2@D@Z 00431400 f i dpadbill.obj
 0001:00030440       ??0?$_Tmap_traits@KPAU_BUYING_INFO3@@U?$less@K@std@@V?$allocator@U?$pair@$$CBKPAU_BUYING_INFO3@@@std@@@3@$0A@@std@@QAE@U?$less@K@1@@Z 00431440 f i dpadbill.obj
 0001:00030450       ??0?$CDPMng@VCBuffer3@@@@QAE@XZ 00431450 f i dpadbill.obj
 0001:00030470       ??1?$CDPMng@VCBuffer3@@@@UAE@XZ 00431470 f i dpadbill.obj
 0001:00030480       ??$_Destroy@PAU_Node@?$_Tree_nod@V?$_Tmap_traits@KPAU_BUYING_INFO3@@U?$less@K@std@@V?$allocator@U?$pair@$$CBKPAU_BUYING_INFO3@@@std@@@3@$0A@@std@@@std@@@std@@YAXPAPAU_Node@?$_Tree_nod@V?$_Tmap_traits@KPAU_BUYING_INFO3@@U?$less@K@std@@V?$allocator@U?$pair@$$CBKPAU_BUYING_INFO3@@@std@@@3@$0A@@std@@@0@@Z 00431480 f i dpadbill.obj
 0001:00030490       ??$?0U?$pair@$$CBKPAU_BUYING_INFO3@@@std@@@?$allocator@PAU_Node@?$_Tree_nod@V?$_Tmap_traits@KPAU_BUYING_INFO3@@U?$less@K@std@@V?$allocator@U?$pair@$$CBKPAU_BUYING_INFO3@@@std@@@3@$0A@@std@@@std@@@std@@QAE@ABV?$allocator@U?$pair@$$CBKPAU_BUYING_INFO3@@@std@@@1@@Z 00431490 f i dpadbill.obj
 0001:000304a0       ??$_Allocate@U_Node@?$_Tree_nod@V?$_Tmap_traits@KPAU_BUYING_INFO3@@U?$less@K@std@@V?$allocator@U?$pair@$$CBKPAU_BUYING_INFO3@@@std@@@3@$0A@@std@@@std@@@std@@YAPAU_Node@?$_Tree_nod@V?$_Tmap_traits@KPAU_BUYING_INFO3@@U?$less@K@std@@V?$allocator@U?$pair@$$CBKPAU_BUYING_INFO3@@@std@@@3@$0A@@std@@@0@IPAU120@@Z 004314a0 f i dpadbill.obj
 0001:000304c0       ??$?0U?$pair@$$CBKPAU_BUYING_INFO3@@@std@@@?$allocator@U_Node@?$_Tree_nod@V?$_Tmap_traits@KPAU_BUYING_INFO3@@U?$less@K@std@@V?$allocator@U?$pair@$$CBKPAU_BUYING_INFO3@@@std@@@3@$0A@@std@@@std@@@std@@QAE@ABV?$allocator@U?$pair@$$CBKPAU_BUYING_INFO3@@@std@@@1@@Z 004314c0 f i dpadbill.obj
 0001:000304d0       ??$_Construct@PAU_Node@?$_Tree_nod@V?$_Tmap_traits@KPAU_BUYING_INFO3@@U?$less@K@std@@V?$allocator@U?$pair@$$CBKPAU_BUYING_INFO3@@@std@@@3@$0A@@std@@@std@@PAU123@@std@@YAXPAPAU_Node@?$_Tree_nod@V?$_Tmap_traits@KPAU_BUYING_INFO3@@U?$less@K@std@@V?$allocator@U?$pair@$$CBKPAU_BUYING_INFO3@@@std@@@3@$0A@@std@@@0@ABQAU120@@Z 004314d0 f i dpadbill.obj
 0001:000304f0       ??_E?$CDPMng@VCBuffer3@@@@UAEPAXI@Z 004314f0 f i dpadbill.obj
 0001:000304f0       ??_G?$CDPMng@VCBuffer3@@@@UAEPAXI@Z 004314f0 f i dpadbill.obj
 0001:00030510       ??0_BUYING_INFO3@@QAE@XZ   00431510 f i dpadbill.obj
 0001:00030550       ??0CDPAdbill@@QAE@XZ       00431550 f   dpadbill.obj
 0001:00030570       ??1CDPAdbill@@UAE@XZ       00431570 f   dpadbill.obj
 0001:00030580       ?max_size@?$_Tree@V?$_Tmap_traits@KPAU_BUYING_INFO3@@U?$less@K@std@@V?$allocator@U?$pair@$$CBKPAU_BUYING_INFO3@@@std@@@3@$0A@@std@@@std@@QBEIXZ 00431580 f i dpadbill.obj
 0001:00030590       ?destroy@?$allocator@PAU_Node@?$_Tree_nod@V?$_Tmap_traits@KPAU_BUYING_INFO3@@U?$less@K@std@@V?$allocator@U?$pair@$$CBKPAU_BUYING_INFO3@@@std@@@3@$0A@@std@@@std@@@std@@QAEXPAPAU_Node@?$_Tree_nod@V?$_Tmap_traits@KPAU_BUYING_INFO3@@U?$less@K@std@@V?$allocator@U?$pair@$$CBKPAU_BUYING_INFO3@@@std@@@3@$0A@@std@@@2@@Z 00431590 f i dpadbill.obj
 0001:000305a0       ??Fconst_iterator@?$_Tree@V?$_Tmap_traits@KPAU_BUYING_INFO3@@U?$less@K@std@@V?$allocator@U?$pair@$$CBKPAU_BUYING_INFO3@@@std@@@3@$0A@@std@@@std@@QAEAAV012@XZ 004315a0 f i dpadbill.obj
 0001:000305b0       ?allocate@?$allocator@U_Node@?$_Tree_nod@V?$_Tmap_traits@KPAU_BUYING_INFO3@@U?$less@K@std@@V?$allocator@U?$pair@$$CBKPAU_BUYING_INFO3@@@std@@@3@$0A@@std@@@std@@@std@@QAEPAU_Node@?$_Tree_nod@V?$_Tmap_traits@KPAU_BUYING_INFO3@@U?$less@K@std@@V?$allocator@U?$pair@$$CBKPAU_BUYING_INFO3@@@std@@@3@$0A@@std@@@2@I@Z 004315b0 f i dpadbill.obj
 0001:000305d0       ??0?$_Tree_nod@V?$_Tmap_traits@KPAU_BUYING_INFO3@@U?$less@K@std@@V?$allocator@U?$pair@$$CBKPAU_BUYING_INFO3@@@std@@@3@$0A@@std@@@std@@IAE@ABU?$less@K@1@V?$allocator@U?$pair@$$CBKPAU_BUYING_INFO3@@@std@@@1@@Z 004315d0 f i dpadbill.obj
 0001:000305e0       ?construct@?$allocator@PAU_Node@?$_Tree_nod@V?$_Tmap_traits@KPAU_BUYING_INFO3@@U?$less@K@std@@V?$allocator@U?$pair@$$CBKPAU_BUYING_INFO3@@@std@@@3@$0A@@std@@@std@@@std@@QAEXPAPAU_Node@?$_Tree_nod@V?$_Tmap_traits@KPAU_BUYING_INFO3@@U?$less@K@std@@V?$allocator@U?$pair@$$CBKPAU_BUYING_INFO3@@@std@@@3@$0A@@std@@@2@ABQAU342@@Z 004315e0 f i dpadbill.obj
 0001:00030600       ??_ECDPAdbill@@UAEPAXI@Z   00431600 f i dpadbill.obj
 0001:00030600       ??_GCDPAdbill@@UAEPAXI@Z   00431600 f i dpadbill.obj
 0001:00030620       ?GetInstance@CDPAdbill@@SAPAV1@XZ 00431620 f   dpadbill.obj
 0001:00030670       ??Fiterator@?$_Tree@V?$_Tmap_traits@KPAU_BUYING_INFO3@@U?$less@K@std@@V?$allocator@U?$pair@$$CBKPAU_BUYING_INFO3@@@std@@@3@$0A@@std@@@std@@QAEAAV012@XZ 00431670 f i dpadbill.obj
 0001:00030680       ?_Buynode@?$_Tree@V?$_Tmap_traits@KPAU_BUYING_INFO3@@U?$less@K@std@@V?$allocator@U?$pair@$$CBKPAU_BUYING_INFO3@@@std@@@3@$0A@@std@@@std@@IAEPAU_Node@?$_Tree_nod@V?$_Tmap_traits@KPAU_BUYING_INFO3@@U?$less@K@std@@V?$allocator@U?$pair@$$CBKPAU_BUYING_INFO3@@@std@@@3@$0A@@std@@@2@PAU342@00ABU?$pair@$$CBKPAU_BUYING_INFO3@@@2@D@Z 00431680 f i dpadbill.obj
 0001:000306c0       ?_Buynode@?$_Tree@V?$_Tmap_traits@KPAU_BUYING_INFO3@@U?$less@K@std@@V?$allocator@U?$pair@$$CBKPAU_BUYING_INFO3@@@std@@@3@$0A@@std@@@std@@IAEPAU_Node@?$_Tree_nod@V?$_Tmap_traits@KPAU_BUYING_INFO3@@U?$less@K@std@@V?$allocator@U?$pair@$$CBKPAU_BUYING_INFO3@@@std@@@3@$0A@@std@@@2@XZ 004316c0 f i dpadbill.obj
 0001:00030700       ??0?$_Tree_ptr@V?$_Tmap_traits@KPAU_BUYING_INFO3@@U?$less@K@std@@V?$allocator@U?$pair@$$CBKPAU_BUYING_INFO3@@@std@@@3@$0A@@std@@@std@@IAE@ABU?$less@K@1@V?$allocator@U?$pair@$$CBKPAU_BUYING_INFO3@@@std@@@1@@Z 00431700 f i dpadbill.obj
 0001:00030710       ?_Init@?$_Tree@V?$_Tmap_traits@KPAU_BUYING_INFO3@@U?$less@K@std@@V?$allocator@U?$pair@$$CBKPAU_BUYING_INFO3@@@std@@@3@$0A@@std@@@std@@IAEXXZ 00431710 f i dpadbill.obj
 0001:00030740       ??0?$_Tree_val@V?$_Tmap_traits@KPAU_BUYING_INFO3@@U?$less@K@std@@V?$allocator@U?$pair@$$CBKPAU_BUYING_INFO3@@@std@@@3@$0A@@std@@@std@@IAE@ABU?$less@K@1@V?$allocator@U?$pair@$$CBKPAU_BUYING_INFO3@@@std@@@1@@Z 00431740 f i dpadbill.obj
 0001:00030750       ?Clear@CBuyingInfoMng@@QAEXXZ 00431750 f i dpadbill.obj
 0001:000307f0       ??0?$_Tree@V?$_Tmap_traits@KPAU_BUYING_INFO3@@U?$less@K@std@@V?$allocator@U?$pair@$$CBKPAU_BUYING_INFO3@@@std@@@3@$0A@@std@@@std@@QAE@ABU?$less@K@1@ABV?$allocator@U?$pair@$$CBKPAU_BUYING_INFO3@@@std@@@1@@Z 004317f0 f i dpadbill.obj
 0001:00030820       ?_Insert@?$_Tree@V?$_Tmap_traits@KPAU_BUYING_INFO3@@U?$less@K@std@@V?$allocator@U?$pair@$$CBKPAU_BUYING_INFO3@@@std@@@3@$0A@@std@@@std@@IAE?AViterator@12@_NPAU_Node@?$_Tree_nod@V?$_Tmap_traits@KPAU_BUYING_INFO3@@U?$less@K@std@@V?$allocator@U?$pair@$$CBKPAU_BUYING_INFO3@@@std@@@3@$0A@@std@@@2@ABU?$pair@$$CBKPAU_BUYING_INFO3@@@2@@Z 00431820 f i dpadbill.obj
 0001:000309d0       ?insert@?$_Tree@V?$_Tmap_traits@KPAU_BUYING_INFO3@@U?$less@K@std@@V?$allocator@U?$pair@$$CBKPAU_BUYING_INFO3@@@std@@@3@$0A@@std@@@std@@QAE?AU?$pair@Viterator@?$_Tree@V?$_Tmap_traits@KPAU_BUYING_INFO3@@U?$less@K@std@@V?$allocator@U?$pair@$$CBKPAU_BUYING_INFO3@@@std@@@3@$0A@@std@@@std@@_N@2@ABU?$pair@$$CBKPAU_BUYING_INFO3@@@2@@Z 004319d0 f i dpadbill.obj
 0001:00030a90       ?_Tidy@?$_Tree@V?$_Tmap_traits@KPAU_BUYING_INFO3@@U?$less@K@std@@V?$allocator@U?$pair@$$CBKPAU_BUYING_INFO3@@@std@@@3@$0A@@std@@@std@@IAEXXZ 00431a90 f i dpadbill.obj
 0001:00030ac0       ?Add@CBuyingInfoMng@@QAEXPAU_BUYING_INFO3@@@Z 00431ac0 f i dpadbill.obj
 0001:00030b00       ??1?$_Tree@V?$_Tmap_traits@KPAU_BUYING_INFO3@@U?$less@K@std@@V?$allocator@U?$pair@$$CBKPAU_BUYING_INFO3@@@std@@@3@$0A@@std@@@std@@QAE@XZ 00431b00 f i dpadbill.obj
 0001:00030b30       ??1?$map@KPAU_BUYING_INFO3@@U?$less@K@std@@V?$allocator@U?$pair@$$CBKPAU_BUYING_INFO3@@@std@@@3@@std@@QAE@XZ 00431b30 f i dpadbill.obj
 0001:00030b60       ??0?$map@KPAU_BUYING_INFO3@@U?$less@K@std@@V?$allocator@U?$pair@$$CBKPAU_BUYING_INFO3@@@std@@@3@@std@@QAE@XZ 00431b60 f i dpadbill.obj
 0001:00030b90       ??0CBuyingInfoMng@@QAE@XZ  00431b90 f i dpadbill.obj
 0001:00030bd0       ??1CBuyingInfoMng@@QAE@XZ  00431bd0 f i dpadbill.obj
 0001:00030c50       ?GetInstance@CBuyingInfoMng@@SAPAV1@XZ 00431c50 f   dpadbill.obj
 0001:00030cf0       ?UserMessageHandler@CDPAdbill@@UAEXPAUDPMSG_GENERIC@@KK@Z 00431cf0 f   dpadbill.obj
 0001:00030de0       ?AppendEndMark@@YAXPADPBDI@Z 00431de0 f   dpBilling.obj
 0001:00030e30       ?OnKeepAliveReceive@CDPBilling@@AAEXAAVCAr@@K@Z 00431e30 f   dpBilling.obj
 0001:00030e40       ??0?$pair@$$CBKP8CDPBilling@@AEXAAVCAr@@K@Z@std@@QAE@ABKABQ8CDPBilling@@AEXAAVCAr@@K@Z@Z 00431e40 f i dpBilling.obj
 0001:00030e60       ?_Isnil@?$_Tree@V?$_Tmap_traits@KP8CDPBilling@@AEXAAVCAr@@K@ZU?$less@K@std@@V?$allocator@U?$pair@$$CBKP8CDPBilling@@AEXAAVCAr@@K@Z@std@@@4@$0A@@std@@@std@@KAAADPAU_Node@?$_Tree_nod@V?$_Tmap_traits@KP8CDPBilling@@AEXAAVCAr@@K@ZU?$less@K@std@@V?$allocator@U?$pair@$$CBKP8CDPBilling@@AEXAAVCAr@@K@Z@std@@@4@$0A@@std@@@2@@Z 00431e60 f i dpBilling.obj
 0001:00030e70       ?_Left@?$_Tree@V?$_Tmap_traits@KP8CDPBilling@@AEXAAVCAr@@K@ZU?$less@K@std@@V?$allocator@U?$pair@$$CBKP8CDPBilling@@AEXAAVCAr@@K@Z@std@@@4@$0A@@std@@@std@@KAAAPAU_Node@?$_Tree_nod@V?$_Tmap_traits@KP8CDPBilling@@AEXAAVCAr@@K@ZU?$less@K@std@@V?$allocator@U?$pair@$$CBKP8CDPBilling@@AEXAAVCAr@@K@Z@std@@@4@$0A@@std@@@2@PAU342@@Z 00431e70 f i dpBilling.obj
 0001:00030e80       ?_Right@?$_Tree@V?$_Tmap_traits@KP8CDPBilling@@AEXAAVCAr@@K@ZU?$less@K@std@@V?$allocator@U?$pair@$$CBKP8CDPBilling@@AEXAAVCAr@@K@Z@std@@@4@$0A@@std@@@std@@KAAAPAU_Node@?$_Tree_nod@V?$_Tmap_traits@KP8CDPBilling@@AEXAAVCAr@@K@ZU?$less@K@std@@V?$allocator@U?$pair@$$CBKP8CDPBilling@@AEXAAVCAr@@K@Z@std@@@4@$0A@@std@@@2@PAU342@@Z 00431e80 f i dpBilling.obj
 0001:00030e90       ?_Kfn@?$_Tmap_traits@KP8CDPBilling@@AEXAAVCAr@@K@ZU?$less@K@std@@V?$allocator@U?$pair@$$CBKP8CDPBilling@@AEXAAVCAr@@K@Z@std@@@4@$0A@@std@@SAABKABU?$pair@$$CBKP8CDPBilling@@AEXAAVCAr@@K@Z@2@@Z 00431e90 f i dpBilling.obj
 0001:00030ea0       ??0?$allocator@U?$pair@$$CBKP8CDPBilling@@AEXAAVCAr@@K@Z@std@@@std@@QAE@XZ 00431ea0 f i dpBilling.obj
 0001:00030eb0       ??8const_iterator@?$_Tree@V?$_Tmap_traits@KP8CDPBilling@@AEXAAVCAr@@K@ZU?$less@K@std@@V?$allocator@U?$pair@$$CBKP8CDPBilling@@AEXAAVCAr@@K@Z@std@@@4@$0A@@std@@@std@@QBE_NABV012@@Z 00431eb0 f i dpBilling.obj
 0001:00030ec0       ?_Mynode@const_iterator@?$_Tree@V?$_Tmap_traits@KP8CDPBilling@@AEXAAVCAr@@K@ZU?$less@K@std@@V?$allocator@U?$pair@$$CBKP8CDPBilling@@AEXAAVCAr@@K@Z@std@@@4@$0A@@std@@@std@@QBEPAU_Node@?$_Tree_nod@V?$_Tmap_traits@KP8CDPBilling@@AEXAAVCAr@@K@ZU?$less@K@std@@V?$allocator@U?$pair@$$CBKP8CDPBilling@@AEXAAVCAr@@K@Z@std@@@4@$0A@@std@@@3@XZ 00431ec0 f i dpBilling.obj
 0001:00030ed0       ??0?$pair@Viterator@?$_Tree@V?$_Tmap_traits@KP8CDPBilling@@AEXAAVCAr@@K@ZU?$less@K@std@@V?$allocator@U?$pair@$$CBKP8CDPBilling@@AEXAAVCAr@@K@Z@std@@@4@$0A@@std@@@std@@_N@std@@QAE@ABViterator@?$_Tree@V?$_Tmap_traits@KP8CDPBilling@@AEXAAVCAr@@K@ZU?$less@K@std@@V?$allocator@U?$pair@$$CBKP8CDPBilling@@AEXAAVCAr@@K@Z@std@@@4@$0A@@std@@@1@AB_N@Z 00431ed0 f i dpBilling.obj
 0001:00030ef0       ?_Color@?$_Tree@V?$_Tmap_traits@KP8CDPBilling@@AEXAAVCAr@@K@ZU?$less@K@std@@V?$allocator@U?$pair@$$CBKP8CDPBilling@@AEXAAVCAr@@K@Z@std@@@4@$0A@@std@@@std@@KAAADPAU_Node@?$_Tree_nod@V?$_Tmap_traits@KP8CDPBilling@@AEXAAVCAr@@K@ZU?$less@K@std@@V?$allocator@U?$pair@$$CBKP8CDPBilling@@AEXAAVCAr@@K@Z@std@@@4@$0A@@std@@@2@@Z 00431ef0 f i dpBilling.obj
 0001:00030f00       ?_Parent@?$_Tree@V?$_Tmap_traits@KP8CDPBilling@@AEXAAVCAr@@K@ZU?$less@K@std@@V?$allocator@U?$pair@$$CBKP8CDPBilling@@AEXAAVCAr@@K@Z@std@@@4@$0A@@std@@@std@@KAAAPAU_Node@?$_Tree_nod@V?$_Tmap_traits@KP8CDPBilling@@AEXAAVCAr@@K@ZU?$less@K@std@@V?$allocator@U?$pair@$$CBKP8CDPBilling@@AEXAAVCAr@@K@Z@std@@@4@$0A@@std@@@2@PAU342@@Z 00431f00 f i dpBilling.obj
 0001:00030f10       ?_Myval@?$_Tree@V?$_Tmap_traits@KP8CDPBilling@@AEXAAVCAr@@K@ZU?$less@K@std@@V?$allocator@U?$pair@$$CBKP8CDPBilling@@AEXAAVCAr@@K@Z@std@@@4@$0A@@std@@@std@@KAAAU?$pair@$$CBKP8CDPBilling@@AEXAAVCAr@@K@Z@2@PAU_Node@?$_Tree_nod@V?$_Tmap_traits@KP8CDPBilling@@AEXAAVCAr@@K@ZU?$less@K@std@@V?$allocator@U?$pair@$$CBKP8CDPBilling@@AEXAAVCAr@@K@Z@std@@@4@$0A@@std@@@2@@Z 00431f10 f i dpBilling.obj
 0001:00030f20       ?_Lmost@?$_Tree@V?$_Tmap_traits@KP8CDPBilling@@AEXAAVCAr@@K@ZU?$less@K@std@@V?$allocator@U?$pair@$$CBKP8CDPBilling@@AEXAAVCAr@@K@Z@std@@@4@$0A@@std@@@std@@IAEAAPAU_Node@?$_Tree_nod@V?$_Tmap_traits@KP8CDPBilling@@AEXAAVCAr@@K@ZU?$less@K@std@@V?$allocator@U?$pair@$$CBKP8CDPBilling@@AEXAAVCAr@@K@Z@std@@@4@$0A@@std@@@2@XZ 00431f20 f i dpBilling.obj
 0001:00030f30       ?_Rmost@?$_Tree@V?$_Tmap_traits@KP8CDPBilling@@AEXAAVCAr@@K@ZU?$less@K@std@@V?$allocator@U?$pair@$$CBKP8CDPBilling@@AEXAAVCAr@@K@Z@std@@@4@$0A@@std@@@std@@IAEAAPAU_Node@?$_Tree_nod@V?$_Tmap_traits@KP8CDPBilling@@AEXAAVCAr@@K@ZU?$less@K@std@@V?$allocator@U?$pair@$$CBKP8CDPBilling@@AEXAAVCAr@@K@Z@std@@@4@$0A@@std@@@2@XZ 00431f30 f i dpBilling.obj
 0001:00030f40       ??0?$allocator@U?$pair@$$CBKP8CDPBilling@@AEXAAVCAr@@K@Z@std@@@std@@QAE@ABV01@@Z 00431f40 f i dpBilling.obj
 0001:00030f50       ?deallocate@?$allocator@U_Node@?$_Tree_nod@V?$_Tmap_traits@KP8CDPBilling@@AEXAAVCAr@@K@ZU?$less@K@std@@V?$allocator@U?$pair@$$CBKP8CDPBilling@@AEXAAVCAr@@K@Z@std@@@4@$0A@@std@@@std@@@std@@QAEXPAU_Node@?$_Tree_nod@V?$_Tmap_traits@KP8CDPBilling@@AEXAAVCAr@@K@ZU?$less@K@std@@V?$allocator@U?$pair@$$CBKP8CDPBilling@@AEXAAVCAr@@K@Z@std@@@4@$0A@@std@@@2@I@Z 00431f50 f i dpBilling.obj
 0001:00030f60       ??0const_iterator@?$_Tree@V?$_Tmap_traits@KP8CDPBilling@@AEXAAVCAr@@K@ZU?$less@K@std@@V?$allocator@U?$pair@$$CBKP8CDPBilling@@AEXAAVCAr@@K@Z@std@@@4@$0A@@std@@@std@@QAE@PAU_Node@?$_Tree_nod@V?$_Tmap_traits@KP8CDPBilling@@AEXAAVCAr@@K@ZU?$less@K@std@@V?$allocator@U?$pair@$$CBKP8CDPBilling@@AEXAAVCAr@@K@Z@std@@@4@$0A@@std@@@2@@Z 00431f60 f i dpBilling.obj
 0001:00030f70       ??Dconst_iterator@?$_Tree@V?$_Tmap_traits@KP8CDPBilling@@AEXAAVCAr@@K@ZU?$less@K@std@@V?$allocator@U?$pair@$$CBKP8CDPBilling@@AEXAAVCAr@@K@Z@std@@@4@$0A@@std@@@std@@QBEABU?$pair@$$CBKP8CDPBilling@@AEXAAVCAr@@K@Z@2@XZ 00431f70 f i dpBilling.obj
 0001:00030f80       ?_Root@?$_Tree@V?$_Tmap_traits@KP8CDPBilling@@AEXAAVCAr@@K@ZU?$less@K@std@@V?$allocator@U?$pair@$$CBKP8CDPBilling@@AEXAAVCAr@@K@Z@std@@@4@$0A@@std@@@std@@IBEAAPAU_Node@?$_Tree_nod@V?$_Tmap_traits@KP8CDPBilling@@AEXAAVCAr@@K@ZU?$less@K@std@@V?$allocator@U?$pair@$$CBKP8CDPBilling@@AEXAAVCAr@@K@Z@std@@@4@$0A@@std@@@2@XZ 00431f80 f i dpBilling.obj
 0001:00030f90       ?max_size@?$allocator@U?$pair@$$CBKP8CDPBilling@@AEXAAVCAr@@K@Z@std@@@std@@QBEIXZ 00431f90 f i dpBilling.obj
 0001:00030fa0       ??0_Node@?$_Tree_nod@V?$_Tmap_traits@KP8CDPBilling@@AEXAAVCAr@@K@ZU?$less@K@std@@V?$allocator@U?$pair@$$CBKP8CDPBilling@@AEXAAVCAr@@K@Z@std@@@4@$0A@@std@@@std@@QAE@PAU012@00ABU?$pair@$$CBKP8CDPBilling@@AEXAAVCAr@@K@Z@2@D@Z 00431fa0 f i dpBilling.obj
 0001:00030fe0       ?_Max@?$_Tree@V?$_Tmap_traits@KP8CDPBilling@@AEXAAVCAr@@K@ZU?$less@K@std@@V?$allocator@U?$pair@$$CBKP8CDPBilling@@AEXAAVCAr@@K@Z@std@@@4@$0A@@std@@@std@@KAPAU_Node@?$_Tree_nod@V?$_Tmap_traits@KP8CDPBilling@@AEXAAVCAr@@K@ZU?$less@K@std@@V?$allocator@U?$pair@$$CBKP8CDPBilling@@AEXAAVCAr@@K@Z@std@@@4@$0A@@std@@@2@PAU342@@Z 00431fe0 f i dpBilling.obj
 0001:00031000       ?_Min@?$_Tree@V?$_Tmap_traits@KP8CDPBilling@@AEXAAVCAr@@K@ZU?$less@K@std@@V?$allocator@U?$pair@$$CBKP8CDPBilling@@AEXAAVCAr@@K@Z@std@@@4@$0A@@std@@@std@@KAPAU_Node@?$_Tree_nod@V?$_Tmap_traits@KP8CDPBilling@@AEXAAVCAr@@K@ZU?$less@K@std@@V?$allocator@U?$pair@$$CBKP8CDPBilling@@AEXAAVCAr@@K@Z@std@@@4@$0A@@std@@@2@PAU342@@Z 00432000 f i dpBilling.obj
 0001:00031020       ??0?$_Tmap_traits@KP8CDPBilling@@AEXAAVCAr@@K@ZU?$less@K@std@@V?$allocator@U?$pair@$$CBKP8CDPBilling@@AEXAAVCAr@@K@Z@std@@@4@$0A@@std@@QAE@U?$less@K@1@@Z 00432020 f i dpBilling.obj
 0001:00031030       ?_Inc@const_iterator@?$_Tree@V?$_Tmap_traits@KP8CDPBilling@@AEXAAVCAr@@K@ZU?$less@K@std@@V?$allocator@U?$pair@$$CBKP8CDPBilling@@AEXAAVCAr@@K@Z@std@@@4@$0A@@std@@@std@@QAEXXZ 00432030 f i dpBilling.obj
 0001:00031090       ??0?$CDPMng@VCBuffer2@@@@QAE@XZ 00432090 f i dpBilling.obj
 0001:000310b0       ??1?$CDPMng@VCBuffer2@@@@UAE@XZ 004320b0 f i dpBilling.obj
 0001:000310c0       ??$_Destroy@PAU_Node@?$_Tree_nod@V?$_Tmap_traits@KP8CDPBilling@@AEXAAVCAr@@K@ZU?$less@K@std@@V?$allocator@U?$pair@$$CBKP8CDPBilling@@AEXAAVCAr@@K@Z@std@@@4@$0A@@std@@@std@@@std@@YAXPAPAU_Node@?$_Tree_nod@V?$_Tmap_traits@KP8CDPBilling@@AEXAAVCAr@@K@ZU?$less@K@std@@V?$allocator@U?$pair@$$CBKP8CDPBilling@@AEXAAVCAr@@K@Z@std@@@4@$0A@@std@@@0@@Z 004320c0 f i dpBilling.obj
 0001:000310d0       ??$?0U?$pair@$$CBKP8CDPBilling@@AEXAAVCAr@@K@Z@std@@@?$allocator@PAU_Node@?$_Tree_nod@V?$_Tmap_traits@KP8CDPBilling@@AEXAAVCAr@@K@ZU?$less@K@std@@V?$allocator@U?$pair@$$CBKP8CDPBilling@@AEXAAVCAr@@K@Z@std@@@4@$0A@@std@@@std@@@std@@QAE@ABV?$allocator@U?$pair@$$CBKP8CDPBilling@@AEXAAVCAr@@K@Z@std@@@1@@Z 004320d0 f i dpBilling.obj
 0001:000310e0       ??$_Allocate@U_Node@?$_Tree_nod@V?$_Tmap_traits@KP8CDPBilling@@AEXAAVCAr@@K@ZU?$less@K@std@@V?$allocator@U?$pair@$$CBKP8CDPBilling@@AEXAAVCAr@@K@Z@std@@@4@$0A@@std@@@std@@@std@@YAPAU_Node@?$_Tree_nod@V?$_Tmap_traits@KP8CDPBilling@@AEXAAVCAr@@K@ZU?$less@K@std@@V?$allocator@U?$pair@$$CBKP8CDPBilling@@AEXAAVCAr@@K@Z@std@@@4@$0A@@std@@@0@IPAU120@@Z 004320e0 f i dpBilling.obj
 0001:00031100       ??$?0U?$pair@$$CBKP8CDPBilling@@AEXAAVCAr@@K@Z@std@@@?$allocator@U_Node@?$_Tree_nod@V?$_Tmap_traits@KP8CDPBilling@@AEXAAVCAr@@K@ZU?$less@K@std@@V?$allocator@U?$pair@$$CBKP8CDPBilling@@AEXAAVCAr@@K@Z@std@@@4@$0A@@std@@@std@@@std@@QAE@ABV?$allocator@U?$pair@$$CBKP8CDPBilling@@AEXAAVCAr@@K@Z@std@@@1@@Z 00432100 f i dpBilling.obj
 0001:00031110       ??$_Destroy@U_Node@?$_Tree_nod@V?$_Tmap_traits@KP8CDPBilling@@AEXAAVCAr@@K@ZU?$less@K@std@@V?$allocator@U?$pair@$$CBKP8CDPBilling@@AEXAAVCAr@@K@Z@std@@@4@$0A@@std@@@std@@@std@@YAXPAU_Node@?$_Tree_nod@V?$_Tmap_traits@KP8CDPBilling@@AEXAAVCAr@@K@ZU?$less@K@std@@V?$allocator@U?$pair@$$CBKP8CDPBilling@@AEXAAVCAr@@K@Z@std@@@4@$0A@@std@@@0@@Z 00432110 f i dpBilling.obj
 0001:00031120       ??$_Construct@PAU_Node@?$_Tree_nod@V?$_Tmap_traits@KP8CDPBilling@@AEXAAVCAr@@K@ZU?$less@K@std@@V?$allocator@U?$pair@$$CBKP8CDPBilling@@AEXAAVCAr@@K@Z@std@@@4@$0A@@std@@@std@@PAU123@@std@@YAXPAPAU_Node@?$_Tree_nod@V?$_Tmap_traits@KP8CDPBilling@@AEXAAVCAr@@K@ZU?$less@K@std@@V?$allocator@U?$pair@$$CBKP8CDPBilling@@AEXAAVCAr@@K@Z@std@@@4@$0A@@std@@@0@ABQAU120@@Z 00432120 f i dpBilling.obj
 0001:00031140       ??_E?$CDPMng@VCBuffer2@@@@UAEPAXI@Z 00432140 f i dpBilling.obj
 0001:00031140       ??_G?$CDPMng@VCBuffer2@@@@UAEPAXI@Z 00432140 f i dpBilling.obj
 0001:00031160       ?Send@?$CDPSock@VCBuffer2@@@@QAEHPADKK@Z 00432160 f i dpBilling.obj
 0001:00031190       ?OnGameStartReceive@CDPBilling@@AAEXAAVCAr@@K@Z 00432190 f   dpBilling.obj
 0001:000313e0       ??9const_iterator@?$_Tree@V?$_Tmap_traits@KP8CDPBilling@@AEXAAVCAr@@K@ZU?$less@K@std@@V?$allocator@U?$pair@$$CBKP8CDPBilling@@AEXAAVCAr@@K@Z@std@@@4@$0A@@std@@@std@@QBE_NABV012@@Z 004323e0 f i dpBilling.obj
 0001:00031400       ?_Key@?$_Tree@V?$_Tmap_traits@KP8CDPBilling@@AEXAAVCAr@@K@ZU?$less@K@std@@V?$allocator@U?$pair@$$CBKP8CDPBilling@@AEXAAVCAr@@K@Z@std@@@4@$0A@@std@@@std@@KAABKPAU_Node@?$_Tree_nod@V?$_Tmap_traits@KP8CDPBilling@@AEXAAVCAr@@K@ZU?$less@K@std@@V?$allocator@U?$pair@$$CBKP8CDPBilling@@AEXAAVCAr@@K@Z@std@@@4@$0A@@std@@@2@@Z 00432400 f i dpBilling.obj
 0001:00031410       ?_Root@?$_Tree@V?$_Tmap_traits@KP8CDPBilling@@AEXAAVCAr@@K@ZU?$less@K@std@@V?$allocator@U?$pair@$$CBKP8CDPBilling@@AEXAAVCAr@@K@Z@std@@@4@$0A@@std@@@std@@IAEAAPAU_Node@?$_Tree_nod@V?$_Tmap_traits@KP8CDPBilling@@AEXAAVCAr@@K@ZU?$less@K@std@@V?$allocator@U?$pair@$$CBKP8CDPBilling@@AEXAAVCAr@@K@Z@std@@@4@$0A@@std@@@2@XZ 00432410 f i dpBilling.obj
 0001:00031420       ??0iterator@?$_Tree@V?$_Tmap_traits@KP8CDPBilling@@AEXAAVCAr@@K@ZU?$less@K@std@@V?$allocator@U?$pair@$$CBKP8CDPBilling@@AEXAAVCAr@@K@Z@std@@@4@$0A@@std@@@std@@QAE@PAU_Node@?$_Tree_nod@V?$_Tmap_traits@KP8CDPBilling@@AEXAAVCAr@@K@ZU?$less@K@std@@V?$allocator@U?$pair@$$CBKP8CDPBilling@@AEXAAVCAr@@K@Z@std@@@4@$0A@@std@@@2@@Z 00432420 f i dpBilling.obj
 0001:00031430       ??Diterator@?$_Tree@V?$_Tmap_traits@KP8CDPBilling@@AEXAAVCAr@@K@ZU?$less@K@std@@V?$allocator@U?$pair@$$CBKP8CDPBilling@@AEXAAVCAr@@K@Z@std@@@4@$0A@@std@@@std@@QBEAAU?$pair@$$CBKP8CDPBilling@@AEXAAVCAr@@K@Z@2@XZ 00432430 f i dpBilling.obj
 0001:00031440       ?max_size@?$_Tree@V?$_Tmap_traits@KP8CDPBilling@@AEXAAVCAr@@K@ZU?$less@K@std@@V?$allocator@U?$pair@$$CBKP8CDPBilling@@AEXAAVCAr@@K@Z@std@@@4@$0A@@std@@@std@@QBEIXZ 00432440 f i dpBilling.obj
 0001:00031450       ?_Lbound@?$_Tree@V?$_Tmap_traits@KP8CDPBilling@@AEXAAVCAr@@K@ZU?$less@K@std@@V?$allocator@U?$pair@$$CBKP8CDPBilling@@AEXAAVCAr@@K@Z@std@@@4@$0A@@std@@@std@@IBEPAU_Node@?$_Tree_nod@V?$_Tmap_traits@KP8CDPBilling@@AEXAAVCAr@@K@ZU?$less@K@std@@V?$allocator@U?$pair@$$CBKP8CDPBilling@@AEXAAVCAr@@K@Z@std@@@4@$0A@@std@@@2@ABK@Z 00432450 f i dpBilling.obj
