 Certifier

 Timestamp is 525db7d4 (Tue Oct 15 17:47:00 2013)

 Preferred load address is 00400000

 Start         Length     Name                   Class
 0001:00000000 0004176cH .text                   CODE
 0001:0004176c 00000cf8H .text$AFX_AUX           CODE
 0001:00042464 000001c9H .text$AFX_CMNCTL        CODE
 0001:0004262d 00000a7aH .text$AFX_COL1          CODE
 0001:000430a7 000002e2H .text$AFX_COL2          CODE
 0001:00043389 0000b1c4H .text$AFX_CORE1         CODE
 0001:0004e54d 000034f6H .text$AFX_CORE2         CODE
 0001:00051a43 00002355H .text$AFX_CORE3         CODE
 0001:00053d98 00000751H .text$AFX_CORE4         CODE
 0001:000544e9 00002baaH .text$AFX_INET          CODE
 0001:00057093 00003dd7H .text$AFX_INIT          CODE
 0001:0005ae6a 000014d6H .text$AFX_OLE1          CODE
 0001:0005c340 000000ecH .text$AFX_TERM          CODE
 0001:0005c430 0000220fH .text$x                 CODE
 0001:0005e640 00000358H .text$yc                CODE
 0001:0005e9a0 00000089H .text$yd                CODE
 0002:00000000 00000988H .idata$5                DATA
 0002:00000990 000134b4H .rdata                  DATA
 0002:00013e44 00000085H .rdata$debug            DATA
 0002:00013ecc 00000298H .rdata$ilfixup          DATA
 0002:00014164 00001838H .rdata$r                DATA
 0002:000159a0 00000508H .rdata$sxdata           DATA
 0002:00015ea8 00000004H .rtc$IAA                DATA
 0002:00015eac 00000004H .rtc$IZZ                DATA
 0002:00015eb0 00000004H .rtc$TAA                DATA
 0002:00015eb4 00000004H .rtc$TZZ                DATA
 0002:00015eb8 00003adcH .xdata$x                DATA
 0002:00019994 00000004H ATL$__a                 DATA
 0002:00019998 00000004H ATL$__z                 DATA
 0002:0001999c 0000017cH .idata$2                DATA
 0002:00019b18 00000014H .idata$3                DATA
 0002:00019b2c 00000988H .idata$4                DATA
 0002:0001a4b4 0000249cH .idata$6                DATA
 0002:0001c950 00000000H .edata                  DATA
 0003:00000000 00000004H .CRT$XCA                DATA
 0003:00000004 00000004H .CRT$XCA0               DATA
 0003:00000008 00000004H .CRT$XCAA               DATA
 0003:0000000c 0000000cH .CRT$XCC                DATA
 0003:00000018 0000000cH .CRT$XCL                DATA
 0003:00000024 00000068H .CRT$XCU                DATA
 0003:0000008c 00000004H .CRT$XCZ                DATA
 0003:00000090 00000004H .CRT$XIA                DATA
 0003:00000094 0000000cH .CRT$XIC                DATA
 0003:000000a0 00000004H .CRT$XIY                DATA
 0003:000000a4 00000004H .CRT$XIZ                DATA
 0003:000000a8 00000004H .CRT$XPA                DATA
 0003:000000ac 00000004H .CRT$XPX                DATA
 0003:000000b0 00000004H .CRT$XPZ                DATA
 0003:000000b4 00000004H .CRT$XTA                DATA
 0003:000000b8 00000004H .CRT$XTB                DATA
 0003:000000bc 00000004H .CRT$XTZ                DATA
 0003:000000c0 0000393cH .data                   DATA
 0003:00003a00 00013944H .bss                    DATA
 0004:00000000 000001a8H .rsrc$01                DATA
 0004:000001b0 00000600H .rsrc$02                DATA

  Address         Publics by Value              Rva+Base     Lib:Object

 0000:00000000       __except_list              00000000     <absolute>
 0000:00000142       ___safe_se_handler_count   00000142     <absolute>
 0000:00000000       ___ImageBase               00400000     <linker-defined>
 0001:00000000       ?HashKey@@YAIPBD@Z         00401000 f   AccountMgr.obj
 0001:00000030       ??2@YAPAXIPAX@Z            00401030 f i AccountMgr.obj
 0001:00000040       ??3@YAXPAX0@Z              00401040 f i AccountMgr.obj
 0001:00000050       ?size@?$list@PAUACCOUNT_CACHE@@V?$allocator@PAUACCOUNT_CACHE@@@std@@@std@@QBEIXZ 00401050 f i AccountMgr.obj
 0001:00000060       ?_Nextnode@?$list@PAUACCOUNT_CACHE@@V?$allocator@PAUACCOUNT_CACHE@@@std@@@std@@KAAAPAU_Node@?$_List_nod@PAUACCOUNT_CACHE@@V?$allocator@PAUACCOUNT_CACHE@@@std@@@2@PAU342@@Z 00401060 f i AccountMgr.obj
 0001:00000070       ?_Prevnode@?$list@PAUACCOUNT_CACHE@@V?$allocator@PAUACCOUNT_CACHE@@@std@@@std@@KAAAPAU_Node@?$_List_nod@PAUACCOUNT_CACHE@@V?$allocator@PAUACCOUNT_CACHE@@@std@@@2@PAU342@@Z 00401070 f i AccountMgr.obj
 0001:00000080       ??0?$allocator@PAUACCOUNT_CACHE@@@std@@QAE@XZ 00401080 f i AccountMgr.obj
 0001:00000090       ?deallocate@?$allocator@U_Node@?$_List_nod@PAUACCOUNT_CACHE@@V?$allocator@PAUACCOUNT_CACHE@@@std@@@std@@@std@@QAEXPAU_Node@?$_List_nod@PAUACCOUNT_CACHE@@V?$allocator@PAUACCOUNT_CACHE@@@std@@@2@I@Z 00401090 f i AccountMgr.obj
 0001:000000a0       ??0const_iterator@?$list@PAUACCOUNT_CACHE@@V?$allocator@PAUACCOUNT_CACHE@@@std@@@std@@QAE@XZ 004010a0 f i AccountMgr.obj
 0001:000000b0       ??Econst_iterator@?$list@PAUACCOUNT_CACHE@@V?$allocator@PAUACCOUNT_CACHE@@@std@@@std@@QAEAAV012@XZ 004010b0 f i AccountMgr.obj
 0001:000000c0       ??8const_iterator@?$list@PAUACCOUNT_CACHE@@V?$allocator@PAUACCOUNT_CACHE@@@std@@@std@@QBE_NABV012@@Z 004010c0 f i AccountMgr.obj
 0001:000000d0       ?_Mynode@const_iterator@?$list@PAUACCOUNT_CACHE@@V?$allocator@PAUACCOUNT_CACHE@@@std@@@std@@QBEPAU_Node@?$_List_nod@PAUACCOUNT_CACHE@@V?$allocator@PAUACCOUNT_CACHE@@@std@@@3@XZ 004010d0 f i AccountMgr.obj
 0001:000000e0       ?_Myval@?$list@PAUACCOUNT_CACHE@@V?$allocator@PAUACCOUNT_CACHE@@@std@@@std@@KAAAPAUACCOUNT_CACHE@@PAU_Node@?$_List_nod@PAUACCOUNT_CACHE@@V?$allocator@PAUACCOUNT_CACHE@@@std@@@2@@Z 004010e0 f i AccountMgr.obj
 0001:000000f0       ??0?$allocator@PAUACCOUNT_CACHE@@@std@@QAE@ABV01@@Z 004010f0 f i AccountMgr.obj
 0001:00000100       ??0const_iterator@?$list@PAUACCOUNT_CACHE@@V?$allocator@PAUACCOUNT_CACHE@@@std@@@std@@QAE@PAU_Node@?$_List_nod@PAUACCOUNT_CACHE@@V?$allocator@PAUACCOUNT_CACHE@@@std@@@2@@Z 00401100 f i AccountMgr.obj
 0001:00000110       ??Fconst_iterator@?$list@PAUACCOUNT_CACHE@@V?$allocator@PAUACCOUNT_CACHE@@@std@@@std@@QAEAAV012@XZ 00401110 f i AccountMgr.obj
 0001:00000120       ??0_Node@?$_List_nod@PAUACCOUNT_CACHE@@V?$allocator@PAUACCOUNT_CACHE@@@std@@@std@@QAE@PAU012@0ABQAUACCOUNT_CACHE@@@Z 00401120 f i AccountMgr.obj
 0001:00000140       ??0?$allocator@D@std@@QAE@XZ 00401140 f i AccountMgr.obj
 0001:00000150       ?max_size@?$allocator@PAUACCOUNT_CACHE@@@std@@QBEIXZ 00401150 f i AccountMgr.obj
 0001:00000160       ??$_Destroy@U_Node@?$_List_nod@PAUACCOUNT_CACHE@@V?$allocator@PAUACCOUNT_CACHE@@@std@@@std@@@std@@YAXPAU_Node@?$_List_nod@PAUACCOUNT_CACHE@@V?$allocator@PAUACCOUNT_CACHE@@@std@@@0@@Z 00401160 f i AccountMgr.obj
 0001:00000170       ??$?0PAUACCOUNT_CACHE@@@?$allocator@PAU_Node@?$_List_nod@PAUACCOUNT_CACHE@@V?$allocator@PAUACCOUNT_CACHE@@@std@@@std@@@std@@QAE@ABV?$allocator@PAUACCOUNT_CACHE@@@1@@Z 00401170 f i AccountMgr.obj
 0001:00000180       ??$_Allocate@U_Node@?$_List_nod@PAUACCOUNT_CACHE@@V?$allocator@PAUACCOUNT_CACHE@@@std@@@std@@@std@@YAPAU_Node@?$_List_nod@PAUACCOUNT_CACHE@@V?$allocator@PAUACCOUNT_CACHE@@@std@@@0@IPAU120@@Z 00401180 f i AccountMgr.obj
 0001:000001a0       ??$_Construct@PAU_Node@?$_List_nod@PAUACCOUNT_CACHE@@V?$allocator@PAUACCOUNT_CACHE@@@std@@@std@@PAU123@@std@@YAXPAPAU_Node@?$_List_nod@PAUACCOUNT_CACHE@@V?$allocator@PAUACCOUNT_CACHE@@@std@@@0@ABQAU120@@Z 004011a0 f i AccountMgr.obj
 0001:000001c0       ??$_Destroy@PAU_Node@?$_List_nod@PAUACCOUNT_CACHE@@V?$allocator@PAUACCOUNT_CACHE@@@std@@@std@@@std@@YAXPAPAU_Node@?$_List_nod@PAUACCOUNT_CACHE@@V?$allocator@PAUACCOUNT_CACHE@@@std@@@0@@Z 004011c0 f i AccountMgr.obj
 0001:000001d0       ??$?0PAUACCOUNT_CACHE@@@?$allocator@U_Node@?$_List_nod@PAUACCOUNT_CACHE@@V?$allocator@PAUACCOUNT_CACHE@@@std@@@std@@@std@@QAE@ABV?$allocator@PAUACCOUNT_CACHE@@@1@@Z 004011d0 f i AccountMgr.obj
 0001:000001e0       ?assign@?$char_traits@D@std@@SAXAADABD@Z 004011e0 f i AccountMgr.obj
 0001:000001f0       ?length@?$char_traits@D@std@@SAIPBD@Z 004011f0 f i AccountMgr.obj
 0001:00000210       ?copy@?$char_traits@D@std@@SAPADPADPBDI@Z 00401210 f i AccountMgr.obj
 0001:00000240       ?move@?$char_traits@D@std@@SAPADPADPBDI@Z 00401240 f i AccountMgr.obj
 0001:00000250       ?size@?$basic_string@DU?$char_traits@D@std@@V?$allocator@D@2@@std@@QBEIXZ 00401250 f i AccountMgr.obj
 0001:00000260       ?_Myptr@?$basic_string@DU?$char_traits@D@std@@V?$allocator@D@2@@std@@QBEPBDXZ 00401260 f i AccountMgr.obj
 0001:00000270       ??0?$allocator@D@std@@QAE@ABV01@@Z 00401270 f i AccountMgr.obj
 0001:00000280       ?_Myptr@?$basic_string@DU?$char_traits@D@std@@V?$allocator@D@2@@std@@QAEPADXZ 00401280 f i AccountMgr.obj
 0001:00000290       ?deallocate@?$allocator@D@std@@QAEXPADI@Z 00401290 f i AccountMgr.obj
 0001:000002a0       ?_Inside@?$basic_string@DU?$char_traits@D@std@@V?$allocator@D@2@@std@@IAE_NPBD@Z 004012a0 f i AccountMgr.obj
 0001:000002e0       ?max_size@?$allocator@D@std@@QBEIXZ 004012e0 f i AccountMgr.obj
 0001:000002f0       ??$_Allocate@D@std@@YAPADIPAD@Z 004012f0 f i AccountMgr.obj
 0001:00000300       ??0iterator@?$list@PAUACCOUNT_CACHE@@V?$allocator@PAUACCOUNT_CACHE@@@std@@@std@@QAE@XZ 00401300 f i AccountMgr.obj
 0001:00000310       ??Eiterator@?$list@PAUACCOUNT_CACHE@@V?$allocator@PAUACCOUNT_CACHE@@@std@@@std@@QAEAAV012@XZ 00401310 f i AccountMgr.obj
 0001:00000320       ??9const_iterator@?$list@PAUACCOUNT_CACHE@@V?$allocator@PAUACCOUNT_CACHE@@@std@@@std@@QBE_NABV012@@Z 00401320 f i AccountMgr.obj
 0001:00000340       ?destroy@?$allocator@U_Node@?$_List_nod@PAUACCOUNT_CACHE@@V?$allocator@PAUACCOUNT_CACHE@@@std@@@std@@@std@@QAEXPAU_Node@?$_List_nod@PAUACCOUNT_CACHE@@V?$allocator@PAUACCOUNT_CACHE@@@std@@@2@@Z 00401340 f i AccountMgr.obj
 0001:00000350       ??0iterator@?$list@PAUACCOUNT_CACHE@@V?$allocator@PAUACCOUNT_CACHE@@@std@@@std@@QAE@PAU_Node@?$_List_nod@PAUACCOUNT_CACHE@@V?$allocator@PAUACCOUNT_CACHE@@@std@@@2@@Z 00401350 f i AccountMgr.obj
 0001:00000360       ??Eiterator@?$list@PAUACCOUNT_CACHE@@V?$allocator@PAUACCOUNT_CACHE@@@std@@@std@@QAE?AV012@H@Z 00401360 f i AccountMgr.obj
 0001:00000370       ??Fiterator@?$list@PAUACCOUNT_CACHE@@V?$allocator@PAUACCOUNT_CACHE@@@std@@@std@@QAEAAV012@XZ 00401370 f i AccountMgr.obj
 0001:00000380       ??Dconst_iterator@?$list@PAUACCOUNT_CACHE@@V?$allocator@PAUACCOUNT_CACHE@@@std@@@std@@QBEABQAUACCOUNT_CACHE@@XZ 00401380 f i AccountMgr.obj
 0001:00000390       ?clear@?$list@PAUACCOUNT_CACHE@@V?$allocator@PAUACCOUNT_CACHE@@@std@@@std@@QAEXXZ 00401390 f i AccountMgr.obj
 0001:000003d0       ?allocate@?$allocator@U_Node@?$_List_nod@PAUACCOUNT_CACHE@@V?$allocator@PAUACCOUNT_CACHE@@@std@@@std@@@std@@QAEPAU_Node@?$_List_nod@PAUACCOUNT_CACHE@@V?$allocator@PAUACCOUNT_CACHE@@@std@@@2@I@Z 004013d0 f i AccountMgr.obj
 0001:000003f0       ?construct@?$allocator@PAU_Node@?$_List_nod@PAUACCOUNT_CACHE@@V?$allocator@PAUACCOUNT_CACHE@@@std@@@std@@@std@@QAEXPAPAU_Node@?$_List_nod@PAUACCOUNT_CACHE@@V?$allocator@PAUACCOUNT_CACHE@@@std@@@2@ABQAU342@@Z 004013f0 f i AccountMgr.obj
 0001:00000410       ?destroy@?$allocator@PAU_Node@?$_List_nod@PAUACCOUNT_CACHE@@V?$allocator@PAUACCOUNT_CACHE@@@std@@@std@@@std@@QAEXPAPAU_Node@?$_List_nod@PAUACCOUNT_CACHE@@V?$allocator@PAUACCOUNT_CACHE@@@std@@@2@@Z 00401410 f i AccountMgr.obj
 0001:00000420       ?max_size@?$list@PAUACCOUNT_CACHE@@V?$allocator@PAUACCOUNT_CACHE@@@std@@@std@@QBEIXZ 00401420 f i AccountMgr.obj
 0001:00000430       ??0?$_List_nod@PAUACCOUNT_CACHE@@V?$allocator@PAUACCOUNT_CACHE@@@std@@@std@@IAE@V?$allocator@PAUACCOUNT_CACHE@@@1@@Z 00401430 f i AccountMgr.obj
 0001:00000440       ??0?$_String_val@DV?$allocator@D@std@@@std@@IAE@V?$allocator@D@1@@Z 00401440 f i AccountMgr.obj
 0001:00000450       ?_Eos@?$basic_string@DU?$char_traits@D@std@@V?$allocator@D@2@@std@@IAEXI@Z 00401450 f i AccountMgr.obj
 0001:00000470       ?max_size@?$basic_string@DU?$char_traits@D@std@@V?$allocator@D@2@@std@@QBEIXZ 00401470 f i AccountMgr.obj
 0001:00000480       ?allocate@?$allocator@D@std@@QAEPADI@Z 00401480 f i AccountMgr.obj
 0001:00000490       ?begin@?$list@PAUACCOUNT_CACHE@@V?$allocator@PAUACCOUNT_CACHE@@@std@@@std@@QAE?AViterator@12@XZ 00401490 f i AccountMgr.obj
 0001:000004a0       ?end@?$list@PAUACCOUNT_CACHE@@V?$allocator@PAUACCOUNT_CACHE@@@std@@@std@@QAE?AViterator@12@XZ 004014a0 f i AccountMgr.obj
 0001:000004b0       ?erase@?$list@PAUACCOUNT_CACHE@@V?$allocator@PAUACCOUNT_CACHE@@@std@@@std@@QAE?AViterator@12@V312@@Z 004014b0 f i AccountMgr.obj
 0001:000004f0       ??Diterator@?$list@PAUACCOUNT_CACHE@@V?$allocator@PAUACCOUNT_CACHE@@@std@@@std@@QBEAAPAUACCOUNT_CACHE@@XZ 004014f0 f i AccountMgr.obj
 0001:00000500       ?_Buynode@?$list@PAUACCOUNT_CACHE@@V?$allocator@PAUACCOUNT_CACHE@@@std@@@std@@IAEPAU_Node@?$_List_nod@PAUACCOUNT_CACHE@@V?$allocator@PAUACCOUNT_CACHE@@@std@@@2@XZ 00401500 f i AccountMgr.obj
 0001:00000520       ?_Tidy@?$list@PAUACCOUNT_CACHE@@V?$allocator@PAUACCOUNT_CACHE@@@std@@@std@@IAEXXZ 00401520 f i AccountMgr.obj
 0001:00000540       ?_Buynode@?$list@PAUACCOUNT_CACHE@@V?$allocator@PAUACCOUNT_CACHE@@@std@@@std@@IAEPAU_Node@?$_List_nod@PAUACCOUNT_CACHE@@V?$allocator@PAUACCOUNT_CACHE@@@std@@@2@PAU342@0ABQAUACCOUNT_CACHE@@@Z 00401540 f i AccountMgr.obj
 0001:00000570       ??0?$_List_ptr@PAUACCOUNT_CACHE@@V?$allocator@PAUACCOUNT_CACHE@@@std@@@std@@IAE@V?$allocator@PAUACCOUNT_CACHE@@@1@@Z 00401570 f i AccountMgr.obj
 0001:00000580       ?_Tidy@?$basic_string@DU?$char_traits@D@std@@V?$allocator@D@2@@std@@IAEX_NI@Z 00401580 f i AccountMgr.obj
 0001:000005e0       ?erase@?$basic_string@DU?$char_traits@D@std@@V?$allocator@D@2@@std@@QAEAAV12@II@Z 004015e0 f i AccountMgr.obj
 0001:00000660       ?_Copy@?$basic_string@DU?$char_traits@D@std@@V?$allocator@D@2@@std@@IAEXII@Z 00401660 f i AccountMgr.obj
 0001:000007a0       ??1?$list@PAUACCOUNT_CACHE@@V?$allocator@PAUACCOUNT_CACHE@@@std@@@std@@QAE@XZ 004017a0 f i AccountMgr.obj
 0001:000007c0       ?front@?$list@PAUACCOUNT_CACHE@@V?$allocator@PAUACCOUNT_CACHE@@@std@@@std@@QAEAAPAUACCOUNT_CACHE@@XZ 004017c0 f i AccountMgr.obj
 0001:000007d0       ?back@?$list@PAUACCOUNT_CACHE@@V?$allocator@PAUACCOUNT_CACHE@@@std@@@std@@QAEAAPAUACCOUNT_CACHE@@XZ 004017d0 f i AccountMgr.obj
 0001:000007e0       ?pop_back@?$list@PAUACCOUNT_CACHE@@V?$allocator@PAUACCOUNT_CACHE@@@std@@@std@@QAEXXZ 004017e0 f i AccountMgr.obj
 0001:00000810       ??0?$_List_val@PAUACCOUNT_CACHE@@V?$allocator@PAUACCOUNT_CACHE@@@std@@@std@@IAE@V?$allocator@PAUACCOUNT_CACHE@@@1@@Z 00401810 f i AccountMgr.obj
 0001:00000820       ??1?$basic_string@DU?$char_traits@D@std@@V?$allocator@D@2@@std@@QAE@XZ 00401820 f i AccountMgr.obj
 0001:00000850       ?_Grow@?$basic_string@DU?$char_traits@D@std@@V?$allocator@D@2@@std@@IAE_NI_N@Z 00401850 f i AccountMgr.obj
 0001:00000920       ??1CAccountMgr@@QAE@XZ     00401920 f   AccountMgr.obj
 0001:00000990       ?SetError@CAccountMgr@@QAEXH@Z 00401990 f   AccountMgr.obj
 0001:000009e0       ??0?$list@PAUACCOUNT_CACHE@@V?$allocator@PAUACCOUNT_CACHE@@@std@@@std@@QAE@XZ 004019e0 f i AccountMgr.obj
 0001:00000a00       ??1logic_error@std@@UAE@XZ 00401a00 f i AccountMgr.obj
 0001:00000a40       ?what@logic_error@std@@UBEPBDXZ 00401a40 f i AccountMgr.obj
 0001:00000a50       ??_Elogic_error@std@@UAEPAXI@Z 00401a50 f i AccountMgr.obj
 0001:00000a50       ??_Glogic_error@std@@UAEPAXI@Z 00401a50 f i AccountMgr.obj
 0001:00000a70       ?assign@?$basic_string@DU?$char_traits@D@std@@V?$allocator@D@2@@std@@QAEAAV12@ABV12@II@Z 00401a70 f i AccountMgr.obj
 0001:00000b60       ?assign@?$basic_string@DU?$char_traits@D@std@@V?$allocator@D@2@@std@@QAEAAV12@PBDI@Z 00401b60 f i AccountMgr.obj
 0001:00000c50       ??0CAccountMgr@@QAE@XZ     00401c50 f   AccountMgr.obj
 0001:00000c70       ??0?$basic_string@DU?$char_traits@D@std@@V?$allocator@D@2@@std@@QAE@ABV01@@Z 00401c70 f i AccountMgr.obj
 0001:00000ca0       ?assign@?$basic_string@DU?$char_traits@D@std@@V?$allocator@D@2@@std@@QAEAAV12@PBD@Z 00401ca0 f i AccountMgr.obj
 0001:00000cd0       ??0?$basic_string@DU?$char_traits@D@std@@V?$allocator@D@2@@std@@QAE@PBD@Z 00401cd0 f i AccountMgr.obj
 0001:00000d10       ??0logic_error@std@@QAE@ABV?$basic_string@DU?$char_traits@D@std@@V?$allocator@D@2@@1@@Z 00401d10 f i AccountMgr.obj
 0001:00000d70       ??0length_error@std@@QAE@ABV?$basic_string@DU?$char_traits@D@std@@V?$allocator@D@2@@1@@Z 00401d70 f i AccountMgr.obj
 0001:00000d90       ??_Glength_error@std@@UAEPAXI@Z 00401d90 f i AccountMgr.obj
 0001:00000d90       ??_Elength_error@std@@UAEPAXI@Z 00401d90 f i AccountMgr.obj
 0001:00000db0       ??1length_error@std@@UAE@XZ 00401db0 f i AccountMgr.obj
 0001:00000df0       ?_Incsize@?$list@PAUACCOUNT_CACHE@@V?$allocator@PAUACCOUNT_CACHE@@@std@@@std@@IAEXI@Z 00401df0 f i AccountMgr.obj
 0001:00000e90       ??0logic_error@std@@QAE@ABV01@@Z 00401e90 f i AccountMgr.obj
 0001:00000f00       ??0length_error@std@@QAE@ABV01@@Z 00401f00 f i AccountMgr.obj
 0001:00000f20       ?_Insert@?$list@PAUACCOUNT_CACHE@@V?$allocator@PAUACCOUNT_CACHE@@@std@@@std@@QAEXViterator@12@ABQAUACCOUNT_CACHE@@@Z 00401f20 f i AccountMgr.obj
 0001:00000f60       ?push_front@?$list@PAUACCOUNT_CACHE@@V?$allocator@PAUACCOUNT_CACHE@@@std@@@std@@QAEXABQAUACCOUNT_CACHE@@@Z 00401f60 f i AccountMgr.obj
 0001:00000fa0       ?Check@CAccountMgr@@QAE?AW4ACCOUNT_CHECK@@K@Z 00401fa0 f   AccountMgr.obj
 0001:00001110       ?InterlockedExchangePointer@@YGPAXPAPAXPAX@Z 00402110 f i certifier.obj
 0001:00001120       ?_AtlGetThreadACPFake@ATL@@YGIXZ 00402120 f i certifier.obj
 0001:000011a0       ?_AtlGetThreadACPReal@ATL@@YGIXZ 004021a0 f i certifier.obj
 0001:000011b0       ?_AtlGetThreadACPThunk@ATL@@YGIXZ 004021b0 f i certifier.obj
 0001:00001220       ?_AtlGetConversionACP@ATL@@YGIXZ 00402220 f i certifier.obj
 0001:00001230       ?StartServer@CDPMng@@QAEHGHK@Z 00402230 f i certifier.obj
 0001:00001280       ?ConnectToServer@CDPMng@@QAEHPBDGHKK@Z 00402280 f i certifier.obj
 0001:000012d0       ?Initialize@CMyTrace@@QAEXPAUHWND__@@PBDKK@Z 004022d0 f i certifier.obj
 0001:00001320       ?InitLanguageFromResource@@YAXPAUHINSTANCE__@@@Z 00402320 f   certifier.obj
 0001:000013b0       ?AtlThrow@ATL@@YGXJ@Z      004023b0 f i certifier.obj
 0001:000013d0       ?ExitInstance@@YAXXZ       004023d0 f   certifier.obj
 0001:000013f0       ?_AtlGetStringResourceImage@ATL@@YAPBUATLSTRINGRESOURCEIMAGE@1@PAUHINSTANCE__@@PAUHRSRC__@@I@Z 004023f0 f i certifier.obj
 0001:00001450       ?AtlGetStringResourceImage@ATL@@YAPBUATLSTRINGRESOURCEIMAGE@1@PAUHINSTANCE__@@I@Z 00402450 f i certifier.obj
 0001:00001490       ?Run@Heartbeat@@QAEXXZ     00402490 f   certifier.obj
 0001:000014a0       ?data@CStringData@ATL@@QAEPAXXZ 004024a0 f i certifier.obj
 0001:000014b0       ?IsLocked@CStringData@ATL@@QBE_NXZ 004024b0 f i certifier.obj
 0001:000014c0       ?IsShared@CStringData@ATL@@QBE_NXZ 004024c0 f i certifier.obj
 0001:000014d0       ?Release@CStringData@ATL@@QAEXXZ 004024d0 f i certifier.obj
 0001:000014f0       ?StringCompare@?$ChTraitsCRT@D@ATL@@SAHPBD0@Z 004024f0 f i certifier.obj
 0001:00001500       ??0CTime@ATL@@QAE@_J@Z     00402500 f i certifier.obj
 0001:00001520       ??B?$CSimpleStringT@D$0A@@ATL@@QBEPBDXZ 00402520 f i certifier.obj
 0001:00001530       ?GetString@?$CSimpleStringT@D$0A@@ATL@@QBEPBDXZ 00402530 f i certifier.obj
 0001:00001540       ?StringLength@?$CSimpleStringT@D$0A@@ATL@@SAHPBD@Z 00402540 f i certifier.obj
 0001:00001560       ?GetData@?$CSimpleStringT@D$0A@@ATL@@ABEPAUCStringData@2@XZ 00402560 f i certifier.obj
 0001:00001570       ?SetLength@?$CSimpleStringT@D$0A@@ATL@@AAEXH@Z 00402570 f i certifier.obj
 0001:000015a0       ?FindStringResourceInstance@?$StrTraitMFC@DV?$ChTraitsCRT@D@ATL@@@@SAPAUHINSTANCE__@@I@Z 004025a0 f i certifier.obj
 0001:000015b0       ?GetDefaultManager@?$StrTraitMFC@DV?$ChTraitsCRT@D@ATL@@@@SAPAUIAtlStringMgr@ATL@@XZ 004025b0 f i certifier.obj
 0001:000015c0       ?Attach@?$CSimpleStringT@D$0A@@ATL@@AAEXPAUCStringData@2@@Z 004025c0 f i certifier.obj
 0001:000015d0       ?GetBaseTypeLength@?$ChTraitsCRT@D@ATL@@SAHPBGH@Z 004025d0 f i certifier.obj
 0001:00001600       ?ConvertToBaseType@?$ChTraitsCRT@D@ATL@@SAXPADHPBGH@Z 00402600 f i certifier.obj
 0001:00001630       ?CopyChars@?$CSimpleStringT@D$0A@@ATL@@SAXPADPBDH@Z 00402630 f i certifier.obj
 0001:00001650       ?CopyCharsOverlapped@?$CSimpleStringT@D$0A@@ATL@@SAXPADPBDH@Z 00402650 f i certifier.obj
 0001:00001660       ?ThrowMemoryException@?$CSimpleStringT@D$0A@@ATL@@KAXXZ 00402660 f i certifier.obj
 0001:00001670       ?Fork@?$CSimpleStringT@D$0A@@ATL@@AAEXH@Z 00402670 f i certifier.obj
 0001:000016f0       ?Reallocate@?$CSimpleStringT@D$0A@@ATL@@AAEXH@Z 004026f0 f i certifier.obj
 0001:00001720       ?WndProc@@YGJPAUHWND__@@IIJ@Z 00402720 f   certifier.obj
 0001:00001870       ?Compare@?$CStringT@DV?$StrTraitMFC@DV?$ChTraitsCRT@D@ATL@@@@@ATL@@QBEHPBD@Z 00402870 f i certifier.obj
 0001:00001890       ?GetTickCount@CTime@ATL@@SG?AV12@XZ 00402890 f i certifier.obj
 0001:000018b0       ?GetLength@?$CSimpleStringT@D$0A@@ATL@@QBEHXZ 004028b0 f i certifier.obj
 0001:000018c0       ?c_str@?$basic_string@DU?$char_traits@D@std@@V?$allocator@D@2@@std@@QBEPBDXZ 004028c0 f i certifier.obj
 0001:000018d0       ??0?$CSimpleStringT@D$0A@@ATL@@QAE@PAUIAtlStringMgr@1@@Z 004028d0 f i certifier.obj
 0001:000018f0       ??1?$CSimpleStringT@D$0A@@ATL@@QAE@XZ 004028f0 f i certifier.obj
 0001:00001910       ?ReleaseBufferSetLength@?$CSimpleStringT@D$0A@@ATL@@QAEXH@Z 00402910 f i certifier.obj
 0001:00001940       ?Empty@?$CSimpleStringT@D$0A@@ATL@@QAEXXZ 00402940 f i certifier.obj
 0001:000019b0       ?PrepareWrite2@?$CSimpleStringT@D$0A@@ATL@@AAEXH@Z 004029b0 f i certifier.obj
 0001:00001a00       ?MyRegisterClass@@YAGPAUHINSTANCE__@@@Z 00402a00 f   certifier.obj
 0001:00001a90       ?Init@Heartbeat@@QAEXXZ    00402a90 f   certifier.obj
 0001:00001af0       ??8ATL@@YA_NABV?$CStringT@DV?$StrTraitMFC@DV?$ChTraitsCRT@D@ATL@@@@@0@PBD@Z 00402af0 f i certifier.obj
 0001:00001b10       ??1?$CStringT@DV?$StrTraitMFC@DV?$ChTraitsCRT@D@ATL@@@@@ATL@@QAE@XZ 00402b10 f i certifier.obj
 0001:00001b30       ?PrepareWrite@?$CSimpleStringT@D$0A@@ATL@@AAEPADH@Z 00402b30 f i certifier.obj
 0001:00001b60       ?Script@@YAHPBD@Z          00402b60 f   certifier.obj
 0001:00001d30       ?GetBuffer@?$CSimpleStringT@D$0A@@ATL@@QAEPADH@Z 00402d30 f i certifier.obj
 0001:00001d60       ?LoadStringA@?$CStringT@DV?$StrTraitMFC@DV?$ChTraitsCRT@D@ATL@@@@@ATL@@QAEHPAUHINSTANCE__@@I@Z 00402d60 f i certifier.obj
 0001:00001e30       ?SetString@?$CSimpleStringT@D$0A@@ATL@@QAEXPBDH@Z 00402e30 f i certifier.obj
 0001:00001ed0       ??1Heartbeat@@UAE@XZ       00402ed0 f   certifier.obj
 0001:00001f20       ?LoadStringA@?$CStringT@DV?$StrTraitMFC@DV?$ChTraitsCRT@D@ATL@@@@@ATL@@QAEHI@Z 00402f20 f i certifier.obj
 0001:00001f50       ?CheckImplicitLoad@?$CStringT@DV?$StrTraitMFC@DV?$ChTraitsCRT@D@ATL@@@@@ATL@@AAE_NPBX@Z 00402f50 f i certifier.obj
 0001:00001f90       ?SetString@?$CSimpleStringT@D$0A@@ATL@@QAEXPBD@Z 00402f90 f i certifier.obj
 0001:00001fd0       ??_GHeartbeat@@UAEPAXI@Z   00402fd0 f i certifier.obj
 0001:00001fd0       ??_EHeartbeat@@UAEPAXI@Z   00402fd0 f i certifier.obj
 0001:00001ff0       ??4?$CSimpleStringT@D$0A@@ATL@@QAEAAV01@PBD@Z 00402ff0 f i certifier.obj
 0001:00002030       ??4?$CStringT@DV?$StrTraitMFC@DV?$ChTraitsCRT@D@ATL@@@@@ATL@@QAEAAV01@PBD@Z 00403030 f i certifier.obj
 0001:00002070       ??0Heartbeat@@QAE@PBD@Z    00403070 f   certifier.obj
 0001:000020c0       ??0?$CStringT@DV?$StrTraitMFC@DV?$ChTraitsCRT@D@ATL@@@@@ATL@@QAE@PBD@Z 004030c0 f i certifier.obj
 0001:00002170       ?Format@CTime@ATL@@QBE?AV?$CStringT@DV?$StrTraitMFC@DV?$ChTraitsCRT@D@ATL@@@@@2@PBD@Z 00403170 f i certifier.obj
 0001:00002200       ?InitInstance@@YAHPAUHINSTANCE__@@H@Z 00403200 f   certifier.obj
 0001:00002410       _WinMain@16                00403410 f   certifier.obj
 0001:000024f0       ??0_GPAUTH_RESULT@@QAE@XZ  004034f0 f i DBManager.obj
 0001:00002520       ?DBQryAccount@CDbManager@@QAEXPADPAUtagDB_OVERLAPPED_PLUS@@@Z 00403520 f   DBManager.obj
 0001:000025e0       ?GetIOCPHandle@CDbManager@@QAEPAXH@Z 004035e0 f   DBManager.obj
 0001:000025f0       ?AddRef@CStringData@ATL@@QAEXXZ 004035f0 f i DBManager.obj
 0001:00002600       ?SQLAddAccount@CDbManager@@QAEXAAVCQuery@@PAD1@Z 00403600 f   DBManager.obj
 0001:00002670       ??0CTime@ATL@@QAE@HHHHHHH@Z 00403670 f i DBManager.obj
 0001:000026f0       ??0?$allocator@V?$basic_string@DU?$char_traits@D@std@@V?$allocator@D@2@@std@@@std@@QAE@XZ 004036f0 f i DBManager.obj
 0001:00002700       ?_Isnil@?$_Tree@V?$_Tset_traits@V?$basic_string@DU?$char_traits@D@std@@V?$allocator@D@2@@std@@U?$less@V?$basic_string@DU?$char_traits@D@std@@V?$allocator@D@2@@std@@@2@V?$allocator@V?$basic_string@DU?$char_traits@D@std@@V?$allocator@D@2@@std@@@2@$0A@@std@@@std@@KAAADPAU_Node@?$_Tree_nod@V?$_Tset_traits@V?$basic_string@DU?$char_traits@D@std@@V?$allocator@D@2@@std@@U?$less@V?$basic_string@DU?$char_traits@D@std@@V?$allocator@D@2@@std@@@2@V?$allocator@V?$basic_string@DU?$char_traits@D@std@@V?$allocator@D@2@@std@@@2@$0A@@std@@@2@@Z 00403700 f i DBManager.obj
 0001:00002710       ?_Left@?$_Tree@V?$_Tset_traits@V?$basic_string@DU?$char_traits@D@std@@V?$allocator@D@2@@std@@U?$less@V?$basic_string@DU?$char_traits@D@std@@V?$allocator@D@2@@std@@@2@V?$allocator@V?$basic_string@DU?$char_traits@D@std@@V?$allocator@D@2@@std@@@2@$0A@@std@@@std@@KAAAPAU_Node@?$_Tree_nod@V?$_Tset_traits@V?$basic_string@DU?$char_traits@D@std@@V?$allocator@D@2@@std@@U?$less@V?$basic_string@DU?$char_traits@D@std@@V?$allocator@D@2@@std@@@2@V?$allocator@V?$basic_string@DU?$char_traits@D@std@@V?$allocator@D@2@@std@@@2@$0A@@std@@@2@PAU342@@Z 00403710 f i DBManager.obj
 0001:00002720       ?_Right@?$_Tree@V?$_Tset_traits@V?$basic_string@DU?$char_traits@D@std@@V?$allocator@D@2@@std@@U?$less@V?$basic_string@DU?$char_traits@D@std@@V?$allocator@D@2@@std@@@2@V?$allocator@V?$basic_string@DU?$char_traits@D@std@@V?$allocator@D@2@@std@@@2@$0A@@std@@@std@@KAAAPAU_Node@?$_Tree_nod@V?$_Tset_traits@V?$basic_string@DU?$char_traits@D@std@@V?$allocator@D@2@@std@@U?$less@V?$basic_string@DU?$char_traits@D@std@@V?$allocator@D@2@@std@@@2@V?$allocator@V?$basic_string@DU?$char_traits@D@std@@V?$allocator@D@2@@std@@@2@$0A@@std@@@2@PAU342@@Z 00403720 f i DBManager.obj
 0001:00002730       ?GetLocalTm@CTime@ATL@@QBEPAUtm@@PAU3@@Z 00403730 f i DBManager.obj
 0001:00002760       ?GetHour@CTime@ATL@@QBEHXZ 00403760 f i DBManager.obj
 0001:00002780       ?_Kfn@?$_Tset_traits@V?$basic_string@DU?$char_traits@D@std@@V?$allocator@D@2@@std@@U?$less@V?$basic_string@DU?$char_traits@D@std@@V?$allocator@D@2@@std@@@2@V?$allocator@V?$basic_string@DU?$char_traits@D@std@@V?$allocator@D@2@@std@@@2@$0A@@std@@SAABV?$basic_string@DU?$char_traits@D@std@@V?$allocator@D@2@@2@ABV32@@Z 00403780 f i DBManager.obj
 0001:00002790       ??0?$pair@Viterator@?$_Tree@V?$_Tset_traits@V?$basic_string@DU?$char_traits@D@std@@V?$allocator@D@2@@std@@U?$less@V?$basic_string@DU?$char_traits@D@std@@V?$allocator@D@2@@std@@@2@V?$allocator@V?$basic_string@DU?$char_traits@D@std@@V?$allocator@D@2@@std@@@2@$0A@@std@@@std@@_N@std@@QAE@ABViterator@?$_Tree@V?$_Tset_traits@V?$basic_string@DU?$char_traits@D@std@@V?$allocator@D@2@@std@@U?$less@V?$basic_string@DU?$char_traits@D@std@@V?$allocator@D@2@@std@@@2@V?$allocator@V?$basic_string@DU?$char_traits@D@std@@V?$allocator@D@2@@std@@@2@$0A@@std@@@1@AB_N@Z 00403790 f i DBManager.obj
 0001:000027b0       ??8const_iterator@?$_Tree@V?$_Tset_traits@V?$basic_string@DU?$char_traits@D@std@@V?$allocator@D@2@@std@@U?$less@V?$basic_string@DU?$char_traits@D@std@@V?$allocator@D@2@@std@@@2@V?$allocator@V?$basic_string@DU?$char_traits@D@std@@V?$allocator@D@2@@std@@@2@$0A@@std@@@std@@QBE_NABV012@@Z 004037b0 f i DBManager.obj
 0001:000027c0       ?_Mynode@const_iterator@?$_Tree@V?$_Tset_traits@V?$basic_string@DU?$char_traits@D@std@@V?$allocator@D@2@@std@@U?$less@V?$basic_string@DU?$char_traits@D@std@@V?$allocator@D@2@@std@@@2@V?$allocator@V?$basic_string@DU?$char_traits@D@std@@V?$allocator@D@2@@std@@@2@$0A@@std@@@std@@QBEPAU_Node@?$_Tree_nod@V?$_Tset_traits@V?$basic_string@DU?$char_traits@D@std@@V?$allocator@D@2@@std@@U?$less@V?$basic_string@DU?$char_traits@D@std@@V?$allocator@D@2@@std@@@2@V?$allocator@V?$basic_string@DU?$char_traits@D@std@@V?$allocator@D@2@@std@@@2@$0A@@std@@@3@XZ 004037c0 f i DBManager.obj
 0001:000027d0       ??0?$allocator@V?$basic_string@DU?$char_traits@D@std@@V?$allocator@D@2@@std@@@std@@QAE@ABV01@@Z 004037d0 f i DBManager.obj
 0001:000027e0       ?_Color@?$_Tree@V?$_Tset_traits@V?$basic_string@DU?$char_traits@D@std@@V?$allocator@D@2@@std@@U?$less@V?$basic_string@DU?$char_traits@D@std@@V?$allocator@D@2@@std@@@2@V?$allocator@V?$basic_string@DU?$char_traits@D@std@@V?$allocator@D@2@@std@@@2@$0A@@std@@@std@@KAAADPAU_Node@?$_Tree_nod@V?$_Tset_traits@V?$basic_string@DU?$char_traits@D@std@@V?$allocator@D@2@@std@@U?$less@V?$basic_string@DU?$char_traits@D@std@@V?$allocator@D@2@@std@@@2@V?$allocator@V?$basic_string@DU?$char_traits@D@std@@V?$allocator@D@2@@std@@@2@$0A@@std@@@2@@Z 004037e0 f i DBManager.obj
 0001:000027f0       ?_Parent@?$_Tree@V?$_Tset_traits@V?$basic_string@DU?$char_traits@D@std@@V?$allocator@D@2@@std@@U?$less@V?$basic_string@DU?$char_traits@D@std@@V?$allocator@D@2@@std@@@2@V?$allocator@V?$basic_string@DU?$char_traits@D@std@@V?$allocator@D@2@@std@@@2@$0A@@std@@@std@@KAAAPAU_Node@?$_Tree_nod@V?$_Tset_traits@V?$basic_string@DU?$char_traits@D@std@@V?$allocator@D@2@@std@@U?$less@V?$basic_string@DU?$char_traits@D@std@@V?$allocator@D@2@@std@@@2@V?$allocator@V?$basic_string@DU?$char_traits@D@std@@V?$allocator@D@2@@std@@@2@$0A@@std@@@2@PAU342@@Z 004037f0 f i DBManager.obj
 0001:00002800       ?_Myval@?$_Tree@V?$_Tset_traits@V?$basic_string@DU?$char_traits@D@std@@V?$allocator@D@2@@std@@U?$less@V?$basic_string@DU?$char_traits@D@std@@V?$allocator@D@2@@std@@@2@V?$allocator@V?$basic_string@DU?$char_traits@D@std@@V?$allocator@D@2@@std@@@2@$0A@@std@@@std@@KAAAV?$basic_string@DU?$char_traits@D@std@@V?$allocator@D@2@@2@PAU_Node@?$_Tree_nod@V?$_Tset_traits@V?$basic_string@DU?$char_traits@D@std@@V?$allocator@D@2@@std@@U?$less@V?$basic_string@DU?$char_traits@D@std@@V?$allocator@D@2@@std@@@2@V?$allocator@V?$basic_string@DU?$char_traits@D@std@@V?$allocator@D@2@@std@@@2@$0A@@std@@@2@@Z 00403800 f i DBManager.obj
 0001:00002810       ?_Lmost@?$_Tree@V?$_Tset_traits@V?$basic_string@DU?$char_traits@D@std@@V?$allocator@D@2@@std@@U?$less@V?$basic_string@DU?$char_traits@D@std@@V?$allocator@D@2@@std@@@2@V?$allocator@V?$basic_string@DU?$char_traits@D@std@@V?$allocator@D@2@@std@@@2@$0A@@std@@@std@@IAEAAPAU_Node@?$_Tree_nod@V?$_Tset_traits@V?$basic_string@DU?$char_traits@D@std@@V?$allocator@D@2@@std@@U?$less@V?$basic_string@DU?$char_traits@D@std@@V?$allocator@D@2@@std@@@2@V?$allocator@V?$basic_string@DU?$char_traits@D@std@@V?$allocator@D@2@@std@@@2@$0A@@std@@@2@XZ 00403810 f i DBManager.obj
 0001:00002820       ?_Rmost@?$_Tree@V?$_Tset_traits@V?$basic_string@DU?$char_traits@D@std@@V?$allocator@D@2@@std@@U?$less@V?$basic_string@DU?$char_traits@D@std@@V?$allocator@D@2@@std@@@2@V?$allocator@V?$basic_string@DU?$char_traits@D@std@@V?$allocator@D@2@@std@@@2@$0A@@std@@@std@@IAEAAPAU_Node@?$_Tree_nod@V?$_Tset_traits@V?$basic_string@DU?$char_traits@D@std@@V?$allocator@D@2@@std@@U?$less@V?$basic_string@DU?$char_traits@D@std@@V?$allocator@D@2@@std@@@2@V?$allocator@V?$basic_string@DU?$char_traits@D@std@@V?$allocator@D@2@@std@@@2@$0A@@std@@@2@XZ 00403820 f i DBManager.obj
 0001:00002830       ?deallocate@?$allocator@U_Node@?$_Tree_nod@V?$_Tset_traits@V?$basic_string@DU?$char_traits@D@std@@V?$allocator@D@2@@std@@U?$less@V?$basic_string@DU?$char_traits@D@std@@V?$allocator@D@2@@std@@@2@V?$allocator@V?$basic_string@DU?$char_traits@D@std@@V?$allocator@D@2@@std@@@2@$0A@@std@@@std@@@std@@QAEXPAU_Node@?$_Tree_nod@V?$_Tset_traits@V?$basic_string@DU?$char_traits@D@std@@V?$allocator@D@2@@std@@U?$less@V?$basic_string@DU?$char_traits@D@std@@V?$allocator@D@2@@std@@@2@V?$allocator@V?$basic_string@DU?$char_traits@D@std@@V?$allocator@D@2@@std@@@2@$0A@@std@@@2@I@Z 00403830 f i DBManager.obj
 0001:00002840       ??0const_iterator@?$_Tree@V?$_Tset_traits@V?$basic_string@DU?$char_traits@D@std@@V?$allocator@D@2@@std@@U?$less@V?$basic_string@DU?$char_traits@D@std@@V?$allocator@D@2@@std@@@2@V?$allocator@V?$basic_string@DU?$char_traits@D@std@@V?$allocator@D@2@@std@@@2@$0A@@std@@@std@@QAE@PAU_Node@?$_Tree_nod@V?$_Tset_traits@V?$basic_string@DU?$char_traits@D@std@@V?$allocator@D@2@@std@@U?$less@V?$basic_string@DU?$char_traits@D@std@@V?$allocator@D@2@@std@@@2@V?$allocator@V?$basic_string@DU?$char_traits@D@std@@V?$allocator@D@2@@std@@@2@$0A@@std@@@2@@Z 00403840 f i DBManager.obj
 0001:00002850       ?max_size@?$allocator@V?$basic_string@DU?$char_traits@D@std@@V?$allocator@D@2@@std@@@std@@QBEIXZ 00403850 f i DBManager.obj
 0001:00002860       ?_Root@?$_Tree@V?$_Tset_traits@V?$basic_string@DU?$char_traits@D@std@@V?$allocator@D@2@@std@@U?$less@V?$basic_string@DU?$char_traits@D@std@@V?$allocator@D@2@@std@@@2@V?$allocator@V?$basic_string@DU?$char_traits@D@std@@V?$allocator@D@2@@std@@@2@$0A@@std@@@std@@IBEAAPAU_Node@?$_Tree_nod@V?$_Tset_traits@V?$basic_string@DU?$char_traits@D@std@@V?$allocator@D@2@@std@@U?$less@V?$basic_string@DU?$char_traits@D@std@@V?$allocator@D@2@@std@@@2@V?$allocator@V?$basic_string@DU?$char_traits@D@std@@V?$allocator@D@2@@std@@@2@$0A@@std@@@2@XZ 00403860 f i DBManager.obj
 0001:00002870       ?_Max@?$_Tree@V?$_Tset_traits@V?$basic_string@DU?$char_traits@D@std@@V?$allocator@D@2@@std@@U?$less@V?$basic_string@DU?$char_traits@D@std@@V?$allocator@D@2@@std@@@2@V?$allocator@V?$basic_string@DU?$char_traits@D@std@@V?$allocator@D@2@@std@@@2@$0A@@std@@@std@@KAPAU_Node@?$_Tree_nod@V?$_Tset_traits@V?$basic_string@DU?$char_traits@D@std@@V?$allocator@D@2@@std@@U?$less@V?$basic_string@DU?$char_traits@D@std@@V?$allocator@D@2@@std@@@2@V?$allocator@V?$basic_string@DU?$char_traits@D@std@@V?$allocator@D@2@@std@@@2@$0A@@std@@@2@PAU342@@Z 00403870 f i DBManager.obj
 0001:00002890       ?_Min@?$_Tree@V?$_Tset_traits@V?$basic_string@DU?$char_traits@D@std@@V?$allocator@D@2@@std@@U?$less@V?$basic_string@DU?$char_traits@D@std@@V?$allocator@D@2@@std@@@2@V?$allocator@V?$basic_string@DU?$char_traits@D@std@@V?$allocator@D@2@@std@@@2@$0A@@std@@@std@@KAPAU_Node@?$_Tree_nod@V?$_Tset_traits@V?$basic_string@DU?$char_traits@D@std@@V?$allocator@D@2@@std@@U?$less@V?$basic_string@DU?$char_traits@D@std@@V?$allocator@D@2@@std@@@2@V?$allocator@V?$basic_string@DU?$char_traits@D@std@@V?$allocator@D@2@@std@@@2@$0A@@std@@@2@PAU342@@Z 00403890 f i DBManager.obj
 0001:000028b0       ??0?$_Tset_traits@V?$basic_string@DU?$char_traits@D@std@@V?$allocator@D@2@@std@@U?$less@V?$basic_string@DU?$char_traits@D@std@@V?$allocator@D@2@@std@@@2@V?$allocator@V?$basic_string@DU?$char_traits@D@std@@V?$allocator@D@2@@std@@@2@$0A@@std@@QAE@U?$less@V?$basic_string@DU?$char_traits@D@std@@V?$allocator@D@2@@std@@@1@@Z 004038b0 f i DBManager.obj
 0001:000028c0       ?_Inc@const_iterator@?$_Tree@V?$_Tset_traits@V?$basic_string@DU?$char_traits@D@std@@V?$allocator@D@2@@std@@U?$less@V?$basic_string@DU?$char_traits@D@std@@V?$allocator@D@2@@std@@@2@V?$allocator@V?$basic_string@DU?$char_traits@D@std@@V?$allocator@D@2@@std@@@2@$0A@@std@@@std@@QAEXXZ 004038c0 f i DBManager.obj
 0001:00002920       ??$_Destroy@PAU_Node@?$_Tree_nod@V?$_Tset_traits@V?$basic_string@DU?$char_traits@D@std@@V?$allocator@D@2@@std@@U?$less@V?$basic_string@DU?$char_traits@D@std@@V?$allocator@D@2@@std@@@2@V?$allocator@V?$basic_string@DU?$char_traits@D@std@@V?$allocator@D@2@@std@@@2@$0A@@std@@@std@@@std@@YAXPAPAU_Node@?$_Tree_nod@V?$_Tset_traits@V?$basic_string@DU?$char_traits@D@std@@V?$allocator@D@2@@std@@U?$less@V?$basic_string@DU?$char_traits@D@std@@V?$allocator@D@2@@std@@@2@V?$allocator@V?$basic_string@DU?$char_traits@D@std@@V?$allocator@D@2@@std@@@2@$0A@@std@@@0@@Z 00403920 f i DBManager.obj
 0001:00002930       ??$swap@D@std@@YAXAAD0@Z   00403930 f i DBManager.obj
 0001:00002950       ??$?0V?$basic_string@DU?$char_traits@D@std@@V?$allocator@D@2@@std@@@?$allocator@PAU_Node@?$_Tree_nod@V?$_Tset_traits@V?$basic_string@DU?$char_traits@D@std@@V?$allocator@D@2@@std@@U?$less@V?$basic_string@DU?$char_traits@D@std@@V?$allocator@D@2@@std@@@2@V?$allocator@V?$basic_string@DU?$char_traits@D@std@@V?$allocator@D@2@@std@@@2@$0A@@std@@@std@@@std@@QAE@ABV?$allocator@V?$basic_string@DU?$char_traits@D@std@@V?$allocator@D@2@@std@@@1@@Z 00403950 f i DBManager.obj
 0001:00002960       ??$_Allocate@U_Node@?$_Tree_nod@V?$_Tset_traits@V?$basic_string@DU?$char_traits@D@std@@V?$allocator@D@2@@std@@U?$less@V?$basic_string@DU?$char_traits@D@std@@V?$allocator@D@2@@std@@@2@V?$allocator@V?$basic_string@DU?$char_traits@D@std@@V?$allocator@D@2@@std@@@2@$0A@@std@@@std@@@std@@YAPAU_Node@?$_Tree_nod@V?$_Tset_traits@V?$basic_string@DU?$char_traits@D@std@@V?$allocator@D@2@@std@@U?$less@V?$basic_string@DU?$char_traits@D@std@@V?$allocator@D@2@@std@@@2@V?$allocator@V?$basic_string@DU?$char_traits@D@std@@V?$allocator@D@2@@std@@@2@$0A@@std@@@0@IPAU120@@Z 00403960 f i DBManager.obj
 0001:00002980       ??$?0V?$basic_string@DU?$char_traits@D@std@@V?$allocator@D@2@@std@@@?$allocator@U_Node@?$_Tree_nod@V?$_Tset_traits@V?$basic_string@DU?$char_traits@D@std@@V?$allocator@D@2@@std@@U?$less@V?$basic_string@DU?$char_traits@D@std@@V?$allocator@D@2@@std@@@2@V?$allocator@V?$basic_string@DU?$char_traits@D@std@@V?$allocator@D@2@@std@@@2@$0A@@std@@@std@@@std@@QAE@ABV?$allocator@V?$basic_string@DU?$char_traits@D@std@@V?$allocator@D@2@@std@@@1@@Z 00403980 f i DBManager.obj
 0001:00002990       ??$_Construct@PAU_Node@?$_Tree_nod@V?$_Tset_traits@V?$basic_string@DU?$char_traits@D@std@@V?$allocator@D@2@@std@@U?$less@V?$basic_string@DU?$char_traits@D@std@@V?$allocator@D@2@@std@@@2@V?$allocator@V?$basic_string@DU?$char_traits@D@std@@V?$allocator@D@2@@std@@@2@$0A@@std@@@std@@PAU123@@std@@YAXPAPAU_Node@?$_Tree_nod@V?$_Tset_traits@V?$basic_string@DU?$char_traits@D@std@@V?$allocator@D@2@@std@@U?$less@V?$basic_string@DU?$char_traits@D@std@@V?$allocator@D@2@@std@@@2@V?$allocator@V?$basic_string@DU?$char_traits@D@std@@V?$allocator@D@2@@std@@@2@$0A@@std@@@0@ABQAU120@@Z 00403990 f i DBManager.obj
 0001:000029b0       ?empty@?$deque@PAUtagDB_OVERLAPPED_PLUS@@V?$allocator@PAUtagDB_OVERLAPPED_PLUS@@@std@@@std@@QBE_NXZ 004039b0 f i DBManager.obj
 0001:000029c0       ??0?$allocator@PAUtagDB_OVERLAPPED_PLUS@@@std@@QAE@XZ 004039c0 f i DBManager.obj
 0001:000029d0       ?_Nextnode@?$list@PAUtagDB_OVERLAPPED_PLUS@@V?$allocator@PAUtagDB_OVERLAPPED_PLUS@@@std@@@std@@KAAAPAU_Node@?$_List_nod@PAUtagDB_OVERLAPPED_PLUS@@V?$allocator@PAUtagDB_OVERLAPPED_PLUS@@@std@@@2@PAU342@@Z 004039d0 f i DBManager.obj
 0001:000029e0       ?_Prevnode@?$list@PAUtagDB_OVERLAPPED_PLUS@@V?$allocator@PAUtagDB_OVERLAPPED_PLUS@@@std@@@std@@KAAAPAU_Node@?$_List_nod@PAUtagDB_OVERLAPPED_PLUS@@V?$allocator@PAUtagDB_OVERLAPPED_PLUS@@@std@@@2@PAU342@@Z 004039e0 f i DBManager.obj
 0001:000029f0       ?deallocate@?$allocator@U_Node@?$_List_nod@PAUtagDB_OVERLAPPED_PLUS@@V?$allocator@PAUtagDB_OVERLAPPED_PLUS@@@std@@@std@@@std@@QAEXPAU_Node@?$_List_nod@PAUtagDB_OVERLAPPED_PLUS@@V?$allocator@PAUtagDB_OVERLAPPED_PLUS@@@std@@@2@I@Z 004039f0 f i DBManager.obj
 0001:00002a00       ??0?$allocator@PAUtagDB_OVERLAPPED_PLUS@@@std@@QAE@ABV01@@Z 00403a00 f i DBManager.obj
 0001:00002a10       ?deallocate@?$allocator@PAUtagDB_OVERLAPPED_PLUS@@@std@@QAEXPAPAUtagDB_OVERLAPPED_PLUS@@I@Z 00403a10 f i DBManager.obj
 0001:00002a20       ?deallocate@?$allocator@PAPAUtagDB_OVERLAPPED_PLUS@@@std@@QAEXPAPAPAUtagDB_OVERLAPPED_PLUS@@I@Z 00403a20 f i DBManager.obj
 0001:00002a30       ??0const_iterator@?$list@PAUtagDB_OVERLAPPED_PLUS@@V?$allocator@PAUtagDB_OVERLAPPED_PLUS@@@std@@@std@@QAE@PAU_Node@?$_List_nod@PAUtagDB_OVERLAPPED_PLUS@@V?$allocator@PAUtagDB_OVERLAPPED_PLUS@@@std@@@2@@Z 00403a30 f i DBManager.obj
 0001:00002a40       ?max_size@?$allocator@PAUtagDB_OVERLAPPED_PLUS@@@std@@QBEIXZ 00403a40 f i DBManager.obj
 0001:00002a50       ??$_Destroy@U_Node@?$_List_nod@PAUtagDB_OVERLAPPED_PLUS@@V?$allocator@PAUtagDB_OVERLAPPED_PLUS@@@std@@@std@@@std@@YAXPAU_Node@?$_List_nod@PAUtagDB_OVERLAPPED_PLUS@@V?$allocator@PAUtagDB_OVERLAPPED_PLUS@@@std@@@0@@Z 00403a50 f i DBManager.obj
 0001:00002a60       ??$_Allocate@PAUtagDB_OVERLAPPED_PLUS@@@std@@YAPAPAUtagDB_OVERLAPPED_PLUS@@IPAPAU1@@Z 00403a60 f i DBManager.obj
 0001:00002a80       ??$_Construct@PAUtagDB_OVERLAPPED_PLUS@@PAU1@@std@@YAXPAPAUtagDB_OVERLAPPED_PLUS@@ABQAU1@@Z 00403a80 f i DBManager.obj
 0001:00002aa0       ??$_Destroy@PAUtagDB_OVERLAPPED_PLUS@@@std@@YAXPAPAUtagDB_OVERLAPPED_PLUS@@@Z 00403aa0 f i DBManager.obj
 0001:00002ab0       ??$_Destroy@PAPAUtagDB_OVERLAPPED_PLUS@@@std@@YAXPAPAPAUtagDB_OVERLAPPED_PLUS@@@Z 00403ab0 f i DBManager.obj
 0001:00002ac0       ??$?0PAUtagDB_OVERLAPPED_PLUS@@@?$allocator@PAU_Node@?$_List_nod@PAUtagDB_OVERLAPPED_PLUS@@V?$allocator@PAUtagDB_OVERLAPPED_PLUS@@@std@@@std@@@std@@QAE@ABV?$allocator@PAUtagDB_OVERLAPPED_PLUS@@@1@@Z 00403ac0 f i DBManager.obj
 0001:00002ad0       ??$_Allocate@U_Node@?$_List_nod@PAUtagDB_OVERLAPPED_PLUS@@V?$allocator@PAUtagDB_OVERLAPPED_PLUS@@@std@@@std@@@std@@YAPAU_Node@?$_List_nod@PAUtagDB_OVERLAPPED_PLUS@@V?$allocator@PAUtagDB_OVERLAPPED_PLUS@@@std@@@0@IPAU120@@Z 00403ad0 f i DBManager.obj
 0001:00002af0       ??$_Construct@PAU_Node@?$_List_nod@PAUtagDB_OVERLAPPED_PLUS@@V?$allocator@PAUtagDB_OVERLAPPED_PLUS@@@std@@@std@@PAU123@@std@@YAXPAPAU_Node@?$_List_nod@PAUtagDB_OVERLAPPED_PLUS@@V?$allocator@PAUtagDB_OVERLAPPED_PLUS@@@std@@@0@ABQAU120@@Z 00403af0 f i DBManager.obj
 0001:00002b10       ??$_Destroy@PAU_Node@?$_List_nod@PAUtagDB_OVERLAPPED_PLUS@@V?$allocator@PAUtagDB_OVERLAPPED_PLUS@@@std@@@std@@@std@@YAXPAPAU_Node@?$_List_nod@PAUtagDB_OVERLAPPED_PLUS@@V?$allocator@PAUtagDB_OVERLAPPED_PLUS@@@std@@@0@@Z 00403b10 f i DBManager.obj
 0001:00002b20       ??$?0PAUtagDB_OVERLAPPED_PLUS@@@?$allocator@PAPAUtagDB_OVERLAPPED_PLUS@@@std@@QAE@ABV?$allocator@PAUtagDB_OVERLAPPED_PLUS@@@1@@Z 00403b20 f i DBManager.obj
 0001:00002b30       ??$_Allocate@PAPAUtagDB_OVERLAPPED_PLUS@@@std@@YAPAPAPAUtagDB_OVERLAPPED_PLUS@@IPAPAPAU1@@Z 00403b30 f i DBManager.obj
 0001:00002b50       ??$?0PAUtagDB_OVERLAPPED_PLUS@@@?$allocator@U_Node@?$_List_nod@PAUtagDB_OVERLAPPED_PLUS@@V?$allocator@PAUtagDB_OVERLAPPED_PLUS@@@std@@@std@@@std@@QAE@ABV?$allocator@PAUtagDB_OVERLAPPED_PLUS@@@1@@Z 00403b50 f i DBManager.obj
 0001:00002b60       ?_Mynode@const_iterator@?$list@PAUtagDB_OVERLAPPED_PLUS@@V?$allocator@PAUtagDB_OVERLAPPED_PLUS@@@std@@@std@@QBEPAU_Node@?$_List_nod@PAUtagDB_OVERLAPPED_PLUS@@V?$allocator@PAUtagDB_OVERLAPPED_PLUS@@@std@@@3@XZ 00403b60 f i DBManager.obj
 0001:00002b70       ?max_size@?$list@PAUtagDB_OVERLAPPED_PLUS@@V?$allocator@PAUtagDB_OVERLAPPED_PLUS@@@std@@@std@@QBEIXZ 00403b70 f i DBManager.obj
 0001:00002b80       ??0_Node@?$_List_nod@PAUtagDB_OVERLAPPED_PLUS@@V?$allocator@PAUtagDB_OVERLAPPED_PLUS@@@std@@@std@@QAE@PAU012@0ABQAUtagDB_OVERLAPPED_PLUS@@@Z 00403b80 f i DBManager.obj
 0001:00002ba0       ??$_Ptr_cat@PAUtagDB_OVERLAPPED_PLUS@@@std@@YA?AU_Scalar_ptr_iterator_tag@0@PAPAPAUtagDB_OVERLAPPED_PLUS@@0@Z 00403ba0 f i DBManager.obj
 0001:00002bb0       ??$_Uninit_copy@PAPAUtagDB_OVERLAPPED_PLUS@@PAPAU1@@std@@YAPAPAPAUtagDB_OVERLAPPED_PLUS@@PAPAPAU1@00AAV?$allocator@PAPAUtagDB_OVERLAPPED_PLUS@@@0@U_Scalar_ptr_iterator_tag@0@@Z 00403bb0 f i DBManager.obj
 0001:00002be0       ??$_Destroy_range@PAPAUtagDB_OVERLAPPED_PLUS@@V?$allocator@PAPAUtagDB_OVERLAPPED_PLUS@@@std@@@std@@YAXPAPAPAUtagDB_OVERLAPPED_PLUS@@0AAV?$allocator@PAPAUtagDB_OVERLAPPED_PLUS@@@0@U_Scalar_ptr_iterator_tag@0@@Z 00403be0 f i DBManager.obj
 0001:00002bf0       ??$fill_n@PAPAPAUtagDB_OVERLAPPED_PLUS@@IPAPAU1@@std@@YAXPAPAPAUtagDB_OVERLAPPED_PLUS@@IABQAPAU1@@Z 00403bf0 f i DBManager.obj
 0001:00002c10       ?compare@?$char_traits@D@std@@SAHPBD0I@Z 00403c10 f i DBManager.obj
 0001:00002c30       ??0CMclCritSec@@QAE@XZ     00403c30 f i DBManager.obj
 0001:00002c50       ??1CMclCritSec@@UAE@XZ     00403c50 f i DBManager.obj
 0001:00002c70       ?Enter@CMclCritSec@@QAEXXZ 00403c70 f i DBManager.obj
 0001:00002c80       ?Leave@CMclCritSec@@QAEXXZ 00403c80 f i DBManager.obj
 0001:00002c90       ??_ECMclCritSec@@UAEPAXI@Z 00403c90 f i DBManager.obj
 0001:00002c90       ??_GCMclCritSec@@UAEPAXI@Z 00403c90 f i DBManager.obj
 0001:00002cc0       ??0CMclAutoLock@@QAE@AAVCMclCritSec@@@Z 00403cc0 f i DBManager.obj
 0001:00002ce0       ??1CMclAutoLock@@QAE@XZ    00403ce0 f i DBManager.obj
 0001:00002cf0       ?StringFindString@?$ChTraitsCRT@D@ATL@@SAPBDPBD0@Z 00403cf0 f i DBManager.obj
 0001:00002d00       ?GetStrTime@CDbManager@@QAEXPAVCTime@ATL@@PAD@Z 00403d00 f   DBManager.obj
 0001:00002e10       ?PostQ@CDbManager@@QAEXPAUtagDB_OVERLAPPED_PLUS@@@Z 00403e10 f   DBManager.obj
 0001:00002e40       ??9const_iterator@?$_Tree@V?$_Tset_traits@V?$basic_string@DU?$char_traits@D@std@@V?$allocator@D@2@@std@@U?$less@V?$basic_string@DU?$char_traits@D@std@@V?$allocator@D@2@@std@@@2@V?$allocator@V?$basic_string@DU?$char_traits@D@std@@V?$allocator@D@2@@std@@@2@$0A@@std@@@std@@QBE_NABV012@@Z 00403e40 f i DBManager.obj
 0001:00002e60       ?GetManager@?$CSimpleStringT@D$0A@@ATL@@QBEPAUIAtlStringMgr@2@XZ 00403e60 f i DBManager.obj
 0001:00002e70       ?_Key@?$_Tree@V?$_Tset_traits@V?$basic_string@DU?$char_traits@D@std@@V?$allocator@D@2@@std@@U?$less@V?$basic_string@DU?$char_traits@D@std@@V?$allocator@D@2@@std@@@2@V?$allocator@V?$basic_string@DU?$char_traits@D@std@@V?$allocator@D@2@@std@@@2@$0A@@std@@@std@@KAABV?$basic_string@DU?$char_traits@D@std@@V?$allocator@D@2@@2@PAU_Node@?$_Tree_nod@V?$_Tset_traits@V?$basic_string@DU?$char_traits@D@std@@V?$allocator@D@2@@std@@U?$less@V?$basic_string@DU?$char_traits@D@std@@V?$allocator@D@2@@std@@@2@V?$allocator@V?$basic_string@DU?$char_traits@D@std@@V?$allocator@D@2@@std@@@2@$0A@@std@@@2@@Z 00403e70 f i DBManager.obj
 0001:00002e80       ?_Root@?$_Tree@V?$_Tset_traits@V?$basic_string@DU?$char_traits@D@std@@V?$allocator@D@2@@std@@U?$less@V?$basic_string@DU?$char_traits@D@std@@V?$allocator@D@2@@std@@@2@V?$allocator@V?$basic_string@DU?$char_traits@D@std@@V?$allocator@D@2@@std@@@2@$0A@@std@@@std@@IAEAAPAU_Node@?$_Tree_nod@V?$_Tset_traits@V?$basic_string@DU?$char_traits@D@std@@V?$allocator@D@2@@std@@U?$less@V?$basic_string@DU?$char_traits@D@std@@V?$allocator@D@2@@std@@@2@V?$allocator@V?$basic_string@DU?$char_traits@D@std@@V?$allocator@D@2@@std@@@2@$0A@@std@@@2@XZ 00403e80 f i DBManager.obj
 0001:00002e90       ??0iterator@?$_Tree@V?$_Tset_traits@V?$basic_string@DU?$char_traits@D@std@@V?$allocator@D@2@@std@@U?$less@V?$basic_string@DU?$char_traits@D@std@@V?$allocator@D@2@@std@@@2@V?$allocator@V?$basic_string@DU?$char_traits@D@std@@V?$allocator@D@2@@std@@@2@$0A@@std@@@std@@QAE@PAU_Node@?$_Tree_nod@V?$_Tset_traits@V?$basic_string@DU?$char_traits@D@std@@V?$allocator@D@2@@std@@U?$less@V?$basic_string@DU?$char_traits@D@std@@V?$allocator@D@2@@std@@@2@V?$allocator@V?$basic_string@DU?$char_traits@D@std@@V?$allocator@D@2@@std@@@2@$0A@@std@@@2@@Z 00403e90 f i DBManager.obj
 0001:00002ea0       ??0?$CSimpleStringT@D$0A@@ATL@@QAE@PBDHPAUIAtlStringMgr@1@@Z 00403ea0 f i DBManager.obj
 0001:00002f10       ?max_size@?$_Tree@V?$_Tset_traits@V?$basic_string@DU?$char_traits@D@std@@V?$allocator@D@2@@std@@U?$less@V?$basic_string@DU?$char_traits@D@std@@V?$allocator@D@2@@std@@@2@V?$allocator@V?$basic_string@DU?$char_traits@D@std@@V?$allocator@D@2@@std@@@2@$0A@@std@@@std@@QBEIXZ 00403f10 f i DBManager.obj
 0001:00002f20       ?_Lrotate@?$_Tree@V?$_Tset_traits@V?$basic_string@DU?$char_traits@D@std@@V?$allocator@D@2@@std@@U?$less@V?$basic_string@DU?$char_traits@D@std@@V?$allocator@D@2@@std@@@2@V?$allocator@V?$basic_string@DU?$char_traits@D@std@@V?$allocator@D@2@@std@@@2@$0A@@std@@@std@@IAEXPAU_Node@?$_Tree_nod@V?$_Tset_traits@V?$basic_string@DU?$char_traits@D@std@@V?$allocator@D@2@@std@@U?$less@V?$basic_string@DU?$char_traits@D@std@@V?$allocator@D@2@@std@@@2@V?$allocator@V?$basic_string@DU?$char_traits@D@std@@V?$allocator@D@2@@std@@@2@$0A@@std@@@2@@Z 00403f20 f i DBManager.obj
 0001:00002f80       ?_Rrotate@?$_Tree@V?$_Tset_traits@V?$basic_string@DU?$char_traits@D@std@@V?$allocator@D@2@@std@@U?$less@V?$basic_string@DU?$char_traits@D@std@@V?$allocator@D@2@@std@@@2@V?$allocator@V?$basic_string@DU?$char_traits@D@std@@V?$allocator@D@2@@std@@@2@$0A@@std@@@std@@IAEXPAU_Node@?$_Tree_nod@V?$_Tset_traits@V?$basic_string@DU?$char_traits@D@std@@V?$allocator@D@2@@std@@U?$less@V?$basic_string@DU?$char_traits@D@std@@V?$allocator@D@2@@std@@@2@V?$allocator@V?$basic_string@DU?$char_traits@D@std@@V?$allocator@D@2@@std@@@2@$0A@@std@@@2@@Z 00403f80 f i DBManager.obj
 0001:00002fe0       ?destroy@?$allocator@PAU_Node@?$_Tree_nod@V?$_Tset_traits@V?$basic_string@DU?$char_traits@D@std@@V?$allocator@D@2@@std@@U?$less@V?$basic_string@DU?$char_traits@D@std@@V?$allocator@D@2@@std@@@2@V?$allocator@V?$basic_string@DU?$char_traits@D@std@@V?$allocator@D@2@@std@@@2@$0A@@std@@@std@@@std@@QAEXPAPAU_Node@?$_Tree_nod@V?$_Tset_traits@V?$basic_string@DU?$char_traits@D@std@@V?$allocator@D@2@@std@@U?$less@V?$basic_string@DU?$char_traits@D@std@@V?$allocator@D@2@@std@@@2@V?$allocator@V?$basic_string@DU?$char_traits@D@std@@V?$allocator@D@2@@std@@@2@$0A@@std@@@2@@Z 00403fe0 f i DBManager.obj
 0001:00002ff0       ?allocate@?$allocator@U_Node@?$_Tree_nod@V?$_Tset_traits@V?$basic_string@DU?$char_traits@D@std@@V?$allocator@D@2@@std@@U?$less@V?$basic_string@DU?$char_traits@D@std@@V?$allocator@D@2@@std@@@2@V?$allocator@V?$basic_string@DU?$char_traits@D@std@@V?$allocator@D@2@@std@@@2@$0A@@std@@@std@@@std@@QAEPAU_Node@?$_Tree_nod@V?$_Tset_traits@V?$basic_string@DU?$char_traits@D@std@@V?$allocator@D@2@@std@@U?$less@V?$basic_string@DU?$char_traits@D@std@@V?$allocator@D@2@@std@@@2@V?$allocator@V?$basic_string@DU?$char_traits@D@std@@V?$allocator@D@2@@std@@@2@$0A@@std@@@2@I@Z 00403ff0 f i DBManager.obj
 0001:00003010       ?_Dec@const_iterator@?$_Tree@V?$_Tset_traits@V?$basic_string@DU?$char_traits@D@std@@V?$allocator@D@2@@std@@U?$less@V?$basic_string@DU?$char_traits@D@std@@V?$allocator@D@2@@std@@@2@V?$allocator@V?$basic_string@DU?$char_traits@D@std@@V?$allocator@D@2@@std@@@2@$0A@@std@@@std@@QAEXXZ 00404010 f i DBManager.obj
 0001:00003070       ??0?$_Tree_nod@V?$_Tset_traits@V?$basic_string@DU?$char_traits@D@std@@V?$allocator@D@2@@std@@U?$less@V?$basic_string@DU?$char_traits@D@std@@V?$allocator@D@2@@std@@@2@V?$allocator@V?$basic_string@DU?$char_traits@D@std@@V?$allocator@D@2@@std@@@2@$0A@@std@@@std@@IAE@ABU?$less@V?$basic_string@DU?$char_traits@D@std@@V?$allocator@D@2@@std@@@1@V?$allocator@V?$basic_string@DU?$char_traits@D@std@@V?$allocator@D@2@@std@@@1@@Z 00404070 f i DBManager.obj
 0001:00003080       ?construct@?$allocator@PAU_Node@?$_Tree_nod@V?$_Tset_traits@V?$basic_string@DU?$char_traits@D@std@@V?$allocator@D@2@@std@@U?$less@V?$basic_string@DU?$char_traits@D@std@@V?$allocator@D@2@@std@@@2@V?$allocator@V?$basic_string@DU?$char_traits@D@std@@V?$allocator@D@2@@std@@@2@$0A@@std@@@std@@@std@@QAEXPAPAU_Node@?$_Tree_nod@V?$_Tset_traits@V?$basic_string@DU?$char_traits@D@std@@V?$allocator@D@2@@std@@U?$less@V?$basic_string@DU?$char_traits@D@std@@V?$allocator@D@2@@std@@@2@V?$allocator@V?$basic_string@DU?$char_traits@D@std@@V?$allocator@D@2@@std@@@2@$0A@@std@@@2@ABQAU342@@Z 00404080 f i DBManager.obj
 0001:000030a0       ??Econst_iterator@?$_Tree@V?$_Tset_traits@V?$basic_string@DU?$char_traits@D@std@@V?$allocator@D@2@@std@@U?$less@V?$basic_string@DU?$char_traits@D@std@@V?$allocator@D@2@@std@@@2@V?$allocator@V?$basic_string@DU?$char_traits@D@std@@V?$allocator@D@2@@std@@@2@$0A@@std@@@std@@QAEAAV012@XZ 004040a0 f i DBManager.obj
 0001:000030b0       ?compare@?$basic_string@DU?$char_traits@D@std@@V?$allocator@D@2@@std@@QBEHIIPBDI@Z 004040b0 f i DBManager.obj
 0001:00003130       ?destroy@?$allocator@U_Node@?$_List_nod@PAUtagDB_OVERLAPPED_PLUS@@V?$allocator@PAUtagDB_OVERLAPPED_PLUS@@@std@@@std@@@std@@QAEXPAU_Node@?$_List_nod@PAUtagDB_OVERLAPPED_PLUS@@V?$allocator@PAUtagDB_OVERLAPPED_PLUS@@@std@@@2@@Z 00404130 f i DBManager.obj
 0001:00003140       ??0iterator@?$list@PAUtagDB_OVERLAPPED_PLUS@@V?$allocator@PAUtagDB_OVERLAPPED_PLUS@@@std@@@std@@QAE@PAU_Node@?$_List_nod@PAUtagDB_OVERLAPPED_PLUS@@V?$allocator@PAUtagDB_OVERLAPPED_PLUS@@@std@@@2@@Z 00404140 f i DBManager.obj
 0001:00003150       ?allocate@?$allocator@PAUtagDB_OVERLAPPED_PLUS@@@std@@QAEPAPAUtagDB_OVERLAPPED_PLUS@@I@Z 00404150 f i DBManager.obj
 0001:00003170       ?construct@?$allocator@PAUtagDB_OVERLAPPED_PLUS@@@std@@QAEXPAPAUtagDB_OVERLAPPED_PLUS@@ABQAU3@@Z 00404170 f i DBManager.obj
 0001:00003190       ?destroy@?$allocator@PAUtagDB_OVERLAPPED_PLUS@@@std@@QAEXPAPAUtagDB_OVERLAPPED_PLUS@@@Z 00404190 f i DBManager.obj
 0001:000031a0       ?destroy@?$allocator@PAPAUtagDB_OVERLAPPED_PLUS@@@std@@QAEXPAPAPAUtagDB_OVERLAPPED_PLUS@@@Z 004041a0 f i DBManager.obj
 0001:000031b0       ?allocate@?$allocator@U_Node@?$_List_nod@PAUtagDB_OVERLAPPED_PLUS@@V?$allocator@PAUtagDB_OVERLAPPED_PLUS@@@std@@@std@@@std@@QAEPAU_Node@?$_List_nod@PAUtagDB_OVERLAPPED_PLUS@@V?$allocator@PAUtagDB_OVERLAPPED_PLUS@@@std@@@2@I@Z 004041b0 f i DBManager.obj
 0001:000031d0       ?construct@?$allocator@PAU_Node@?$_List_nod@PAUtagDB_OVERLAPPED_PLUS@@V?$allocator@PAUtagDB_OVERLAPPED_PLUS@@@std@@@std@@@std@@QAEXPAPAU_Node@?$_List_nod@PAUtagDB_OVERLAPPED_PLUS@@V?$allocator@PAUtagDB_OVERLAPPED_PLUS@@@std@@@2@ABQAU342@@Z 004041d0 f i DBManager.obj
 0001:000031f0       ?destroy@?$allocator@PAU_Node@?$_List_nod@PAUtagDB_OVERLAPPED_PLUS@@V?$allocator@PAUtagDB_OVERLAPPED_PLUS@@@std@@@std@@@std@@QAEXPAPAU_Node@?$_List_nod@PAUtagDB_OVERLAPPED_PLUS@@V?$allocator@PAUtagDB_OVERLAPPED_PLUS@@@std@@@2@@Z 004041f0 f i DBManager.obj
 0001:00003200       ?max_size@?$deque@PAUtagDB_OVERLAPPED_PLUS@@V?$allocator@PAUtagDB_OVERLAPPED_PLUS@@@std@@@std@@QBEIXZ 00404200 f i DBManager.obj
 0001:00003210       ??0?$_Deque_map@PAUtagDB_OVERLAPPED_PLUS@@V?$allocator@PAUtagDB_OVERLAPPED_PLUS@@@std@@@std@@IAE@V?$allocator@PAUtagDB_OVERLAPPED_PLUS@@@1@@Z 00404210 f i DBManager.obj
 0001:00003220       ?allocate@?$allocator@PAPAUtagDB_OVERLAPPED_PLUS@@@std@@QAEPAPAPAUtagDB_OVERLAPPED_PLUS@@I@Z 00404220 f i DBManager.obj
 0001:00003240       ??0?$_List_nod@PAUtagDB_OVERLAPPED_PLUS@@V?$allocator@PAUtagDB_OVERLAPPED_PLUS@@@std@@@std@@IAE@V?$allocator@PAUtagDB_OVERLAPPED_PLUS@@@1@@Z 00404240 f i DBManager.obj
 0001:00003250       ??$_Uninitialized_copy@PAPAPAUtagDB_OVERLAPPED_PLUS@@PAPAPAU1@V?$allocator@PAPAUtagDB_OVERLAPPED_PLUS@@@std@@@std@@YAPAPAPAUtagDB_OVERLAPPED_PLUS@@PAPAPAU1@00AAV?$allocator@PAPAUtagDB_OVERLAPPED_PLUS@@@0@@Z 00404250 f i DBManager.obj
 0001:00003280       ??$_Destroy_range@PAPAUtagDB_OVERLAPPED_PLUS@@V?$allocator@PAPAUtagDB_OVERLAPPED_PLUS@@@std@@@std@@YAXPAPAPAUtagDB_OVERLAPPED_PLUS@@0AAV?$allocator@PAPAUtagDB_OVERLAPPED_PLUS@@@0@@Z 00404280 f i DBManager.obj
 0001:00003290       ?_Buynode@?$list@PAUtagDB_OVERLAPPED_PLUS@@V?$allocator@PAUtagDB_OVERLAPPED_PLUS@@@std@@@std@@IAEPAU_Node@?$_List_nod@PAUtagDB_OVERLAPPED_PLUS@@V?$allocator@PAUtagDB_OVERLAPPED_PLUS@@@std@@@2@PAU342@0ABQAUtagDB_OVERLAPPED_PLUS@@@Z 00404290 f i DBManager.obj
 0001:000032c0       ??$_Uninit_fill_n@PAPAUtagDB_OVERLAPPED_PLUS@@IPAPAU1@@std@@YAXPAPAPAUtagDB_OVERLAPPED_PLUS@@IABQAPAU1@AAV?$allocator@PAPAUtagDB_OVERLAPPED_PLUS@@@0@U_Scalar_ptr_iterator_tag@0@@Z 004042c0 f i DBManager.obj
 0001:000032e0       ?ReleaseBuffer@?$CSimpleStringT@D$0A@@ATL@@QAEXH@Z 004042e0 f i DBManager.obj
 0001:00003320       ?CloneData@?$CSimpleStringT@D$0A@@ATL@@CAPAUCStringData@2@PAU32@@Z 00404320 f i DBManager.obj
 0001:00003380       ?end@?$_Tree@V?$_Tset_traits@V?$basic_string@DU?$char_traits@D@std@@V?$allocator@D@2@@std@@U?$less@V?$basic_string@DU?$char_traits@D@std@@V?$allocator@D@2@@std@@@2@V?$allocator@V?$basic_string@DU?$char_traits@D@std@@V?$allocator@D@2@@std@@@2@$0A@@std@@@std@@QAE?AViterator@12@XZ 00404380 f i DBManager.obj
 0001:00003390       ??0?$CStringT@DV?$StrTraitMFC@DV?$ChTraitsCRT@D@ATL@@@@@ATL@@QAE@PBDHPAUIAtlStringMgr@1@@Z 00404390 f i DBManager.obj
 0001:000033b0       ?begin@?$_Tree@V?$_Tset_traits@V?$basic_string@DU?$char_traits@D@std@@V?$allocator@D@2@@std@@U?$less@V?$basic_string@DU?$char_traits@D@std@@V?$allocator@D@2@@std@@@2@V?$allocator@V?$basic_string@DU?$char_traits@D@std@@V?$allocator@D@2@@std@@@2@$0A@@std@@@std@@QAE?AViterator@12@XZ 004043b0 f i DBManager.obj
 0001:000033c0       ??Fconst_iterator@?$_Tree@V?$_Tset_traits@V?$basic_string@DU?$char_traits@D@std@@V?$allocator@D@2@@std@@U?$less@V?$basic_string@DU?$char_traits@D@std@@V?$allocator@D@2@@std@@@2@V?$allocator@V?$basic_string@DU?$char_traits@D@std@@V?$allocator@D@2@@std@@@2@$0A@@std@@@std@@QAEAAV012@XZ 004043c0 f i DBManager.obj
 0001:000033d0       ?_Buynode@?$_Tree@V?$_Tset_traits@V?$basic_string@DU?$char_traits@D@std@@V?$allocator@D@2@@std@@U?$less@V?$basic_string@DU?$char_traits@D@std@@V?$allocator@D@2@@std@@@2@V?$allocator@V?$basic_string@DU?$char_traits@D@std@@V?$allocator@D@2@@std@@@2@$0A@@std@@@std@@IAEPAU_Node@?$_Tree_nod@V?$_Tset_traits@V?$basic_string@DU?$char_traits@D@std@@V?$allocator@D@2@@std@@U?$less@V?$basic_string@DU?$char_traits@D@std@@V?$allocator@D@2@@std@@@2@V?$allocator@V?$basic_string@DU?$char_traits@D@std@@V?$allocator@D@2@@std@@@2@$0A@@std@@@2@XZ 004043d0 f i DBManager.obj
 0001:00003410       ??0?$_Tree_ptr@V?$_Tset_traits@V?$basic_string@DU?$char_traits@D@std@@V?$allocator@D@2@@std@@U?$less@V?$basic_string@DU?$char_traits@D@std@@V?$allocator@D@2@@std@@@2@V?$allocator@V?$basic_string@DU?$char_traits@D@std@@V?$allocator@D@2@@std@@@2@$0A@@std@@@std@@IAE@ABU?$less@V?$basic_string@DU?$char_traits@D@std@@V?$allocator@D@2@@std@@@1@V?$allocator@V?$basic_string@DU?$char_traits@D@std@@V?$allocator@D@2@@std@@@1@@Z 00404410 f i DBManager.obj
 0001:00003420       ??Eiterator@?$_Tree@V?$_Tset_traits@V?$basic_string@DU?$char_traits@D@std@@V?$allocator@D@2@@std@@U?$less@V?$basic_string@DU?$char_traits@D@std@@V?$allocator@D@2@@std@@@2@V?$allocator@V?$basic_string@DU?$char_traits@D@std@@V?$allocator@D@2@@std@@@2@$0A@@std@@@std@@QAEAAV012@XZ 00404420 f i DBManager.obj
 0001:00003430       ?compare@?$basic_string@DU?$char_traits@D@std@@V?$allocator@D@2@@std@@QBEHABV12@@Z 00404430 f i DBManager.obj
 0001:00003470       ?end@?$list@PAUtagDB_OVERLAPPED_PLUS@@V?$allocator@PAUtagDB_OVERLAPPED_PLUS@@@std@@@std@@QAE?AViterator@12@XZ 00404470 f i DBManager.obj
 0001:00003480       ?clear@?$list@PAUtagDB_OVERLAPPED_PLUS@@V?$allocator@PAUtagDB_OVERLAPPED_PLUS@@@std@@@std@@QAEXXZ 00404480 f i DBManager.obj
 0001:000034c0       ?pop_back@?$deque@PAUtagDB_OVERLAPPED_PLUS@@V?$allocator@PAUtagDB_OVERLAPPED_PLUS@@@std@@@std@@QAEXXZ 004044c0 f i DBManager.obj
 0001:000034e0       ?_Tidy@?$deque@PAUtagDB_OVERLAPPED_PLUS@@V?$allocator@PAUtagDB_OVERLAPPED_PLUS@@@std@@@std@@IAEXXZ 004044e0 f i DBManager.obj
 0001:00003550       ?_Buynode@?$list@PAUtagDB_OVERLAPPED_PLUS@@V?$allocator@PAUtagDB_OVERLAPPED_PLUS@@@std@@@std@@IAEPAU_Node@?$_List_nod@PAUtagDB_OVERLAPPED_PLUS@@V?$allocator@PAUtagDB_OVERLAPPED_PLUS@@@std@@@2@XZ 00404550 f i DBManager.obj
 0001:00003570       ?_Tidy@?$list@PAUtagDB_OVERLAPPED_PLUS@@V?$allocator@PAUtagDB_OVERLAPPED_PLUS@@@std@@@std@@IAEXXZ 00404570 f i DBManager.obj
 0001:00003590       ??0?$_Deque_val@PAUtagDB_OVERLAPPED_PLUS@@V?$allocator@PAUtagDB_OVERLAPPED_PLUS@@@std@@@std@@IAE@V?$allocator@PAUtagDB_OVERLAPPED_PLUS@@@1@@Z 00404590 f i DBManager.obj
 0001:000035a0       ??0?$_List_ptr@PAUtagDB_OVERLAPPED_PLUS@@V?$allocator@PAUtagDB_OVERLAPPED_PLUS@@@std@@@std@@IAE@V?$allocator@PAUtagDB_OVERLAPPED_PLUS@@@1@@Z 004045a0 f i DBManager.obj
 0001:000035b0       ??$_Uninitialized_fill_n@PAPAPAUtagDB_OVERLAPPED_PLUS@@IPAPAU1@V?$allocator@PAPAUtagDB_OVERLAPPED_PLUS@@@std@@@std@@YAXPAPAPAUtagDB_OVERLAPPED_PLUS@@IABQAPAU1@AAV?$allocator@PAPAUtagDB_OVERLAPPED_PLUS@@@0@@Z 004045b0 f i DBManager.obj
 0001:000035d0       ??0?$CStringT@DV?$StrTraitMFC@DV?$ChTraitsCRT@D@ATL@@@@@ATL@@QAE@XZ 004045d0 f i DBManager.obj
 0001:000035f0       ?Find@?$CStringT@DV?$StrTraitMFC@DV?$ChTraitsCRT@D@ATL@@@@@ATL@@QBEHPBDH@Z 004045f0 f i DBManager.obj
 0001:00003630       ??0?$CSimpleStringT@D$0A@@ATL@@QAE@ABV01@@Z 00404630 f i DBManager.obj
 0001:00003650       ??Fiterator@?$_Tree@V?$_Tset_traits@V?$basic_string@DU?$char_traits@D@std@@V?$allocator@D@2@@std@@U?$less@V?$basic_string@DU?$char_traits@D@std@@V?$allocator@D@2@@std@@@2@V?$allocator@V?$basic_string@DU?$char_traits@D@std@@V?$allocator@D@2@@std@@@2@$0A@@std@@@std@@QAEAAV012@XZ 00404650 f i DBManager.obj
 0001:00003660       ?_Init@?$_Tree@V?$_Tset_traits@V?$basic_string@DU?$char_traits@D@std@@V?$allocator@D@2@@std@@U?$less@V?$basic_string@DU?$char_traits@D@std@@V?$allocator@D@2@@std@@@2@V?$allocator@V?$basic_string@DU?$char_traits@D@std@@V?$allocator@D@2@@std@@@2@$0A@@std@@@std@@IAEXXZ 00404660 f i DBManager.obj
 0001:00003690       ??0?$_Tree_val@V?$_Tset_traits@V?$basic_string@DU?$char_traits@D@std@@V?$allocator@D@2@@std@@U?$less@V?$basic_string@DU?$char_traits@D@std@@V?$allocator@D@2@@std@@@2@V?$allocator@V?$basic_string@DU?$char_traits@D@std@@V?$allocator@D@2@@std@@@2@$0A@@std@@@std@@IAE@ABU?$less@V?$basic_string@DU?$char_traits@D@std@@V?$allocator@D@2@@std@@@1@V?$allocator@V?$basic_string@DU?$char_traits@D@std@@V?$allocator@D@2@@std@@@1@@Z 00404690 f i DBManager.obj
 0001:000036a0       ??Eiterator@?$_Tree@V?$_Tset_traits@V?$basic_string@DU?$char_traits@D@std@@V?$allocator@D@2@@std@@U?$less@V?$basic_string@DU?$char_traits@D@std@@V?$allocator@D@2@@std@@@2@V?$allocator@V?$basic_string@DU?$char_traits@D@std@@V?$allocator@D@2@@std@@@2@$0A@@std@@@std@@QAE?AV012@H@Z 004046a0 f i DBManager.obj
 0001:000036c0       ??$?MDU?$char_traits@D@std@@V?$allocator@D@1@@std@@YA_NABV?$basic_string@DU?$char_traits@D@std@@V?$allocator@D@2@@0@0@Z 004046c0 f i DBManager.obj
 0001:000036f0       ??1?$deque@PAUtagDB_OVERLAPPED_PLUS@@V?$allocator@PAUtagDB_OVERLAPPED_PLUS@@@std@@@std@@QAE@XZ 004046f0 f i DBManager.obj
 0001:00003700       ??1?$list@PAUtagDB_OVERLAPPED_PLUS@@V?$allocator@PAUtagDB_OVERLAPPED_PLUS@@@std@@@std@@QAE@XZ 00404700 f i DBManager.obj
 0001:00003720       ??0?$deque@PAUtagDB_OVERLAPPED_PLUS@@V?$allocator@PAUtagDB_OVERLAPPED_PLUS@@@std@@@std@@QAE@XZ 00404720 f i DBManager.obj
 0001:00003740       ??0?$_List_val@PAUtagDB_OVERLAPPED_PLUS@@V?$allocator@PAUtagDB_OVERLAPPED_PLUS@@@std@@@std@@IAE@V?$allocator@PAUtagDB_OVERLAPPED_PLUS@@@1@@Z 00404740 f i DBManager.obj
 0001:00003750       ??0?$CStringT@DV?$StrTraitMFC@DV?$ChTraitsCRT@D@ATL@@@@@ATL@@QAE@ABV01@@Z 00404750 f i DBManager.obj
 0001:00003770       ?Mid@?$CStringT@DV?$StrTraitMFC@DV?$ChTraitsCRT@D@ATL@@@@@ATL@@QBE?AV12@HH@Z 00404770 f i DBManager.obj
 0001:00003800       ?Right@?$CStringT@DV?$StrTraitMFC@DV?$ChTraitsCRT@D@ATL@@@@@ATL@@QBE?AV12@H@Z 00404800 f i DBManager.obj
 0001:00003870       ?Left@?$CStringT@DV?$StrTraitMFC@DV?$ChTraitsCRT@D@ATL@@@@@ATL@@QBE?AV12@H@Z 00404870 f i DBManager.obj
 0001:000038d0       ??R?$less@V?$basic_string@DU?$char_traits@D@std@@V?$allocator@D@2@@std@@@std@@QBE_NABV?$basic_string@DU?$char_traits@D@std@@V?$allocator@D@2@@1@0@Z 004048d0 f i DBManager.obj
 0001:00003910       ??0?$_Tree@V?$_Tset_traits@V?$basic_string@DU?$char_traits@D@std@@V?$allocator@D@2@@std@@U?$less@V?$basic_string@DU?$char_traits@D@std@@V?$allocator@D@2@@std@@@2@V?$allocator@V?$basic_string@DU?$char_traits@D@std@@V?$allocator@D@2@@std@@@2@$0A@@std@@@std@@QAE@ABU?$less@V?$basic_string@DU?$char_traits@D@std@@V?$allocator@D@2@@std@@@1@ABV?$allocator@V?$basic_string@DU?$char_traits@D@std@@V?$allocator@D@2@@std@@@1@@Z 00404910 f i DBManager.obj
 0001:00003940       ?_Lbound@?$_Tree@V?$_Tset_traits@V?$basic_string@DU?$char_traits@D@std@@V?$allocator@D@2@@std@@U?$less@V?$basic_string@DU?$char_traits@D@std@@V?$allocator@D@2@@std@@@2@V?$allocator@V?$basic_string@DU?$char_traits@D@std@@V?$allocator@D@2@@std@@@2@$0A@@std@@@std@@IBEPAU_Node@?$_Tree_nod@V?$_Tset_traits@V?$basic_string@DU?$char_traits@D@std@@V?$allocator@D@2@@std@@U?$less@V?$basic_string@DU?$char_traits@D@std@@V?$allocator@D@2@@std@@@2@V?$allocator@V?$basic_string@DU?$char_traits@D@std@@V?$allocator@D@2@@std@@@2@$0A@@std@@@2@ABV?$basic_string@DU?$char_traits@D@std@@V?$allocator@D@2@@2@@Z 00404940 f i DBManager.obj
 0001:00003a00       ??1?$stack@PAUtagDB_OVERLAPPED_PLUS@@V?$deque@PAUtagDB_OVERLAPPED_PLUS@@V?$allocator@PAUtagDB_OVERLAPPED_PLUS@@@std@@@std@@@std@@QAE@XZ 00404a00 f i DBManager.obj
 0001:00003a10       ??1_Node@?$_Tree_nod@V?$_Tset_traits@V?$basic_string@DU?$char_traits@D@std@@V?$allocator@D@2@@std@@U?$less@V?$basic_string@DU?$char_traits@D@std@@V?$allocator@D@2@@std@@@2@V?$allocator@V?$basic_string@DU?$char_traits@D@std@@V?$allocator@D@2@@std@@@2@$0A@@std@@@std@@QAE@XZ 00404a10 f i DBManager.obj
 0001:00003a40       ??0?$stack@PAUtagDB_OVERLAPPED_PLUS@@V?$deque@PAUtagDB_OVERLAPPED_PLUS@@V?$allocator@PAUtagDB_OVERLAPPED_PLUS@@@std@@@std@@@std@@QAE@XZ 00404a40 f i DBManager.obj
 0001:00003a60       ??0?$list@PAUtagDB_OVERLAPPED_PLUS@@V?$allocator@PAUtagDB_OVERLAPPED_PLUS@@@std@@@std@@QAE@XZ 00404a60 f i DBManager.obj
 0001:00003a80       ?lower_bound@?$_Tree@V?$_Tset_traits@V?$basic_string@DU?$char_traits@D@std@@V?$allocator@D@2@@std@@U?$less@V?$basic_string@DU?$char_traits@D@std@@V?$allocator@D@2@@std@@@2@V?$allocator@V?$basic_string@DU?$char_traits@D@std@@V?$allocator@D@2@@std@@@2@$0A@@std@@@std@@QAE?AViterator@12@ABV?$basic_string@DU?$char_traits@D@std@@V?$allocator@D@2@@2@@Z 00404a80 f i DBManager.obj
 0001:00003aa0       ??_G_Node@?$_Tree_nod@V?$_Tset_traits@V?$basic_string@DU?$char_traits@D@std@@V?$allocator@D@2@@std@@U?$less@V?$basic_string@DU?$char_traits@D@std@@V?$allocator@D@2@@std@@@2@V?$allocator@V?$basic_string@DU?$char_traits@D@std@@V?$allocator@D@2@@std@@@2@$0A@@std@@@std@@QAEPAXI@Z 00404aa0 f i DBManager.obj
 0001:00003ac0       ?find@?$_Tree@V?$_Tset_traits@V?$basic_string@DU?$char_traits@D@std@@V?$allocator@D@2@@std@@U?$less@V?$basic_string@DU?$char_traits@D@std@@V?$allocator@D@2@@std@@@2@V?$allocator@V?$basic_string@DU?$char_traits@D@std@@V?$allocator@D@2@@std@@@2@$0A@@std@@@std@@QAE?AViterator@12@ABV?$basic_string@DU?$char_traits@D@std@@V?$allocator@D@2@@2@@Z 00404ac0 f i DBManager.obj
 0001:00003b30       ??0_Node@?$_Tree_nod@V?$_Tset_traits@V?$basic_string@DU?$char_traits@D@std@@V?$allocator@D@2@@std@@U?$less@V?$basic_string@DU?$char_traits@D@std@@V?$allocator@D@2@@std@@@2@V?$allocator@V?$basic_string@DU?$char_traits@D@std@@V?$allocator@D@2@@std@@@2@$0A@@std@@@std@@QAE@PAU012@00ABV?$basic_string@DU?$char_traits@D@std@@V?$allocator@D@2@@2@D@Z 00404b30 f i DBManager.obj
 0001:00003b80       ??$_Destroy@U_Node@?$_Tree_nod@V?$_Tset_traits@V?$basic_string@DU?$char_traits@D@std@@V?$allocator@D@2@@std@@U?$less@V?$basic_string@DU?$char_traits@D@std@@V?$allocator@D@2@@std@@@2@V?$allocator@V?$basic_string@DU?$char_traits@D@std@@V?$allocator@D@2@@std@@@2@$0A@@std@@@std@@@std@@YAXPAU_Node@?$_Tree_nod@V?$_Tset_traits@V?$basic_string@DU?$char_traits@D@std@@V?$allocator@D@2@@std@@U?$less@V?$basic_string@DU?$char_traits@D@std@@V?$allocator@D@2@@std@@@2@V?$allocator@V?$basic_string@DU?$char_traits@D@std@@V?$allocator@D@2@@std@@@2@$0A@@std@@@0@@Z 00404b80 f i DBManager.obj
 0001:00003b90       ??0out_of_range@std@@QAE@ABV?$basic_string@DU?$char_traits@D@std@@V?$allocator@D@2@@1@@Z 00404b90 f i DBManager.obj
 0001:00003bb0       ??_Eout_of_range@std@@UAEPAXI@Z 00404bb0 f i DBManager.obj
 0001:00003bb0       ??_Gout_of_range@std@@UAEPAXI@Z 00404bb0 f i DBManager.obj
 0001:00003bd0       ??1out_of_range@std@@UAE@XZ 00404bd0 f i DBManager.obj
 0001:00003c10       ?IsEveSchoolAccount@CDbManager@@QAEHPBD@Z 00404c10 f   DBManager.obj
 0001:00003cc0       ?GetGPAuthResult@@YAXPBDHH000AAU_GPAUTH_RESULT@@@Z 00404cc0 f   DBManager.obj
 0001:00004490       ?_Buynode@?$_Tree@V?$_Tset_traits@V?$basic_string@DU?$char_traits@D@std@@V?$allocator@D@2@@std@@U?$less@V?$basic_string@DU?$char_traits@D@std@@V?$allocator@D@2@@std@@@2@V?$allocator@V?$basic_string@DU?$char_traits@D@std@@V?$allocator@D@2@@std@@@2@$0A@@std@@@std@@IAEPAU_Node@?$_Tree_nod@V?$_Tset_traits@V?$basic_string@DU?$char_traits@D@std@@V?$allocator@D@2@@std@@U?$less@V?$basic_string@DU?$char_traits@D@std@@V?$allocator@D@2@@std@@@2@V?$allocator@V?$basic_string@DU?$char_traits@D@std@@V?$allocator@D@2@@std@@@2@$0A@@std@@@2@PAU342@00ABV?$basic_string@DU?$char_traits@D@std@@V?$allocator@D@2@@2@D@Z 00405490 f i DBManager.obj
 0001:00004540       ?destroy@?$allocator@U_Node@?$_Tree_nod@V?$_Tset_traits@V?$basic_string@DU?$char_traits@D@std@@V?$allocator@D@2@@std@@U?$less@V?$basic_string@DU?$char_traits@D@std@@V?$allocator@D@2@@std@@@2@V?$allocator@V?$basic_string@DU?$char_traits@D@std@@V?$allocator@D@2@@std@@@2@$0A@@std@@@std@@@std@@QAEXPAU_Node@?$_Tree_nod@V?$_Tset_traits@V?$basic_string@DU?$char_traits@D@std@@V?$allocator@D@2@@std@@U?$less@V?$basic_string@DU?$char_traits@D@std@@V?$allocator@D@2@@std@@@2@V?$allocator@V?$basic_string@DU?$char_traits@D@std@@V?$allocator@D@2@@std@@@2@$0A@@std@@@2@@Z 00405540 f i DBManager.obj
 0001:00004550       ?_Xlen@?$deque@PAUtagDB_OVERLAPPED_PLUS@@V?$allocator@PAUtagDB_OVERLAPPED_PLUS@@@std@@@std@@IBEXXZ 00405550 f i DBManager.obj
 0001:000045c0       ?_Incsize@?$list@PAUtagDB_OVERLAPPED_PLUS@@V?$allocator@PAUtagDB_OVERLAPPED_PLUS@@@std@@@std@@IAEXI@Z 004055c0 f i DBManager.obj
 0001:00004660       ?GetAccountFlag@CDbManager@@QAEEHPBD@Z 00405660 f   DBManager.obj
 0001:000046b0       ?OnCertifyQueryOK@CDbManager@@QAEXAAVCQuery@@PAUtagDB_OVERLAPPED_PLUS@@PBD@Z 004056b0 f   DBManager.obj
 0001:00004820       ?_Insert@?$_Tree@V?$_Tset_traits@V?$basic_string@DU?$char_traits@D@std@@V?$allocator@D@2@@std@@U?$less@V?$basic_string@DU?$char_traits@D@std@@V?$allocator@D@2@@std@@@2@V?$allocator@V?$basic_string@DU?$char_traits@D@std@@V?$allocator@D@2@@std@@@2@$0A@@std@@@std@@IAE?AViterator@12@_NPAU_Node@?$_Tree_nod@V?$_Tset_traits@V?$basic_string@DU?$char_traits@D@std@@V?$allocator@D@2@@std@@U?$less@V?$basic_string@DU?$char_traits@D@std@@V?$allocator@D@2@@std@@@2@V?$allocator@V?$basic_string@DU?$char_traits@D@std@@V?$allocator@D@2@@std@@@2@$0A@@std@@@2@ABV?$basic_string@DU?$char_traits@D@std@@V?$allocator@D@2@@2@@Z 00405820 f i DBManager.obj
 0001:000049d0       ?erase@?$_Tree@V?$_Tset_traits@V?$basic_string@DU?$char_traits@D@std@@V?$allocator@D@2@@std@@U?$less@V?$basic_string@DU?$char_traits@D@std@@V?$allocator@D@2@@std@@@2@V?$allocator@V?$basic_string@DU?$char_traits@D@std@@V?$allocator@D@2@@std@@@2@$0A@@std@@@std@@QAE?AViterator@12@V312@@Z 004059d0 f i DBManager.obj
 0001:00004cb0       ??0out_of_range@std@@QAE@ABV01@@Z 00405cb0 f i DBManager.obj
 0001:00004cd0       ?_Erase@?$_Tree@V?$_Tset_traits@V?$basic_string@DU?$char_traits@D@std@@V?$allocator@D@2@@std@@U?$less@V?$basic_string@DU?$char_traits@D@std@@V?$allocator@D@2@@std@@@2@V?$allocator@V?$basic_string@DU?$char_traits@D@std@@V?$allocator@D@2@@std@@@2@$0A@@std@@@std@@IAEXPAU_Node@?$_Tree_nod@V?$_Tset_traits@V?$basic_string@DU?$char_traits@D@std@@V?$allocator@D@2@@std@@U?$less@V?$basic_string@DU?$char_traits@D@std@@V?$allocator@D@2@@std@@@2@V?$allocator@V?$basic_string@DU?$char_traits@D@std@@V?$allocator@D@2@@std@@@2@$0A@@std@@@2@@Z 00405cd0 f i DBManager.obj
 0001:00004d10       ?_Growmap@?$deque@PAUtagDB_OVERLAPPED_PLUS@@V?$allocator@PAUtagDB_OVERLAPPED_PLUS@@@std@@@std@@IAEXI@Z 00405d10 f i DBManager.obj
 0001:00004e70       ?_Insert@?$list@PAUtagDB_OVERLAPPED_PLUS@@V?$allocator@PAUtagDB_OVERLAPPED_PLUS@@@std@@@std@@QAEXViterator@12@ABQAUtagDB_OVERLAPPED_PLUS@@@Z 00405e70 f i DBManager.obj
 0001:00004eb0       ?insert@?$_Tree@V?$_Tset_traits@V?$basic_string@DU?$char_traits@D@std@@V?$allocator@D@2@@std@@U?$less@V?$basic_string@DU?$char_traits@D@std@@V?$allocator@D@2@@std@@@2@V?$allocator@V?$basic_string@DU?$char_traits@D@std@@V?$allocator@D@2@@std@@@2@$0A@@std@@@std@@QAE?AU?$pair@Viterator@?$_Tree@V?$_Tset_traits@V?$basic_string@DU?$char_traits@D@std@@V?$allocator@D@2@@std@@U?$less@V?$basic_string@DU?$char_traits@D@std@@V?$allocator@D@2@@std@@@2@V?$allocator@V?$basic_string@DU?$char_traits@D@std@@V?$allocator@D@2@@std@@@2@$0A@@std@@@std@@_N@2@ABV?$basic_string@DU?$char_traits@D@std@@V?$allocator@D@2@@2@@Z 00405eb0 f i DBManager.obj
 0001:00005030       ?clear@?$_Tree@V?$_Tset_traits@V?$basic_string@DU?$char_traits@D@std@@V?$allocator@D@2@@std@@U?$less@V?$basic_string@DU?$char_traits@D@std@@V?$allocator@D@2@@std@@@2@V?$allocator@V?$basic_string@DU?$char_traits@D@std@@V?$allocator@D@2@@std@@@2@$0A@@std@@@std@@QAEXXZ 00406030 f i DBManager.obj
 0001:00005060       ?push_back@?$deque@PAUtagDB_OVERLAPPED_PLUS@@V?$allocator@PAUtagDB_OVERLAPPED_PLUS@@@std@@@std@@QAEXABQAUtagDB_OVERLAPPED_PLUS@@@Z 00406060 f i DBManager.obj
 0001:000050e0       ?push_back@?$list@PAUtagDB_OVERLAPPED_PLUS@@V?$allocator@PAUtagDB_OVERLAPPED_PLUS@@@std@@@std@@QAEXABQAUtagDB_OVERLAPPED_PLUS@@@Z 004060e0 f i DBManager.obj
 0001:00005120       ?LoadEveSchoolAccount@CDbManager@@QAEHXZ 00406120 f   DBManager.obj
 0001:00005290       ?erase@?$_Tree@V?$_Tset_traits@V?$basic_string@DU?$char_traits@D@std@@V?$allocator@D@2@@std@@U?$less@V?$basic_string@DU?$char_traits@D@std@@V?$allocator@D@2@@std@@@2@V?$allocator@V?$basic_string@DU?$char_traits@D@std@@V?$allocator@D@2@@std@@@2@$0A@@std@@@std@@QAE?AViterator@12@V312@0@Z 00406290 f i DBManager.obj
 0001:00005350       ?push@?$stack@PAUtagDB_OVERLAPPED_PLUS@@V?$deque@PAUtagDB_OVERLAPPED_PLUS@@V?$allocator@PAUtagDB_OVERLAPPED_PLUS@@@std@@@std@@@std@@QAEXABQAUtagDB_OVERLAPPED_PLUS@@@Z 00406350 f i DBManager.obj
 0001:00005360       ?Grow@?$CMemPool@UtagDB_OVERLAPPED_PLUS@@@@AAEXXZ 00406360 f i DBManager.obj
 0001:000053e0       ?_Tidy@?$_Tree@V?$_Tset_traits@V?$basic_string@DU?$char_traits@D@std@@V?$allocator@D@2@@std@@U?$less@V?$basic_string@DU?$char_traits@D@std@@V?$allocator@D@2@@std@@@2@V?$allocator@V?$basic_string@DU?$char_traits@D@std@@V?$allocator@D@2@@std@@@2@$0A@@std@@@std@@IAEXXZ 004063e0 f i DBManager.obj
 0001:00005410       ??0?$CMemPool@UtagDB_OVERLAPPED_PLUS@@@@QAE@I@Z 00406410 f i DBManager.obj
 0001:000054a0       ??_G?$CMemPool@UtagDB_OVERLAPPED_PLUS@@@@UAEPAXI@Z 004064a0 f i DBManager.obj
 0001:000054a0       ??_E?$CMemPool@UtagDB_OVERLAPPED_PLUS@@@@UAEPAXI@Z 004064a0 f i DBManager.obj
 0001:000054c0       ??1?$CMemPool@UtagDB_OVERLAPPED_PLUS@@@@UAE@XZ 004064c0 f i DBManager.obj
 0001:000055b0       ?Free@?$CMemPool@UtagDB_OVERLAPPED_PLUS@@@@QAEXPAUtagDB_OVERLAPPED_PLUS@@@Z 004065b0 f i DBManager.obj
 0001:00005610       ?Certify@CDbManager@@QAEXAAVCQuery@@PAUtagDB_OVERLAPPED_PLUS@@AAVCAccountMgr@@@Z 00406610 f   DBManager.obj
 0001:00005840       ?CloseExistingConnection@CDbManager@@QAEXAAVCQuery@@PAUtagDB_OVERLAPPED_PLUS@@@Z 00406840 f   DBManager.obj
 0001:000058e0       ?DbWorkerThread@@YGIPAX@Z  004068e0 f   DBManager.obj
 0001:00005a40       ?Certify2@CDbManager@@QAEXAAVCQuery@@PAUtagDB_OVERLAPPED_PLUS@@AAVCAccountMgr@@@Z 00406a40 f   DBManager.obj
 0001:00005c80       ?CloseExistingConnection2@CDbManager@@QAEXAAVCQuery@@PAUtagDB_OVERLAPPED_PLUS@@@Z 00406c80 f   DBManager.obj
 0001:00005dc0       ??1?$_Tree@V?$_Tset_traits@V?$basic_string@DU?$char_traits@D@std@@V?$allocator@D@2@@std@@U?$less@V?$basic_string@DU?$char_traits@D@std@@V?$allocator@D@2@@std@@@2@V?$allocator@V?$basic_string@DU?$char_traits@D@std@@V?$allocator@D@2@@std@@@2@$0A@@std@@@std@@QAE@XZ 00406dc0 f i DBManager.obj
 0001:00005df0       ??1?$set@V?$basic_string@DU?$char_traits@D@std@@V?$allocator@D@2@@std@@U?$less@V?$basic_string@DU?$char_traits@D@std@@V?$allocator@D@2@@std@@@2@V?$allocator@V?$basic_string@DU?$char_traits@D@std@@V?$allocator@D@2@@std@@@2@@std@@QAE@XZ 00406df0 f i DBManager.obj
 0001:00005e20       ??1CDbManager@@QAE@XZ      00406e20 f   DBManager.obj
 0001:00005f00       ?GPotatoAuthWorker@@YGIPAX@Z 00406f00 f   DBManager.obj
 0001:00006060       ??0?$set@V?$basic_string@DU?$char_traits@D@std@@V?$allocator@D@2@@std@@U?$less@V?$basic_string@DU?$char_traits@D@std@@V?$allocator@D@2@@std@@@2@V?$allocator@V?$basic_string@DU?$char_traits@D@std@@V?$allocator@D@2@@std@@@2@@std@@QAE@XZ 00407060 f i DBManager.obj
 0001:00006090       ??0CDbManager@@QAE@XZ      00407090 f   DBManager.obj
 0001:00006150       ?CreateDbWorkers@CDbManager@@QAEHXZ 00407150 f   DBManager.obj
 0001:00006200       ??6CAr@@QAEAAV0@E@Z        00407200 f i dpaccountclient.obj
 0001:00006220       ??6CAr@@QAEAAV0@J@Z        00407220 f i dpaccountclient.obj
 0001:00006240       ??6CAr@@QAEAAV0@K@Z        00407240 f i dpaccountclient.obj
 0001:00006260       ??5CAr@@QAEAAV0@AAE@Z      00407260 f i dpaccountclient.obj
 0001:00006290       ??5CAr@@QAEAAV0@AAK@Z      00407290 f i dpaccountclient.obj
 0001:000062d0       ??5CAr@@QAEAAV0@AAJ@Z      004072d0 f i dpaccountclient.obj
 0001:00006310       ?Send@CDPMng@@QAEHPAXKK@Z  00407310 f i dpaccountclient.obj
 0001:00006330       ?GetAccount@CUser@@QAEPBDXZ 00407330 f i dpaccountclient.obj
 0001:00006340       ?SysMessageHandler@CDPAccountClient@@UAEXPAUDPMSG_GENERIC@@KK@Z 00407340 f   dpaccountclient.obj
 0001:00006350       ?SendAddAccount@CDPAccountClient@@QAEXPADPBDEKH11K@Z 00407350 f   dpaccountclient.obj
 0001:000064e0       ?SendRemoveAccount@CDPAccountClient@@QAEXK@Z 004074e0 f   dpaccountclient.obj
 0001:000065c0       ?SendRoute@CDPAccountClient@@QAEXKKK@Z 004075c0 f   dpaccountclient.obj
 0001:000066f0       ?SendPing@CDPAccountClient@@QAEXK@Z 004076f0 f   dpaccountclient.obj
 0001:000067d0       ?OnDestroyPlayer@CDPAccountClient@@AAEXAAVCAr@@K@Z 004077d0 f   dpaccountclient.obj
 0001:000067f0       ??0?$pair@$$CBKP8CDPAccountClient@@AEXAAVCAr@@K@Z@std@@QAE@ABKABQ8CDPAccountClient@@AEXAAVCAr@@K@Z@Z 004077f0 f i dpaccountclient.obj
 0001:00006810       ??0?$pair@$$CBKPAUtagSERVER_DESC@@@std@@QAE@ABKABQAUtagSERVER_DESC@@@Z 00407810 f i dpaccountclient.obj
 0001:00006830       ??R?$less@K@std@@QBE_NABK0@Z 00407830 f i dpaccountclient.obj
 0001:00006850       ?_Isnil@?$_Tree@V?$_Tmap_traits@KPAUtagSERVER_DESC@@U?$less@K@std@@V?$allocator@U?$pair@$$CBKPAUtagSERVER_DESC@@@std@@@3@$0A@@std@@@std@@KAAADPAU_Node@?$_Tree_nod@V?$_Tmap_traits@KPAUtagSERVER_DESC@@U?$less@K@std@@V?$allocator@U?$pair@$$CBKPAUtagSERVER_DESC@@@std@@@3@$0A@@std@@@2@@Z 00407850 f i dpaccountclient.obj
 0001:00006860       ?_Left@?$_Tree@V?$_Tmap_traits@KPAUtagSERVER_DESC@@U?$less@K@std@@V?$allocator@U?$pair@$$CBKPAUtagSERVER_DESC@@@std@@@3@$0A@@std@@@std@@KAAAPAU_Node@?$_Tree_nod@V?$_Tmap_traits@KPAUtagSERVER_DESC@@U?$less@K@std@@V?$allocator@U?$pair@$$CBKPAUtagSERVER_DESC@@@std@@@3@$0A@@std@@@2@PAU342@@Z 00407860 f i dpaccountclient.obj
 0001:00006870       ?_Right@?$_Tree@V?$_Tmap_traits@KPAUtagSERVER_DESC@@U?$less@K@std@@V?$allocator@U?$pair@$$CBKPAUtagSERVER_DESC@@@std@@@3@$0A@@std@@@std@@KAAAPAU_Node@?$_Tree_nod@V?$_Tmap_traits@KPAUtagSERVER_DESC@@U?$less@K@std@@V?$allocator@U?$pair@$$CBKPAUtagSERVER_DESC@@@std@@@3@$0A@@std@@@2@PAU342@@Z 00407870 f i dpaccountclient.obj
 0001:00006880       ?_Kfn@?$_Tmap_traits@KPAUtagSERVER_DESC@@U?$less@K@std@@V?$allocator@U?$pair@$$CBKPAUtagSERVER_DESC@@@std@@@3@$0A@@std@@SAABKABU?$pair@$$CBKPAUtagSERVER_DESC@@@2@@Z 00407880 f i dpaccountclient.obj
 0001:00006890       ?_Isnil@?$_Tree@V?$_Tmap_traits@KP8CDPAccountClient@@AEXAAVCAr@@K@ZU?$less@K@std@@V?$allocator@U?$pair@$$CBKP8CDPAccountClient@@AEXAAVCAr@@K@Z@std@@@4@$0A@@std@@@std@@KAAADPAU_Node@?$_Tree_nod@V?$_Tmap_traits@KP8CDPAccountClient@@AEXAAVCAr@@K@ZU?$less@K@std@@V?$allocator@U?$pair@$$CBKP8CDPAccountClient@@AEXAAVCAr@@K@Z@std@@@4@$0A@@std@@@2@@Z 00407890 f i dpaccountclient.obj
 0001:000068a0       ?_Left@?$_Tree@V?$_Tmap_traits@KP8CDPAccountClient@@AEXAAVCAr@@K@ZU?$less@K@std@@V?$allocator@U?$pair@$$CBKP8CDPAccountClient@@AEXAAVCAr@@K@Z@std@@@4@$0A@@std@@@std@@KAAAPAU_Node@?$_Tree_nod@V?$_Tmap_traits@KP8CDPAccountClient@@AEXAAVCAr@@K@ZU?$less@K@std@@V?$allocator@U?$pair@$$CBKP8CDPAccountClient@@AEXAAVCAr@@K@Z@std@@@4@$0A@@std@@@2@PAU342@@Z 004078a0 f i dpaccountclient.obj
 0001:000068b0       ?_Right@?$_Tree@V?$_Tmap_traits@KP8CDPAccountClient@@AEXAAVCAr@@K@ZU?$less@K@std@@V?$allocator@U?$pair@$$CBKP8CDPAccountClient@@AEXAAVCAr@@K@Z@std@@@4@$0A@@std@@@std@@KAAAPAU_Node@?$_Tree_nod@V?$_Tmap_traits@KP8CDPAccountClient@@AEXAAVCAr@@K@ZU?$less@K@std@@V?$allocator@U?$pair@$$CBKP8CDPAccountClient@@AEXAAVCAr@@K@Z@std@@@4@$0A@@std@@@2@PAU342@@Z 004078b0 f i dpaccountclient.obj
 0001:000068c0       ?_Kfn@?$_Tmap_traits@KP8CDPAccountClient@@AEXAAVCAr@@K@ZU?$less@K@std@@V?$allocator@U?$pair@$$CBKP8CDPAccountClient@@AEXAAVCAr@@K@Z@std@@@4@$0A@@std@@SAABKABU?$pair@$$CBKP8CDPAccountClient@@AEXAAVCAr@@K@Z@2@@Z 004078c0 f i dpaccountclient.obj
 0001:000068d0       ??0?$allocator@U?$pair@$$CBKP8CDPAccountClient@@AEXAAVCAr@@K@Z@std@@@std@@QAE@XZ 004078d0 f i dpaccountclient.obj
 0001:000068e0       ??8const_iterator@?$_Tree@V?$_Tmap_traits@KP8CDPAccountClient@@AEXAAVCAr@@K@ZU?$less@K@std@@V?$allocator@U?$pair@$$CBKP8CDPAccountClient@@AEXAAVCAr@@K@Z@std@@@4@$0A@@std@@@std@@QBE_NABV012@@Z 004078e0 f i dpaccountclient.obj
 0001:000068f0       ?_Mynode@const_iterator@?$_Tree@V?$_Tmap_traits@KP8CDPAccountClient@@AEXAAVCAr@@K@ZU?$less@K@std@@V?$allocator@U?$pair@$$CBKP8CDPAccountClient@@AEXAAVCAr@@K@Z@std@@@4@$0A@@std@@@std@@QBEPAU_Node@?$_Tree_nod@V?$_Tmap_traits@KP8CDPAccountClient@@AEXAAVCAr@@K@ZU?$less@K@std@@V?$allocator@U?$pair@$$CBKP8CDPAccountClient@@AEXAAVCAr@@K@Z@std@@@4@$0A@@std@@@3@XZ 004078f0 f i dpaccountclient.obj
 0001:00006900       ??0?$pair@Viterator@?$_Tree@V?$_Tmap_traits@KP8CDPAccountClient@@AEXAAVCAr@@K@ZU?$less@K@std@@V?$allocator@U?$pair@$$CBKP8CDPAccountClient@@AEXAAVCAr@@K@Z@std@@@4@$0A@@std@@@std@@_N@std@@QAE@ABViterator@?$_Tree@V?$_Tmap_traits@KP8CDPAccountClient@@AEXAAVCAr@@K@ZU?$less@K@std@@V?$allocator@U?$pair@$$CBKP8CDPAccountClient@@AEXAAVCAr@@K@Z@std@@@4@$0A@@std@@@1@AB_N@Z 00407900 f i dpaccountclient.obj
 0001:00006920       ??0?$pair@Viterator@?$_Tree@V?$_Tmap_traits@KPAUtagSERVER_DESC@@U?$less@K@std@@V?$allocator@U?$pair@$$CBKPAUtagSERVER_DESC@@@std@@@3@$0A@@std@@@std@@_N@std@@QAE@ABViterator@?$_Tree@V?$_Tmap_traits@KPAUtagSERVER_DESC@@U?$less@K@std@@V?$allocator@U?$pair@$$CBKPAUtagSERVER_DESC@@@std@@@3@$0A@@std@@@1@AB_N@Z 00407920 f i dpaccountclient.obj
 0001:00006940       ??8const_iterator@?$_Tree@V?$_Tmap_traits@KPAUtagSERVER_DESC@@U?$less@K@std@@V?$allocator@U?$pair@$$CBKPAUtagSERVER_DESC@@@std@@@3@$0A@@std@@@std@@QBE_NABV012@@Z 00407940 f i dpaccountclient.obj
 0001:00006950       ?_Mynode@const_iterator@?$_Tree@V?$_Tmap_traits@KPAUtagSERVER_DESC@@U?$less@K@std@@V?$allocator@U?$pair@$$CBKPAUtagSERVER_DESC@@@std@@@3@$0A@@std@@@std@@QBEPAU_Node@?$_Tree_nod@V?$_Tmap_traits@KPAUtagSERVER_DESC@@U?$less@K@std@@V?$allocator@U?$pair@$$CBKPAUtagSERVER_DESC@@@std@@@3@$0A@@std@@@3@XZ 00407950 f i dpaccountclient.obj
 0001:00006960       ?_Color@?$_Tree@V?$_Tmap_traits@KPAUtagSERVER_DESC@@U?$less@K@std@@V?$allocator@U?$pair@$$CBKPAUtagSERVER_DESC@@@std@@@3@$0A@@std@@@std@@KAAADPAU_Node@?$_Tree_nod@V?$_Tmap_traits@KPAUtagSERVER_DESC@@U?$less@K@std@@V?$allocator@U?$pair@$$CBKPAUtagSERVER_DESC@@@std@@@3@$0A@@std@@@2@@Z 00407960 f i dpaccountclient.obj
 0001:00006970       ?_Parent@?$_Tree@V?$_Tmap_traits@KPAUtagSERVER_DESC@@U?$less@K@std@@V?$allocator@U?$pair@$$CBKPAUtagSERVER_DESC@@@std@@@3@$0A@@std@@@std@@KAAAPAU_Node@?$_Tree_nod@V?$_Tmap_traits@KPAUtagSERVER_DESC@@U?$less@K@std@@V?$allocator@U?$pair@$$CBKPAUtagSERVER_DESC@@@std@@@3@$0A@@std@@@2@PAU342@@Z 00407970 f i dpaccountclient.obj
 0001:00006980       ?_Myval@?$_Tree@V?$_Tmap_traits@KPAUtagSERVER_DESC@@U?$less@K@std@@V?$allocator@U?$pair@$$CBKPAUtagSERVER_DESC@@@std@@@3@$0A@@std@@@std@@KAAAU?$pair@$$CBKPAUtagSERVER_DESC@@@2@PAU_Node@?$_Tree_nod@V?$_Tmap_traits@KPAUtagSERVER_DESC@@U?$less@K@std@@V?$allocator@U?$pair@$$CBKPAUtagSERVER_DESC@@@std@@@3@$0A@@std@@@2@@Z 00407980 f i dpaccountclient.obj
 0001:00006990       ?_Lmost@?$_Tree@V?$_Tmap_traits@KPAUtagSERVER_DESC@@U?$less@K@std@@V?$allocator@U?$pair@$$CBKPAUtagSERVER_DESC@@@std@@@3@$0A@@std@@@std@@IAEAAPAU_Node@?$_Tree_nod@V?$_Tmap_traits@KPAUtagSERVER_DESC@@U?$less@K@std@@V?$allocator@U?$pair@$$CBKPAUtagSERVER_DESC@@@std@@@3@$0A@@std@@@2@XZ 00407990 f i dpaccountclient.obj
 0001:000069a0       ?_Rmost@?$_Tree@V?$_Tmap_traits@KPAUtagSERVER_DESC@@U?$less@K@std@@V?$allocator@U?$pair@$$CBKPAUtagSERVER_DESC@@@std@@@3@$0A@@std@@@std@@IAEAAPAU_Node@?$_Tree_nod@V?$_Tmap_traits@KPAUtagSERVER_DESC@@U?$less@K@std@@V?$allocator@U?$pair@$$CBKPAUtagSERVER_DESC@@@std@@@3@$0A@@std@@@2@XZ 004079a0 f i dpaccountclient.obj
 0001:000069b0       ?_Color@?$_Tree@V?$_Tmap_traits@KP8CDPAccountClient@@AEXAAVCAr@@K@ZU?$less@K@std@@V?$allocator@U?$pair@$$CBKP8CDPAccountClient@@AEXAAVCAr@@K@Z@std@@@4@$0A@@std@@@std@@KAAADPAU_Node@?$_Tree_nod@V?$_Tmap_traits@KP8CDPAccountClient@@AEXAAVCAr@@K@ZU?$less@K@std@@V?$allocator@U?$pair@$$CBKP8CDPAccountClient@@AEXAAVCAr@@K@Z@std@@@4@$0A@@std@@@2@@Z 004079b0 f i dpaccountclient.obj
 0001:000069c0       ?_Parent@?$_Tree@V?$_Tmap_traits@KP8CDPAccountClient@@AEXAAVCAr@@K@ZU?$less@K@std@@V?$allocator@U?$pair@$$CBKP8CDPAccountClient@@AEXAAVCAr@@K@Z@std@@@4@$0A@@std@@@std@@KAAAPAU_Node@?$_Tree_nod@V?$_Tmap_traits@KP8CDPAccountClient@@AEXAAVCAr@@K@ZU?$less@K@std@@V?$allocator@U?$pair@$$CBKP8CDPAccountClient@@AEXAAVCAr@@K@Z@std@@@4@$0A@@std@@@2@PAU342@@Z 004079c0 f i dpaccountclient.obj
 0001:000069d0       ?_Myval@?$_Tree@V?$_Tmap_traits@KP8CDPAccountClient@@AEXAAVCAr@@K@ZU?$less@K@std@@V?$allocator@U?$pair@$$CBKP8CDPAccountClient@@AEXAAVCAr@@K@Z@std@@@4@$0A@@std@@@std@@KAAAU?$pair@$$CBKP8CDPAccountClient@@AEXAAVCAr@@K@Z@2@PAU_Node@?$_Tree_nod@V?$_Tmap_traits@KP8CDPAccountClient@@AEXAAVCAr@@K@ZU?$less@K@std@@V?$allocator@U?$pair@$$CBKP8CDPAccountClient@@AEXAAVCAr@@K@Z@std@@@4@$0A@@std@@@2@@Z 004079d0 f i dpaccountclient.obj
 0001:000069e0       ?_Lmost@?$_Tree@V?$_Tmap_traits@KP8CDPAccountClient@@AEXAAVCAr@@K@ZU?$less@K@std@@V?$allocator@U?$pair@$$CBKP8CDPAccountClient@@AEXAAVCAr@@K@Z@std@@@4@$0A@@std@@@std@@IAEAAPAU_Node@?$_Tree_nod@V?$_Tmap_traits@KP8CDPAccountClient@@AEXAAVCAr@@K@ZU?$less@K@std@@V?$allocator@U?$pair@$$CBKP8CDPAccountClient@@AEXAAVCAr@@K@Z@std@@@4@$0A@@std@@@2@XZ 004079e0 f i dpaccountclient.obj
 0001:000069f0       ?_Rmost@?$_Tree@V?$_Tmap_traits@KP8CDPAccountClient@@AEXAAVCAr@@K@ZU?$less@K@std@@V?$allocator@U?$pair@$$CBKP8CDPAccountClient@@AEXAAVCAr@@K@Z@std@@@4@$0A@@std@@@std@@IAEAAPAU_Node@?$_Tree_nod@V?$_Tmap_traits@KP8CDPAccountClient@@AEXAAVCAr@@K@ZU?$less@K@std@@V?$allocator@U?$pair@$$CBKP8CDPAccountClient@@AEXAAVCAr@@K@Z@std@@@4@$0A@@std@@@2@XZ 004079f0 f i dpaccountclient.obj
 0001:00006a00       ??0?$allocator@U?$pair@$$CBKP8CDPAccountClient@@AEXAAVCAr@@K@Z@std@@@std@@QAE@ABV01@@Z 00407a00 f i dpaccountclient.obj
 0001:00006a10       ?deallocate@?$allocator@U_Node@?$_Tree_nod@V?$_Tmap_traits@KP8CDPAccountClient@@AEXAAVCAr@@K@ZU?$less@K@std@@V?$allocator@U?$pair@$$CBKP8CDPAccountClient@@AEXAAVCAr@@K@Z@std@@@4@$0A@@std@@@std@@@std@@QAEXPAU_Node@?$_Tree_nod@V?$_Tmap_traits@KP8CDPAccountClient@@AEXAAVCAr@@K@ZU?$less@K@std@@V?$allocator@U?$pair@$$CBKP8CDPAccountClient@@AEXAAVCAr@@K@Z@std@@@4@$0A@@std@@@2@I@Z 00407a10 f i dpaccountclient.obj
 0001:00006a20       ??0const_iterator@?$_Tree@V?$_Tmap_traits@KP8CDPAccountClient@@AEXAAVCAr@@K@ZU?$less@K@std@@V?$allocator@U?$pair@$$CBKP8CDPAccountClient@@AEXAAVCAr@@K@Z@std@@@4@$0A@@std@@@std@@QAE@PAU_Node@?$_Tree_nod@V?$_Tmap_traits@KP8CDPAccountClient@@AEXAAVCAr@@K@ZU?$less@K@std@@V?$allocator@U?$pair@$$CBKP8CDPAccountClient@@AEXAAVCAr@@K@Z@std@@@4@$0A@@std@@@2@@Z 00407a20 f i dpaccountclient.obj
 0001:00006a30       ??Dconst_iterator@?$_Tree@V?$_Tmap_traits@KP8CDPAccountClient@@AEXAAVCAr@@K@ZU?$less@K@std@@V?$allocator@U?$pair@$$CBKP8CDPAccountClient@@AEXAAVCAr@@K@Z@std@@@4@$0A@@std@@@std@@QBEABU?$pair@$$CBKP8CDPAccountClient@@AEXAAVCAr@@K@Z@2@XZ 00407a30 f i dpaccountclient.obj
 0001:00006a40       ??0const_iterator@?$_Tree@V?$_Tmap_traits@KPAUtagSERVER_DESC@@U?$less@K@std@@V?$allocator@U?$pair@$$CBKPAUtagSERVER_DESC@@@std@@@3@$0A@@std@@@std@@QAE@PAU_Node@?$_Tree_nod@V?$_Tmap_traits@KPAUtagSERVER_DESC@@U?$less@K@std@@V?$allocator@U?$pair@$$CBKPAUtagSERVER_DESC@@@std@@@3@$0A@@std@@@2@@Z 00407a40 f i dpaccountclient.obj
 0001:00006a50       ??Dconst_iterator@?$_Tree@V?$_Tmap_traits@KPAUtagSERVER_DESC@@U?$less@K@std@@V?$allocator@U?$pair@$$CBKPAUtagSERVER_DESC@@@std@@@3@$0A@@std@@@std@@QBEABU?$pair@$$CBKPAUtagSERVER_DESC@@@2@XZ 00407a50 f i dpaccountclient.obj
 0001:00006a60       ?_Root@?$_Tree@V?$_Tmap_traits@KPAUtagSERVER_DESC@@U?$less@K@std@@V?$allocator@U?$pair@$$CBKPAUtagSERVER_DESC@@@std@@@3@$0A@@std@@@std@@IBEAAPAU_Node@?$_Tree_nod@V?$_Tmap_traits@KPAUtagSERVER_DESC@@U?$less@K@std@@V?$allocator@U?$pair@$$CBKPAUtagSERVER_DESC@@@std@@@3@$0A@@std@@@2@XZ 00407a60 f i dpaccountclient.obj
 0001:00006a70       ?max_size@?$allocator@U?$pair@$$CBKPAUtagSERVER_DESC@@@std@@@std@@QBEIXZ 00407a70 f i dpaccountclient.obj
 0001:00006a80       ?deallocate@?$allocator@U_Node@?$_Tree_nod@V?$_Tmap_traits@KPAUtagSERVER_DESC@@U?$less@K@std@@V?$allocator@U?$pair@$$CBKPAUtagSERVER_DESC@@@std@@@3@$0A@@std@@@std@@@std@@QAEXPAU_Node@?$_Tree_nod@V?$_Tmap_traits@KPAUtagSERVER_DESC@@U?$less@K@std@@V?$allocator@U?$pair@$$CBKPAUtagSERVER_DESC@@@std@@@3@$0A@@std@@@2@I@Z 00407a80 f i dpaccountclient.obj
 0001:00006a90       ?_Root@?$_Tree@V?$_Tmap_traits@KP8CDPAccountClient@@AEXAAVCAr@@K@ZU?$less@K@std@@V?$allocator@U?$pair@$$CBKP8CDPAccountClient@@AEXAAVCAr@@K@Z@std@@@4@$0A@@std@@@std@@IBEAAPAU_Node@?$_Tree_nod@V?$_Tmap_traits@KP8CDPAccountClient@@AEXAAVCAr@@K@ZU?$less@K@std@@V?$allocator@U?$pair@$$CBKP8CDPAccountClient@@AEXAAVCAr@@K@Z@std@@@4@$0A@@std@@@2@XZ 00407a90 f i dpaccountclient.obj
 0001:00006aa0       ?max_size@?$allocator@U?$pair@$$CBKP8CDPAccountClient@@AEXAAVCAr@@K@Z@std@@@std@@QBEIXZ 00407aa0 f i dpaccountclient.obj
 0001:00006ab0       ??0_Node@?$_Tree_nod@V?$_Tmap_traits@KPAUtagSERVER_DESC@@U?$less@K@std@@V?$allocator@U?$pair@$$CBKPAUtagSERVER_DESC@@@std@@@3@$0A@@std@@@std@@QAE@PAU012@00ABU?$pair@$$CBKPAUtagSERVER_DESC@@@2@D@Z 00407ab0 f i dpaccountclient.obj
 0001:00006af0       ??0_Node@?$_Tree_nod@V?$_Tmap_traits@KP8CDPAccountClient@@AEXAAVCAr@@K@ZU?$less@K@std@@V?$allocator@U?$pair@$$CBKP8CDPAccountClient@@AEXAAVCAr@@K@Z@std@@@4@$0A@@std@@@std@@QAE@PAU012@00ABU?$pair@$$CBKP8CDPAccountClient@@AEXAAVCAr@@K@Z@2@D@Z 00407af0 f i dpaccountclient.obj
 0001:00006b30       ?_Max@?$_Tree@V?$_Tmap_traits@KPAUtagSERVER_DESC@@U?$less@K@std@@V?$allocator@U?$pair@$$CBKPAUtagSERVER_DESC@@@std@@@3@$0A@@std@@@std@@KAPAU_Node@?$_Tree_nod@V?$_Tmap_traits@KPAUtagSERVER_DESC@@U?$less@K@std@@V?$allocator@U?$pair@$$CBKPAUtagSERVER_DESC@@@std@@@3@$0A@@std@@@2@PAU342@@Z 00407b30 f i dpaccountclient.obj
 0001:00006b50       ?_Max@?$_Tree@V?$_Tmap_traits@KP8CDPAccountClient@@AEXAAVCAr@@K@ZU?$less@K@std@@V?$allocator@U?$pair@$$CBKP8CDPAccountClient@@AEXAAVCAr@@K@Z@std@@@4@$0A@@std@@@std@@KAPAU_Node@?$_Tree_nod@V?$_Tmap_traits@KP8CDPAccountClient@@AEXAAVCAr@@K@ZU?$less@K@std@@V?$allocator@U?$pair@$$CBKP8CDPAccountClient@@AEXAAVCAr@@K@Z@std@@@4@$0A@@std@@@2@PAU342@@Z 00407b50 f i dpaccountclient.obj
 0001:00006b70       ?_Min@?$_Tree@V?$_Tmap_traits@KP8CDPAccountClient@@AEXAAVCAr@@K@ZU?$less@K@std@@V?$allocator@U?$pair@$$CBKP8CDPAccountClient@@AEXAAVCAr@@K@Z@std@@@4@$0A@@std@@@std@@KAPAU_Node@?$_Tree_nod@V?$_Tmap_traits@KP8CDPAccountClient@@AEXAAVCAr@@K@ZU?$less@K@std@@V?$allocator@U?$pair@$$CBKP8CDPAccountClient@@AEXAAVCAr@@K@Z@std@@@4@$0A@@std@@@2@PAU342@@Z 00407b70 f i dpaccountclient.obj
 0001:00006b90       ??0?$_Tmap_traits@KP8CDPAccountClient@@AEXAAVCAr@@K@ZU?$less@K@std@@V?$allocator@U?$pair@$$CBKP8CDPAccountClient@@AEXAAVCAr@@K@Z@std@@@4@$0A@@std@@QAE@U?$less@K@1@@Z 00407b90 f i dpaccountclient.obj
 0001:00006ba0       ?_Inc@const_iterator@?$_Tree@V?$_Tmap_traits@KP8CDPAccountClient@@AEXAAVCAr@@K@ZU?$less@K@std@@V?$allocator@U?$pair@$$CBKP8CDPAccountClient@@AEXAAVCAr@@K@Z@std@@@4@$0A@@std@@@std@@QAEXXZ 00407ba0 f i dpaccountclient.obj
 0001:00006c00       ??$_Destroy@PAU_Node@?$_Tree_nod@V?$_Tmap_traits@KP8CDPAccountClient@@AEXAAVCAr@@K@ZU?$less@K@std@@V?$allocator@U?$pair@$$CBKP8CDPAccountClient@@AEXAAVCAr@@K@Z@std@@@4@$0A@@std@@@std@@@std@@YAXPAPAU_Node@?$_Tree_nod@V?$_Tmap_traits@KP8CDPAccountClient@@AEXAAVCAr@@K@ZU?$less@K@std@@V?$allocator@U?$pair@$$CBKP8CDPAccountClient@@AEXAAVCAr@@K@Z@std@@@4@$0A@@std@@@0@@Z 00407c00 f i dpaccountclient.obj
 0001:00006c10       ??$_Allocate@U_Node@?$_Tree_nod@V?$_Tmap_traits@KPAUtagSERVER_DESC@@U?$less@K@std@@V?$allocator@U?$pair@$$CBKPAUtagSERVER_DESC@@@std@@@3@$0A@@std@@@std@@@std@@YAPAU_Node@?$_Tree_nod@V?$_Tmap_traits@KPAUtagSERVER_DESC@@U?$less@K@std@@V?$allocator@U?$pair@$$CBKPAUtagSERVER_DESC@@@std@@@3@$0A@@std@@@0@IPAU120@@Z 00407c10 f i dpaccountclient.obj
 0001:00006c30       ??$?0U?$pair@$$CBKP8CDPAccountClient@@AEXAAVCAr@@K@Z@std@@@?$allocator@PAU_Node@?$_Tree_nod@V?$_Tmap_traits@KP8CDPAccountClient@@AEXAAVCAr@@K@ZU?$less@K@std@@V?$allocator@U?$pair@$$CBKP8CDPAccountClient@@AEXAAVCAr@@K@Z@std@@@4@$0A@@std@@@std@@@std@@QAE@ABV?$allocator@U?$pair@$$CBKP8CDPAccountClient@@AEXAAVCAr@@K@Z@std@@@1@@Z 00407c30 f i dpaccountclient.obj
 0001:00006c40       ??$_Allocate@U_Node@?$_Tree_nod@V?$_Tmap_traits@KP8CDPAccountClient@@AEXAAVCAr@@K@ZU?$less@K@std@@V?$allocator@U?$pair@$$CBKP8CDPAccountClient@@AEXAAVCAr@@K@Z@std@@@4@$0A@@std@@@std@@@std@@YAPAU_Node@?$_Tree_nod@V?$_Tmap_traits@KP8CDPAccountClient@@AEXAAVCAr@@K@ZU?$less@K@std@@V?$allocator@U?$pair@$$CBKP8CDPAccountClient@@AEXAAVCAr@@K@Z@std@@@4@$0A@@std@@@0@IPAU120@@Z 00407c40 f i dpaccountclient.obj
 0001:00006c60       ??$?0U?$pair@$$CBKP8CDPAccountClient@@AEXAAVCAr@@K@Z@std@@@?$allocator@U_Node@?$_Tree_nod@V?$_Tmap_traits@KP8CDPAccountClient@@AEXAAVCAr@@K@ZU?$less@K@std@@V?$allocator@U?$pair@$$CBKP8CDPAccountClient@@AEXAAVCAr@@K@Z@std@@@4@$0A@@std@@@std@@@std@@QAE@ABV?$allocator@U?$pair@$$CBKP8CDPAccountClient@@AEXAAVCAr@@K@Z@std@@@1@@Z 00407c60 f i dpaccountclient.obj
 0001:00006c70       ??$_Destroy@U_Node@?$_Tree_nod@V?$_Tmap_traits@KP8CDPAccountClient@@AEXAAVCAr@@K@ZU?$less@K@std@@V?$allocator@U?$pair@$$CBKP8CDPAccountClient@@AEXAAVCAr@@K@Z@std@@@4@$0A@@std@@@std@@@std@@YAXPAU_Node@?$_Tree_nod@V?$_Tmap_traits@KP8CDPAccountClient@@AEXAAVCAr@@K@ZU?$less@K@std@@V?$allocator@U?$pair@$$CBKP8CDPAccountClient@@AEXAAVCAr@@K@Z@std@@@4@$0A@@std@@@0@@Z 00407c70 f i dpaccountclient.obj
 0001:00006c80       ??$_Construct@PAU_Node@?$_Tree_nod@V?$_Tmap_traits@KP8CDPAccountClient@@AEXAAVCAr@@K@ZU?$less@K@std@@V?$allocator@U?$pair@$$CBKP8CDPAccountClient@@AEXAAVCAr@@K@Z@std@@@4@$0A@@std@@@std@@PAU123@@std@@YAXPAPAU_Node@?$_Tree_nod@V?$_Tmap_traits@KP8CDPAccountClient@@AEXAAVCAr@@K@ZU?$less@K@std@@V?$allocator@U?$pair@$$CBKP8CDPAccountClient@@AEXAAVCAr@@K@Z@std@@@4@$0A@@std@@@0@ABQAU120@@Z 00407c80 f i dpaccountclient.obj
 0001:00006ca0       ??6CAr@@QAEAAV0@I@Z        00407ca0 f i dpaccountclient.obj
 0001:00006cc0       ??5CAr@@QAEAAV0@AAH@Z      00407cc0 f i dpaccountclient.obj
 0001:00006d00       ?SendCloseExistingConnection@CDPAccountClient@@QAEXPBD@Z 00407d00 f   dpaccountclient.obj
 0001:00006df0       ?OnAddAccount@CDPAccountClient@@AAEXAAVCAr@@K@Z 00407df0 f   dpaccountclient.obj
 0001:00007120       ??9const_iterator@?$_Tree@V?$_Tmap_traits@KP8CDPAccountClient@@AEXAAVCAr@@K@ZU?$less@K@std@@V?$allocator@U?$pair@$$CBKP8CDPAccountClient@@AEXAAVCAr@@K@Z@std@@@4@$0A@@std@@@std@@QBE_NABV012@@Z 00408120 f i dpaccountclient.obj
 0001:00007140       ??9const_iterator@?$_Tree@V?$_Tmap_traits@KPAUtagSERVER_DESC@@U?$less@K@std@@V?$allocator@U?$pair@$$CBKPAUtagSERVER_DESC@@@std@@@3@$0A@@std@@@std@@QBE_NABV012@@Z 00408140 f i dpaccountclient.obj
 0001:00007160       ?_Key@?$_Tree@V?$_Tmap_traits@KPAUtagSERVER_DESC@@U?$less@K@std@@V?$allocator@U?$pair@$$CBKPAUtagSERVER_DESC@@@std@@@3@$0A@@std@@@std@@KAABKPAU_Node@?$_Tree_nod@V?$_Tmap_traits@KPAUtagSERVER_DESC@@U?$less@K@std@@V?$allocator@U?$pair@$$CBKPAUtagSERVER_DESC@@@std@@@3@$0A@@std@@@2@@Z 00408160 f i dpaccountclient.obj
 0001:00007170       ?_Root@?$_Tree@V?$_Tmap_traits@KPAUtagSERVER_DESC@@U?$less@K@std@@V?$allocator@U?$pair@$$CBKPAUtagSERVER_DESC@@@std@@@3@$0A@@std@@@std@@IAEAAPAU_Node@?$_Tree_nod@V?$_Tmap_traits@KPAUtagSERVER_DESC@@U?$less@K@std@@V?$allocator@U?$pair@$$CBKPAUtagSERVER_DESC@@@std@@@3@$0A@@std@@@2@XZ 00408170 f i dpaccountclient.obj
 0001:00007180       ?_Key@?$_Tree@V?$_Tmap_traits@KP8CDPAccountClient@@AEXAAVCAr@@K@ZU?$less@K@std@@V?$allocator@U?$pair@$$CBKP8CDPAccountClient@@AEXAAVCAr@@K@Z@std@@@4@$0A@@std@@@std@@KAABKPAU_Node@?$_Tree_nod@V?$_Tmap_traits@KP8CDPAccountClient@@AEXAAVCAr@@K@ZU?$less@K@std@@V?$allocator@U?$pair@$$CBKP8CDPAccountClient@@AEXAAVCAr@@K@Z@std@@@4@$0A@@std@@@2@@Z 00408180 f i dpaccountclient.obj
 0001:00007190       ?_Root@?$_Tree@V?$_Tmap_traits@KP8CDPAccountClient@@AEXAAVCAr@@K@ZU?$less@K@std@@V?$allocator@U?$pair@$$CBKP8CDPAccountClient@@AEXAAVCAr@@K@Z@std@@@4@$0A@@std@@@std@@IAEAAPAU_Node@?$_Tree_nod@V?$_Tmap_traits@KP8CDPAccountClient@@AEXAAVCAr@@K@ZU?$less@K@std@@V?$allocator@U?$pair@$$CBKP8CDPAccountClient@@AEXAAVCAr@@K@Z@std@@@4@$0A@@std@@@2@XZ 00408190 f i dpaccountclient.obj
 0001:000071a0       ??0iterator@?$_Tree@V?$_Tmap_traits@KP8CDPAccountClient@@AEXAAVCAr@@K@ZU?$less@K@std@@V?$allocator@U?$pair@$$CBKP8CDPAccountClient@@AEXAAVCAr@@K@Z@std@@@4@$0A@@std@@@std@@QAE@PAU_Node@?$_Tree_nod@V?$_Tmap_traits@KP8CDPAccountClient@@AEXAAVCAr@@K@ZU?$less@K@std@@V?$allocator@U?$pair@$$CBKP8CDPAccountClient@@AEXAAVCAr@@K@Z@std@@@4@$0A@@std@@@2@@Z 004081a0 f i dpaccountclient.obj
 0001:000071b0       ??Diterator@?$_Tree@V?$_Tmap_traits@KP8CDPAccountClient@@AEXAAVCAr@@K@ZU?$less@K@std@@V?$allocator@U?$pair@$$CBKP8CDPAccountClient@@AEXAAVCAr@@K@Z@std@@@4@$0A@@std@@@std@@QBEAAU?$pair@$$CBKP8CDPAccountClient@@AEXAAVCAr@@K@Z@2@XZ 004081b0 f i dpaccountclient.obj
 0001:000071c0       ??0iterator@?$_Tree@V?$_Tmap_traits@KPAUtagSERVER_DESC@@U?$less@K@std@@V?$allocator@U?$pair@$$CBKPAUtagSERVER_DESC@@@std@@@3@$0A@@std@@@std@@QAE@PAU_Node@?$_Tree_nod@V?$_Tmap_traits@KPAUtagSERVER_DESC@@U?$less@K@std@@V?$allocator@U?$pair@$$CBKPAUtagSERVER_DESC@@@std@@@3@$0A@@std@@@2@@Z 004081c0 f i dpaccountclient.obj
 0001:000071d0       ??Diterator@?$_Tree@V?$_Tmap_traits@KPAUtagSERVER_DESC@@U?$less@K@std@@V?$allocator@U?$pair@$$CBKPAUtagSERVER_DESC@@@std@@@3@$0A@@std@@@std@@QBEAAU?$pair@$$CBKPAUtagSERVER_DESC@@@2@XZ 004081d0 f i dpaccountclient.obj
 0001:000071e0       ?max_size@?$_Tree@V?$_Tmap_traits@KPAUtagSERVER_DESC@@U?$less@K@std@@V?$allocator@U?$pair@$$CBKPAUtagSERVER_DESC@@@std@@@3@$0A@@std@@@std@@QBEIXZ 004081e0 f i dpaccountclient.obj
 0001:000071f0       ?_Lbound@?$_Tree@V?$_Tmap_traits@KPAUtagSERVER_DESC@@U?$less@K@std@@V?$allocator@U?$pair@$$CBKPAUtagSERVER_DESC@@@std@@@3@$0A@@std@@@std@@IBEPAU_Node@?$_Tree_nod@V?$_Tmap_traits@KPAUtagSERVER_DESC@@U?$less@K@std@@V?$allocator@U?$pair@$$CBKPAUtagSERVER_DESC@@@std@@@3@$0A@@std@@@2@ABK@Z 004081f0 f i dpaccountclient.obj
 0001:00007220       ?_Lrotate@?$_Tree@V?$_Tmap_traits@KPAUtagSERVER_DESC@@U?$less@K@std@@V?$allocator@U?$pair@$$CBKPAUtagSERVER_DESC@@@std@@@3@$0A@@std@@@std@@IAEXPAU_Node@?$_Tree_nod@V?$_Tmap_traits@KPAUtagSERVER_DESC@@U?$less@K@std@@V?$allocator@U?$pair@$$CBKPAUtagSERVER_DESC@@@std@@@3@$0A@@std@@@2@@Z 00408220 f i dpaccountclient.obj
 0001:00007280       ?_Rrotate@?$_Tree@V?$_Tmap_traits@KPAUtagSERVER_DESC@@U?$less@K@std@@V?$allocator@U?$pair@$$CBKPAUtagSERVER_DESC@@@std@@@3@$0A@@std@@@std@@IAEXPAU_Node@?$_Tree_nod@V?$_Tmap_traits@KPAUtagSERVER_DESC@@U?$less@K@std@@V?$allocator@U?$pair@$$CBKPAUtagSERVER_DESC@@@std@@@3@$0A@@std@@@2@@Z 00408280 f i dpaccountclient.obj
 0001:000072e0       ?max_size@?$_Tree@V?$_Tmap_traits@KP8CDPAccountClient@@AEXAAVCAr@@K@ZU?$less@K@std@@V?$allocator@U?$pair@$$CBKP8CDPAccountClient@@AEXAAVCAr@@K@Z@std@@@4@$0A@@std@@@std@@QBEIXZ 004082e0 f i dpaccountclient.obj
 0001:000072f0       ?_Lbound@?$_Tree@V?$_Tmap_traits@KP8CDPAccountClient@@AEXAAVCAr@@K@ZU?$less@K@std@@V?$allocator@U?$pair@$$CBKP8CDPAccountClient@@AEXAAVCAr@@K@Z@std@@@4@$0A@@std@@@std@@IBEPAU_Node@?$_Tree_nod@V?$_Tmap_traits@KP8CDPAccountClient@@AEXAAVCAr@@K@ZU?$less@K@std@@V?$allocator@U?$pair@$$CBKP8CDPAccountClient@@AEXAAVCAr@@K@Z@std@@@4@$0A@@std@@@2@ABK@Z 004082f0 f i dpaccountclient.obj
 0001:00007320       ?_Lrotate@?$_Tree@V?$_Tmap_traits@KP8CDPAccountClient@@AEXAAVCAr@@K@ZU?$less@K@std@@V?$allocator@U?$pair@$$CBKP8CDPAccountClient@@AEXAAVCAr@@K@Z@std@@@4@$0A@@std@@@std@@IAEXPAU_Node@?$_Tree_nod@V?$_Tmap_traits@KP8CDPAccountClient@@AEXAAVCAr@@K@ZU?$less@K@std@@V?$allocator@U?$pair@$$CBKP8CDPAccountClient@@AEXAAVCAr@@K@Z@std@@@4@$0A@@std@@@2@@Z 00408320 f i dpaccountclient.obj
 0001:00007380       ?_Rrotate@?$_Tree@V?$_Tmap_traits@KP8CDPAccountClient@@AEXAAVCAr@@K@ZU?$less@K@std@@V?$allocator@U?$pair@$$CBKP8CDPAccountClient@@AEXAAVCAr@@K@Z@std@@@4@$0A@@std@@@std@@IAEXPAU_Node@?$_Tree_nod@V?$_Tmap_traits@KP8CDPAccountClient@@AEXAAVCAr@@K@ZU?$less@K@std@@V?$allocator@U?$pair@$$CBKP8CDPAccountClient@@AEXAAVCAr@@K@Z@std@@@4@$0A@@std@@@2@@Z 00408380 f i dpaccountclient.obj
 0001:000073e0       ?destroy@?$allocator@PAU_Node@?$_Tree_nod@V?$_Tmap_traits@KP8CDPAccountClient@@AEXAAVCAr@@K@ZU?$less@K@std@@V?$allocator@U?$pair@$$CBKP8CDPAccountClient@@AEXAAVCAr@@K@Z@std@@@4@$0A@@std@@@std@@@std@@QAEXPAPAU_Node@?$_Tree_nod@V?$_Tmap_traits@KP8CDPAccountClient@@AEXAAVCAr@@K@ZU?$less@K@std@@V?$allocator@U?$pair@$$CBKP8CDPAccountClient@@AEXAAVCAr@@K@Z@std@@@4@$0A@@std@@@2@@Z 004083e0 f i dpaccountclient.obj
 0001:000073f0       ?allocate@?$allocator@U_Node@?$_Tree_nod@V?$_Tmap_traits@KPAUtagSERVER_DESC@@U?$less@K@std@@V?$allocator@U?$pair@$$CBKPAUtagSERVER_DESC@@@std@@@3@$0A@@std@@@std@@@std@@QAEPAU_Node@?$_Tree_nod@V?$_Tmap_traits@KPAUtagSERVER_DESC@@U?$less@K@std@@V?$allocator@U?$pair@$$CBKPAUtagSERVER_DESC@@@std@@@3@$0A@@std@@@2@I@Z 004083f0 f i dpaccountclient.obj
 0001:00007410       ?allocate@?$allocator@U_Node@?$_Tree_nod@V?$_Tmap_traits@KP8CDPAccountClient@@AEXAAVCAr@@K@ZU?$less@K@std@@V?$allocator@U?$pair@$$CBKP8CDPAccountClient@@AEXAAVCAr@@K@Z@std@@@4@$0A@@std@@@std@@@std@@QAEPAU_Node@?$_Tree_nod@V?$_Tmap_traits@KP8CDPAccountClient@@AEXAAVCAr@@K@ZU?$less@K@std@@V?$allocator@U?$pair@$$CBKP8CDPAccountClient@@AEXAAVCAr@@K@Z@std@@@4@$0A@@std@@@2@I@Z 00408410 f i dpaccountclient.obj
 0001:00007430       ?_Dec@const_iterator@?$_Tree@V?$_Tmap_traits@KP8CDPAccountClient@@AEXAAVCAr@@K@ZU?$less@K@std@@V?$allocator@U?$pair@$$CBKP8CDPAccountClient@@AEXAAVCAr@@K@Z@std@@@4@$0A@@std@@@std@@QAEXXZ 00408430 f i dpaccountclient.obj
 0001:00007490       ?_Dec@const_iterator@?$_Tree@V?$_Tmap_traits@KPAUtagSERVER_DESC@@U?$less@K@std@@V?$allocator@U?$pair@$$CBKPAUtagSERVER_DESC@@@std@@@3@$0A@@std@@@std@@QAEXXZ 00408490 f i dpaccountclient.obj
 0001:000074f0       ??0?$_Tree_nod@V?$_Tmap_traits@KP8CDPAccountClient@@AEXAAVCAr@@K@ZU?$less@K@std@@V?$allocator@U?$pair@$$CBKP8CDPAccountClient@@AEXAAVCAr@@K@Z@std@@@4@$0A@@std@@@std@@IAE@ABU?$less@K@1@V?$allocator@U?$pair@$$CBKP8CDPAccountClient@@AEXAAVCAr@@K@Z@std@@@1@@Z 004084f0 f i dpaccountclient.obj
 0001:00007500       ?destroy@?$allocator@U_Node@?$_Tree_nod@V?$_Tmap_traits@KP8CDPAccountClient@@AEXAAVCAr@@K@ZU?$less@K@std@@V?$allocator@U?$pair@$$CBKP8CDPAccountClient@@AEXAAVCAr@@K@Z@std@@@4@$0A@@std@@@std@@@std@@QAEXPAU_Node@?$_Tree_nod@V?$_Tmap_traits@KP8CDPAccountClient@@AEXAAVCAr@@K@ZU?$less@K@std@@V?$allocator@U?$pair@$$CBKP8CDPAccountClient@@AEXAAVCAr@@K@Z@std@@@4@$0A@@std@@@2@@Z 00408500 f i dpaccountclient.obj
 0001:00007510       ?construct@?$allocator@PAU_Node@?$_Tree_nod@V?$_Tmap_traits@KP8CDPAccountClient@@AEXAAVCAr@@K@ZU?$less@K@std@@V?$allocator@U?$pair@$$CBKP8CDPAccountClient@@AEXAAVCAr@@K@Z@std@@@4@$0A@@std@@@std@@@std@@QAEXPAPAU_Node@?$_Tree_nod@V?$_Tmap_traits@KP8CDPAccountClient@@AEXAAVCAr@@K@ZU?$less@K@std@@V?$allocator@U?$pair@$$CBKP8CDPAccountClient@@AEXAAVCAr@@K@Z@std@@@4@$0A@@std@@@2@ABQAU342@@Z 00408510 f i dpaccountclient.obj
 0001:00007530       ??Econst_iterator@?$_Tree@V?$_Tmap_traits@KP8CDPAccountClient@@AEXAAVCAr@@K@ZU?$less@K@std@@V?$allocator@U?$pair@$$CBKP8CDPAccountClient@@AEXAAVCAr@@K@Z@std@@@4@$0A@@std@@@std@@QAEAAV012@XZ 00408530 f i dpaccountclient.obj
 0001:00007540       ?end@?$_Tree@V?$_Tmap_traits@KPAUtagSERVER_DESC@@U?$less@K@std@@V?$allocator@U?$pair@$$CBKPAUtagSERVER_DESC@@@std@@@3@$0A@@std@@@std@@QAE?AViterator@12@XZ 00408540 f i dpaccountclient.obj
 0001:00007550       ?end@?$_Tree@V?$_Tmap_traits@KP8CDPAccountClient@@AEXAAVCAr@@K@ZU?$less@K@std@@V?$allocator@U?$pair@$$CBKP8CDPAccountClient@@AEXAAVCAr@@K@Z@std@@@4@$0A@@std@@@std@@QAE?AViterator@12@XZ 00408550 f i dpaccountclient.obj
 0001:00007560       ??Citerator@?$_Tree@V?$_Tmap_traits@KP8CDPAccountClient@@AEXAAVCAr@@K@ZU?$less@K@std@@V?$allocator@U?$pair@$$CBKP8CDPAccountClient@@AEXAAVCAr@@K@Z@std@@@4@$0A@@std@@@std@@QBEPAU?$pair@$$CBKP8CDPAccountClient@@AEXAAVCAr@@K@Z@2@XZ 00408560 f i dpaccountclient.obj
 0001:00007570       ??Citerator@?$_Tree@V?$_Tmap_traits@KPAUtagSERVER_DESC@@U?$less@K@std@@V?$allocator@U?$pair@$$CBKPAUtagSERVER_DESC@@@std@@@3@$0A@@std@@@std@@QBEPAU?$pair@$$CBKPAUtagSERVER_DESC@@@2@XZ 00408570 f i dpaccountclient.obj
 0001:00007580       ?begin@?$_Tree@V?$_Tmap_traits@KPAUtagSERVER_DESC@@U?$less@K@std@@V?$allocator@U?$pair@$$CBKPAUtagSERVER_DESC@@@std@@@3@$0A@@std@@@std@@QAE?AViterator@12@XZ 00408580 f i dpaccountclient.obj
 0001:00007590       ?lower_bound@?$_Tree@V?$_Tmap_traits@KPAUtagSERVER_DESC@@U?$less@K@std@@V?$allocator@U?$pair@$$CBKPAUtagSERVER_DESC@@@std@@@3@$0A@@std@@@std@@QAE?AViterator@12@ABK@Z 00408590 f i dpaccountclient.obj
 0001:000075d0       ?begin@?$_Tree@V?$_Tmap_traits@KP8CDPAccountClient@@AEXAAVCAr@@K@ZU?$less@K@std@@V?$allocator@U?$pair@$$CBKP8CDPAccountClient@@AEXAAVCAr@@K@Z@std@@@4@$0A@@std@@@std@@QAE?AViterator@12@XZ 004085d0 f i dpaccountclient.obj
 0001:000075e0       ?lower_bound@?$_Tree@V?$_Tmap_traits@KP8CDPAccountClient@@AEXAAVCAr@@K@ZU?$less@K@std@@V?$allocator@U?$pair@$$CBKP8CDPAccountClient@@AEXAAVCAr@@K@Z@std@@@4@$0A@@std@@@std@@QAE?AViterator@12@ABK@Z 004085e0 f i dpaccountclient.obj
 0001:00007620       ?_Buynode@?$_Tree@V?$_Tmap_traits@KPAUtagSERVER_DESC@@U?$less@K@std@@V?$allocator@U?$pair@$$CBKPAUtagSERVER_DESC@@@std@@@3@$0A@@std@@@std@@IAEPAU_Node@?$_Tree_nod@V?$_Tmap_traits@KPAUtagSERVER_DESC@@U?$less@K@std@@V?$allocator@U?$pair@$$CBKPAUtagSERVER_DESC@@@std@@@3@$0A@@std@@@2@PAU342@00ABU?$pair@$$CBKPAUtagSERVER_DESC@@@2@D@Z 00408620 f i dpaccountclient.obj
 0001:00007660       ?_Buynode@?$_Tree@V?$_Tmap_traits@KP8CDPAccountClient@@AEXAAVCAr@@K@ZU?$less@K@std@@V?$allocator@U?$pair@$$CBKP8CDPAccountClient@@AEXAAVCAr@@K@Z@std@@@4@$0A@@std@@@std@@IAEPAU_Node@?$_Tree_nod@V?$_Tmap_traits@KP8CDPAccountClient@@AEXAAVCAr@@K@ZU?$less@K@std@@V?$allocator@U?$pair@$$CBKP8CDPAccountClient@@AEXAAVCAr@@K@Z@std@@@4@$0A@@std@@@2@PAU342@00ABU?$pair@$$CBKP8CDPAccountClient@@AEXAAVCAr@@K@Z@2@D@Z 00408660 f i dpaccountclient.obj
 0001:000076a0       ??Fconst_iterator@?$_Tree@V?$_Tmap_traits@KP8CDPAccountClient@@AEXAAVCAr@@K@ZU?$less@K@std@@V?$allocator@U?$pair@$$CBKP8CDPAccountClient@@AEXAAVCAr@@K@Z@std@@@4@$0A@@std@@@std@@QAEAAV012@XZ 004086a0 f i dpaccountclient.obj
 0001:000076b0       ??Fconst_iterator@?$_Tree@V?$_Tmap_traits@KPAUtagSERVER_DESC@@U?$less@K@std@@V?$allocator@U?$pair@$$CBKPAUtagSERVER_DESC@@@std@@@3@$0A@@std@@@std@@QAEAAV012@XZ 004086b0 f i dpaccountclient.obj
 0001:000076c0       ?_Buynode@?$_Tree@V?$_Tmap_traits@KP8CDPAccountClient@@AEXAAVCAr@@K@ZU?$less@K@std@@V?$allocator@U?$pair@$$CBKP8CDPAccountClient@@AEXAAVCAr@@K@Z@std@@@4@$0A@@std@@@std@@IAEPAU_Node@?$_Tree_nod@V?$_Tmap_traits@KP8CDPAccountClient@@AEXAAVCAr@@K@ZU?$less@K@std@@V?$allocator@U?$pair@$$CBKP8CDPAccountClient@@AEXAAVCAr@@K@Z@std@@@4@$0A@@std@@@2@XZ 004086c0 f i dpaccountclient.obj
 0001:00007700       ??0?$_Tree_ptr@V?$_Tmap_traits@KP8CDPAccountClient@@AEXAAVCAr@@K@ZU?$less@K@std@@V?$allocator@U?$pair@$$CBKP8CDPAccountClient@@AEXAAVCAr@@K@Z@std@@@4@$0A@@std@@@std@@IAE@ABU?$less@K@1@V?$allocator@U?$pair@$$CBKP8CDPAccountClient@@AEXAAVCAr@@K@Z@std@@@1@@Z 00408700 f i dpaccountclient.obj
 0001:00007710       ?_Erase@?$_Tree@V?$_Tmap_traits@KP8CDPAccountClient@@AEXAAVCAr@@K@ZU?$less@K@std@@V?$allocator@U?$pair@$$CBKP8CDPAccountClient@@AEXAAVCAr@@K@Z@std@@@4@$0A@@std@@@std@@IAEXPAU_Node@?$_Tree_nod@V?$_Tmap_traits@KP8CDPAccountClient@@AEXAAVCAr@@K@ZU?$less@K@std@@V?$allocator@U?$pair@$$CBKP8CDPAccountClient@@AEXAAVCAr@@K@Z@std@@@4@$0A@@std@@@2@@Z 00408710 f i dpaccountclient.obj
 0001:00007750       ??Eiterator@?$_Tree@V?$_Tmap_traits@KP8CDPAccountClient@@AEXAAVCAr@@K@ZU?$less@K@std@@V?$allocator@U?$pair@$$CBKP8CDPAccountClient@@AEXAAVCAr@@K@Z@std@@@4@$0A@@std@@@std@@QAEAAV012@XZ 00408750 f i dpaccountclient.obj
 0001:00007760       ?find@?$_Tree@V?$_Tmap_traits@KPAUtagSERVER_DESC@@U?$less@K@std@@V?$allocator@U?$pair@$$CBKPAUtagSERVER_DESC@@@std@@@3@$0A@@std@@@std@@QAE?AViterator@12@ABK@Z 00408760 f i dpaccountclient.obj
 0001:000077d0       ?find@?$_Tree@V?$_Tmap_traits@KP8CDPAccountClient@@AEXAAVCAr@@K@ZU?$less@K@std@@V?$allocator@U?$pair@$$CBKP8CDPAccountClient@@AEXAAVCAr@@K@Z@std@@@4@$0A@@std@@@std@@QAE?AViterator@12@ABK@Z 004087d0 f i dpaccountclient.obj
 0001:00007840       ??Fiterator@?$_Tree@V?$_Tmap_traits@KP8CDPAccountClient@@AEXAAVCAr@@K@ZU?$less@K@std@@V?$allocator@U?$pair@$$CBKP8CDPAccountClient@@AEXAAVCAr@@K@Z@std@@@4@$0A@@std@@@std@@QAEAAV012@XZ 00408840 f i dpaccountclient.obj
 0001:00007850       ??Fiterator@?$_Tree@V?$_Tmap_traits@KPAUtagSERVER_DESC@@U?$less@K@std@@V?$allocator@U?$pair@$$CBKPAUtagSERVER_DESC@@@std@@@3@$0A@@std@@@std@@QAEAAV012@XZ 00408850 f i dpaccountclient.obj
 0001:00007860       ?_Init@?$_Tree@V?$_Tmap_traits@KP8CDPAccountClient@@AEXAAVCAr@@K@ZU?$less@K@std@@V?$allocator@U?$pair@$$CBKP8CDPAccountClient@@AEXAAVCAr@@K@Z@std@@@4@$0A@@std@@@std@@IAEXXZ 00408860 f i dpaccountclient.obj
 0001:00007890       ??0?$_Tree_val@V?$_Tmap_traits@KP8CDPAccountClient@@AEXAAVCAr@@K@ZU?$less@K@std@@V?$allocator@U?$pair@$$CBKP8CDPAccountClient@@AEXAAVCAr@@K@Z@std@@@4@$0A@@std@@@std@@IAE@ABU?$less@K@1@V?$allocator@U?$pair@$$CBKP8CDPAccountClient@@AEXAAVCAr@@K@Z@std@@@1@@Z 00408890 f i dpaccountclient.obj
 0001:000078a0       ?clear@?$_Tree@V?$_Tmap_traits@KP8CDPAccountClient@@AEXAAVCAr@@K@ZU?$less@K@std@@V?$allocator@U?$pair@$$CBKP8CDPAccountClient@@AEXAAVCAr@@K@Z@std@@@4@$0A@@std@@@std@@QAEXXZ 004088a0 f i dpaccountclient.obj
 0001:000078d0       ??Eiterator@?$_Tree@V?$_Tmap_traits@KP8CDPAccountClient@@AEXAAVCAr@@K@ZU?$less@K@std@@V?$allocator@U?$pair@$$CBKP8CDPAccountClient@@AEXAAVCAr@@K@Z@std@@@4@$0A@@std@@@std@@QAE?AV012@H@Z 004088d0 f i dpaccountclient.obj
 0001:000078f0       ?GetHandler@CDPAccountClient@@AAEP81@AEXAAVCAr@@K@ZK@Z 004088f0 f i dpaccountclient.obj
 0001:00007920       ?UserMessageHandler@CDPAccountClient@@UAEXPAUDPMSG_GENERIC@@KK@Z 00408920 f   dpaccountclient.obj
 0001:00007a10       ?OnPlayerCount@CDPAccountClient@@AAEXAAVCAr@@K@Z 00408a10 f   dpaccountclient.obj
 0001:00007a80       ?OnEnableServer@CDPAccountClient@@AAEXAAVCAr@@K@Z 00408a80 f   dpaccountclient.obj
 0001:00007af0       ??0?$_Tree@V?$_Tmap_traits@KP8CDPAccountClient@@AEXAAVCAr@@K@ZU?$less@K@std@@V?$allocator@U?$pair@$$CBKP8CDPAccountClient@@AEXAAVCAr@@K@Z@std@@@4@$0A@@std@@@std@@QAE@ABU?$less@K@1@ABV?$allocator@U?$pair@$$CBKP8CDPAccountClient@@AEXAAVCAr@@K@Z@std@@@1@@Z 00408af0 f i dpaccountclient.obj
 0001:00007b20       ?_Insert@?$_Tree@V?$_Tmap_traits@KPAUtagSERVER_DESC@@U?$less@K@std@@V?$allocator@U?$pair@$$CBKPAUtagSERVER_DESC@@@std@@@3@$0A@@std@@@std@@IAE?AViterator@12@_NPAU_Node@?$_Tree_nod@V?$_Tmap_traits@KPAUtagSERVER_DESC@@U?$less@K@std@@V?$allocator@U?$pair@$$CBKPAUtagSERVER_DESC@@@std@@@3@$0A@@std@@@2@ABU?$pair@$$CBKPAUtagSERVER_DESC@@@2@@Z 00408b20 f i dpaccountclient.obj
 0001:00007cd0       ?_Insert@?$_Tree@V?$_Tmap_traits@KP8CDPAccountClient@@AEXAAVCAr@@K@ZU?$less@K@std@@V?$allocator@U?$pair@$$CBKP8CDPAccountClient@@AEXAAVCAr@@K@Z@std@@@4@$0A@@std@@@std@@IAE?AViterator@12@_NPAU_Node@?$_Tree_nod@V?$_Tmap_traits@KP8CDPAccountClient@@AEXAAVCAr@@K@ZU?$less@K@std@@V?$allocator@U?$pair@$$CBKP8CDPAccountClient@@AEXAAVCAr@@K@Z@std@@@4@$0A@@std@@@2@ABU?$pair@$$CBKP8CDPAccountClient@@AEXAAVCAr@@K@Z@2@@Z 00408cd0 f i dpaccountclient.obj
 0001:00007e80       ?erase@?$_Tree@V?$_Tmap_traits@KP8CDPAccountClient@@AEXAAVCAr@@K@ZU?$less@K@std@@V?$allocator@U?$pair@$$CBKP8CDPAccountClient@@AEXAAVCAr@@K@Z@std@@@4@$0A@@std@@@std@@QAE?AViterator@12@V312@@Z 00408e80 f i dpaccountclient.obj
 0001:00008140       ?insert@?$_Tree@V?$_Tmap_traits@KPAUtagSERVER_DESC@@U?$less@K@std@@V?$allocator@U?$pair@$$CBKPAUtagSERVER_DESC@@@std@@@3@$0A@@std@@@std@@QAE?AU?$pair@Viterator@?$_Tree@V?$_Tmap_traits@KPAUtagSERVER_DESC@@U?$less@K@std@@V?$allocator@U?$pair@$$CBKPAUtagSERVER_DESC@@@std@@@3@$0A@@std@@@std@@_N@2@ABU?$pair@$$CBKPAUtagSERVER_DESC@@@2@@Z 00409140 f i dpaccountclient.obj
 0001:00008200       ?insert@?$_Tree@V?$_Tmap_traits@KP8CDPAccountClient@@AEXAAVCAr@@K@ZU?$less@K@std@@V?$allocator@U?$pair@$$CBKP8CDPAccountClient@@AEXAAVCAr@@K@Z@std@@@4@$0A@@std@@@std@@QAE?AU?$pair@Viterator@?$_Tree@V?$_Tmap_traits@KP8CDPAccountClient@@AEXAAVCAr@@K@ZU?$less@K@std@@V?$allocator@U?$pair@$$CBKP8CDPAccountClient@@AEXAAVCAr@@K@Z@std@@@4@$0A@@std@@@std@@_N@2@ABU?$pair@$$CBKP8CDPAccountClient@@AEXAAVCAr@@K@Z@2@@Z 00409200 f i dpaccountclient.obj
 0001:000082c0       ?erase@?$_Tree@V?$_Tmap_traits@KP8CDPAccountClient@@AEXAAVCAr@@K@ZU?$less@K@std@@V?$allocator@U?$pair@$$CBKP8CDPAccountClient@@AEXAAVCAr@@K@Z@std@@@4@$0A@@std@@@std@@QAE?AViterator@12@V312@0@Z 004092c0 f i dpaccountclient.obj
 0001:00008380       ?OnServersetList@CDPAccountClient@@AAEXAAVCAr@@K@Z 00409380 f   dpaccountclient.obj
 0001:00008520       ?_Tidy@?$_Tree@V?$_Tmap_traits@KP8CDPAccountClient@@AEXAAVCAr@@K@ZU?$less@K@std@@V?$allocator@U?$pair@$$CBKP8CDPAccountClient@@AEXAAVCAr@@K@Z@std@@@4@$0A@@std@@@std@@IAEXXZ 00409520 f i dpaccountclient.obj
 0001:00008550       ??1?$_Tree@V?$_Tmap_traits@KP8CDPAccountClient@@AEXAAVCAr@@K@ZU?$less@K@std@@V?$allocator@U?$pair@$$CBKP8CDPAccountClient@@AEXAAVCAr@@K@Z@std@@@4@$0A@@std@@@std@@QAE@XZ 00409550 f i dpaccountclient.obj
 0001:00008580       ??1?$map@KP8CDPAccountClient@@AEXAAVCAr@@K@ZU?$less@K@std@@V?$allocator@U?$pair@$$CBKP8CDPAccountClient@@AEXAAVCAr@@K@Z@std@@@4@@std@@QAE@XZ 00409580 f i dpaccountclient.obj
 0001:000085b0       ??1CDPAccountClient@@UAE@XZ 004095b0 f   dpaccountclient.obj
 0001:00008630       ??0?$map@KP8CDPAccountClient@@AEXAAVCAr@@K@ZU?$less@K@std@@V?$allocator@U?$pair@$$CBKP8CDPAccountClient@@AEXAAVCAr@@K@Z@std@@@4@@std@@QAE@XZ 00409630 f i dpaccountclient.obj
 0001:00008660       ??0CDPAccountClient@@QAE@XZ 00409660 f   dpaccountclient.obj
 0001:00008780       ??_GCDPAccountClient@@UAEPAXI@Z 00409780 f i dpaccountclient.obj
 0001:00008780       ??_ECDPAccountClient@@UAEPAXI@Z 00409780 f i dpaccountclient.obj
 0001:000087a0       __tcslwr                   004097a0 f i DPCertifier.obj
 0001:000087b0       ??0tagSERVER_DESC@@QAE@XZ  004097b0 f i DPCertifier.obj
 0001:000087e0       ?SetAccount@CUser@@QAEXPBD@Z 004097e0 f i DPCertifier.obj
 0001:00008800       ??0CLoginLimit@@QAE@XZ     00409800 f   DPCertifier.obj
 0001:00008820       ?Check@CLoginLimit@@QAE_NXZ 00409820 f   DPCertifier.obj
 0001:00008860       ??_H@YGXPAXIHP6EPAX0@Z@Z   00409860 f i DPCertifier.obj
 0001:00008890       ?SetLimitation@CDPCertifier@@QAEXH@Z 00409890 f   DPCertifier.obj
 0001:000088a0       ?OnAddConnection@CDPCertifier@@AAEXK@Z 004098a0 f   DPCertifier.obj
 0001:000088c0       ?SendError@CDPCertifier@@QAEXJK@Z 004098c0 f   DPCertifier.obj
 0001:000089b0       ?SendErrorString@CDPCertifier@@QAEXPBDK@Z 004099b0 f   DPCertifier.obj
 0001:00008a90       ?OnRemoveConnection@CDPCertifier@@AAEXK@Z 00409a90 f   DPCertifier.obj
 0001:00008ac0       ?OnError@CDPCertifier@@AAEXAAVCAr@@KPAEK@Z 00409ac0 f   DPCertifier.obj
 0001:00008ad0       ?OnPing@CDPCertifier@@AAEXAAVCAr@@KPAEK@Z 00409ad0 f   DPCertifier.obj
 0001:00008af0       ??0?$pair@$$CBKP8CDPCertifier@@AEXAAVCAr@@KPAEK@Z@std@@QAE@ABKABQ8CDPCertifier@@AEXAAVCAr@@KPAEK@Z@Z 00409af0 f i DPCertifier.obj
 0001:00008b10       ??0?$allocator@U?$pair@$$CBKPAUtagSERVER_DESC@@@std@@@std@@QAE@XZ 00409b10 f i DPCertifier.obj
 0001:00008b20       ?_Isnil@?$_Tree@V?$_Tmap_traits@KP8CDPCertifier@@AEXAAVCAr@@KPAEK@ZU?$less@K@std@@V?$allocator@U?$pair@$$CBKP8CDPCertifier@@AEXAAVCAr@@KPAEK@Z@std@@@4@$0A@@std@@@std@@KAAADPAU_Node@?$_Tree_nod@V?$_Tmap_traits@KP8CDPCertifier@@AEXAAVCAr@@KPAEK@ZU?$less@K@std@@V?$allocator@U?$pair@$$CBKP8CDPCertifier@@AEXAAVCAr@@KPAEK@Z@std@@@4@$0A@@std@@@2@@Z 00409b20 f i DPCertifier.obj
 0001:00008b30       ?_Left@?$_Tree@V?$_Tmap_traits@KP8CDPCertifier@@AEXAAVCAr@@KPAEK@ZU?$less@K@std@@V?$allocator@U?$pair@$$CBKP8CDPCertifier@@AEXAAVCAr@@KPAEK@Z@std@@@4@$0A@@std@@@std@@KAAAPAU_Node@?$_Tree_nod@V?$_Tmap_traits@KP8CDPCertifier@@AEXAAVCAr@@KPAEK@ZU?$less@K@std@@V?$allocator@U?$pair@$$CBKP8CDPCertifier@@AEXAAVCAr@@KPAEK@Z@std@@@4@$0A@@std@@@2@PAU342@@Z 00409b30 f i DPCertifier.obj
 0001:00008b40       ?_Right@?$_Tree@V?$_Tmap_traits@KP8CDPCertifier@@AEXAAVCAr@@KPAEK@ZU?$less@K@std@@V?$allocator@U?$pair@$$CBKP8CDPCertifier@@AEXAAVCAr@@KPAEK@Z@std@@@4@$0A@@std@@@std@@KAAAPAU_Node@?$_Tree_nod@V?$_Tmap_traits@KP8CDPCertifier@@AEXAAVCAr@@KPAEK@ZU?$less@K@std@@V?$allocator@U?$pair@$$CBKP8CDPCertifier@@AEXAAVCAr@@KPAEK@Z@std@@@4@$0A@@std@@@2@PAU342@@Z 00409b40 f i DPCertifier.obj
 0001:00008b50       ??0CTimeSpan@ATL@@QAE@XZ   00409b50 f i DPCertifier.obj
 0001:00008b60       ??0CTimeSpan@ATL@@QAE@_J@Z 00409b60 f i DPCertifier.obj
 0001:00008b80       ??0CTimeSpan@ATL@@QAE@JHHH@Z 00409b80 f i DPCertifier.obj
 0001:00008be0       ?GetTotalSeconds@CTimeSpan@ATL@@QBE_JXZ 00409be0 f i DPCertifier.obj
 0001:00008bf0       ??YCTimeSpan@ATL@@QAEAAV01@V01@@Z 00409bf0 f i DPCertifier.obj
 0001:00008c10       ?_Kfn@?$_Tmap_traits@KP8CDPCertifier@@AEXAAVCAr@@KPAEK@ZU?$less@K@std@@V?$allocator@U?$pair@$$CBKP8CDPCertifier@@AEXAAVCAr@@KPAEK@Z@std@@@4@$0A@@std@@SAABKABU?$pair@$$CBKP8CDPCertifier@@AEXAAVCAr@@KPAEK@Z@2@@Z 00409c10 f i DPCertifier.obj
 0001:00008c20       ??0?$allocator@U?$pair@$$CBKP8CDPCertifier@@AEXAAVCAr@@KPAEK@Z@std@@@std@@QAE@XZ 00409c20 f i DPCertifier.obj
 0001:00008c30       ??8const_iterator@?$_Tree@V?$_Tmap_traits@KP8CDPCertifier@@AEXAAVCAr@@KPAEK@ZU?$less@K@std@@V?$allocator@U?$pair@$$CBKP8CDPCertifier@@AEXAAVCAr@@KPAEK@Z@std@@@4@$0A@@std@@@std@@QBE_NABV012@@Z 00409c30 f i DPCertifier.obj
 0001:00008c40       ?_Mynode@const_iterator@?$_Tree@V?$_Tmap_traits@KP8CDPCertifier@@AEXAAVCAr@@KPAEK@ZU?$less@K@std@@V?$allocator@U?$pair@$$CBKP8CDPCertifier@@AEXAAVCAr@@KPAEK@Z@std@@@4@$0A@@std@@@std@@QBEPAU_Node@?$_Tree_nod@V?$_Tmap_traits@KP8CDPCertifier@@AEXAAVCAr@@KPAEK@ZU?$less@K@std@@V?$allocator@U?$pair@$$CBKP8CDPCertifier@@AEXAAVCAr@@KPAEK@Z@std@@@4@$0A@@std@@@3@XZ 00409c40 f i DPCertifier.obj
 0001:00008c50       ??0?$pair@Viterator@?$_Tree@V?$_Tmap_traits@KP8CDPCertifier@@AEXAAVCAr@@KPAEK@ZU?$less@K@std@@V?$allocator@U?$pair@$$CBKP8CDPCertifier@@AEXAAVCAr@@KPAEK@Z@std@@@4@$0A@@std@@@std@@_N@std@@QAE@ABViterator@?$_Tree@V?$_Tmap_traits@KP8CDPCertifier@@AEXAAVCAr@@KPAEK@ZU?$less@K@std@@V?$allocator@U?$pair@$$CBKP8CDPCertifier@@AEXAAVCAr@@KPAEK@Z@std@@@4@$0A@@std@@@1@AB_N@Z 00409c50 f i DPCertifier.obj
 0001:00008c70       ??GCTime@ATL@@QBE?AVCTimeSpan@1@V01@@Z 00409c70 f i DPCertifier.obj
 0001:00008c90       ?GetYear@CTime@ATL@@QBEHXZ 00409c90 f i DPCertifier.obj
 0001:00008cb0       ?GetMonth@CTime@ATL@@QBEHXZ 00409cb0 f i DPCertifier.obj
 0001:00008cd0       ?GetDay@CTime@ATL@@QBEHXZ  00409cd0 f i DPCertifier.obj
 0001:00008cf0       ??0?$allocator@U?$pair@$$CBKPAUtagSERVER_DESC@@@std@@@std@@QAE@ABV01@@Z 00409cf0 f i DPCertifier.obj
 0001:00008d00       ?_Color@?$_Tree@V?$_Tmap_traits@KP8CDPCertifier@@AEXAAVCAr@@KPAEK@ZU?$less@K@std@@V?$allocator@U?$pair@$$CBKP8CDPCertifier@@AEXAAVCAr@@KPAEK@Z@std@@@4@$0A@@std@@@std@@KAAADPAU_Node@?$_Tree_nod@V?$_Tmap_traits@KP8CDPCertifier@@AEXAAVCAr@@KPAEK@ZU?$less@K@std@@V?$allocator@U?$pair@$$CBKP8CDPCertifier@@AEXAAVCAr@@KPAEK@Z@std@@@4@$0A@@std@@@2@@Z 00409d00 f i DPCertifier.obj
 0001:00008d10       ?_Parent@?$_Tree@V?$_Tmap_traits@KP8CDPCertifier@@AEXAAVCAr@@KPAEK@ZU?$less@K@std@@V?$allocator@U?$pair@$$CBKP8CDPCertifier@@AEXAAVCAr@@KPAEK@Z@std@@@4@$0A@@std@@@std@@KAAAPAU_Node@?$_Tree_nod@V?$_Tmap_traits@KP8CDPCertifier@@AEXAAVCAr@@KPAEK@ZU?$less@K@std@@V?$allocator@U?$pair@$$CBKP8CDPCertifier@@AEXAAVCAr@@KPAEK@Z@std@@@4@$0A@@std@@@2@PAU342@@Z 00409d10 f i DPCertifier.obj
 0001:00008d20       ?_Myval@?$_Tree@V?$_Tmap_traits@KP8CDPCertifier@@AEXAAVCAr@@KPAEK@ZU?$less@K@std@@V?$allocator@U?$pair@$$CBKP8CDPCertifier@@AEXAAVCAr@@KPAEK@Z@std@@@4@$0A@@std@@@std@@KAAAU?$pair@$$CBKP8CDPCertifier@@AEXAAVCAr@@KPAEK@Z@2@PAU_Node@?$_Tree_nod@V?$_Tmap_traits@KP8CDPCertifier@@AEXAAVCAr@@KPAEK@ZU?$less@K@std@@V?$allocator@U?$pair@$$CBKP8CDPCertifier@@AEXAAVCAr@@KPAEK@Z@std@@@4@$0A@@std@@@2@@Z 00409d20 f i DPCertifier.obj
 0001:00008d30       ?_Lmost@?$_Tree@V?$_Tmap_traits@KP8CDPCertifier@@AEXAAVCAr@@KPAEK@ZU?$less@K@std@@V?$allocator@U?$pair@$$CBKP8CDPCertifier@@AEXAAVCAr@@KPAEK@Z@std@@@4@$0A@@std@@@std@@IAEAAPAU_Node@?$_Tree_nod@V?$_Tmap_traits@KP8CDPCertifier@@AEXAAVCAr@@KPAEK@ZU?$less@K@std@@V?$allocator@U?$pair@$$CBKP8CDPCertifier@@AEXAAVCAr@@KPAEK@Z@std@@@4@$0A@@std@@@2@XZ 00409d30 f i DPCertifier.obj
 0001:00008d40       ?_Rmost@?$_Tree@V?$_Tmap_traits@KP8CDPCertifier@@AEXAAVCAr@@KPAEK@ZU?$less@K@std@@V?$allocator@U?$pair@$$CBKP8CDPCertifier@@AEXAAVCAr@@KPAEK@Z@std@@@4@$0A@@std@@@std@@IAEAAPAU_Node@?$_Tree_nod@V?$_Tmap_traits@KP8CDPCertifier@@AEXAAVCAr@@KPAEK@ZU?$less@K@std@@V?$allocator@U?$pair@$$CBKP8CDPCertifier@@AEXAAVCAr@@KPAEK@Z@std@@@4@$0A@@std@@@2@XZ 00409d40 f i DPCertifier.obj
 0001:00008d50       ??0?$allocator@U?$pair@$$CBKP8CDPCertifier@@AEXAAVCAr@@KPAEK@Z@std@@@std@@QAE@ABV01@@Z 00409d50 f i DPCertifier.obj
 0001:00008d60       ?deallocate@?$allocator@U_Node@?$_Tree_nod@V?$_Tmap_traits@KP8CDPCertifier@@AEXAAVCAr@@KPAEK@ZU?$less@K@std@@V?$allocator@U?$pair@$$CBKP8CDPCertifier@@AEXAAVCAr@@KPAEK@Z@std@@@4@$0A@@std@@@std@@@std@@QAEXPAU_Node@?$_Tree_nod@V?$_Tmap_traits@KP8CDPCertifier@@AEXAAVCAr@@KPAEK@ZU?$less@K@std@@V?$allocator@U?$pair@$$CBKP8CDPCertifier@@AEXAAVCAr@@KPAEK@Z@std@@@4@$0A@@std@@@2@I@Z 00409d60 f i DPCertifier.obj
 0001:00008d70       ??0const_iterator@?$_Tree@V?$_Tmap_traits@KP8CDPCertifier@@AEXAAVCAr@@KPAEK@ZU?$less@K@std@@V?$allocator@U?$pair@$$CBKP8CDPCertifier@@AEXAAVCAr@@KPAEK@Z@std@@@4@$0A@@std@@@std@@QAE@PAU_Node@?$_Tree_nod@V?$_Tmap_traits@KP8CDPCertifier@@AEXAAVCAr@@KPAEK@ZU?$less@K@std@@V?$allocator@U?$pair@$$CBKP8CDPCertifier@@AEXAAVCAr@@KPAEK@Z@std@@@4@$0A@@std@@@2@@Z 00409d70 f i DPCertifier.obj
 0001:00008d80       ??Dconst_iterator@?$_Tree@V?$_Tmap_traits@KP8CDPCertifier@@AEXAAVCAr@@KPAEK@ZU?$less@K@std@@V?$allocator@U?$pair@$$CBKP8CDPCertifier@@AEXAAVCAr@@KPAEK@Z@std@@@4@$0A@@std@@@std@@QBEABU?$pair@$$CBKP8CDPCertifier@@AEXAAVCAr@@KPAEK@Z@2@XZ 00409d80 f i DPCertifier.obj
 0001:00008d90       ?_Root@?$_Tree@V?$_Tmap_traits@KP8CDPCertifier@@AEXAAVCAr@@KPAEK@ZU?$less@K@std@@V?$allocator@U?$pair@$$CBKP8CDPCertifier@@AEXAAVCAr@@KPAEK@Z@std@@@4@$0A@@std@@@std@@IBEAAPAU_Node@?$_Tree_nod@V?$_Tmap_traits@KP8CDPCertifier@@AEXAAVCAr@@KPAEK@ZU?$less@K@std@@V?$allocator@U?$pair@$$CBKP8CDPCertifier@@AEXAAVCAr@@KPAEK@Z@std@@@4@$0A@@std@@@2@XZ 00409d90 f i DPCertifier.obj
 0001:00008da0       ?max_size@?$allocator@U?$pair@$$CBKP8CDPCertifier@@AEXAAVCAr@@KPAEK@Z@std@@@std@@QBEIXZ 00409da0 f i DPCertifier.obj
 0001:00008db0       ??0_Node@?$_Tree_nod@V?$_Tmap_traits@KP8CDPCertifier@@AEXAAVCAr@@KPAEK@ZU?$less@K@std@@V?$allocator@U?$pair@$$CBKP8CDPCertifier@@AEXAAVCAr@@KPAEK@Z@std@@@4@$0A@@std@@@std@@QAE@PAU012@00ABU?$pair@$$CBKP8CDPCertifier@@AEXAAVCAr@@KPAEK@Z@2@D@Z 00409db0 f i DPCertifier.obj
 0001:00008df0       ?_Min@?$_Tree@V?$_Tmap_traits@KPAUtagSERVER_DESC@@U?$less@K@std@@V?$allocator@U?$pair@$$CBKPAUtagSERVER_DESC@@@std@@@3@$0A@@std@@@std@@KAPAU_Node@?$_Tree_nod@V?$_Tmap_traits@KPAUtagSERVER_DESC@@U?$less@K@std@@V?$allocator@U?$pair@$$CBKPAUtagSERVER_DESC@@@std@@@3@$0A@@std@@@2@PAU342@@Z 00409df0 f i DPCertifier.obj
 0001:00008e10       ?_Max@?$_Tree@V?$_Tmap_traits@KP8CDPCertifier@@AEXAAVCAr@@KPAEK@ZU?$less@K@std@@V?$allocator@U?$pair@$$CBKP8CDPCertifier@@AEXAAVCAr@@KPAEK@Z@std@@@4@$0A@@std@@@std@@KAPAU_Node@?$_Tree_nod@V?$_Tmap_traits@KP8CDPCertifier@@AEXAAVCAr@@KPAEK@ZU?$less@K@std@@V?$allocator@U?$pair@$$CBKP8CDPCertifier@@AEXAAVCAr@@KPAEK@Z@std@@@4@$0A@@std@@@2@PAU342@@Z 00409e10 f i DPCertifier.obj
 0001:00008e30       ?_Min@?$_Tree@V?$_Tmap_traits@KP8CDPCertifier@@AEXAAVCAr@@KPAEK@ZU?$less@K@std@@V?$allocator@U?$pair@$$CBKP8CDPCertifier@@AEXAAVCAr@@KPAEK@Z@std@@@4@$0A@@std@@@std@@KAPAU_Node@?$_Tree_nod@V?$_Tmap_traits@KP8CDPCertifier@@AEXAAVCAr@@KPAEK@ZU?$less@K@std@@V?$allocator@U?$pair@$$CBKP8CDPCertifier@@AEXAAVCAr@@KPAEK@Z@std@@@4@$0A@@std@@@2@PAU342@@Z 00409e30 f i DPCertifier.obj
 0001:00008e50       ??0?$_Tmap_traits@KPAUtagSERVER_DESC@@U?$less@K@std@@V?$allocator@U?$pair@$$CBKPAUtagSERVER_DESC@@@std@@@3@$0A@@std@@QAE@U?$less@K@1@@Z 00409e50 f i DPCertifier.obj
 0001:00008e60       ??0?$_Tmap_traits@KP8CDPCertifier@@AEXAAVCAr@@KPAEK@ZU?$less@K@std@@V?$allocator@U?$pair@$$CBKP8CDPCertifier@@AEXAAVCAr@@KPAEK@Z@std@@@4@$0A@@std@@QAE@U?$less@K@1@@Z 00409e60 f i DPCertifier.obj
 0001:00008e70       ?_Inc@const_iterator@?$_Tree@V?$_Tmap_traits@KP8CDPCertifier@@AEXAAVCAr@@KPAEK@ZU?$less@K@std@@V?$allocator@U?$pair@$$CBKP8CDPCertifier@@AEXAAVCAr@@KPAEK@Z@std@@@4@$0A@@std@@@std@@QAEXXZ 00409e70 f i DPCertifier.obj
 0001:00008ed0       ?_Inc@const_iterator@?$_Tree@V?$_Tmap_traits@KPAUtagSERVER_DESC@@U?$less@K@std@@V?$allocator@U?$pair@$$CBKPAUtagSERVER_DESC@@@std@@@3@$0A@@std@@@std@@QAEXXZ 00409ed0 f i DPCertifier.obj
 0001:00008f30       ??$_Destroy@PAU_Node@?$_Tree_nod@V?$_Tmap_traits@KPAUtagSERVER_DESC@@U?$less@K@std@@V?$allocator@U?$pair@$$CBKPAUtagSERVER_DESC@@@std@@@3@$0A@@std@@@std@@@std@@YAXPAPAU_Node@?$_Tree_nod@V?$_Tmap_traits@KPAUtagSERVER_DESC@@U?$less@K@std@@V?$allocator@U?$pair@$$CBKPAUtagSERVER_DESC@@@std@@@3@$0A@@std@@@0@@Z 00409f30 f i DPCertifier.obj
 0001:00008f40       ??$_Destroy@PAU_Node@?$_Tree_nod@V?$_Tmap_traits@KP8CDPCertifier@@AEXAAVCAr@@KPAEK@ZU?$less@K@std@@V?$allocator@U?$pair@$$CBKP8CDPCertifier@@AEXAAVCAr@@KPAEK@Z@std@@@4@$0A@@std@@@std@@@std@@YAXPAPAU_Node@?$_Tree_nod@V?$_Tmap_traits@KP8CDPCertifier@@AEXAAVCAr@@KPAEK@ZU?$less@K@std@@V?$allocator@U?$pair@$$CBKP8CDPCertifier@@AEXAAVCAr@@KPAEK@Z@std@@@4@$0A@@std@@@0@@Z 00409f40 f i DPCertifier.obj
 0001:00008f50       ??$?0U?$pair@$$CBKPAUtagSERVER_DESC@@@std@@@?$allocator@PAU_Node@?$_Tree_nod@V?$_Tmap_traits@KPAUtagSERVER_DESC@@U?$less@K@std@@V?$allocator@U?$pair@$$CBKPAUtagSERVER_DESC@@@std@@@3@$0A@@std@@@std@@@std@@QAE@ABV?$allocator@U?$pair@$$CBKPAUtagSERVER_DESC@@@std@@@1@@Z 00409f50 f i DPCertifier.obj
 0001:00008f60       ??$?0U?$pair@$$CBKP8CDPCertifier@@AEXAAVCAr@@KPAEK@Z@std@@@?$allocator@PAU_Node@?$_Tree_nod@V?$_Tmap_traits@KP8CDPCertifier@@AEXAAVCAr@@KPAEK@ZU?$less@K@std@@V?$allocator@U?$pair@$$CBKP8CDPCertifier@@AEXAAVCAr@@KPAEK@Z@std@@@4@$0A@@std@@@std@@@std@@QAE@ABV?$allocator@U?$pair@$$CBKP8CDPCertifier@@AEXAAVCAr@@KPAEK@Z@std@@@1@@Z 00409f60 f i DPCertifier.obj
 0001:00008f70       ??$_Allocate@U_Node@?$_Tree_nod@V?$_Tmap_traits@KP8CDPCertifier@@AEXAAVCAr@@KPAEK@ZU?$less@K@std@@V?$allocator@U?$pair@$$CBKP8CDPCertifier@@AEXAAVCAr@@KPAEK@Z@std@@@4@$0A@@std@@@std@@@std@@YAPAU_Node@?$_Tree_nod@V?$_Tmap_traits@KP8CDPCertifier@@AEXAAVCAr@@KPAEK@ZU?$less@K@std@@V?$allocator@U?$pair@$$CBKP8CDPCertifier@@AEXAAVCAr@@KPAEK@Z@std@@@4@$0A@@std@@@0@IPAU120@@Z 00409f70 f i DPCertifier.obj
 0001:00008f90       ??$?0U?$pair@$$CBKPAUtagSERVER_DESC@@@std@@@?$allocator@U_Node@?$_Tree_nod@V?$_Tmap_traits@KPAUtagSERVER_DESC@@U?$less@K@std@@V?$allocator@U?$pair@$$CBKPAUtagSERVER_DESC@@@std@@@3@$0A@@std@@@std@@@std@@QAE@ABV?$allocator@U?$pair@$$CBKPAUtagSERVER_DESC@@@std@@@1@@Z 00409f90 f i DPCertifier.obj
 0001:00008fa0       ??$_Destroy@U_Node@?$_Tree_nod@V?$_Tmap_traits@KPAUtagSERVER_DESC@@U?$less@K@std@@V?$allocator@U?$pair@$$CBKPAUtagSERVER_DESC@@@std@@@3@$0A@@std@@@std@@@std@@YAXPAU_Node@?$_Tree_nod@V?$_Tmap_traits@KPAUtagSERVER_DESC@@U?$less@K@std@@V?$allocator@U?$pair@$$CBKPAUtagSERVER_DESC@@@std@@@3@$0A@@std@@@0@@Z 00409fa0 f i DPCertifier.obj
 0001:00008fb0       ??$_Construct@PAU_Node@?$_Tree_nod@V?$_Tmap_traits@KPAUtagSERVER_DESC@@U?$less@K@std@@V?$allocator@U?$pair@$$CBKPAUtagSERVER_DESC@@@std@@@3@$0A@@std@@@std@@PAU123@@std@@YAXPAPAU_Node@?$_Tree_nod@V?$_Tmap_traits@KPAUtagSERVER_DESC@@U?$less@K@std@@V?$allocator@U?$pair@$$CBKPAUtagSERVER_DESC@@@std@@@3@$0A@@std@@@0@ABQAU120@@Z 00409fb0 f i DPCertifier.obj
 0001:00008fd0       ??$?0U?$pair@$$CBKP8CDPCertifier@@AEXAAVCAr@@KPAEK@Z@std@@@?$allocator@U_Node@?$_Tree_nod@V?$_Tmap_traits@KP8CDPCertifier@@AEXAAVCAr@@KPAEK@ZU?$less@K@std@@V?$allocator@U?$pair@$$CBKP8CDPCertifier@@AEXAAVCAr@@KPAEK@Z@std@@@4@$0A@@std@@@std@@@std@@QAE@ABV?$allocator@U?$pair@$$CBKP8CDPCertifier@@AEXAAVCAr@@KPAEK@Z@std@@@1@@Z 00409fd0 f i DPCertifier.obj
 0001:00008fe0       ??$_Destroy@U_Node@?$_Tree_nod@V?$_Tmap_traits@KP8CDPCertifier@@AEXAAVCAr@@KPAEK@ZU?$less@K@std@@V?$allocator@U?$pair@$$CBKP8CDPCertifier@@AEXAAVCAr@@KPAEK@Z@std@@@4@$0A@@std@@@std@@@std@@YAXPAU_Node@?$_Tree_nod@V?$_Tmap_traits@KP8CDPCertifier@@AEXAAVCAr@@KPAEK@ZU?$less@K@std@@V?$allocator@U?$pair@$$CBKP8CDPCertifier@@AEXAAVCAr@@KPAEK@Z@std@@@4@$0A@@std@@@0@@Z 00409fe0 f i DPCertifier.obj
 0001:00008ff0       ??$_Construct@PAU_Node@?$_Tree_nod@V?$_Tmap_traits@KP8CDPCertifier@@AEXAAVCAr@@KPAEK@ZU?$less@K@std@@V?$allocator@U?$pair@$$CBKP8CDPCertifier@@AEXAAVCAr@@KPAEK@Z@std@@@4@$0A@@std@@@std@@PAU123@@std@@YAXPAPAU_Node@?$_Tree_nod@V?$_Tmap_traits@KP8CDPCertifier@@AEXAAVCAr@@KPAEK@ZU?$less@K@std@@V?$allocator@U?$pair@$$CBKP8CDPCertifier@@AEXAAVCAr@@KPAEK@Z@std@@@4@$0A@@std@@@0@ABQAU120@@Z 00409ff0 f i DPCertifier.obj
 0001:00009010       ??Dconst_iterator@?$deque@PAUtagDB_OVERLAPPED_PLUS@@V?$allocator@PAUtagDB_OVERLAPPED_PLUS@@@std@@@std@@QBEABQAUtagDB_OVERLAPPED_PLUS@@XZ 0040a010 f i DPCertifier.obj
 0001:00009040       ??Yiterator@?$deque@PAUtagDB_OVERLAPPED_PLUS@@V?$allocator@PAUtagDB_OVERLAPPED_PLUS@@@std@@@std@@QAEAAV012@H@Z 0040a040 f i DPCertifier.obj
 0001:00009060       ??0const_iterator@?$deque@PAUtagDB_OVERLAPPED_PLUS@@V?$allocator@PAUtagDB_OVERLAPPED_PLUS@@@std@@@std@@QAE@IPBV12@@Z 0040a060 f i DPCertifier.obj
 0001:00009080       ?ResetChain@CRijndael@@QAEXXZ 0040a080 f i DPCertifier.obj
 0001:000090b0       ??6CAr@@QAEAAV0@H@Z        0040a0b0 f i DPCertifier.obj
 0001:000090d0       ?SysMessageHandler@CDPCertifier@@UAEXPAUDPMSG_GENERIC@@KK@Z 0040a0d0 f   DPCertifier.obj
 0001:00009120       ?OnKeepAlive@CDPCertifier@@AAEXAAVCAr@@KPAEK@Z 0040a120 f   DPCertifier.obj
 0001:00009190       ??9const_iterator@?$_Tree@V?$_Tmap_traits@KP8CDPCertifier@@AEXAAVCAr@@KPAEK@ZU?$less@K@std@@V?$allocator@U?$pair@$$CBKP8CDPCertifier@@AEXAAVCAr@@KPAEK@Z@std@@@4@$0A@@std@@@std@@QBE_NABV012@@Z 0040a190 f i DPCertifier.obj
 0001:000091b0       ?_Key@?$_Tree@V?$_Tmap_traits@KP8CDPCertifier@@AEXAAVCAr@@KPAEK@ZU?$less@K@std@@V?$allocator@U?$pair@$$CBKP8CDPCertifier@@AEXAAVCAr@@KPAEK@Z@std@@@4@$0A@@std@@@std@@KAABKPAU_Node@?$_Tree_nod@V?$_Tmap_traits@KP8CDPCertifier@@AEXAAVCAr@@KPAEK@ZU?$less@K@std@@V?$allocator@U?$pair@$$CBKP8CDPCertifier@@AEXAAVCAr@@KPAEK@Z@std@@@4@$0A@@std@@@2@@Z 0040a1b0 f i DPCertifier.obj
 0001:000091c0       ?_Root@?$_Tree@V?$_Tmap_traits@KP8CDPCertifier@@AEXAAVCAr@@KPAEK@ZU?$less@K@std@@V?$allocator@U?$pair@$$CBKP8CDPCertifier@@AEXAAVCAr@@KPAEK@Z@std@@@4@$0A@@std@@@std@@IAEAAPAU_Node@?$_Tree_nod@V?$_Tmap_traits@KP8CDPCertifier@@AEXAAVCAr@@KPAEK@ZU?$less@K@std@@V?$allocator@U?$pair@$$CBKP8CDPCertifier@@AEXAAVCAr@@KPAEK@Z@std@@@4@$0A@@std@@@2@XZ 0040a1c0 f i DPCertifier.obj
 0001:000091d0       ??0iterator@?$_Tree@V?$_Tmap_traits@KP8CDPCertifier@@AEXAAVCAr@@KPAEK@ZU?$less@K@std@@V?$allocator@U?$pair@$$CBKP8CDPCertifier@@AEXAAVCAr@@KPAEK@Z@std@@@4@$0A@@std@@@std@@QAE@PAU_Node@?$_Tree_nod@V?$_Tmap_traits@KP8CDPCertifier@@AEXAAVCAr@@KPAEK@ZU?$less@K@std@@V?$allocator@U?$pair@$$CBKP8CDPCertifier@@AEXAAVCAr@@KPAEK@Z@std@@@4@$0A@@std@@@2@@Z 0040a1d0 f i DPCertifier.obj
 0001:000091e0       ??Diterator@?$_Tree@V?$_Tmap_traits@KP8CDPCertifier@@AEXAAVCAr@@KPAEK@ZU?$less@K@std@@V?$allocator@U?$pair@$$CBKP8CDPCertifier@@AEXAAVCAr@@KPAEK@Z@std@@@4@$0A@@std@@@std@@QBEAAU?$pair@$$CBKP8CDPCertifier@@AEXAAVCAr@@KPAEK@Z@2@XZ 0040a1e0 f i DPCertifier.obj
 0001:000091f0       ?destroy@?$allocator@PAU_Node@?$_Tree_nod@V?$_Tmap_traits@KPAUtagSERVER_DESC@@U?$less@K@std@@V?$allocator@U?$pair@$$CBKPAUtagSERVER_DESC@@@std@@@3@$0A@@std@@@std@@@std@@QAEXPAPAU_Node@?$_Tree_nod@V?$_Tmap_traits@KPAUtagSERVER_DESC@@U?$less@K@std@@V?$allocator@U?$pair@$$CBKPAUtagSERVER_DESC@@@std@@@3@$0A@@std@@@2@@Z 0040a1f0 f i DPCertifier.obj
 0001:00009200       ?max_size@?$_Tree@V?$_Tmap_traits@KP8CDPCertifier@@AEXAAVCAr@@KPAEK@ZU?$less@K@std@@V?$allocator@U?$pair@$$CBKP8CDPCertifier@@AEXAAVCAr@@KPAEK@Z@std@@@4@$0A@@std@@@std@@QBEIXZ 0040a200 f i DPCertifier.obj
 0001:00009210       ?_Lbound@?$_Tree@V?$_Tmap_traits@KP8CDPCertifier@@AEXAAVCAr@@KPAEK@ZU?$less@K@std@@V?$allocator@U?$pair@$$CBKP8CDPCertifier@@AEXAAVCAr@@KPAEK@Z@std@@@4@$0A@@std@@@std@@IBEPAU_Node@?$_Tree_nod@V?$_Tmap_traits@KP8CDPCertifier@@AEXAAVCAr@@KPAEK@ZU?$less@K@std@@V?$allocator@U?$pair@$$CBKP8CDPCertifier@@AEXAAVCAr@@KPAEK@Z@std@@@4@$0A@@std@@@2@ABK@Z 0040a210 f i DPCertifier.obj
 0001:00009240       ?_Lrotate@?$_Tree@V?$_Tmap_traits@KP8CDPCertifier@@AEXAAVCAr@@KPAEK@ZU?$less@K@std@@V?$allocator@U?$pair@$$CBKP8CDPCertifier@@AEXAAVCAr@@KPAEK@Z@std@@@4@$0A@@std@@@std@@IAEXPAU_Node@?$_Tree_nod@V?$_Tmap_traits@KP8CDPCertifier@@AEXAAVCAr@@KPAEK@ZU?$less@K@std@@V?$allocator@U?$pair@$$CBKP8CDPCertifier@@AEXAAVCAr@@KPAEK@Z@std@@@4@$0A@@std@@@2@@Z 0040a240 f i DPCertifier.obj
 0001:000092a0       ?_Rrotate@?$_Tree@V?$_Tmap_traits@KP8CDPCertifier@@AEXAAVCAr@@KPAEK@ZU?$less@K@std@@V?$allocator@U?$pair@$$CBKP8CDPCertifier@@AEXAAVCAr@@KPAEK@Z@std@@@4@$0A@@std@@@std@@IAEXPAU_Node@?$_Tree_nod@V?$_Tmap_traits@KP8CDPCertifier@@AEXAAVCAr@@KPAEK@ZU?$less@K@std@@V?$allocator@U?$pair@$$CBKP8CDPCertifier@@AEXAAVCAr@@KPAEK@Z@std@@@4@$0A@@std@@@2@@Z 0040a2a0 f i DPCertifier.obj
 0001:00009300       ?destroy@?$allocator@PAU_Node@?$_Tree_nod@V?$_Tmap_traits@KP8CDPCertifier@@AEXAAVCAr@@KPAEK@ZU?$less@K@std@@V?$allocator@U?$pair@$$CBKP8CDPCertifier@@AEXAAVCAr@@KPAEK@Z@std@@@4@$0A@@std@@@std@@@std@@QAEXPAPAU_Node@?$_Tree_nod@V?$_Tmap_traits@KP8CDPCertifier@@AEXAAVCAr@@KPAEK@ZU?$less@K@std@@V?$allocator@U?$pair@$$CBKP8CDPCertifier@@AEXAAVCAr@@KPAEK@Z@std@@@4@$0A@@std@@@2@@Z 0040a300 f i DPCertifier.obj
 0001:00009310       ?allocate@?$allocator@U_Node@?$_Tree_nod@V?$_Tmap_traits@KP8CDPCertifier@@AEXAAVCAr@@KPAEK@ZU?$less@K@std@@V?$allocator@U?$pair@$$CBKP8CDPCertifier@@AEXAAVCAr@@KPAEK@Z@std@@@4@$0A@@std@@@std@@@std@@QAEPAU_Node@?$_Tree_nod@V?$_Tmap_traits@KP8CDPCertifier@@AEXAAVCAr@@KPAEK@ZU?$less@K@std@@V?$allocator@U?$pair@$$CBKP8CDPCertifier@@AEXAAVCAr@@KPAEK@Z@std@@@4@$0A@@std@@@2@I@Z 0040a310 f i DPCertifier.obj
 0001:00009330       ?_Dec@const_iterator@?$_Tree@V?$_Tmap_traits@KP8CDPCertifier@@AEXAAVCAr@@KPAEK@ZU?$less@K@std@@V?$allocator@U?$pair@$$CBKP8CDPCertifier@@AEXAAVCAr@@KPAEK@Z@std@@@4@$0A@@std@@@std@@QAEXXZ 0040a330 f i DPCertifier.obj
 0001:00009390       ??0?$_Tree_nod@V?$_Tmap_traits@KPAUtagSERVER_DESC@@U?$less@K@std@@V?$allocator@U?$pair@$$CBKPAUtagSERVER_DESC@@@std@@@3@$0A@@std@@@std@@IAE@ABU?$less@K@1@V?$allocator@U?$pair@$$CBKPAUtagSERVER_DESC@@@std@@@1@@Z 0040a390 f i DPCertifier.obj
 0001:000093a0       ?destroy@?$allocator@U_Node@?$_Tree_nod@V?$_Tmap_traits@KPAUtagSERVER_DESC@@U?$less@K@std@@V?$allocator@U?$pair@$$CBKPAUtagSERVER_DESC@@@std@@@3@$0A@@std@@@std@@@std@@QAEXPAU_Node@?$_Tree_nod@V?$_Tmap_traits@KPAUtagSERVER_DESC@@U?$less@K@std@@V?$allocator@U?$pair@$$CBKPAUtagSERVER_DESC@@@std@@@3@$0A@@std@@@2@@Z 0040a3a0 f i DPCertifier.obj
 0001:000093b0       ?construct@?$allocator@PAU_Node@?$_Tree_nod@V?$_Tmap_traits@KPAUtagSERVER_DESC@@U?$less@K@std@@V?$allocator@U?$pair@$$CBKPAUtagSERVER_DESC@@@std@@@3@$0A@@std@@@std@@@std@@QAEXPAPAU_Node@?$_Tree_nod@V?$_Tmap_traits@KPAUtagSERVER_DESC@@U?$less@K@std@@V?$allocator@U?$pair@$$CBKPAUtagSERVER_DESC@@@std@@@3@$0A@@std@@@2@ABQAU342@@Z 0040a3b0 f i DPCertifier.obj
 0001:000093d0       ??0?$_Tree_nod@V?$_Tmap_traits@KP8CDPCertifier@@AEXAAVCAr@@KPAEK@ZU?$less@K@std@@V?$allocator@U?$pair@$$CBKP8CDPCertifier@@AEXAAVCAr@@KPAEK@Z@std@@@4@$0A@@std@@@std@@IAE@ABU?$less@K@1@V?$allocator@U?$pair@$$CBKP8CDPCertifier@@AEXAAVCAr@@KPAEK@Z@std@@@1@@Z 0040a3d0 f i DPCertifier.obj
 0001:000093e0       ?destroy@?$allocator@U_Node@?$_Tree_nod@V?$_Tmap_traits@KP8CDPCertifier@@AEXAAVCAr@@KPAEK@ZU?$less@K@std@@V?$allocator@U?$pair@$$CBKP8CDPCertifier@@AEXAAVCAr@@KPAEK@Z@std@@@4@$0A@@std@@@std@@@std@@QAEXPAU_Node@?$_Tree_nod@V?$_Tmap_traits@KP8CDPCertifier@@AEXAAVCAr@@KPAEK@ZU?$less@K@std@@V?$allocator@U?$pair@$$CBKP8CDPCertifier@@AEXAAVCAr@@KPAEK@Z@std@@@4@$0A@@std@@@2@@Z 0040a3e0 f i DPCertifier.obj
 0001:000093f0       ?construct@?$allocator@PAU_Node@?$_Tree_nod@V?$_Tmap_traits@KP8CDPCertifier@@AEXAAVCAr@@KPAEK@ZU?$less@K@std@@V?$allocator@U?$pair@$$CBKP8CDPCertifier@@AEXAAVCAr@@KPAEK@Z@std@@@4@$0A@@std@@@std@@@std@@QAEXPAPAU_Node@?$_Tree_nod@V?$_Tmap_traits@KP8CDPCertifier@@AEXAAVCAr@@KPAEK@ZU?$less@K@std@@V?$allocator@U?$pair@$$CBKP8CDPCertifier@@AEXAAVCAr@@KPAEK@Z@std@@@4@$0A@@std@@@2@ABQAU342@@Z 0040a3f0 f i DPCertifier.obj
 0001:00009410       ??Econst_iterator@?$_Tree@V?$_Tmap_traits@KP8CDPCertifier@@AEXAAVCAr@@KPAEK@ZU?$less@K@std@@V?$allocator@U?$pair@$$CBKP8CDPCertifier@@AEXAAVCAr@@KPAEK@Z@std@@@4@$0A@@std@@@std@@QAEAAV012@XZ 0040a410 f i DPCertifier.obj
 0001:00009420       ??Econst_iterator@?$_Tree@V?$_Tmap_traits@KPAUtagSERVER_DESC@@U?$less@K@std@@V?$allocator@U?$pair@$$CBKPAUtagSERVER_DESC@@@std@@@3@$0A@@std@@@std@@QAEAAV012@XZ 0040a420 f i DPCertifier.obj
 0001:00009430       ?empty@?$stack@PAUtagDB_OVERLAPPED_PLUS@@V?$deque@PAUtagDB_OVERLAPPED_PLUS@@V?$allocator@PAUtagDB_OVERLAPPED_PLUS@@@std@@@std@@@std@@QBE_NXZ 0040a430 f i DPCertifier.obj
 0001:00009440       ??Diterator@?$deque@PAUtagDB_OVERLAPPED_PLUS@@V?$allocator@PAUtagDB_OVERLAPPED_PLUS@@@std@@@std@@QBEAAPAUtagDB_OVERLAPPED_PLUS@@XZ 0040a440 f i DPCertifier.obj
 0001:00009470       ??0iterator@?$deque@PAUtagDB_OVERLAPPED_PLUS@@V?$allocator@PAUtagDB_OVERLAPPED_PLUS@@@std@@@std@@QAE@IPBV12@@Z 0040a470 f i DPCertifier.obj
 0001:00009490       ??Ziterator@?$deque@PAUtagDB_OVERLAPPED_PLUS@@V?$allocator@PAUtagDB_OVERLAPPED_PLUS@@@std@@@std@@QAEAAV012@H@Z 0040a490 f i DPCertifier.obj
 0001:000094b0       ?GetPlayLeftTime@@YAJE@Z   0040a4b0 f   DPCertifier.obj
 0001:00009610       ?SendServerList@CDPCertifier@@QAEXKKEJPBD00@Z 0040a610 f   DPCertifier.obj
 0001:000098a0       ?end@?$_Tree@V?$_Tmap_traits@KP8CDPCertifier@@AEXAAVCAr@@KPAEK@ZU?$less@K@std@@V?$allocator@U?$pair@$$CBKP8CDPCertifier@@AEXAAVCAr@@KPAEK@Z@std@@@4@$0A@@std@@@std@@QAE?AViterator@12@XZ 0040a8a0 f i DPCertifier.obj
 0001:000098b0       ??Citerator@?$_Tree@V?$_Tmap_traits@KP8CDPCertifier@@AEXAAVCAr@@KPAEK@ZU?$less@K@std@@V?$allocator@U?$pair@$$CBKP8CDPCertifier@@AEXAAVCAr@@KPAEK@Z@std@@@4@$0A@@std@@@std@@QBEPAU?$pair@$$CBKP8CDPCertifier@@AEXAAVCAr@@KPAEK@Z@2@XZ 0040a8b0 f i DPCertifier.obj
 0001:000098c0       ?begin@?$_Tree@V?$_Tmap_traits@KP8CDPCertifier@@AEXAAVCAr@@KPAEK@ZU?$less@K@std@@V?$allocator@U?$pair@$$CBKP8CDPCertifier@@AEXAAVCAr@@KPAEK@Z@std@@@4@$0A@@std@@@std@@QAE?AViterator@12@XZ 0040a8c0 f i DPCertifier.obj
 0001:000098d0       ?lower_bound@?$_Tree@V?$_Tmap_traits@KP8CDPCertifier@@AEXAAVCAr@@KPAEK@ZU?$less@K@std@@V?$allocator@U?$pair@$$CBKP8CDPCertifier@@AEXAAVCAr@@KPAEK@Z@std@@@4@$0A@@std@@@std@@QAE?AViterator@12@ABK@Z 0040a8d0 f i DPCertifier.obj
 0001:00009910       ?_Buynode@?$_Tree@V?$_Tmap_traits@KP8CDPCertifier@@AEXAAVCAr@@KPAEK@ZU?$less@K@std@@V?$allocator@U?$pair@$$CBKP8CDPCertifier@@AEXAAVCAr@@KPAEK@Z@std@@@4@$0A@@std@@@std@@IAEPAU_Node@?$_Tree_nod@V?$_Tmap_traits@KP8CDPCertifier@@AEXAAVCAr@@KPAEK@ZU?$less@K@std@@V?$allocator@U?$pair@$$CBKP8CDPCertifier@@AEXAAVCAr@@KPAEK@Z@std@@@4@$0A@@std@@@2@PAU342@00ABU?$pair@$$CBKP8CDPCertifier@@AEXAAVCAr@@KPAEK@Z@2@D@Z 0040a910 f i DPCertifier.obj
 0001:00009950       ??Fconst_iterator@?$_Tree@V?$_Tmap_traits@KP8CDPCertifier@@AEXAAVCAr@@KPAEK@ZU?$less@K@std@@V?$allocator@U?$pair@$$CBKP8CDPCertifier@@AEXAAVCAr@@KPAEK@Z@std@@@4@$0A@@std@@@std@@QAEAAV012@XZ 0040a950 f i DPCertifier.obj
 0001:00009960       ?_Buynode@?$_Tree@V?$_Tmap_traits@KPAUtagSERVER_DESC@@U?$less@K@std@@V?$allocator@U?$pair@$$CBKPAUtagSERVER_DESC@@@std@@@3@$0A@@std@@@std@@IAEPAU_Node@?$_Tree_nod@V?$_Tmap_traits@KPAUtagSERVER_DESC@@U?$less@K@std@@V?$allocator@U?$pair@$$CBKPAUtagSERVER_DESC@@@std@@@3@$0A@@std@@@2@XZ 0040a960 f i DPCertifier.obj
 0001:000099a0       ??0?$_Tree_ptr@V?$_Tmap_traits@KPAUtagSERVER_DESC@@U?$less@K@std@@V?$allocator@U?$pair@$$CBKPAUtagSERVER_DESC@@@std@@@3@$0A@@std@@@std@@IAE@ABU?$less@K@1@V?$allocator@U?$pair@$$CBKPAUtagSERVER_DESC@@@std@@@1@@Z 0040a9a0 f i DPCertifier.obj
 0001:000099b0       ?_Buynode@?$_Tree@V?$_Tmap_traits@KP8CDPCertifier@@AEXAAVCAr@@KPAEK@ZU?$less@K@std@@V?$allocator@U?$pair@$$CBKP8CDPCertifier@@AEXAAVCAr@@KPAEK@Z@std@@@4@$0A@@std@@@std@@IAEPAU_Node@?$_Tree_nod@V?$_Tmap_traits@KP8CDPCertifier@@AEXAAVCAr@@KPAEK@ZU?$less@K@std@@V?$allocator@U?$pair@$$CBKP8CDPCertifier@@AEXAAVCAr@@KPAEK@Z@std@@@4@$0A@@std@@@2@XZ 0040a9b0 f i DPCertifier.obj
 0001:000099f0       ??0?$_Tree_ptr@V?$_Tmap_traits@KP8CDPCertifier@@AEXAAVCAr@@KPAEK@ZU?$less@K@std@@V?$allocator@U?$pair@$$CBKP8CDPCertifier@@AEXAAVCAr@@KPAEK@Z@std@@@4@$0A@@std@@@std@@IAE@ABU?$less@K@1@V?$allocator@U?$pair@$$CBKP8CDPCertifier@@AEXAAVCAr@@KPAEK@Z@std@@@1@@Z 0040a9f0 f i DPCertifier.obj
 0001:00009a00       ?_Erase@?$_Tree@V?$_Tmap_traits@KPAUtagSERVER_DESC@@U?$less@K@std@@V?$allocator@U?$pair@$$CBKPAUtagSERVER_DESC@@@std@@@3@$0A@@std@@@std@@IAEXPAU_Node@?$_Tree_nod@V?$_Tmap_traits@KPAUtagSERVER_DESC@@U?$less@K@std@@V?$allocator@U?$pair@$$CBKPAUtagSERVER_DESC@@@std@@@3@$0A@@std@@@2@@Z 0040aa00 f i DPCertifier.obj
 0001:00009a40       ?_Erase@?$_Tree@V?$_Tmap_traits@KP8CDPCertifier@@AEXAAVCAr@@KPAEK@ZU?$less@K@std@@V?$allocator@U?$pair@$$CBKP8CDPCertifier@@AEXAAVCAr@@KPAEK@Z@std@@@4@$0A@@std@@@std@@IAEXPAU_Node@?$_Tree_nod@V?$_Tmap_traits@KP8CDPCertifier@@AEXAAVCAr@@KPAEK@ZU?$less@K@std@@V?$allocator@U?$pair@$$CBKP8CDPCertifier@@AEXAAVCAr@@KPAEK@Z@std@@@4@$0A@@std@@@2@@Z 0040aa40 f i DPCertifier.obj
 0001:00009a80       ??Eiterator@?$_Tree@V?$_Tmap_traits@KP8CDPCertifier@@AEXAAVCAr@@KPAEK@ZU?$less@K@std@@V?$allocator@U?$pair@$$CBKP8CDPCertifier@@AEXAAVCAr@@KPAEK@Z@std@@@4@$0A@@std@@@std@@QAEAAV012@XZ 0040aa80 f i DPCertifier.obj
 0001:00009a90       ??Eiterator@?$_Tree@V?$_Tmap_traits@KPAUtagSERVER_DESC@@U?$less@K@std@@V?$allocator@U?$pair@$$CBKPAUtagSERVER_DESC@@@std@@@3@$0A@@std@@@std@@QAEAAV012@XZ 0040aa90 f i DPCertifier.obj
 0001:00009aa0       ?end@?$deque@PAUtagDB_OVERLAPPED_PLUS@@V?$allocator@PAUtagDB_OVERLAPPED_PLUS@@@std@@@std@@QAE?AViterator@12@XZ 0040aaa0 f i DPCertifier.obj
 0001:00009ac0       ??Giterator@?$deque@PAUtagDB_OVERLAPPED_PLUS@@V?$allocator@PAUtagDB_OVERLAPPED_PLUS@@@std@@@std@@QBE?AV012@H@Z 0040aac0 f i DPCertifier.obj
 0001:00009ae0       ?find@?$_Tree@V?$_Tmap_traits@KP8CDPCertifier@@AEXAAVCAr@@KPAEK@ZU?$less@K@std@@V?$allocator@U?$pair@$$CBKP8CDPCertifier@@AEXAAVCAr@@KPAEK@Z@std@@@4@$0A@@std@@@std@@QAE?AViterator@12@ABK@Z 0040aae0 f i DPCertifier.obj
 0001:00009b50       ??Fiterator@?$_Tree@V?$_Tmap_traits@KP8CDPCertifier@@AEXAAVCAr@@KPAEK@ZU?$less@K@std@@V?$allocator@U?$pair@$$CBKP8CDPCertifier@@AEXAAVCAr@@KPAEK@Z@std@@@4@$0A@@std@@@std@@QAEAAV012@XZ 0040ab50 f i DPCertifier.obj
 0001:00009b60       ?_Init@?$_Tree@V?$_Tmap_traits@KPAUtagSERVER_DESC@@U?$less@K@std@@V?$allocator@U?$pair@$$CBKPAUtagSERVER_DESC@@@std@@@3@$0A@@std@@@std@@IAEXXZ 0040ab60 f i DPCertifier.obj
 0001:00009b90       ??0?$_Tree_val@V?$_Tmap_traits@KPAUtagSERVER_DESC@@U?$less@K@std@@V?$allocator@U?$pair@$$CBKPAUtagSERVER_DESC@@@std@@@3@$0A@@std@@@std@@IAE@ABU?$less@K@1@V?$allocator@U?$pair@$$CBKPAUtagSERVER_DESC@@@std@@@1@@Z 0040ab90 f i DPCertifier.obj
 0001:00009ba0       ?_Init@?$_Tree@V?$_Tmap_traits@KP8CDPCertifier@@AEXAAVCAr@@KPAEK@ZU?$less@K@std@@V?$allocator@U?$pair@$$CBKP8CDPCertifier@@AEXAAVCAr@@KPAEK@Z@std@@@4@$0A@@std@@@std@@IAEXXZ 0040aba0 f i DPCertifier.obj
 0001:00009bd0       ??0?$_Tree_val@V?$_Tmap_traits@KP8CDPCertifier@@AEXAAVCAr@@KPAEK@ZU?$less@K@std@@V?$allocator@U?$pair@$$CBKP8CDPCertifier@@AEXAAVCAr@@KPAEK@Z@std@@@4@$0A@@std@@@std@@IAE@ABU?$less@K@1@V?$allocator@U?$pair@$$CBKP8CDPCertifier@@AEXAAVCAr@@KPAEK@Z@std@@@1@@Z 0040abd0 f i DPCertifier.obj
 0001:00009be0       ?clear@?$_Tree@V?$_Tmap_traits@KPAUtagSERVER_DESC@@U?$less@K@std@@V?$allocator@U?$pair@$$CBKPAUtagSERVER_DESC@@@std@@@3@$0A@@std@@@std@@QAEXXZ 0040abe0 f i DPCertifier.obj
 0001:00009c10       ?clear@?$_Tree@V?$_Tmap_traits@KP8CDPCertifier@@AEXAAVCAr@@KPAEK@ZU?$less@K@std@@V?$allocator@U?$pair@$$CBKP8CDPCertifier@@AEXAAVCAr@@KPAEK@Z@std@@@4@$0A@@std@@@std@@QAEXXZ 0040ac10 f i DPCertifier.obj
 0001:00009c40       ??Eiterator@?$_Tree@V?$_Tmap_traits@KP8CDPCertifier@@AEXAAVCAr@@KPAEK@ZU?$less@K@std@@V?$allocator@U?$pair@$$CBKP8CDPCertifier@@AEXAAVCAr@@KPAEK@Z@std@@@4@$0A@@std@@@std@@QAE?AV012@H@Z 0040ac40 f i DPCertifier.obj
 0001:00009c60       ??Eiterator@?$_Tree@V?$_Tmap_traits@KPAUtagSERVER_DESC@@U?$less@K@std@@V?$allocator@U?$pair@$$CBKPAUtagSERVER_DESC@@@std@@@3@$0A@@std@@@std@@QAE?AV012@H@Z 0040ac60 f i DPCertifier.obj
 0001:00009c80       ?pop@?$stack@PAUtagDB_OVERLAPPED_PLUS@@V?$deque@PAUtagDB_OVERLAPPED_PLUS@@V?$allocator@PAUtagDB_OVERLAPPED_PLUS@@@std@@@std@@@std@@QAEXXZ 0040ac80 f i DPCertifier.obj
 0001:00009ca0       ?back@?$deque@PAUtagDB_OVERLAPPED_PLUS@@V?$allocator@PAUtagDB_OVERLAPPED_PLUS@@@std@@@std@@QAEAAPAUtagDB_OVERLAPPED_PLUS@@XZ 0040aca0 f i DPCertifier.obj
 0001:00009cd0       ?GetHandler@CDPCertifier@@AAEP81@AEXAAVCAr@@KPAEK@ZK@Z 0040acd0 f i DPCertifier.obj
 0001:00009d10       ?UserMessageHandler@CDPCertifier@@UAEXPAUDPMSG_GENERIC@@KK@Z 0040ad10 f   DPCertifier.obj
 0001:00009e20       ??0?$_Tree@V?$_Tmap_traits@KPAUtagSERVER_DESC@@U?$less@K@std@@V?$allocator@U?$pair@$$CBKPAUtagSERVER_DESC@@@std@@@3@$0A@@std@@@std@@QAE@ABU?$less@K@1@ABV?$allocator@U?$pair@$$CBKPAUtagSERVER_DESC@@@std@@@1@@Z 0040ae20 f i DPCertifier.obj
 0001:00009e50       ??0?$_Tree@V?$_Tmap_traits@KP8CDPCertifier@@AEXAAVCAr@@KPAEK@ZU?$less@K@std@@V?$allocator@U?$pair@$$CBKP8CDPCertifier@@AEXAAVCAr@@KPAEK@Z@std@@@4@$0A@@std@@@std@@QAE@ABU?$less@K@1@ABV?$allocator@U?$pair@$$CBKP8CDPCertifier@@AEXAAVCAr@@KPAEK@Z@std@@@1@@Z 0040ae50 f i DPCertifier.obj
 0001:00009e80       ?top@?$stack@PAUtagDB_OVERLAPPED_PLUS@@V?$deque@PAUtagDB_OVERLAPPED_PLUS@@V?$allocator@PAUtagDB_OVERLAPPED_PLUS@@@std@@@std@@@std@@QAEAAPAUtagDB_OVERLAPPED_PLUS@@XZ 0040ae80 f i DPCertifier.obj
 0001:00009eb0       ?_Insert@?$_Tree@V?$_Tmap_traits@KP8CDPCertifier@@AEXAAVCAr@@KPAEK@ZU?$less@K@std@@V?$allocator@U?$pair@$$CBKP8CDPCertifier@@AEXAAVCAr@@KPAEK@Z@std@@@4@$0A@@std@@@std@@IAE?AViterator@12@_NPAU_Node@?$_Tree_nod@V?$_Tmap_traits@KP8CDPCertifier@@AEXAAVCAr@@KPAEK@ZU?$less@K@std@@V?$allocator@U?$pair@$$CBKP8CDPCertifier@@AEXAAVCAr@@KPAEK@Z@std@@@4@$0A@@std@@@2@ABU?$pair@$$CBKP8CDPCertifier@@AEXAAVCAr@@KPAEK@Z@2@@Z 0040aeb0 f i DPCertifier.obj
 0001:0000a060       ?erase@?$_Tree@V?$_Tmap_traits@KPAUtagSERVER_DESC@@U?$less@K@std@@V?$allocator@U?$pair@$$CBKPAUtagSERVER_DESC@@@std@@@3@$0A@@std@@@std@@QAE?AViterator@12@V312@@Z 0040b060 f i DPCertifier.obj
 0001:0000a320       ?erase@?$_Tree@V?$_Tmap_traits@KP8CDPCertifier@@AEXAAVCAr@@KPAEK@ZU?$less@K@std@@V?$allocator@U?$pair@$$CBKP8CDPCertifier@@AEXAAVCAr@@KPAEK@Z@std@@@4@$0A@@std@@@std@@QAE?AViterator@12@V312@@Z 0040b320 f i DPCertifier.obj
 0001:0000a5e0       ?insert@?$_Tree@V?$_Tmap_traits@KP8CDPCertifier@@AEXAAVCAr@@KPAEK@ZU?$less@K@std@@V?$allocator@U?$pair@$$CBKP8CDPCertifier@@AEXAAVCAr@@KPAEK@Z@std@@@4@$0A@@std@@@std@@QAE?AU?$pair@Viterator@?$_Tree@V?$_Tmap_traits@KP8CDPCertifier@@AEXAAVCAr@@KPAEK@ZU?$less@K@std@@V?$allocator@U?$pair@$$CBKP8CDPCertifier@@AEXAAVCAr@@KPAEK@Z@std@@@4@$0A@@std@@@std@@_N@2@ABU?$pair@$$CBKP8CDPCertifier@@AEXAAVCAr@@KPAEK@Z@2@@Z 0040b5e0 f i DPCertifier.obj
 0001:0000a6a0       ?erase@?$_Tree@V?$_Tmap_traits@KPAUtagSERVER_DESC@@U?$less@K@std@@V?$allocator@U?$pair@$$CBKPAUtagSERVER_DESC@@@std@@@3@$0A@@std@@@std@@QAE?AViterator@12@V312@0@Z 0040b6a0 f i DPCertifier.obj
 0001:0000a760       ?erase@?$_Tree@V?$_Tmap_traits@KP8CDPCertifier@@AEXAAVCAr@@KPAEK@ZU?$less@K@std@@V?$allocator@U?$pair@$$CBKP8CDPCertifier@@AEXAAVCAr@@KPAEK@Z@std@@@4@$0A@@std@@@std@@QAE?AViterator@12@V312@0@Z 0040b760 f i DPCertifier.obj
 0001:0000a820       ?_Tidy@?$_Tree@V?$_Tmap_traits@KPAUtagSERVER_DESC@@U?$less@K@std@@V?$allocator@U?$pair@$$CBKPAUtagSERVER_DESC@@@std@@@3@$0A@@std@@@std@@IAEXXZ 0040b820 f i DPCertifier.obj
 0001:0000a850       ?_Tidy@?$_Tree@V?$_Tmap_traits@KP8CDPCertifier@@AEXAAVCAr@@KPAEK@ZU?$less@K@std@@V?$allocator@U?$pair@$$CBKP8CDPCertifier@@AEXAAVCAr@@KPAEK@Z@std@@@4@$0A@@std@@@std@@IAEXXZ 0040b850 f i DPCertifier.obj
 0001:0000a880       ??1?$_Tree@V?$_Tmap_traits@KPAUtagSERVER_DESC@@U?$less@K@std@@V?$allocator@U?$pair@$$CBKPAUtagSERVER_DESC@@@std@@@3@$0A@@std@@@std@@QAE@XZ 0040b880 f i DPCertifier.obj
 0001:0000a8b0       ??1?$_Tree@V?$_Tmap_traits@KP8CDPCertifier@@AEXAAVCAr@@KPAEK@ZU?$less@K@std@@V?$allocator@U?$pair@$$CBKP8CDPCertifier@@AEXAAVCAr@@KPAEK@Z@std@@@4@$0A@@std@@@std@@QAE@XZ 0040b8b0 f i DPCertifier.obj
 0001:0000a8e0       ??1?$map@KPAUtagSERVER_DESC@@U?$less@K@std@@V?$allocator@U?$pair@$$CBKPAUtagSERVER_DESC@@@std@@@3@@std@@QAE@XZ 0040b8e0 f i DPCertifier.obj
 0001:0000a910       ??1?$map@KP8CDPCertifier@@AEXAAVCAr@@KPAEK@ZU?$less@K@std@@V?$allocator@U?$pair@$$CBKP8CDPCertifier@@AEXAAVCAr@@KPAEK@Z@std@@@4@@std@@QAE@XZ 0040b910 f i DPCertifier.obj
 0001:0000a940       ??1CDPCertifier@@UAE@XZ    0040b940 f   DPCertifier.obj
 0001:0000aa00       ??0?$map@KPAUtagSERVER_DESC@@U?$less@K@std@@V?$allocator@U?$pair@$$CBKPAUtagSERVER_DESC@@@std@@@3@@std@@QAE@XZ 0040ba00 f i DPCertifier.obj
 0001:0000aa30       ??0?$map@KP8CDPCertifier@@AEXAAVCAr@@KPAEK@ZU?$less@K@std@@V?$allocator@U?$pair@$$CBKP8CDPCertifier@@AEXAAVCAr@@KPAEK@Z@std@@@4@@std@@QAE@XZ 0040ba30 f i DPCertifier.obj
 0001:0000aa60       ??_ECDPCertifier@@UAEPAXI@Z 0040ba60 f i DPCertifier.obj
 0001:0000aa60       ??_GCDPCertifier@@UAEPAXI@Z 0040ba60 f i DPCertifier.obj
 0001:0000aa80       ?Alloc@?$CMemPool@UtagDB_OVERLAPPED_PLUS@@@@QAEPAUtagDB_OVERLAPPED_PLUS@@XZ 0040ba80 f i DPCertifier.obj
 0001:0000ab20       ?OnCertify@CDPCertifier@@AAEXAAVCAr@@KPAEK@Z 0040bb20 f   DPCertifier.obj
 0001:0000ae60       ?OnCloseExistingConnection@CDPCertifier@@AAEXAAVCAr@@KPAEK@Z 0040be60 f   DPCertifier.obj
 0001:0000af20       ??0CDPCertifier@@QAE@XZ    0040bf20 f   DPCertifier.obj
 0001:0000b0b0       ?Allocate@CCRTAllocator@ATL@@SAPAXI@Z 0040c0b0 f i StdAfx.obj
 0001:0000b0c0       ?Free@CCRTAllocator@ATL@@SAXPAX@Z 0040c0c0 f i StdAfx.obj
 0001:0000b0d0       ?_AtlVerifyStackAvailable@_ATL_SAFE_ALLOCA_IMPL@ATL@@YA_NK@Z 0040c0d0 f i StdAfx.obj
 0001:0000b160       ?AtlA2WHelper@@YGPAGPAGPBDHI@Z 0040c160 f i StdAfx.obj
 0001:0000b1a0       ?AtlW2AHelper@@YGPADPADPBGHI@Z 0040c1a0 f i StdAfx.obj
 0001:0000b1e0       ?AtlThrowLastWin32@ATL@@YGXXZ 0040c1e0 f i StdAfx.obj
 0001:0000b200       ?_AtlInstallStringThunk@ATL@@YAXPAPAXPAX1@Z 0040c200 f i StdAfx.obj
 0001:0000b240       ?lstrcmpiWFake@ATL@@YGHPBG0@Z 0040c240 f i StdAfx.obj
 0001:0000b310       ?lstrcmpiWThunk@ATL@@YGHPBG0@Z 0040c310 f i StdAfx.obj
 0001:0000b360       ?CharLowerWFake@ATL@@YGPAGPAG@Z 0040c360 f i StdAfx.obj
 0001:0000b420       ?CharLowerWThunk@ATL@@YGPAGPAG@Z 0040c420 f i StdAfx.obj
 0001:0000b470       ?CharUpperWFake@ATL@@YGPAGPAG@Z 0040c470 f i StdAfx.obj
 0001:0000b530       ?CharUpperWThunk@ATL@@YGPAGPAG@Z 0040c530 f i StdAfx.obj
 0001:0000b580       ??0?$CAtlSafeAllocBufferManager@VCCRTAllocator@ATL@@@_ATL_SAFE_ALLOCA_IMPL@ATL@@QAE@XZ 0040c580 f i StdAfx.obj
 0001:0000b590       ??1?$CAtlSafeAllocBufferManager@VCCRTAllocator@ATL@@@_ATL_SAFE_ALLOCA_IMPL@ATL@@QAE@XZ 0040c590 f i StdAfx.obj
 0001:0000b5b0       ??0?$CTempBuffer@D$0IA@VCCRTAllocator@ATL@@@ATL@@QAE@XZ 0040c5b0 f i StdAfx.obj
 0001:0000b5c0       ??B?$CTempBuffer@D$0IA@VCCRTAllocator@ATL@@@ATL@@QBEPADXZ 0040c5c0 f i StdAfx.obj
 0001:0000b5d0       ??1?$CW2AEX@$0IA@@ATL@@QAE@XZ 0040c5d0 f i StdAfx.obj
 0001:0000b5f0       ??B?$CW2AEX@$0IA@@ATL@@QBEPADXZ 0040c5f0 f i StdAfx.obj
 0001:0000b600       ?FreeHeap@?$CTempBuffer@D$0IA@VCCRTAllocator@ATL@@@ATL@@AAEXXZ 0040c600 f i StdAfx.obj
 0001:0000b610       ?Init@?$CW2AEX@$0IA@@ATL@@AAEXPBGI@Z 0040c610 f i StdAfx.obj
 0001:0000b680       ?StringUppercase@?$ChTraitsCRT@D@ATL@@SAPADPAD@Z 0040c680 f i StdAfx.obj
 0001:0000b690       ?GetData@CAtlSafeAllocBufferNode@?$CAtlSafeAllocBufferManager@VCCRTAllocator@ATL@@@_ATL_SAFE_ALLOCA_IMPL@ATL@@QAEPAXXZ 0040c690 f i StdAfx.obj
 0001:0000b6a0       ?AllocateHeap@?$CTempBuffer@D$0IA@VCCRTAllocator@ATL@@@ATL@@AAEXI@Z 0040c6a0 f i StdAfx.obj
 0001:0000b6d0       ?Allocate@?$CAtlSafeAllocBufferManager@VCCRTAllocator@ATL@@@_ATL_SAFE_ALLOCA_IMPL@ATL@@QAEPAXK@Z 0040c6d0 f i StdAfx.obj
 0001:0000b700       ??1?$CTempBuffer@D$0IA@VCCRTAllocator@ATL@@@ATL@@QAE@XZ 0040c700 f i StdAfx.obj
 0001:0000b710       ??0?$CW2AEX@$0IA@@ATL@@QAE@PBG@Z 0040c710 f i StdAfx.obj
 0001:0000b740       ?AllocateBytes@?$CTempBuffer@D$0IA@VCCRTAllocator@ATL@@@ATL@@QAEPADI@Z 0040c740 f i StdAfx.obj
 0001:0000b770       ?CompareStringWFake@ATL@@YGHKKPBGH0H@Z 0040c770 f i StdAfx.obj
 0001:0000b8d0       ?CompareStringWThunk@ATL@@YGHKKPBGH0H@Z 0040c8d0 f i StdAfx.obj
 0001:0000b920       ?Allocate@?$CTempBuffer@D$0IA@VCCRTAllocator@ATL@@@ATL@@QAEPADI@Z 0040c920 f i StdAfx.obj
 0001:0000b950       ?GetEnvironmentVariableWFake@ATL@@YGKPBGPAGK@Z 0040c950 f i StdAfx.obj
 0001:0000bae0       ?GetEnvironmentVariableWThunk@ATL@@YGKPBGPAGK@Z 0040cae0 f i StdAfx.obj
 0001:0000bb30       ?GetStringTypeExWFake@ATL@@YGHKKPBGHPAG@Z 0040cb30 f i StdAfx.obj
 0001:0000bc40       ?GetStringTypeExWThunk@ATL@@YGHKKPBGHPAG@Z 0040cc40 f i StdAfx.obj
 0001:0000bc90       ?MakeUpper@?$CStringT@DV?$StrTraitMFC@DV?$ChTraitsCRT@D@ATL@@@@@ATL@@QAEAAV12@XZ 0040cc90 f i StdAfx.obj
 0001:0000bcf0       ?KillProcess@@YAHV?$CStringT@DV?$StrTraitMFC@DV?$ChTraitsCRT@D@ATL@@@@@ATL@@@Z 0040ccf0 f   StdAfx.obj
 0001:0000bf90       ??0CUser@@QAE@K@Z          0040cf90 f   user.obj
 0001:0000bfc0       ??_GCUser@@UAEPAXI@Z       0040cfc0 f i user.obj
 0001:0000bfc0       ??_ECUser@@UAEPAXI@Z       0040cfc0 f i user.obj
 0001:0000bfe0       ??0?$pair@$$CBKPAVCUser@@@std@@QAE@ABKABQAVCUser@@@Z 0040cfe0 f i user.obj
 0001:0000c000       ?_Isnil@?$_Tree@V?$_Tmap_traits@KPAVCUser@@U?$less@K@std@@V?$allocator@U?$pair@$$CBKPAVCUser@@@std@@@3@$0A@@std@@@std@@KAAADPAU_Node@?$_Tree_nod@V?$_Tmap_traits@KPAVCUser@@U?$less@K@std@@V?$allocator@U?$pair@$$CBKPAVCUser@@@std@@@3@$0A@@std@@@2@@Z 0040d000 f i user.obj
 0001:0000c010       ?_Left@?$_Tree@V?$_Tmap_traits@KPAVCUser@@U?$less@K@std@@V?$allocator@U?$pair@$$CBKPAVCUser@@@std@@@3@$0A@@std@@@std@@KAAAPAU_Node@?$_Tree_nod@V?$_Tmap_traits@KPAVCUser@@U?$less@K@std@@V?$allocator@U?$pair@$$CBKPAVCUser@@@std@@@3@$0A@@std@@@2@PAU342@@Z 0040d010 f i user.obj
 0001:0000c020       ?_Right@?$_Tree@V?$_Tmap_traits@KPAVCUser@@U?$less@K@std@@V?$allocator@U?$pair@$$CBKPAVCUser@@@std@@@3@$0A@@std@@@std@@KAAAPAU_Node@?$_Tree_nod@V?$_Tmap_traits@KPAVCUser@@U?$less@K@std@@V?$allocator@U?$pair@$$CBKPAVCUser@@@std@@@3@$0A@@std@@@2@PAU342@@Z 0040d020 f i user.obj
 0001:0000c030       ?_Lmost@?$_Tree@V?$_Tmap_traits@KPAVCUser@@U?$less@K@std@@V?$allocator@U?$pair@$$CBKPAVCUser@@@std@@@3@$0A@@std@@@std@@IAEAAPAU_Node@?$_Tree_nod@V?$_Tmap_traits@KPAVCUser@@U?$less@K@std@@V?$allocator@U?$pair@$$CBKPAVCUser@@@std@@@3@$0A@@std@@@2@XZ 0040d030 f i user.obj
 0001:0000c040       ?_Rmost@?$_Tree@V?$_Tmap_traits@KPAVCUser@@U?$less@K@std@@V?$allocator@U?$pair@$$CBKPAVCUser@@@std@@@3@$0A@@std@@@std@@IAEAAPAU_Node@?$_Tree_nod@V?$_Tmap_traits@KPAVCUser@@U?$less@K@std@@V?$allocator@U?$pair@$$CBKPAVCUser@@@std@@@3@$0A@@std@@@2@XZ 0040d040 f i user.obj
 0001:0000c050       ?_Kfn@?$_Tmap_traits@KPAVCUser@@U?$less@K@std@@V?$allocator@U?$pair@$$CBKPAVCUser@@@std@@@3@$0A@@std@@SAABKABU?$pair@$$CBKPAVCUser@@@2@@Z 0040d050 f i user.obj
 0001:0000c060       ??0?$allocator@U?$pair@$$CBKPAVCUser@@@std@@@std@@QAE@XZ 0040d060 f i user.obj
 0001:0000c070       ??8const_iterator@?$_Tree@V?$_Tmap_traits@KPAVCUser@@U?$less@K@std@@V?$allocator@U?$pair@$$CBKPAVCUser@@@std@@@3@$0A@@std@@@std@@QBE_NABV012@@Z 0040d070 f i user.obj
 0001:0000c080       ?_Mynode@const_iterator@?$_Tree@V?$_Tmap_traits@KPAVCUser@@U?$less@K@std@@V?$allocator@U?$pair@$$CBKPAVCUser@@@std@@@3@$0A@@std@@@std@@QBEPAU_Node@?$_Tree_nod@V?$_Tmap_traits@KPAVCUser@@U?$less@K@std@@V?$allocator@U?$pair@$$CBKPAVCUser@@@std@@@3@$0A@@std@@@3@XZ 0040d080 f i user.obj
 0001:0000c090       ??0?$pair@Viterator@?$_Tree@V?$_Tmap_traits@KPAVCUser@@U?$less@K@std@@V?$allocator@U?$pair@$$CBKPAVCUser@@@std@@@3@$0A@@std@@@std@@_N@std@@QAE@ABViterator@?$_Tree@V?$_Tmap_traits@KPAVCUser@@U?$less@K@std@@V?$allocator@U?$pair@$$CBKPAVCUser@@@std@@@3@$0A@@std@@@1@AB_N@Z 0040d090 f i user.obj
 0001:0000c0b0       ?_Color@?$_Tree@V?$_Tmap_traits@KPAVCUser@@U?$less@K@std@@V?$allocator@U?$pair@$$CBKPAVCUser@@@std@@@3@$0A@@std@@@std@@KAAADPAU_Node@?$_Tree_nod@V?$_Tmap_traits@KPAVCUser@@U?$less@K@std@@V?$allocator@U?$pair@$$CBKPAVCUser@@@std@@@3@$0A@@std@@@2@@Z 0040d0b0 f i user.obj
 0001:0000c0c0       ?_Parent@?$_Tree@V?$_Tmap_traits@KPAVCUser@@U?$less@K@std@@V?$allocator@U?$pair@$$CBKPAVCUser@@@std@@@3@$0A@@std@@@std@@KAAAPAU_Node@?$_Tree_nod@V?$_Tmap_traits@KPAVCUser@@U?$less@K@std@@V?$allocator@U?$pair@$$CBKPAVCUser@@@std@@@3@$0A@@std@@@2@PAU342@@Z 0040d0c0 f i user.obj
 0001:0000c0d0       ?_Myval@?$_Tree@V?$_Tmap_traits@KPAVCUser@@U?$less@K@std@@V?$allocator@U?$pair@$$CBKPAVCUser@@@std@@@3@$0A@@std@@@std@@KAAAU?$pair@$$CBKPAVCUser@@@2@PAU_Node@?$_Tree_nod@V?$_Tmap_traits@KPAVCUser@@U?$less@K@std@@V?$allocator@U?$pair@$$CBKPAVCUser@@@std@@@3@$0A@@std@@@2@@Z 0040d0d0 f i user.obj
 0001:0000c0e0       ??0?$allocator@U?$pair@$$CBKPAVCUser@@@std@@@std@@QAE@ABV01@@Z 0040d0e0 f i user.obj
 0001:0000c0f0       ?deallocate@?$allocator@U_Node@?$_Tree_nod@V?$_Tmap_traits@KPAVCUser@@U?$less@K@std@@V?$allocator@U?$pair@$$CBKPAVCUser@@@std@@@3@$0A@@std@@@std@@@std@@QAEXPAU_Node@?$_Tree_nod@V?$_Tmap_traits@KPAVCUser@@U?$less@K@std@@V?$allocator@U?$pair@$$CBKPAVCUser@@@std@@@3@$0A@@std@@@2@I@Z 0040d0f0 f i user.obj
 0001:0000c100       ??0const_iterator@?$_Tree@V?$_Tmap_traits@KPAVCUser@@U?$less@K@std@@V?$allocator@U?$pair@$$CBKPAVCUser@@@std@@@3@$0A@@std@@@std@@QAE@PAU_Node@?$_Tree_nod@V?$_Tmap_traits@KPAVCUser@@U?$less@K@std@@V?$allocator@U?$pair@$$CBKPAVCUser@@@std@@@3@$0A@@std@@@2@@Z 0040d100 f i user.obj
 0001:0000c110       ??Dconst_iterator@?$_Tree@V?$_Tmap_traits@KPAVCUser@@U?$less@K@std@@V?$allocator@U?$pair@$$CBKPAVCUser@@@std@@@3@$0A@@std@@@std@@QBEABU?$pair@$$CBKPAVCUser@@@2@XZ 0040d110 f i user.obj
 0001:0000c120       ??0?$pair@Viterator@?$_Tree@V?$_Tmap_traits@KPAVCUser@@U?$less@K@std@@V?$allocator@U?$pair@$$CBKPAVCUser@@@std@@@3@$0A@@std@@@std@@V123@@std@@QAE@ABViterator@?$_Tree@V?$_Tmap_traits@KPAVCUser@@U?$less@K@std@@V?$allocator@U?$pair@$$CBKPAVCUser@@@std@@@3@$0A@@std@@@1@0@Z 0040d120 f i user.obj
 0001:0000c140       ?_Max@?$_Tree@V?$_Tmap_traits@KPAVCUser@@U?$less@K@std@@V?$allocator@U?$pair@$$CBKPAVCUser@@@std@@@3@$0A@@std@@@std@@KAPAU_Node@?$_Tree_nod@V?$_Tmap_traits@KPAVCUser@@U?$less@K@std@@V?$allocator@U?$pair@$$CBKPAVCUser@@@std@@@3@$0A@@std@@@2@PAU342@@Z 0040d140 f i user.obj
 0001:0000c160       ?_Min@?$_Tree@V?$_Tmap_traits@KPAVCUser@@U?$less@K@std@@V?$allocator@U?$pair@$$CBKPAVCUser@@@std@@@3@$0A@@std@@@std@@KAPAU_Node@?$_Tree_nod@V?$_Tmap_traits@KPAVCUser@@U?$less@K@std@@V?$allocator@U?$pair@$$CBKPAVCUser@@@std@@@3@$0A@@std@@@2@PAU342@@Z 0040d160 f i user.obj
 0001:0000c180       ?_Root@?$_Tree@V?$_Tmap_traits@KPAVCUser@@U?$less@K@std@@V?$allocator@U?$pair@$$CBKPAVCUser@@@std@@@3@$0A@@std@@@std@@IBEAAPAU_Node@?$_Tree_nod@V?$_Tmap_traits@KPAVCUser@@U?$less@K@std@@V?$allocator@U?$pair@$$CBKPAVCUser@@@std@@@3@$0A@@std@@@2@XZ 0040d180 f i user.obj
 0001:0000c190       ?max_size@?$allocator@U?$pair@$$CBKPAVCUser@@@std@@@std@@QBEIXZ 0040d190 f i user.obj
 0001:0000c1a0       ?_Dec@const_iterator@?$_Tree@V?$_Tmap_traits@KPAVCUser@@U?$less@K@std@@V?$allocator@U?$pair@$$CBKPAVCUser@@@std@@@3@$0A@@std@@@std@@QAEXXZ 0040d1a0 f i user.obj
 0001:0000c200       ??0_Node@?$_Tree_nod@V?$_Tmap_traits@KPAVCUser@@U?$less@K@std@@V?$allocator@U?$pair@$$CBKPAVCUser@@@std@@@3@$0A@@std@@@std@@QAE@PAU012@00ABU?$pair@$$CBKPAVCUser@@@2@D@Z 0040d200 f i user.obj
 0001:0000c240       ??0?$_Tmap_traits@KPAVCUser@@U?$less@K@std@@V?$allocator@U?$pair@$$CBKPAVCUser@@@std@@@3@$0A@@std@@QAE@U?$less@K@1@@Z 0040d240 f i user.obj
 0001:0000c250       ??$_Destroy@U_Node@?$_Tree_nod@V?$_Tmap_traits@KPAVCUser@@U?$less@K@std@@V?$allocator@U?$pair@$$CBKPAVCUser@@@std@@@3@$0A@@std@@@std@@@std@@YAXPAU_Node@?$_Tree_nod@V?$_Tmap_traits@KPAVCUser@@U?$less@K@std@@V?$allocator@U?$pair@$$CBKPAVCUser@@@std@@@3@$0A@@std@@@0@@Z 0040d250 f i user.obj
 0001:0000c260       ??$_Destroy@PAU_Node@?$_Tree_nod@V?$_Tmap_traits@KPAVCUser@@U?$less@K@std@@V?$allocator@U?$pair@$$CBKPAVCUser@@@std@@@3@$0A@@std@@@std@@@std@@YAXPAPAU_Node@?$_Tree_nod@V?$_Tmap_traits@KPAVCUser@@U?$less@K@std@@V?$allocator@U?$pair@$$CBKPAVCUser@@@std@@@3@$0A@@std@@@0@@Z 0040d260 f i user.obj
 0001:0000c270       ??$?0U?$pair@$$CBKPAVCUser@@@std@@@?$allocator@PAU_Node@?$_Tree_nod@V?$_Tmap_traits@KPAVCUser@@U?$less@K@std@@V?$allocator@U?$pair@$$CBKPAVCUser@@@std@@@3@$0A@@std@@@std@@@std@@QAE@ABV?$allocator@U?$pair@$$CBKPAVCUser@@@std@@@1@@Z 0040d270 f i user.obj
 0001:0000c280       ??$_Allocate@U_Node@?$_Tree_nod@V?$_Tmap_traits@KPAVCUser@@U?$less@K@std@@V?$allocator@U?$pair@$$CBKPAVCUser@@@std@@@3@$0A@@std@@@std@@@std@@YAPAU_Node@?$_Tree_nod@V?$_Tmap_traits@KPAVCUser@@U?$less@K@std@@V?$allocator@U?$pair@$$CBKPAVCUser@@@std@@@3@$0A@@std@@@0@IPAU120@@Z 0040d280 f i user.obj
 0001:0000c2a0       ??$?0U?$pair@$$CBKPAVCUser@@@std@@@?$allocator@U_Node@?$_Tree_nod@V?$_Tmap_traits@KPAVCUser@@U?$less@K@std@@V?$allocator@U?$pair@$$CBKPAVCUser@@@std@@@3@$0A@@std@@@std@@@std@@QAE@ABV?$allocator@U?$pair@$$CBKPAVCUser@@@std@@@1@@Z 0040d2a0 f i user.obj
 0001:0000c2b0       ??$_Construct@PAU_Node@?$_Tree_nod@V?$_Tmap_traits@KPAVCUser@@U?$less@K@std@@V?$allocator@U?$pair@$$CBKPAVCUser@@@std@@@3@$0A@@std@@@std@@PAU123@@std@@YAXPAPAU_Node@?$_Tree_nod@V?$_Tmap_traits@KPAVCUser@@U?$less@K@std@@V?$allocator@U?$pair@$$CBKPAVCUser@@@std@@@3@$0A@@std@@@0@ABQAU120@@Z 0040d2b0 f i user.obj
 0001:0000c2d0       ??$_Iter_cat@Viterator@?$_Tree@V?$_Tmap_traits@KPAVCUser@@U?$less@K@std@@V?$allocator@U?$pair@$$CBKPAVCUser@@@std@@@3@$0A@@std@@@std@@@std@@YA?AUbidirectional_iterator_tag@0@ABViterator@?$_Tree@V?$_Tmap_traits@KPAVCUser@@U?$less@K@std@@V?$allocator@U?$pair@$$CBKPAVCUser@@@std@@@3@$0A@@std@@@0@@Z 0040d2d0 f i user.obj
 0001:0000c2e0       ??9const_iterator@?$_Tree@V?$_Tmap_traits@KPAVCUser@@U?$less@K@std@@V?$allocator@U?$pair@$$CBKPAVCUser@@@std@@@3@$0A@@std@@@std@@QBE_NABV012@@Z 0040d2e0 f i user.obj
 0001:0000c300       ?_Key@?$_Tree@V?$_Tmap_traits@KPAVCUser@@U?$less@K@std@@V?$allocator@U?$pair@$$CBKPAVCUser@@@std@@@3@$0A@@std@@@std@@KAABKPAU_Node@?$_Tree_nod@V?$_Tmap_traits@KPAVCUser@@U?$less@K@std@@V?$allocator@U?$pair@$$CBKPAVCUser@@@std@@@3@$0A@@std@@@2@@Z 0040d300 f i user.obj
 0001:0000c310       ?_Root@?$_Tree@V?$_Tmap_traits@KPAVCUser@@U?$less@K@std@@V?$allocator@U?$pair@$$CBKPAVCUser@@@std@@@3@$0A@@std@@@std@@IAEAAPAU_Node@?$_Tree_nod@V?$_Tmap_traits@KPAVCUser@@U?$less@K@std@@V?$allocator@U?$pair@$$CBKPAVCUser@@@std@@@3@$0A@@std@@@2@XZ 0040d310 f i user.obj
 0001:0000c320       ??0iterator@?$_Tree@V?$_Tmap_traits@KPAVCUser@@U?$less@K@std@@V?$allocator@U?$pair@$$CBKPAVCUser@@@std@@@3@$0A@@std@@@std@@QAE@PAU_Node@?$_Tree_nod@V?$_Tmap_traits@KPAVCUser@@U?$less@K@std@@V?$allocator@U?$pair@$$CBKPAVCUser@@@std@@@3@$0A@@std@@@2@@Z 0040d320 f i user.obj
 0001:0000c330       ??Diterator@?$_Tree@V?$_Tmap_traits@KPAVCUser@@U?$less@K@std@@V?$allocator@U?$pair@$$CBKPAVCUser@@@std@@@3@$0A@@std@@@std@@QBEAAU?$pair@$$CBKPAVCUser@@@2@XZ 0040d330 f i user.obj
 0001:0000c340       ?max_size@?$_Tree@V?$_Tmap_traits@KPAVCUser@@U?$less@K@std@@V?$allocator@U?$pair@$$CBKPAVCUser@@@std@@@3@$0A@@std@@@std@@QBEIXZ 0040d340 f i user.obj
 0001:0000c350       ?_Lbound@?$_Tree@V?$_Tmap_traits@KPAVCUser@@U?$less@K@std@@V?$allocator@U?$pair@$$CBKPAVCUser@@@std@@@3@$0A@@std@@@std@@IBEPAU_Node@?$_Tree_nod@V?$_Tmap_traits@KPAVCUser@@U?$less@K@std@@V?$allocator@U?$pair@$$CBKPAVCUser@@@std@@@3@$0A@@std@@@2@ABK@Z 0040d350 f i user.obj
 0001:0000c380       ?_Lrotate@?$_Tree@V?$_Tmap_traits@KPAVCUser@@U?$less@K@std@@V?$allocator@U?$pair@$$CBKPAVCUser@@@std@@@3@$0A@@std@@@std@@IAEXPAU_Node@?$_Tree_nod@V?$_Tmap_traits@KPAVCUser@@U?$less@K@std@@V?$allocator@U?$pair@$$CBKPAVCUser@@@std@@@3@$0A@@std@@@2@@Z 0040d380 f i user.obj
 0001:0000c3e0       ?_Rrotate@?$_Tree@V?$_Tmap_traits@KPAVCUser@@U?$less@K@std@@V?$allocator@U?$pair@$$CBKPAVCUser@@@std@@@3@$0A@@std@@@std@@IAEXPAU_Node@?$_Tree_nod@V?$_Tmap_traits@KPAVCUser@@U?$less@K@std@@V?$allocator@U?$pair@$$CBKPAVCUser@@@std@@@3@$0A@@std@@@2@@Z 0040d3e0 f i user.obj
 0001:0000c440       ?destroy@?$allocator@U_Node@?$_Tree_nod@V?$_Tmap_traits@KPAVCUser@@U?$less@K@std@@V?$allocator@U?$pair@$$CBKPAVCUser@@@std@@@3@$0A@@std@@@std@@@std@@QAEXPAU_Node@?$_Tree_nod@V?$_Tmap_traits@KPAVCUser@@U?$less@K@std@@V?$allocator@U?$pair@$$CBKPAVCUser@@@std@@@3@$0A@@std@@@2@@Z 0040d440 f i user.obj
 0001:0000c450       ?destroy@?$allocator@PAU_Node@?$_Tree_nod@V?$_Tmap_traits@KPAVCUser@@U?$less@K@std@@V?$allocator@U?$pair@$$CBKPAVCUser@@@std@@@3@$0A@@std@@@std@@@std@@QAEXPAPAU_Node@?$_Tree_nod@V?$_Tmap_traits@KPAVCUser@@U?$less@K@std@@V?$allocator@U?$pair@$$CBKPAVCUser@@@std@@@3@$0A@@std@@@2@@Z 0040d450 f i user.obj
 0001:0000c460       ??Fconst_iterator@?$_Tree@V?$_Tmap_traits@KPAVCUser@@U?$less@K@std@@V?$allocator@U?$pair@$$CBKPAVCUser@@@std@@@3@$0A@@std@@@std@@QAEAAV012@XZ 0040d460 f i user.obj
 0001:0000c470       ?_Inc@const_iterator@?$_Tree@V?$_Tmap_traits@KPAVCUser@@U?$less@K@std@@V?$allocator@U?$pair@$$CBKPAVCUser@@@std@@@3@$0A@@std@@@std@@QAEXXZ 0040d470 f i user.obj
 0001:0000c4d0       ?_Ubound@?$_Tree@V?$_Tmap_traits@KPAVCUser@@U?$less@K@std@@V?$allocator@U?$pair@$$CBKPAVCUser@@@std@@@3@$0A@@std@@@std@@IBEPAU_Node@?$_Tree_nod@V?$_Tmap_traits@KPAVCUser@@U?$less@K@std@@V?$allocator@U?$pair@$$CBKPAVCUser@@@std@@@3@$0A@@std@@@2@ABK@Z 0040d4d0 f i user.obj
 0001:0000c500       ?allocate@?$allocator@U_Node@?$_Tree_nod@V?$_Tmap_traits@KPAVCUser@@U?$less@K@std@@V?$allocator@U?$pair@$$CBKPAVCUser@@@std@@@3@$0A@@std@@@std@@@std@@QAEPAU_Node@?$_Tree_nod@V?$_Tmap_traits@KPAVCUser@@U?$less@K@std@@V?$allocator@U?$pair@$$CBKPAVCUser@@@std@@@3@$0A@@std@@@2@I@Z 0040d500 f i user.obj
 0001:0000c520       ??0?$_Tree_nod@V?$_Tmap_traits@KPAVCUser@@U?$less@K@std@@V?$allocator@U?$pair@$$CBKPAVCUser@@@std@@@3@$0A@@std@@@std@@IAE@ABU?$less@K@1@V?$allocator@U?$pair@$$CBKPAVCUser@@@std@@@1@@Z 0040d520 f i user.obj
 0001:0000c530       ?construct@?$allocator@PAU_Node@?$_Tree_nod@V?$_Tmap_traits@KPAVCUser@@U?$less@K@std@@V?$allocator@U?$pair@$$CBKPAVCUser@@@std@@@3@$0A@@std@@@std@@@std@@QAEXPAPAU_Node@?$_Tree_nod@V?$_Tmap_traits@KPAVCUser@@U?$less@K@std@@V?$allocator@U?$pair@$$CBKPAVCUser@@@std@@@3@$0A@@std@@@2@ABQAU342@@Z 0040d530 f i user.obj
 0001:0000c550       ?begin@?$_Tree@V?$_Tmap_traits@KPAVCUser@@U?$less@K@std@@V?$allocator@U?$pair@$$CBKPAVCUser@@@std@@@3@$0A@@std@@@std@@QAE?AViterator@12@XZ 0040d550 f i user.obj
 0001:0000c560       ?end@?$_Tree@V?$_Tmap_traits@KPAVCUser@@U?$less@K@std@@V?$allocator@U?$pair@$$CBKPAVCUser@@@std@@@3@$0A@@std@@@std@@QAE?AViterator@12@XZ 0040d560 f i user.obj
 0001:0000c570       ??Citerator@?$_Tree@V?$_Tmap_traits@KPAVCUser@@U?$less@K@std@@V?$allocator@U?$pair@$$CBKPAVCUser@@@std@@@3@$0A@@std@@@std@@QBEPAU?$pair@$$CBKPAVCUser@@@2@XZ 0040d570 f i user.obj
 0001:0000c580       ?lower_bound@?$_Tree@V?$_Tmap_traits@KPAVCUser@@U?$less@K@std@@V?$allocator@U?$pair@$$CBKPAVCUser@@@std@@@3@$0A@@std@@@std@@QAE?AViterator@12@ABK@Z 0040d580 f i user.obj
 0001:0000c5c0       ?_Erase@?$_Tree@V?$_Tmap_traits@KPAVCUser@@U?$less@K@std@@V?$allocator@U?$pair@$$CBKPAVCUser@@@std@@@3@$0A@@std@@@std@@IAEXPAU_Node@?$_Tree_nod@V?$_Tmap_traits@KPAVCUser@@U?$less@K@std@@V?$allocator@U?$pair@$$CBKPAVCUser@@@std@@@3@$0A@@std@@@2@@Z 0040d5c0 f i user.obj
 0001:0000c600       ??Fiterator@?$_Tree@V?$_Tmap_traits@KPAVCUser@@U?$less@K@std@@V?$allocator@U?$pair@$$CBKPAVCUser@@@std@@@3@$0A@@std@@@std@@QAEAAV012@XZ 0040d600 f i user.obj
 0001:0000c610       ??Econst_iterator@?$_Tree@V?$_Tmap_traits@KPAVCUser@@U?$less@K@std@@V?$allocator@U?$pair@$$CBKPAVCUser@@@std@@@3@$0A@@std@@@std@@QAEAAV012@XZ 0040d610 f i user.obj
 0001:0000c620       ?upper_bound@?$_Tree@V?$_Tmap_traits@KPAVCUser@@U?$less@K@std@@V?$allocator@U?$pair@$$CBKPAVCUser@@@std@@@3@$0A@@std@@@std@@QAE?AViterator@12@ABK@Z 0040d620 f i user.obj
 0001:0000c660       ?_Buynode@?$_Tree@V?$_Tmap_traits@KPAVCUser@@U?$less@K@std@@V?$allocator@U?$pair@$$CBKPAVCUser@@@std@@@3@$0A@@std@@@std@@IAEPAU_Node@?$_Tree_nod@V?$_Tmap_traits@KPAVCUser@@U?$less@K@std@@V?$allocator@U?$pair@$$CBKPAVCUser@@@std@@@3@$0A@@std@@@2@PAU342@00ABU?$pair@$$CBKPAVCUser@@@2@D@Z 0040d660 f i user.obj
 0001:0000c6a0       ?_Buynode@?$_Tree@V?$_Tmap_traits@KPAVCUser@@U?$less@K@std@@V?$allocator@U?$pair@$$CBKPAVCUser@@@std@@@3@$0A@@std@@@std@@IAEPAU_Node@?$_Tree_nod@V?$_Tmap_traits@KPAVCUser@@U?$less@K@std@@V?$allocator@U?$pair@$$CBKPAVCUser@@@std@@@3@$0A@@std@@@2@XZ 0040d6a0 f i user.obj
 0001:0000c6e0       ??0?$_Tree_ptr@V?$_Tmap_traits@KPAVCUser@@U?$less@K@std@@V?$allocator@U?$pair@$$CBKPAVCUser@@@std@@@3@$0A@@std@@@std@@IAE@ABU?$less@K@1@V?$allocator@U?$pair@$$CBKPAVCUser@@@std@@@1@@Z 0040d6e0 f i user.obj
 0001:0000c6f0       ?clear@?$_Tree@V?$_Tmap_traits@KPAVCUser@@U?$less@K@std@@V?$allocator@U?$pair@$$CBKPAVCUser@@@std@@@3@$0A@@std@@@std@@QAEXXZ 0040d6f0 f i user.obj
 0001:0000c720       ?find@?$_Tree@V?$_Tmap_traits@KPAVCUser@@U?$less@K@std@@V?$allocator@U?$pair@$$CBKPAVCUser@@@std@@@3@$0A@@std@@@std@@QAE?AViterator@12@ABK@Z 0040d720 f i user.obj
 0001:0000c790       ??Eiterator@?$_Tree@V?$_Tmap_traits@KPAVCUser@@U?$less@K@std@@V?$allocator@U?$pair@$$CBKPAVCUser@@@std@@@3@$0A@@std@@@std@@QAEAAV012@XZ 0040d790 f i user.obj
 0001:0000c7a0       ?equal_range@?$_Tree@V?$_Tmap_traits@KPAVCUser@@U?$less@K@std@@V?$allocator@U?$pair@$$CBKPAVCUser@@@std@@@3@$0A@@std@@@std@@QAE?AU?$pair@Viterator@?$_Tree@V?$_Tmap_traits@KPAVCUser@@U?$less@K@std@@V?$allocator@U?$pair@$$CBKPAVCUser@@@std@@@3@$0A@@std@@@std@@V123@@2@ABK@Z 0040d7a0 f i user.obj
 0001:0000c810       ?_Init@?$_Tree@V?$_Tmap_traits@KPAVCUser@@U?$less@K@std@@V?$allocator@U?$pair@$$CBKPAVCUser@@@std@@@3@$0A@@std@@@std@@IAEXXZ 0040d810 f i user.obj
 0001:0000c840       ??0?$_Tree_val@V?$_Tmap_traits@KPAVCUser@@U?$less@K@std@@V?$allocator@U?$pair@$$CBKPAVCUser@@@std@@@3@$0A@@std@@@std@@IAE@ABU?$less@K@1@V?$allocator@U?$pair@$$CBKPAVCUser@@@std@@@1@@Z 0040d840 f i user.obj
 0001:0000c850       ??Eiterator@?$_Tree@V?$_Tmap_traits@KPAVCUser@@U?$less@K@std@@V?$allocator@U?$pair@$$CBKPAVCUser@@@std@@@3@$0A@@std@@@std@@QAE?AV012@H@Z 0040d850 f i user.obj
 0001:0000c870       ??$_Distance2@Viterator@?$_Tree@V?$_Tmap_traits@KPAVCUser@@U?$less@K@std@@V?$allocator@U?$pair@$$CBKPAVCUser@@@std@@@3@$0A@@std@@@std@@I@std@@YAXViterator@?$_Tree@V?$_Tmap_traits@KPAVCUser@@U?$less@K@std@@V?$allocator@U?$pair@$$CBKPAVCUser@@@std@@@3@$0A@@std@@@0@0AAIUbidirectional_iterator_tag@0@@Z 0040d870 f i user.obj
 0001:0000c8a0       ?GetUser@CUserMng@@QAEPAVCUser@@K@Z 0040d8a0 f   user.obj
 0001:0000c8d0       ?ClearDum@CUserMng@@QAEXPAVCDPMng@@@Z 0040d8d0 f   user.obj
 0001:0000ca30       ??0?$_Tree@V?$_Tmap_traits@KPAVCUser@@U?$less@K@std@@V?$allocator@U?$pair@$$CBKPAVCUser@@@std@@@3@$0A@@std@@@std@@QAE@ABU?$less@K@1@ABV?$allocator@U?$pair@$$CBKPAVCUser@@@std@@@1@@Z 0040da30 f i user.obj
 0001:0000ca60       ??$_Distance@Viterator@?$_Tree@V?$_Tmap_traits@KPAVCUser@@U?$less@K@std@@V?$allocator@U?$pair@$$CBKPAVCUser@@@std@@@3@$0A@@std@@@std@@I@std@@YAXViterator@?$_Tree@V?$_Tmap_traits@KPAVCUser@@U?$less@K@std@@V?$allocator@U?$pair@$$CBKPAVCUser@@@std@@@3@$0A@@std@@@0@0AAI@Z 0040da60 f i user.obj
 0001:0000caa0       ?_Insert@?$_Tree@V?$_Tmap_traits@KPAVCUser@@U?$less@K@std@@V?$allocator@U?$pair@$$CBKPAVCUser@@@std@@@3@$0A@@std@@@std@@IAE?AViterator@12@_NPAU_Node@?$_Tree_nod@V?$_Tmap_traits@KPAVCUser@@U?$less@K@std@@V?$allocator@U?$pair@$$CBKPAVCUser@@@std@@@3@$0A@@std@@@2@ABU?$pair@$$CBKPAVCUser@@@2@@Z 0040daa0 f i user.obj
 0001:0000cc50       ?erase@?$_Tree@V?$_Tmap_traits@KPAVCUser@@U?$less@K@std@@V?$allocator@U?$pair@$$CBKPAVCUser@@@std@@@3@$0A@@std@@@std@@QAE?AViterator@12@V312@@Z 0040dc50 f i user.obj
 0001:0000cf10       ?insert@?$_Tree@V?$_Tmap_traits@KPAVCUser@@U?$less@K@std@@V?$allocator@U?$pair@$$CBKPAVCUser@@@std@@@3@$0A@@std@@@std@@QAE?AU?$pair@Viterator@?$_Tree@V?$_Tmap_traits@KPAVCUser@@U?$less@K@std@@V?$allocator@U?$pair@$$CBKPAVCUser@@@std@@@3@$0A@@std@@@std@@_N@2@ABU?$pair@$$CBKPAVCUser@@@2@@Z 0040df10 f i user.obj
 0001:0000cfd0       ?erase@?$_Tree@V?$_Tmap_traits@KPAVCUser@@U?$less@K@std@@V?$allocator@U?$pair@$$CBKPAVCUser@@@std@@@3@$0A@@std@@@std@@QAE?AViterator@12@V312@0@Z 0040dfd0 f i user.obj
 0001:0000d090       ?_Tidy@?$_Tree@V?$_Tmap_traits@KPAVCUser@@U?$less@K@std@@V?$allocator@U?$pair@$$CBKPAVCUser@@@std@@@3@$0A@@std@@@std@@IAEXXZ 0040e090 f i user.obj
 0001:0000d0c0       ?AddUser@CUserMng@@QAEHK@Z 0040e0c0 f   user.obj
 0001:0000d1b0       ??1?$_Tree@V?$_Tmap_traits@KPAVCUser@@U?$less@K@std@@V?$allocator@U?$pair@$$CBKPAVCUser@@@std@@@3@$0A@@std@@@std@@QAE@XZ 0040e1b0 f i user.obj
 0001:0000d1e0       ?erase@?$_Tree@V?$_Tmap_traits@KPAVCUser@@U?$less@K@std@@V?$allocator@U?$pair@$$CBKPAVCUser@@@std@@@3@$0A@@std@@@std@@QAEIABK@Z 0040e1e0 f i user.obj
 0001:0000d240       ??1?$map@KPAVCUser@@U?$less@K@std@@V?$allocator@U?$pair@$$CBKPAVCUser@@@std@@@3@@std@@QAE@XZ 0040e240 f i user.obj
 0001:0000d270       ??1CUserMng@@UAE@XZ        0040e270 f   user.obj
 0001:0000d390       ?RemoveUser@CUserMng@@QAEHK@Z 0040e390 f   user.obj
 0001:0000d450       ??0?$map@KPAVCUser@@U?$less@K@std@@V?$allocator@U?$pair@$$CBKPAVCUser@@@std@@@3@@std@@QAE@XZ 0040e450 f i user.obj
 0001:0000d480       ??0CUserMng@@QAE@XZ        0040e480 f   user.obj
 0001:0000d4d0       ??_ECUserMng@@UAEPAXI@Z    0040e4d0 f i user.obj
 0001:0000d4d0       ??_GCUserMng@@UAEPAXI@Z    0040e4d0 f i user.obj
 0001:0000d4f0       ?GetInstance@CUserMng@@SAPAV1@XZ 0040e4f0 f   user.obj
 0001:0000d550       ?Restart@CRC32@@QAEXXZ     0040e550 f i buffer.obj
 0001:0000d560       ?DigestSize@CRC32@@QBEIXZ  0040e560 f i buffer.obj
 0001:0000d570       ?GetWritableBuffer@CBuffer@@QAEPAEPAH@Z 0040e570 f i buffer.obj
 0001:0000d590       ?GetWritableBufferSize@CBuffer@@QAEHXZ 0040e590 f i buffer.obj
 0001:0000d5a0       ?GetReadableBuffer@CBuffer@@QAEPAEPAH@Z 0040e5a0 f i buffer.obj
 0001:0000d5c0       ?GetReadableBufferSize@CBuffer@@QAEHXZ 0040e5c0 f i buffer.obj
 0001:0000d5d0       ?GetHead@CBufferQueue@@QAEPAVCBuffer@@XZ 0040e5d0 f i buffer.obj
 0001:0000d5e0       ?GetTail@CBufferQueue@@QAEPAVCBuffer@@XZ 0040e5e0 f i buffer.obj
 0001:0000d5f0       ?IsEmpty@CBufferQueue@@QAEHXZ 0040e5f0 f i buffer.obj
 0001:0000d600       ?RemoveHead@CBufferQueue@@QAEXXZ 0040e600 f i buffer.obj
 0001:0000d640       ??0CBuffer@@QAE@K@Z        0040e640 f   buffer.obj
 0001:0000d6b0       ?GetPacketSize@CBuffer@@UAEKPAE@Z 0040e6b0 f i buffer.obj
 0001:0000d6c0       ?SetHeader@CBuffer@@UAEXK@Z 0040e6c0 f i buffer.obj
 0001:0000d6f0       ??1CBuffer@@UAE@XZ         0040e6f0 f   buffer.obj
 0001:0000d720       ?RemoveData@CBufferQueue@@QAEXK@Z 0040e720 f   buffer.obj
 0001:0000d7a0       ?GetData@CBufferQueue@@QAEXPAU_WSABUF@@PAK@Z 0040e7a0 f   buffer.obj
 0001:0000d7f0       ??0CBufferFactory@@AAE@XZ  0040e7f0 f   buffer.obj
 0001:0000d800       ?GetInstance@CBufferFactory@@SAAAV1@XZ 0040e800 f   buffer.obj
 0001:0000d820       ?Free@?$MemPooler@VCBuffer@@@@QAEHPAVCBuffer@@@Z 0040e820 f i buffer.obj
 0001:0000d870       ?Free@?$MemPooler@VCBuffer2@@@@QAEHPAVCBuffer2@@@Z 0040e870 f i buffer.obj
 0001:0000d8c0       ??0?$allocator@PAX@std@@QAE@XZ 0040e8c0 f i buffer.obj
 0001:0000d8d0       ??0?$allocator@PAX@std@@QAE@ABV01@@Z 0040e8d0 f i buffer.obj
 0001:0000d8e0       ?_Nextnode@?$list@PAXV?$allocator@PAX@std@@@std@@KAAAPAU_Node@?$_List_nod@PAXV?$allocator@PAX@std@@@2@PAU342@@Z 0040e8e0 f i buffer.obj
 0001:0000d8f0       ?_Prevnode@?$list@PAXV?$allocator@PAX@std@@@std@@KAAAPAU_Node@?$_List_nod@PAXV?$allocator@PAX@std@@@2@PAU342@@Z 0040e8f0 f i buffer.obj
 0001:0000d900       ?deallocate@?$allocator@U_Node@?$_List_nod@PAXV?$allocator@PAX@std@@@std@@@std@@QAEXPAU_Node@?$_List_nod@PAXV?$allocator@PAX@std@@@2@I@Z 0040e900 f i buffer.obj
 0001:0000d910       ?_Mynode@const_iterator@?$list@PAXV?$allocator@PAX@std@@@std@@QBEPAU_Node@?$_List_nod@PAXV?$allocator@PAX@std@@@3@XZ 0040e910 f i buffer.obj
 0001:0000d920       ??0const_iterator@?$list@PAXV?$allocator@PAX@std@@@std@@QAE@PAU_Node@?$_List_nod@PAXV?$allocator@PAX@std@@@2@@Z 0040e920 f i buffer.obj
 0001:0000d930       ??0_Node@?$_List_nod@PAXV?$allocator@PAX@std@@@std@@QAE@PAU012@0ABQAX@Z 0040e930 f i buffer.obj
 0001:0000d950       ?max_size@?$allocator@PAX@std@@QBEIXZ 0040e950 f i buffer.obj
 0001:0000d960       ??$?0PAX@?$allocator@PAU_Node@?$_List_nod@PAXV?$allocator@PAX@std@@@std@@@std@@QAE@ABV?$allocator@PAX@1@@Z 0040e960 f i buffer.obj
 0001:0000d970       ??$_Allocate@U_Node@?$_List_nod@PAXV?$allocator@PAX@std@@@std@@@std@@YAPAU_Node@?$_List_nod@PAXV?$allocator@PAX@std@@@0@IPAU120@@Z 0040e970 f i buffer.obj
 0001:0000d990       ??$_Construct@PAU_Node@?$_List_nod@PAXV?$allocator@PAX@std@@@std@@PAU123@@std@@YAXPAPAU_Node@?$_List_nod@PAXV?$allocator@PAX@std@@@0@ABQAU120@@Z 0040e990 f i buffer.obj
 0001:0000d9b0       ??$_Destroy@PAU_Node@?$_List_nod@PAXV?$allocator@PAX@std@@@std@@@std@@YAXPAPAU_Node@?$_List_nod@PAXV?$allocator@PAX@std@@@0@@Z 0040e9b0 f i buffer.obj
 0001:0000d9c0       ??$?0PAX@?$allocator@U_Node@?$_List_nod@PAXV?$allocator@PAX@std@@@std@@@std@@QAE@ABV?$allocator@PAX@1@@Z 0040e9c0 f i buffer.obj
 0001:0000d9d0       ??$_Destroy@U_Node@?$_List_nod@PAXV?$allocator@PAX@std@@@std@@@std@@YAXPAU_Node@?$_List_nod@PAXV?$allocator@PAX@std@@@0@@Z 0040e9d0 f i buffer.obj
 0001:0000d9e0       ?Final@CRC32@@QAEXPAE@Z    0040e9e0 f i buffer.obj
 0001:0000d9f0       ??3CBuffer@@SAXPAX@Z       0040e9f0 f i buffer.obj
 0001:0000da30       ??0CBuffer2@@QAE@K@Z       0040ea30 f i buffer.obj
 0001:0000da60       ?GetPacketSize@CBuffer2@@UAEKPAE@Z 0040ea60 f i buffer.obj
 0001:0000da80       ?SetHeader@CBuffer2@@UAEXK@Z 0040ea80 f i buffer.obj
 0001:0000dab0       ??3CBuffer2@@SAXPAX@Z      0040eab0 f i buffer.obj
 0001:0000daf0       ?AddTail@CBufferQueue@@QAEXPAVCBuffer@@@Z 0040eaf0 f i buffer.obj
 0001:0000db50       ??_GCBuffer@@UAEPAXI@Z     0040eb50 f i buffer.obj
 0001:0000db50       ??_ECBuffer@@UAEPAXI@Z     0040eb50 f i buffer.obj
 0001:0000dbd0       ??0CBufferQueue@@QAE@XZ    0040ebd0 f   buffer.obj
 0001:0000dc10       ?Clear@CBufferQueue@@QAEXH@Z 0040ec10 f   buffer.obj
 0001:0000dc90       ?allocate@?$allocator@U_Node@?$_List_nod@PAXV?$allocator@PAX@std@@@std@@@std@@QAEPAU_Node@?$_List_nod@PAXV?$allocator@PAX@std@@@2@I@Z 0040ec90 f i buffer.obj
 0001:0000dcb0       ?construct@?$allocator@PAU_Node@?$_List_nod@PAXV?$allocator@PAX@std@@@std@@@std@@QAEXPAPAU_Node@?$_List_nod@PAXV?$allocator@PAX@std@@@2@ABQAU342@@Z 0040ecb0 f i buffer.obj
 0001:0000dcd0       ?destroy@?$allocator@PAU_Node@?$_List_nod@PAXV?$allocator@PAX@std@@@std@@@std@@QAEXPAPAU_Node@?$_List_nod@PAXV?$allocator@PAX@std@@@2@@Z 0040ecd0 f i buffer.obj
 0001:0000dce0       ?_Buynode@?$list@PAXV?$allocator@PAX@std@@@std@@IAEPAU_Node@?$_List_nod@PAXV?$allocator@PAX@std@@@2@PAU342@0ABQAX@Z 0040ece0 f i buffer.obj
 0001:0000dd10       ??0?$_List_nod@PAXV?$allocator@PAX@std@@@std@@IAE@V?$allocator@PAX@1@@Z 0040ed10 f i buffer.obj
 0001:0000dd20       ?destroy@?$allocator@U_Node@?$_List_nod@PAXV?$allocator@PAX@std@@@std@@@std@@QAEXPAU_Node@?$_List_nod@PAXV?$allocator@PAX@std@@@2@@Z 0040ed20 f i buffer.obj
 0001:0000dd30       ??0iterator@?$list@PAXV?$allocator@PAX@std@@@std@@QAE@PAU_Node@?$_List_nod@PAXV?$allocator@PAX@std@@@2@@Z 0040ed30 f i buffer.obj
 0001:0000dd40       ?max_size@?$list@PAXV?$allocator@PAX@std@@@std@@QBEIXZ 0040ed40 f i buffer.obj
 0001:0000dd50       ??_GCBuffer2@@UAEPAXI@Z    0040ed50 f i buffer.obj
 0001:0000dd50       ??_ECBuffer2@@UAEPAXI@Z    0040ed50 f i buffer.obj
 0001:0000dda0       ??1CBuffer2@@UAE@XZ        0040eda0 f i buffer.obj
 0001:0000ddd0       ??1CBufferQueue@@UAE@XZ    0040edd0 f   buffer.obj
 0001:0000de30       ?_Buynode@?$list@PAXV?$allocator@PAX@std@@@std@@IAEPAU_Node@?$_List_nod@PAXV?$allocator@PAX@std@@@2@XZ 0040ee30 f i buffer.obj
 0001:0000de50       ?end@?$list@PAXV?$allocator@PAX@std@@@std@@QAE?AViterator@12@XZ 0040ee50 f i buffer.obj
 0001:0000de60       ?clear@?$list@PAXV?$allocator@PAX@std@@@std@@QAEXXZ 0040ee60 f i buffer.obj
 0001:0000dea0       ??0?$_List_ptr@PAXV?$allocator@PAX@std@@@std@@IAE@V?$allocator@PAX@1@@Z 0040eea0 f i buffer.obj
 0001:0000deb0       ??_GCBufferQueue@@UAEPAXI@Z 0040eeb0 f i buffer.obj
 0001:0000deb0       ??_ECBufferQueue@@UAEPAXI@Z 0040eeb0 f i buffer.obj
 0001:0000ded0       ?_Tidy@?$list@PAXV?$allocator@PAX@std@@@std@@IAEXXZ 0040eed0 f i buffer.obj
 0001:0000def0       ??0?$_List_val@PAXV?$allocator@PAX@std@@@std@@IAE@V?$allocator@PAX@1@@Z 0040eef0 f i buffer.obj
 0001:0000df00       ??0?$list@PAXV?$allocator@PAX@std@@@std@@QAE@XZ 0040ef00 f i buffer.obj
 0001:0000df20       ??1?$list@PAXV?$allocator@PAX@std@@@std@@QAE@XZ 0040ef20 f i buffer.obj
 0001:0000df40       ?_Incsize@?$list@PAXV?$allocator@PAX@std@@@std@@IAEXI@Z 0040ef40 f i buffer.obj
 0001:0000dfe0       ?_Insert@?$list@PAXV?$allocator@PAX@std@@@std@@QAEXViterator@12@ABQAX@Z 0040efe0 f i buffer.obj
 0001:0000e020       ?push_back@?$list@PAXV?$allocator@PAX@std@@@std@@QAEXABQAX@Z 0040f020 f i buffer.obj
 0001:0000e060       ?Create@?$MemPooler@VCBuffer@@@@IAEXXZ 0040f060 f i buffer.obj
 0001:0000e0f0       ?Create@?$MemPooler@VCBuffer2@@@@IAEXXZ 0040f0f0 f i buffer.obj
 0001:0000e180       ??0?$MemPooler@VCBuffer@@@@QAE@H@Z 0040f180 f i buffer.obj
 0001:0000e200       ?Alloc@?$MemPooler@VCBuffer@@@@QAEPAVCBuffer@@XZ 0040f200 f i buffer.obj
 0001:0000e240       ??0?$MemPooler@VCBuffer2@@@@QAE@H@Z 0040f240 f i buffer.obj
 0001:0000e2c0       ?Alloc@?$MemPooler@VCBuffer2@@@@QAEPAVCBuffer2@@XZ 0040f2c0 f i buffer.obj
 0001:0000e300       ??2CBuffer@@SAPAXI@Z       0040f300 f i buffer.obj
 0001:0000e340       ??2CBuffer2@@SAPAXI@Z      0040f340 f i buffer.obj
 0001:0000e380       ?CreateBuffer@CBufferFactory@@QAEPAVCBuffer@@W4BUFFER_TYPE@@K@Z 0040f380 f   buffer.obj
 0001:0000e4a0       ?AddData@CBufferQueue@@QAEXPAEKW4BUFFER_TYPE@@@Z 0040f4a0 f   buffer.obj
 0001:0000e650       ?GetHandle@CSock@@QAEIXZ   0040f650 f i clientsock.obj
 0001:0000e660       ?GetSize@CBuffer@@QAEHXZ   0040f660 f i clientsock.obj
 0001:0000e670       ?crc@CBufferQueue@@QAEXPAVCRC32@@PAK@Z 0040f670 f i clientsock.obj
 0001:0000e690       ?Close@CClientSock@@UAEXXZ 0040f690 f   clientsock.obj
 0001:0000e6d0       ?CloseConnection@CClientSock@@UAEHI@Z 0040f6d0 f   clientsock.obj
 0001:0000e6e0       ?Shutdown@CClientSock@@UAEHI@Z 0040f6e0 f   clientsock.obj
 0001:0000e6f0       ?Connect@CClientSock@@QAEHPADG@Z 0040f6f0 f   clientsock.obj
 0001:0000e7d0       ?Recv@CClientSock@@QAEHXZ  0040f7d0 f   clientsock.obj
 0001:0000e850       ?GetPeerAddr@CClientSock@@UAEJKPAXPAK@Z 0040f850 f   clientsock.obj
 0001:0000e8f0       ?CreateBuffer@CClientSock@@QAEPAVCBuffer@@XZ 0040f8f0 f   clientsock.obj
 0001:0000e910       ?SendProtocolId@CClientSock@@QAEXXZ 0040f910 f   clientsock.obj
 0001:0000e980       ??0CClientSock@@QAE@K@Z    0040f980 f   clientsock.obj
 0001:0000ea60       ?Get@CSock@@UAEPAV1@I@Z    0040fa60 f i clientsock.obj
 0001:0000ea80       ?SetProtocolId@CClientSock@@UAEXK@Z 0040fa80 f i clientsock.obj
 0001:0000ea90       ?GetPeerAddr@CClientSock@@UAEKK@Z 0040fa90 f i clientsock.obj
 0001:0000eaa0       ??1CClientSock@@UAE@XZ     0040faa0 f   clientsock.obj
 0001:0000eb40       ?Send@CClientSock@@UAEXPADKK@Z 0040fb40 f   clientsock.obj
 0001:0000ec70       ?SendRemnant@CClientSock@@QAEHK@Z 0040fc70 f   clientsock.obj
 0001:0000ed80       ?Fetch@CClientSock@@QAEPAVCBuffer@@K@Z 0040fd80 f   clientsock.obj
 0001:0000f0c0       ??_GCClientSock@@UAEPAXI@Z 004100c0 f i clientsock.obj
 0001:0000f0c0       ??_ECClientSock@@UAEPAXI@Z 004100c0 f i clientsock.obj
 0001:0000f0f0       ?Free@?$MemPooler@VCClientSock@@@@QAEHPAVCClientSock@@@Z 004100f0 f i clientsock.obj
 0001:0000f140       ?Create@?$MemPooler@VCClientSock@@@@IAEXXZ 00410140 f i clientsock.obj
 0001:0000f1d0       ??0?$MemPooler@VCClientSock@@@@QAE@H@Z 004101d0 f i clientsock.obj
 0001:0000f250       ??0CClientSockE@@QAE@K@Z   00410250 f   clientsocke.obj
 0001:0000f310       ?GetPeerAddr@CSock@@UAEKK@Z 00410310 f i clientsocke.obj
 0001:0000f320       ?SetProtocolId@CClientSockE@@UAEXK@Z 00410320 f i clientsocke.obj
 0001:0000f330       ?Close@CClientSockE@@UAEXXZ 00410330 f   clientsocke.obj
 0001:0000f390       ?CloseConnection@CClientSockE@@UAEHI@Z 00410390 f   clientsocke.obj
 0001:0000f3a0       ?Shutdown@CClientSockE@@UAEHI@Z 004103a0 f   clientsocke.obj
 0001:0000f3b0       ?Create@CClientSockE@@UAEHGH@Z 004103b0 f   clientsocke.obj
 0001:0000f3f0       ?Attach@CClientSockE@@UAEXI@Z 004103f0 f   clientsocke.obj
 0001:0000f430       ?Connect@CClientSockE@@QAEHPADG@Z 00410430 f   clientsocke.obj
 0001:0000f510       ?Recv@CClientSockE@@QAEHXZ 00410510 f   clientsocke.obj
 0001:0000f5b0       ?GetPeerAddr@CClientSockE@@UAEJKPAXPAK@Z 004105b0 f   clientsocke.obj
 0001:0000f650       ?CreateBuffer@CClientSockE@@QAEPAVCBuffer@@XZ 00410650 f   clientsocke.obj
 0001:0000f670       ?SendProtocolId@CClientSockE@@QAEXXZ 00410670 f   clientsocke.obj
 0001:0000f6c0       ??1CClientSockE@@UAE@XZ    004106c0 f   clientsocke.obj
 0001:0000f720       ?Send@CClientSockE@@UAEXPADKK@Z 00410720 f   clientsocke.obj
 0001:0000f820       ?SendRemnant@CClientSockE@@QAEHK@Z 00410820 f   clientsocke.obj
 0001:0000f940       ?Fetch@CClientSockE@@QAEPAVCBuffer@@K@Z 00410940 f   clientsocke.obj
 0001:0000fb50       ??_GCClientSockE@@UAEPAXI@Z 00410b50 f i clientsocke.obj
 0001:0000fb50       ??_ECClientSockE@@UAEPAXI@Z 00410b50 f i clientsocke.obj
 0001:0000fb80       ?Free@?$MemPooler@VCClientSockE@@@@QAEHPAVCClientSockE@@@Z 00410b80 f i clientsocke.obj
 0001:0000fbd0       ?Create@?$MemPooler@VCClientSockE@@@@IAEXXZ 00410bd0 f i clientsocke.obj
 0001:0000fc60       ??0?$MemPooler@VCClientSockE@@@@QAE@H@Z 00410c60 f i clientsocke.obj
 0001:0000fce0       ?GetCrcByte@CRC32@@QBEEI@Z 00410ce0 f i crc.obj
 0001:0000fcf0       ?Reset@CRC32@@AAEXXZ       00410cf0 f i crc.obj
 0001:0000fd00       ??0CRC32@@QAE@XZ           00410d00 f   crc.obj
 0001:0000fd10       ?ThrowIfInvalidTruncatedSize@CRC32@@ABEXI@Z 00410d10 f   crc.obj
 0001:0000fd20       ?TruncatedFinal@CRC32@@QAEXPAEI@Z 00410d20 f   crc.obj
 0001:0000fd60       ??$IsPowerOf2@I@@YA_NI@Z   00410d60 f i crc.obj
 0001:0000fd80       ??$ModPowerOf2@II@@YAIII@Z 00410d80 f i crc.obj
 0001:0000fd90       ??$GetAlignment@I@@YAIPAI@Z 00410d90 f i crc.obj
 0001:0000fda0       ?IsAlignedOn@@YA_NPBXI@Z   00410da0 f i crc.obj
 0001:0000fdd0       ??$IsAligned@I@@YA_NPBXPAI@Z 00410dd0 f i crc.obj
 0001:0000fde0       ?Update@CRC32@@QAEXPBEI@Z  00410de0 f   crc.obj
 0001:0000fef0       ?GetRecvHandle@CDPSock@@QAEPAXXZ 00410ef0 f i dpmng.obj
 0001:0000ff00       ?GetHostAddr@CDPSock@@QAEJPAXPAK@Z 00410f00 f i dpmng.obj
 0001:0000ff20       ?GetPlayerAddr@CDPSock@@QAEJKPAXPAK@Z 00410f20 f i dpmng.obj
 0001:0000ff30       ?GetPlayerAddr@CDPSock@@QAEKK@Z 00410f30 f i dpmng.obj
 0001:0000ff40       ?GetRecvHandle@CDPMng@@QAEPAXXZ 00410f40 f i dpmng.obj
 0001:0000ff50       ?GetCloseHandle@CDPMng@@QAEPAXXZ 00410f50 f i dpmng.obj
 0001:0000ff60       ??0CDPMng@@QAE@XZ          00410f60 f   dpmng.obj
 0001:0000ff80       ??1CDPMng@@UAE@XZ          00410f80 f   dpmng.obj
 0001:0000ff90       ?DeleteDPObject@CDPMng@@QAEHXZ 00410f90 f   dpmng.obj
 0001:00010000       ?InitConnection@CDPMng@@QAEHPAXG@Z 00411000 f   dpmng.obj
 0001:00010020       ?GetHostAddr@CDPMng@@QAEXPAD@Z 00411020 f   dpmng.obj
 0001:00010050       ?GetPlayerAddr@CDPMng@@QAEXKPAD@Z 00411050 f   dpmng.obj
 0001:00010080       ?GetPlayerAddr@CDPMng@@QAEKK@Z 00411080 f   dpmng.obj
 0001:000100a0       ?ReceiveMessage@CDPMng@@QAEHXZ 004110a0 f   dpmng.obj
 0001:00010140       ?DestroyPlayer@CDPMng@@QAEHK@Z 00411140 f   dpmng.obj
 0001:00010160       ?ReceiveThread@@YGIPAX@Z   00411160 f   dpmng.obj
 0001:000101c0       ?InitializeNetLib@@YAHXZ   004111c0 f   dpmng.obj
 0001:00010210       ?TestNetLib@@YAXPBDG@Z     00411210 f   dpmng.obj
 0001:000102b0       ??Econst_iterator@?$list@PAXV?$allocator@PAX@std@@@std@@QAEAAV012@XZ 004112b0 f i dpmng.obj
 0001:000102c0       ??8const_iterator@?$list@PAXV?$allocator@PAX@std@@@std@@QBE_NABV012@@Z 004112c0 f i dpmng.obj
 0001:000102d0       ?_Myval@?$list@PAXV?$allocator@PAX@std@@@std@@KAAAPAXPAU_Node@?$_List_nod@PAXV?$allocator@PAX@std@@@2@@Z 004112d0 f i dpmng.obj
 0001:000102e0       ?chWindows9x@@YAHXZ        004112e0 f i dpmng.obj
 0001:00010340       ??_GCDPMng@@UAEPAXI@Z      00411340 f i dpmng.obj
 0001:00010340       ??_ECDPMng@@UAEPAXI@Z      00411340 f i dpmng.obj
 0001:00010360       ?CreateDPObject@CDPMng@@QAEHH@Z 00411360 f   dpmng.obj
 0001:00010420       ?CreateSession@CDPMng@@QAEHPBDK@Z 00411420 f   dpmng.obj
 0001:00010460       ?JoinSession@CDPMng@@QAEHPBDKK@Z 00411460 f   dpmng.obj
 0001:000104b0       ??Eiterator@?$list@PAXV?$allocator@PAX@std@@@std@@QAEAAV012@XZ 004114b0 f i dpmng.obj
 0001:000104c0       ??9const_iterator@?$list@PAXV?$allocator@PAX@std@@@std@@QBE_NABV012@@Z 004114c0 f i dpmng.obj
 0001:000104e0       ??Dconst_iterator@?$list@PAXV?$allocator@PAX@std@@@std@@QBEABQAXXZ 004114e0 f i dpmng.obj
 0001:000104f0       ?begin@?$list@PAXV?$allocator@PAX@std@@@std@@QAE?AViterator@12@XZ 004114f0 f i dpmng.obj
 0001:00010500       ??Diterator@?$list@PAXV?$allocator@PAX@std@@@std@@QBEAAPAXXZ 00411500 f i dpmng.obj
 0001:00010510       ?Destroy@?$MemPooler@VCBuffer@@@@IAEXXZ 00411510 f i dpmng.obj
 0001:00010580       ?Destroy@?$MemPooler@VCBuffer2@@@@IAEXXZ 00411580 f i dpmng.obj
 0001:000105f0       ?Destroy@?$MemPooler@VCClientSock@@@@IAEXXZ 004115f0 f i dpmng.obj
 0001:00010660       ?Destroy@?$MemPooler@VCClientSockE@@@@IAEXXZ 00411660 f i dpmng.obj
 0001:000106d0       ??1?$MemPooler@VCBuffer@@@@QAE@XZ 004116d0 f i dpmng.obj
 0001:00010700       ??1?$MemPooler@VCBuffer2@@@@QAE@XZ 00411700 f i dpmng.obj
 0001:00010730       ??1?$MemPooler@VCClientSock@@@@QAE@XZ 00411730 f i dpmng.obj
 0001:00010760       ??1?$MemPooler@VCClientSockE@@@@QAE@XZ 00411760 f i dpmng.obj
 0001:00010790       ??_G?$MemPooler@VCClientSock@@@@QAEPAXI@Z 00411790 f i dpmng.obj
 0001:000107b0       ??_G?$MemPooler@VCClientSockE@@@@QAEPAXI@Z 004117b0 f i dpmng.obj
 0001:000107d0       ??_G?$MemPooler@VCBuffer@@@@QAEPAXI@Z 004117d0 f i dpmng.obj
 0001:000107f0       ??_G?$MemPooler@VCBuffer2@@@@QAEPAXI@Z 004117f0 f i dpmng.obj
 0001:00010810       ?UninitializeNetLib@@YAXXZ 00411810 f   dpmng.obj
 0001:000108d0       ?SetID@CSock@@QAEXK@Z      004118d0 f i dpsock.obj
 0001:000108e0       ?GetID@CSock@@QAEKXZ       004118e0 f i dpsock.obj
 0001:000108f0       ?SetPeerID@CSock@@QAEXK@Z  004118f0 f i dpsock.obj
 0001:00010900       ?IsCrcWrite@CClientSock@@QAEHXZ 00411900 f i dpsock.obj
 0001:00010910       ?IsCrcWrite@CClientSockE@@QAEHXZ 00411910 f i dpsock.obj
 0001:00010920       ?GetRecvEvent@CClientSockE@@QAEPAXXZ 00411920 f i dpsock.obj
 0001:00010930       ?GetSendEvent@CClientSockE@@QAEPAXXZ 00411930 f i dpsock.obj
 0001:00010940       ?GetServerSock@CDPSock@@QAEPAVCSock@@XZ 00411940 f i dpsock.obj
 0001:00010960       ?GetCompletionPort@CDPSock@@QAEPAXH@Z 00411960 f i dpsock.obj
 0001:00010970       ?GetCloseHandle@CDPSock@@QAEPAXXZ 00411970 f i dpsock.obj
 0001:00010980       ?GetIoWorkerCount@CDPSock@@QAEHXZ 00411980 f i dpsock.obj
 0001:00010990       ?GetSockThreaded@CDPSock@@QAEPAVCSock@@XZ 00411990 f i dpsock.obj
 0001:000109a0       ?Get@CDPSock@@QAEPAVCClientSock@@I@Z 004119a0 f i dpsock.obj
 0001:000109c0       ?InitializeConnection@CDPSock@@QAEHPAXK@Z 004119c0 f   dpsock.obj
 0001:00010a00       ?Send@CDPSock@@QAEHPADKK@Z 00411a00 f   dpsock.obj
 0001:00010a30       ?Shutdown@CDPSock@@QAEHK@Z 00411a30 f   dpsock.obj
 0001:00010a50       ?SetProtocolId@CDPSock@@QAEXK@Z 00411a50 f   dpsock.obj
 0001:00010a80       ?size@?$list@PAXV?$allocator@PAX@std@@@std@@QBEIXZ 00411a80 f i dpsock.obj
 0001:00010a90       ??0CSystemInfo@@QAE@XZ     00411a90 f i dpsock.obj
 0001:00010aa0       ??3CClientSock@@SAXPAX@Z   00411aa0 f i dpsock.obj
 0001:00010ae0       ??3CClientSockE@@SAXPAX@Z  00411ae0 f i dpsock.obj
 0001:00010b20       ?Receive@CDPSock@@QAEPAVCBuffer@@XZ 00411b20 f   dpsock.obj
 0001:00010b90       ?AddCreatePlayerOrGroupMsg@CDPSock@@QAEXKPAVCBuffer@@@Z 00411b90 f   dpsock.obj
 0001:00010c70       ?AddDestroyPlayerOrGroupMsg@CDPSock@@QAEXKPAVCBuffer@@@Z 00411c70 f   dpsock.obj
 0001:00010d50       ??Eiterator@?$list@PAXV?$allocator@PAX@std@@@std@@QAE?AV012@H@Z 00411d50 f i dpsock.obj
 0001:00010d60       ?CloseConnection@CDPSock@@QAEXK@Z 00411d60 f   dpsock.obj
 0001:00010dc0       ?IoWorkerThread@@YGIPAX@Z  00411dc0 f   dpsock.obj
 0001:00011140       ?erase@?$list@PAXV?$allocator@PAX@std@@@std@@QAE?AViterator@12@V312@@Z 00412140 f i dpsock.obj
 0001:00011180       ?RemoveThread@CDPSock@@QAEXPAX@Z 00412180 f   dpsock.obj
 0001:000111f0       ?EventWorkerThread@@YGIPAX@Z 004121f0 f   dpsock.obj
 0001:000113c0       ?front@?$list@PAXV?$allocator@PAX@std@@@std@@QAEAAPAXXZ 004123c0 f i dpsock.obj
 0001:000113d0       ?pop_front@?$list@PAXV?$allocator@PAX@std@@@std@@QAEXXZ 004123d0 f i dpsock.obj
 0001:00011400       ?CloseIoWorker@CDPSock@@AAEHXZ 00412400 f   dpsock.obj
 0001:000115d0       ??0CDPSock@@QAE@XZ         004125d0 f   dpsock.obj
 0001:00011690       ?Close@CDPSock@@QAEHXZ     00412690 f   dpsock.obj
 0001:000116f0       ?CreateServerE@CDPSock@@QAEHK@Z 004126f0 f   dpsock.obj
 0001:00011800       ??1CDPSock@@UAE@XZ         00412800 f   dpsock.obj
 0001:000118b0       ??_ECDPSock@@UAEPAXI@Z     004128b0 f i dpsock.obj
 0001:000118b0       ??_GCDPSock@@UAEPAXI@Z     004128b0 f i dpsock.obj
 0001:000118d0       ?CreateIoWorker@CDPSock@@AAEHK@Z 004128d0 f   dpsock.obj
 0001:000119b0       ?CreateEventWorker@CDPSock@@QAEHPAVCSock@@@Z 004129b0 f   dpsock.obj
 0001:00011a50       ?CreateServer@CDPSock@@QAEHK@Z 00412a50 f   dpsock.obj
 0001:00011b70       ?Alloc@?$MemPooler@VCClientSock@@@@QAEPAVCClientSock@@XZ 00412b70 f i dpsock.obj
 0001:00011bb0       ?Alloc@?$MemPooler@VCClientSockE@@@@QAEPAVCClientSockE@@XZ 00412bb0 f i dpsock.obj
 0001:00011bf0       ??2CClientSock@@SAPAXI@Z   00412bf0 f i dpsock.obj
 0001:00011c30       ??2CClientSockE@@SAPAXI@Z  00412c30 f i dpsock.obj
 0001:00011c70       ?JoinToServer@CDPSock@@QAEHKK@Z 00412c70 f   dpsock.obj
 0001:00011e90       ?JoinToServerE@CDPSock@@QAEHKK@Z 00412e90 f   dpsock.obj
 0001:000120a0       ?GetListenHandle@CServerSock@@QAEPAXXZ 004130a0 f i serversock.obj
 0001:000120b0       ?GetCloseHandle@CServerSock@@QAEPAXXZ 004130b0 f i serversock.obj
 0001:000120c0       ?GetCompletionPort@CServerSock@@QAEPAXH@Z 004130c0 f i serversock.obj
 0001:000120d0       ?GetIoWorkerCount@CServerSock@@QAEHXZ 004130d0 f i serversock.obj
 0001:000120e0       ?Listen@CServerSock@@QAEHXZ 004130e0 f   serversock.obj
 0001:00012120       ?GetPeerAddr@CServerSock@@QAEJIPAK@Z 00413120 f   serversock.obj
 0001:000121a0       ??0?$pair@$$CBKPAVCClientSock@@@std@@QAE@ABKABQAVCClientSock@@@Z 004131a0 f i serversock.obj
 0001:000121c0       ?_Color@?$_Tree@V?$_Tmap_traits@KPAVCClientSock@@U?$less@K@std@@V?$allocator@U?$pair@$$CBKPAVCClientSock@@@std@@@3@$0A@@std@@@std@@KAAADPAU_Node@?$_Tree_nod@V?$_Tmap_traits@KPAVCClientSock@@U?$less@K@std@@V?$allocator@U?$pair@$$CBKPAVCClientSock@@@std@@@3@$0A@@std@@@2@@Z 004131c0 f i serversock.obj
 0001:000121d0       ?_Isnil@?$_Tree@V?$_Tmap_traits@KPAVCClientSock@@U?$less@K@std@@V?$allocator@U?$pair@$$CBKPAVCClientSock@@@std@@@3@$0A@@std@@@std@@KAAADPAU_Node@?$_Tree_nod@V?$_Tmap_traits@KPAVCClientSock@@U?$less@K@std@@V?$allocator@U?$pair@$$CBKPAVCClientSock@@@std@@@3@$0A@@std@@@2@@Z 004131d0 f i serversock.obj
 0001:000121e0       ?_Left@?$_Tree@V?$_Tmap_traits@KPAVCClientSock@@U?$less@K@std@@V?$allocator@U?$pair@$$CBKPAVCClientSock@@@std@@@3@$0A@@std@@@std@@KAAAPAU_Node@?$_Tree_nod@V?$_Tmap_traits@KPAVCClientSock@@U?$less@K@std@@V?$allocator@U?$pair@$$CBKPAVCClientSock@@@std@@@3@$0A@@std@@@2@PAU342@@Z 004131e0 f i serversock.obj
 0001:000121f0       ?_Parent@?$_Tree@V?$_Tmap_traits@KPAVCClientSock@@U?$less@K@std@@V?$allocator@U?$pair@$$CBKPAVCClientSock@@@std@@@3@$0A@@std@@@std@@KAAAPAU_Node@?$_Tree_nod@V?$_Tmap_traits@KPAVCClientSock@@U?$less@K@std@@V?$allocator@U?$pair@$$CBKPAVCClientSock@@@std@@@3@$0A@@std@@@2@PAU342@@Z 004131f0 f i serversock.obj
 0001:00012200       ?_Right@?$_Tree@V?$_Tmap_traits@KPAVCClientSock@@U?$less@K@std@@V?$allocator@U?$pair@$$CBKPAVCClientSock@@@std@@@3@$0A@@std@@@std@@KAAAPAU_Node@?$_Tree_nod@V?$_Tmap_traits@KPAVCClientSock@@U?$less@K@std@@V?$allocator@U?$pair@$$CBKPAVCClientSock@@@std@@@3@$0A@@std@@@2@PAU342@@Z 00413200 f i serversock.obj
 0001:00012210       ?_Lmost@?$_Tree@V?$_Tmap_traits@KPAVCClientSock@@U?$less@K@std@@V?$allocator@U?$pair@$$CBKPAVCClientSock@@@std@@@3@$0A@@std@@@std@@IAEAAPAU_Node@?$_Tree_nod@V?$_Tmap_traits@KPAVCClientSock@@U?$less@K@std@@V?$allocator@U?$pair@$$CBKPAVCClientSock@@@std@@@3@$0A@@std@@@2@XZ 00413210 f i serversock.obj
 0001:00012220       ?_Max@?$_Tree@V?$_Tmap_traits@KPAVCClientSock@@U?$less@K@std@@V?$allocator@U?$pair@$$CBKPAVCClientSock@@@std@@@3@$0A@@std@@@std@@KAPAU_Node@?$_Tree_nod@V?$_Tmap_traits@KPAVCClientSock@@U?$less@K@std@@V?$allocator@U?$pair@$$CBKPAVCClientSock@@@std@@@3@$0A@@std@@@2@PAU342@@Z 00413220 f i serversock.obj
 0001:00012240       ?_Min@?$_Tree@V?$_Tmap_traits@KPAVCClientSock@@U?$less@K@std@@V?$allocator@U?$pair@$$CBKPAVCClientSock@@@std@@@3@$0A@@std@@@std@@KAPAU_Node@?$_Tree_nod@V?$_Tmap_traits@KPAVCClientSock@@U?$less@K@std@@V?$allocator@U?$pair@$$CBKPAVCClientSock@@@std@@@3@$0A@@std@@@2@PAU342@@Z 00413240 f i serversock.obj
 0001:00012260       ?_Rmost@?$_Tree@V?$_Tmap_traits@KPAVCClientSock@@U?$less@K@std@@V?$allocator@U?$pair@$$CBKPAVCClientSock@@@std@@@3@$0A@@std@@@std@@IAEAAPAU_Node@?$_Tree_nod@V?$_Tmap_traits@KPAVCClientSock@@U?$less@K@std@@V?$allocator@U?$pair@$$CBKPAVCClientSock@@@std@@@3@$0A@@std@@@2@XZ 00413260 f i serversock.obj
 0001:00012270       ?_Root@?$_Tree@V?$_Tmap_traits@KPAVCClientSock@@U?$less@K@std@@V?$allocator@U?$pair@$$CBKPAVCClientSock@@@std@@@3@$0A@@std@@@std@@IAEAAPAU_Node@?$_Tree_nod@V?$_Tmap_traits@KPAVCClientSock@@U?$less@K@std@@V?$allocator@U?$pair@$$CBKPAVCClientSock@@@std@@@3@$0A@@std@@@2@XZ 00413270 f i serversock.obj
 0001:00012280       ?_Rrotate@?$_Tree@V?$_Tmap_traits@KPAVCClientSock@@U?$less@K@std@@V?$allocator@U?$pair@$$CBKPAVCClientSock@@@std@@@3@$0A@@std@@@std@@IAEXPAU_Node@?$_Tree_nod@V?$_Tmap_traits@KPAVCClientSock@@U?$less@K@std@@V?$allocator@U?$pair@$$CBKPAVCClientSock@@@std@@@3@$0A@@std@@@2@@Z 00413280 f i serversock.obj
 0001:000122e0       ?_Kfn@?$_Tmap_traits@KPAVCClientSock@@U?$less@K@std@@V?$allocator@U?$pair@$$CBKPAVCClientSock@@@std@@@3@$0A@@std@@SAABKABU?$pair@$$CBKPAVCClientSock@@@2@@Z 004132e0 f i serversock.obj
 0001:000122f0       ??0?$allocator@U?$pair@$$CBKPAVCClientSock@@@std@@@std@@QAE@XZ 004132f0 f i serversock.obj
 0001:00012300       ?deallocate@?$allocator@U_Node@?$_Tree_nod@V?$_Tmap_traits@KPAVCClientSock@@U?$less@K@std@@V?$allocator@U?$pair@$$CBKPAVCClientSock@@@std@@@3@$0A@@std@@@std@@@std@@QAEXPAU_Node@?$_Tree_nod@V?$_Tmap_traits@KPAVCClientSock@@U?$less@K@std@@V?$allocator@U?$pair@$$CBKPAVCClientSock@@@std@@@3@$0A@@std@@@2@I@Z 00413300 f i serversock.obj
 0001:00012310       ??8const_iterator@?$_Tree@V?$_Tmap_traits@KPAVCClientSock@@U?$less@K@std@@V?$allocator@U?$pair@$$CBKPAVCClientSock@@@std@@@3@$0A@@std@@@std@@QBE_NABV012@@Z 00413310 f i serversock.obj
 0001:00012320       ?_Mynode@const_iterator@?$_Tree@V?$_Tmap_traits@KPAVCClientSock@@U?$less@K@std@@V?$allocator@U?$pair@$$CBKPAVCClientSock@@@std@@@3@$0A@@std@@@std@@QBEPAU_Node@?$_Tree_nod@V?$_Tmap_traits@KPAVCClientSock@@U?$less@K@std@@V?$allocator@U?$pair@$$CBKPAVCClientSock@@@std@@@3@$0A@@std@@@3@XZ 00413320 f i serversock.obj
 0001:00012330       ??0?$pair@Viterator@?$_Tree@V?$_Tmap_traits@KPAVCClientSock@@U?$less@K@std@@V?$allocator@U?$pair@$$CBKPAVCClientSock@@@std@@@3@$0A@@std@@@std@@_N@std@@QAE@ABViterator@?$_Tree@V?$_Tmap_traits@KPAVCClientSock@@U?$less@K@std@@V?$allocator@U?$pair@$$CBKPAVCClientSock@@@std@@@3@$0A@@std@@@1@AB_N@Z 00413330 f i serversock.obj
 0001:00012350       ?_Myval@?$_Tree@V?$_Tmap_traits@KPAVCClientSock@@U?$less@K@std@@V?$allocator@U?$pair@$$CBKPAVCClientSock@@@std@@@3@$0A@@std@@@std@@KAAAU?$pair@$$CBKPAVCClientSock@@@2@PAU_Node@?$_Tree_nod@V?$_Tmap_traits@KPAVCClientSock@@U?$less@K@std@@V?$allocator@U?$pair@$$CBKPAVCClientSock@@@std@@@3@$0A@@std@@@2@@Z 00413350 f i serversock.obj
 0001:00012360       ??0?$allocator@U?$pair@$$CBKPAVCClientSock@@@std@@@std@@QAE@ABV01@@Z 00413360 f i serversock.obj
 0001:00012370       ??0const_iterator@?$_Tree@V?$_Tmap_traits@KPAVCClientSock@@U?$less@K@std@@V?$allocator@U?$pair@$$CBKPAVCClientSock@@@std@@@3@$0A@@std@@@std@@QAE@PAU_Node@?$_Tree_nod@V?$_Tmap_traits@KPAVCClientSock@@U?$less@K@std@@V?$allocator@U?$pair@$$CBKPAVCClientSock@@@std@@@3@$0A@@std@@@2@@Z 00413370 f i serversock.obj
 0001:00012380       ??Dconst_iterator@?$_Tree@V?$_Tmap_traits@KPAVCClientSock@@U?$less@K@std@@V?$allocator@U?$pair@$$CBKPAVCClientSock@@@std@@@3@$0A@@std@@@std@@QBEABU?$pair@$$CBKPAVCClientSock@@@2@XZ 00413380 f i serversock.obj
 0001:00012390       ?_Inc@const_iterator@?$_Tree@V?$_Tmap_traits@KPAVCClientSock@@U?$less@K@std@@V?$allocator@U?$pair@$$CBKPAVCClientSock@@@std@@@3@$0A@@std@@@std@@QAEXXZ 00413390 f i serversock.obj
 0001:000123f0       ?_Root@?$_Tree@V?$_Tmap_traits@KPAVCClientSock@@U?$less@K@std@@V?$allocator@U?$pair@$$CBKPAVCClientSock@@@std@@@3@$0A@@std@@@std@@IBEAAPAU_Node@?$_Tree_nod@V?$_Tmap_traits@KPAVCClientSock@@U?$less@K@std@@V?$allocator@U?$pair@$$CBKPAVCClientSock@@@std@@@3@$0A@@std@@@2@XZ 004133f0 f i serversock.obj
 0001:00012400       ?max_size@?$allocator@U?$pair@$$CBKPAVCClientSock@@@std@@@std@@QBEIXZ 00413400 f i serversock.obj
 0001:00012410       ?_Dec@const_iterator@?$_Tree@V?$_Tmap_traits@KPAVCClientSock@@U?$less@K@std@@V?$allocator@U?$pair@$$CBKPAVCClientSock@@@std@@@3@$0A@@std@@@std@@QAEXXZ 00413410 f i serversock.obj
 0001:00012470       ??0_Node@?$_Tree_nod@V?$_Tmap_traits@KPAVCClientSock@@U?$less@K@std@@V?$allocator@U?$pair@$$CBKPAVCClientSock@@@std@@@3@$0A@@std@@@std@@QAE@PAU012@00ABU?$pair@$$CBKPAVCClientSock@@@2@D@Z 00413470 f i serversock.obj
 0001:000124b0       ??0?$_Tmap_traits@KPAVCClientSock@@U?$less@K@std@@V?$allocator@U?$pair@$$CBKPAVCClientSock@@@std@@@3@$0A@@std@@QAE@U?$less@K@1@@Z 004134b0 f i serversock.obj
 0001:000124c0       ??$_Destroy@U_Node@?$_Tree_nod@V?$_Tmap_traits@KPAVCClientSock@@U?$less@K@std@@V?$allocator@U?$pair@$$CBKPAVCClientSock@@@std@@@3@$0A@@std@@@std@@@std@@YAXPAU_Node@?$_Tree_nod@V?$_Tmap_traits@KPAVCClientSock@@U?$less@K@std@@V?$allocator@U?$pair@$$CBKPAVCClientSock@@@std@@@3@$0A@@std@@@0@@Z 004134c0 f i serversock.obj
 0001:000124d0       ??$_Destroy@PAU_Node@?$_Tree_nod@V?$_Tmap_traits@KPAVCClientSock@@U?$less@K@std@@V?$allocator@U?$pair@$$CBKPAVCClientSock@@@std@@@3@$0A@@std@@@std@@@std@@YAXPAPAU_Node@?$_Tree_nod@V?$_Tmap_traits@KPAVCClientSock@@U?$less@K@std@@V?$allocator@U?$pair@$$CBKPAVCClientSock@@@std@@@3@$0A@@std@@@0@@Z 004134d0 f i serversock.obj
 0001:000124e0       ??$?0U?$pair@$$CBKPAVCClientSock@@@std@@@?$allocator@PAU_Node@?$_Tree_nod@V?$_Tmap_traits@KPAVCClientSock@@U?$less@K@std@@V?$allocator@U?$pair@$$CBKPAVCClientSock@@@std@@@3@$0A@@std@@@std@@@std@@QAE@ABV?$allocator@U?$pair@$$CBKPAVCClientSock@@@std@@@1@@Z 004134e0 f i serversock.obj
 0001:000124f0       ??$_Allocate@U_Node@?$_Tree_nod@V?$_Tmap_traits@KPAVCClientSock@@U?$less@K@std@@V?$allocator@U?$pair@$$CBKPAVCClientSock@@@std@@@3@$0A@@std@@@std@@@std@@YAPAU_Node@?$_Tree_nod@V?$_Tmap_traits@KPAVCClientSock@@U?$less@K@std@@V?$allocator@U?$pair@$$CBKPAVCClientSock@@@std@@@3@$0A@@std@@@0@IPAU120@@Z 004134f0 f i serversock.obj
 0001:00012510       ??$?0U?$pair@$$CBKPAVCClientSock@@@std@@@?$allocator@U_Node@?$_Tree_nod@V?$_Tmap_traits@KPAVCClientSock@@U?$less@K@std@@V?$allocator@U?$pair@$$CBKPAVCClientSock@@@std@@@3@$0A@@std@@@std@@@std@@QAE@ABV?$allocator@U?$pair@$$CBKPAVCClientSock@@@std@@@1@@Z 00413510 f i serversock.obj
 0001:00012520       ??$_Construct@PAU_Node@?$_Tree_nod@V?$_Tmap_traits@KPAVCClientSock@@U?$less@K@std@@V?$allocator@U?$pair@$$CBKPAVCClientSock@@@std@@@3@$0A@@std@@@std@@PAU123@@std@@YAXPAPAU_Node@?$_Tree_nod@V?$_Tmap_traits@KPAVCClientSock@@U?$less@K@std@@V?$allocator@U?$pair@$$CBKPAVCClientSock@@@std@@@3@$0A@@std@@@0@ABQAU120@@Z 00413520 f i serversock.obj
 0001:00012540       ?Lock@CMapChild@@QAEXXZ    00413540 f i serversock.obj
 0001:00012550       ?Unlock@CMapChild@@QAEXXZ  00413550 f i serversock.obj
 0001:00012560       ?Shutdown@CServerSock@@UAEHI@Z 00413560 f   serversock.obj
 0001:000125f0       ?GetPeerAddr@CServerSock@@UAEJKPAXPAK@Z 004135f0 f   serversock.obj
 0001:000126f0       ?GetPeerAddr@CServerSock@@UAEKK@Z 004136f0 f   serversock.obj
 0001:00012780       ??9const_iterator@?$_Tree@V?$_Tmap_traits@KPAVCClientSock@@U?$less@K@std@@V?$allocator@U?$pair@$$CBKPAVCClientSock@@@std@@@3@$0A@@std@@@std@@QBE_NABV012@@Z 00413780 f i serversock.obj
 0001:000127a0       ?_Key@?$_Tree@V?$_Tmap_traits@KPAVCClientSock@@U?$less@K@std@@V?$allocator@U?$pair@$$CBKPAVCClientSock@@@std@@@3@$0A@@std@@@std@@KAABKPAU_Node@?$_Tree_nod@V?$_Tmap_traits@KPAVCClientSock@@U?$less@K@std@@V?$allocator@U?$pair@$$CBKPAVCClientSock@@@std@@@3@$0A@@std@@@2@@Z 004137a0 f i serversock.obj
 0001:000127b0       ?_Lrotate@?$_Tree@V?$_Tmap_traits@KPAVCClientSock@@U?$less@K@std@@V?$allocator@U?$pair@$$CBKPAVCClientSock@@@std@@@3@$0A@@std@@@std@@IAEXPAU_Node@?$_Tree_nod@V?$_Tmap_traits@KPAVCClientSock@@U?$less@K@std@@V?$allocator@U?$pair@$$CBKPAVCClientSock@@@std@@@3@$0A@@std@@@2@@Z 004137b0 f i serversock.obj
 0001:00012810       ?destroy@?$allocator@U_Node@?$_Tree_nod@V?$_Tmap_traits@KPAVCClientSock@@U?$less@K@std@@V?$allocator@U?$pair@$$CBKPAVCClientSock@@@std@@@3@$0A@@std@@@std@@@std@@QAEXPAU_Node@?$_Tree_nod@V?$_Tmap_traits@KPAVCClientSock@@U?$less@K@std@@V?$allocator@U?$pair@$$CBKPAVCClientSock@@@std@@@3@$0A@@std@@@2@@Z 00413810 f i serversock.obj
 0001:00012820       ??0iterator@?$_Tree@V?$_Tmap_traits@KPAVCClientSock@@U?$less@K@std@@V?$allocator@U?$pair@$$CBKPAVCClientSock@@@std@@@3@$0A@@std@@@std@@QAE@PAU_Node@?$_Tree_nod@V?$_Tmap_traits@KPAVCClientSock@@U?$less@K@std@@V?$allocator@U?$pair@$$CBKPAVCClientSock@@@std@@@3@$0A@@std@@@2@@Z 00413820 f i serversock.obj
 0001:00012830       ??Diterator@?$_Tree@V?$_Tmap_traits@KPAVCClientSock@@U?$less@K@std@@V?$allocator@U?$pair@$$CBKPAVCClientSock@@@std@@@3@$0A@@std@@@std@@QBEAAU?$pair@$$CBKPAVCClientSock@@@2@XZ 00413830 f i serversock.obj
 0001:00012840       ??Econst_iterator@?$_Tree@V?$_Tmap_traits@KPAVCClientSock@@U?$less@K@std@@V?$allocator@U?$pair@$$CBKPAVCClientSock@@@std@@@3@$0A@@std@@@std@@QAEAAV012@XZ 00413840 f i serversock.obj
 0001:00012850       ?max_size@?$_Tree@V?$_Tmap_traits@KPAVCClientSock@@U?$less@K@std@@V?$allocator@U?$pair@$$CBKPAVCClientSock@@@std@@@3@$0A@@std@@@std@@QBEIXZ 00413850 f i serversock.obj
 0001:00012860       ?_Lbound@?$_Tree@V?$_Tmap_traits@KPAVCClientSock@@U?$less@K@std@@V?$allocator@U?$pair@$$CBKPAVCClientSock@@@std@@@3@$0A@@std@@@std@@IBEPAU_Node@?$_Tree_nod@V?$_Tmap_traits@KPAVCClientSock@@U?$less@K@std@@V?$allocator@U?$pair@$$CBKPAVCClientSock@@@std@@@3@$0A@@std@@@2@ABK@Z 00413860 f i serversock.obj
 0001:00012890       ?destroy@?$allocator@PAU_Node@?$_Tree_nod@V?$_Tmap_traits@KPAVCClientSock@@U?$less@K@std@@V?$allocator@U?$pair@$$CBKPAVCClientSock@@@std@@@3@$0A@@std@@@std@@@std@@QAEXPAPAU_Node@?$_Tree_nod@V?$_Tmap_traits@KPAVCClientSock@@U?$less@K@std@@V?$allocator@U?$pair@$$CBKPAVCClientSock@@@std@@@3@$0A@@std@@@2@@Z 00413890 f i serversock.obj
 0001:000128a0       ??Fconst_iterator@?$_Tree@V?$_Tmap_traits@KPAVCClientSock@@U?$less@K@std@@V?$allocator@U?$pair@$$CBKPAVCClientSock@@@std@@@3@$0A@@std@@@std@@QAEAAV012@XZ 004138a0 f i serversock.obj
 0001:000128b0       ?allocate@?$allocator@U_Node@?$_Tree_nod@V?$_Tmap_traits@KPAVCClientSock@@U?$less@K@std@@V?$allocator@U?$pair@$$CBKPAVCClientSock@@@std@@@3@$0A@@std@@@std@@@std@@QAEPAU_Node@?$_Tree_nod@V?$_Tmap_traits@KPAVCClientSock@@U?$less@K@std@@V?$allocator@U?$pair@$$CBKPAVCClientSock@@@std@@@3@$0A@@std@@@2@I@Z 004138b0 f i serversock.obj
 0001:000128d0       ??0?$_Tree_nod@V?$_Tmap_traits@KPAVCClientSock@@U?$less@K@std@@V?$allocator@U?$pair@$$CBKPAVCClientSock@@@std@@@3@$0A@@std@@@std@@IAE@ABU?$less@K@1@V?$allocator@U?$pair@$$CBKPAVCClientSock@@@std@@@1@@Z 004138d0 f i serversock.obj
 0001:000128e0       ?construct@?$allocator@PAU_Node@?$_Tree_nod@V?$_Tmap_traits@KPAVCClientSock@@U?$less@K@std@@V?$allocator@U?$pair@$$CBKPAVCClientSock@@@std@@@3@$0A@@std@@@std@@@std@@QAEXPAPAU_Node@?$_Tree_nod@V?$_Tmap_traits@KPAVCClientSock@@U?$less@K@std@@V?$allocator@U?$pair@$$CBKPAVCClientSock@@@std@@@3@$0A@@std@@@2@ABQAU342@@Z 004138e0 f i serversock.obj
 0001:00012900       ?begin@?$_Tree@V?$_Tmap_traits@KPAVCClientSock@@U?$less@K@std@@V?$allocator@U?$pair@$$CBKPAVCClientSock@@@std@@@3@$0A@@std@@@std@@QAE?AViterator@12@XZ 00413900 f i serversock.obj
 0001:00012910       ?end@?$_Tree@V?$_Tmap_traits@KPAVCClientSock@@U?$less@K@std@@V?$allocator@U?$pair@$$CBKPAVCClientSock@@@std@@@3@$0A@@std@@@std@@QAE?AViterator@12@XZ 00413910 f i serversock.obj
 0001:00012920       ??Citerator@?$_Tree@V?$_Tmap_traits@KPAVCClientSock@@U?$less@K@std@@V?$allocator@U?$pair@$$CBKPAVCClientSock@@@std@@@3@$0A@@std@@@std@@QBEPAU?$pair@$$CBKPAVCClientSock@@@2@XZ 00413920 f i serversock.obj
 0001:00012930       ??Eiterator@?$_Tree@V?$_Tmap_traits@KPAVCClientSock@@U?$less@K@std@@V?$allocator@U?$pair@$$CBKPAVCClientSock@@@std@@@3@$0A@@std@@@std@@QAEAAV012@XZ 00413930 f i serversock.obj
 0001:00012940       ?lower_bound@?$_Tree@V?$_Tmap_traits@KPAVCClientSock@@U?$less@K@std@@V?$allocator@U?$pair@$$CBKPAVCClientSock@@@std@@@3@$0A@@std@@@std@@QAE?AViterator@12@ABK@Z 00413940 f i serversock.obj
 0001:00012980       ?_Erase@?$_Tree@V?$_Tmap_traits@KPAVCClientSock@@U?$less@K@std@@V?$allocator@U?$pair@$$CBKPAVCClientSock@@@std@@@3@$0A@@std@@@std@@IAEXPAU_Node@?$_Tree_nod@V?$_Tmap_traits@KPAVCClientSock@@U?$less@K@std@@V?$allocator@U?$pair@$$CBKPAVCClientSock@@@std@@@3@$0A@@std@@@2@@Z 00413980 f i serversock.obj
 0001:000129c0       ??Fiterator@?$_Tree@V?$_Tmap_traits@KPAVCClientSock@@U?$less@K@std@@V?$allocator@U?$pair@$$CBKPAVCClientSock@@@std@@@3@$0A@@std@@@std@@QAEAAV012@XZ 004139c0 f i serversock.obj
 0001:000129d0       ?_Buynode@?$_Tree@V?$_Tmap_traits@KPAVCClientSock@@U?$less@K@std@@V?$allocator@U?$pair@$$CBKPAVCClientSock@@@std@@@3@$0A@@std@@@std@@IAEPAU_Node@?$_Tree_nod@V?$_Tmap_traits@KPAVCClientSock@@U?$less@K@std@@V?$allocator@U?$pair@$$CBKPAVCClientSock@@@std@@@3@$0A@@std@@@2@PAU342@00ABU?$pair@$$CBKPAVCClientSock@@@2@D@Z 004139d0 f i serversock.obj
 0001:00012a10       ?_Buynode@?$_Tree@V?$_Tmap_traits@KPAVCClientSock@@U?$less@K@std@@V?$allocator@U?$pair@$$CBKPAVCClientSock@@@std@@@3@$0A@@std@@@std@@IAEPAU_Node@?$_Tree_nod@V?$_Tmap_traits@KPAVCClientSock@@U?$less@K@std@@V?$allocator@U?$pair@$$CBKPAVCClientSock@@@std@@@3@$0A@@std@@@2@XZ 00413a10 f i serversock.obj
 0001:00012a50       ??0?$_Tree_ptr@V?$_Tmap_traits@KPAVCClientSock@@U?$less@K@std@@V?$allocator@U?$pair@$$CBKPAVCClientSock@@@std@@@3@$0A@@std@@@std@@IAE@ABU?$less@K@1@V?$allocator@U?$pair@$$CBKPAVCClientSock@@@std@@@1@@Z 00413a50 f i serversock.obj
 0001:00012a60       ??Eiterator@?$_Tree@V?$_Tmap_traits@KPAVCClientSock@@U?$less@K@std@@V?$allocator@U?$pair@$$CBKPAVCClientSock@@@std@@@3@$0A@@std@@@std@@QAE?AV012@H@Z 00413a60 f i serversock.obj
 0001:00012a80       ?ShutdownAddr@CServerSock@@QAEXK@Z 00413a80 f   serversock.obj
 0001:00012af0       ?Send@CServerSock@@UAEXPADKK@Z 00413af0 f   serversock.obj
 0001:00012bd0       ?ListenThread@@YGIPAX@Z    00413bd0 f   serversock.obj
 0001:00012da0       ?clear@?$_Tree@V?$_Tmap_traits@KPAVCClientSock@@U?$less@K@std@@V?$allocator@U?$pair@$$CBKPAVCClientSock@@@std@@@3@$0A@@std@@@std@@QAEXXZ 00413da0 f i serversock.obj
 0001:00012dd0       ?find@?$_Tree@V?$_Tmap_traits@KPAVCClientSock@@U?$less@K@std@@V?$allocator@U?$pair@$$CBKPAVCClientSock@@@std@@@3@$0A@@std@@@std@@QAE?AViterator@12@ABK@Z 00413dd0 f i serversock.obj
 0001:00012e40       ?_Init@?$_Tree@V?$_Tmap_traits@KPAVCClientSock@@U?$less@K@std@@V?$allocator@U?$pair@$$CBKPAVCClientSock@@@std@@@3@$0A@@std@@@std@@IAEXXZ 00413e40 f i serversock.obj
 0001:00012e70       ??0?$_Tree_val@V?$_Tmap_traits@KPAVCClientSock@@U?$less@K@std@@V?$allocator@U?$pair@$$CBKPAVCClientSock@@@std@@@3@$0A@@std@@@std@@IAE@ABU?$less@K@1@V?$allocator@U?$pair@$$CBKPAVCClientSock@@@std@@@1@@Z 00413e70 f i serversock.obj
 0001:00012e80       ?StartServer@CServerSock@@QAEHPAPAXK@Z 00413e80 f   serversock.obj
 0001:00012f10       ?CloseAllChild@CServerSock@@QAEXXZ 00413f10 f   serversock.obj
 0001:00012ff0       ??0?$_Tree@V?$_Tmap_traits@KPAVCClientSock@@U?$less@K@std@@V?$allocator@U?$pair@$$CBKPAVCClientSock@@@std@@@3@$0A@@std@@@std@@QAE@ABU?$less@K@1@ABV?$allocator@U?$pair@$$CBKPAVCClientSock@@@std@@@1@@Z 00413ff0 f i serversock.obj
 0001:00013020       ?Close@CServerSock@@UAEXXZ 00414020 f   serversock.obj
 0001:00013080       ?erase@?$_Tree@V?$_Tmap_traits@KPAVCClientSock@@U?$less@K@std@@V?$allocator@U?$pair@$$CBKPAVCClientSock@@@std@@@3@$0A@@std@@@std@@QAE?AViterator@12@V312@@Z 00414080 f i serversock.obj
 0001:00013340       ?_Insert@?$_Tree@V?$_Tmap_traits@KPAVCClientSock@@U?$less@K@std@@V?$allocator@U?$pair@$$CBKPAVCClientSock@@@std@@@3@$0A@@std@@@std@@IAE?AViterator@12@_NPAU_Node@?$_Tree_nod@V?$_Tmap_traits@KPAVCClientSock@@U?$less@K@std@@V?$allocator@U?$pair@$$CBKPAVCClientSock@@@std@@@3@$0A@@std@@@2@ABU?$pair@$$CBKPAVCClientSock@@@2@@Z 00414340 f i serversock.obj
 0001:000134f0       ?erase@?$_Tree@V?$_Tmap_traits@KPAVCClientSock@@U?$less@K@std@@V?$allocator@U?$pair@$$CBKPAVCClientSock@@@std@@@3@$0A@@std@@@std@@QAE?AViterator@12@V312@0@Z 004144f0 f i serversock.obj
 0001:000135b0       ?CloseChild@CServerSock@@QAEHI@Z 004145b0 f   serversock.obj
 0001:00013670       ?CloseConnection@CServerSock@@UAEHI@Z 00414670 f   serversock.obj
 0001:00013680       ?insert@?$_Tree@V?$_Tmap_traits@KPAVCClientSock@@U?$less@K@std@@V?$allocator@U?$pair@$$CBKPAVCClientSock@@@std@@@3@$0A@@std@@@std@@QAE?AU?$pair@Viterator@?$_Tree@V?$_Tmap_traits@KPAVCClientSock@@U?$less@K@std@@V?$allocator@U?$pair@$$CBKPAVCClientSock@@@std@@@3@$0A@@std@@@std@@_N@2@ABU?$pair@$$CBKPAVCClientSock@@@2@@Z 00414680 f i serversock.obj
 0001:00013740       ?_Tidy@?$_Tree@V?$_Tmap_traits@KPAVCClientSock@@U?$less@K@std@@V?$allocator@U?$pair@$$CBKPAVCClientSock@@@std@@@3@$0A@@std@@@std@@IAEXXZ 00414740 f i serversock.obj
 0001:00013770       ??1?$_Tree@V?$_Tmap_traits@KPAVCClientSock@@U?$less@K@std@@V?$allocator@U?$pair@$$CBKPAVCClientSock@@@std@@@3@$0A@@std@@@std@@QAE@XZ 00414770 f i serversock.obj
 0001:000137a0       ??1?$map@KPAVCClientSock@@U?$less@K@std@@V?$allocator@U?$pair@$$CBKPAVCClientSock@@@std@@@3@@std@@QAE@XZ 004147a0 f i serversock.obj
 0001:000137d0       ??0?$map@KPAVCClientSock@@U?$less@K@std@@V?$allocator@U?$pair@$$CBKPAVCClientSock@@@std@@@3@@std@@QAE@XZ 004147d0 f i serversock.obj
 0001:00013800       ??0CMapChild@@QAE@XZ       00414800 f i serversock.obj
 0001:00013850       ??1CMapChild@@UAE@XZ       00414850 f i serversock.obj
 0001:000138a0       ??_GCMapChild@@UAEPAXI@Z   004148a0 f i serversock.obj
 0001:000138a0       ??_ECMapChild@@UAEPAXI@Z   004148a0 f i serversock.obj
 0001:000138c0       ??0CServerSock@@QAE@K@Z    004148c0 f   serversock.obj
 0001:00013960       ?SetProtocolId@CSock@@UAEXK@Z 00414960 f i serversock.obj
 0001:00013970       ?Get@CServerSock@@UAEPAVCSock@@I@Z 00414970 f i serversock.obj
 0001:000139b0       ??1CServerSock@@UAE@XZ     004149b0 f   serversock.obj
 0001:00013a50       ??_GCServerSock@@UAEPAXI@Z 00414a50 f i serversock.obj
 0001:00013a50       ??_ECServerSock@@UAEPAXI@Z 00414a50 f i serversock.obj
 0001:00013a70       ?AddChild@CServerSock@@QAEPAVCClientSock@@I@Z 00414a70 f   serversock.obj
 0001:00013b40       ?AllocAndAssoc@CServerSock@@QAEHIK@Z 00414b40 f   serversock.obj
 0001:00013bb0       ?GetListenHandle@CServerSockE@@QAEPAXXZ 00414bb0 f i serversocke.obj
 0001:00013bc0       ?GetCloseHandle@CServerSockE@@QAEPAXXZ 00414bc0 f i serversocke.obj
 0001:00013bd0       ?Listen@CServerSockE@@QAEHXZ 00414bd0 f   serversocke.obj
 0001:00013c10       ?Shutdown@CServerSockE@@UAEHI@Z 00414c10 f   serversocke.obj
 0001:00013c20       ?GetPeerAddr@CServerSockE@@UAEJKPAXPAK@Z 00414c20 f   serversocke.obj
 0001:00013ce0       ??0?$pair@$$CBKPAVCClientSockE@@@std@@QAE@ABKABQAVCClientSockE@@@Z 00414ce0 f i serversocke.obj
 0001:00013d00       ?_Color@?$_Tree@V?$_Tmap_traits@KPAVCClientSockE@@U?$less@K@std@@V?$allocator@U?$pair@$$CBKPAVCClientSockE@@@std@@@3@$0A@@std@@@std@@KAAADPAU_Node@?$_Tree_nod@V?$_Tmap_traits@KPAVCClientSockE@@U?$less@K@std@@V?$allocator@U?$pair@$$CBKPAVCClientSockE@@@std@@@3@$0A@@std@@@2@@Z 00414d00 f i serversocke.obj
 0001:00013d10       ?_Isnil@?$_Tree@V?$_Tmap_traits@KPAVCClientSockE@@U?$less@K@std@@V?$allocator@U?$pair@$$CBKPAVCClientSockE@@@std@@@3@$0A@@std@@@std@@KAAADPAU_Node@?$_Tree_nod@V?$_Tmap_traits@KPAVCClientSockE@@U?$less@K@std@@V?$allocator@U?$pair@$$CBKPAVCClientSockE@@@std@@@3@$0A@@std@@@2@@Z 00414d10 f i serversocke.obj
 0001:00013d20       ?_Left@?$_Tree@V?$_Tmap_traits@KPAVCClientSockE@@U?$less@K@std@@V?$allocator@U?$pair@$$CBKPAVCClientSockE@@@std@@@3@$0A@@std@@@std@@KAAAPAU_Node@?$_Tree_nod@V?$_Tmap_traits@KPAVCClientSockE@@U?$less@K@std@@V?$allocator@U?$pair@$$CBKPAVCClientSockE@@@std@@@3@$0A@@std@@@2@PAU342@@Z 00414d20 f i serversocke.obj
 0001:00013d30       ?_Parent@?$_Tree@V?$_Tmap_traits@KPAVCClientSockE@@U?$less@K@std@@V?$allocator@U?$pair@$$CBKPAVCClientSockE@@@std@@@3@$0A@@std@@@std@@KAAAPAU_Node@?$_Tree_nod@V?$_Tmap_traits@KPAVCClientSockE@@U?$less@K@std@@V?$allocator@U?$pair@$$CBKPAVCClientSockE@@@std@@@3@$0A@@std@@@2@PAU342@@Z 00414d30 f i serversocke.obj
 0001:00013d40       ?_Right@?$_Tree@V?$_Tmap_traits@KPAVCClientSockE@@U?$less@K@std@@V?$allocator@U?$pair@$$CBKPAVCClientSockE@@@std@@@3@$0A@@std@@@std@@KAAAPAU_Node@?$_Tree_nod@V?$_Tmap_traits@KPAVCClientSockE@@U?$less@K@std@@V?$allocator@U?$pair@$$CBKPAVCClientSockE@@@std@@@3@$0A@@std@@@2@PAU342@@Z 00414d40 f i serversocke.obj
 0001:00013d50       ?_Lmost@?$_Tree@V?$_Tmap_traits@KPAVCClientSockE@@U?$less@K@std@@V?$allocator@U?$pair@$$CBKPAVCClientSockE@@@std@@@3@$0A@@std@@@std@@IAEAAPAU_Node@?$_Tree_nod@V?$_Tmap_traits@KPAVCClientSockE@@U?$less@K@std@@V?$allocator@U?$pair@$$CBKPAVCClientSockE@@@std@@@3@$0A@@std@@@2@XZ 00414d50 f i serversocke.obj
 0001:00013d60       ?_Max@?$_Tree@V?$_Tmap_traits@KPAVCClientSockE@@U?$less@K@std@@V?$allocator@U?$pair@$$CBKPAVCClientSockE@@@std@@@3@$0A@@std@@@std@@KAPAU_Node@?$_Tree_nod@V?$_Tmap_traits@KPAVCClientSockE@@U?$less@K@std@@V?$allocator@U?$pair@$$CBKPAVCClientSockE@@@std@@@3@$0A@@std@@@2@PAU342@@Z 00414d60 f i serversocke.obj
 0001:00013d80       ?_Min@?$_Tree@V?$_Tmap_traits@KPAVCClientSockE@@U?$less@K@std@@V?$allocator@U?$pair@$$CBKPAVCClientSockE@@@std@@@3@$0A@@std@@@std@@KAPAU_Node@?$_Tree_nod@V?$_Tmap_traits@KPAVCClientSockE@@U?$less@K@std@@V?$allocator@U?$pair@$$CBKPAVCClientSockE@@@std@@@3@$0A@@std@@@2@PAU342@@Z 00414d80 f i serversocke.obj
 0001:00013da0       ?_Rmost@?$_Tree@V?$_Tmap_traits@KPAVCClientSockE@@U?$less@K@std@@V?$allocator@U?$pair@$$CBKPAVCClientSockE@@@std@@@3@$0A@@std@@@std@@IAEAAPAU_Node@?$_Tree_nod@V?$_Tmap_traits@KPAVCClientSockE@@U?$less@K@std@@V?$allocator@U?$pair@$$CBKPAVCClientSockE@@@std@@@3@$0A@@std@@@2@XZ 00414da0 f i serversocke.obj
 0001:00013db0       ?_Root@?$_Tree@V?$_Tmap_traits@KPAVCClientSockE@@U?$less@K@std@@V?$allocator@U?$pair@$$CBKPAVCClientSockE@@@std@@@3@$0A@@std@@@std@@IAEAAPAU_Node@?$_Tree_nod@V?$_Tmap_traits@KPAVCClientSockE@@U?$less@K@std@@V?$allocator@U?$pair@$$CBKPAVCClientSockE@@@std@@@3@$0A@@std@@@2@XZ 00414db0 f i serversocke.obj
 0001:00013dc0       ?_Rrotate@?$_Tree@V?$_Tmap_traits@KPAVCClientSockE@@U?$less@K@std@@V?$allocator@U?$pair@$$CBKPAVCClientSockE@@@std@@@3@$0A@@std@@@std@@IAEXPAU_Node@?$_Tree_nod@V?$_Tmap_traits@KPAVCClientSockE@@U?$less@K@std@@V?$allocator@U?$pair@$$CBKPAVCClientSockE@@@std@@@3@$0A@@std@@@2@@Z 00414dc0 f i serversocke.obj
 0001:00013e20       ?_Kfn@?$_Tmap_traits@KPAVCClientSockE@@U?$less@K@std@@V?$allocator@U?$pair@$$CBKPAVCClientSockE@@@std@@@3@$0A@@std@@SAABKABU?$pair@$$CBKPAVCClientSockE@@@2@@Z 00414e20 f i serversocke.obj
 0001:00013e30       ??0?$allocator@U?$pair@$$CBKPAVCClientSockE@@@std@@@std@@QAE@XZ 00414e30 f i serversocke.obj
 0001:00013e40       ?deallocate@?$allocator@U_Node@?$_Tree_nod@V?$_Tmap_traits@KPAVCClientSockE@@U?$less@K@std@@V?$allocator@U?$pair@$$CBKPAVCClientSockE@@@std@@@3@$0A@@std@@@std@@@std@@QAEXPAU_Node@?$_Tree_nod@V?$_Tmap_traits@KPAVCClientSockE@@U?$less@K@std@@V?$allocator@U?$pair@$$CBKPAVCClientSockE@@@std@@@3@$0A@@std@@@2@I@Z 00414e40 f i serversocke.obj
 0001:00013e50       ??8const_iterator@?$_Tree@V?$_Tmap_traits@KPAVCClientSockE@@U?$less@K@std@@V?$allocator@U?$pair@$$CBKPAVCClientSockE@@@std@@@3@$0A@@std@@@std@@QBE_NABV012@@Z 00414e50 f i serversocke.obj
 0001:00013e60       ?_Mynode@const_iterator@?$_Tree@V?$_Tmap_traits@KPAVCClientSockE@@U?$less@K@std@@V?$allocator@U?$pair@$$CBKPAVCClientSockE@@@std@@@3@$0A@@std@@@std@@QBEPAU_Node@?$_Tree_nod@V?$_Tmap_traits@KPAVCClientSockE@@U?$less@K@std@@V?$allocator@U?$pair@$$CBKPAVCClientSockE@@@std@@@3@$0A@@std@@@3@XZ 00414e60 f i serversocke.obj
 0001:00013e70       ??0?$pair@Viterator@?$_Tree@V?$_Tmap_traits@KPAVCClientSockE@@U?$less@K@std@@V?$allocator@U?$pair@$$CBKPAVCClientSockE@@@std@@@3@$0A@@std@@@std@@_N@std@@QAE@ABViterator@?$_Tree@V?$_Tmap_traits@KPAVCClientSockE@@U?$less@K@std@@V?$allocator@U?$pair@$$CBKPAVCClientSockE@@@std@@@3@$0A@@std@@@1@AB_N@Z 00414e70 f i serversocke.obj
 0001:00013e90       ?_Myval@?$_Tree@V?$_Tmap_traits@KPAVCClientSockE@@U?$less@K@std@@V?$allocator@U?$pair@$$CBKPAVCClientSockE@@@std@@@3@$0A@@std@@@std@@KAAAU?$pair@$$CBKPAVCClientSockE@@@2@PAU_Node@?$_Tree_nod@V?$_Tmap_traits@KPAVCClientSockE@@U?$less@K@std@@V?$allocator@U?$pair@$$CBKPAVCClientSockE@@@std@@@3@$0A@@std@@@2@@Z 00414e90 f i serversocke.obj
 0001:00013ea0       ??0?$allocator@U?$pair@$$CBKPAVCClientSockE@@@std@@@std@@QAE@ABV01@@Z 00414ea0 f i serversocke.obj
 0001:00013eb0       ??0const_iterator@?$_Tree@V?$_Tmap_traits@KPAVCClientSockE@@U?$less@K@std@@V?$allocator@U?$pair@$$CBKPAVCClientSockE@@@std@@@3@$0A@@std@@@std@@QAE@PAU_Node@?$_Tree_nod@V?$_Tmap_traits@KPAVCClientSockE@@U?$less@K@std@@V?$allocator@U?$pair@$$CBKPAVCClientSockE@@@std@@@3@$0A@@std@@@2@@Z 00414eb0 f i serversocke.obj
 0001:00013ec0       ??Dconst_iterator@?$_Tree@V?$_Tmap_traits@KPAVCClientSockE@@U?$less@K@std@@V?$allocator@U?$pair@$$CBKPAVCClientSockE@@@std@@@3@$0A@@std@@@std@@QBEABU?$pair@$$CBKPAVCClientSockE@@@2@XZ 00414ec0 f i serversocke.obj
 0001:00013ed0       ?_Inc@const_iterator@?$_Tree@V?$_Tmap_traits@KPAVCClientSockE@@U?$less@K@std@@V?$allocator@U?$pair@$$CBKPAVCClientSockE@@@std@@@3@$0A@@std@@@std@@QAEXXZ 00414ed0 f i serversocke.obj
 0001:00013f30       ?_Root@?$_Tree@V?$_Tmap_traits@KPAVCClientSockE@@U?$less@K@std@@V?$allocator@U?$pair@$$CBKPAVCClientSockE@@@std@@@3@$0A@@std@@@std@@IBEAAPAU_Node@?$_Tree_nod@V?$_Tmap_traits@KPAVCClientSockE@@U?$less@K@std@@V?$allocator@U?$pair@$$CBKPAVCClientSockE@@@std@@@3@$0A@@std@@@2@XZ 00414f30 f i serversocke.obj
 0001:00013f40       ?max_size@?$allocator@U?$pair@$$CBKPAVCClientSockE@@@std@@@std@@QBEIXZ 00414f40 f i serversocke.obj
 0001:00013f50       ?_Dec@const_iterator@?$_Tree@V?$_Tmap_traits@KPAVCClientSockE@@U?$less@K@std@@V?$allocator@U?$pair@$$CBKPAVCClientSockE@@@std@@@3@$0A@@std@@@std@@QAEXXZ 00414f50 f i serversocke.obj
 0001:00013fb0       ??0_Node@?$_Tree_nod@V?$_Tmap_traits@KPAVCClientSockE@@U?$less@K@std@@V?$allocator@U?$pair@$$CBKPAVCClientSockE@@@std@@@3@$0A@@std@@@std@@QAE@PAU012@00ABU?$pair@$$CBKPAVCClientSockE@@@2@D@Z 00414fb0 f i serversocke.obj
 0001:00013ff0       ??0?$_Tmap_traits@KPAVCClientSockE@@U?$less@K@std@@V?$allocator@U?$pair@$$CBKPAVCClientSockE@@@std@@@3@$0A@@std@@QAE@U?$less@K@1@@Z 00414ff0 f i serversocke.obj
 0001:00014000       ??$_Destroy@U_Node@?$_Tree_nod@V?$_Tmap_traits@KPAVCClientSockE@@U?$less@K@std@@V?$allocator@U?$pair@$$CBKPAVCClientSockE@@@std@@@3@$0A@@std@@@std@@@std@@YAXPAU_Node@?$_Tree_nod@V?$_Tmap_traits@KPAVCClientSockE@@U?$less@K@std@@V?$allocator@U?$pair@$$CBKPAVCClientSockE@@@std@@@3@$0A@@std@@@0@@Z 00415000 f i serversocke.obj
 0001:00014010       ??$_Destroy@PAU_Node@?$_Tree_nod@V?$_Tmap_traits@KPAVCClientSockE@@U?$less@K@std@@V?$allocator@U?$pair@$$CBKPAVCClientSockE@@@std@@@3@$0A@@std@@@std@@@std@@YAXPAPAU_Node@?$_Tree_nod@V?$_Tmap_traits@KPAVCClientSockE@@U?$less@K@std@@V?$allocator@U?$pair@$$CBKPAVCClientSockE@@@std@@@3@$0A@@std@@@0@@Z 00415010 f i serversocke.obj
 0001:00014020       ??$?0U?$pair@$$CBKPAVCClientSockE@@@std@@@?$allocator@PAU_Node@?$_Tree_nod@V?$_Tmap_traits@KPAVCClientSockE@@U?$less@K@std@@V?$allocator@U?$pair@$$CBKPAVCClientSockE@@@std@@@3@$0A@@std@@@std@@@std@@QAE@ABV?$allocator@U?$pair@$$CBKPAVCClientSockE@@@std@@@1@@Z 00415020 f i serversocke.obj
 0001:00014030       ??$_Allocate@U_Node@?$_Tree_nod@V?$_Tmap_traits@KPAVCClientSockE@@U?$less@K@std@@V?$allocator@U?$pair@$$CBKPAVCClientSockE@@@std@@@3@$0A@@std@@@std@@@std@@YAPAU_Node@?$_Tree_nod@V?$_Tmap_traits@KPAVCClientSockE@@U?$less@K@std@@V?$allocator@U?$pair@$$CBKPAVCClientSockE@@@std@@@3@$0A@@std@@@0@IPAU120@@Z 00415030 f i serversocke.obj
 0001:00014050       ??$?0U?$pair@$$CBKPAVCClientSockE@@@std@@@?$allocator@U_Node@?$_Tree_nod@V?$_Tmap_traits@KPAVCClientSockE@@U?$less@K@std@@V?$allocator@U?$pair@$$CBKPAVCClientSockE@@@std@@@3@$0A@@std@@@std@@@std@@QAE@ABV?$allocator@U?$pair@$$CBKPAVCClientSockE@@@std@@@1@@Z 00415050 f i serversocke.obj
 0001:00014060       ??$_Construct@PAU_Node@?$_Tree_nod@V?$_Tmap_traits@KPAVCClientSockE@@U?$less@K@std@@V?$allocator@U?$pair@$$CBKPAVCClientSockE@@@std@@@3@$0A@@std@@@std@@PAU123@@std@@YAXPAPAU_Node@?$_Tree_nod@V?$_Tmap_traits@KPAVCClientSockE@@U?$less@K@std@@V?$allocator@U?$pair@$$CBKPAVCClientSockE@@@std@@@3@$0A@@std@@@0@ABQAU120@@Z 00415060 f i serversocke.obj
 0001:00014080       ?Lock@CMapChildE@@QAEXXZ   00415080 f i serversocke.obj
 0001:00014090       ?Unlock@CMapChildE@@QAEXXZ 00415090 f i serversocke.obj
 0001:000140a0       ??9const_iterator@?$_Tree@V?$_Tmap_traits@KPAVCClientSockE@@U?$less@K@std@@V?$allocator@U?$pair@$$CBKPAVCClientSockE@@@std@@@3@$0A@@std@@@std@@QBE_NABV012@@Z 004150a0 f i serversocke.obj
 0001:000140c0       ?_Key@?$_Tree@V?$_Tmap_traits@KPAVCClientSockE@@U?$less@K@std@@V?$allocator@U?$pair@$$CBKPAVCClientSockE@@@std@@@3@$0A@@std@@@std@@KAABKPAU_Node@?$_Tree_nod@V?$_Tmap_traits@KPAVCClientSockE@@U?$less@K@std@@V?$allocator@U?$pair@$$CBKPAVCClientSockE@@@std@@@3@$0A@@std@@@2@@Z 004150c0 f i serversocke.obj
 0001:000140d0       ?_Lrotate@?$_Tree@V?$_Tmap_traits@KPAVCClientSockE@@U?$less@K@std@@V?$allocator@U?$pair@$$CBKPAVCClientSockE@@@std@@@3@$0A@@std@@@std@@IAEXPAU_Node@?$_Tree_nod@V?$_Tmap_traits@KPAVCClientSockE@@U?$less@K@std@@V?$allocator@U?$pair@$$CBKPAVCClientSockE@@@std@@@3@$0A@@std@@@2@@Z 004150d0 f i serversocke.obj
 0001:00014130       ?destroy@?$allocator@U_Node@?$_Tree_nod@V?$_Tmap_traits@KPAVCClientSockE@@U?$less@K@std@@V?$allocator@U?$pair@$$CBKPAVCClientSockE@@@std@@@3@$0A@@std@@@std@@@std@@QAEXPAU_Node@?$_Tree_nod@V?$_Tmap_traits@KPAVCClientSockE@@U?$less@K@std@@V?$allocator@U?$pair@$$CBKPAVCClientSockE@@@std@@@3@$0A@@std@@@2@@Z 00415130 f i serversocke.obj
 0001:00014140       ??0iterator@?$_Tree@V?$_Tmap_traits@KPAVCClientSockE@@U?$less@K@std@@V?$allocator@U?$pair@$$CBKPAVCClientSockE@@@std@@@3@$0A@@std@@@std@@QAE@PAU_Node@?$_Tree_nod@V?$_Tmap_traits@KPAVCClientSockE@@U?$less@K@std@@V?$allocator@U?$pair@$$CBKPAVCClientSockE@@@std@@@3@$0A@@std@@@2@@Z 00415140 f i serversocke.obj
 0001:00014150       ??Diterator@?$_Tree@V?$_Tmap_traits@KPAVCClientSockE@@U?$less@K@std@@V?$allocator@U?$pair@$$CBKPAVCClientSockE@@@std@@@3@$0A@@std@@@std@@QBEAAU?$pair@$$CBKPAVCClientSockE@@@2@XZ 00415150 f i serversocke.obj
 0001:00014160       ??Econst_iterator@?$_Tree@V?$_Tmap_traits@KPAVCClientSockE@@U?$less@K@std@@V?$allocator@U?$pair@$$CBKPAVCClientSockE@@@std@@@3@$0A@@std@@@std@@QAEAAV012@XZ 00415160 f i serversocke.obj
 0001:00014170       ?max_size@?$_Tree@V?$_Tmap_traits@KPAVCClientSockE@@U?$less@K@std@@V?$allocator@U?$pair@$$CBKPAVCClientSockE@@@std@@@3@$0A@@std@@@std@@QBEIXZ 00415170 f i serversocke.obj
 0001:00014180       ?_Lbound@?$_Tree@V?$_Tmap_traits@KPAVCClientSockE@@U?$less@K@std@@V?$allocator@U?$pair@$$CBKPAVCClientSockE@@@std@@@3@$0A@@std@@@std@@IBEPAU_Node@?$_Tree_nod@V?$_Tmap_traits@KPAVCClientSockE@@U?$less@K@std@@V?$allocator@U?$pair@$$CBKPAVCClientSockE@@@std@@@3@$0A@@std@@@2@ABK@Z 00415180 f i serversocke.obj
 0001:000141b0       ?destroy@?$allocator@PAU_Node@?$_Tree_nod@V?$_Tmap_traits@KPAVCClientSockE@@U?$less@K@std@@V?$allocator@U?$pair@$$CBKPAVCClientSockE@@@std@@@3@$0A@@std@@@std@@@std@@QAEXPAPAU_Node@?$_Tree_nod@V?$_Tmap_traits@KPAVCClientSockE@@U?$less@K@std@@V?$allocator@U?$pair@$$CBKPAVCClientSockE@@@std@@@3@$0A@@std@@@2@@Z 004151b0 f i serversocke.obj
 0001:000141c0       ??Fconst_iterator@?$_Tree@V?$_Tmap_traits@KPAVCClientSockE@@U?$less@K@std@@V?$allocator@U?$pair@$$CBKPAVCClientSockE@@@std@@@3@$0A@@std@@@std@@QAEAAV012@XZ 004151c0 f i serversocke.obj
 0001:000141d0       ?allocate@?$allocator@U_Node@?$_Tree_nod@V?$_Tmap_traits@KPAVCClientSockE@@U?$less@K@std@@V?$allocator@U?$pair@$$CBKPAVCClientSockE@@@std@@@3@$0A@@std@@@std@@@std@@QAEPAU_Node@?$_Tree_nod@V?$_Tmap_traits@KPAVCClientSockE@@U?$less@K@std@@V?$allocator@U?$pair@$$CBKPAVCClientSockE@@@std@@@3@$0A@@std@@@2@I@Z 004151d0 f i serversocke.obj
 0001:000141f0       ??0?$_Tree_nod@V?$_Tmap_traits@KPAVCClientSockE@@U?$less@K@std@@V?$allocator@U?$pair@$$CBKPAVCClientSockE@@@std@@@3@$0A@@std@@@std@@IAE@ABU?$less@K@1@V?$allocator@U?$pair@$$CBKPAVCClientSockE@@@std@@@1@@Z 004151f0 f i serversocke.obj
 0001:00014200       ?construct@?$allocator@PAU_Node@?$_Tree_nod@V?$_Tmap_traits@KPAVCClientSockE@@U?$less@K@std@@V?$allocator@U?$pair@$$CBKPAVCClientSockE@@@std@@@3@$0A@@std@@@std@@@std@@QAEXPAPAU_Node@?$_Tree_nod@V?$_Tmap_traits@KPAVCClientSockE@@U?$less@K@std@@V?$allocator@U?$pair@$$CBKPAVCClientSockE@@@std@@@3@$0A@@std@@@2@ABQAU342@@Z 00415200 f i serversocke.obj
 0001:00014220       ?begin@?$_Tree@V?$_Tmap_traits@KPAVCClientSockE@@U?$less@K@std@@V?$allocator@U?$pair@$$CBKPAVCClientSockE@@@std@@@3@$0A@@std@@@std@@QAE?AViterator@12@XZ 00415220 f i serversocke.obj
 0001:00014230       ?end@?$_Tree@V?$_Tmap_traits@KPAVCClientSockE@@U?$less@K@std@@V?$allocator@U?$pair@$$CBKPAVCClientSockE@@@std@@@3@$0A@@std@@@std@@QAE?AViterator@12@XZ 00415230 f i serversocke.obj
 0001:00014240       ??Citerator@?$_Tree@V?$_Tmap_traits@KPAVCClientSockE@@U?$less@K@std@@V?$allocator@U?$pair@$$CBKPAVCClientSockE@@@std@@@3@$0A@@std@@@std@@QBEPAU?$pair@$$CBKPAVCClientSockE@@@2@XZ 00415240 f i serversocke.obj
 0001:00014250       ??Eiterator@?$_Tree@V?$_Tmap_traits@KPAVCClientSockE@@U?$less@K@std@@V?$allocator@U?$pair@$$CBKPAVCClientSockE@@@std@@@3@$0A@@std@@@std@@QAEAAV012@XZ 00415250 f i serversocke.obj
 0001:00014260       ?lower_bound@?$_Tree@V?$_Tmap_traits@KPAVCClientSockE@@U?$less@K@std@@V?$allocator@U?$pair@$$CBKPAVCClientSockE@@@std@@@3@$0A@@std@@@std@@QAE?AViterator@12@ABK@Z 00415260 f i serversocke.obj
 0001:000142a0       ?_Erase@?$_Tree@V?$_Tmap_traits@KPAVCClientSockE@@U?$less@K@std@@V?$allocator@U?$pair@$$CBKPAVCClientSockE@@@std@@@3@$0A@@std@@@std@@IAEXPAU_Node@?$_Tree_nod@V?$_Tmap_traits@KPAVCClientSockE@@U?$less@K@std@@V?$allocator@U?$pair@$$CBKPAVCClientSockE@@@std@@@3@$0A@@std@@@2@@Z 004152a0 f i serversocke.obj
 0001:000142e0       ??Fiterator@?$_Tree@V?$_Tmap_traits@KPAVCClientSockE@@U?$less@K@std@@V?$allocator@U?$pair@$$CBKPAVCClientSockE@@@std@@@3@$0A@@std@@@std@@QAEAAV012@XZ 004152e0 f i serversocke.obj
 0001:000142f0       ?_Buynode@?$_Tree@V?$_Tmap_traits@KPAVCClientSockE@@U?$less@K@std@@V?$allocator@U?$pair@$$CBKPAVCClientSockE@@@std@@@3@$0A@@std@@@std@@IAEPAU_Node@?$_Tree_nod@V?$_Tmap_traits@KPAVCClientSockE@@U?$less@K@std@@V?$allocator@U?$pair@$$CBKPAVCClientSockE@@@std@@@3@$0A@@std@@@2@PAU342@00ABU?$pair@$$CBKPAVCClientSockE@@@2@D@Z 004152f0 f i serversocke.obj
 0001:00014330       ?_Buynode@?$_Tree@V?$_Tmap_traits@KPAVCClientSockE@@U?$less@K@std@@V?$allocator@U?$pair@$$CBKPAVCClientSockE@@@std@@@3@$0A@@std@@@std@@IAEPAU_Node@?$_Tree_nod@V?$_Tmap_traits@KPAVCClientSockE@@U?$less@K@std@@V?$allocator@U?$pair@$$CBKPAVCClientSockE@@@std@@@3@$0A@@std@@@2@XZ 00415330 f i serversocke.obj
 0001:00014370       ??0?$_Tree_ptr@V?$_Tmap_traits@KPAVCClientSockE@@U?$less@K@std@@V?$allocator@U?$pair@$$CBKPAVCClientSockE@@@std@@@3@$0A@@std@@@std@@IAE@ABU?$less@K@1@V?$allocator@U?$pair@$$CBKPAVCClientSockE@@@std@@@1@@Z 00415370 f i serversocke.obj
 0001:00014380       ??Eiterator@?$_Tree@V?$_Tmap_traits@KPAVCClientSockE@@U?$less@K@std@@V?$allocator@U?$pair@$$CBKPAVCClientSockE@@@std@@@3@$0A@@std@@@std@@QAE?AV012@H@Z 00415380 f i serversocke.obj
 0001:000143a0       ?Send@CServerSockE@@UAEXPADKK@Z 004153a0 f   serversocke.obj
 0001:00014480       ?clear@?$_Tree@V?$_Tmap_traits@KPAVCClientSockE@@U?$less@K@std@@V?$allocator@U?$pair@$$CBKPAVCClientSockE@@@std@@@3@$0A@@std@@@std@@QAEXXZ 00415480 f i serversocke.obj
 0001:000144b0       ?find@?$_Tree@V?$_Tmap_traits@KPAVCClientSockE@@U?$less@K@std@@V?$allocator@U?$pair@$$CBKPAVCClientSockE@@@std@@@3@$0A@@std@@@std@@QAE?AViterator@12@ABK@Z 004154b0 f i serversocke.obj
 0001:00014520       ?_Init@?$_Tree@V?$_Tmap_traits@KPAVCClientSockE@@U?$less@K@std@@V?$allocator@U?$pair@$$CBKPAVCClientSockE@@@std@@@3@$0A@@std@@@std@@IAEXXZ 00415520 f i serversocke.obj
 0001:00014550       ??0?$_Tree_val@V?$_Tmap_traits@KPAVCClientSockE@@U?$less@K@std@@V?$allocator@U?$pair@$$CBKPAVCClientSockE@@@std@@@3@$0A@@std@@@std@@IAE@ABU?$less@K@1@V?$allocator@U?$pair@$$CBKPAVCClientSockE@@@std@@@1@@Z 00415550 f i serversocke.obj
 0001:00014560       ?CloseAllChild@CServerSockE@@QAEXXZ 00415560 f   serversocke.obj
 0001:00014630       ??0?$_Tree@V?$_Tmap_traits@KPAVCClientSockE@@U?$less@K@std@@V?$allocator@U?$pair@$$CBKPAVCClientSockE@@@std@@@3@$0A@@std@@@std@@QAE@ABU?$less@K@1@ABV?$allocator@U?$pair@$$CBKPAVCClientSockE@@@std@@@1@@Z 00415630 f i serversocke.obj
 0001:00014660       ?Close@CServerSockE@@UAEXXZ 00415660 f   serversocke.obj
 0001:000146c0       ?erase@?$_Tree@V?$_Tmap_traits@KPAVCClientSockE@@U?$less@K@std@@V?$allocator@U?$pair@$$CBKPAVCClientSockE@@@std@@@3@$0A@@std@@@std@@QAE?AViterator@12@V312@@Z 004156c0 f i serversocke.obj
 0001:00014980       ?_Insert@?$_Tree@V?$_Tmap_traits@KPAVCClientSockE@@U?$less@K@std@@V?$allocator@U?$pair@$$CBKPAVCClientSockE@@@std@@@3@$0A@@std@@@std@@IAE?AViterator@12@_NPAU_Node@?$_Tree_nod@V?$_Tmap_traits@KPAVCClientSockE@@U?$less@K@std@@V?$allocator@U?$pair@$$CBKPAVCClientSockE@@@std@@@3@$0A@@std@@@2@ABU?$pair@$$CBKPAVCClientSockE@@@2@@Z 00415980 f i serversocke.obj
 0001:00014b30       ?erase@?$_Tree@V?$_Tmap_traits@KPAVCClientSockE@@U?$less@K@std@@V?$allocator@U?$pair@$$CBKPAVCClientSockE@@@std@@@3@$0A@@std@@@std@@QAE?AViterator@12@V312@0@Z 00415b30 f i serversocke.obj
 0001:00014bf0       ?CloseChild@CServerSockE@@QAEHI@Z 00415bf0 f   serversocke.obj
 0001:00014cb0       ?CloseConnection@CServerSockE@@UAEHI@Z 00415cb0 f   serversocke.obj
 0001:00014cc0       ?insert@?$_Tree@V?$_Tmap_traits@KPAVCClientSockE@@U?$less@K@std@@V?$allocator@U?$pair@$$CBKPAVCClientSockE@@@std@@@3@$0A@@std@@@std@@QAE?AU?$pair@Viterator@?$_Tree@V?$_Tmap_traits@KPAVCClientSockE@@U?$less@K@std@@V?$allocator@U?$pair@$$CBKPAVCClientSockE@@@std@@@3@$0A@@std@@@std@@_N@2@ABU?$pair@$$CBKPAVCClientSockE@@@2@@Z 00415cc0 f i serversocke.obj
 0001:00014d80       ?_Tidy@?$_Tree@V?$_Tmap_traits@KPAVCClientSockE@@U?$less@K@std@@V?$allocator@U?$pair@$$CBKPAVCClientSockE@@@std@@@3@$0A@@std@@@std@@IAEXXZ 00415d80 f i serversocke.obj
 0001:00014db0       ??1?$_Tree@V?$_Tmap_traits@KPAVCClientSockE@@U?$less@K@std@@V?$allocator@U?$pair@$$CBKPAVCClientSockE@@@std@@@3@$0A@@std@@@std@@QAE@XZ 00415db0 f i serversocke.obj
 0001:00014de0       ??1?$map@KPAVCClientSockE@@U?$less@K@std@@V?$allocator@U?$pair@$$CBKPAVCClientSockE@@@std@@@3@@std@@QAE@XZ 00415de0 f i serversocke.obj
 0001:00014e10       ??0?$map@KPAVCClientSockE@@U?$less@K@std@@V?$allocator@U?$pair@$$CBKPAVCClientSockE@@@std@@@3@@std@@QAE@XZ 00415e10 f i serversocke.obj
 0001:00014e40       ??0CMapChildE@@QAE@XZ      00415e40 f i serversocke.obj
 0001:00014e90       ??1CMapChildE@@UAE@XZ      00415e90 f i serversocke.obj
 0001:00014ee0       ??_GCMapChildE@@UAEPAXI@Z  00415ee0 f i serversocke.obj
 0001:00014ee0       ??_ECMapChildE@@UAEPAXI@Z  00415ee0 f i serversocke.obj
 0001:00014f00       ??0CServerSockE@@QAE@K@Z   00415f00 f   serversocke.obj
 0001:00014fa0       ?Get@CServerSockE@@UAEPAVCSock@@I@Z 00415fa0 f i serversocke.obj
 0001:00014fe0       ??1CServerSockE@@UAE@XZ    00415fe0 f   serversocke.obj
 0001:00015080       ??_GCServerSockE@@UAEPAXI@Z 00416080 f i serversocke.obj
 0001:00015080       ??_ECServerSockE@@UAEPAXI@Z 00416080 f i serversocke.obj
 0001:000150a0       ?AddChild@CServerSockE@@QAEPAVCClientSockE@@I@Z 004160a0 f   serversocke.obj
 0001:00015170       ?ListenThreadE@@YGIPAX@Z   00416170 f   serversocke.obj
 0001:000152a0       ?StartServer@CServerSockE@@QAEHPAVCDPSock@@@Z 004162a0 f   serversocke.obj
 0001:00015300       ??0CSock@@QAE@XZ           00416300 f   sock.obj
 0001:00015320       ?Clear@CSock@@QAEXXZ       00416320 f   sock.obj
 0001:00015350       ?Attach@CSock@@UAEXI@Z     00416350 f   sock.obj
 0001:00015390       ?Detach@CSock@@UAEXXZ      00416390 f   sock.obj
 0001:000153a0       ?GetHostAddr@CSock@@UAEJPAXPAK@Z 004163a0 f   sock.obj
 0001:00015450       ??1CSock@@UAE@XZ           00416450 f   sock.obj
 0001:00015490       ?Create@CSock@@UAEHGH@Z    00416490 f   sock.obj
 0001:000155a0       ??_ECSock@@UAEPAXI@Z       004165a0 f i sock.obj
 0001:000155a0       ??_GCSock@@UAEPAXI@Z       004165a0 f i sock.obj
 0001:000155f0       ?IsStoring@CAr@@QBEHXZ     004165f0 f i ar.obj
 0001:00015600       ??0CAr@@QAE@PAXI@Z         00416600 f   ar.obj
 0001:00015650       ??1CAr@@QAE@XZ             00416650 f   ar.obj
 0001:00015680       ?Read@CAr@@QAEXPAXI@Z      00416680 f   ar.obj
 0001:000156e0       ?Reserve@CAr@@QAEXI@Z      004166e0 f   ar.obj
 0001:00015710       ?CheckBuf@CAr@@QAEXI@Z     00416710 f   ar.obj
 0001:000157a0       ?GetBuffer@CAr@@QAEPAEPAH@Z 004167a0 f   ar.obj
 0001:000157c0       ?Flush@CAr@@QAEXXZ         004167c0 f   ar.obj
 0001:000157d0       ?ReelIn@CAr@@QAEXI@Z       004167d0 f   ar.obj
 0001:00015810       ?Write@CAr@@QAEXPBXI@Z     00416810 f   ar.obj
 0001:00015850       ?ReadString@CAr@@QAEPADPAD@Z 00416850 f   ar.obj
 0001:00015890       ?ReadString@CAr@@QAEPADPADH@Z 00416890 f   ar.obj
 0001:00015900       ?WriteString@CAr@@QAEXPBD@Z 00416900 f   ar.obj
 0001:00015960       ?size@?$deque@KV?$allocator@K@std@@@std@@QBEIXZ 00416960 f i DoS.obj
 0001:00015970       ?Free@?$MemPooler@U_CONNECTIONREQUEST@@@@QAEHPAU_CONNECTIONREQUEST@@@Z 00416970 f i DoS.obj
 0001:000159c0       ??0?$pair@$$CBKPAU_CONNECTIONREQUEST@@@std@@QAE@ABKABQAU_CONNECTIONREQUEST@@@Z 004169c0 f i DoS.obj
 0001:000159e0       ?_Isnil@?$_Tree@V?$_Tmap_traits@KPAU_CONNECTIONREQUEST@@U?$less@K@std@@V?$allocator@U?$pair@$$CBKPAU_CONNECTIONREQUEST@@@std@@@3@$0A@@std@@@std@@KAAADPAU_Node@?$_Tree_nod@V?$_Tmap_traits@KPAU_CONNECTIONREQUEST@@U?$less@K@std@@V?$allocator@U?$pair@$$CBKPAU_CONNECTIONREQUEST@@@std@@@3@$0A@@std@@@2@@Z 004169e0 f i DoS.obj
 0001:000159f0       ?_Left@?$_Tree@V?$_Tmap_traits@KPAU_CONNECTIONREQUEST@@U?$less@K@std@@V?$allocator@U?$pair@$$CBKPAU_CONNECTIONREQUEST@@@std@@@3@$0A@@std@@@std@@KAAAPAU_Node@?$_Tree_nod@V?$_Tmap_traits@KPAU_CONNECTIONREQUEST@@U?$less@K@std@@V?$allocator@U?$pair@$$CBKPAU_CONNECTIONREQUEST@@@std@@@3@$0A@@std@@@2@PAU342@@Z 004169f0 f i DoS.obj
 0001:00015a00       ?_Right@?$_Tree@V?$_Tmap_traits@KPAU_CONNECTIONREQUEST@@U?$less@K@std@@V?$allocator@U?$pair@$$CBKPAU_CONNECTIONREQUEST@@@std@@@3@$0A@@std@@@std@@KAAAPAU_Node@?$_Tree_nod@V?$_Tmap_traits@KPAU_CONNECTIONREQUEST@@U?$less@K@std@@V?$allocator@U?$pair@$$CBKPAU_CONNECTIONREQUEST@@@std@@@3@$0A@@std@@@2@PAU342@@Z 00416a00 f i DoS.obj
 0001:00015a10       ?_Lmost@?$_Tree@V?$_Tmap_traits@KPAU_CONNECTIONREQUEST@@U?$less@K@std@@V?$allocator@U?$pair@$$CBKPAU_CONNECTIONREQUEST@@@std@@@3@$0A@@std@@@std@@IAEAAPAU_Node@?$_Tree_nod@V?$_Tmap_traits@KPAU_CONNECTIONREQUEST@@U?$less@K@std@@V?$allocator@U?$pair@$$CBKPAU_CONNECTIONREQUEST@@@std@@@3@$0A@@std@@@2@XZ 00416a10 f i DoS.obj
 0001:00015a20       ?_Rmost@?$_Tree@V?$_Tmap_traits@KPAU_CONNECTIONREQUEST@@U?$less@K@std@@V?$allocator@U?$pair@$$CBKPAU_CONNECTIONREQUEST@@@std@@@3@$0A@@std@@@std@@IAEAAPAU_Node@?$_Tree_nod@V?$_Tmap_traits@KPAU_CONNECTIONREQUEST@@U?$less@K@std@@V?$allocator@U?$pair@$$CBKPAU_CONNECTIONREQUEST@@@std@@@3@$0A@@std@@@2@XZ 00416a20 f i DoS.obj
 0001:00015a30       ?_Kfn@?$_Tmap_traits@KPAU_CONNECTIONREQUEST@@U?$less@K@std@@V?$allocator@U?$pair@$$CBKPAU_CONNECTIONREQUEST@@@std@@@3@$0A@@std@@SAABKABU?$pair@$$CBKPAU_CONNECTIONREQUEST@@@2@@Z 00416a30 f i DoS.obj
 0001:00015a40       ??0?$allocator@U?$pair@$$CBKPAU_CONNECTIONREQUEST@@@std@@@std@@QAE@XZ 00416a40 f i DoS.obj
 0001:00015a50       ??0?$allocator@K@std@@QAE@XZ 00416a50 f i DoS.obj
 0001:00015a60       ?empty@?$deque@KV?$allocator@K@std@@@std@@QBE_NXZ 00416a60 f i DoS.obj
 0001:00015a70       ??8const_iterator@?$_Tree@V?$_Tmap_traits@KPAU_CONNECTIONREQUEST@@U?$less@K@std@@V?$allocator@U?$pair@$$CBKPAU_CONNECTIONREQUEST@@@std@@@3@$0A@@std@@@std@@QBE_NABV012@@Z 00416a70 f i DoS.obj
 0001:00015a80       ?_Mynode@const_iterator@?$_Tree@V?$_Tmap_traits@KPAU_CONNECTIONREQUEST@@U?$less@K@std@@V?$allocator@U?$pair@$$CBKPAU_CONNECTIONREQUEST@@@std@@@3@$0A@@std@@@std@@QBEPAU_Node@?$_Tree_nod@V?$_Tmap_traits@KPAU_CONNECTIONREQUEST@@U?$less@K@std@@V?$allocator@U?$pair@$$CBKPAU_CONNECTIONREQUEST@@@std@@@3@$0A@@std@@@3@XZ 00416a80 f i DoS.obj
 0001:00015a90       ??0?$pair@Viterator@?$_Tree@V?$_Tmap_traits@KPAU_CONNECTIONREQUEST@@U?$less@K@std@@V?$allocator@U?$pair@$$CBKPAU_CONNECTIONREQUEST@@@std@@@3@$0A@@std@@@std@@_N@std@@QAE@ABViterator@?$_Tree@V?$_Tmap_traits@KPAU_CONNECTIONREQUEST@@U?$less@K@std@@V?$allocator@U?$pair@$$CBKPAU_CONNECTIONREQUEST@@@std@@@3@$0A@@std@@@1@AB_N@Z 00416a90 f i DoS.obj
 0001:00015ab0       ?_Color@?$_Tree@V?$_Tmap_traits@KPAU_CONNECTIONREQUEST@@U?$less@K@std@@V?$allocator@U?$pair@$$CBKPAU_CONNECTIONREQUEST@@@std@@@3@$0A@@std@@@std@@KAAADPAU_Node@?$_Tree_nod@V?$_Tmap_traits@KPAU_CONNECTIONREQUEST@@U?$less@K@std@@V?$allocator@U?$pair@$$CBKPAU_CONNECTIONREQUEST@@@std@@@3@$0A@@std@@@2@@Z 00416ab0 f i DoS.obj
 0001:00015ac0       ?_Parent@?$_Tree@V?$_Tmap_traits@KPAU_CONNECTIONREQUEST@@U?$less@K@std@@V?$allocator@U?$pair@$$CBKPAU_CONNECTIONREQUEST@@@std@@@3@$0A@@std@@@std@@KAAAPAU_Node@?$_Tree_nod@V?$_Tmap_traits@KPAU_CONNECTIONREQUEST@@U?$less@K@std@@V?$allocator@U?$pair@$$CBKPAU_CONNECTIONREQUEST@@@std@@@3@$0A@@std@@@2@PAU342@@Z 00416ac0 f i DoS.obj
 0001:00015ad0       ?_Myval@?$_Tree@V?$_Tmap_traits@KPAU_CONNECTIONREQUEST@@U?$less@K@std@@V?$allocator@U?$pair@$$CBKPAU_CONNECTIONREQUEST@@@std@@@3@$0A@@std@@@std@@KAAAU?$pair@$$CBKPAU_CONNECTIONREQUEST@@@2@PAU_Node@?$_Tree_nod@V?$_Tmap_traits@KPAU_CONNECTIONREQUEST@@U?$less@K@std@@V?$allocator@U?$pair@$$CBKPAU_CONNECTIONREQUEST@@@std@@@3@$0A@@std@@@2@@Z 00416ad0 f i DoS.obj
 0001:00015ae0       ??0?$allocator@U?$pair@$$CBKPAU_CONNECTIONREQUEST@@@std@@@std@@QAE@ABV01@@Z 00416ae0 f i DoS.obj
 0001:00015af0       ?deallocate@?$allocator@U_Node@?$_Tree_nod@V?$_Tmap_traits@KPAU_CONNECTIONREQUEST@@U?$less@K@std@@V?$allocator@U?$pair@$$CBKPAU_CONNECTIONREQUEST@@@std@@@3@$0A@@std@@@std@@@std@@QAEXPAU_Node@?$_Tree_nod@V?$_Tmap_traits@KPAU_CONNECTIONREQUEST@@U?$less@K@std@@V?$allocator@U?$pair@$$CBKPAU_CONNECTIONREQUEST@@@std@@@3@$0A@@std@@@2@I@Z 00416af0 f i DoS.obj
 0001:00015b00       ??0?$allocator@K@std@@QAE@ABV01@@Z 00416b00 f i DoS.obj
 0001:00015b10       ?deallocate@?$allocator@K@std@@QAEXPAKI@Z 00416b10 f i DoS.obj
 0001:00015b20       ?deallocate@?$allocator@PAK@std@@QAEXPAPAKI@Z 00416b20 f i DoS.obj
 0001:00015b30       ??0const_iterator@?$_Tree@V?$_Tmap_traits@KPAU_CONNECTIONREQUEST@@U?$less@K@std@@V?$allocator@U?$pair@$$CBKPAU_CONNECTIONREQUEST@@@std@@@3@$0A@@std@@@std@@QAE@PAU_Node@?$_Tree_nod@V?$_Tmap_traits@KPAU_CONNECTIONREQUEST@@U?$less@K@std@@V?$allocator@U?$pair@$$CBKPAU_CONNECTIONREQUEST@@@std@@@3@$0A@@std@@@2@@Z 00416b30 f i DoS.obj
 0001:00015b40       ??Dconst_iterator@?$_Tree@V?$_Tmap_traits@KPAU_CONNECTIONREQUEST@@U?$less@K@std@@V?$allocator@U?$pair@$$CBKPAU_CONNECTIONREQUEST@@@std@@@3@$0A@@std@@@std@@QBEABU?$pair@$$CBKPAU_CONNECTIONREQUEST@@@2@XZ 00416b40 f i DoS.obj
 0001:00015b50       ??0?$pair@Viterator@?$_Tree@V?$_Tmap_traits@KPAU_CONNECTIONREQUEST@@U?$less@K@std@@V?$allocator@U?$pair@$$CBKPAU_CONNECTIONREQUEST@@@std@@@3@$0A@@std@@@std@@V123@@std@@QAE@ABViterator@?$_Tree@V?$_Tmap_traits@KPAU_CONNECTIONREQUEST@@U?$less@K@std@@V?$allocator@U?$pair@$$CBKPAU_CONNECTIONREQUEST@@@std@@@3@$0A@@std@@@1@0@Z 00416b50 f i DoS.obj
 0001:00015b70       ??Dconst_iterator@?$deque@KV?$allocator@K@std@@@std@@QBEABKXZ 00416b70 f i DoS.obj
 0001:00015ba0       ?_Max@?$_Tree@V?$_Tmap_traits@KPAU_CONNECTIONREQUEST@@U?$less@K@std@@V?$allocator@U?$pair@$$CBKPAU_CONNECTIONREQUEST@@@std@@@3@$0A@@std@@@std@@KAPAU_Node@?$_Tree_nod@V?$_Tmap_traits@KPAU_CONNECTIONREQUEST@@U?$less@K@std@@V?$allocator@U?$pair@$$CBKPAU_CONNECTIONREQUEST@@@std@@@3@$0A@@std@@@2@PAU342@@Z 00416ba0 f i DoS.obj
 0001:00015bc0       ?_Min@?$_Tree@V?$_Tmap_traits@KPAU_CONNECTIONREQUEST@@U?$less@K@std@@V?$allocator@U?$pair@$$CBKPAU_CONNECTIONREQUEST@@@std@@@3@$0A@@std@@@std@@KAPAU_Node@?$_Tree_nod@V?$_Tmap_traits@KPAU_CONNECTIONREQUEST@@U?$less@K@std@@V?$allocator@U?$pair@$$CBKPAU_CONNECTIONREQUEST@@@std@@@3@$0A@@std@@@2@PAU342@@Z 00416bc0 f i DoS.obj
 0001:00015be0       ?_Root@?$_Tree@V?$_Tmap_traits@KPAU_CONNECTIONREQUEST@@U?$less@K@std@@V?$allocator@U?$pair@$$CBKPAU_CONNECTIONREQUEST@@@std@@@3@$0A@@std@@@std@@IBEAAPAU_Node@?$_Tree_nod@V?$_Tmap_traits@KPAU_CONNECTIONREQUEST@@U?$less@K@std@@V?$allocator@U?$pair@$$CBKPAU_CONNECTIONREQUEST@@@std@@@3@$0A@@std@@@2@XZ 00416be0 f i DoS.obj
 0001:00015bf0       ?max_size@?$allocator@U?$pair@$$CBKPAU_CONNECTIONREQUEST@@@std@@@std@@QBEIXZ 00416bf0 f i DoS.obj
 0001:00015c00       ?max_size@?$allocator@K@std@@QBEIXZ 00416c00 f i DoS.obj
 0001:00015c10       ?_Dec@const_iterator@?$_Tree@V?$_Tmap_traits@KPAU_CONNECTIONREQUEST@@U?$less@K@std@@V?$allocator@U?$pair@$$CBKPAU_CONNECTIONREQUEST@@@std@@@3@$0A@@std@@@std@@QAEXXZ 00416c10 f i DoS.obj
 0001:00015c70       ??0const_iterator@?$deque@KV?$allocator@K@std@@@std@@QAE@IPBV12@@Z 00416c70 f i DoS.obj
 0001:00015c90       ??0_Node@?$_Tree_nod@V?$_Tmap_traits@KPAU_CONNECTIONREQUEST@@U?$less@K@std@@V?$allocator@U?$pair@$$CBKPAU_CONNECTIONREQUEST@@@std@@@3@$0A@@std@@@std@@QAE@PAU012@00ABU?$pair@$$CBKPAU_CONNECTIONREQUEST@@@2@D@Z 00416c90 f i DoS.obj
 0001:00015cd0       ??0?$_Tmap_traits@KPAU_CONNECTIONREQUEST@@U?$less@K@std@@V?$allocator@U?$pair@$$CBKPAU_CONNECTIONREQUEST@@@std@@@3@$0A@@std@@QAE@U?$less@K@1@@Z 00416cd0 f i DoS.obj
 0001:00015ce0       ??$_Allocate@K@std@@YAPAKIPAK@Z 00416ce0 f i DoS.obj
 0001:00015d00       ??$_Construct@KK@std@@YAXPAKABK@Z 00416d00 f i DoS.obj
 0001:00015d20       ??$_Destroy@K@std@@YAXPAK@Z 00416d20 f i DoS.obj
 0001:00015d30       ??$_Destroy@U_Node@?$_Tree_nod@V?$_Tmap_traits@KPAU_CONNECTIONREQUEST@@U?$less@K@std@@V?$allocator@U?$pair@$$CBKPAU_CONNECTIONREQUEST@@@std@@@3@$0A@@std@@@std@@@std@@YAXPAU_Node@?$_Tree_nod@V?$_Tmap_traits@KPAU_CONNECTIONREQUEST@@U?$less@K@std@@V?$allocator@U?$pair@$$CBKPAU_CONNECTIONREQUEST@@@std@@@3@$0A@@std@@@0@@Z 00416d30 f i DoS.obj
 0001:00015d40       ??$_Destroy@PAU_Node@?$_Tree_nod@V?$_Tmap_traits@KPAU_CONNECTIONREQUEST@@U?$less@K@std@@V?$allocator@U?$pair@$$CBKPAU_CONNECTIONREQUEST@@@std@@@3@$0A@@std@@@std@@@std@@YAXPAPAU_Node@?$_Tree_nod@V?$_Tmap_traits@KPAU_CONNECTIONREQUEST@@U?$less@K@std@@V?$allocator@U?$pair@$$CBKPAU_CONNECTIONREQUEST@@@std@@@3@$0A@@std@@@0@@Z 00416d40 f i DoS.obj
 0001:00015d50       ??$?0K@?$allocator@PAK@std@@QAE@ABV?$allocator@K@1@@Z 00416d50 f i DoS.obj
 0001:00015d60       ??$_Allocate@PAK@std@@YAPAPAKIPAPAK@Z 00416d60 f i DoS.obj
 0001:00015d80       ??$_Destroy@PAK@std@@YAXPAPAK@Z 00416d80 f i DoS.obj
 0001:00015d90       ??$?0U?$pair@$$CBKPAU_CONNECTIONREQUEST@@@std@@@?$allocator@PAU_Node@?$_Tree_nod@V?$_Tmap_traits@KPAU_CONNECTIONREQUEST@@U?$less@K@std@@V?$allocator@U?$pair@$$CBKPAU_CONNECTIONREQUEST@@@std@@@3@$0A@@std@@@std@@@std@@QAE@ABV?$allocator@U?$pair@$$CBKPAU_CONNECTIONREQUEST@@@std@@@1@@Z 00416d90 f i DoS.obj
 0001:00015da0       ??$_Allocate@U_Node@?$_Tree_nod@V?$_Tmap_traits@KPAU_CONNECTIONREQUEST@@U?$less@K@std@@V?$allocator@U?$pair@$$CBKPAU_CONNECTIONREQUEST@@@std@@@3@$0A@@std@@@std@@@std@@YAPAU_Node@?$_Tree_nod@V?$_Tmap_traits@KPAU_CONNECTIONREQUEST@@U?$less@K@std@@V?$allocator@U?$pair@$$CBKPAU_CONNECTIONREQUEST@@@std@@@3@$0A@@std@@@0@IPAU120@@Z 00416da0 f i DoS.obj
 0001:00015dc0       ??$?0U?$pair@$$CBKPAU_CONNECTIONREQUEST@@@std@@@?$allocator@U_Node@?$_Tree_nod@V?$_Tmap_traits@KPAU_CONNECTIONREQUEST@@U?$less@K@std@@V?$allocator@U?$pair@$$CBKPAU_CONNECTIONREQUEST@@@std@@@3@$0A@@std@@@std@@@std@@QAE@ABV?$allocator@U?$pair@$$CBKPAU_CONNECTIONREQUEST@@@std@@@1@@Z 00416dc0 f i DoS.obj
 0001:00015dd0       ??$_Construct@PAU_Node@?$_Tree_nod@V?$_Tmap_traits@KPAU_CONNECTIONREQUEST@@U?$less@K@std@@V?$allocator@U?$pair@$$CBKPAU_CONNECTIONREQUEST@@@std@@@3@$0A@@std@@@std@@PAU123@@std@@YAXPAPAU_Node@?$_Tree_nod@V?$_Tmap_traits@KPAU_CONNECTIONREQUEST@@U?$less@K@std@@V?$allocator@U?$pair@$$CBKPAU_CONNECTIONREQUEST@@@std@@@3@$0A@@std@@@0@ABQAU120@@Z 00416dd0 f i DoS.obj
 0001:00015df0       ??$_Iter_cat@Viterator@?$_Tree@V?$_Tmap_traits@KPAU_CONNECTIONREQUEST@@U?$less@K@std@@V?$allocator@U?$pair@$$CBKPAU_CONNECTIONREQUEST@@@std@@@3@$0A@@std@@@std@@@std@@YA?AUbidirectional_iterator_tag@0@ABViterator@?$_Tree@V?$_Tmap_traits@KPAU_CONNECTIONREQUEST@@U?$less@K@std@@V?$allocator@U?$pair@$$CBKPAU_CONNECTIONREQUEST@@@std@@@3@$0A@@std@@@0@@Z 00416df0 f i DoS.obj
 0001:00015e00       ??$_Ptr_cat@K@std@@YA?AU_Scalar_ptr_iterator_tag@0@PAPAK0@Z 00416e00 f i DoS.obj
 0001:00015e10       ??$_Uninit_copy@PAKPAK@std@@YAPAPAKPAPAK00AAV?$allocator@PAK@0@U_Scalar_ptr_iterator_tag@0@@Z 00416e10 f i DoS.obj
 0001:00015e40       ??$_Destroy_range@PAKV?$allocator@PAK@std@@@std@@YAXPAPAK0AAV?$allocator@PAK@0@U_Scalar_ptr_iterator_tag@0@@Z 00416e40 f i DoS.obj
 0001:00015e50       ??$fill_n@PAPAKIPAK@std@@YAXPAPAKIABQAK@Z 00416e50 f i DoS.obj
 0001:00015e70       ??9const_iterator@?$_Tree@V?$_Tmap_traits@KPAU_CONNECTIONREQUEST@@U?$less@K@std@@V?$allocator@U?$pair@$$CBKPAU_CONNECTIONREQUEST@@@std@@@3@$0A@@std@@@std@@QBE_NABV012@@Z 00416e70 f i DoS.obj
 0001:00015e90       ?_Key@?$_Tree@V?$_Tmap_traits@KPAU_CONNECTIONREQUEST@@U?$less@K@std@@V?$allocator@U?$pair@$$CBKPAU_CONNECTIONREQUEST@@@std@@@3@$0A@@std@@@std@@KAABKPAU_Node@?$_Tree_nod@V?$_Tmap_traits@KPAU_CONNECTIONREQUEST@@U?$less@K@std@@V?$allocator@U?$pair@$$CBKPAU_CONNECTIONREQUEST@@@std@@@3@$0A@@std@@@2@@Z 00416e90 f i DoS.obj
 0001:00015ea0       ?_Root@?$_Tree@V?$_Tmap_traits@KPAU_CONNECTIONREQUEST@@U?$less@K@std@@V?$allocator@U?$pair@$$CBKPAU_CONNECTIONREQUEST@@@std@@@3@$0A@@std@@@std@@IAEAAPAU_Node@?$_Tree_nod@V?$_Tmap_traits@KPAU_CONNECTIONREQUEST@@U?$less@K@std@@V?$allocator@U?$pair@$$CBKPAU_CONNECTIONREQUEST@@@std@@@3@$0A@@std@@@2@XZ 00416ea0 f i DoS.obj
 0001:00015eb0       ?allocate@?$allocator@K@std@@QAEPAKI@Z 00416eb0 f i DoS.obj
 0001:00015ed0       ?construct@?$allocator@K@std@@QAEXPAKABK@Z 00416ed0 f i DoS.obj
 0001:00015ef0       ?destroy@?$allocator@K@std@@QAEXPAK@Z 00416ef0 f i DoS.obj
 0001:00015f00       ??0iterator@?$_Tree@V?$_Tmap_traits@KPAU_CONNECTIONREQUEST@@U?$less@K@std@@V?$allocator@U?$pair@$$CBKPAU_CONNECTIONREQUEST@@@std@@@3@$0A@@std@@@std@@QAE@PAU_Node@?$_Tree_nod@V?$_Tmap_traits@KPAU_CONNECTIONREQUEST@@U?$less@K@std@@V?$allocator@U?$pair@$$CBKPAU_CONNECTIONREQUEST@@@std@@@3@$0A@@std@@@2@@Z 00416f00 f i DoS.obj
 0001:00015f10       ??Diterator@?$_Tree@V?$_Tmap_traits@KPAU_CONNECTIONREQUEST@@U?$less@K@std@@V?$allocator@U?$pair@$$CBKPAU_CONNECTIONREQUEST@@@std@@@3@$0A@@std@@@std@@QBEAAU?$pair@$$CBKPAU_CONNECTIONREQUEST@@@2@XZ 00416f10 f i DoS.obj
 0001:00015f20       ??Diterator@?$deque@KV?$allocator@K@std@@@std@@QBEAAKXZ 00416f20 f i DoS.obj
 0001:00015f50       ?max_size@?$_Tree@V?$_Tmap_traits@KPAU_CONNECTIONREQUEST@@U?$less@K@std@@V?$allocator@U?$pair@$$CBKPAU_CONNECTIONREQUEST@@@std@@@3@$0A@@std@@@std@@QBEIXZ 00416f50 f i DoS.obj
 0001:00015f60       ?_Lbound@?$_Tree@V?$_Tmap_traits@KPAU_CONNECTIONREQUEST@@U?$less@K@std@@V?$allocator@U?$pair@$$CBKPAU_CONNECTIONREQUEST@@@std@@@3@$0A@@std@@@std@@IBEPAU_Node@?$_Tree_nod@V?$_Tmap_traits@KPAU_CONNECTIONREQUEST@@U?$less@K@std@@V?$allocator@U?$pair@$$CBKPAU_CONNECTIONREQUEST@@@std@@@3@$0A@@std@@@2@ABK@Z 00416f60 f i DoS.obj
 0001:00015f90       ?_Lrotate@?$_Tree@V?$_Tmap_traits@KPAU_CONNECTIONREQUEST@@U?$less@K@std@@V?$allocator@U?$pair@$$CBKPAU_CONNECTIONREQUEST@@@std@@@3@$0A@@std@@@std@@IAEXPAU_Node@?$_Tree_nod@V?$_Tmap_traits@KPAU_CONNECTIONREQUEST@@U?$less@K@std@@V?$allocator@U?$pair@$$CBKPAU_CONNECTIONREQUEST@@@std@@@3@$0A@@std@@@2@@Z 00416f90 f i DoS.obj
 0001:00015ff0       ?_Rrotate@?$_Tree@V?$_Tmap_traits@KPAU_CONNECTIONREQUEST@@U?$less@K@std@@V?$allocator@U?$pair@$$CBKPAU_CONNECTIONREQUEST@@@std@@@3@$0A@@std@@@std@@IAEXPAU_Node@?$_Tree_nod@V?$_Tmap_traits@KPAU_CONNECTIONREQUEST@@U?$less@K@std@@V?$allocator@U?$pair@$$CBKPAU_CONNECTIONREQUEST@@@std@@@3@$0A@@std@@@2@@Z 00416ff0 f i DoS.obj
 0001:00016050       ?destroy@?$allocator@U_Node@?$_Tree_nod@V?$_Tmap_traits@KPAU_CONNECTIONREQUEST@@U?$less@K@std@@V?$allocator@U?$pair@$$CBKPAU_CONNECTIONREQUEST@@@std@@@3@$0A@@std@@@std@@@std@@QAEXPAU_Node@?$_Tree_nod@V?$_Tmap_traits@KPAU_CONNECTIONREQUEST@@U?$less@K@std@@V?$allocator@U?$pair@$$CBKPAU_CONNECTIONREQUEST@@@std@@@3@$0A@@std@@@2@@Z 00417050 f i DoS.obj
 0001:00016060       ?destroy@?$allocator@PAU_Node@?$_Tree_nod@V?$_Tmap_traits@KPAU_CONNECTIONREQUEST@@U?$less@K@std@@V?$allocator@U?$pair@$$CBKPAU_CONNECTIONREQUEST@@@std@@@3@$0A@@std@@@std@@@std@@QAEXPAPAU_Node@?$_Tree_nod@V?$_Tmap_traits@KPAU_CONNECTIONREQUEST@@U?$less@K@std@@V?$allocator@U?$pair@$$CBKPAU_CONNECTIONREQUEST@@@std@@@3@$0A@@std@@@2@@Z 00417060 f i DoS.obj
 0001:00016070       ?max_size@?$deque@KV?$allocator@K@std@@@std@@QBEIXZ 00417070 f i DoS.obj
 0001:00016080       ?pop_back@?$deque@KV?$allocator@K@std@@@std@@QAEXXZ 00417080 f i DoS.obj
 0001:000160a0       ??0?$_Deque_map@KV?$allocator@K@std@@@std@@IAE@V?$allocator@K@1@@Z 004170a0 f i DoS.obj
 0001:000160b0       ?allocate@?$allocator@PAK@std@@QAEPAPAKI@Z 004170b0 f i DoS.obj
 0001:000160d0       ?destroy@?$allocator@PAK@std@@QAEXPAPAK@Z 004170d0 f i DoS.obj
 0001:000160e0       ??Fconst_iterator@?$_Tree@V?$_Tmap_traits@KPAU_CONNECTIONREQUEST@@U?$less@K@std@@V?$allocator@U?$pair@$$CBKPAU_CONNECTIONREQUEST@@@std@@@3@$0A@@std@@@std@@QAEAAV012@XZ 004170e0 f i DoS.obj
 0001:000160f0       ?_Inc@const_iterator@?$_Tree@V?$_Tmap_traits@KPAU_CONNECTIONREQUEST@@U?$less@K@std@@V?$allocator@U?$pair@$$CBKPAU_CONNECTIONREQUEST@@@std@@@3@$0A@@std@@@std@@QAEXXZ 004170f0 f i DoS.obj
 0001:00016150       ??0iterator@?$deque@KV?$allocator@K@std@@@std@@QAE@IPBV12@@Z 00417150 f i DoS.obj
 0001:00016170       ?_Ubound@?$_Tree@V?$_Tmap_traits@KPAU_CONNECTIONREQUEST@@U?$less@K@std@@V?$allocator@U?$pair@$$CBKPAU_CONNECTIONREQUEST@@@std@@@3@$0A@@std@@@std@@IBEPAU_Node@?$_Tree_nod@V?$_Tmap_traits@KPAU_CONNECTIONREQUEST@@U?$less@K@std@@V?$allocator@U?$pair@$$CBKPAU_CONNECTIONREQUEST@@@std@@@3@$0A@@std@@@2@ABK@Z 00417170 f i DoS.obj
 0001:000161a0       ?allocate@?$allocator@U_Node@?$_Tree_nod@V?$_Tmap_traits@KPAU_CONNECTIONREQUEST@@U?$less@K@std@@V?$allocator@U?$pair@$$CBKPAU_CONNECTIONREQUEST@@@std@@@3@$0A@@std@@@std@@@std@@QAEPAU_Node@?$_Tree_nod@V?$_Tmap_traits@KPAU_CONNECTIONREQUEST@@U?$less@K@std@@V?$allocator@U?$pair@$$CBKPAU_CONNECTIONREQUEST@@@std@@@3@$0A@@std@@@2@I@Z 004171a0 f i DoS.obj
 0001:000161c0       ??0?$_Tree_nod@V?$_Tmap_traits@KPAU_CONNECTIONREQUEST@@U?$less@K@std@@V?$allocator@U?$pair@$$CBKPAU_CONNECTIONREQUEST@@@std@@@3@$0A@@std@@@std@@IAE@ABU?$less@K@1@V?$allocator@U?$pair@$$CBKPAU_CONNECTIONREQUEST@@@std@@@1@@Z 004171c0 f i DoS.obj
 0001:000161d0       ?construct@?$allocator@PAU_Node@?$_Tree_nod@V?$_Tmap_traits@KPAU_CONNECTIONREQUEST@@U?$less@K@std@@V?$allocator@U?$pair@$$CBKPAU_CONNECTIONREQUEST@@@std@@@3@$0A@@std@@@std@@@std@@QAEXPAPAU_Node@?$_Tree_nod@V?$_Tmap_traits@KPAU_CONNECTIONREQUEST@@U?$less@K@std@@V?$allocator@U?$pair@$$CBKPAU_CONNECTIONREQUEST@@@std@@@3@$0A@@std@@@2@ABQAU342@@Z 004171d0 f i DoS.obj
 0001:000161f0       ??$_Uninitialized_copy@PAPAKPAPAKV?$allocator@PAK@std@@@std@@YAPAPAKPAPAK00AAV?$allocator@PAK@0@@Z 004171f0 f i DoS.obj
 0001:00016220       ??$_Destroy_range@PAKV?$allocator@PAK@std@@@std@@YAXPAPAK0AAV?$allocator@PAK@0@@Z 00417220 f i DoS.obj
 0001:00016230       ??$_Uninit_fill_n@PAKIPAK@std@@YAXPAPAKIABQAKAAV?$allocator@PAK@0@U_Scalar_ptr_iterator_tag@0@@Z 00417230 f i DoS.obj
 0001:00016250       ?begin@?$_Tree@V?$_Tmap_traits@KPAU_CONNECTIONREQUEST@@U?$less@K@std@@V?$allocator@U?$pair@$$CBKPAU_CONNECTIONREQUEST@@@std@@@3@$0A@@std@@@std@@QAE?AViterator@12@XZ 00417250 f i DoS.obj
 0001:00016260       ?end@?$_Tree@V?$_Tmap_traits@KPAU_CONNECTIONREQUEST@@U?$less@K@std@@V?$allocator@U?$pair@$$CBKPAU_CONNECTIONREQUEST@@@std@@@3@$0A@@std@@@std@@QAE?AViterator@12@XZ 00417260 f i DoS.obj
 0001:00016270       ?pop_front@?$deque@KV?$allocator@K@std@@@std@@QAEXXZ 00417270 f i DoS.obj
 0001:000162a0       ??Citerator@?$_Tree@V?$_Tmap_traits@KPAU_CONNECTIONREQUEST@@U?$less@K@std@@V?$allocator@U?$pair@$$CBKPAU_CONNECTIONREQUEST@@@std@@@3@$0A@@std@@@std@@QBEPAU?$pair@$$CBKPAU_CONNECTIONREQUEST@@@2@XZ 004172a0 f i DoS.obj
 0001:000162b0       ?lower_bound@?$_Tree@V?$_Tmap_traits@KPAU_CONNECTIONREQUEST@@U?$less@K@std@@V?$allocator@U?$pair@$$CBKPAU_CONNECTIONREQUEST@@@std@@@3@$0A@@std@@@std@@QAE?AViterator@12@ABK@Z 004172b0 f i DoS.obj
 0001:000162f0       ?_Erase@?$_Tree@V?$_Tmap_traits@KPAU_CONNECTIONREQUEST@@U?$less@K@std@@V?$allocator@U?$pair@$$CBKPAU_CONNECTIONREQUEST@@@std@@@3@$0A@@std@@@std@@IAEXPAU_Node@?$_Tree_nod@V?$_Tmap_traits@KPAU_CONNECTIONREQUEST@@U?$less@K@std@@V?$allocator@U?$pair@$$CBKPAU_CONNECTIONREQUEST@@@std@@@3@$0A@@std@@@2@@Z 004172f0 f i DoS.obj
 0001:00016330       ?begin@?$deque@KV?$allocator@K@std@@@std@@QAE?AViterator@12@XZ 00417330 f i DoS.obj
 0001:00016340       ?_Tidy@?$deque@KV?$allocator@K@std@@@std@@IAEXXZ 00417340 f i DoS.obj
 0001:000163b0       ??0?$_Deque_val@KV?$allocator@K@std@@@std@@IAE@V?$allocator@K@1@@Z 004173b0 f i DoS.obj
 0001:000163c0       ??Fiterator@?$_Tree@V?$_Tmap_traits@KPAU_CONNECTIONREQUEST@@U?$less@K@std@@V?$allocator@U?$pair@$$CBKPAU_CONNECTIONREQUEST@@@std@@@3@$0A@@std@@@std@@QAEAAV012@XZ 004173c0 f i DoS.obj
 0001:000163d0       ??Econst_iterator@?$_Tree@V?$_Tmap_traits@KPAU_CONNECTIONREQUEST@@U?$less@K@std@@V?$allocator@U?$pair@$$CBKPAU_CONNECTIONREQUEST@@@std@@@3@$0A@@std@@@std@@QAEAAV012@XZ 004173d0 f i DoS.obj
 0001:000163e0       ?upper_bound@?$_Tree@V?$_Tmap_traits@KPAU_CONNECTIONREQUEST@@U?$less@K@std@@V?$allocator@U?$pair@$$CBKPAU_CONNECTIONREQUEST@@@std@@@3@$0A@@std@@@std@@QAE?AViterator@12@ABK@Z 004173e0 f i DoS.obj
 0001:00016420       ?_Buynode@?$_Tree@V?$_Tmap_traits@KPAU_CONNECTIONREQUEST@@U?$less@K@std@@V?$allocator@U?$pair@$$CBKPAU_CONNECTIONREQUEST@@@std@@@3@$0A@@std@@@std@@IAEPAU_Node@?$_Tree_nod@V?$_Tmap_traits@KPAU_CONNECTIONREQUEST@@U?$less@K@std@@V?$allocator@U?$pair@$$CBKPAU_CONNECTIONREQUEST@@@std@@@3@$0A@@std@@@2@PAU342@00ABU?$pair@$$CBKPAU_CONNECTIONREQUEST@@@2@D@Z 00417420 f i DoS.obj
 0001:00016460       ?_Buynode@?$_Tree@V?$_Tmap_traits@KPAU_CONNECTIONREQUEST@@U?$less@K@std@@V?$allocator@U?$pair@$$CBKPAU_CONNECTIONREQUEST@@@std@@@3@$0A@@std@@@std@@IAEPAU_Node@?$_Tree_nod@V?$_Tmap_traits@KPAU_CONNECTIONREQUEST@@U?$less@K@std@@V?$allocator@U?$pair@$$CBKPAU_CONNECTIONREQUEST@@@std@@@3@$0A@@std@@@2@XZ 00417460 f i DoS.obj
 0001:000164a0       ??0?$_Tree_ptr@V?$_Tmap_traits@KPAU_CONNECTIONREQUEST@@U?$less@K@std@@V?$allocator@U?$pair@$$CBKPAU_CONNECTIONREQUEST@@@std@@@3@$0A@@std@@@std@@IAE@ABU?$less@K@1@V?$allocator@U?$pair@$$CBKPAU_CONNECTIONREQUEST@@@std@@@1@@Z 004174a0 f i DoS.obj
 0001:000164b0       ??$_Uninitialized_fill_n@PAPAKIPAKV?$allocator@PAK@std@@@std@@YAXPAPAKIABQAKAAV?$allocator@PAK@0@@Z 004174b0 f i DoS.obj
 0001:000164d0       ?clear@?$_Tree@V?$_Tmap_traits@KPAU_CONNECTIONREQUEST@@U?$less@K@std@@V?$allocator@U?$pair@$$CBKPAU_CONNECTIONREQUEST@@@std@@@3@$0A@@std@@@std@@QAEXXZ 004174d0 f i DoS.obj
 0001:00016500       ?find@?$_Tree@V?$_Tmap_traits@KPAU_CONNECTIONREQUEST@@U?$less@K@std@@V?$allocator@U?$pair@$$CBKPAU_CONNECTIONREQUEST@@@std@@@3@$0A@@std@@@std@@QAE?AViterator@12@ABK@Z 00417500 f i DoS.obj
 0001:00016570       ??0?$deque@KV?$allocator@K@std@@@std@@QAE@XZ 00417570 f i DoS.obj
 0001:00016590       ??1?$deque@KV?$allocator@K@std@@@std@@QAE@XZ 00417590 f i DoS.obj
 0001:000165a0       ?front@?$deque@KV?$allocator@K@std@@@std@@QAEAAKXZ 004175a0 f i DoS.obj
 0001:000165d0       ?clear@?$deque@KV?$allocator@K@std@@@std@@QAEXXZ 004175d0 f i DoS.obj
 0001:000165e0       ??Eiterator@?$_Tree@V?$_Tmap_traits@KPAU_CONNECTIONREQUEST@@U?$less@K@std@@V?$allocator@U?$pair@$$CBKPAU_CONNECTIONREQUEST@@@std@@@3@$0A@@std@@@std@@QAEAAV012@XZ 004175e0 f i DoS.obj
 0001:000165f0       ?equal_range@?$_Tree@V?$_Tmap_traits@KPAU_CONNECTIONREQUEST@@U?$less@K@std@@V?$allocator@U?$pair@$$CBKPAU_CONNECTIONREQUEST@@@std@@@3@$0A@@std@@@std@@QAE?AU?$pair@Viterator@?$_Tree@V?$_Tmap_traits@KPAU_CONNECTIONREQUEST@@U?$less@K@std@@V?$allocator@U?$pair@$$CBKPAU_CONNECTIONREQUEST@@@std@@@3@$0A@@std@@@std@@V123@@2@ABK@Z 004175f0 f i DoS.obj
 0001:00016660       ?Destroy@?$MemPooler@U_CONNECTIONREQUEST@@@@IAEXXZ 00417660 f i DoS.obj
 0001:000166d0       ?_Init@?$_Tree@V?$_Tmap_traits@KPAU_CONNECTIONREQUEST@@U?$less@K@std@@V?$allocator@U?$pair@$$CBKPAU_CONNECTIONREQUEST@@@std@@@3@$0A@@std@@@std@@IAEXXZ 004176d0 f i DoS.obj
 0001:00016700       ??0?$_Tree_val@V?$_Tmap_traits@KPAU_CONNECTIONREQUEST@@U?$less@K@std@@V?$allocator@U?$pair@$$CBKPAU_CONNECTIONREQUEST@@@std@@@3@$0A@@std@@@std@@IAE@ABU?$less@K@1@V?$allocator@U?$pair@$$CBKPAU_CONNECTIONREQUEST@@@std@@@1@@Z 00417700 f i DoS.obj
 0001:00016710       ??Eiterator@?$_Tree@V?$_Tmap_traits@KPAU_CONNECTIONREQUEST@@U?$less@K@std@@V?$allocator@U?$pair@$$CBKPAU_CONNECTIONREQUEST@@@std@@@3@$0A@@std@@@std@@QAE?AV012@H@Z 00417710 f i DoS.obj
 0001:00016730       ??$_Distance2@Viterator@?$_Tree@V?$_Tmap_traits@KPAU_CONNECTIONREQUEST@@U?$less@K@std@@V?$allocator@U?$pair@$$CBKPAU_CONNECTIONREQUEST@@@std@@@3@$0A@@std@@@std@@I@std@@YAXViterator@?$_Tree@V?$_Tmap_traits@KPAU_CONNECTIONREQUEST@@U?$less@K@std@@V?$allocator@U?$pair@$$CBKPAU_CONNECTIONREQUEST@@@std@@@3@$0A@@std@@@0@0AAIUbidirectional_iterator_tag@0@@Z 00417730 f i DoS.obj
 0001:00016760       ?Get@CDoS@@AAEPAU_CONNECTIONREQUEST@@K@Z 00417760 f   DoS.obj
 0001:00016790       ??1?$MemPooler@U_CONNECTIONREQUEST@@@@QAE@XZ 00417790 f i DoS.obj
 0001:000167c0       ??0?$_Tree@V?$_Tmap_traits@KPAU_CONNECTIONREQUEST@@U?$less@K@std@@V?$allocator@U?$pair@$$CBKPAU_CONNECTIONREQUEST@@@std@@@3@$0A@@std@@@std@@QAE@ABU?$less@K@1@ABV?$allocator@U?$pair@$$CBKPAU_CONNECTIONREQUEST@@@std@@@1@@Z 004177c0 f i DoS.obj
 0001:000167f0       ??$_Distance@Viterator@?$_Tree@V?$_Tmap_traits@KPAU_CONNECTIONREQUEST@@U?$less@K@std@@V?$allocator@U?$pair@$$CBKPAU_CONNECTIONREQUEST@@@std@@@3@$0A@@std@@@std@@I@std@@YAXViterator@?$_Tree@V?$_Tmap_traits@KPAU_CONNECTIONREQUEST@@U?$less@K@std@@V?$allocator@U?$pair@$$CBKPAU_CONNECTIONREQUEST@@@std@@@3@$0A@@std@@@0@0AAI@Z 004177f0 f i DoS.obj
 0001:00016830       ??_G?$MemPooler@U_CONNECTIONREQUEST@@@@QAEPAXI@Z 00417830 f i DoS.obj
 0001:00016850       ?_Insert@?$_Tree@V?$_Tmap_traits@KPAU_CONNECTIONREQUEST@@U?$less@K@std@@V?$allocator@U?$pair@$$CBKPAU_CONNECTIONREQUEST@@@std@@@3@$0A@@std@@@std@@IAE?AViterator@12@_NPAU_Node@?$_Tree_nod@V?$_Tmap_traits@KPAU_CONNECTIONREQUEST@@U?$less@K@std@@V?$allocator@U?$pair@$$CBKPAU_CONNECTIONREQUEST@@@std@@@3@$0A@@std@@@2@ABU?$pair@$$CBKPAU_CONNECTIONREQUEST@@@2@@Z 00417850 f i DoS.obj
 0001:00016a00       ?erase@?$_Tree@V?$_Tmap_traits@KPAU_CONNECTIONREQUEST@@U?$less@K@std@@V?$allocator@U?$pair@$$CBKPAU_CONNECTIONREQUEST@@@std@@@3@$0A@@std@@@std@@QAE?AViterator@12@V312@@Z 00417a00 f i DoS.obj
 0001:00016cc0       ?_Xlen@?$deque@KV?$allocator@K@std@@@std@@IBEXXZ 00417cc0 f i DoS.obj
 0001:00016d30       ?insert@?$_Tree@V?$_Tmap_traits@KPAU_CONNECTIONREQUEST@@U?$less@K@std@@V?$allocator@U?$pair@$$CBKPAU_CONNECTIONREQUEST@@@std@@@3@$0A@@std@@@std@@QAE?AU?$pair@Viterator@?$_Tree@V?$_Tmap_traits@KPAU_CONNECTIONREQUEST@@U?$less@K@std@@V?$allocator@U?$pair@$$CBKPAU_CONNECTIONREQUEST@@@std@@@3@$0A@@std@@@std@@_N@2@ABU?$pair@$$CBKPAU_CONNECTIONREQUEST@@@2@@Z 00417d30 f i DoS.obj
 0001:00016df0       ?erase@?$_Tree@V?$_Tmap_traits@KPAU_CONNECTIONREQUEST@@U?$less@K@std@@V?$allocator@U?$pair@$$CBKPAU_CONNECTIONREQUEST@@@std@@@3@$0A@@std@@@std@@QAE?AViterator@12@V312@0@Z 00417df0 f i DoS.obj
 0001:00016eb0       ?_Tidy@?$_Tree@V?$_Tmap_traits@KPAU_CONNECTIONREQUEST@@U?$less@K@std@@V?$allocator@U?$pair@$$CBKPAU_CONNECTIONREQUEST@@@std@@@3@$0A@@std@@@std@@IAEXXZ 00417eb0 f i DoS.obj
 0001:00016ee0       ?_Growmap@?$deque@KV?$allocator@K@std@@@std@@IAEXI@Z 00417ee0 f i DoS.obj
 0001:00017040       ??1?$_Tree@V?$_Tmap_traits@KPAU_CONNECTIONREQUEST@@U?$less@K@std@@V?$allocator@U?$pair@$$CBKPAU_CONNECTIONREQUEST@@@std@@@3@$0A@@std@@@std@@QAE@XZ 00418040 f i DoS.obj
 0001:00017070       ?erase@?$_Tree@V?$_Tmap_traits@KPAU_CONNECTIONREQUEST@@U?$less@K@std@@V?$allocator@U?$pair@$$CBKPAU_CONNECTIONREQUEST@@@std@@@3@$0A@@std@@@std@@QAEIABK@Z 00418070 f i DoS.obj
 0001:000170d0       ?push_back@?$deque@KV?$allocator@K@std@@@std@@QAEXABK@Z 004180d0 f i DoS.obj
 0001:00017150       ??1?$map@KPAU_CONNECTIONREQUEST@@U?$less@K@std@@V?$allocator@U?$pair@$$CBKPAU_CONNECTIONREQUEST@@@std@@@3@@std@@QAE@XZ 00418150 f i DoS.obj
 0001:00017180       ??1CDoS@@UAE@XZ            00418180 f   DoS.obj
 0001:00017320       ??0?$map@KPAU_CONNECTIONREQUEST@@U?$less@K@std@@V?$allocator@U?$pair@$$CBKPAU_CONNECTIONREQUEST@@@std@@@3@@std@@QAE@XZ 00418320 f i DoS.obj
 0001:00017350       ?Create@?$MemPooler@U_CONNECTIONREQUEST@@@@IAEXXZ 00418350 f i DoS.obj
 0001:000173e0       ??_ECDoS@@UAEPAXI@Z        004183e0 f i DoS.obj
 0001:000173e0       ??_GCDoS@@UAEPAXI@Z        004183e0 f i DoS.obj
 0001:00017400       ??0?$MemPooler@U_CONNECTIONREQUEST@@@@QAE@H@Z 00418400 f i DoS.obj
 0001:00017480       ?Alloc@?$MemPooler@U_CONNECTIONREQUEST@@@@QAEPAU_CONNECTIONREQUEST@@XZ 00418480 f i DoS.obj
 0001:000174c0       ??0CDoS@@QAE@XZ            004184c0 f   DoS.obj
 0001:00017580       ?Add@CDoS@@AAEXK@Z         00418580 f   DoS.obj
 0001:000176d0       ?IsDoS@CDoS@@QAEHK@Z       004186d0 f   DoS.obj
 0001:00017750       ?Free@?$MemPooler@U_CONNECTIONREQUEST2@@@@QAEHPAU_CONNECTIONREQUEST2@@@Z 00418750 f i dos2.obj
 0001:000177a0       ??0?$pair@$$CBKPAU_CONNECTIONREQUEST2@@@std@@QAE@ABKABQAU_CONNECTIONREQUEST2@@@Z 004187a0 f i dos2.obj
 0001:000177c0       ?_Isnil@?$_Tree@V?$_Tmap_traits@KPAU_CONNECTIONREQUEST2@@U?$less@K@std@@V?$allocator@U?$pair@$$CBKPAU_CONNECTIONREQUEST2@@@std@@@3@$0A@@std@@@std@@KAAADPAU_Node@?$_Tree_nod@V?$_Tmap_traits@KPAU_CONNECTIONREQUEST2@@U?$less@K@std@@V?$allocator@U?$pair@$$CBKPAU_CONNECTIONREQUEST2@@@std@@@3@$0A@@std@@@2@@Z 004187c0 f i dos2.obj
 0001:000177d0       ?_Left@?$_Tree@V?$_Tmap_traits@KPAU_CONNECTIONREQUEST2@@U?$less@K@std@@V?$allocator@U?$pair@$$CBKPAU_CONNECTIONREQUEST2@@@std@@@3@$0A@@std@@@std@@KAAAPAU_Node@?$_Tree_nod@V?$_Tmap_traits@KPAU_CONNECTIONREQUEST2@@U?$less@K@std@@V?$allocator@U?$pair@$$CBKPAU_CONNECTIONREQUEST2@@@std@@@3@$0A@@std@@@2@PAU342@@Z 004187d0 f i dos2.obj
 0001:000177e0       ?_Right@?$_Tree@V?$_Tmap_traits@KPAU_CONNECTIONREQUEST2@@U?$less@K@std@@V?$allocator@U?$pair@$$CBKPAU_CONNECTIONREQUEST2@@@std@@@3@$0A@@std@@@std@@KAAAPAU_Node@?$_Tree_nod@V?$_Tmap_traits@KPAU_CONNECTIONREQUEST2@@U?$less@K@std@@V?$allocator@U?$pair@$$CBKPAU_CONNECTIONREQUEST2@@@std@@@3@$0A@@std@@@2@PAU342@@Z 004187e0 f i dos2.obj
 0001:000177f0       ?_Lmost@?$_Tree@V?$_Tmap_traits@KPAU_CONNECTIONREQUEST2@@U?$less@K@std@@V?$allocator@U?$pair@$$CBKPAU_CONNECTIONREQUEST2@@@std@@@3@$0A@@std@@@std@@IAEAAPAU_Node@?$_Tree_nod@V?$_Tmap_traits@KPAU_CONNECTIONREQUEST2@@U?$less@K@std@@V?$allocator@U?$pair@$$CBKPAU_CONNECTIONREQUEST2@@@std@@@3@$0A@@std@@@2@XZ 004187f0 f i dos2.obj
 0001:00017800       ?_Rmost@?$_Tree@V?$_Tmap_traits@KPAU_CONNECTIONREQUEST2@@U?$less@K@std@@V?$allocator@U?$pair@$$CBKPAU_CONNECTIONREQUEST2@@@std@@@3@$0A@@std@@@std@@IAEAAPAU_Node@?$_Tree_nod@V?$_Tmap_traits@KPAU_CONNECTIONREQUEST2@@U?$less@K@std@@V?$allocator@U?$pair@$$CBKPAU_CONNECTIONREQUEST2@@@std@@@3@$0A@@std@@@2@XZ 00418800 f i dos2.obj
 0001:00017810       ?_Kfn@?$_Tmap_traits@KPAU_CONNECTIONREQUEST2@@U?$less@K@std@@V?$allocator@U?$pair@$$CBKPAU_CONNECTIONREQUEST2@@@std@@@3@$0A@@std@@SAABKABU?$pair@$$CBKPAU_CONNECTIONREQUEST2@@@2@@Z 00418810 f i dos2.obj
 0001:00017820       ??0?$allocator@U?$pair@$$CBKPAU_CONNECTIONREQUEST2@@@std@@@std@@QAE@XZ 00418820 f i dos2.obj
 0001:00017830       ??8const_iterator@?$_Tree@V?$_Tmap_traits@KPAU_CONNECTIONREQUEST2@@U?$less@K@std@@V?$allocator@U?$pair@$$CBKPAU_CONNECTIONREQUEST2@@@std@@@3@$0A@@std@@@std@@QBE_NABV012@@Z 00418830 f i dos2.obj
 0001:00017840       ?_Mynode@const_iterator@?$_Tree@V?$_Tmap_traits@KPAU_CONNECTIONREQUEST2@@U?$less@K@std@@V?$allocator@U?$pair@$$CBKPAU_CONNECTIONREQUEST2@@@std@@@3@$0A@@std@@@std@@QBEPAU_Node@?$_Tree_nod@V?$_Tmap_traits@KPAU_CONNECTIONREQUEST2@@U?$less@K@std@@V?$allocator@U?$pair@$$CBKPAU_CONNECTIONREQUEST2@@@std@@@3@$0A@@std@@@3@XZ 00418840 f i dos2.obj
 0001:00017850       ??0?$pair@Viterator@?$_Tree@V?$_Tmap_traits@KPAU_CONNECTIONREQUEST2@@U?$less@K@std@@V?$allocator@U?$pair@$$CBKPAU_CONNECTIONREQUEST2@@@std@@@3@$0A@@std@@@std@@_N@std@@QAE@ABViterator@?$_Tree@V?$_Tmap_traits@KPAU_CONNECTIONREQUEST2@@U?$less@K@std@@V?$allocator@U?$pair@$$CBKPAU_CONNECTIONREQUEST2@@@std@@@3@$0A@@std@@@1@AB_N@Z 00418850 f i dos2.obj
 0001:00017870       ?_Color@?$_Tree@V?$_Tmap_traits@KPAU_CONNECTIONREQUEST2@@U?$less@K@std@@V?$allocator@U?$pair@$$CBKPAU_CONNECTIONREQUEST2@@@std@@@3@$0A@@std@@@std@@KAAADPAU_Node@?$_Tree_nod@V?$_Tmap_traits@KPAU_CONNECTIONREQUEST2@@U?$less@K@std@@V?$allocator@U?$pair@$$CBKPAU_CONNECTIONREQUEST2@@@std@@@3@$0A@@std@@@2@@Z 00418870 f i dos2.obj
 0001:00017880       ?_Parent@?$_Tree@V?$_Tmap_traits@KPAU_CONNECTIONREQUEST2@@U?$less@K@std@@V?$allocator@U?$pair@$$CBKPAU_CONNECTIONREQUEST2@@@std@@@3@$0A@@std@@@std@@KAAAPAU_Node@?$_Tree_nod@V?$_Tmap_traits@KPAU_CONNECTIONREQUEST2@@U?$less@K@std@@V?$allocator@U?$pair@$$CBKPAU_CONNECTIONREQUEST2@@@std@@@3@$0A@@std@@@2@PAU342@@Z 00418880 f i dos2.obj
 0001:00017890       ?_Myval@?$_Tree@V?$_Tmap_traits@KPAU_CONNECTIONREQUEST2@@U?$less@K@std@@V?$allocator@U?$pair@$$CBKPAU_CONNECTIONREQUEST2@@@std@@@3@$0A@@std@@@std@@KAAAU?$pair@$$CBKPAU_CONNECTIONREQUEST2@@@2@PAU_Node@?$_Tree_nod@V?$_Tmap_traits@KPAU_CONNECTIONREQUEST2@@U?$less@K@std@@V?$allocator@U?$pair@$$CBKPAU_CONNECTIONREQUEST2@@@std@@@3@$0A@@std@@@2@@Z 00418890 f i dos2.obj
 0001:000178a0       ??0?$allocator@U?$pair@$$CBKPAU_CONNECTIONREQUEST2@@@std@@@std@@QAE@ABV01@@Z 004188a0 f i dos2.obj
 0001:000178b0       ?deallocate@?$allocator@U_Node@?$_Tree_nod@V?$_Tmap_traits@KPAU_CONNECTIONREQUEST2@@U?$less@K@std@@V?$allocator@U?$pair@$$CBKPAU_CONNECTIONREQUEST2@@@std@@@3@$0A@@std@@@std@@@std@@QAEXPAU_Node@?$_Tree_nod@V?$_Tmap_traits@KPAU_CONNECTIONREQUEST2@@U?$less@K@std@@V?$allocator@U?$pair@$$CBKPAU_CONNECTIONREQUEST2@@@std@@@3@$0A@@std@@@2@I@Z 004188b0 f i dos2.obj
 0001:000178c0       ??0const_iterator@?$_Tree@V?$_Tmap_traits@KPAU_CONNECTIONREQUEST2@@U?$less@K@std@@V?$allocator@U?$pair@$$CBKPAU_CONNECTIONREQUEST2@@@std@@@3@$0A@@std@@@std@@QAE@PAU_Node@?$_Tree_nod@V?$_Tmap_traits@KPAU_CONNECTIONREQUEST2@@U?$less@K@std@@V?$allocator@U?$pair@$$CBKPAU_CONNECTIONREQUEST2@@@std@@@3@$0A@@std@@@2@@Z 004188c0 f i dos2.obj
 0001:000178d0       ??Dconst_iterator@?$_Tree@V?$_Tmap_traits@KPAU_CONNECTIONREQUEST2@@U?$less@K@std@@V?$allocator@U?$pair@$$CBKPAU_CONNECTIONREQUEST2@@@std@@@3@$0A@@std@@@std@@QBEABU?$pair@$$CBKPAU_CONNECTIONREQUEST2@@@2@XZ 004188d0 f i dos2.obj
 0001:000178e0       ?_Min@?$_Tree@V?$_Tmap_traits@KPAU_CONNECTIONREQUEST2@@U?$less@K@std@@V?$allocator@U?$pair@$$CBKPAU_CONNECTIONREQUEST2@@@std@@@3@$0A@@std@@@std@@KAPAU_Node@?$_Tree_nod@V?$_Tmap_traits@KPAU_CONNECTIONREQUEST2@@U?$less@K@std@@V?$allocator@U?$pair@$$CBKPAU_CONNECTIONREQUEST2@@@std@@@3@$0A@@std@@@2@PAU342@@Z 004188e0 f i dos2.obj
 0001:00017900       ?_Root@?$_Tree@V?$_Tmap_traits@KPAU_CONNECTIONREQUEST2@@U?$less@K@std@@V?$allocator@U?$pair@$$CBKPAU_CONNECTIONREQUEST2@@@std@@@3@$0A@@std@@@std@@IBEAAPAU_Node@?$_Tree_nod@V?$_Tmap_traits@KPAU_CONNECTIONREQUEST2@@U?$less@K@std@@V?$allocator@U?$pair@$$CBKPAU_CONNECTIONREQUEST2@@@std@@@3@$0A@@std@@@2@XZ 00418900 f i dos2.obj
 0001:00017910       ?max_size@?$allocator@U?$pair@$$CBKPAU_CONNECTIONREQUEST2@@@std@@@std@@QBEIXZ 00418910 f i dos2.obj
 0001:00017920       ??0_Node@?$_Tree_nod@V?$_Tmap_traits@KPAU_CONNECTIONREQUEST2@@U?$less@K@std@@V?$allocator@U?$pair@$$CBKPAU_CONNECTIONREQUEST2@@@std@@@3@$0A@@std@@@std@@QAE@PAU012@00ABU?$pair@$$CBKPAU_CONNECTIONREQUEST2@@@2@D@Z 00418920 f i dos2.obj
 0001:00017960       ?_Max@?$_Tree@V?$_Tmap_traits@KPAU_CONNECTIONREQUEST2@@U?$less@K@std@@V?$allocator@U?$pair@$$CBKPAU_CONNECTIONREQUEST2@@@std@@@3@$0A@@std@@@std@@KAPAU_Node@?$_Tree_nod@V?$_Tmap_traits@KPAU_CONNECTIONREQUEST2@@U?$less@K@std@@V?$allocator@U?$pair@$$CBKPAU_CONNECTIONREQUEST2@@@std@@@3@$0A@@std@@@2@PAU342@@Z 00418960 f i dos2.obj
 0001:00017980       ??0?$_Tmap_traits@KPAU_CONNECTIONREQUEST2@@U?$less@K@std@@V?$allocator@U?$pair@$$CBKPAU_CONNECTIONREQUEST2@@@std@@@3@$0A@@std@@QAE@U?$less@K@1@@Z 00418980 f i dos2.obj
 0001:00017990       ??$_Destroy@U_Node@?$_Tree_nod@V?$_Tmap_traits@KPAU_CONNECTIONREQUEST2@@U?$less@K@std@@V?$allocator@U?$pair@$$CBKPAU_CONNECTIONREQUEST2@@@std@@@3@$0A@@std@@@std@@@std@@YAXPAU_Node@?$_Tree_nod@V?$_Tmap_traits@KPAU_CONNECTIONREQUEST2@@U?$less@K@std@@V?$allocator@U?$pair@$$CBKPAU_CONNECTIONREQUEST2@@@std@@@3@$0A@@std@@@0@@Z 00418990 f i dos2.obj
 0001:000179a0       ??$_Destroy@PAU_Node@?$_Tree_nod@V?$_Tmap_traits@KPAU_CONNECTIONREQUEST2@@U?$less@K@std@@V?$allocator@U?$pair@$$CBKPAU_CONNECTIONREQUEST2@@@std@@@3@$0A@@std@@@std@@@std@@YAXPAPAU_Node@?$_Tree_nod@V?$_Tmap_traits@KPAU_CONNECTIONREQUEST2@@U?$less@K@std@@V?$allocator@U?$pair@$$CBKPAU_CONNECTIONREQUEST2@@@std@@@3@$0A@@std@@@0@@Z 004189a0 f i dos2.obj
 0001:000179b0       ??$?0U?$pair@$$CBKPAU_CONNECTIONREQUEST2@@@std@@@?$allocator@PAU_Node@?$_Tree_nod@V?$_Tmap_traits@KPAU_CONNECTIONREQUEST2@@U?$less@K@std@@V?$allocator@U?$pair@$$CBKPAU_CONNECTIONREQUEST2@@@std@@@3@$0A@@std@@@std@@@std@@QAE@ABV?$allocator@U?$pair@$$CBKPAU_CONNECTIONREQUEST2@@@std@@@1@@Z 004189b0 f i dos2.obj
 0001:000179c0       ??$_Allocate@U_Node@?$_Tree_nod@V?$_Tmap_traits@KPAU_CONNECTIONREQUEST2@@U?$less@K@std@@V?$allocator@U?$pair@$$CBKPAU_CONNECTIONREQUEST2@@@std@@@3@$0A@@std@@@std@@@std@@YAPAU_Node@?$_Tree_nod@V?$_Tmap_traits@KPAU_CONNECTIONREQUEST2@@U?$less@K@std@@V?$allocator@U?$pair@$$CBKPAU_CONNECTIONREQUEST2@@@std@@@3@$0A@@std@@@0@IPAU120@@Z 004189c0 f i dos2.obj
 0001:000179e0       ??$?0U?$pair@$$CBKPAU_CONNECTIONREQUEST2@@@std@@@?$allocator@U_Node@?$_Tree_nod@V?$_Tmap_traits@KPAU_CONNECTIONREQUEST2@@U?$less@K@std@@V?$allocator@U?$pair@$$CBKPAU_CONNECTIONREQUEST2@@@std@@@3@$0A@@std@@@std@@@std@@QAE@ABV?$allocator@U?$pair@$$CBKPAU_CONNECTIONREQUEST2@@@std@@@1@@Z 004189e0 f i dos2.obj
 0001:000179f0       ??$_Construct@PAU_Node@?$_Tree_nod@V?$_Tmap_traits@KPAU_CONNECTIONREQUEST2@@U?$less@K@std@@V?$allocator@U?$pair@$$CBKPAU_CONNECTIONREQUEST2@@@std@@@3@$0A@@std@@@std@@PAU123@@std@@YAXPAPAU_Node@?$_Tree_nod@V?$_Tmap_traits@KPAU_CONNECTIONREQUEST2@@U?$less@K@std@@V?$allocator@U?$pair@$$CBKPAU_CONNECTIONREQUEST2@@@std@@@3@$0A@@std@@@0@ABQAU120@@Z 004189f0 f i dos2.obj
 0001:00017a10       ??1CTimer@@UAE@XZ          00418a10 f i dos2.obj
 0001:00017a20       ?IsTimeOut@CTimer@@QAEHXZ  00418a20 f i dos2.obj
 0001:00017a30       ??_ECTimer@@UAEPAXI@Z      00418a30 f i dos2.obj
 0001:00017a30       ??_GCTimer@@UAEPAXI@Z      00418a30 f i dos2.obj
 0001:00017a50       ??9const_iterator@?$_Tree@V?$_Tmap_traits@KPAU_CONNECTIONREQUEST2@@U?$less@K@std@@V?$allocator@U?$pair@$$CBKPAU_CONNECTIONREQUEST2@@@std@@@3@$0A@@std@@@std@@QBE_NABV012@@Z 00418a50 f i dos2.obj
 0001:00017a70       ?_Key@?$_Tree@V?$_Tmap_traits@KPAU_CONNECTIONREQUEST2@@U?$less@K@std@@V?$allocator@U?$pair@$$CBKPAU_CONNECTIONREQUEST2@@@std@@@3@$0A@@std@@@std@@KAABKPAU_Node@?$_Tree_nod@V?$_Tmap_traits@KPAU_CONNECTIONREQUEST2@@U?$less@K@std@@V?$allocator@U?$pair@$$CBKPAU_CONNECTIONREQUEST2@@@std@@@3@$0A@@std@@@2@@Z 00418a70 f i dos2.obj
 0001:00017a80       ?_Root@?$_Tree@V?$_Tmap_traits@KPAU_CONNECTIONREQUEST2@@U?$less@K@std@@V?$allocator@U?$pair@$$CBKPAU_CONNECTIONREQUEST2@@@std@@@3@$0A@@std@@@std@@IAEAAPAU_Node@?$_Tree_nod@V?$_Tmap_traits@KPAU_CONNECTIONREQUEST2@@U?$less@K@std@@V?$allocator@U?$pair@$$CBKPAU_CONNECTIONREQUEST2@@@std@@@3@$0A@@std@@@2@XZ 00418a80 f i dos2.obj
 0001:00017a90       ??0iterator@?$_Tree@V?$_Tmap_traits@KPAU_CONNECTIONREQUEST2@@U?$less@K@std@@V?$allocator@U?$pair@$$CBKPAU_CONNECTIONREQUEST2@@@std@@@3@$0A@@std@@@std@@QAE@PAU_Node@?$_Tree_nod@V?$_Tmap_traits@KPAU_CONNECTIONREQUEST2@@U?$less@K@std@@V?$allocator@U?$pair@$$CBKPAU_CONNECTIONREQUEST2@@@std@@@3@$0A@@std@@@2@@Z 00418a90 f i dos2.obj
 0001:00017aa0       ??Diterator@?$_Tree@V?$_Tmap_traits@KPAU_CONNECTIONREQUEST2@@U?$less@K@std@@V?$allocator@U?$pair@$$CBKPAU_CONNECTIONREQUEST2@@@std@@@3@$0A@@std@@@std@@QBEAAU?$pair@$$CBKPAU_CONNECTIONREQUEST2@@@2@XZ 00418aa0 f i dos2.obj
 0001:00017ab0       ?max_size@?$_Tree@V?$_Tmap_traits@KPAU_CONNECTIONREQUEST2@@U?$less@K@std@@V?$allocator@U?$pair@$$CBKPAU_CONNECTIONREQUEST2@@@std@@@3@$0A@@std@@@std@@QBEIXZ 00418ab0 f i dos2.obj
 0001:00017ac0       ?_Lbound@?$_Tree@V?$_Tmap_traits@KPAU_CONNECTIONREQUEST2@@U?$less@K@std@@V?$allocator@U?$pair@$$CBKPAU_CONNECTIONREQUEST2@@@std@@@3@$0A@@std@@@std@@IBEPAU_Node@?$_Tree_nod@V?$_Tmap_traits@KPAU_CONNECTIONREQUEST2@@U?$less@K@std@@V?$allocator@U?$pair@$$CBKPAU_CONNECTIONREQUEST2@@@std@@@3@$0A@@std@@@2@ABK@Z 00418ac0 f i dos2.obj
 0001:00017af0       ?_Lrotate@?$_Tree@V?$_Tmap_traits@KPAU_CONNECTIONREQUEST2@@U?$less@K@std@@V?$allocator@U?$pair@$$CBKPAU_CONNECTIONREQUEST2@@@std@@@3@$0A@@std@@@std@@IAEXPAU_Node@?$_Tree_nod@V?$_Tmap_traits@KPAU_CONNECTIONREQUEST2@@U?$less@K@std@@V?$allocator@U?$pair@$$CBKPAU_CONNECTIONREQUEST2@@@std@@@3@$0A@@std@@@2@@Z 00418af0 f i dos2.obj
 0001:00017b50       ?_Rrotate@?$_Tree@V?$_Tmap_traits@KPAU_CONNECTIONREQUEST2@@U?$less@K@std@@V?$allocator@U?$pair@$$CBKPAU_CONNECTIONREQUEST2@@@std@@@3@$0A@@std@@@std@@IAEXPAU_Node@?$_Tree_nod@V?$_Tmap_traits@KPAU_CONNECTIONREQUEST2@@U?$less@K@std@@V?$allocator@U?$pair@$$CBKPAU_CONNECTIONREQUEST2@@@std@@@3@$0A@@std@@@2@@Z 00418b50 f i dos2.obj
 0001:00017bb0       ?destroy@?$allocator@U_Node@?$_Tree_nod@V?$_Tmap_traits@KPAU_CONNECTIONREQUEST2@@U?$less@K@std@@V?$allocator@U?$pair@$$CBKPAU_CONNECTIONREQUEST2@@@std@@@3@$0A@@std@@@std@@@std@@QAEXPAU_Node@?$_Tree_nod@V?$_Tmap_traits@KPAU_CONNECTIONREQUEST2@@U?$less@K@std@@V?$allocator@U?$pair@$$CBKPAU_CONNECTIONREQUEST2@@@std@@@3@$0A@@std@@@2@@Z 00418bb0 f i dos2.obj
 0001:00017bc0       ?destroy@?$allocator@PAU_Node@?$_Tree_nod@V?$_Tmap_traits@KPAU_CONNECTIONREQUEST2@@U?$less@K@std@@V?$allocator@U?$pair@$$CBKPAU_CONNECTIONREQUEST2@@@std@@@3@$0A@@std@@@std@@@std@@QAEXPAPAU_Node@?$_Tree_nod@V?$_Tmap_traits@KPAU_CONNECTIONREQUEST2@@U?$less@K@std@@V?$allocator@U?$pair@$$CBKPAU_CONNECTIONREQUEST2@@@std@@@3@$0A@@std@@@2@@Z 00418bc0 f i dos2.obj
 0001:00017bd0       ?_Inc@const_iterator@?$_Tree@V?$_Tmap_traits@KPAU_CONNECTIONREQUEST2@@U?$less@K@std@@V?$allocator@U?$pair@$$CBKPAU_CONNECTIONREQUEST2@@@std@@@3@$0A@@std@@@std@@QAEXXZ 00418bd0 f i dos2.obj
 0001:00017c30       ?allocate@?$allocator@U_Node@?$_Tree_nod@V?$_Tmap_traits@KPAU_CONNECTIONREQUEST2@@U?$less@K@std@@V?$allocator@U?$pair@$$CBKPAU_CONNECTIONREQUEST2@@@std@@@3@$0A@@std@@@std@@@std@@QAEPAU_Node@?$_Tree_nod@V?$_Tmap_traits@KPAU_CONNECTIONREQUEST2@@U?$less@K@std@@V?$allocator@U?$pair@$$CBKPAU_CONNECTIONREQUEST2@@@std@@@3@$0A@@std@@@2@I@Z 00418c30 f i dos2.obj
 0001:00017c50       ?_Dec@const_iterator@?$_Tree@V?$_Tmap_traits@KPAU_CONNECTIONREQUEST2@@U?$less@K@std@@V?$allocator@U?$pair@$$CBKPAU_CONNECTIONREQUEST2@@@std@@@3@$0A@@std@@@std@@QAEXXZ 00418c50 f i dos2.obj
 0001:00017cb0       ??0?$_Tree_nod@V?$_Tmap_traits@KPAU_CONNECTIONREQUEST2@@U?$less@K@std@@V?$allocator@U?$pair@$$CBKPAU_CONNECTIONREQUEST2@@@std@@@3@$0A@@std@@@std@@IAE@ABU?$less@K@1@V?$allocator@U?$pair@$$CBKPAU_CONNECTIONREQUEST2@@@std@@@1@@Z 00418cb0 f i dos2.obj
 0001:00017cc0       ?construct@?$allocator@PAU_Node@?$_Tree_nod@V?$_Tmap_traits@KPAU_CONNECTIONREQUEST2@@U?$less@K@std@@V?$allocator@U?$pair@$$CBKPAU_CONNECTIONREQUEST2@@@std@@@3@$0A@@std@@@std@@@std@@QAEXPAPAU_Node@?$_Tree_nod@V?$_Tmap_traits@KPAU_CONNECTIONREQUEST2@@U?$less@K@std@@V?$allocator@U?$pair@$$CBKPAU_CONNECTIONREQUEST2@@@std@@@3@$0A@@std@@@2@ABQAU342@@Z 00418cc0 f i dos2.obj
 0001:00017ce0       ?begin@?$_Tree@V?$_Tmap_traits@KPAU_CONNECTIONREQUEST2@@U?$less@K@std@@V?$allocator@U?$pair@$$CBKPAU_CONNECTIONREQUEST2@@@std@@@3@$0A@@std@@@std@@QAE?AViterator@12@XZ 00418ce0 f i dos2.obj
 0001:00017cf0       ?end@?$_Tree@V?$_Tmap_traits@KPAU_CONNECTIONREQUEST2@@U?$less@K@std@@V?$allocator@U?$pair@$$CBKPAU_CONNECTIONREQUEST2@@@std@@@3@$0A@@std@@@std@@QAE?AViterator@12@XZ 00418cf0 f i dos2.obj
 0001:00017d00       ??Citerator@?$_Tree@V?$_Tmap_traits@KPAU_CONNECTIONREQUEST2@@U?$less@K@std@@V?$allocator@U?$pair@$$CBKPAU_CONNECTIONREQUEST2@@@std@@@3@$0A@@std@@@std@@QBEPAU?$pair@$$CBKPAU_CONNECTIONREQUEST2@@@2@XZ 00418d00 f i dos2.obj
 0001:00017d10       ?lower_bound@?$_Tree@V?$_Tmap_traits@KPAU_CONNECTIONREQUEST2@@U?$less@K@std@@V?$allocator@U?$pair@$$CBKPAU_CONNECTIONREQUEST2@@@std@@@3@$0A@@std@@@std@@QAE?AViterator@12@ABK@Z 00418d10 f i dos2.obj
 0001:00017d50       ?_Erase@?$_Tree@V?$_Tmap_traits@KPAU_CONNECTIONREQUEST2@@U?$less@K@std@@V?$allocator@U?$pair@$$CBKPAU_CONNECTIONREQUEST2@@@std@@@3@$0A@@std@@@std@@IAEXPAU_Node@?$_Tree_nod@V?$_Tmap_traits@KPAU_CONNECTIONREQUEST2@@U?$less@K@std@@V?$allocator@U?$pair@$$CBKPAU_CONNECTIONREQUEST2@@@std@@@3@$0A@@std@@@2@@Z 00418d50 f i dos2.obj
 0001:00017d90       ??Econst_iterator@?$_Tree@V?$_Tmap_traits@KPAU_CONNECTIONREQUEST2@@U?$less@K@std@@V?$allocator@U?$pair@$$CBKPAU_CONNECTIONREQUEST2@@@std@@@3@$0A@@std@@@std@@QAEAAV012@XZ 00418d90 f i dos2.obj
 0001:00017da0       ?_Buynode@?$_Tree@V?$_Tmap_traits@KPAU_CONNECTIONREQUEST2@@U?$less@K@std@@V?$allocator@U?$pair@$$CBKPAU_CONNECTIONREQUEST2@@@std@@@3@$0A@@std@@@std@@IAEPAU_Node@?$_Tree_nod@V?$_Tmap_traits@KPAU_CONNECTIONREQUEST2@@U?$less@K@std@@V?$allocator@U?$pair@$$CBKPAU_CONNECTIONREQUEST2@@@std@@@3@$0A@@std@@@2@PAU342@00ABU?$pair@$$CBKPAU_CONNECTIONREQUEST2@@@2@D@Z 00418da0 f i dos2.obj
 0001:00017de0       ??Fconst_iterator@?$_Tree@V?$_Tmap_traits@KPAU_CONNECTIONREQUEST2@@U?$less@K@std@@V?$allocator@U?$pair@$$CBKPAU_CONNECTIONREQUEST2@@@std@@@3@$0A@@std@@@std@@QAEAAV012@XZ 00418de0 f i dos2.obj
 0001:00017df0       ?_Buynode@?$_Tree@V?$_Tmap_traits@KPAU_CONNECTIONREQUEST2@@U?$less@K@std@@V?$allocator@U?$pair@$$CBKPAU_CONNECTIONREQUEST2@@@std@@@3@$0A@@std@@@std@@IAEPAU_Node@?$_Tree_nod@V?$_Tmap_traits@KPAU_CONNECTIONREQUEST2@@U?$less@K@std@@V?$allocator@U?$pair@$$CBKPAU_CONNECTIONREQUEST2@@@std@@@3@$0A@@std@@@2@XZ 00418df0 f i dos2.obj
 0001:00017e30       ??0?$_Tree_ptr@V?$_Tmap_traits@KPAU_CONNECTIONREQUEST2@@U?$less@K@std@@V?$allocator@U?$pair@$$CBKPAU_CONNECTIONREQUEST2@@@std@@@3@$0A@@std@@@std@@IAE@ABU?$less@K@1@V?$allocator@U?$pair@$$CBKPAU_CONNECTIONREQUEST2@@@std@@@1@@Z 00418e30 f i dos2.obj
 0001:00017e40       ?clear@?$_Tree@V?$_Tmap_traits@KPAU_CONNECTIONREQUEST2@@U?$less@K@std@@V?$allocator@U?$pair@$$CBKPAU_CONNECTIONREQUEST2@@@std@@@3@$0A@@std@@@std@@QAEXXZ 00418e40 f i dos2.obj
 0001:00017e70       ?find@?$_Tree@V?$_Tmap_traits@KPAU_CONNECTIONREQUEST2@@U?$less@K@std@@V?$allocator@U?$pair@$$CBKPAU_CONNECTIONREQUEST2@@@std@@@3@$0A@@std@@@std@@QAE?AViterator@12@ABK@Z 00418e70 f i dos2.obj
 0001:00017ee0       ??Eiterator@?$_Tree@V?$_Tmap_traits@KPAU_CONNECTIONREQUEST2@@U?$less@K@std@@V?$allocator@U?$pair@$$CBKPAU_CONNECTIONREQUEST2@@@std@@@3@$0A@@std@@@std@@QAEAAV012@XZ 00418ee0 f i dos2.obj
 0001:00017ef0       ?Destroy@?$MemPooler@U_CONNECTIONREQUEST2@@@@IAEXXZ 00418ef0 f i dos2.obj
 0001:00017f60       ??Fiterator@?$_Tree@V?$_Tmap_traits@KPAU_CONNECTIONREQUEST2@@U?$less@K@std@@V?$allocator@U?$pair@$$CBKPAU_CONNECTIONREQUEST2@@@std@@@3@$0A@@std@@@std@@QAEAAV012@XZ 00418f60 f i dos2.obj
 0001:00017f70       ?_Init@?$_Tree@V?$_Tmap_traits@KPAU_CONNECTIONREQUEST2@@U?$less@K@std@@V?$allocator@U?$pair@$$CBKPAU_CONNECTIONREQUEST2@@@std@@@3@$0A@@std@@@std@@IAEXXZ 00418f70 f i dos2.obj
 0001:00017fa0       ??0?$_Tree_val@V?$_Tmap_traits@KPAU_CONNECTIONREQUEST2@@U?$less@K@std@@V?$allocator@U?$pair@$$CBKPAU_CONNECTIONREQUEST2@@@std@@@3@$0A@@std@@@std@@IAE@ABU?$less@K@1@V?$allocator@U?$pair@$$CBKPAU_CONNECTIONREQUEST2@@@std@@@1@@Z 00418fa0 f i dos2.obj
 0001:00017fb0       ??Eiterator@?$_Tree@V?$_Tmap_traits@KPAU_CONNECTIONREQUEST2@@U?$less@K@std@@V?$allocator@U?$pair@$$CBKPAU_CONNECTIONREQUEST2@@@std@@@3@$0A@@std@@@std@@QAE?AV012@H@Z 00418fb0 f i dos2.obj
 0001:00017fd0       ?Get@CDos2@@AAEPAU_CONNECTIONREQUEST2@@K@Z 00418fd0 f   dos2.obj
 0001:00018000       ?Release@CDos2@@AAEXXZ     00419000 f   dos2.obj
 0001:00018080       ??1?$MemPooler@U_CONNECTIONREQUEST2@@@@QAE@XZ 00419080 f i dos2.obj
 0001:000180b0       ??0?$_Tree@V?$_Tmap_traits@KPAU_CONNECTIONREQUEST2@@U?$less@K@std@@V?$allocator@U?$pair@$$CBKPAU_CONNECTIONREQUEST2@@@std@@@3@$0A@@std@@@std@@QAE@ABU?$less@K@1@ABV?$allocator@U?$pair@$$CBKPAU_CONNECTIONREQUEST2@@@std@@@1@@Z 004190b0 f i dos2.obj
 0001:000180e0       ??_G?$MemPooler@U_CONNECTIONREQUEST2@@@@QAEPAXI@Z 004190e0 f i dos2.obj
 0001:00018100       ?_Insert@?$_Tree@V?$_Tmap_traits@KPAU_CONNECTIONREQUEST2@@U?$less@K@std@@V?$allocator@U?$pair@$$CBKPAU_CONNECTIONREQUEST2@@@std@@@3@$0A@@std@@@std@@IAE?AViterator@12@_NPAU_Node@?$_Tree_nod@V?$_Tmap_traits@KPAU_CONNECTIONREQUEST2@@U?$less@K@std@@V?$allocator@U?$pair@$$CBKPAU_CONNECTIONREQUEST2@@@std@@@3@$0A@@std@@@2@ABU?$pair@$$CBKPAU_CONNECTIONREQUEST2@@@2@@Z 00419100 f i dos2.obj
 0001:000182b0       ?erase@?$_Tree@V?$_Tmap_traits@KPAU_CONNECTIONREQUEST2@@U?$less@K@std@@V?$allocator@U?$pair@$$CBKPAU_CONNECTIONREQUEST2@@@std@@@3@$0A@@std@@@std@@QAE?AViterator@12@V312@@Z 004192b0 f i dos2.obj
 0001:00018570       ?insert@?$_Tree@V?$_Tmap_traits@KPAU_CONNECTIONREQUEST2@@U?$less@K@std@@V?$allocator@U?$pair@$$CBKPAU_CONNECTIONREQUEST2@@@std@@@3@$0A@@std@@@std@@QAE?AU?$pair@Viterator@?$_Tree@V?$_Tmap_traits@KPAU_CONNECTIONREQUEST2@@U?$less@K@std@@V?$allocator@U?$pair@$$CBKPAU_CONNECTIONREQUEST2@@@std@@@3@$0A@@std@@@std@@_N@2@ABU?$pair@$$CBKPAU_CONNECTIONREQUEST2@@@2@@Z 00419570 f i dos2.obj
 0001:00018630       ?erase@?$_Tree@V?$_Tmap_traits@KPAU_CONNECTIONREQUEST2@@U?$less@K@std@@V?$allocator@U?$pair@$$CBKPAU_CONNECTIONREQUEST2@@@std@@@3@$0A@@std@@@std@@QAE?AViterator@12@V312@0@Z 00419630 f i dos2.obj
 0001:000186f0       ?_Tidy@?$_Tree@V?$_Tmap_traits@KPAU_CONNECTIONREQUEST2@@U?$less@K@std@@V?$allocator@U?$pair@$$CBKPAU_CONNECTIONREQUEST2@@@std@@@3@$0A@@std@@@std@@IAEXXZ 004196f0 f i dos2.obj
 0001:00018720       ??1?$_Tree@V?$_Tmap_traits@KPAU_CONNECTIONREQUEST2@@U?$less@K@std@@V?$allocator@U?$pair@$$CBKPAU_CONNECTIONREQUEST2@@@std@@@3@$0A@@std@@@std@@QAE@XZ 00419720 f i dos2.obj
 0001:00018750       ?Create@?$MemPooler@U_CONNECTIONREQUEST2@@@@IAEXXZ 00419750 f i dos2.obj
 0001:000187e0       ??1?$map@KPAU_CONNECTIONREQUEST2@@U?$less@K@std@@V?$allocator@U?$pair@$$CBKPAU_CONNECTIONREQUEST2@@@std@@@3@@std@@QAE@XZ 004197e0 f i dos2.obj
 0001:00018810       ??1CDos2@@UAE@XZ           00419810 f   dos2.obj
 0001:00018990       ??0?$map@KPAU_CONNECTIONREQUEST2@@U?$less@K@std@@V?$allocator@U?$pair@$$CBKPAU_CONNECTIONREQUEST2@@@std@@@3@@std@@QAE@XZ 00419990 f i dos2.obj
 0001:000189c0       ??0?$MemPooler@U_CONNECTIONREQUEST2@@@@QAE@H@Z 004199c0 f i dos2.obj
 0001:00018a40       ?Alloc@?$MemPooler@U_CONNECTIONREQUEST2@@@@QAEPAU_CONNECTIONREQUEST2@@XZ 00419a40 f i dos2.obj
 0001:00018a80       ??0CDos2@@QAE@XZ           00419a80 f   dos2.obj
 0001:00018b50       ??_GCDos2@@UAEPAXI@Z       00419b50 f i dos2.obj
 0001:00018b50       ??_ECDos2@@UAEPAXI@Z       00419b50 f i dos2.obj
 0001:00018b70       ?Add@CDos2@@AAEXK@Z        00419b70 f   dos2.obj
 0001:00018bf0       ?IsOver@CDos2@@QAEHK@Z     00419bf0 f   dos2.obj
 0001:00018ca0       ??1CHeapMng@@UAE@XZ        00419ca0 f   heapmng.obj
 0001:00018cc0       ?Malloc@CHeapMng@@QAEPAXI@Z 00419cc0 f   heapmng.obj
 0001:00018ce0       ?Free@CHeapMng@@QAEXPAX@Z  00419ce0 f   heapmng.obj
 0001:00018d00       ?Realloc@CHeapMng@@QAEPAXPAXI@Z 00419d00 f   heapmng.obj
 0001:00018d20       ??0CHeapMng@@QAE@XZ        00419d20 f   heapmng.obj
 0001:00018d50       ??_GCHeapMng@@UAEPAXI@Z    00419d50 f i heapmng.obj
 0001:00018d50       ??_ECHeapMng@@UAEPAXI@Z    00419d50 f i heapmng.obj
 0001:00018d80       ?FindKey@CMyTrace@@AAEHK@Z 00419d80 f   mytrace.obj
 0001:00018e20       ?Key@CMyTrace@@SAKPBD@Z    00419e20 f   mytrace.obj
 0001:00018ea0       ?TextOutA@CMyTrace@@AAEXPAUHDC__@@HHPBDH@Z 00419ea0 f   mytrace.obj
 0001:00018f10       ?GetText@CMyTrace@@QAEXKPAD@Z 00419f10 f   mytrace.obj
 0001:00018f40       ??0CMyTrace@@QAE@XZ        00419f40 f   mytrace.obj
 0001:00018f90       ??1CMyTrace@@UAE@XZ        00419f90 f   mytrace.obj
 0001:00018fd0       ?Add@CMyTrace@@QAAXKHPBDZZ 00419fd0 f   mytrace.obj
 0001:000191a0       ?AddLine@CMyTrace@@QAEXD@Z 0041a1a0 f   mytrace.obj
 0001:00019210       ?Paint@CMyTrace@@QAEXPAUHDC__@@@Z 0041a210 f   mytrace.obj
 0001:000194a0       ??_ECMyTrace@@UAEPAXI@Z    0041a4a0 f i mytrace.obj
 0001:000194a0       ??_GCMyTrace@@UAEPAXI@Z    0041a4a0 f i mytrace.obj
 0001:000194c0       ?OUTPUTDEBUGSTRING@@YAXPBDZZ 0041a4c0 f   debug.obj
 0001:00019530       __tcsrchr                  0041a530 f i debug.obj
 0001:00019540       ?MakeFileNameDate@@YAPBDPBD@Z 0041a540 f   debug.obj
 0001:000197a0       ?DEBUGOUT2@@YAXPBD0@Z      0041a7a0 f   debug.obj
 0001:00019800       ?FILEOUT@@YAXPBD0ZZ        0041a800 f   debug.obj
 0001:00019820       ?WriteLog@@YAXPBDZZ        0041a820 f   debug.obj
 0001:00019840       ?WriteError@@YAXPBDZZ      0041a840 f   debug.obj
 0001:00019860       ?Close@CFileIO@@UAEHXZ     0041a860 f   file.obj
 0001:00019890       ?Open@CFileIO@@UAEHPBDPAD@Z 0041a890 f   file.obj
 0001:000198c0       ?Read@CFileIO@@UAEPAXXZ    0041a8c0 f   file.obj
 0001:00019920       ??0CFileFinder@@QAE@XZ     0041a920 f   file.obj
 0001:00019930       ??1CFileFinder@@QAE@XZ     0041a930 f   file.obj
 0001:00019940       ?WildCmp@CFileFinder@@QAEHPBD0@Z 0041a940 f   file.obj
 0001:000199e0       ?FindFirst@CFileFinder@@QAEHPBDPAU_finddata_t@@@Z 0041a9e0 f   file.obj
 0001:00019a10       ?FindNext@CFileFinder@@QAEHPAU_finddata_t@@@Z 0041aa10 f   file.obj
 0001:00019a30       ?FindClose@CFileFinder@@QAEXXZ 0041aa30 f   file.obj
 0001:00019a50       ?_mbstowcsz@ATL@@YAHPAGPBDK@Z 0041aa50 f i file.obj
 0001:00019aa0       ?Write@CFileIO@@QAEIPAXII@Z 0041aaa0 f i file.obj
 0001:00019ac0       ?PutWideString@CFileIO@@QAEHPBD@Z 0041aac0 f   file.obj
 0001:00019b60       ??1CRijndael@@UAE@XZ       0041ab60 f   Rijndael.obj
 0001:00019b70       ?MakeKey@CRijndael@@QAEXPBD0HH@Z 0041ab70 f   Rijndael.obj
 0001:00019fe0       ?DefEncryptBlock@CRijndael@@AAEXPBDPAD@Z 0041afe0 f   Rijndael.obj
 0001:0001a370       ?DefDecryptBlock@CRijndael@@AAEXPBDPAD@Z 0041b370 f   Rijndael.obj
 0001:0001a6e0       ?EncryptBlock@CRijndael@@QAEXPBDPAD@Z 0041b6e0 f   Rijndael.obj
 0001:0001a9e0       ?DecryptBlock@CRijndael@@QAEXPBDPAD@Z 0041b9e0 f   Rijndael.obj
 0001:0001acf0       ?Xor@CRijndael@@AAEXPADPBD@Z 0041bcf0 f i Rijndael.obj
 0001:0001ad50       ??0CRijndael@@QAE@XZ       0041bd50 f   Rijndael.obj
 0001:0001b1d0       ??_ECRijndael@@UAEPAXI@Z   0041c1d0 f i Rijndael.obj
 0001:0001b1d0       ??_GCRijndael@@UAEPAXI@Z   0041c1d0 f i Rijndael.obj
 0001:0001b1f0       ?Encrypt@CRijndael@@QAEXPBDPADIH@Z 0041c1f0 f   Rijndael.obj
 0001:0001b3b0       ?Decrypt@CRijndael@@QAEXPBDPADIH@Z 0041c3b0 f   Rijndael.obj
 0001:0001b590       ?GetInstance@CRijndael@@SAPAV1@XZ 0041c590 f   Rijndael.obj
 0001:0001b5f0       ?GetTime@CTimer@@QAENXZ    0041c5f0 f   timer.obj
 0001:0001b610       ?Set@CTimer@@QAEXMH@Z      0041c610 f   timer.obj
 0001:0001b650       ?Reset@CTimer@@UAEXXZ      0041c650 f   timer.obj
 0001:0001b690       ?Over@CTimer@@UAEHXZ       0041c690 f   timer.obj
 0001:0001b6f0       ?GetLeftTime@CTimer@@QAENXZ 0041c6f0 f   timer.obj
 0001:0001b720       ?GetInterval@CTimer@@QAEMXZ 0041c720 f   timer.obj
 0001:0001b730       ??RCTimer@@QAEXXZ          0041c730 f   timer.obj
 0001:0001b740       ??RCTimer@@QAEXN@Z         0041c740 f   timer.obj
 0001:0001b790       ?GetSunPercent@CGameTimer@@QAEHXZ 0041c790 f   timer.obj
 0001:0001b810       ?GetMoonPercent@CGameTimer@@QAEHXZ 0041c810 f   timer.obj
 0001:0001b820       ??1CGameTimer@@QAE@XZ      0041c820 f   timer.obj
 0001:0001b830       ?SetCurrentTime@CGameTimer@@QAEXN@Z 0041c830 f   timer.obj
 0001:0001b860       ?GetTickCount@CGameTimer@@QAENXZ 0041c860 f   timer.obj
 0001:0001b890       ?SetCurrentTime@CGameTimer@@QAEXHH@Z 0041c890 f   timer.obj
 0001:0001b8d0       ?Compute@CGameTimer@@QAEXXZ 0041c8d0 f   timer.obj
 0001:0001b940       ?SetTime@CGameTimer@@QAEXHHHH@Z 0041c940 f   timer.obj
 0001:0001b960       ?Set@CSkipTimer@@QAEXM@Z   0041c960 f   timer.obj
 0001:0001b9a0       ?Over@CSkipTimer@@UAEHXZ   0041c9a0 f   timer.obj
 0001:0001ba10       ?IsNeedSkip@CSkipTimer@@QAEHXZ 0041ca10 f   timer.obj
 0001:0001ba50       ?Skip@CSkipTimer@@QAEXXZ   0041ca50 f   timer.obj
 0001:0001ba60       ?IsMaxSkip@CSkipTimer@@QAEHXZ 0041ca60 f   timer.obj
 0001:0001bac0       ?IsNight@CDate@@QAEHXZ     0041cac0 f   timer.obj
 0001:0001bae0       ?GetDay@CDate@@QAEHXZ      0041cae0 f   timer.obj
 0001:0001bb00       ?ComputeShade@CDate@@QAEHH@Z 0041cb00 f   timer.obj
 0001:0001bb60       ?GetTimeColor@CDate@@QAEXPAUtagTIMECOLOR@@@Z 0041cb60 f   timer.obj
 0001:0001bc10       ?Process@CDate@@QAEXXZ     0041cc10 f   timer.obj
 0001:0001bc90       ?InitFST@@YAXXZ            0041cc90 f   timer.obj
 0001:0001bcb0       ?SetFrameSkip@@YAXH@Z      0041ccb0 f   timer.obj
 0001:0001bce0       ?GetFrameSkip@@YAHXZ       0041cce0 f   timer.obj
 0001:0001bd30       ?IsDrawTiming@@YAHXZ       0041cd30 f   timer.obj
 0001:0001bd90       ?SetFST@@YAXXZ             0041cd90 f   timer.obj
 0001:0001be20       ??1CSkipTimer@@UAE@XZ      0041ce20 f i timer.obj
 0001:0001be30       ??0CTimer@@QAE@XZ          0041ce30 f   timer.obj
 0001:0001be70       ??0CTimer@@QAE@M@Z         0041ce70 f   timer.obj
 0001:0001beb0       ??0CTimer@@QAE@MH@Z        0041ceb0 f   timer.obj
 0001:0001bf00       ??0CGameTimer@@QAE@XZ      0041cf00 f   timer.obj
 0001:0001bf50       ??0CGameTimer@@QAE@N@Z     0041cf50 f   timer.obj
 0001:0001bfa0       ??1CDate@@QAE@XZ           0041cfa0 f   timer.obj
 0001:0001bfb0       ??0CSkipTimer@@QAE@XZ      0041cfb0 f i timer.obj
 0001:0001bff0       ??_GCSkipTimer@@UAEPAXI@Z  0041cff0 f i timer.obj
 0001:0001bff0       ??_ECSkipTimer@@UAEPAXI@Z  0041cff0 f i timer.obj
 0001:0001c010       ??0CDate@@QAE@XZ           0041d010 f   timer.obj
 0001:0001c070       ??0CDate@@QAE@HHHHHHH@Z    0041d070 f   timer.obj
 0001:0001c110       ?GetCharLen@@YAHPBD@Z      0041d110 f   vutil.obj
 0001:0001c120       ?GetStrCut@@YAHPBDPADH@Z   0041d120 f   vutil.obj
 0001:0001c170       ?GetStrLen@@YAHPBD@Z       0041d170 f   vutil.obj
 0001:0001c1b0       ?CopyChar@@YAHPBDPAD@Z     0041d1b0 f   vutil.obj
 0001:0001c1f0       ?IsMultiByte@@YAHPBD@Z     0041d1f0 f   vutil.obj
 0001:0001c220       ?IsHangul@@YAHG@Z          0041d220 f   vutil.obj
 0001:0001c270       ?SetStrNull@@YAXPADH@Z     0041d270 f   vutil.obj
 0001:0001c2d0       ?isdigit2@@YAHD@Z          0041d2d0 f i vutil.obj
 0001:0001c2f0       ?IsNative@@YAHPBD@Z        0041d2f0 f   vutil.obj
 0001:0001c3b0       ??A?$CSimpleStringT@D$0A@@ATL@@QBEDH@Z 0041d3b0 f i vutil.obj
 0001:0001c3d0       ??4?$CSimpleStringT@D$0A@@ATL@@QAEAAV01@ABV01@@Z 0041d3d0 f i vutil.obj
 0001:0001c440       ??4?$CStringT@DV?$StrTraitMFC@DV?$ChTraitsCRT@D@ATL@@@@@ATL@@QAEAAV01@ABV01@@Z 0041d440 f i vutil.obj
 0001:0001c460       ?SetStrNull@@YAXAAV?$CStringT@DV?$StrTraitMFC@DV?$ChTraitsCRT@D@ATL@@@@@ATL@@H@Z 0041d460 f   vutil.obj
 0001:0001c550       ?xRandomF@@YAMM@Z          0041d550 f   xutil.obj
 0001:0001c570       ?xSRand@@YAXK@Z            0041d570 f   xutil.obj
 0001:0001c580       ?Error@@YAPBDPBDZZ         0041d580 f   xutil.obj
 0001:0001c640       ?GetFileName@@YAXPBDPAD@Z  0041d640 f   xutil.obj
 0001:0001c690       ?GetFileTitle@@YAXPBDPAD@Z 0041d690 f   xutil.obj
 0001:0001c6d0       ?GetFileExt@@YAXPBDPAD@Z   0041d6d0 f   xutil.obj
 0001:0001c710       ?GetFilePath@@YAXPBDPAD@Z  0041d710 f   xutil.obj
 0001:0001c760       ?StringFind@@YAHPBDH@Z     0041d760 f   xutil.obj
 0001:0001c780       ?MakeEven@@YAXAAJ@Z        0041d780 f   xutil.obj
 0001:0001c790       ?SetLanguageInfo@@YAXHH@Z  0041d790 f   xutil.obj
 0001:0001c7b0       ?GetLanguage@@YAHXZ        0041d7b0 f   xutil.obj
 0001:0001c7c0       ?GetSubLanguage@@YAHXZ     0041d7c0 f   xutil.obj
 0001:0001c7d0       ?SetUse2ndPassWord@@YAXH@Z 0041d7d0 f   xutil.obj
 0001:0001c7e0       ?IsUse2ndPassWord@@YAHXZ   0041d7e0 f   xutil.obj
 0001:0001c7f0       __tcsinc                   0041d7f0 f i xutil.obj
 0001:0001c800       ?xRand@@YAKXZ              0041d800 f i xutil.obj
 0001:0001c820       ?xRandom@@YAKK@Z           0041d820 f i xutil.obj
 0001:0001c840       ?xRandom@@YAKKK@Z          0041d840 f   xutil.obj
 0001:0001c880       ?StringTrimRight@@YAXPAD@Z 0041d880 f   xutil.obj
 0001:0001c8d0       ?Insert@?$CStringT@DV?$StrTraitMFC@DV?$ChTraitsCRT@D@ATL@@@@@ATL@@QAEHHD@Z 0041d8d0 f i xutil.obj
 0001:0001c950       ?GetNumberFormatEx@@YA?AV?$CStringT@DV?$StrTraitMFC@DV?$ChTraitsCRT@D@ATL@@@@@ATL@@PBD@Z 0041d950 f   xutil.obj
 0001:0001cb50       ?DXUtil_GetDXSDKMediaPathCch@@YAJPADH@Z 0041db50 f   dxutil.obj
 0001:0001cc40       ?DXUtil_WriteStringRegKey@@YAJPAUHKEY__@@PAD1@Z 0041dc40 f   dxutil.obj
 0001:0001cc80       ?DXUtil_ReadIntRegKey@@YAJPAUHKEY__@@PADPAKK@Z 0041dc80 f   dxutil.obj
 0001:0001cce0       ?DXUtil_WriteIntRegKey@@YAJPAUHKEY__@@PADK@Z 0041dce0 f   dxutil.obj
 0001:0001cd10       ?DXUtil_ReadBoolRegKey@@YAJPAUHKEY__@@PADPAHH@Z 0041dd10 f   dxutil.obj
 0001:0001cd70       ?DXUtil_WriteBoolRegKey@@YAJPAUHKEY__@@PADH@Z 0041dd70 f   dxutil.obj
 0001:0001cda0       ?DXUtil_ReadGuidRegKey@@YAJPAUHKEY__@@PADPAU_GUID@@AAU2@@Z 0041dda0 f   dxutil.obj
 0001:0001ce10       ?DXUtil_WriteGuidRegKey@@YAJPAUHKEY__@@PADU_GUID@@@Z 0041de10 f   dxutil.obj
 0001:0001ce70       ?DXUtil_Timer@@YGMW4TIMER_COMMAND@@@Z 0041de70 f   dxutil.obj
 0001:0001d240       __tcsncpy                  0041e240 f i dxutil.obj
 0001:0001d250       ?DXUtil_ConvertAnsiStringToWideCch@@YAJPAGPBDH@Z 0041e250 f   dxutil.obj
 0001:0001d2a0       ?DXUtil_ConvertWideStringToAnsiCch@@YAJPADPBGH@Z 0041e2a0 f   dxutil.obj
 0001:0001d2f0       ?DXUtil_ConvertGenericStringToAnsiCch@@YAJPADPBDH@Z 0041e2f0 f   dxutil.obj
 0001:0001d330       ?DXUtil_ConvertGenericStringToWideCch@@YAJPAGPBDH@Z 0041e330 f   dxutil.obj
 0001:0001d360       ?DXUtil_ConvertAnsiStringToGenericCch@@YAJPADPBDH@Z 0041e360 f   dxutil.obj
 0001:0001d3a0       ?DXUtil_ConvertWideStringToGenericCch@@YAJPADPBGH@Z 0041e3a0 f   dxutil.obj
 0001:0001d3d0       ?DXUtil_LaunchReadme@@YAXPAUHWND__@@PAD@Z 0041e3d0 f   dxutil.obj
 0001:0001d750       ?DXUtil_Trace@@YAXPADZZ    0041e750 f   dxutil.obj
 0001:0001d760       ?DXUtil_ConvertStringToGUID@@YAJPBDPAU_GUID@@@Z 0041e760 f   dxutil.obj
 0001:0001d820       ?DXUtil_ConvertGUIDToStringCch@@YAJPBU_GUID@@PADH@Z 0041e820 f   dxutil.obj
 0001:0001d890       ??0CArrayList@@QAE@W4ArrayListType@@I@Z 0041e890 f   dxutil.obj
 0001:0001d8c0       ??1CArrayList@@QAE@XZ      0041e8c0 f   dxutil.obj
 0001:0001d8d0       ?Add@CArrayList@@QAEJPAX@Z 0041e8d0 f   dxutil.obj
 0001:0001d9c0       ?Remove@CArrayList@@QAEXI@Z 0041e9c0 f   dxutil.obj
 0001:0001da00       ?GetPtr@CArrayList@@QAEPAXI@Z 0041ea00 f   dxutil.obj
 0001:0001da20       ?Contains@CArrayList@@QAE_NPAX@Z 0041ea20 f   dxutil.obj
 0001:0001da70       ?DXUtil_ConvertAnsiStringToWideCb@@YAJPAGPBDH@Z 0041ea70 f   dxutil.obj
 0001:0001dac0       ?DXUtil_ConvertWideStringToAnsiCb@@YAJPADPBGH@Z 0041eac0 f   dxutil.obj
 0001:0001db10       ?DXUtil_ConvertGenericStringToAnsiCb@@YAJPADPBDH@Z 0041eb10 f   dxutil.obj
 0001:0001db50       ?DXUtil_ConvertGenericStringToWideCb@@YAJPAGPBDH@Z 0041eb50 f   dxutil.obj
 0001:0001db90       ?DXUtil_ConvertAnsiStringToGenericCb@@YAJPADPBDH@Z 0041eb90 f   dxutil.obj
 0001:0001dbd0       ?DXUtil_ConvertWideStringToGenericCb@@YAJPADPBGH@Z 0041ebd0 f   dxutil.obj
 0001:0001dc00       ?DXUtil_ConvertGUIDToStringCb@@YAJPBU_GUID@@PADH@Z 0041ec00 f   dxutil.obj
 0001:0001dc10       ?DXUtil_GetDXSDKMediaPathCb@@YAJPADH@Z 0041ec10 f   dxutil.obj
 0001:0001dc20       ?DXUtil_FindMediaFileCch@@YAJPADH0@Z 0041ec20 f   dxutil.obj
 0001:0001dde0       ?DXUtil_ReadStringRegKeyCch@@YAJPAUHKEY__@@PAD1K1@Z 0041ede0 f   dxutil.obj
 0001:0001de40       ?DXUtil_ReadStringRegKeyCb@@YAJPAUHKEY__@@PAD1K1@Z 0041ee40 f   dxutil.obj
 0001:0001de50       ?DXUtil_FindMediaFileCb@@YAJPADH0@Z 0041ee50 f   dxutil.obj
 0001:0001de60       ?iswhite@@YAHG@Z           0041ee60 f i scanner.obj
 0001:0001de80       ?isdelim@@YAHG@Z           0041ee80 f i scanner.obj
 0001:0001dec0       ?IsComposibleTh@@YA_NEEH@Z 0041eec0 f   scanner.obj
 0001:0001df00       ?CharNextTh@@YAPBDPBD@Z    0041ef00 f   scanner.obj
 0001:0001df70       ?CharNextVt@@YAPBDPBD@Z    0041ef70 f   scanner.obj
 0001:0001dfd0       ?CharNextEx@@YAPBDPBDG@Z   0041efd0 f   scanner.obj
 0001:0001e020       ?IsTone@@YAHG@Z            0041f020 f   scanner.obj
 0001:0001e050       ?ComposeTone@@YAGGH@Z      0041f050 f   scanner.obj
 0001:0001e090       ?GetTone@@YA_NGPAH0@Z      0041f090 f   scanner.obj
 0001:0001e0f0       ?ComposeString@@YAXPAG0H@Z 0041f0f0 f   scanner.obj
 0001:0001e170       ?DecomposeString@@YAXPAG0H@Z 0041f170 f   scanner.obj
 0001:0001e1f0       ?IsCyrillic@@YAHD@Z        0041f1f0 f   scanner.obj
 0001:0001e210       ?WideCharToMultiByteEx@@YAHIKPBGHPADHPBDPAH@Z 0041f210 f   scanner.obj
 0001:0001e310       ?MultiByteToWideCharEx@@YAHIKPBDHPAGH@Z 0041f310 f   scanner.obj
 0001:0001e3b0       ?Free@CScanner@@QAEXXZ     0041f3b0 f   scanner.obj
 0001:0001e3e0       ?Read@CScanner@@IAEHPAVCFileIO@@H@Z 0041f3e0 f   scanner.obj
 0001:0001e4a0       ?SetProg@CScanner@@QAEXPAX@Z 0041f4a0 f   scanner.obj
 0001:0001e4c0       ?GetLineNum@CScanner@@UAEHPAX@Z 0041f4c0 f   scanner.obj
 0001:0001e4f0       ?PutBack@CScanner@@UAEXXZ  0041f4f0 f   scanner.obj
 0001:0001e520       ?StringLowercase@?$ChTraitsCRT@D@ATL@@SAPADPAD@Z 0041f520 f i scanner.obj
 0001:0001e530       ??0CFileIO@@QAE@XZ         0041f530 f i scanner.obj
 0001:0001e540       ??1CFileIO@@UAE@XZ         0041f540 f i scanner.obj
 0001:0001e550       ?Flush@CFileIO@@UAEHXZ     0041f550 f i scanner.obj
 0001:0001e560       ?GetC@CFileIO@@UAEDXZ      0041f560 f i scanner.obj
 0001:0001e570       ?GetW@CFileIO@@UAEGXZ      0041f570 f i scanner.obj
 0001:0001e580       ?GetDW@CFileIO@@UAEKXZ     0041f580 f i scanner.obj
 0001:0001e5a0       ?Tell@CFileIO@@UAEJXZ      0041f5a0 f i scanner.obj
 0001:0001e5b0       ?Seek@CFileIO@@UAEHJH@Z    0041f5b0 f i scanner.obj
 0001:0001e5d0       ?Read@CFileIO@@UAEIPAXII@Z 0041f5d0 f i scanner.obj
 0001:0001e5f0       ??_ECFileIO@@UAEPAXI@Z     0041f5f0 f i scanner.obj
 0001:0001e5f0       ??_GCFileIO@@UAEPAXI@Z     0041f5f0 f i scanner.obj
 0001:0001e620       ?GetFormattedLength@?$ChTraitsCRT@D@ATL@@SAHPBDPAD@Z 0041f620 f i scanner.obj
 0001:0001e630       ?Format@?$ChTraitsCRT@D@ATL@@SAHPADPBD0@Z 0041f630 f i scanner.obj
 0001:0001e640       ?GetLength@CFileIO@@UAEJXZ 0041f640 f i scanner.obj
 0001:0001e660       ?IsEmpty@?$CSimpleStringT@D$0A@@ATL@@QBE_NXZ 0041f660 f i scanner.obj
 0001:0001e670       ??0CScanner@@QAE@H@Z       0041f670 f   scanner.obj
 0001:0001e6e0       ?SetMark@CScanner@@UAEXXZ  0041f6e0 f i scanner.obj
 0001:0001e6f0       ?GoMark@CScanner@@UAEXXZ   0041f6f0 f i scanner.obj
 0001:0001e700       ??0CScanner@@QAE@PAXH@Z    0041f700 f   scanner.obj
 0001:0001e770       ??1CScanner@@UAE@XZ        0041f770 f   scanner.obj
 0001:0001e7e0       ?GetInt64@CScanner@@QAE_JH@Z 0041f7e0 f   scanner.obj
 0001:0001e8b0       ?GetFloat@CScanner@@QAEMH@Z 0041f8b0 f   scanner.obj
 0001:0001e950       ??_ECScanner@@UAEPAXI@Z    0041f950 f i scanner.obj
 0001:0001e950       ??_GCScanner@@UAEPAXI@Z    0041f950 f i scanner.obj
 0001:0001e970       ?MakeLower@?$CStringT@DV?$StrTraitMFC@DV?$ChTraitsCRT@D@ATL@@@@@ATL@@QAEAAV12@XZ 0041f970 f i scanner.obj
 0001:0001e9d0       ?FormatV@?$CStringT@DV?$StrTraitMFC@DV?$ChTraitsCRT@D@ATL@@@@@ATL@@QAEXPBDPAD@Z 0041f9d0 f i scanner.obj
 0001:0001ea50       ?GetNumber@CScanner@@QAEHH@Z 0041fa50 f   scanner.obj
 0001:0001eba0       ?GetHex@CScanner@@QAEKH@Z  0041fba0 f   scanner.obj
 0001:0001ec50       ?GetSerialNumber@CScanner@@QAEKH@Z 0041fc50 f   scanner.obj
 0001:0001ec60       ?Format@?$CStringT@DV?$StrTraitMFC@DV?$ChTraitsCRT@D@ATL@@@@@ATL@@QAAXPBDZZ 0041fc60 f i scanner.obj
 0001:0001ec80       ?GetLastFull@CScanner@@QAEXXZ 0041fc80 f   scanner.obj
 0001:0001ed30       ?GetToken@CScanner@@UAEHH@Z 0041fd30 f   scanner.obj
 0001:0001f430       ?Load@CScanner@@QAEHPBDH@Z 00420430 f   scanner.obj
 0001:0001f570       ?Load_FileIO@CScanner@@QAEHPBDH@Z 00420570 f   scanner.obj
 0001:0001f6b0       _des_main_ks               004206b0 f   des.obj
 0001:0001fad0       _des_set_key               00420ad0 f   des.obj
 0001:0001fb10       _des_crypt                 00420b10 f   des.obj
 0001:000205a0       _des_encrypt               004215a0 f   des.obj
 0001:000205b0       _des_decrypt               004215b0 f   des.obj
 0001:000205d0       _des3_set_2keys            004215d0 f   des.obj
 0001:00020660       _des3_set_3keys            00421660 f   des.obj
 0001:000206f0       _des3_crypt                004216f0 f   des.obj
 0001:000223e0       _des3_encrypt              004233e0 f   des.obj
 0001:000223f0       _des3_decrypt              004233f0 f   des.obj
 0001:00022410       ?Decrpyt@@YAXPAEPAD@Z      00423410 f   Query.obj
 0001:00022480       ?GetPWDFromToken@@YAHPBDPAD@Z 00423480 f   Query.obj
 0001:00022530       ??0CQuery@@QAE@XZ          00423530 f   Query.obj
 0001:00022570       ??1CQuery@@QAE@XZ          00423570 f   Query.obj
 0001:000225f0       ?DisConnect@CQuery@@QAEXXZ 004235f0 f   Query.obj
 0001:00022660       ?EnableConnectionPooling@CQuery@@SAHXZ 00423660 f   Query.obj
 0001:00022680       ?BindParameter@CQuery@@QAEHGFFFKFPAXJPAJ@Z 00423680 f   Query.obj
 0001:000226f0       ?Fetch@CQuery@@QAEHXZ      004236f0 f   Query.obj
 0001:00022790       ?Clear@CQuery@@QAEXXZ      00423790 f   Query.obj
 0001:000227b0       ?FindCol@CQuery@@AAEHPAD@Z 004237b0 f   Query.obj
 0001:00022810       ?GetInt@CQuery@@QAEHH@Z    00423810 f   Query.obj
 0001:00022850       ?GetInt@CQuery@@QAEHPAD@Z  00423850 f   Query.obj
 0001:000228a0       ?GetInt64@CQuery@@QAE_JH@Z 004238a0 f   Query.obj
 0001:000228f0       ?GetInt64@CQuery@@QAE_JPAD@Z 004238f0 f   Query.obj
 0001:00022940       ?GetFloat@CQuery@@QAEMH@Z  00423940 f   Query.obj
 0001:00022980       ?GetFloat@CQuery@@QAEMPAD@Z 00423980 f   Query.obj
 0001:000229e0       ?GetChar@CQuery@@QAEDH@Z   004239e0 f   Query.obj
 0001:00022a10       ?GetChar@CQuery@@QAEDPAD@Z 00423a10 f   Query.obj
 0001:00022a50       ?GetStr@CQuery@@QAEXHPAD@Z 00423a50 f   Query.obj
 0001:00022ac0       ?GetStr@CQuery@@QAEXPAD0@Z 00423ac0 f   Query.obj
 0001:00022b00       ?WriteBlob@CQuery@@QAEXPBDPAXH@Z 00423b00 f   Query.obj
 0001:00022c60       ?WriteLogFile@CQuery@@QAAXPADZZ 00423c60 f   Query.obj
 0001:00022d30       ?PrepareFetch@CQuery@@QAEHXZ 00423d30 f   Query.obj
 0001:00022e20       ?PrintDiag@CQuery@@QAEXPBDF@Z 00423e20 f   Query.obj
 0001:00022f00       ?ReadBlob@CQuery@@QAEHPBDPAX@Z 00423f00 f   Query.obj
 0001:00023080       ?Connect@CQuery@@QAEHHPAD0PBD@Z 00424080 f   Query.obj
 0001:00023240       ?Exec@CQuery@@QAEHPBD@Z    00424240 f   Query.obj
 0001:000232f0       ?MoreResults@CQuery@@QAEHXZ 004242f0 f   Query.obj
 0001:00023330       ?Exec@CQuery@@QAEHPBDHQAUQUERY_BINDINFO@@@Z 00424330 f   Query.obj
 0001:000233e0       ?Execute@CQuery@@QAAHPBDZZ 004243e0 f   Query.obj
 0001:00023470       ?_AddErrorMsg@@YAXPBD0@Z   00424470 f   exceptionhandler.obj
 0001:00023520       ?CrashHandlerExceptionFilter@@YGJPAU_EXCEPTION_POINTERS@@@Z 00424520 f   exceptionhandler.obj
 0001:00023780       ?InitEH@@YAXXZ             00424780 f   exceptionhandler.obj
 0001:000237b4       _SQLDisconnect@4           004247b4 f   odbc32:ODBC32.dll
 0001:000237ba       _SQLFreeHandle@8           004247ba f   odbc32:ODBC32.dll
 0001:000237c0       _SQLSetEnvAttr@16          004247c0 f   odbc32:ODBC32.dll
 0001:000237c6       _SQLBindParameter@40       004247c6 f   odbc32:ODBC32.dll
 0001:000237cc       _SQLFetch@4                004247cc f   odbc32:ODBC32.dll
 0001:000237d2       _SQLFreeStmt@8             004247d2 f   odbc32:ODBC32.dll
 0001:000237d8       _SQLCloseCursor@4          004247d8 f   odbc32:ODBC32.dll
 0001:000237de       _SQLPutData@12             004247de f   odbc32:ODBC32.dll
 0001:000237e4       _SQLParamData@8            004247e4 f   odbc32:ODBC32.dll
 0001:000237ea       _SQLExecDirect@12          004247ea f   odbc32:ODBC32.dll
 0001:000237f0       _SQLDescribeCol@36         004247f0 f   odbc32:ODBC32.dll
 0001:000237f6       _SQLBindCol@24             004247f6 f   odbc32:ODBC32.dll
 0001:000237fc       _SQLNumResultCols@8        004247fc f   odbc32:ODBC32.dll
 0001:00023802       _SQLGetDiagRec@32          00424802 f   odbc32:ODBC32.dll
 0001:00023808       _SQLGetData@24             00424808 f   odbc32:ODBC32.dll
 0001:0002380e       _SQLDriverConnect@32       0042480e f   odbc32:ODBC32.dll
 0001:00023814       _SQLConnect@28             00424814 f   odbc32:ODBC32.dll
 0001:0002381a       _SQLAllocHandle@12         0042481a f   odbc32:ODBC32.dll
 0001:00023820       _SQLMoreResults@4          00424820 f   odbc32:ODBC32.dll
 0001:00023826       _ntohs@4                   00424826 f   ws2_32:WS2_32.dll
 0001:0002382c       _htons@4                   0042482c f   ws2_32:WS2_32.dll
 0001:00023832       _closesocket@4             00424832 f   ws2_32:WS2_32.dll
 0001:00023838       _shutdown@8                00424838 f   ws2_32:WS2_32.dll
 0001:0002383e       _WSASetLastError@4         0042483e f   ws2_32:WS2_32.dll
 0001:00023844       _WSAGetLastError@0         00424844 f   ws2_32:WS2_32.dll
 0001:0002384a       _connect@12                0042484a f   ws2_32:WS2_32.dll
 0001:00023850       _gethostbyname@4           00424850 f   ws2_32:WS2_32.dll
 0001:00023856       _inet_addr@4               00424856 f   ws2_32:WS2_32.dll
 0001:0002385c       _WSARecv@28                0042485c f   ws2_32:WS2_32.dll
 0001:00023862       _getpeername@12            00424862 f   ws2_32:WS2_32.dll
 0001:00023868       _WSASend@28                00424868 f   ws2_32:WS2_32.dll
 0001:0002386e       _WSACloseEvent@4           0042486e f   ws2_32:WS2_32.dll
 0001:00023874       _WSACreateEvent@0          00424874 f   ws2_32:WS2_32.dll
 0001:0002387a       _WSAStartup@8              0042487a f   ws2_32:WS2_32.dll
 0001:00023880       _socket@12                 00424880 f   ws2_32:WS2_32.dll
 0001:00023886       _WSACleanup@0              00424886 f   ws2_32:WS2_32.dll
 0001:0002388c       _WSAResetEvent@4           0042488c f   ws2_32:WS2_32.dll
 0001:00023892       _WSAWaitForMultipleEvents@20 00424892 f   ws2_32:WS2_32.dll
 0001:00023898       _WSASetEvent@4             00424898 f   ws2_32:WS2_32.dll
 0001:0002389e       _setsockopt@20             0042489e f   ws2_32:WS2_32.dll
 0001:000238a4       _listen@8                  004248a4 f   ws2_32:WS2_32.dll
 0001:000238aa       _WSAEventSelect@12         004248aa f   ws2_32:WS2_32.dll
 0001:000238b0       _WSAAccept@20              004248b0 f   ws2_32:WS2_32.dll
 0001:000238b6       _WSAEnumNetworkEvents@12   004248b6 f   ws2_32:WS2_32.dll
 0001:000238bc       _gethostname@8             004248bc f   ws2_32:WS2_32.dll
 0001:000238c2       _bind@12                   004248c2 f   ws2_32:WS2_32.dll
 0001:000238c8       _htonl@4                   004248c8 f   ws2_32:WS2_32.dll
 0001:000238ce       _WSASocketA@24             004248ce f   ws2_32:WS2_32.dll
 0001:000238d4       _timeGetTime@0             004248d4 f   winmm:WINMM.dll
 0001:000238da       _InterlockedExchange@8     004248da f   kernel32:KERNEL32.dll
 0001:000238e0       _GetACP@0                  004248e0 f   kernel32:KERNEL32.dll
 0001:000238e6       _GetLocaleInfoA@16         004248e6 f   kernel32:KERNEL32.dll
 0001:000238ec       _GetThreadLocale@0         004248ec f   kernel32:KERNEL32.dll
 0001:000238f2       _GetVersionExA@4           004248f2 f   kernel32:KERNEL32.dll
 0001:000238f8       _SizeofResource@8          004248f8 f   kernel32:KERNEL32.dll
 0001:000238fe       _LockResource@4            004248fe f   kernel32:KERNEL32.dll
 0001:00023904       _LoadResource@8            00424904 f   kernel32:KERNEL32.dll
 0001:0002390a       _FindResourceA@12          0042490a f   kernel32:KERNEL32.dll
 0001:00023910       _SetEvent@4                00424910 f   kernel32:KERNEL32.dll
 0001:00023916       _WideCharToMultiByte@32    00424916 f   kernel32:KERNEL32.dll
 0001:0002391c       _OpenEventA@12             0042491c f   kernel32:KERNEL32.dll
 0001:00023922       _CreateEventA@16           00424922 f   kernel32:KERNEL32.dll
 0001:00023928       _CloseHandle@4             00424928 f   kernel32:KERNEL32.dll
 0001:0002392e       _InitializeCriticalSection@4 0042492e f   kernel32:KERNEL32.dll
 0001:00023934       _DeleteCriticalSection@4   00424934 f   kernel32:KERNEL32.dll
 0001:0002393a       _EnterCriticalSection@4    0042493a f   kernel32:KERNEL32.dll
 0001:00023940       _LeaveCriticalSection@4    00424940 f   kernel32:KERNEL32.dll
 0001:00023946       _PostQueuedCompletionStatus@16 00424946 f   kernel32:KERNEL32.dll
 0001:0002394c       _lstrcmpA@8                0042494c f   kernel32:KERNEL32.dll
 0001:00023952       _lstrcpyA@8                00424952 f   kernel32:KERNEL32.dll
 0001:00023958       _OutputDebugStringA@4      00424958 f   kernel32:KERNEL32.dll
 0001:0002395e       _lstrlenA@4                0042495e f   kernel32:KERNEL32.dll
 0001:00023964       _GetQueuedCompletionStatus@20 00424964 f   kernel32:KERNEL32.dll
 0001:0002396a       _WaitForMultipleObjects@16 0042496a f   kernel32:KERNEL32.dll
 0001:00023970       _WaitForSingleObject@8     00424970 f   kernel32:KERNEL32.dll
 0001:00023976       _CreateIoCompletionPort@16 00424976 f   kernel32:KERNEL32.dll
 0001:0002397c       _GetTickCount@0            0042497c f   kernel32:KERNEL32.dll
 0001:00023982       _MultiByteToWideChar@24    00424982 f   kernel32:KERNEL32.dll
 0001:00023988       _GetLastError@0            00424988 f   kernel32:KERNEL32.dll
 0001:0002398e       _GetVersion@0              0042498e f   kernel32:KERNEL32.dll
 0001:00023994       _lstrcmpiA@8               00424994 f   kernel32:KERNEL32.dll
 0001:0002399a       _lstrlenW@4                0042499a f   kernel32:KERNEL32.dll
 0001:000239a0       _lstrcmpiW@8               004249a0 f   kernel32:KERNEL32.dll
 0001:000239a6       _CompareStringA@24         004249a6 f   kernel32:KERNEL32.dll
 0001:000239ac       _CompareStringW@24         004249ac f   kernel32:KERNEL32.dll
 0001:000239b2       _GetEnvironmentVariableA@12 004249b2 f   kernel32:KERNEL32.dll
 0001:000239b8       _GetEnvironmentVariableW@12 004249b8 f   kernel32:KERNEL32.dll
 0001:000239be       _GetStringTypeExA@20       004249be f   kernel32:KERNEL32.dll
 0001:000239c4       _GetStringTypeExW@20       004249c4 f   kernel32:KERNEL32.dll
 0001:000239ca       _TerminateProcess@8        004249ca f   kernel32:KERNEL32.dll
 0001:000239d0       _GetExitCodeProcess@8      004249d0 f   kernel32:KERNEL32.dll
 0001:000239d6       _OpenProcess@12            004249d6 f   kernel32:KERNEL32.dll
 0001:000239dc       _Process32Next@8           004249dc f   kernel32:KERNEL32.dll
 0001:000239e2       _Process32First@8          004249e2 f   kernel32:KERNEL32.dll
 0001:000239e8       _CreateToolhelp32Snapshot@8 004249e8 f   kernel32:KERNEL32.dll
 0001:000239ee       _VirtualAlloc@16           004249ee f   kernel32:KERNEL32.dll
 0001:000239f4       _InitializeCriticalSectionAndSpinCount@8 004249f4 f   kernel32:KERNEL32.dll
 0001:000239fa       _InterlockedDecrement@4    004249fa f   kernel32:KERNEL32.dll
 0001:00023a00       _InterlockedIncrement@4    00424a00 f   kernel32:KERNEL32.dll
 0001:00023a06       _SetThreadPriority@8       00424a06 f   kernel32:KERNEL32.dll
 0001:00023a0c       _VirtualFree@12            00424a0c f   kernel32:KERNEL32.dll
 0001:00023a12       _GetSystemInfo@4           00424a12 f   kernel32:KERNEL32.dll
 0001:00023a18       _GetOverlappedResult@16    00424a18 f   kernel32:KERNEL32.dll
 0001:00023a1e       _HeapDestroy@4             00424a1e f   kernel32:KERNEL32.dll
 0001:00023a24       _HeapAlloc@12              00424a24 f   kernel32:KERNEL32.dll
 0001:00023a2a       _HeapFree@12               00424a2a f   kernel32:KERNEL32.dll
 0001:00023a30       _HeapReAlloc@16            00424a30 f   kernel32:KERNEL32.dll
 0001:00023a36       _HeapCreate@12             00424a36 f   kernel32:KERNEL32.dll
 0001:00023a3c       _GetLocalTime@4            00424a3c f   kernel32:KERNEL32.dll
 0001:00023a42       _IsDBCSLeadByte@4          00424a42 f   kernel32:KERNEL32.dll
 0001:00023a48       _QueryPerformanceCounter@4 00424a48 f   kernel32:KERNEL32.dll
 0001:00023a4e       _QueryPerformanceFrequency@4 00424a4e f   kernel32:KERNEL32.dll
 0001:00023a54       _FreeLibrary@4             00424a54 f   kernel32:KERNEL32.dll
 0001:00023a5a       _GetProcAddress@8          00424a5a f   kernel32:KERNEL32.dll
 0001:00023a60       _LoadLibraryA@4            00424a60 f   kernel32:KERNEL32.dll
 0001:00023a66       _lstrcatA@8                00424a66 f   kernel32:KERNEL32.dll
 0001:00023a6c       _GetModuleFileNameA@12     00424a6c f   kernel32:KERNEL32.dll
 0001:00023a72       _GetFileAttributesA@4      00424a72 f   kernel32:KERNEL32.dll
 0001:00023a78       _CreateFileA@28            00424a78 f   kernel32:KERNEL32.dll
 0001:00023a7e       _lstrcpynA@12              00424a7e f   kernel32:KERNEL32.dll
 0001:00023a84       _GetFullPathNameA@16       00424a84 f   kernel32:KERNEL32.dll
 0001:00023a8a       _GetCurrentThreadId@0      00424a8a f   kernel32:KERNEL32.dll
 0001:00023a90       _SetUnhandledExceptionFilter@4 00424a90 f   kernel32:KERNEL32.dll
 0001:00023a96       _SetErrorMode@4            00424a96 f   kernel32:KERNEL32.dll
 0001:00023a9c       _LoadStringA@16            00424a9c f   user32:USER32.dll
 0001:00023aa2       _DestroyWindow@4           00424aa2 f   user32:USER32.dll
 0001:00023aa8       _DefWindowProcA@16         00424aa8 f   user32:USER32.dll
 0001:00023aae       _PostQuitMessage@4         00424aae f   user32:USER32.dll
 0001:00023ab4       _KillTimer@8               00424ab4 f   user32:USER32.dll
 0001:00023aba       _EndPaint@8                00424aba f   user32:USER32.dll
 0001:00023ac0       _BeginPaint@8              00424ac0 f   user32:USER32.dll
 0001:00023ac6       _RegisterClassExA@4        00424ac6 f   user32:USER32.dll
 0001:00023acc       _LoadCursorA@8             00424acc f   user32:USER32.dll
 0001:00023ad2       _LoadIconA@8               00424ad2 f   user32:USER32.dll
 0001:00023ad8       _SetTimer@16               00424ad8 f   user32:USER32.dll
 0001:00023ade       _UpdateWindow@4            00424ade f   user32:USER32.dll
 0001:00023ae4       _ShowWindow@8              00424ae4 f   user32:USER32.dll
 0001:00023aea       _SetWindowPos@28           00424aea f   user32:USER32.dll
 0001:00023af0       _CreateWindowExA@48        00424af0 f   user32:USER32.dll
 0001:00023af6       _DispatchMessageA@4        00424af6 f   user32:USER32.dll
 0001:00023afc       _TranslateMessage@4        00424afc f   user32:USER32.dll
 0001:00023b02       _GetMessageA@16            00424b02 f   user32:USER32.dll
 0001:00023b08       _wsprintfA                 00424b08 f   user32:USER32.dll
 0001:00023b0e       _CharLowerA@4              00424b0e f   user32:USER32.dll
 0001:00023b14       _CharLowerW@4              00424b14 f   user32:USER32.dll
 0001:00023b1a       _CharUpperA@4              00424b1a f   user32:USER32.dll
 0001:00023b20       _CharUpperW@4              00424b20 f   user32:USER32.dll
 0001:00023b26       _InvalidateRect@12         00424b26 f   user32:USER32.dll
 0001:00023b2c       _CharNextA@4               00424b2c f   user32:USER32.dll
 0001:00023b32       _MessageBoxA@16            00424b32 f   user32:USER32.dll
 0001:00023b38       _CharNextExA@12            00424b38 f   user32:USER32.dll
 0001:00023b3e       _CreateFontA@56            00424b3e f   gdi32:GDI32.dll
 0001:00023b44       _TextOutA@20               00424b44 f   gdi32:GDI32.dll
 0001:00023b4a       _SetTextColor@8            00424b4a f   gdi32:GDI32.dll
 0001:00023b50       _SetBkMode@8               00424b50 f   gdi32:GDI32.dll
 0001:00023b56       _DeleteObject@4            00424b56 f   gdi32:GDI32.dll
 0001:00023b5c       _SetBkColor@8              00424b5c f   gdi32:GDI32.dll
 0001:00023b62       _SelectObject@8            00424b62 f   gdi32:GDI32.dll
 0001:00023b68       _RegCloseKey@4             00424b68 f   advapi32:ADVAPI32.dll
 0001:00023b6e       _RegQueryValueExA@24       00424b6e f   advapi32:ADVAPI32.dll
 0001:00023b74       _RegOpenKeyExA@20          00424b74 f   advapi32:ADVAPI32.dll
 0001:00023b7a       _RegSetValueExA@24         00424b7a f   advapi32:ADVAPI32.dll
 0001:00023b80       _GetNextStackTraceString@8 00424b80 f   neuzd:NeuzD.dll
 0001:00023b86       _GetFirstStackTraceString@8 00424b86 f   neuzd:NeuzD.dll
 0001:00023b8c       _GetRegisterString@4       00424b8c f   neuzd:NeuzD.dll
 0001:00023b92       _GetFaultReason@4          00424b92 f   neuzd:NeuzD.dll
 0001:00023b98       ?AtlA2WHelper@@YGPA_WPA_WPBDHI@Z 00424b98 f i nafxcw:olemisc.obj
 0001:00023bcf       ?AtlW2AHelper@@YGPADPADPB_WHI@Z 00424bcf f i nafxcw:olemisc.obj
 0001:00023c07       ?ocslen@@YAHPB_W@Z         00424c07 f i nafxcw:olemisc.obj
 0001:00023c12       ?ocscpy@@YAPA_WPA_WPB_W@Z  00424c12 f i nafxcw:olemisc.obj
 0001:00023c32       ??1CObject@@UAE@XZ         00424c32 f i nafxcw:olemisc.obj
 0001:00023c33       ??3CObject@@SGXPAX@Z       00424c33 f i nafxcw:olemisc.obj
 0001:00023c40       ??2CObject@@SGPAXI@Z       00424c40 f i nafxcw:olemisc.obj
 0001:00023c4d       ??1CException@@UAE@XZ      00424c4d f i nafxcw:olemisc.obj
 0001:00023c4e       ?AfxGetAppName@@YGPBDXZ    00424c4e f i nafxcw:olemisc.obj
 0001:00023c57       ??0COleException@@QAE@XZ   00424c57 f i nafxcw:olemisc.obj
 0001:00023c6d       ?Serialize@CObject@@UAEXAAVCArchive@@@Z 00424c6d f i nafxcw:olemisc.obj
 0001:00023c70       ?GetBaseTypeLength@?$ChTraitsCRT@D@ATL@@SAHPB_WH@Z 00424c70 f i nafxcw:olemisc.obj
 0001:00023c8d       ?ConvertToBaseType@?$ChTraitsCRT@D@ATL@@SAXPADHPB_WH@Z 00424c8d f i nafxcw:olemisc.obj
 0001:00023cb0       ?AtlDevModeA2W@@YAPAU_devicemodeW@@PAU1@PBU_devicemodeA@@@Z 00424cb0 f i nafxcw:olemisc.obj
 0001:00023d4e       ?AtlDevModeW2A@@YGPAU_devicemodeA@@PAU1@PBU_devicemodeW@@@Z 00424d4e f i nafxcw:olemisc.obj
 0001:00023dee       ??_GCOleException@@UAEPAXI@Z 00424dee f i nafxcw:olemisc.obj
 0001:00023dee       ??_ECOleException@@UAEPAXI@Z 00424dee f i nafxcw:olemisc.obj
 0001:00023e0a       ??1COleException@@UAE@XZ   00424e0a f i nafxcw:olemisc.obj
 0001:00023e11       ?AppendChar@?$CSimpleStringT@D$0A@@ATL@@QAEXD@Z 00424e11 f i nafxcw:olemisc.obj
 0001:00023e39       ?Append@?$CSimpleStringT@D$0A@@ATL@@QAEXPBDH@Z 00424e39 f i nafxcw:olemisc.obj
 0001:00023e85       ??Y?$CSimpleStringT@D$0A@@ATL@@QAEAAV01@D@Z 00424e85 f i nafxcw:olemisc.obj
 0001:00023e97       ??Y?$CStringT@DV?$StrTraitMFC@DV?$ChTraitsCRT@D@ATL@@@@@ATL@@QAEAAV01@D@Z 00424e97 f i nafxcw:olemisc.obj
 0001:00023ea9       ??0CObject@@IAE@XZ         00424ea9 f i nafxcw:except.obj
 0001:00023eac       ??1CSimpleException@@UAE@XZ 00424eac f i nafxcw:except.obj
 0001:00023ead       ??1CMemoryException@@UAE@XZ 00424ead f i nafxcw:except.obj
 0001:00023eb4       ??1CNotSupportedException@@UAE@XZ 00424eb4 f i nafxcw:except.obj
 0001:00023ebb       ??1CInvalidArgException@@UAE@XZ 00424ebb f i nafxcw:except.obj
 0001:00023ec2       ??0CSimpleException@@QAE@H@Z 00424ec2 f i nafxcw:except.obj
 0001:00023eda       ??_ECMemoryException@@UAEPAXI@Z 00424eda f i nafxcw:except.obj
 0001:00023eda       ??_GCMemoryException@@UAEPAXI@Z 00424eda f i nafxcw:except.obj
 0001:00023ef6       ??0CMemoryException@@QAE@HI@Z 00424ef6 f i nafxcw:except.obj
 0001:00023f18       ??_ECNotSupportedException@@UAEPAXI@Z 00424f18 f i nafxcw:except.obj
 0001:00023f18       ??_GCNotSupportedException@@UAEPAXI@Z 00424f18 f i nafxcw:except.obj
 0001:00023f34       ??0CNotSupportedException@@QAE@HI@Z 00424f34 f i nafxcw:except.obj
 0001:00023f56       ??_GCInvalidArgException@@UAEPAXI@Z 00424f56 f i nafxcw:except.obj
 0001:00023f56       ??_ECInvalidArgException@@UAEPAXI@Z 00424f56 f i nafxcw:except.obj
 0001:00023f72       ??0CInvalidArgException@@QAE@HI@Z 00424f72 f i nafxcw:except.obj
 0001:00023f94       __tcschr                   00424f94 f i nafxcw:winstr.obj
 0001:00023f99       ?AfxGetResourceHandle@@YGPAUHINSTANCE__@@XZ 00424f99 f i nafxcw:winstr.obj
 0001:00023fa2       ?GetBufferSetLength@?$CSimpleStringT@D$0A@@ATL@@QAEPADH@Z 00424fa2 f i nafxcw:winstr.obj
 0001:00023fc3       ??0CNilStringData@ATL@@QAE@XZ 00424fc3 f i nafxcw:strcore.obj
 0001:00023fdf       ?SetManager@CNilStringData@ATL@@QAEXPAUIAtlStringMgr@2@@Z 00424fdf f i nafxcw:strcore.obj
 0001:00023fe8       ?GetBaseTypeLength@?$ChTraitsCRT@_W@ATL@@SAHPBD@Z 00424fe8 f i nafxcw:strcore.obj
 0001:00024002       ?ConvertToBaseType@?$ChTraitsCRT@_W@ATL@@SAXPA_WHPBDH@Z 00425002 f i nafxcw:strcore.obj
 0001:00024022       ?IsStoring@CArchive@@QBEHXZ 00425022 f i nafxcw:strcore.obj
 0001:0002402b       ??1CComBSTR@ATL@@QAE@XZ    0042502b f i nafxcw:strcore.obj
 0001:00024034       ?Length@CComBSTR@ATL@@QBEIXZ 00425034 f i nafxcw:strcore.obj
 0001:00024043       ?Copy@CComBSTR@ATL@@QBEPA_WXZ 00425043 f i nafxcw:strcore.obj
 0001:00024060       ??7CComBSTR@ATL@@QBE_NXZ   00425060 f i nafxcw:strcore.obj
 0001:00024068       ??B?$CTempBuffer@_W$0IA@VCCRTAllocator@ATL@@@ATL@@QBEPA_WXZ 00425068 f i nafxcw:strcore.obj
 0001:0002406b       ?GetBaseTypeLength@?$ChTraitsCRT@D@ATL@@SAHPB_W@Z 0042506b f i nafxcw:strcore.obj
 0001:00024087       ?FreeHeap@?$CTempBuffer@_W$0IA@VCCRTAllocator@ATL@@@ATL@@AAEXXZ 00425087 f i nafxcw:strcore.obj
 0001:00024090       ?AllocateHeap@?$CTempBuffer@_W$0IA@VCCRTAllocator@ATL@@@ATL@@AAEXI@Z 00425090 f i nafxcw:strcore.obj
 0001:000240b1       ??0CComBSTR@ATL@@QAE@ABV01@@Z 004250b1 f i nafxcw:strcore.obj
 0001:000240dc       ??1?$CTempBuffer@_W$0IA@VCCRTAllocator@ATL@@@ATL@@QAE@XZ 004250dc f i nafxcw:strcore.obj
 0001:000240e9       ?AllocateBytes@?$CTempBuffer@_W$0IA@VCCRTAllocator@ATL@@@ATL@@QAEPA_WI@Z 004250e9 f i nafxcw:strcore.obj
 0001:0002410c       ?Allocate@?$CTempBuffer@_W$0IA@VCCRTAllocator@ATL@@@ATL@@QAEPA_WI@Z 0042510c f i nafxcw:strcore.obj
 0001:0002411b       ??4?$CStringT@DV?$StrTraitMFC@DV?$ChTraitsCRT@D@ATL@@@@@ATL@@QAEAAV01@PB_W@Z 0042511b f i nafxcw:strcore.obj
 0001:00024165       ?AfxGetApp@@YGPAVCWinApp@@XZ 00425165 f i nafxcw:appui1.obj
 0001:0002416e       ?AfxGetMainWnd@@YGPAVCWnd@@XZ 0042516e f i nafxcw:appui1.obj
 0001:00024181       ?GetSafeHwnd@CWnd@@QBEPAUHWND__@@XZ 00425181 f i nafxcw:appui1.obj
 0001:0002418c       __tcspbrk                  0042518c f i nafxcw:inet.obj
 0001:00024191       ??0CTime@ATL@@QAE@ABU_SYSTEMTIME@@H@Z 00425191 f i nafxcw:inet.obj
 0001:000241e9       ??0CTime@ATL@@QAE@ABU_FILETIME@@H@Z 004251e9 f i nafxcw:inet.obj
 0001:00024247       ?SetAt@CMapPtrToPtr@@QAEXPAX0@Z 00425247 f i nafxcw:inet.obj
 0001:00024259       ?Init@CCriticalSection@@AAEHXZ 00425259 f i nafxcw:inet.obj
 0001:0002428f       ??0CCriticalSection@@QAE@XZ 0042528f f i nafxcw:inet.obj
 0001:000242d0       ?Unlock@CSyncObject@@UAEHJPAJ@Z 004252d0 f i nafxcw:inet.obj
 0001:000242d6       ??1CCriticalSection@@UAE@XZ 004252d6 f i nafxcw:inet.obj
 0001:000242f1       ?Lock@CCriticalSection@@QAEHXZ 004252f1 f i nafxcw:inet.obj
 0001:00024324       ?Lock@CCriticalSection@@UAEHK@Z 00425324 f i nafxcw:inet.obj
 0001:0002432c       ?Unlock@CCriticalSection@@UAEHXZ 0042532c f i nafxcw:inet.obj
 0001:0002433a       ?GetContext@CInternetSession@@QBEKXZ 0042533a f i nafxcw:inet.obj
 0001:0002433e       ?GetSession@CInternetConnection@@QBEPAVCInternetSession@@XZ 0042533e f i nafxcw:inet.obj
 0001:00024342       ??BCInternetSession@@QBEPAXXZ 00425342 f i nafxcw:inet.obj
 0001:00024346       ??BCInternetConnection@@QBEPAXXZ 00425346 f i nafxcw:inet.obj
 0001:0002434a       ?GetContext@CInternetConnection@@QBEKXZ 0042534a f i nafxcw:inet.obj
 0001:0002434e       ??_ECCriticalSection@@UAEPAXI@Z 0042534e f i nafxcw:inet.obj
 0001:0002434e       ??_GCCriticalSection@@UAEPAXI@Z 0042534e f i nafxcw:inet.obj
 0001:0002436a       ??BCGopherLocator@@QBEPBDXZ 0042536a f i nafxcw:inet.obj
 0001:0002436e       ?GetServerName@CInternetConnection@@QBE?AV?$CStringT@DV?$StrTraitMFC@DV?$ChTraitsCRT@D@ATL@@@@@ATL@@XZ 0042536e f i nafxcw:inet.obj
 0001:00024389       ??_GCGopherLocator@@UAEPAXI@Z 00425389 f i nafxcw:inet.obj
 0001:00024389       ??_ECGopherLocator@@UAEPAXI@Z 00425389 f i nafxcw:inet.obj
 0001:000243a5       ?Append@?$CSimpleStringT@D$0A@@ATL@@QAEXABV12@@Z 004253a5 f i nafxcw:inet.obj
 0001:000243b7       ??0CGopherLocator@@QAE@ABV0@@Z 004253b7 f i nafxcw:inet.obj
 0001:00024405       ?SetFilePath@CFile@@UAEXPBD@Z 00425405 f i nafxcw:inet.obj
 0001:0002441a       ?_AtlRaiseException@ATL@@YAXKK@Z 0042541a f i nafxcw:objcore.obj
 0001:0002442d       ??0CComCriticalSection@ATL@@QAE@XZ 0042542d f i nafxcw:objcore.obj
 0001:00024441       ?Init@CComCriticalSection@ATL@@QAEJXZ 00425441 f i nafxcw:objcore.obj
 0001:00024491       ?Term@CComCriticalSection@ATL@@QAEJXZ 00425491 f i nafxcw:objcore.obj
 0001:0002449b       ?GetModuleInstance@CAtlBaseModule@ATL@@QAEPAUHINSTANCE__@@XZ 0042549b f i nafxcw:objcore.obj
 0001:0002449f       ?lstrcmpiWFake@ATL@@YGHPB_W0@Z 0042549f f i nafxcw:objcore.obj
 0001:0002451b       ?lstrcmpiWThunk@ATL@@YGHPB_W0@Z 0042551b f i nafxcw:objcore.obj
 0001:00024539       ?CharLowerWFake@ATL@@YGPA_WPA_W@Z 00425539 f i nafxcw:objcore.obj
 0001:000245c1       ?CharLowerWThunk@ATL@@YGPA_WPA_W@Z 004255c1 f i nafxcw:objcore.obj
 0001:000245df       ?CharUpperWFake@ATL@@YGPA_WPA_W@Z 004255df f i nafxcw:objcore.obj
 0001:00024667       ?CharUpperWThunk@ATL@@YGPA_WPA_W@Z 00425667 f i nafxcw:objcore.obj
 0001:00024685       ?AtlWinModuleInit@ATL@@YGJPAU_ATL_WIN_MODULE70@1@@Z 00425685 f i nafxcw:objcore.obj
 0001:000246a8       ??1stringdispid@CComTypeInfoHolder@ATL@@QAE@XZ 004256a8 f i nafxcw:objcore.obj
 0001:000246b1       ??0?$CSimpleArray@GV?$CSimpleArrayEqualHelper@G@ATL@@@ATL@@QAE@XZ 004256b1 f i nafxcw:objcore.obj
 0001:000246be       ?GetSize@?$CSimpleArray@GV?$CSimpleArrayEqualHelper@G@ATL@@@ATL@@QBEHXZ 004256be f i nafxcw:objcore.obj
 0001:000246c2       ?RemoveAll@?$CSimpleArray@GV?$CSimpleArrayEqualHelper@G@ATL@@@ATL@@QAEXXZ 004256c2 f i nafxcw:objcore.obj
 0001:000246df       ??A?$CSimpleArray@GV?$CSimpleArrayEqualHelper@G@ATL@@@ATL@@QAEAAGH@Z 004256df f i nafxcw:objcore.obj
 0001:00024706       ?Init@?$CW2AEX@$0IA@@ATL@@AAEXPB_WI@Z 00425706 f i nafxcw:objcore.obj
 0001:0002476c       ?AtlWinModuleTerm@ATL@@YGJPAU_ATL_WIN_MODULE70@1@PAUHINSTANCE__@@@Z 0042576c f i nafxcw:objcore.obj
 0001:000247cc       ??_Estringdispid@CComTypeInfoHolder@ATL@@QAEPAXI@Z 004257cc f i nafxcw:objcore.obj
 0001:00024817       ??0?$CW2AEX@$0IA@@ATL@@QAE@PB_W@Z 00425817 f i nafxcw:objcore.obj
 0001:00024837       ??1?$CSimpleArray@GV?$CSimpleArrayEqualHelper@G@ATL@@@ATL@@QAE@XZ 00425837 f i nafxcw:objcore.obj
 0001:0002483c       ?CompareStringWFake@ATL@@YGHKKPB_WH0H@Z 0042583c f i nafxcw:objcore.obj
 0001:00024940       ?CompareStringWThunk@ATL@@YGHKKPB_WH0H@Z 00425940 f i nafxcw:objcore.obj
 0001:00024962       ?Term@CAtlWinModule@ATL@@QAEXXZ 00425962 f i nafxcw:objcore.obj
 0001:0002496f       ??0_ATL_WIN_MODULE70@ATL@@QAE@XZ 0042596f f i nafxcw:objcore.obj
 0001:00024989       ??1_ATL_WIN_MODULE70@ATL@@QAE@XZ 00425989 f i nafxcw:objcore.obj
 0001:00024991       ?GetEnvironmentVariableWFake@ATL@@YGKPB_WPA_WK@Z 00425991 f i nafxcw:objcore.obj
 0001:00024acd       ?GetEnvironmentVariableWThunk@ATL@@YGKPB_WPA_WK@Z 00425acd f i nafxcw:objcore.obj
 0001:00024aeb       ?GetStringTypeExWFake@ATL@@YGHKKPB_WHPAG@Z 00425aeb f i nafxcw:objcore.obj
 0001:00024bc8       ?GetStringTypeExWThunk@ATL@@YGHKKPB_WHPAG@Z 00425bc8 f i nafxcw:objcore.obj
 0001:00024bea       ??0CAtlWinModule@ATL@@QAE@XZ 00425bea f i nafxcw:objcore.obj
 0001:00024c0d       ??1CAtlWinModule@ATL@@QAE@XZ 00425c0d f i nafxcw:objcore.obj
 0001:00024c25       ?AtlAllocTaskWideString@ATL@@YAPA_WPBD@Z 00425c25 f i nafxcw:olecnvrt.obj
 0001:00024c70       ?AtlAllocTaskAnsiString@ATL@@YAPADPB_W@Z 00425c70 f i nafxcw:olecnvrt.obj
 0001:00024cbd       _IsEqualGUID               00425cbd f i nafxcw:oleunk.obj
 0001:00024cd5       _==                        00425cd5 f i nafxcw:oleunk.obj
 0001:00024cda       ??0IUnknown@@QAE@XZ        00425cda f i nafxcw:oleunk.obj
 0001:00024cdd       ?InternalAddRef@CCmdTarget@@QAEKXZ 00425cdd f i nafxcw:oleunk.obj
 0001:00024ce8       ??0CPoint@@QAE@XZ          00425ce8 f i nafxcw:afxstate.obj
 0001:00024ceb       ??0CPoint@@QAE@HH@Z        00425ceb f i nafxcw:afxstate.obj
 0001:00024cfd       ??0CSimpleList@@QAE@H@Z    00425cfd f i nafxcw:afxstate.obj
 0001:00024d0c       ?Construct@CSimpleList@@QAEXH@Z 00425d0c f i nafxcw:afxstate.obj
 0001:00024d16       ??1CNoTrackObject@@UAE@XZ  00425d16 f i nafxcw:afxstate.obj
 0001:00024d17       ??0CTypeLibCache@@QAE@XZ   00425d17 f i nafxcw:afxstate.obj
 0001:00024d29       ?IsEmpty@CPtrList@@QBEHXZ  00425d29 f i nafxcw:afxstate.obj
 0001:00024d32       ?GetStartPosition@CMapPtrToPtr@@QBEPAU__POSITION@@XZ 00425d32 f i nafxcw:afxstate.obj
 0001:00024d3a       ?GetNextPtr@CSimpleList@@QBEPAPAXPAX@Z 00425d3a f i nafxcw:afxtls.obj
 0001:00024d44       ?GetHead@CSimpleList@@QBEPAXXZ 00425d44 f i nafxcw:afxtls.obj
 0001:00024d47       ??2CThreadSlotData@@SGPAXIPAX@Z 00425d47 f i nafxcw:afxtls.obj
 0001:00024d4e       ?AfxCheckError@@YGXJ@Z     00425d4e f   nafxcw:olevar.obj
 0001:00024d6b       ?_AfxCompareSafeArrays@@YGHPAUtagSAFEARRAY@@0@Z 00425d6b f   nafxcw:olevar.obj
 0001:00024fd7       ?_AfxCreateOneDimArray@@YGXAAUtagVARIANT@@K@Z 00425fd7 f   nafxcw:olevar.obj
 0001:00025082       ?_AfxCopyBinaryData@@YGXPAUtagSAFEARRAY@@PBXK@Z 00426082 f   nafxcw:olevar.obj
 0001:000250bd       ??0COleVariant@@QAE@FG@Z   004260bd f   nafxcw:olevar.obj
 0001:000250e4       ??0COleVariant@@QAE@JG@Z   004260e4 f   nafxcw:olevar.obj
 0001:00025149       ?ChangeType@COleVariant@@QAEXGPAUtagVARIANT@@@Z 00426149 f   nafxcw:olevar.obj
 0001:00025174       ?Detach@COleVariant@@QAE?AUtagVARIANT@@XZ 00426174 f   nafxcw:olevar.obj
 0001:0002519b       ??8COleVariant@@QBEHABUtagVARIANT@@@Z 0042619b f   nafxcw:olevar.obj
 0001:000252df       ??4COleVariant@@QAEABV0@ABUtagVARIANT@@@Z 004262df f   nafxcw:olevar.obj
 0001:000252f9       ??4COleVariant@@QAEABV0@PBUtagVARIANT@@@Z 004262f9 f   nafxcw:olevar.obj
 0001:00025313       ??4COleVariant@@QAEABV0@ABV0@@Z 00426313 f   nafxcw:olevar.obj
 0001:0002532d       ??4COleVariant@@QAEABV0@ABVCLongBinary@@@Z 0042632d f   nafxcw:olevar.obj
 0001:00025370       ?AfxVariantInit@@YGXPAUtagVARIANT@@@Z 00426370 f   nafxcw:olevar.obj
 0001:00025383       ??$CopyElements@VCOleVariant@@@@YGXPAVCOleVariant@@PBV0@H@Z 00426383 f   nafxcw:olevar.obj
 0001:000253a9       ??4COleCurrency@@QAEABV0@ABV0@@Z 004263a9 f   nafxcw:olevar.obj
 0001:000253c2       ??MCOleCurrency@@QBEHABV0@@Z 004263c2 f   nafxcw:olevar.obj
 0001:000253e0       ??OCOleCurrency@@QBEHABV0@@Z 004263e0 f   nafxcw:olevar.obj
 0001:000253fe       ??NCOleCurrency@@QBEHABV0@@Z 004263fe f   nafxcw:olevar.obj
 0001:0002541c       ??PCOleCurrency@@QBEHABV0@@Z 0042641c f   nafxcw:olevar.obj
 0001:0002543a       ?Detach@COleSafeArray@@QAE?AUtagVARIANT@@XZ 0042643a f   nafxcw:olevar.obj
 0001:00025461       ??4COleSafeArray@@QAEAAV0@ABV0@@Z 00426461 f   nafxcw:olevar.obj
 0001:00025487       ??4COleSafeArray@@QAEAAV0@ABUtagVARIANT@@@Z 00426487 f   nafxcw:olevar.obj
 0001:000254ad       ??4COleSafeArray@@QAEAAV0@PBUtagVARIANT@@@Z 004264ad f   nafxcw:olevar.obj
 0001:000254d3       ??4COleSafeArray@@QAEAAV0@ABVCOleVariant@@@Z 004264d3 f   nafxcw:olevar.obj
 0001:000254f9       ??8COleSafeArray@@QBEHABUtagSAFEARRAY@@@Z 004264f9 f   nafxcw:olevar.obj
 0001:00025508       ??8COleSafeArray@@QBEHPBUtagSAFEARRAY@@@Z 00426508 f   nafxcw:olevar.obj
 0001:00025517       ??8COleSafeArray@@QBEHABV0@@Z 00426517 f   nafxcw:olevar.obj
 0001:00025535       ??8COleSafeArray@@QBEHABUtagVARIANT@@@Z 00426535 f   nafxcw:olevar.obj
 0001:00025553       ??8COleSafeArray@@QBEHPBUtagVARIANT@@@Z 00426553 f   nafxcw:olevar.obj
 0001:00025571       ??8COleSafeArray@@QBEHABVCOleVariant@@@Z 00426571 f   nafxcw:olevar.obj
 0001:0002558f       ?AccessData@COleSafeArray@@QAEXPAPAX@Z 0042658f f   nafxcw:olevar.obj
 0001:000255a5       ?UnaccessData@COleSafeArray@@QAEXXZ 004265a5 f   nafxcw:olevar.obj
 0001:000255b5       ?AllocData@COleSafeArray@@QAEXXZ 004265b5 f   nafxcw:olevar.obj
 0001:000255c5       ?AllocDescriptor@COleSafeArray@@QAEXK@Z 004265c5 f   nafxcw:olevar.obj
 0001:000255dc       ?Copy@COleSafeArray@@QAEXPAPAUtagSAFEARRAY@@@Z 004265dc f   nafxcw:olevar.obj
 0001:000255f2       ?GetLBound@COleSafeArray@@QAEXKPAJ@Z 004265f2 f   nafxcw:olevar.obj
 0001:0002560c       ?GetUBound@COleSafeArray@@QAEXKPAJ@Z 0042660c f   nafxcw:olevar.obj
 0001:00025626       ?GetElement@COleSafeArray@@QAEXPAJPAX@Z 00426626 f   nafxcw:olevar.obj
 0001:00025640       ?PtrOfIndex@COleSafeArray@@QAEXPAJPAPAX@Z 00426640 f   nafxcw:olevar.obj
 0001:0002565a       ?PutElement@COleSafeArray@@QAEXPAJPAX@Z 0042665a f   nafxcw:olevar.obj
 0001:00025674       ?Redim@COleSafeArray@@QAEXPAUtagSAFEARRAYBOUND@@@Z 00426674 f   nafxcw:olevar.obj
 0001:0002568a       ?Lock@COleSafeArray@@QAEXXZ 0042668a f   nafxcw:olevar.obj
 0001:0002569a       ?Unlock@COleSafeArray@@QAEXXZ 0042669a f   nafxcw:olevar.obj
 0001:000256aa       ?Destroy@COleSafeArray@@QAEXXZ 004266aa f   nafxcw:olevar.obj
 0001:000256ba       ?DestroyData@COleSafeArray@@QAEXXZ 004266ba f   nafxcw:olevar.obj
 0001:000256ca       ?DestroyDescriptor@COleSafeArray@@QAEXXZ 004266ca f   nafxcw:olevar.obj
 0001:000256da       ?AfxSafeArrayInit@@YGXPAVCOleSafeArray@@@Z 004266da f   nafxcw:olevar.obj
 0001:000256f4       ?AllocSysString@?$ChTraitsCRT@D@ATL@@SAPA_WPBDH@Z 004266f4 f i nafxcw:olevar.obj
 0001:0002573f       ??$HashKey@K@@YGIK@Z       0042673f f i nafxcw:olevar.obj
 0001:00025749       ?GetSize@CByteArray@@QBEHXZ 00426749 f i nafxcw:olevar.obj
 0001:0002574d       ?GetData@CByteArray@@QBEPBEXZ 0042674d f i nafxcw:olevar.obj
 0001:00025751       ?GetData@CByteArray@@QAEPAEXZ 00426751 f i nafxcw:olevar.obj
 0001:00025755       ?IsLoading@CArchive@@QBEHXZ 00426755 f i nafxcw:olevar.obj
 0001:0002575c       ??0CComBSTR@ATL@@QAE@XZ    0042675c f i nafxcw:olevar.obj
 0001:00025762       ??BCComBSTR@ATL@@QBEPA_WXZ 00426762 f i nafxcw:olevar.obj
 0001:00025765       ??ICComBSTR@ATL@@QAEPAPA_WXZ 00426765 f i nafxcw:olevar.obj
 0001:00025768       ?Attach@CComBSTR@ATL@@QAEXPA_W@Z 00426768 f i nafxcw:olevar.obj
 0001:00025784       ?Detach@CComBSTR@ATL@@QAEPA_WXZ 00426784 f i nafxcw:olevar.obj
 0001:0002578a       ?Empty@CComBSTR@ATL@@QAEXXZ 0042678a f i nafxcw:olevar.obj
 0001:0002579a       ??0COleDateTime@ATL@@QAE@XZ 0042679a f i nafxcw:olevar.obj
 0001:000257a5       ?GetStatus@COleDateTime@ATL@@QBE?AW4DateTimeStatus@12@XZ 004267a5 f i nafxcw:olevar.obj
 0001:000257a9       ?GetAsSystemTime@COleDateTime@ATL@@QBE_NAAU_SYSTEMTIME@@@Z 004267a9 f i nafxcw:olevar.obj
 0001:000257ce       ??BCOleDateTime@ATL@@QBENXZ 004267ce f i nafxcw:olevar.obj
 0001:000257d1       ?SetDateTime@COleDateTime@ATL@@QAEHHHHHHH@Z 004267d1 f i nafxcw:olevar.obj
 0001:00025892       ??0COleVariant@@QAE@XZ     00426892 f i nafxcw:olevar.obj
 0001:0002589f       ??1COleVariant@@QAE@XZ     0042689f f i nafxcw:olevar.obj
 0001:000258a7       ?Clear@COleVariant@@QAEXXZ 004268a7 f i nafxcw:olevar.obj
 0001:000258af       ??BCOleVariant@@QAEPAUtagVARIANT@@XZ 004268af f i nafxcw:olevar.obj
 0001:000258b2       ??0COleCurrency@@QAE@ABV0@@Z 004268b2 f i nafxcw:olevar.obj
 0001:000258cb       ?GetStatus@COleCurrency@@QBE?AW4CurrencyStatus@1@XZ 004268cb f i nafxcw:olevar.obj
 0001:000258cf       ?SetStatus@COleCurrency@@QAEXW4CurrencyStatus@1@@Z 004268cf f i nafxcw:olevar.obj
 0001:000258d9       ?Clear@COleSafeArray@@QAEXXZ 004268d9 f i nafxcw:olevar.obj
 0001:000258e1       ?GetDim@COleSafeArray@@QAEKXZ 004268e1 f i nafxcw:olevar.obj
 0001:000258eb       ?GetElemSize@COleSafeArray@@QAEKXZ 004268eb f i nafxcw:olevar.obj
 0001:000258f5       ??0COleVariant@@QAE@ABUtagVARIANT@@@Z 004268f5 f   nafxcw:olevar.obj
 0001:00025915       ??0COleVariant@@QAE@PBUtagVARIANT@@@Z 00426915 f   nafxcw:olevar.obj
 0001:00025935       ??0COleVariant@@QAE@ABV0@@Z 00426935 f   nafxcw:olevar.obj
 0001:00025955       ??0COleVariant@@QAE@PBDG@Z 00426955 f   nafxcw:olevar.obj
 0001:000259cc       ?SetString@COleVariant@@QAEXPBDG@Z 004269cc f   nafxcw:olevar.obj
 0001:00025a48       ?Attach@COleVariant@@QAEXAAUtagVARIANT@@@Z 00426a48 f   nafxcw:olevar.obj
 0001:00025a6c       ?GetByteArrayFromVariantArray@COleVariant@@QAEXAAVCByteArray@@@Z 00426a6c f   nafxcw:olevar.obj
 0001:00025b05       ??4COleVariant@@QAEABV0@QBD@Z 00426b05 f   nafxcw:olevar.obj
 0001:00025b72       ??4COleVariant@@QAEABV0@ABV?$CStringT@DV?$StrTraitMFC@DV?$ChTraitsCRT@D@ATL@@@@@ATL@@@Z 00426b72 f   nafxcw:olevar.obj
 0001:00025be1       ??4COleVariant@@QAEABV0@E@Z 00426be1 f   nafxcw:olevar.obj
 0001:00025c03       ??4COleVariant@@QAEABV0@F@Z 00426c03 f   nafxcw:olevar.obj
 0001:00025c3c       ??4COleVariant@@QAEABV0@J@Z 00426c3c f   nafxcw:olevar.obj
 0001:00025c7b       ??4COleVariant@@QAEABV0@ABVCOleCurrency@@@Z 00426c7b f   nafxcw:olevar.obj
 0001:00025ca5       ??4COleVariant@@QAEABV0@M@Z 00426ca5 f   nafxcw:olevar.obj
 0001:00025cc7       ??4COleVariant@@QAEABV0@N@Z 00426cc7 f   nafxcw:olevar.obj
 0001:00025ce9       ??4COleVariant@@QAEABV0@ABVCOleDateTime@ATL@@@Z 00426ce9 f   nafxcw:olevar.obj
 0001:00025d0d       ??4COleVariant@@QAEABV0@ABVCByteArray@@@Z 00426d0d f   nafxcw:olevar.obj
 0001:00025d41       ??$HashKey@ABUtagVARIANT@@@@YGIABUtagVARIANT@@@Z 00426d41 f   nafxcw:olevar.obj
 0001:00025dc9       ??4COleCurrency@@QAEABV0@TtagCY@@@Z 00426dc9 f   nafxcw:olevar.obj
 0001:00025ddf       ??4COleCurrency@@QAEABV0@ABUtagVARIANT@@@Z 00426ddf f   nafxcw:olevar.obj
 0001:00025e7d       ??0COleSafeArray@@QAE@ABUtagSAFEARRAY@@G@Z 00426e7d f   nafxcw:olevar.obj
 0001:00025ec3       ??0COleSafeArray@@QAE@PBUtagSAFEARRAY@@G@Z 00426ec3 f   nafxcw:olevar.obj
 0001:00025f09       ??0COleSafeArray@@QAE@ABV0@@Z 00426f09 f   nafxcw:olevar.obj
 0001:00025f3b       ??0COleSafeArray@@QAE@ABUtagVARIANT@@@Z 00426f3b f   nafxcw:olevar.obj
 0001:00025f6d       ??0COleSafeArray@@QAE@ABVCOleVariant@@@Z 00426f6d f   nafxcw:olevar.obj
 0001:00025f9f       ??0COleSafeArray@@QAE@PBUtagVARIANT@@@Z 00426f9f f   nafxcw:olevar.obj
 0001:00025fd1       ?Attach@COleSafeArray@@QAEXAAUtagVARIANT@@@Z 00426fd1 f   nafxcw:olevar.obj
 0001:00026000       ?GetByteArray@COleSafeArray@@QAEXAAVCByteArray@@@Z 00427000 f   nafxcw:olevar.obj
 0001:00026099       ?GetOneDimSize@COleSafeArray@@QAEKXZ 00427099 f   nafxcw:olevar.obj
 0001:000260c3       ?ResizeOneDim@COleSafeArray@@QAEXK@Z 004270c3 f   nafxcw:olevar.obj
 0001:000260f8       ?Create@COleSafeArray@@QAEXGKPAUtagSAFEARRAYBOUND@@@Z 004270f8 f   nafxcw:olevar.obj
 0001:00026162       ??6CArchive@@QAEAAV0@E@Z   00427162 f i nafxcw:olevar.obj
 0001:0002619a       ??6CArchive@@QAEAAV0@_J@Z  0042719a f i nafxcw:olevar.obj
 0001:000261dc       ??6CArchive@@QAEAAV0@_K@Z  004271dc f i nafxcw:olevar.obj
 0001:0002621e       ??6CArchive@@QAEAAV0@G@Z   0042721e f i nafxcw:olevar.obj
 0001:0002625a       ??6CArchive@@QAEAAV0@J@Z   0042725a f i nafxcw:olevar.obj
 0001:00026295       ??6CArchive@@QAEAAV0@K@Z   00427295 f i nafxcw:olevar.obj
 0001:000262d0       ??6CArchive@@QAEAAV0@M@Z   004272d0 f i nafxcw:olevar.obj
 0001:0002630b       ??6CArchive@@QAEAAV0@N@Z   0042730b f i nafxcw:olevar.obj
 0001:00026346       ??5CArchive@@QAEAAV0@AAE@Z 00427346 f i nafxcw:olevar.obj
 0001:00026385       ??5CArchive@@QAEAAV0@AA_J@Z 00427385 f i nafxcw:olevar.obj
 0001:000263cd       ??5CArchive@@QAEAAV0@AA_K@Z 004273cd f i nafxcw:olevar.obj
 0001:00026415       ??5CArchive@@QAEAAV0@AAG@Z 00427415 f i nafxcw:olevar.obj
 0001:00026458       ??5CArchive@@QAEAAV0@AAK@Z 00427458 f i nafxcw:olevar.obj
 0001:0002649a       ??5CArchive@@QAEAAV0@AAM@Z 0042749a f i nafxcw:olevar.obj
 0001:000264dc       ??5CArchive@@QAEAAV0@AAN@Z 004274dc f i nafxcw:olevar.obj
 0001:0002651e       ??5CArchive@@QAEAAV0@AAJ@Z 0042751e f i nafxcw:olevar.obj
 0001:00026560       ??0COleCurrency@@QAE@XZ    00427560 f i nafxcw:olevar.obj
 0001:0002656d       ??0COleCurrency@@QAE@TtagCY@@@Z 0042756d f i nafxcw:olevar.obj
 0001:00026583       ??6@YGAAVCArchive@@AAV0@VCComBSTR@ATL@@@Z 00427583 f   nafxcw:olevar.obj
 0001:000265e4       ??5@YGAAVCArchive@@AAV0@AAVCComBSTR@ATL@@@Z 004275e4 f   nafxcw:olevar.obj
 0001:00026644       ??HCOleCurrency@@QBE?AV0@ABV0@@Z 00427644 f   nafxcw:olevar.obj
 0001:000266c9       ??GCOleCurrency@@QBE?AV0@ABV0@@Z 004276c9 f   nafxcw:olevar.obj
 0001:0002674e       ??GCOleCurrency@@QBE?AV0@XZ 0042774e f   nafxcw:olevar.obj
 0001:00026794       ??DCOleCurrency@@QBE?AV0@J@Z 00427794 f   nafxcw:olevar.obj
 0001:000268b2       ??KCOleCurrency@@QBE?AV0@J@Z 004278b2 f   nafxcw:olevar.obj
 0001:0002692e       ?SetCurrency@COleCurrency@@QAEXJJ@Z 0042792e f   nafxcw:olevar.obj
 0001:000269e6       ??6@YGAAVCArchive@@AAV0@VCOleCurrency@@@Z 004279e6 f   nafxcw:olevar.obj
 0001:00026a0e       ??5@YGAAVCArchive@@AAV0@AAVCOleCurrency@@@Z 00427a0e f   nafxcw:olevar.obj
 0001:00026a3b       ??6@YGAAVCArchive@@AAV0@VCOleDateTime@ATL@@@Z 00427a3b f   nafxcw:olevar.obj
 0001:00026a5d       ??5@YGAAVCArchive@@AAV0@AAVCOleDateTime@ATL@@@Z 00427a5d f   nafxcw:olevar.obj
 0001:00026a7d       ??6@YGAAVCArchive@@AAV0@VCOleDateTimeSpan@ATL@@@Z 00427a7d f   nafxcw:olevar.obj
 0001:00026a9f       ??5@YGAAVCArchive@@AAV0@AAVCOleDateTimeSpan@ATL@@@Z 00427a9f f   nafxcw:olevar.obj
 0001:00026abf       ?CreateOneDim@COleSafeArray@@QAEXGKPBXJ@Z 00427abf f   nafxcw:olevar.obj
 0001:00026b26       ?Create@COleSafeArray@@QAEXGKPAK@Z 00427b26 f   nafxcw:olevar.obj
 0001:00026bb2       ?AllocSysString@?$CStringT@DV?$StrTraitMFC@DV?$ChTraitsCRT@D@ATL@@@@@ATL@@QBEPA_WXZ 00427bb2 f i nafxcw:olevar.obj
 0001:00026bc9       ??6CArchive@@QAEAAV0@F@Z   00427bc9 f i nafxcw:olevar.obj
 0001:00026bce       ??6CArchive@@QAEAAV0@D@Z   00427bce f i nafxcw:olevar.obj
 0001:00026bd3       ??5CArchive@@QAEAAV0@AAF@Z 00427bd3 f i nafxcw:olevar.obj
 0001:00026bd8       ??5CArchive@@QAEAAV0@AAD@Z 00427bd8 f i nafxcw:olevar.obj
 0001:00026bdd       ?ParseDateTime@COleDateTime@ATL@@QAE_NPBDKK@Z 00427bdd f i nafxcw:olevar.obj
 0001:00026ca7       ??6@YGAAVCArchive@@AAV0@VCOleVariant@@@Z 00427ca7 f   nafxcw:olevar.obj
 0001:00026ecb       ??5@YGAAVCArchive@@AAV0@AAVCOleVariant@@@Z 00427ecb f   nafxcw:olevar.obj
 0001:00027157       ??$SerializeElements@VCOleVariant@@@@YGXAAVCArchive@@PAVCOleVariant@@H@Z 00428157 f   nafxcw:olevar.obj
 0001:000271a8       ??0COleCurrency@@QAE@JJ@Z  004281a8 f   nafxcw:olevar.obj
 0001:000271c2       ?DDX_Text@@YGXPAVCDataExchange@@HAAUtagDEC@@@Z 004281c2 f   nafxcw:olevar.obj
 0001:000272fa       ?DDX_Text@@YGXPAVCDataExchange@@HAAU_GUID@@@Z 004282fa f   nafxcw:olevar.obj
 0001:0002747c       ??0?$CStringT@DV?$StrTraitMFC@DV?$ChTraitsCRT@D@ATL@@@@@ATL@@QAE@PB_W@Z 0042847c f i nafxcw:olevar.obj
 0001:000274c7       ?ParseCurrency@COleCurrency@@QAEHPBDKK@Z 004284c7 f   nafxcw:olevar.obj
 0001:0002759f       ?Format@COleCurrency@@QBE?AV?$CStringT@DV?$StrTraitMFC@DV?$ChTraitsCRT@D@ATL@@@@@ATL@@KK@Z 0042859f f   nafxcw:olevar.obj
 0001:000276a3       ?DDX_Text@@YGXPAVCDataExchange@@HAAVCOleCurrency@@@Z 004286a3 f   nafxcw:olevar.obj
 0001:00027787       ?Format@COleDateTime@ATL@@QBE?AV?$CStringT@DV?$StrTraitMFC@DV?$ChTraitsCRT@D@ATL@@@@@2@KK@Z 00428787 f i nafxcw:olevar.obj
 0001:000278ac       ?DDX_Text@@YGXPAVCDataExchange@@HAAVCOleDateTime@ATL@@@Z 004288ac f   nafxcw:olevar.obj
 0001:00027990       ?DDX_Text@@YGXPAVCDataExchange@@HAAU_FILETIME@@@Z 00428990 f   nafxcw:olevar.obj
 0001:00027acf       ??0CArchiveException@@QAE@HPBD@Z 00428acf f i nafxcw:arcex.obj
 0001:00027b1c       ??_GCArchiveException@@UAEPAXI@Z 00428b1c f i nafxcw:arcex.obj
 0001:00027b1c       ??_ECArchiveException@@UAEPAXI@Z 00428b1c f i nafxcw:arcex.obj
 0001:00027b38       ??1CArchiveException@@UAE@XZ 00428b38 f i nafxcw:arcex.obj
 0001:00027b49       ??0CPoint@@QAE@UtagPOINT@@@Z 00428b49 f i nafxcw:thrdcore.obj
 0001:00027b5b       ??8CPoint@@QBEHUtagPOINT@@@Z 00428b5b f i nafxcw:thrdcore.obj
 0001:00027b76       ?SendMessageA@CWnd@@QAEJIIJ@Z 00428b76 f i nafxcw:thrdcore.obj
 0001:00027b8e       ?IsWindowVisible@CWnd@@QBEHXZ 00428b8e f i nafxcw:thrdcore.obj
 0001:00027b98       ?SendMessageToDescendants@CWnd@@QAEXIIJHH@Z 00428b98 f i nafxcw:thrdcore.obj
 0001:00027bb6       ?GetActiveWindow@CWnd@@SGPAV1@XZ 00428bb6 f i nafxcw:thrdcore.obj
 0001:00027bc3       ?SetThreadPriority@CWinThread@@QAEHH@Z 00428bc3 f i nafxcw:thrdcore.obj
 0001:00027bd3       ?ResumeThread@CWinThread@@QAEKXZ 00428bd3 f i nafxcw:thrdcore.obj
 0001:00027bdd       ?Close@CFileFind@@QAEXXZ   00428bdd f   nafxcw:filefind.obj
 0001:00027c1d       ?CloseContext@CFileFind@@MAEXXZ 00428c1d f   nafxcw:filefind.obj
 0001:00027c27       ?MatchesMask@CFileFind@@UBEHK@Z 00428c27 f   nafxcw:filefind.obj
 0001:00027c41       ?GetLastAccessTime@CFileFind@@UBEHPAU_FILETIME@@@Z 00428c41 f   nafxcw:filefind.obj
 0001:00027c65       ?GetLastWriteTime@CFileFind@@UBEHPAU_FILETIME@@@Z 00428c65 f   nafxcw:filefind.obj
 0001:00027c89       ?GetCreationTime@CFileFind@@UBEHPAU_FILETIME@@@Z 00428c89 f   nafxcw:filefind.obj
 0001:00027cad       ?FindNextFileA@CFileFind@@UAEHXZ 00428cad f   nafxcw:filefind.obj
 0001:00027ce7       ?GetLength@CFileFind@@QBE_KXZ 00428ce7 f   nafxcw:filefind.obj
 0001:00027cfe       __tcsdec                   00428cfe f i nafxcw:filefind.obj
 0001:00027d03       ?IsDirectory@CFileFind@@QBEHXZ 00428d03 f i nafxcw:filefind.obj
 0001:00027d0b       ?GetLastAccessTime@CFileFind@@UBEHAAVCTime@ATL@@@Z 00428d0b f   nafxcw:filefind.obj
 0001:00027d3d       ?GetLastWriteTime@CFileFind@@UBEHAAVCTime@ATL@@@Z 00428d3d f   nafxcw:filefind.obj
 0001:00027d6f       ?GetCreationTime@CFileFind@@UBEHAAVCTime@ATL@@@Z 00428d6f f   nafxcw:filefind.obj
 0001:00027da1       ?IsDots@CFileFind@@UBEHXZ  00428da1 f   nafxcw:filefind.obj
 0001:00027dda       ??0CFileFind@@QAE@XZ       00428dda f   nafxcw:filefind.obj
 0001:00027dfe       ??1CFileFind@@UAE@XZ       00428dfe f   nafxcw:filefind.obj
 0001:00027e36       ?GetRoot@CFileFind@@UBE?AV?$CStringT@DV?$StrTraitMFC@DV?$ChTraitsCRT@D@ATL@@@@@ATL@@XZ 00428e36 f   nafxcw:filefind.obj
 0001:00027e51       ??_ECFileFind@@UAEPAXI@Z   00428e51 f i nafxcw:filefind.obj
 0001:00027e51       ??_GCFileFind@@UAEPAXI@Z   00428e51 f i nafxcw:filefind.obj
 0001:00027e6d       ?FindFile@CFileFind@@UAEHPBDK@Z 00428e6d f   nafxcw:filefind.obj
 0001:00027f65       ?GetFileTitle@CFileFind@@UBE?AV?$CStringT@DV?$StrTraitMFC@DV?$ChTraitsCRT@D@ATL@@@@@ATL@@XZ 00428f65 f   nafxcw:filefind.obj
 0001:00027ff3       ?GetFilePath@CFileFind@@UBE?AV?$CStringT@DV?$StrTraitMFC@DV?$ChTraitsCRT@D@ATL@@@@@ATL@@XZ 00428ff3 f   nafxcw:filefind.obj
 0001:00028092       ?GetFileName@CFileFind@@UBE?AV?$CStringT@DV?$StrTraitMFC@DV?$ChTraitsCRT@D@ATL@@@@@ATL@@XZ 00429092 f   nafxcw:filefind.obj
 0001:000280f6       ?GetFileURL@CFileFind@@UBE?AV?$CStringT@DV?$StrTraitMFC@DV?$ChTraitsCRT@D@ATL@@@@@ATL@@XZ 004290f6 f   nafxcw:filefind.obj
 0001:0002816a       ??1CFileException@@UAE@XZ  0042916a f i nafxcw:filetxt.obj
 0001:0002817b       ??_GCFileException@@UAEPAXI@Z 0042917b f i nafxcw:filetxt.obj
 0001:0002817b       ??_ECFileException@@UAEPAXI@Z 0042917b f i nafxcw:filetxt.obj
 0001:00028197       ??0CFileException@@QAE@HJPBD@Z 00429197 f i nafxcw:filetxt.obj
 0001:000281ea       ?Lock@CSyncObject@@UAEHK@Z 004291ea f   nafxcw:mtcore.obj
 0001:0002820c       ??0CSyncObject@@QAE@PBD@Z  0042920c f   nafxcw:mtcore.obj
 0001:0002821b       ??1CSyncObject@@UAE@XZ     0042921b f   nafxcw:mtcore.obj
 0001:00028238       ??_ECSyncObject@@UAEPAXI@Z 00429238 f i nafxcw:mtcore.obj
 0001:00028238       ??_GCSyncObject@@UAEPAXI@Z 00429238 f i nafxcw:mtcore.obj
 0001:00028254       ?GetFileTitle@@YGFPBDPADG@Z 00429254 f i nafxcw:filecore.obj
 0001:0002825a       ?IsValidFILETIME@CTime@ATL@@SGHABU_FILETIME@@@Z 0042925a f i nafxcw:filest.obj
 0001:00028289       ??0CTime@ATL@@QAE@XZ       00429289 f i nafxcw:filest.obj
 0001:00028293       ??4CTime@ATL@@QAEAAV01@_J@Z 00429293 f i nafxcw:filest.obj
 0001:000282a5       ?GetTime@CTime@ATL@@QBE_JXZ 004292a5 f i nafxcw:filest.obj
 0001:000282ab       ?GetMinute@CTime@ATL@@QBEHXZ 004292ab f i nafxcw:filest.obj
 0001:000282be       ?GetSecond@CTime@ATL@@QBEHXZ 004292be f i nafxcw:filest.obj
 0001:000282d0       ??0CRect@@QAE@XZ           004292d0 f i nafxcw:winutil.obj
 0001:000282d3       ??BCRect@@QAEPAUtagRECT@@XZ 004292d3 f i nafxcw:winutil.obj
 0001:000282d6       ?PtInRect@CRect@@QBEHUtagPOINT@@@Z 004292d6 f i nafxcw:winutil.obj
 0001:000282e8       ?GetHeadPosition@CPtrList@@QBEPAU__POSITION@@XZ 004292e8 f i nafxcw:list_p.obj
 0001:000282ec       ?GetTailPosition@CPtrList@@QBEPAU__POSITION@@XZ 004292ec f i nafxcw:list_p.obj
 0001:000282f0       ?GetNext@CPtrList@@QAEAAPAXAAPAU__POSITION@@@Z 004292f0 f i nafxcw:list_p.obj
 0001:00028309       ?GetPrev@CPtrList@@QAEAAPAXAAPAU__POSITION@@@Z 00429309 f i nafxcw:list_p.obj
 0001:00028323       ??0AFX_CLASSINIT@@QAE@PAUCRuntimeClass@@@Z 00429323 f i nafxcw:array_b.obj
 0001:00028335       ?GetAt@CByteArray@@QBEEH@Z 00429335 f i nafxcw:array_b.obj
 0001:00028351       ?SetAt@CByteArray@@QAEXHE@Z 00429351 f i nafxcw:array_b.obj
 0001:00028371       ?GetFile@CArchive@@QBEPAVCFile@@XZ 00429371 f i nafxcw:arcstrm.obj
 0001:00028375       ??0ISequentialStream@@QAE@XZ 00429375 f i nafxcw:arcstrm.obj
 0001:00028378       ??0IStream@@QAE@XZ         00429378 f i nafxcw:arcstrm.obj
 0001:0002837b       ?GetNextWindow@@YAPAUHWND__@@PAU1@I@Z 0042937b f i nafxcw:winocc.obj
 0001:0002838a       ?GetNext@CPtrList@@QBEAAPBXAAPAU__POSITION@@@Z 0042938a f i nafxcw:winocc.obj
 0001:000283a3       ?GetPrev@CPtrList@@QBEAAPBXAAPAU__POSITION@@@Z 004293a3 f i nafxcw:winocc.obj
 0001:000283bd       ?GetAt@CPtrList@@QBEAAPBXPAU__POSITION@@@Z 004293bd f i nafxcw:winocc.obj
 0001:000283d0       ?GetSafeHandle@CGdiObject@@QBEPAXXZ 004293d0 f i nafxcw:winocc.obj
 0001:000283db       ?GetNextWindow@CWnd@@QBEPAV1@I@Z 004293db f i nafxcw:winocc.obj
 0001:000283f2       ?GetWindow@CWnd@@QBEPAV1@I@Z 004293f2 f i nafxcw:winocc.obj
 0001:00028408       ?LookupPermanent@CHandleMap@@QAEPAVCObject@@PAX@Z 00429408 f i nafxcw:winocc.obj
 0001:00028410       ??0CSize@@QAE@K@Z          00429410 f i nafxcw:cmdtarg.obj
 0001:00028427       ?CheckMenuItem@CMenu@@QAEIII@Z 00429427 f i nafxcw:cmdtarg.obj
 0001:0002843b       ?EnableMenuItem@CMenu@@QAEIII@Z 0042943b f i nafxcw:cmdtarg.obj
 0001:0002844f       ?GetMenuState@CMenu@@QBEIII@Z 0042944f f i nafxcw:cmdtarg.obj
 0001:00028463       ?ModifyMenuA@CMenu@@QAEHIIIPBD@Z 00429463 f i nafxcw:cmdtarg.obj
 0001:0002847f       ?GetParent@CWnd@@QBEPAV1@XZ 0042947f f i nafxcw:cmdtarg.obj
 0001:0002848f       ?LookupTemporary@CHandleMap@@QAEPAVCObject@@PAX@Z 0042948f f i nafxcw:winhand.obj
 0001:00028497       ??_ECHandleMap@@UAEPAXI@Z  00429497 f i nafxcw:winhand.obj
 0001:00028497       ??_GCHandleMap@@UAEPAXI@Z  00429497 f i nafxcw:winhand.obj
 0001:000284b3       ??1CHandleMap@@UAE@XZ      004294b3 f i nafxcw:winhand.obj
 0001:00028507       __tcscmp                   00429507 f i nafxcw:wincore.obj
 0001:0002850c       ?UnlockResource@@YGHPAX@Z  0042950c f i nafxcw:wincore.obj
 0001:00028511       ?A2T@@YAPADPAD@Z           00429511 f i nafxcw:wincore.obj
 0001:00028516       ??0CPoint@@QAE@J@Z         00429516 f i nafxcw:wincore.obj
 0001:0002852d       ?Width@CRect@@QBEHXZ       0042952d f i nafxcw:wincore.obj
 0001:00028533       ?Height@CRect@@QBEHXZ      00429533 f i nafxcw:wincore.obj
 0001:0002853a       ?TopLeft@CRect@@QAEAAVCPoint@@XZ 0042953a f i nafxcw:wincore.obj
 0001:0002853d       ?BottomRight@CRect@@QAEAAVCPoint@@XZ 0042953d f i nafxcw:wincore.obj
 0001:00028541       ??4CRect@@QAEXABUtagRECT@@@Z 00429541 f i nafxcw:wincore.obj
 0001:0002854f       ??2CObject@@SGPAXIPAX@Z    0042954f f i nafxcw:wincore.obj
 0001:00028556       ??3CObject@@SGXPAX0@Z      00429556 f i nafxcw:wincore.obj
 0001:00028563       _IsPlatformNT              00429563 f   nafxcw:wincore.obj
 0001:000285b4       _InitMultipleMonitorStubs  004295b4 f   nafxcw:wincore.obj
 0001:000286ae       _xGetSystemMetrics@4       004296ae f   nafxcw:wincore.obj
 0001:000286f6       _xMonitorFromPoint@12      004296f6 f   nafxcw:wincore.obj
 0001:0002874c       _xMonitorFromRect@8        0042974c f   nafxcw:wincore.obj
 0001:00028798       _xMonitorFromWindow@8      00429798 f   nafxcw:wincore.obj
 0001:00028803       _xGetMonitorInfo@8         00429803 f   nafxcw:wincore.obj
 0001:00028898       _xEnumDisplayMonitors@16   00429898 f   nafxcw:wincore.obj
 0001:00028983       _xEnumDisplayDevices@16    00429983 f   nafxcw:wincore.obj
 0001:000289f0       ??1CAccessibleProxy@ATL@@UAE@XZ 004299f0 f i nafxcw:wincore.obj
 0001:000289f1       ?AtlIAccessibleInvokeHelper@ATL@@YGJPAUIAccessible@@JABU_GUID@@KGPAUtagDISPPARAMS@@PAUtagVARIANT@@PAUtagEXCEPINFO@@PAI@Z 004299f1 f   nafxcw:wincore.obj
 0001:00028fd9       ?AtlIAccessibleGetIDsOfNamesHelper@ATL@@YGJABU_GUID@@PAPA_WIKPAJ@Z 00429fd9 f   nafxcw:wincore.obj
 0001:00029039       ?AfxGetInstanceHandle@@YGPAUHINSTANCE__@@XZ 0042a039 f i nafxcw:wincore.obj
 0001:00029042       ?GetMenuItemCount@CMenu@@QBEIXZ 0042a042 f i nafxcw:wincore.obj
 0001:0002904c       ?GetMenuItemID@CMenu@@QBEIH@Z 0042a04c f i nafxcw:wincore.obj
 0001:0002905c       ?GetSubMenu@CMenu@@QBEPAV1@H@Z 0042a05c f i nafxcw:wincore.obj
 0001:00029072       ?PostMessageA@CWnd@@QAEHIIJ@Z 0042a072 f i nafxcw:wincore.obj
 0001:0002908a       ?GetMenu@CWnd@@QBEPAVCMenu@@XZ 0042a08a f i nafxcw:wincore.obj
 0001:0002909a       ?GetWindowRect@CWnd@@QBEXPAUtagRECT@@@Z 0042a09a f i nafxcw:wincore.obj
 0001:000290aa       ?GetClientRect@CWnd@@QBEXPAUtagRECT@@@Z 0042a0aa f i nafxcw:wincore.obj
 0001:000290ba       ?ScreenToClient@CWnd@@QBEXPAUtagPOINT@@@Z 0042a0ba f i nafxcw:wincore.obj
 0001:000290ca       ?UpdateWindow@CWnd@@QAEXXZ 0042a0ca f i nafxcw:wincore.obj
 0001:000290d4       ?ShowScrollBar@CWnd@@QAEXIH@Z 0042a0d4 f i nafxcw:wincore.obj
 0001:000290e8       ?SetForegroundWindow@CWnd@@QAEHXZ 0042a0e8 f i nafxcw:wincore.obj
 0001:000290f2       ?DoDataExchange@CWnd@@MAEXPAVCDataExchange@@@Z 0042a0f2 f i nafxcw:wincore.obj
 0001:000290f5       ?BeginModalState@CWnd@@UAEXXZ 0042a0f5 f i nafxcw:wincore.obj
 0001:00029101       ?EndModalState@CWnd@@UAEXXZ 0042a101 f i nafxcw:wincore.obj
 0001:0002910d       ?GetScrollPos@CScrollBar@@QBEHXZ 0042a10d f i nafxcw:wincore.obj
 0001:00029119       ?SetScrollPos@CScrollBar@@QAEHHH@Z 0042a119 f i nafxcw:wincore.obj
 0001:0002912f       ?GetScrollRange@CScrollBar@@QBEXPAH0@Z 0042a12f f i nafxcw:wincore.obj
 0001:00029145       ?SetScrollRange@CScrollBar@@QAEXHHH@Z 0042a145 f i nafxcw:wincore.obj
 0001:0002915f       ??0CWaitCursor@@QAE@XZ     0042a15f f i nafxcw:wincore.obj
 0001:00029173       ??1CWaitCursor@@QAE@XZ     0042a173 f i nafxcw:wincore.obj
 0001:00029180       ?SetWindowLongPtrA@@YAJPAUHWND__@@HJ@Z 0042a180 f i nafxcw:wincore.obj
 0001:00029193       ?GetWindowLongPtrA@@YAJPAUHWND__@@H@Z 0042a193 f i nafxcw:wincore.obj
 0001:000291a2       ?SetPermanent@CHandleMap@@QAEXPAXPAVCObject@@@Z 0042a1a2 f i nafxcw:wincore.obj
 0001:000291b7       ?RemoveHandle@CHandleMap@@QAEXPAX@Z 0042a1b7 f i nafxcw:wincore.obj
 0001:000291bf       ??0CComObjectRootBase@ATL@@QAE@XZ 0042a1bf f i nafxcw:wincore.obj
 0001:000291c5       ?FinalConstruct@CComObjectRootBase@ATL@@QAEJXZ 0042a1c5 f i nafxcw:wincore.obj
 0001:000291c8       ?_AtlFinalConstruct@CComObjectRootBase@ATL@@QAEJXZ 0042a1c8 f i nafxcw:wincore.obj
 0001:000291cb       ?SetVoid@CComObjectRootBase@ATL@@QAEXPAX@Z 0042a1cb f i nafxcw:wincore.obj
 0001:000291ce       ?InternalFinalConstructAddRef@CComObjectRootBase@ATL@@QAEXXZ 0042a1ce f i nafxcw:wincore.obj
 0001:000291cf       ?InternalFinalConstructRelease@CComObjectRootBase@ATL@@QAEXXZ 0042a1cf f i nafxcw:wincore.obj
 0001:000291d0       ??0?$CComObjectRootEx@VCComSingleThreadModel@ATL@@@ATL@@QAE@XZ 0042a1d0 f i nafxcw:wincore.obj
 0001:000291d6       ??0IOleWindow@@QAE@XZ      0042a1d6 f i nafxcw:wincore.obj
 0001:000291d9       ?GetDescendantWindow@CWnd@@QBEPAV1@HH@Z 0042a1d9 f i nafxcw:wincore.obj
 0001:000291ec       ?SetActiveWindow@CWnd@@QAEPAV1@XZ 0042a1ec f i nafxcw:wincore.obj
 0001:000291fc       ?GetLastActivePopup@CWnd@@QBEPAV1@XZ 0042a1fc f i nafxcw:wincore.obj
 0001:0002920c       ?GetForegroundWindow@CWnd@@SGPAV1@XZ 0042a20c f i nafxcw:wincore.obj
 0001:00029219       ??0CAccessibleProxy@ATL@@QAE@XZ 0042a219 f i nafxcw:wincore.obj
 0001:00029234       ?GetWindow@CAccessibleProxy@ATL@@UAGJPAPAUHWND__@@@Z 0042a234 f i nafxcw:wincore.obj
 0001:00029239       ?ContextSensitiveHelp@CAccessibleProxy@ATL@@UAGJH@Z 0042a239 f i nafxcw:wincore.obj
 0001:00029241       ?FinalRelease@CAccessibleProxy@ATL@@QAEJXZ 0042a241 f i nafxcw:wincore.obj
 0001:00029256       ?AtlInternalQueryInterface@ATL@@YGJPAXPBU_ATL_INTMAP_ENTRY@1@ABU_GUID@@PAPAX@Z 0042a256 f i nafxcw:wincore.obj
 0001:00029324       ?GetOwner@CWnd@@QBEPAV1@XZ 0042a324 f i nafxcw:wincore.obj
 0001:0002933b       ?GetUpperBound@CPtrArray@@QBEHXZ 0042a33b f i nafxcw:arcobj.obj
 0001:00029340       ?GetAt@CPtrArray@@QBEPAXH@Z 0042a340 f i nafxcw:arcobj.obj
 0001:0002935c       ?SetAt@CPtrArray@@QAEXHPAX@Z 0042a35c f i nafxcw:arcobj.obj
 0001:0002937c       ??0CSize@@QAE@XZ           0042a37c f i nafxcw:wingdi.obj
 0001:0002937f       ??0CSize@@QAE@UtagSIZE@@@Z 0042a37f f i nafxcw:wingdi.obj
 0001:00029391       ??0CRect@@QAE@HHHH@Z       0042a391 f i nafxcw:wingdi.obj
 0001:000293b1       ?SwapLeftRight@CRect@@SGXPAUtagRECT@@@Z 0042a3b1 f i nafxcw:wingdi.obj
 0001:000293c2       ??0CResourceException@@QAE@HI@Z 0042a3c2 f i nafxcw:wingdi.obj
 0001:000293e4       ??1CResourceException@@UAE@XZ 0042a3e4 f i nafxcw:wingdi.obj
 0001:000293eb       ??0CUserException@@QAE@HI@Z 0042a3eb f i nafxcw:wingdi.obj
 0001:0002940d       ??1CUserException@@UAE@XZ  0042a40d f i nafxcw:wingdi.obj
 0001:00029414       ??0CGdiObject@@QAE@XZ      0042a414 f i nafxcw:wingdi.obj
 0001:00029421       ?GetBitmap@CBitmap@@QAEHPAUtagBITMAP@@@Z 0042a421 f i nafxcw:wingdi.obj
 0001:00029433       ?GetSafeHdc@CDC@@QBEPAUHDC__@@XZ 0042a433 f i nafxcw:wingdi.obj
 0001:0002943e       ?GetViewportExt@CDC@@QBE?AVCSize@@XZ 0042a43e f i nafxcw:wingdi.obj
 0001:00029462       ?GetWindowExt@CDC@@QBE?AVCSize@@XZ 0042a462 f i nafxcw:wingdi.obj
 0001:00029486       ?FillRect@CDC@@QAEXPBUtagRECT@@PAVCBrush@@@Z 0042a486 f i nafxcw:wingdi.obj
 0001:000294a2       ?BitBlt@CDC@@QAEHHHHHPAV1@HHK@Z 0042a4a2 f i nafxcw:wingdi.obj
 0001:000294d2       ?GetPixel@CDC@@QBEKHH@Z    0042a4d2 f i nafxcw:wingdi.obj
 0001:000294e6       ?StartDocA@CDC@@QAEHPAU_DOCINFOA@@@Z 0042a4e6 f i nafxcw:wingdi.obj
 0001:000294f6       ?abs@@YAJJ@Z               0042a4f6 f i nafxcw:wingdi.obj
 0001:000294fb       ?PtVisible@CDC@@UBEHHH@Z   0042a4fb f i nafxcw:wingdi.obj
 0001:0002950f       ?RectVisible@CDC@@UBEHPBUtagRECT@@@Z 0042a50f f i nafxcw:wingdi.obj
 0001:0002951f       ?TextOutA@CDC@@UAEHHHPBDH@Z 0042a51f f i nafxcw:wingdi.obj
 0001:0002953b       ?ExtTextOutA@CDC@@UAEHHHIPBUtagRECT@@PBDIPAH@Z 0042a53b f i nafxcw:wingdi.obj
 0001:00029560       ?TabbedTextOutA@CDC@@UAE?AVCSize@@HHPBDHHPAHH@Z 0042a560 f i nafxcw:wingdi.obj
 0001:00029598       ?DrawTextA@CDC@@UAEHPBDHPAUtagRECT@@I@Z 0042a598 f i nafxcw:wingdi.obj
 0001:000295b4       ?DrawTextExA@CDC@@UAEHPADHPAUtagRECT@@IPAUtagDRAWTEXTPARAMS@@@Z 0042a5b4 f i nafxcw:wingdi.obj
 0001:000295d3       ?GrayStringA@CDC@@UAEHPAVCBrush@@P6GHPAUHDC__@@JH@ZJHHHHH@Z 0042a5d3 f i nafxcw:wingdi.obj
 0001:00029603       ?Escape@CDC@@UAEHHHPBDPAX@Z 0042a603 f i nafxcw:wingdi.obj
 0001:0002961f       ??_GCResourceException@@UAEPAXI@Z 0042a61f f i nafxcw:wingdi.obj
 0001:0002961f       ??_ECResourceException@@UAEPAXI@Z 0042a61f f i nafxcw:wingdi.obj
 0001:0002963b       ??_ECUserException@@UAEPAXI@Z 0042a63b f i nafxcw:wingdi.obj
 0001:0002963b       ??_GCUserException@@UAEPAXI@Z 0042a63b f i nafxcw:wingdi.obj
 0001:00029657       ??1CGdiObject@@UAE@XZ      0042a657 f i nafxcw:wingdi.obj
 0001:00029662       ??0CBrush@@QAE@XZ          0042a662 f i nafxcw:wingdi.obj
 0001:0002966f       ??1CBrush@@UAE@XZ          0042a66f f i nafxcw:wingdi.obj
 0001:0002967a       ?CreatePatternBrush@CBrush@@QAEHPAVCBitmap@@@Z 0042a67a f i nafxcw:wingdi.obj
 0001:0002969b       ?FromHandle@CFont@@SGPAV1@PAUHFONT__@@@Z 0042a69b f i nafxcw:wingdi.obj
 0001:000296a0       ??0CBitmap@@QAE@XZ         0042a6a0 f i nafxcw:wingdi.obj
 0001:000296ad       ??1CBitmap@@UAE@XZ         0042a6ad f i nafxcw:wingdi.obj
 0001:000296b8       ?CreateBitmap@CBitmap@@QAEHHHIIPBX@Z 0042a6b8 f i nafxcw:wingdi.obj
 0001:000296e0       ?CreateCompatibleDC@CDC@@QAEHPAV1@@Z 0042a6e0 f i nafxcw:wingdi.obj
 0001:00029701       ??_GCGdiObject@@UAEPAXI@Z  0042a701 f i nafxcw:wingdi.obj
 0001:00029701       ??_ECGdiObject@@UAEPAXI@Z  0042a701 f i nafxcw:wingdi.obj
 0001:0002971d       ??_ECPen@@UAEPAXI@Z        0042a71d f i nafxcw:wingdi.obj
 0001:0002971d       ??_GCPen@@UAEPAXI@Z        0042a71d f i nafxcw:wingdi.obj
 0001:00029739       ??1CPen@@UAE@XZ            0042a739 f i nafxcw:wingdi.obj
 0001:00029744       ??_ECBrush@@UAEPAXI@Z      0042a744 f i nafxcw:wingdi.obj
 0001:00029744       ??_GCBrush@@UAEPAXI@Z      0042a744 f i nafxcw:wingdi.obj
 0001:00029760       ??_ECBitmap@@UAEPAXI@Z     0042a760 f i nafxcw:wingdi.obj
 0001:00029760       ??_GCBitmap@@UAEPAXI@Z     0042a760 f i nafxcw:wingdi.obj
 0001:0002977c       ?SelectObject@CDC@@QAEPAVCBitmap@@PAV2@@Z 0042a77c f i nafxcw:wingdi.obj
 0001:00029793       ??0CFixedAllocNoSync@@QAE@II@Z 0042a793 f   nafxcw:fixalloc.obj
 0001:000297bd       ?FreeAll@CFixedAllocNoSync@@QAEXXZ 0042a7bd f   nafxcw:fixalloc.obj
 0001:000297d2       ?Free@CFixedAllocNoSync@@QAEXPAX@Z 0042a7d2 f   nafxcw:fixalloc.obj
 0001:000297e5       ??1CFixedAllocNoSync@@QAE@XZ 0042a7e5 f   nafxcw:fixalloc.obj
 0001:000297ea       ?Alloc@CFixedAllocNoSync@@QAEPAXXZ 0042a7ea f   nafxcw:fixalloc.obj
 0001:0002982b       ??0CFixedAlloc@@QAE@II@Z   0042a82b f   nafxcw:fixalloc.obj
 0001:0002984b       ??1CFixedAlloc@@QAE@XZ     0042a84b f   nafxcw:fixalloc.obj
 0001:00029860       ?FreeAll@CFixedAlloc@@QAEXXZ 0042a860 f   nafxcw:fixalloc.obj
 0001:000298cd       ?Alloc@CFixedAlloc@@QAEPAXXZ 0042a8cd f   nafxcw:fixalloc.obj
 0001:0002992b       ?Free@CFixedAlloc@@QAEXPAX@Z 0042a92b f   nafxcw:fixalloc.obj
 0001:000299a2       ??0CRect@@QAE@ABUtagRECT@@@Z 0042a9a2 f i nafxcw:winmenu.obj
 0001:000299b6       ?InflateRect@CRect@@QAEXHH@Z 0042a9b6 f i nafxcw:winmenu.obj
 0001:000299c8       ?GetObjectA@CGdiObject@@QBEHHPAX@Z 0042a9c8 f i nafxcw:winmenu.obj
 0001:000299dc       ??0CFont@@QAE@XZ           0042a9dc f i nafxcw:winmenu.obj
 0001:000299e9       ??1CFont@@UAE@XZ           0042a9e9 f i nafxcw:winmenu.obj
 0001:000299f4       ?CreateFontIndirectA@CFont@@QAEHPBUtagLOGFONTA@@@Z 0042a9f4 f i nafxcw:winmenu.obj
 0001:00029a0d       ??0CMenu@@QAE@XZ           0042aa0d f i nafxcw:winmenu.obj
 0001:00029a1a       ?GetMenuItemInfoA@CMenu@@QAEHIPAUtagMENUITEMINFOA@@H@Z 0042aa1a f i nafxcw:winmenu.obj
 0001:00029a32       ??_ECFont@@UAEPAXI@Z       0042aa32 f i nafxcw:winmenu.obj
 0001:00029a32       ??_GCFont@@UAEPAXI@Z       0042aa32 f i nafxcw:winmenu.obj
 0001:00029a4e       ?ExtTextOutA@CDC@@QAEHHHIPBUtagRECT@@ABV?$CStringT@DV?$StrTraitMFC@DV?$ChTraitsCRT@D@ATL@@@@@ATL@@PAH@Z 0042aa4e f i nafxcw:winmenu.obj
 0001:00029a77       ?GetTextExtent@CDC@@QBE?AVCSize@@ABV?$CStringT@DV?$StrTraitMFC@DV?$ChTraitsCRT@D@ATL@@@@@ATL@@@Z 0042aa77 f i nafxcw:winmenu.obj
 0001:00029aa4       ??1CMenu@@UAE@XZ           0042aaa4 f i nafxcw:winmenu.obj
 0001:00029aaf       ??_ECMenu@@UAEPAXI@Z       0042aaaf f i nafxcw:winmenu.obj
 0001:00029aaf       ??_GCMenu@@UAEPAXI@Z       0042aaaf f i nafxcw:winmenu.obj
 0001:00029acb       ?T2CA@@YAPBDPBD@Z          0042aacb f i nafxcw:appcore.obj
 0001:00029ad0       ?SetResourceInstance@CAtlBaseModule@ATL@@QAEPAUHINSTANCE__@@PAU3@@Z 0042aad0 f i nafxcw:appcore.obj
 0001:00029ae1       ?AfxSetResourceHandle@@YGXPAUHINSTANCE__@@@Z 0042aae1 f i nafxcw:appcore.obj
 0001:00029af0       ?GetSize@CPtrArray@@QBEHXZ 0042aaf0 f i nafxcw:array_p.obj
 0001:00029af4       ?IntersectRect@CRect@@QAEHPBUtagRECT@@0@Z 0042aaf4 f i nafxcw:wingdix.obj
 0001:00029b06       ?FromHandle@CBrush@@SGPAV1@PAUHBRUSH__@@@Z 0042ab06 f i nafxcw:wingdix.obj
 0001:00029b0b       ??0CRgn@@QAE@XZ            0042ab0b f i nafxcw:wingdix.obj
 0001:00029b18       ??1CRgn@@UAE@XZ            0042ab18 f i nafxcw:wingdix.obj
 0001:00029b23       ?CreateRectRgn@CRgn@@QAEHHHHH@Z 0042ab23 f i nafxcw:wingdix.obj
 0001:00029b48       ?CreateRectRgnIndirect@CRgn@@QAEHPBUtagRECT@@@Z 0042ab48 f i nafxcw:wingdix.obj
 0001:00029b61       ?SetRectRgn@CRgn@@QAEXPBUtagRECT@@@Z 0042ab61 f i nafxcw:wingdix.obj
 0001:00029b7c       ?CombineRgn@CRgn@@QAEHPAV1@0H@Z 0042ab7c f i nafxcw:wingdix.obj
 0001:00029ba8       ?GetDeviceCaps@CDC@@QBEHH@Z 0042aba8 f i nafxcw:wingdix.obj
 0001:00029bb8       ?GetMapMode@CDC@@QBEHXZ    0042abb8 f i nafxcw:wingdix.obj
 0001:00029bc2       ?PatBlt@CDC@@QAEHHHHHK@Z   0042abc2 f i nafxcw:wingdix.obj
 0001:00029be1       ??_GCRgn@@UAEPAXI@Z        0042abe1 f i nafxcw:wingdix.obj
 0001:00029be1       ??_ECRgn@@UAEPAXI@Z        0042abe1 f i nafxcw:wingdix.obj
 0001:00029bfd       ?ShowOwnedPopups@CWnd@@QAEXH@Z 0042abfd f i nafxcw:appui.obj
 0001:00029c0d       ??ACRecentFileList@@QAEAAV?$CStringT@DV?$StrTraitMFC@DV?$ChTraitsCRT@D@ATL@@@@@ATL@@H@Z 0042ac0d f i nafxcw:appui.obj
 0001:00029c1a       ?DeleteMenu@CMenu@@QAEHII@Z 0042ac1a f i nafxcw:filelist.obj
 0001:00029c2e       ?InsertMenuA@CMenu@@QAEHIIIPBD@Z 0042ac2e f i nafxcw:filelist.obj
 0001:00029c4a       ?GetBuffer@?$CSimpleStringT@D$0A@@ATL@@QAEPADXZ 0042ac4a f i nafxcw:appui2.obj
 0001:00029c64       ??_9@$BBEM@AE              0042ac64 f i nafxcw:docmgr.obj
 0001:00029c6c       ?GetCount@CPtrList@@QBEHXZ 0042ac6c f i nafxcw:docmgr.obj
 0001:00029c70       ?GetHead@CPtrList@@QAEAAPAXXZ 0042ac70 f i nafxcw:docmgr.obj
 0001:00029c77       ?IsIconic@CWnd@@QBEHXZ     0042ac77 f i nafxcw:docmgr.obj
 0001:00029c81       ?Create@CDialog@@UAEHIPAVCWnd@@@Z 0042ac81 f i nafxcw:docmgr.obj
 0001:00029c96       ?GetCount@CListBox@@QBEHXZ 0042ac96 f i nafxcw:docmgr.obj
 0001:00029ca9       ?GetCurSel@CListBox@@QBEHXZ 0042aca9 f i nafxcw:docmgr.obj
 0001:00029cbc       ?SetCurSel@CListBox@@QAEHH@Z 0042acbc f i nafxcw:docmgr.obj
 0001:00029cd3       ?SetItemData@CListBox@@QAEHHK@Z 0042acd3 f i nafxcw:docmgr.obj
 0001:00029cec       ?GetItemDataPtr@CListBox@@QBEPAXH@Z 0042acec f i nafxcw:docmgr.obj
 0001:00029d03       ?SetItemDataPtr@CListBox@@QAEHHPAX@Z 0042ad03 f i nafxcw:docmgr.obj
 0001:00029d08       ?AddString@CListBox@@QAEHPBD@Z 0042ad08 f i nafxcw:docmgr.obj
 0001:00029d1f       ?ResetContent@CListBox@@QAEXXZ 0042ad1f f i nafxcw:docmgr.obj
 0001:00029d32       ??_9@$BBFA@AE              0042ad32 f i nafxcw:dlgcore.obj
 0001:00029d3a       ?GetNextDlgTabItem@CWnd@@QBEPAV1@PAV1@H@Z 0042ad3a f i nafxcw:dlgcore.obj
 0001:00029d5c       ??1CCommonDialog@@UAE@XZ   0042ad5c f i nafxcw:dlgfile.obj
 0001:00029d61       ??0CCommonDialog@@QAE@PAVCWnd@@@Z 0042ad61 f i nafxcw:dlgfile.obj
 0001:00029d80       _memmove                   0042ad80 f   libcmt:memmove.obj
 0001:0002a0bd       __CxxThrowException@8      0042b0bd f   libcmt:throw.obj
 0001:0002a0f7       ?_JumpToContinuation@@YGXPAXPAUEHRegistrationNode@@@Z 0042b0f7 f   libcmt:trnsctrl.obj
 0001:0002a127       ?_CallMemberFunction0@@YGXPAX0@Z 0042b127 f   libcmt:trnsctrl.obj
 0001:0002a12e       ?_CallMemberFunction1@@YGXPAX00@Z 0042b12e f   libcmt:trnsctrl.obj
 0001:0002a135       ?_CallMemberFunction2@@YGXPAX00H@Z 0042b135 f   libcmt:trnsctrl.obj
 0001:0002a13c       ?_UnwindNestedFrames@@YGXPAUEHRegistrationNode@@PAUEHExceptionRecord@@@Z 0042b13c f   libcmt:trnsctrl.obj
 0001:0002a18e       ___CxxFrameHandler         0042b18e f   libcmt:trnsctrl.obj
 0001:0002a1c4       ___CxxLongjmpUnwind@4      0042b1c4 f   libcmt:trnsctrl.obj
 0001:0002a219       ?_CallSETranslator@@YAHPAUEHExceptionRecord@@PAUEHRegistrationNode@@PAX2PBU_s_FuncInfo@@H1@Z 0042b219 f   libcmt:trnsctrl.obj
 0001:0002a392       ?_GetRangeOfTrysToCheck@@YAPBU_s_TryBlockMapEntry@@PBU_s_FuncInfo@@HHPAI1@Z 0042b392 f   libcmt:trnsctrl.obj
 0001:0002a40c       ?_CreateFrameInfo@@YAPAUFrameInfo@@PAU1@PAX@Z 0042b40c f   libcmt:trnsctrl.obj
 0001:0002a434       ?IsExceptionObjectToBeDestroyed@@YAHPAX@Z 0042b434 f   libcmt:trnsctrl.obj
 0001:0002a455       ?_FindAndUnlinkFrame@@YAXPAUFrameInfo@@@Z 0042b455 f   libcmt:trnsctrl.obj
 0001:0002a4a1       ?_CallCatchBlock2@@YAPAXPAUEHRegistrationNode@@PBU_s_FuncInfo@@PAXHK@Z 0042b4a1 f   libcmt:trnsctrl.obj
 0001:0002a4fc       __global_unwind2           0042b4fc f   libcmt:exsup.obj
 0001:0002a53e       __local_unwind2            0042b53e f   libcmt:exsup.obj
 0001:0002a596       __NLG_Return2              0042b596     libcmt:exsup.obj
 0001:0002a5a6       __abnormal_termination     0042b5a6 f   libcmt:exsup.obj
 0001:0002a5c9       __NLG_Notify1              0042b5c9 f   libcmt:exsup.obj
 0001:0002a5d2       __NLG_Notify               0042b5d2 f   libcmt:exsup.obj
 0001:0002a5e5       __NLG_Dispatch             0042b5e5     libcmt:exsup.obj
 0001:0002a5ea       _time                      0042b5ea f   libcmt:time.obj
 0001:0002a623       ??0exception@@QAE@XZ       0042b623 f   libcmt:stdexcpt.obj
 0001:0002a634       ??0exception@@QAE@ABQBD@Z  0042b634 f   libcmt:stdexcpt.obj
 0001:0002a67c       ??0exception@@QAE@ABV0@@Z  0042b67c f   libcmt:stdexcpt.obj
 0001:0002a6ce       ??1exception@@UAE@XZ       0042b6ce f   libcmt:stdexcpt.obj
 0001:0002a6e4       ?what@exception@@UBEPBDXZ  0042b6e4 f   libcmt:stdexcpt.obj
 0001:0002a6f1       ??0bad_cast@@QAE@PBD@Z     0042b6f1 f   libcmt:stdexcpt.obj
 0001:0002a70a       ??0bad_cast@@QAE@ABV0@@Z   0042b70a f   libcmt:stdexcpt.obj
 0001:0002a722       ??1bad_cast@@UAE@XZ        0042b722 f   libcmt:stdexcpt.obj
 0001:0002a72d       ??0bad_typeid@@QAE@PBD@Z   0042b72d f   libcmt:stdexcpt.obj
 0001:0002a746       ??0bad_typeid@@QAE@ABV0@@Z 0042b746 f   libcmt:stdexcpt.obj
 0001:0002a75e       ??1bad_typeid@@UAE@XZ      0042b75e f   libcmt:stdexcpt.obj
 0001:0002a769       ??0__non_rtti_object@@QAE@PBD@Z 0042b769 f   libcmt:stdexcpt.obj
 0001:0002a781       ??0__non_rtti_object@@QAE@ABV0@@Z 0042b781 f   libcmt:stdexcpt.obj
 0001:0002a799       ??1__non_rtti_object@@UAE@XZ 0042b799 f   libcmt:stdexcpt.obj
 0001:0002a7a4       ??_Gexception@@UAEPAXI@Z   0042b7a4 f i libcmt:stdexcpt.obj
 0001:0002a7a4       ??_Eexception@@UAEPAXI@Z   0042b7a4 f i libcmt:stdexcpt.obj
 0001:0002a7c0       ??4exception@@QAEAAV0@ABV0@@Z 0042b7c0 f   libcmt:stdexcpt.obj
 0001:0002a7df       ??_Ebad_cast@@UAEPAXI@Z    0042b7df f i libcmt:stdexcpt.obj
 0001:0002a7df       ??_Gbad_cast@@UAEPAXI@Z    0042b7df f i libcmt:stdexcpt.obj
 0001:0002a7fb       ??_Gbad_typeid@@UAEPAXI@Z  0042b7fb f i libcmt:stdexcpt.obj
 0001:0002a7fb       ??_Ebad_typeid@@UAEPAXI@Z  0042b7fb f i libcmt:stdexcpt.obj
 0001:0002a817       ??_G__non_rtti_object@@UAEPAXI@Z 0042b817 f i libcmt:stdexcpt.obj
 0001:0002a817       ??_E__non_rtti_object@@UAEPAXI@Z 0042b817 f i libcmt:stdexcpt.obj
 0001:0002a833       ??1type_info@@UAE@XZ       0042b833 f   libcmt:typinfo.obj
 0001:0002a879       ??_Gtype_info@@UAEPAXI@Z   0042b879 f i libcmt:typinfo.obj
 0001:0002a879       ??_Etype_info@@UAEPAXI@Z   0042b879 f i libcmt:typinfo.obj
 0001:0002a895       ??8type_info@@QBEHABV0@@Z  0042b895 f   libcmt:typinfo.obj
 0001:0002a8b0       ??9type_info@@QBEHABV0@@Z  0042b8b0 f   libcmt:typinfo.obj
 0001:0002a8cc       ?before@type_info@@QBEHABV1@@Z 0042b8cc f   libcmt:typinfo.obj
 0001:0002a8eb       ?raw_name@type_info@@QBEPBDXZ 0042b8eb f   libcmt:typinfo.obj
 0001:0002a8ef       ??0type_info@@AAE@ABV0@@Z  0042b8ef f   libcmt:typinfo.obj
 0001:0002a8fa       ??4type_info@@AAEAAV0@ABV0@@Z 0042b8fa f   libcmt:typinfo.obj
 0001:0002a930       @__security_check_cookie@4 0042b930 f   libcmt:secchk.obj
 0001:0002a93e       _atol                      0042b93e f   libcmt:atox.obj
 0001:0002a9c6       _atoi                      0042b9c6 f   libcmt:atox.obj
 0001:0002a9cb       __atoi64                   0042b9cb f   libcmt:atox.obj
 0001:0002aa72       __mbscmp                   0042ba72 f   libcmt:mbscmp.obj
 0001:0002ab06       __time64                   0042bb06 f   libcmt:time64.obj
 0001:0002ab42       __Getdays                  0042bb42 f   libcmt:strftime.obj
 0001:0002abc1       __Getmonths                0042bbc1 f   libcmt:strftime.obj
 0001:0002ac56       __Gettnames                0042bc56 f   libcmt:strftime.obj
 0001:0002b648       __Strftime_mt              0042c648 f   libcmt:strftime.obj
 0001:0002b70b       __Strftime                 0042c70b f   libcmt:strftime.obj
 0001:0002b73d       _strftime                  0042c73d f   libcmt:strftime.obj
 0001:0002b758       __localtime64              0042c758 f   libcmt:loctim64.obj
 0001:0002b9e6       ___onexitinit              0042c9e6 f   libcmt:onexit.obj
 0001:0002ba0e       __onexit                   0042ca0e f   libcmt:onexit.obj
 0001:0002ba46       _atexit                    0042ca46 f   libcmt:onexit.obj
 0001:0002ba58       _sprintf                   0042ca58 f   libcmt:sprintf.obj
 0001:0002bab0       __scprintf                 0042cab0 f   libcmt:sprintf.obj
 0001:0002bd31       __mktime64                 0042cd31 f   libcmt:mktime64.obj
 0001:0002bd3e       __mkgmtime64               0042cd3e f   libcmt:mktime64.obj
 0001:0002bd4b       __mbsstr                   0042cd4b f   libcmt:mbsstr.obj
 0001:0002be00       _strncpy                   0042ce00 f   libcmt:strncpy.obj
 0001:0002bf24       __heap_alloc               0042cf24 f   libcmt:malloc.obj
 0001:0002bf9f       __nh_malloc                0042cf9f f   libcmt:malloc.obj
 0001:0002bfcb       _malloc                    0042cfcb f   libcmt:malloc.obj
 0001:0002bfdd       _free                      0042cfdd f   libcmt:free.obj
 0001:0002c050       __chkstk                   0042d050 f   libcmt:chkstk.obj
 0001:0002c050       __alloca_probe             0042d050     libcmt:chkstk.obj
 0001:0002c08d       __endthreadex              0042d08d f   libcmt:threadex.obj
 0001:0002c153       __beginthreadex            0042d153 f   libcmt:threadex.obj
 0001:0002c1de       __mbslwr                   0042d1de f   libcmt:mbslwr.obj
 0001:0002c270       __allmul                   0042d270 f   libcmt:llmul.obj
 0001:0002c2a4       __resetstkoflw             0042d2a4 f   libcmt:resetstk.obj
 0001:0002c390       __except_handler3          0042d390 f   libcmt:exsup3.obj
 0001:0002c476       __seh_longjmp_unwind@4     0042d476 f   libcmt:exsup3.obj
 0001:0002c491       _wcscat                    0042d491 f   libcmt:wcscat.obj
 0001:0002c4bb       _wcscpy                    0042d4bb f   libcmt:wcscat.obj
 0001:0002c4d7       __mbsupr                   0042d4d7 f   libcmt:mbsupr.obj
 0001:0002c55c       __purecall                 0042d55c f   libcmt:purevirt.obj
 0001:0002c570       __set_purecall_handler     0042d570 f   libcmt:purevirt.obj
 0001:0002c580       __fpclear                  0042d580 f   libcmt:fpinit.obj
 0001:0002c581       __cfltcvt_init             0042d581 f   libcmt:fpinit.obj
 0001:0002c5b9       ___setfflag                0042d5b9 f   libcmt:fpinit.obj
 0001:0002c5c9       __fpmath                   0042d5c9 f   libcmt:fpinit.obj
 0001:0002c5e7       __vsnprintf                0042d5e7 f   libcmt:vsnprint.obj
 0001:0002c63d       __mbsrchr                  0042d63d f   libcmt:mbsrchr.obj
 0001:0002c6a8       __fclose_lk                0042d6a8 f   libcmt:fclose.obj
 0001:0002c6f4       _fclose                    0042d6f4 f   libcmt:fclose.obj
 0001:0002c745       _fprintf                   0042d745 f   libcmt:fprintf.obj
 0001:0002c7a3       __fsopen                   0042d7a3 f   libcmt:fopen.obj
 0001:0002c7ff       _fopen                     0042d7ff f   libcmt:fopen.obj
 0001:0002c812       __fread_lk                 0042d812 f   libcmt:fread.obj
 0001:0002c8fb       _fread                     0042d8fb f   libcmt:fread.obj
 0001:0002c947       __fseek_lk                 0042d947 f   libcmt:fseek.obj
 0001:0002c9d6       _fseek                     0042d9d6 f   libcmt:fseek.obj
 0001:0002ca1f       __findclose                0042da1f f   libcmt:findfile.obj
 0001:0002ca3f       ___timet_from_ft           0042da3f f   libcmt:findfile.obj
 0001:0002caa3       __findfirst                0042daa3 f   libcmt:findfile.obj
 0001:0002cb85       __findnext                 0042db85 f   libcmt:findfile.obj
 0001:0002cc62       __fwrite_lk                0042dc62 f   libcmt:fwrite.obj
 0001:0002cd69       _fwrite                    0042dd69 f   libcmt:fwrite.obj
 0001:0002cdb5       _wcslen                    0042ddb5 f   libcmt:wcslen.obj
 0001:0002cdcc       __ftol2                    0042ddcc f   libcmt:ftol2.obj
 0001:0002ce41       _srand                     0042de41 f   libcmt:rand.obj
 0001:0002ce4e       _rand                      0042de4e f   libcmt:rand.obj
 0001:0002ce80       _strchr                    0042de80 f   libcmt:strchr.obj
 0001:0002ce86       ___from_strstr_to_strchr   0042de86     libcmt:strchr.obj
 0001:0002cf3e       __mbsinc                   0042df3e f   libcmt:mbsinc.obj
 0001:0002cf5a       __ismbcspace               0042df5a f   libcmt:ismbspc.obj
 0001:0002cfe0       __alldiv                   0042dfe0 f   libcmt:lldiv.obj
 0001:0002d08a       __mbsnbcpy                 0042e08a f   libcmt:mbsnbcpy.obj
 0001:0002d11d       __snprintf                 0042e11d f   libcmt:snprintf.obj
 0001:0002d174       _sscanf                    0042e174 f   libcmt:sscanf.obj
 0001:0002d1a8       __flush                    0042e1a8 f   libcmt:fflush.obj
 0001:0002d205       __fflush_lk                0042e205 f   libcmt:fflush.obj
 0001:0002d308       _fflush                    0042e308 f   libcmt:fflush.obj
 0001:0002d358       __flushall                 0042e358 f   libcmt:fflush.obj
 0001:0002d361       _fgetc                     0042e361 f   libcmt:fgetc.obj
 0001:0002d3b1       _getc                      0042e3b1 f   libcmt:fgetc.obj
 0001:0002d401       __getwc_lk                 0042e401 f   libcmt:fgetwc.obj
 0001:0002d4f5       _fgetwc                    0042e4f5 f   libcmt:fgetwc.obj
 0001:0002d537       _getwc                     0042e537 f   libcmt:fgetwc.obj
 0001:0002d53c       __ftell_lk                 0042e53c f   libcmt:ftell.obj
 0001:0002d69e       _ftell                     0042e69e f   libcmt:ftell.obj
 0001:0002d6df       _vsprintf                  0042e6df f   libcmt:vsprintf.obj
 0001:0002d736       __vscprintf                0042e736 f   libcmt:vsprintf.obj
 0001:0002d766       __filelength               0042e766 f   libcmt:flength.obj
 0001:0002d83a       _atof                      0042e83a f   libcmt:atof.obj
 0001:0002d880       __allshl                   0042e880 f   libcmt:llshl.obj
 0001:0002d89f       _isleadbyte                0042e89f f   libcmt:_wctype.obj
 0001:0002d8b4       _iswalpha                  0042e8b4 f   libcmt:_wctype.obj
 0001:0002d8c5       _iswupper                  0042e8c5 f   libcmt:_wctype.obj
 0001:0002d8d3       _iswlower                  0042e8d3 f   libcmt:_wctype.obj
 0001:0002d8e1       _iswdigit                  0042e8e1 f   libcmt:_wctype.obj
 0001:0002d8ef       _iswxdigit                 0042e8ef f   libcmt:_wctype.obj
 0001:0002d900       _iswspace                  0042e900 f   libcmt:_wctype.obj
 0001:0002d90e       _iswpunct                  0042e90e f   libcmt:_wctype.obj
 0001:0002d91c       _iswalnum                  0042e91c f   libcmt:_wctype.obj
 0001:0002d92d       _iswprint                  0042e92d f   libcmt:_wctype.obj
 0001:0002d93e       _iswgraph                  0042e93e f   libcmt:_wctype.obj
 0001:0002d94f       _iswcntrl                  0042e94f f   libcmt:_wctype.obj
 0001:0002d95d       _iswascii                  0042e95d f   libcmt:_wctype.obj
 0001:0002d969       __amsg_exit                0042e969 f   libcmt:wincrt0.obj
 0001:0002da08       _WinMainCRTStartup         0042ea08 f   libcmt:wincrt0.obj
 0001:0002dbe0       _memcpy                    0042ebe0 f   libcmt:memcpy.obj
 0001:0002df20       _strlen                    0042ef20 f   libcmt:strlen.obj
 0001:0002dfac       __EH_prolog                0042efac f   libcmt:ehprolog.obj
 0001:0002dfcb       _swprintf                  0042efcb f   libcmt:swprintf.obj
 0001:0002e03a       __scwprintf                0042f03a f   libcmt:swprintf.obj
 0001:0002e06b       __mbschr                   0042f06b f   libcmt:mbschr.obj
 0001:0002e0e6       _realloc                   0042f0e6 f   libcmt:realloc.obj
 0001:0002e298       ___mbspbrk_mt              0042f298 f   libcmt:mbspbrk.obj
 0001:0002e314       __mbspbrk                  0042f314 f   libcmt:mbspbrk.obj
 0001:0002e33c       __SEH_prolog               0042f33c f   libcmt:sehprolg.obj
 0001:0002e377       __SEH_epilog               0042f377 f   libcmt:sehprolg.obj
 0001:0002e390       _memset                    0042f390 f   libcmt:memset.obj
 0001:0002e402       ?__ArrayUnwind@@YGXPAXIHP6EX0@Z@Z 0042f402 f   libcmt:ehvecdtr.obj
 0001:0002e460       ??_M@YGXPAXIHP6EX0@Z@Z     0042f460 f   libcmt:ehvecdtr.obj
 0001:0002e4c0       _memcmp                    0042f4c0 f   libcmt:memcmp.obj
 0001:0002e578       _labs                      0042f578 f   libcmt:labs.obj
 0001:0002e583       __mbsdec                   0042f583 f   libcmt:mbsdec.obj
 0001:0002e5d2       __fullpath                 0042f5d2 f   libcmt:fullpath.obj
 0001:0002e67c       __splitpath                0042f67c f   libcmt:splitpat.obj
 0001:0002e7c4       __set_osfhnd               0042f7c4 f   libcmt:osfinfo.obj
 0001:0002e840       __free_osfhnd              0042f840 f   libcmt:osfinfo.obj
 0001:0002e8bf       __get_osfhandle            0042f8bf f   libcmt:osfinfo.obj
 0001:0002e900       __lock_fhandle             0042f900 f   libcmt:osfinfo.obj
 0001:0002e9a0       __unlock_fhandle           0042f9a0 f   libcmt:osfinfo.obj
 0001:0002e9c2       __alloc_osfhnd             0042f9c2 f   libcmt:osfinfo.obj
 0001:0002eb3e       __open_osfhandle           0042fb3e f   libcmt:osfinfo.obj
 0001:0002ec05       __errno                    0042fc05 f   libcmt:dosmap.obj
 0001:0002ec0e       ___doserrno                0042fc0e f   libcmt:dosmap.obj
 0001:0002ec17       __dosmaperr                0042fc17 f   libcmt:dosmap.obj
 0001:0002ec8a       __fdopen                   0042fc8a f   libcmt:fdopen.obj
 0001:0002ed8f       _clearerr                  0042fd8f f   libcmt:clearerr.obj
 0001:0002edf4       _fputs                     0042fdf4 f   libcmt:fputs.obj
 0001:0002ee65       _fgets                     0042fe65 f   libcmt:fgets.obj
 0001:0002eeeb       __expand                   0042feeb f   libcmt:expand.obj
 0001:0002ef95       __msize                    0042ff95 f   libcmt:msize.obj
 0001:0002f244       ___updatetmbcinfo          00430244 f   libcmt:mbctype.obj
 0001:0002f447       __getmbcp                  00430447 f   libcmt:mbctype.obj
 0001:0002f457       __setmbcp                  00430457 f   libcmt:mbctype.obj
 0001:0002f5a7       ___initmbctable            004305a7 f   libcmt:mbctype.obj
 0001:0002f5c5       __strdup                   004305c5 f   libcmt:strdup.obj
 0001:0002f5f0       ___crtExitProcess          004305f0 f   libcmt:crt0dat.obj
 0001:0002f620       __lockexit                 00430620 f   libcmt:crt0dat.obj
 0001:0002f629       __unlockexit               00430629 f   libcmt:crt0dat.obj
 0001:0002f668       __cinit                    00430668 f   libcmt:crt0dat.obj
 0001:0002f795       _exit                      00430795 f   libcmt:crt0dat.obj
 0001:0002f7a6       __exit                     004307a6 f   libcmt:crt0dat.obj
 0001:0002f7b7       __cexit                    004307b7 f   libcmt:crt0dat.obj
 0001:0002f7c6       __c_exit                   004307c6 f   libcmt:crt0dat.obj
 0001:0002f7d5       ??_L@YGXPAXIHP6EX0@Z1@Z    004307d5 f   libcmt:ehvecctr.obj
 0001:0002f837       ___mbsspn_mt               00430837 f   libcmt:mbsspn.obj
 0001:0002f8ae       __mbsspn                   004308ae f   libcmt:mbsspn.obj
 0001:0002f8d5       ___mbscspn_mt              004308d5 f   libcmt:mbscspn.obj
 0001:0002f94c       __mbscspn                  0043094c f   libcmt:mbscspn.obj
 0001:0002f973       ?__CxxUnhandledExceptionFilter@@YGJPAU_EXCEPTION_POINTERS@@@Z 00430973 f   libcmt:unhandld.obj
 0001:0002f9c1       ?__CxxSetUnhandledExceptionFilter@@YAHXZ 004309c1 f   libcmt:unhandld.obj
 0001:0002f9d4       ?__CxxRestoreUnhandledExceptionFilter@@YAXXZ 004309d4 f   libcmt:unhandld.obj
 0001:0002fa4e       ___FrameUnwindToState      00430a4e f   libcmt:frame.obj
 0001:0002fb4c       ___DestructExceptionObject 00430b4c f   libcmt:frame.obj
 0001:0002fbb0       ?__uncaught_exception@@YA_NXZ 00430bb0 f   libcmt:frame.obj
 0001:0002fbc3       ___CxxRegisterExceptionObject 00430bc3 f   libcmt:frame.obj
 0001:0002fc66       ___CxxDetectRethrow        00430c66 f   libcmt:frame.obj
 0001:0002fc9e       ___CxxUnregisterExceptionObject 00430c9e f   libcmt:frame.obj
 0001:0002fd3c       ___CxxQueryExceptionSize   00430d3c f   libcmt:frame.obj
 0001:0002fd40       ___CxxCallUnwindDtor       00430d40 f   libcmt:frame.obj
 0001:0002fd6e       ___CxxCallUnwindVecDtor    00430d6e f   libcmt:frame.obj
 0001:000300e5       ___CxxExceptionFilter      004310e5 f   libcmt:frame.obj
 0001:00030533       ___InternalCxxFrameHandler 00431533 f   libcmt:frame.obj
 0001:000305d5       ___crtTlsAlloc@4           004315d5 f   libcmt:tidtable.obj
 0001:000305de       __mtterm                   004315de f   libcmt:tidtable.obj
 0001:000305fb       __initptd                  004315fb f   libcmt:tidtable.obj
 0001:0003060e       __getptd                   0043160e f   libcmt:tidtable.obj
 0001:0003067f       __freefls@4                0043167f f   libcmt:tidtable.obj
 0001:000307c6       __freeptd                  004317c6 f   libcmt:tidtable.obj
 0001:000307f5       ___threadid                004317f5 f   libcmt:tidtable.obj
 0001:000307fb       ___threadhandle            004317fb f   libcmt:tidtable.obj
 0001:00030801       __mtinit                   00431801 f   libcmt:tidtable.obj
 0001:000308f0       ?terminate@@YAXXZ          004318f0 f   libcmt:hooks.obj
 0001:00030925       ?unexpected@@YAXXZ         00431925 f   libcmt:hooks.obj
 0001:0003093d       ?_inconsistency@@YAXXZ     0043193d f   libcmt:hooks.obj
 0001:00030970       __CallSettingFrame@12      00431970 f   libcmt:lowhelpr.obj
 0001:00030997       __NLG_Return               00431997     libcmt:lowhelpr.obj
 0001:000309c0       __aulldiv                  004319c0 f   libcmt:ulldiv.obj
 0001:00030a30       _strcpy                    00431a30 f   libcmt:strcat.obj
 0001:00030a40       _strcat                    00431a40 f   libcmt:strcat.obj
 0001:00030b28       __mtinitlocks              00431b28 f   libcmt:mlock.obj
 0001:00030b71       __mtdeletelocks            00431b71 f   libcmt:mlock.obj
 0001:00030bc6       __unlock                   00431bc6 f   libcmt:mlock.obj
 0001:00030bdb       __lockerr_exit             00431bdb f   libcmt:mlock.obj
 0001:00030bf3       __mtinitlocknum            00431bf3 f   libcmt:mlock.obj
 0001:00030c93       __lock                     00431c93 f   libcmt:mlock.obj
 0001:00030cd0       _strcmp                    00431cd0 f   libcmt:strcmp.obj
 0001:00030d58       ___security_init_cookie    00431d58 f   libcmt:seccinit.obj
 0001:00030dbe       ___security_error_handler  00431dbe f   libcmt:secfail.obj
 0001:00030f09       __set_security_error_handler 00431f09 f   libcmt:secfail.obj
 0001:00030f19       ___buffer_overrun          00431f19 f   libcmt:secfail.obj
 0001:00030f25       ___set_buffer_overrun_handler 00431f25 f   libcmt:secfail.obj
 0001:00030f35       ___isctype_mt              00431f35 f   libcmt:isctype.obj
 0001:00030fac       __isctype                  00431fac f   libcmt:isctype.obj
 0001:00030fd3       ____setlc_active_func      00431fd3 f   libcmt:setlocal.obj
 0001:00030fd9       ____unguarded_readlc_active_add_func 00431fd9 f   libcmt:setlocal.obj
 0001:00030fdf       ___freetlocinfo            00431fdf f   libcmt:setlocal.obj
 0001:00031170       ___init_dummy              00432170 f   libcmt:setlocal.obj
 0001:00031173       __strcats                  00432173 f   libcmt:setlocal.obj
 0001:00031197       ___lc_strtolc              00432197 f   libcmt:setlocal.obj
 0001:00031273       ___lc_lctostr              00432273 f   libcmt:setlocal.obj
 0001:000312c1       ___updatetlocinfo          004322c1 f   libcmt:setlocal.obj
 0001:000313d6       __expandlocale             004323d6 f   libcmt:setlocal.obj
 0001:000319a7       _setlocale                 004329a7 f   libcmt:setlocal.obj
 0001:000320e8       ___tzset                   004330e8 f   libcmt:tzset.obj
 0001:00032134       __tzset                    00433134 f   libcmt:tzset.obj
 0001:00032169       __isindst                  00433169 f   libcmt:tzset.obj
 0001:000321b0       ___ascii_stricmp           004331b0 f   libcmt:_stricmp.obj
 0001:000321fe       __gmtime64                 004331fe f   libcmt:gmtime64.obj
 0001:00032430       __allrem                   00433430 f   libcmt:llrem.obj
 0001:000324e2       __flsbuf                   004334e2 f   libcmt:_flsbuf.obj
 0001:000326a8       __output                   004336a8 f   libcmt:output.obj
 0001:00032e70       _strstr                    00433e70 f   libcmt:strstr.obj
 0001:00032ef6       ___heap_select             00433ef6 f   libcmt:heapinit.obj
 0001:00032f10       __heap_init                00433f10 f   libcmt:heapinit.obj
 0001:00032f61       __heap_term                00433f61 f   libcmt:heapinit.obj
 0001:00032fe0       __get_heap_handle          00433fe0 f   libcmt:heapinit.obj
 0001:00032fe6       __get_sbh_threshold        00433fe6 f   libcmt:sbheap.obj
 0001:00032ffb       ___sbh_heap_init           00433ffb f   libcmt:sbheap.obj
 0001:00033043       ___sbh_find_block          00434043 f   libcmt:sbheap.obj
 0001:0003306e       ___sbh_free_block          0043406e f   libcmt:sbheap.obj
 0001:00033386       ___sbh_alloc_new_region    00434386 f   libcmt:sbheap.obj
 0001:0003343d       ___sbh_alloc_new_group     0043443d f   libcmt:sbheap.obj
 0001:00033543       ___sbh_resize_block        00434543 f   libcmt:sbheap.obj
 0001:00033822       ___sbh_heapmin             00434822 f   libcmt:sbheap.obj
 0001:000338f3       ___sbh_heap_check          004348f3 f   libcmt:sbheap.obj
 0001:00033c0c       __set_sbh_threshold        00434c0c f   libcmt:sbheap.obj
 0001:00033c67       ___sbh_alloc_block         00434c67 f   libcmt:sbheap.obj
 0001:00033f63       ?_set_new_handler@@YAP6AHI@ZP6AHI@Z@Z 00434f63 f   libcmt:handler.obj
 0001:00033f87       ?_query_new_handler@@YAP6AHI@ZXZ 00434f87 f   libcmt:handler.obj
 0001:00033f8d       __callnewh                 00434f8d f   libcmt:handler.obj
 0001:00033fd4       __XcptFilter               00434fd4 f   libcmt:winxfltr.obj
 0001:00034138       ___CppXcptFilter           00435138 f   libcmt:winxfltr.obj
 0001:00034153       _calloc                    00435153 f   libcmt:calloc.obj
 0001:00034246       ___crtLCMapStringA         00435246 f   libcmt:a_map.obj
 0001:0003461c       __ValidateEH3RN            0043561c f   libcmt:eh3valid.obj
 0001:00034845       __forcdecpt                00435845 f   libcmt:cvt.obj
 0001:00034881       __cropzeros                00435881 f   libcmt:cvt.obj
 0001:000348cc       __positive                 004358cc f   libcmt:cvt.obj
 0001:000348e6       __fassign                  004358e6 f   libcmt:cvt.obj
 0001:000349ef       __cftoe                    004359ef f   libcmt:cvt.obj
 0001:00034afb       __cftof                    00435afb f   libcmt:cvt.obj
 0001:00034b62       __cftog                    00435b62 f   libcmt:cvt.obj
 0001:00034c01       __cfltcvt                  00435c01 f   libcmt:cvt.obj
 0001:00034c52       __setdefaultprecision      00435c52 f   libcmt:fp8.obj
 0001:00034c64       __ms_p5_test_fdiv          00435c64 f   libcmt:testfdiv.obj
 0001:00034ca4       __ms_p5_mp_test_fdiv       00435ca4 f   libcmt:testfdiv.obj
 0001:00034cd0       _strrchr                   00435cd0 f   libcmt:strrchr.obj
 0001:00034cfd       __close_lk                 00435cfd f   libcmt:close.obj
 0001:00034d80       __close                    00435d80 f   libcmt:close.obj
 0001:00034e1b       __freebuf                  00435e1b f   libcmt:_freebuf.obj
 0001:00034e46       ___iob_func                00435e46 f   libcmt:_file.obj
 0001:00034e4c       ___initstdio               00435e4c f   libcmt:_file.obj
 0001:00034ef5       ___endstdio                00435ef5 f   libcmt:_file.obj
 0001:00034f09       __lock_file                00435f09 f   libcmt:_file.obj
 0001:00034f38       __lock_file2               00435f38 f   libcmt:_file.obj
 0001:00034f5b       __unlock_file              00435f5b f   libcmt:_file.obj
 0001:00034f8a       __unlock_file2             00435f8a f   libcmt:_file.obj
 0001:00034fad       __stbuf                    00435fad f   libcmt:_sftbuf.obj
 0001:00035035       __ftbuf                    00436035 f   libcmt:_sftbuf.obj
 0001:0003505f       __openfile                 0043605f f   libcmt:_open.obj
 0001:000351c7       __getstream                004361c7 f   libcmt:stream.obj
 0001:000352e9       __filbuf                   004362e9 f   libcmt:_filbuf.obj
 0001:000353ca       __read_lk                  004363ca f   libcmt:read.obj
 0001:000355a7       __read                     004365a7 f   libcmt:read.obj
 0001:00035652       __lseek_lk                 00436652 f   libcmt:lseek.obj
 0001:000356c6       __lseek                    004366c6 f   libcmt:lseek.obj
 0001:00035771       ___loctotime_t             00436771 f   libcmt:dtoxtime.obj
 0001:0003587f       __write_lk                 0043687f f   libcmt:write.obj
 0001:00035a3b       __write                    00436a3b f   libcmt:write.obj
 0001:00035ae6       _isalpha                   00436ae6 f   libcmt:_ctype.obj
 0001:00035b25       _isupper                   00436b25 f   libcmt:_ctype.obj
 0001:00035b5f       _islower                   00436b5f f   libcmt:_ctype.obj
 0001:00035b99       _isdigit                   00436b99 f   libcmt:_ctype.obj
 0001:00035bd3       _isxdigit                  00436bd3 f   libcmt:_ctype.obj
 0001:00035c12       _isspace                   00436c12 f   libcmt:_ctype.obj
 0001:00035c4c       _ispunct                   00436c4c f   libcmt:_ctype.obj
 0001:00035c86       _isalnum                   00436c86 f   libcmt:_ctype.obj
 0001:00035cc5       _isprint                   00436cc5 f   libcmt:_ctype.obj
 0001:00035d04       _isgraph                   00436d04 f   libcmt:_ctype.obj
 0001:00035d43       _iscntrl                   00436d43 f   libcmt:_ctype.obj
 0001:00035d7d       ___isascii                 00436d7d f   libcmt:_ctype.obj
 0001:00035d8a       ___toascii                 00436d8a f   libcmt:_ctype.obj
 0001:00035d92       ___iscsymf                 00436d92 f   libcmt:_ctype.obj
 0001:00035dac       ___iscsym                  00436dac f   libcmt:_ctype.obj
 0001:00035dc6       ___crtGetStringTypeA       00436dc6 f   libcmt:a_str.obj
 0001:00035fd8       __input                    00436fd8 f   libcmt:input.obj
 0001:00036e03       __commit                   00437e03 f   libcmt:commit.obj
 0001:00036ebf       __filwbuf                  00437ebf f   libcmt:_filwbuf.obj
 0001:00036fab       ___mbtowc_mt               00437fab f   libcmt:mbtowc.obj
 0001:0003706b       _mbtowc                    0043806b f   libcmt:mbtowc.obj
 0001:00037096       __ungetc_lk                00438096 f   libcmt:ungetc.obj
 0001:00037102       _ungetc                    00438102 f   libcmt:ungetc.obj
 0001:00037147       ___pwctype_func            00438147 f   libcmt:ctype.obj
 0001:0003714d       ___pctype_func             0043814d f   libcmt:ctype.obj
 0001:00037153       __ioinit                   00438153 f   libcmt:ioinit.obj
 0001:00037351       __ioterm                   00438351 f   libcmt:ioinit.obj
 0001:0003739d       __fltin2                   0043839d f   libcmt:cfin.obj
 0001:0003743e       ___iswctype_mt             0043843e f   libcmt:iswctype.obj
 0001:00037495       _iswctype                  00438495 f   libcmt:iswctype.obj
 0001:000374e7       _is_wctype                 004384e7 f   libcmt:iswctype.obj
 0001:000374ec       __NMSG_WRITE               004384ec f   libcmt:crt0msg.obj
 0001:00037664       __GET_RTERRMSG             00438664 f   libcmt:crt0msg.obj
 0001:0003768e       __FF_MSGBANNER             0043868e f   libcmt:crt0msg.obj
 0001:000376c7       __wincmdln                 004386c7 f   libcmt:wincmdln.obj
 0001:00037724       __setenvp                  00438724 f   libcmt:stdenvp.obj
 0001:00037957       __setargv                  00438957 f   libcmt:stdargv.obj
 0001:000379f9       ___crtGetEnvironmentStringsA 004389f9 f   libcmt:a_env.obj
 0001:00037b1b       __RTC_Initialize           00438b1b f   libcmt:initsect.obj
 0001:00037b5f       __RTC_Terminate            00438b5f f   libcmt:initsect.obj
 0001:00037c3f       __woutput                  00438c3f f   libcmt:woutput.obj
 0001:00038430       _strpbrk                   00439430 f   libcmt:strpbrk.obj
 0001:00038470       __validdrive               00439470 f   libcmt:getcwd.obj
 0001:000384a7       __getdcwd_lk               004394a7 f   libcmt:getcwd.obj
 0001:000385ae       __getcwd                   004395ae f   libcmt:getcwd.obj
 0001:000385f4       __getdcwd                  004395f4 f   libcmt:getcwd.obj
 0001:0003864b       ___crtInitCritSecAndSpinCount 0043964b f   libcmt:initcrit.obj
 0001:000386e0       _strspn                    004396e0 f   libcmt:strspn.obj
 0001:00038730       _strcspn                   00439730 f   libcmt:strcspn.obj
 0001:00038776       ?_ValidateRead@@YAHPBXI@Z  00439776 f   libcmt:validate.obj
 0001:00038792       ?_ValidateWrite@@YAHPAXI@Z 00439792 f   libcmt:validate.obj
 0001:000387ae       ?_ValidateExecute@@YAHP6GHXZ@Z 004397ae f   libcmt:validate.obj
 0001:000387c6       _abort                     004397c6 f   libcmt:abort.obj
 0001:000387de       ___crtMessageBoxA          004397de f   libcmt:crtmbox.obj
 0001:000388d7       _localeconv                004398d7 f   libcmt:lconv.obj
 0001:00038c44       ___free_lc_time            00439c44 f   libcmt:inittime.obj
 0001:00038dd4       ___init_time               00439dd4 f   libcmt:inittime.obj
 0001:00038e66       ___free_lconv_num          00439e66 f   libcmt:initnum.obj
 0001:00038ec5       ___init_numeric            00439ec5 f   libcmt:initnum.obj
 0001:000390c5       ___free_lconv_mon          0043a0c5 f   libcmt:initmon.obj
 0001:0003919e       ___init_monetary           0043a19e f   libcmt:initmon.obj
 0001:000393dd       ___init_ctype              0043a3dd f   libcmt:initctyp.obj
 0001:000395cb       ____mb_cur_max_func        0043a5cb f   libcmt:initctyp.obj
 0001:000395d1       ____lc_codepage_func       0043a5d1 f   libcmt:initctyp.obj
 0001:000395ea       ____lc_collate_cp_func     0043a5ea f   libcmt:initctyp.obj
 0001:00039603       ____lc_handle_func         0043a603 f   libcmt:initctyp.obj
 0001:0003961c       ___init_collate            0043a61c f   libcmt:initcoll.obj
 0001:00039d72       ___get_qualified_locale    0043ad72 f   libcmt:getqloc.obj
 0001:00039f30       _strncmp                   0043af30 f   libcmt:strncmp.obj
 0001:00039f69       __getenv_lk                0043af69 f   libcmt:getenv.obj
 0001:00039fea       _getenv                    0043afea f   libcmt:getenv.obj
 0001:0003a029       __getbuf                   0043b029 f   libcmt:_getbuf.obj
 0001:0003a06d       __isatty                   0043b06d f   libcmt:isatty.obj
 0001:0003a097       ___wctomb_mt               0043b097 f   libcmt:wctomb.obj
 0001:0003a0f7       _wctomb                    0043b0f7 f   libcmt:wctomb.obj
 0001:0003a120       __aulldvrm                 0043b120 f   libcmt:ulldvrm.obj
 0001:0003a1b5       ___ansicp                  0043b1b5 f   libcmt:convrtcp.obj
 0001:0003a1fc       ___convertcp               0043b1fc f   libcmt:convrtcp.obj
 0001:0003a3d6       __tolower                  0043b3d6 f   libcmt:tolower.obj
 0001:0003a3de       ___tolower_mt              0043b3de f   libcmt:tolower.obj
 0001:0003a4a6       _tolower                   0043b4a6 f   libcmt:tolower.obj
 0001:0003a4c8       __ZeroTail                 0043b4c8 f   libcmt:intrncvt.obj
 0001:0003a4fa       __IncMan                   0043b4fa f   libcmt:intrncvt.obj
 0001:0003a547       __RoundMan                 0043b547 f   libcmt:intrncvt.obj
 0001:0003a5b9       __CopyMan                  0043b5b9 f   libcmt:intrncvt.obj
 0001:0003a5d4       __FillZeroMan              0043b5d4 f   libcmt:intrncvt.obj
 0001:0003a5e0       __IsZeroMan                0043b5e0 f   libcmt:intrncvt.obj
 0001:0003a5f9       __ShrMan                   0043b5f9 f   libcmt:intrncvt.obj
 0001:0003a674       __ld12cvt                  0043b674 f   libcmt:intrncvt.obj
 0001:0003a7cc       __ld12tod                  0043b7cc f   libcmt:intrncvt.obj
 0001:0003a7e2       __ld12tof                  0043b7e2 f   libcmt:intrncvt.obj
 0001:0003a7f8       __ld12told                 0043b7f8 f   libcmt:intrncvt.obj
 0001:0003a874       __atodbl                   0043b874 f   libcmt:intrncvt.obj
 0001:0003a8b9       __atoldbl                  0043b8b9 f   libcmt:intrncvt.obj
 0001:0003a8ff       __atoflt                   0043b8ff f   libcmt:intrncvt.obj
 0001:0003a944       __fptostr                  0043b944 f   libcmt:_fptostr.obj
 0001:0003a9bb       ___dtold                   0043b9bb f   libcmt:cfout.obj
 0001:0003aa75       __fltout2                  0043ba75 f   libcmt:cfout.obj
 0001:0003aaed       __fptrap                   0043baed f   libcmt:crt0fp.obj
 0001:0003aaf6       __fpreset                  0043baf6 f   libcmt:ieee87.obj
 0001:0003ac7a       __statusfp                 0043bc7a f   libcmt:ieee87.obj
 0001:0003ac8a       __clearfp                  0043bc8a f   libcmt:ieee87.obj
 0001:0003ac9b       __control87                0043bc9b f   libcmt:ieee87.obj
 0001:0003accd       __controlfp                0043bccd f   libcmt:ieee87.obj
 0001:0003ace3       __fcloseall                0043bce3 f   libcmt:closeall.obj
 0001:0003b065       __open                     0043c065 f   libcmt:open.obj
 0001:0003b0ba       __sopen                    0043c0ba f   libcmt:open.obj
 0001:0003b10f       __lseeki64_lk              0043c10f f   libcmt:lseeki64.obj
 0001:0003b192       __lseeki64                 0043c192 f   libcmt:lseeki64.obj
 0001:0003b250       ___strgtold12              0043c250 f   libcmt:strgtold.obj
 0001:0003b690       ___STRINGTOLD              0043c690 f   libcmt:strgtold.obj
 0001:0003b6e5       ___crtGetStringTypeW       0043c6e5 f   libcmt:w_str.obj
 0001:0003b93d       __ismbbkalnum              0043c93d f   libcmt:ismbbyte.obj
 0001:0003b94e       __ismbbkprint              0043c94e f   libcmt:ismbbyte.obj
 0001:0003b95f       __ismbbkpunct              0043c95f f   libcmt:ismbbyte.obj
 0001:0003b970       __ismbbalnum               0043c970 f   libcmt:ismbbyte.obj
 0001:0003b984       __ismbbalpha               0043c984 f   libcmt:ismbbyte.obj
 0001:0003b998       __ismbbgraph               0043c998 f   libcmt:ismbbyte.obj
 0001:0003b9ac       __ismbbprint               0043c9ac f   libcmt:ismbbyte.obj
 0001:0003b9c0       __ismbbpunct               0043c9c0 f   libcmt:ismbbyte.obj
 0001:0003b9d1       __ismbblead                0043c9d1 f   libcmt:ismbbyte.obj
 0001:0003b9e2       __ismbbtrail               0043c9e2 f   libcmt:ismbbyte.obj
 0001:0003b9f3       __ismbbkana                0043c9f3 f   libcmt:ismbbyte.obj
 0001:0003ba1a       __putwc_lk                 0043ca1a f   libcmt:fputwc.obj
 0001:0003baf4       _fputwc                    0043caf4 f   libcmt:fputwc.obj
 0001:0003bb3c       _putwc                     0043cb3c f   libcmt:fputwc.obj
 0001:0003bbfe       ___fpecode                 0043cbfe f   libcmt:winsig.obj
 0001:0003bc07       ___pxcptinfoptrs           0043cc07 f   libcmt:winsig.obj
 0001:0003bc10       _signal                    0043cc10 f   libcmt:winsig.obj
 0001:0003bdb1       _raise                     0043cdb1 f   libcmt:winsig.obj
 0001:0003bf2a       ___getlocaleinfo           0043cf2a f   libcmt:inithelp.obj
 0001:0003c05a       __stricmp                  0043d05a f   libcmt:stricmp.obj
 0001:0003c05a       _stricmp                   0043d05a f   libcmt:stricmp.obj
 0001:0003c0c3       __strnicmp                 0043d0c3 f   libcmt:strnicmp.obj
 0001:0003c180       __itoa                     0043d180 f   libcmt:xtoa.obj
 0001:0003c1aa       __ltoa                     0043d1aa f   libcmt:xtoa.obj
 0001:0003c1d1       __ultoa                    0043d1d1 f   libcmt:xtoa.obj
 0001:0003c258       __i64toa                   0043d258 f   libcmt:xtoa.obj
 0001:0003c289       __ui64toa                  0043d289 f   libcmt:xtoa.obj
 0001:0003c2a4       __mbsnbicoll               0043d2a4 f   libcmt:mbsnbico.obj
 0001:0003c2f2       ___wtomb_environ           0043d2f2 f   libcmt:wtombenv.obj
 0001:0003c382       ___addl                    0043d382 f   libcmt:mantold.obj
 0001:0003c3a3       ___add_12                  0043d3a3 f   libcmt:mantold.obj
 0001:0003c401       ___shl_12                  0043d401 f   libcmt:mantold.obj
 0001:0003c42f       ___shr_12                  0043d42f f   libcmt:mantold.obj
 0001:0003c45c       ___mtold12                 0043d45c f   libcmt:mantold.obj
 0001:0003c544       _$I10_OUTPUT               0043d544 f   libcmt:x10fout.obj
 0001:0003c7e0       __chsize_lk                0043d7e0 f   libcmt:chsize.obj
 0001:0003c925       __chsize                   0043d925 f   libcmt:chsize.obj
 0001:0003c9bc       ___ld12mul                 0043d9bc f   libcmt:tenpow.obj
 0001:0003cbf2       ___multtenpow12            0043dbf2 f   libcmt:tenpow.obj
 0001:0003cc80       __flswbuf                  0043dc80 f   libcmt:_flswbuf.obj
 0001:0003cda8       ___crtGetLocaleInfoW       0043dda8 f   libcmt:w_loc.obj
 0001:0003ced8       ___crtGetLocaleInfoA       0043ded8 f   libcmt:a_loc.obj
 0001:0003d020       ___ascii_strnicmp          0043e020 f   libcmt:_strnicm.obj
 0001:0003d09d       ___crtCompareStringA       0043e09d f   libcmt:a_cmp.obj
 0001:0003d4d5       ___crtsetenv               0043e4d5 f   libcmt:setenv.obj
 0001:0003d6ab       __setmode_lk               0043e6ab f   libcmt:setmode.obj
 0001:0003d717       __setmode                  0043e717 f   libcmt:setmode.obj
 0001:0003d7ae       _InitCommonControls@0      0043e7ae f   comctl32:COMCTL32.dll
 0001:0003d7b4       _UrlUnescapeA@16           0043e7b4 f   shlwapi:SHLWAPI.dll
 0001:0003d7ba       _PathStripToRootA@4        0043e7ba f   shlwapi:SHLWAPI.dll
 0001:0003d7c0       _PathIsUNCA@4              0043e7c0 f   shlwapi:SHLWAPI.dll
 0001:0003d7c6       _PathFindFileNameA@4       0043e7c6 f   shlwapi:SHLWAPI.dll
 0001:0003d7cc       _PathFindExtensionA@4      0043e7cc f   shlwapi:SHLWAPI.dll
 0001:0003d7d2       _PathRemoveExtensionA@4    0043e7d2 f   shlwapi:SHLWAPI.dll
 0001:0003d7d8       ?_Xran@_String_base@std@@QBEXXZ 0043e7d8 f   libcpmt:string.obj
 0001:0003d818       ?_Xlen@_String_base@std@@QBEXXZ 0043e818 f   libcpmt:string.obj
 0001:0003d858       ?ffl_purecall_handler@?A0x3463d5ea@@$$FYAXXZ 0043e858 f   ffl_dumpr:ffl_dump_unexception_filter.obj
 0001:0003d880       ?ffl_purecall_handler@?A0x3463d5ea@@YAXXZ 0043e880 f   ffl_dumpr:ffl_dump_unexception_filter.obj
 0001:0003d888       ?make_file_name@?A0x3463d5ea@@$$FYAXPADIPBD1@Z 0043e888 f   ffl_dumpr:ffl_dump_unexception_filter.obj
 0001:0003da30       ?make_file_name@?A0x3463d5ea@@YAXPADIPBD1@Z 0043ea30 f   ffl_dumpr:ffl_dump_unexception_filter.obj
 0001:0003da38       ?record@?A0x3463d5ea@@$$FYAXPAUffl_dump_param_t@@PBD@Z 0043ea38 f   ffl_dumpr:ffl_dump_unexception_filter.obj
 0001:0003daf0       ?record@?A0x3463d5ea@@YAXPAUffl_dump_param_t@@PBD@Z 0043eaf0 f   ffl_dumpr:ffl_dump_unexception_filter.obj
 0001:0003daf8       ?ffl_dump_recod_function@?A0x3463d5ea@@$$FYGIPAX@Z 0043eaf8 f   ffl_dumpr:ffl_dump_unexception_filter.obj
 0001:0003db20       ?ffl_dump_recod_function@?A0x3463d5ea@@YGIPAX@Z 0043eb20 f   ffl_dumpr:ffl_dump_unexception_filter.obj
 0001:0003db28       ??1ffl_dump_unexception_filter@@$$FQAE@XZ 0043eb28 f   ffl_dumpr:ffl_dump_unexception_filter.obj
 0001:0003db40       ??1ffl_dump_unexception_filter@@QAE@XZ 0043eb40 f   ffl_dumpr:ffl_dump_unexception_filter.obj
 0001:0003db48       ?top_level_filter@ffl_dump_unexception_filter@@$$FCGJPAU_EXCEPTION_POINTERS@@@Z 0043eb48 f   ffl_dumpr:ffl_dump_unexception_filter.obj
 0001:0003dbd0       ?top_level_filter@ffl_dump_unexception_filter@@CGJPAU_EXCEPTION_POINTERS@@@Z 0043ebd0 f   ffl_dumpr:ffl_dump_unexception_filter.obj
 0001:0003dbd8       ?do_snapping@ffl_dump_unexception_filter@@$$FCAXHPAU_EXCEPTION_POINTERS@@@Z 0043ebd8 f   ffl_dumpr:ffl_dump_unexception_filter.obj
 0001:0003dc20       ?do_snapping@ffl_dump_unexception_filter@@CAXHPAU_EXCEPTION_POINTERS@@@Z 0043ec20 f   ffl_dumpr:ffl_dump_unexception_filter.obj
 0001:0003dc28       ?install@ffl_dump_unexception_filter@@$$FSAXH@Z 0043ec28 f   ffl_dumpr:ffl_dump_unexception_filter.obj
 0001:0003dc60       ?install@ffl_dump_unexception_filter@@SAXH@Z 0043ec60 f   ffl_dumpr:ffl_dump_unexception_filter.obj
 0001:0003dc68       ?snapping@ffl_dump_unexception_filter@@$$FSAXH@Z 0043ec68 f   ffl_dumpr:ffl_dump_unexception_filter.obj
 0001:0003dcc0       ?snapping@ffl_dump_unexception_filter@@SAXH@Z 0043ecc0 f   ffl_dumpr:ffl_dump_unexception_filter.obj
 0001:0003dcc8       ??0ffl_dump_unexception_filter@@$$FQAE@H@Z 0043ecc8 f   ffl_dumpr:ffl_dump_unexception_filter.obj
 0001:0003dd00       ??0ffl_dump_unexception_filter@@QAE@H@Z 0043ed00 f   ffl_dumpr:ffl_dump_unexception_filter.obj
 0001:0003dd08       ??1ffl_date_time@@$$FQAE@XZ 0043ed08 f   ffl_dumpr:ffl_date_time.obj
 0001:0003dd40       ??1ffl_date_time@@QAE@XZ   0043ed40 f   ffl_dumpr:ffl_date_time.obj
 0001:0003dd48       ?update@ffl_date_time@@$$FQAEXXZ 0043ed48 f   ffl_dumpr:ffl_date_time.obj
 0001:0003ddb0       ?update@ffl_date_time@@QAEXXZ 0043edb0 f   ffl_dumpr:ffl_date_time.obj
 0001:0003ddb8       ?year@ffl_date_time@@$$FQBEHXZ 0043edb8 f   ffl_dumpr:ffl_date_time.obj
 0001:0003ddd0       ?year@ffl_date_time@@QBEHXZ 0043edd0 f   ffl_dumpr:ffl_date_time.obj
 0001:0003ddd8       ?month@ffl_date_time@@$$FQBEHXZ 0043edd8 f   ffl_dumpr:ffl_date_time.obj
 0001:0003ddf0       ?month@ffl_date_time@@QBEHXZ 0043edf0 f   ffl_dumpr:ffl_date_time.obj
 0001:0003ddf8       ?day@ffl_date_time@@$$FQBEHXZ 0043edf8 f   ffl_dumpr:ffl_date_time.obj
 0001:0003de10       ?day@ffl_date_time@@QBEHXZ 0043ee10 f   ffl_dumpr:ffl_date_time.obj
 0001:0003de18       ?hour@ffl_date_time@@$$FQBEHXZ 0043ee18 f   ffl_dumpr:ffl_date_time.obj
 0001:0003de30       ?hour@ffl_date_time@@QBEHXZ 0043ee30 f   ffl_dumpr:ffl_date_time.obj
 0001:0003de38       ?minute@ffl_date_time@@$$FQBEHXZ 0043ee38 f   ffl_dumpr:ffl_date_time.obj
 0001:0003de50       ?minute@ffl_date_time@@QBEHXZ 0043ee50 f   ffl_dumpr:ffl_date_time.obj
 0001:0003de58       ?second@ffl_date_time@@$$FQBEHXZ 0043ee58 f   ffl_dumpr:ffl_date_time.obj
 0001:0003de70       ?second@ffl_date_time@@QBEHXZ 0043ee70 f   ffl_dumpr:ffl_date_time.obj
 0001:0003de78       ?millisecond@ffl_date_time@@$$FQBEHXZ 0043ee78 f   ffl_dumpr:ffl_date_time.obj
 0001:0003de90       ?millisecond@ffl_date_time@@QBEHXZ 0043ee90 f   ffl_dumpr:ffl_date_time.obj
 0001:0003de98       ?day_of_week@ffl_date_time@@$$FQBEHXZ 0043ee98 f   ffl_dumpr:ffl_date_time.obj
 0001:0003deb0       ?day_of_week@ffl_date_time@@QBEHXZ 0043eeb0 f   ffl_dumpr:ffl_date_time.obj
 0001:0003deb8       ??0ffl_date_time@@$$FQAE@XZ 0043eeb8 f   ffl_dumpr:ffl_date_time.obj
 0001:0003df00       ??0ffl_date_time@@QAE@XZ   0043ef00 f   ffl_dumpr:ffl_date_time.obj
 0001:0003df08       ?ffl_vsnprintf_a@@$$FYAHPADIPBD0@Z 0043ef08 f   ffl_dumpr:ffl_c_string.obj
 0001:0003df30       ?ffl_vsnprintf_a@@YAHPADIPBD0@Z 0043ef30 f   ffl_dumpr:ffl_c_string.obj
 0001:0003df40       ?ffl_snprintf_a@@YAHPADIPBDZZ 0043ef40 f   ffl_dumpr:ffl_c_string.obj
 0001:0003df88       ?ffl_strncpy_a@@$$FYAHPADIPBDI@Z 0043ef88 f   ffl_dumpr:ffl_c_string.obj
 0001:0003dfb0       ?ffl_strncpy_a@@YAHPADIPBDI@Z 0043efb0 f   ffl_dumpr:ffl_c_string.obj
 0001:0003dfb8       ?ffl_splitpath_a@@$$FYAHPBDPADI1I1I1I@Z 0043efb8 f   ffl_dumpr:ffl_c_string.obj
 0001:0003dfe0       ?ffl_splitpath_a@@YAHPBDPADI1I1I1I@Z 0043efe0 f   ffl_dumpr:ffl_c_string.obj
 0001:0003dfe8       ?ffl_makepath_a@@$$FYAHPADIPBD111@Z 0043efe8 f   ffl_dumpr:ffl_c_string.obj
 0001:0003e010       ?ffl_makepath_a@@YAHPADIPBD111@Z 0043f010 f   ffl_dumpr:ffl_c_string.obj
 0001:0003e018       ?ffl_vsnprintf_w@@$$FYAHPAGIPBGPAD@Z 0043f018 f   ffl_dumpr:ffl_c_string.obj
 0001:0003e040       ?ffl_vsnprintf_w@@YAHPAGIPBGPAD@Z 0043f040 f   ffl_dumpr:ffl_c_string.obj
 0001:0003e050       ?ffl_snprintf_w@@YAHPAGIPBGZZ 0043f050 f   ffl_dumpr:ffl_c_string.obj
 0001:0003e098       ?ffl_strncpy_w@@$$FYAHPAGIPBGI@Z 0043f098 f   ffl_dumpr:ffl_c_string.obj
 0001:0003e0c0       ?ffl_strncpy_w@@YAHPAGIPBGI@Z 0043f0c0 f   ffl_dumpr:ffl_c_string.obj
 0001:0003e0c8       ?ffl_splitpath_w@@$$FYAHPBGPAGI1I1I1I@Z 0043f0c8 f   ffl_dumpr:ffl_c_string.obj
 0001:0003e0f0       ?ffl_splitpath_w@@YAHPBGPAGI1I1I1I@Z 0043f0f0 f   ffl_dumpr:ffl_c_string.obj
 0001:0003e0f8       ?ffl_makepath_w@@$$FYAHPAGIPBG111@Z 0043f0f8 f   ffl_dumpr:ffl_c_string.obj
 0001:0003e120       ?ffl_makepath_w@@YAHPAGIPBG111@Z 0043f120 f   ffl_dumpr:ffl_c_string.obj
 0001:0003e128       ??0ffl_dump_report@@$$FQAE@XZ 0043f128 f   ffl_dumpr:ffl_dump_report.obj
 0001:0003e160       ??0ffl_dump_report@@QAE@XZ 0043f160 f   ffl_dumpr:ffl_dump_report.obj
 0001:0003e168       ??1ffl_dump_report@@$$FQAE@XZ 0043f168 f   ffl_dumpr:ffl_dump_report.obj
 0001:0003e180       ??1ffl_dump_report@@QAE@XZ 0043f180 f   ffl_dumpr:ffl_dump_report.obj
 0001:0003e188       ?get_logical_address@ffl_dump_report@@$$FAAE_NPAXPADKPAK2@Z 0043f188 f   ffl_dumpr:ffl_dump_report.obj
 0001:0003e240       ?get_logical_address@ffl_dump_report@@AAE_NPAXPADKPAK2@Z 0043f240 f   ffl_dumpr:ffl_dump_report.obj
 0001:0003e248       ?inti_imagehlp_func@ffl_dump_report@@$$FAAE_NPAUHINSTANCE__@@@Z 0043f248 f   ffl_dumpr:ffl_dump_report.obj
 0001:0003e300       ?inti_imagehlp_func@ffl_dump_report@@AAE_NPAUHINSTANCE__@@@Z 0043f300 f   ffl_dumpr:ffl_dump_report.obj
 0001:0003e308       ?intel_stack_walk@ffl_dump_report@@$$FAAEXPAVffl_text_file@@PAU_CONTEXT@@@Z 0043f308 f   ffl_dumpr:ffl_dump_report.obj
 0001:0003e3f0       ?intel_stack_walk@ffl_dump_report@@AAEXPAVffl_text_file@@PAU_CONTEXT@@@Z 0043f3f0 f   ffl_dumpr:ffl_dump_report.obj
 0001:0003e3f8       ?imagehlp_stack_walk@ffl_dump_report@@$$FAAEXPAVffl_text_file@@PAU_CONTEXT@@PAX@Z 0043f3f8 f   ffl_dumpr:ffl_dump_report.obj
 0001:0003e560       ?imagehlp_stack_walk@ffl_dump_report@@AAEXPAVffl_text_file@@PAU_CONTEXT@@PAX@Z 0043f560 f   ffl_dumpr:ffl_dump_report.obj
 0001:0003e568       ?generate_exception@ffl_dump_report@@$$FAAEXPAVffl_text_file@@PAUffl_dump_param_t@@@Z 0043f568 f   ffl_dumpr:ffl_dump_report.obj
 0001:0003e700       ?generate_exception@ffl_dump_report@@AAEXPAVffl_text_file@@PAUffl_dump_param_t@@@Z 0043f700 f   ffl_dumpr:ffl_dump_report.obj
 0001:0003e708       ?report@ffl_dump_report@@$$FAAEXPAVffl_text_file@@PAUffl_dump_param_t@@@Z 0043f708 f   ffl_dumpr:ffl_dump_report.obj
 0001:0003e760       ?report@ffl_dump_report@@AAEXPAVffl_text_file@@PAUffl_dump_param_t@@@Z 0043f760 f   ffl_dumpr:ffl_dump_report.obj
 0001:0003e768       ?dump@ffl_dump_report@@$$FQAEXPBDPAUffl_dump_param_t@@@Z 0043f768 f   ffl_dumpr:ffl_dump_report.obj
 0001:0003e7e0       ?dump@ffl_dump_report@@QAEXPBDPAUffl_dump_param_t@@@Z 0043f7e0 f   ffl_dumpr:ffl_dump_report.obj
 0001:0003e7e8       ?system_information_log@ffl_dump_log@@$$FAAEXPAVffl_text_file@@@Z 0043f7e8 f   ffl_dumpr:ffl_dump_log.obj
 0001:0003e9c0       ?system_information_log@ffl_dump_log@@AAEXPAVffl_text_file@@@Z 0043f9c0 f   ffl_dumpr:ffl_dump_log.obj
 0001:0003e9c8       ?register_log@ffl_dump_log@@$$FAAEXPAVffl_text_file@@PAU_CONTEXT@@@Z 0043f9c8 f   ffl_dumpr:ffl_dump_log.obj
 0001:0003ea90       ?register_log@ffl_dump_log@@AAEXPAVffl_text_file@@PAU_CONTEXT@@@Z 0043fa90 f   ffl_dumpr:ffl_dump_log.obj
 0001:0003eaa0       ?stack_log@ffl_dump_log@@AAEXPAVffl_text_file@@PAK@Z 0043faa0 f   ffl_dumpr:ffl_dump_log.obj
 0001:0003ec70       ?print_module_info@ffl_dump_log@@$$FAAEXPAVffl_text_file@@PBD@Z 0043fc70 f   ffl_dumpr:ffl_dump_log.obj
 0001:0003ed30       ?print_module_info@ffl_dump_log@@AAEXPAVffl_text_file@@PBD@Z 0043fd30 f   ffl_dumpr:ffl_dump_log.obj
 0001:0003ed38       ?module_info_log@ffl_dump_log@@$$FAAE_NPAVffl_text_file@@PAUHINSTANCE__@@H@Z 0043fd38 f   ffl_dumpr:ffl_dump_log.obj
 0001:0003ee70       ?module_info_log@ffl_dump_log@@AAE_NPAVffl_text_file@@PAUHINSTANCE__@@H@Z 0043fe70 f   ffl_dumpr:ffl_dump_log.obj
 0001:0003ee78       ?module_list_log@ffl_dump_log@@$$FAAEXPAVffl_text_file@@@Z 0043fe78 f   ffl_dumpr:ffl_dump_log.obj
 0001:0003ef20       ?module_list_log@ffl_dump_log@@AAEXPAVffl_text_file@@@Z 0043ff20 f   ffl_dumpr:ffl_dump_log.obj
 0001:0003ef28       ?log@ffl_dump_log@@$$FAAEXPAVffl_text_file@@PAUffl_dump_param_t@@@Z 0043ff28 f   ffl_dumpr:ffl_dump_log.obj
 0001:0003f0d0       ?log@ffl_dump_log@@AAEXPAVffl_text_file@@PAUffl_dump_param_t@@@Z 004400d0 f   ffl_dumpr:ffl_dump_log.obj
 0001:0003f0d8       ?dump@ffl_dump_log@@$$FQAEXPBDPAUffl_dump_param_t@@@Z 004400d8 f   ffl_dumpr:ffl_dump_log.obj
 0001:0003f150       ?dump@ffl_dump_log@@QAEXPBDPAUffl_dump_param_t@@@Z 00440150 f   ffl_dumpr:ffl_dump_log.obj
 0001:0003f158       ?_tcsrchr@@$$J0YAPADPBDI@Z 00440158 f i ffl_dumpr:ffl_dump_mini.obj
 0001:0003f16c       ?find_dll@ffl_dump_mini@@$$FAAEPAUHINSTANCE__@@XZ 0044016c f   ffl_dumpr:ffl_dump_mini.obj
 0001:0003f1e0       ?find_dll@ffl_dump_mini@@AAEPAUHINSTANCE__@@XZ 004401e0 f   ffl_dumpr:ffl_dump_mini.obj
 0001:0003f1e8       ?write@ffl_dump_mini@@$$FAAEXPAXPAUffl_dump_param_t@@@Z 004401e8 f   ffl_dumpr:ffl_dump_mini.obj
 0001:0003f270       ?write@ffl_dump_mini@@AAEXPAXPAUffl_dump_param_t@@@Z 00440270 f   ffl_dumpr:ffl_dump_mini.obj
 0001:0003f278       ?dump@ffl_dump_mini@@$$FQAEXPBDPAUffl_dump_param_t@@@Z 00440278 f   ffl_dumpr:ffl_dump_mini.obj
 0001:0003f2c0       ?dump@ffl_dump_mini@@QAEXPBDPAUffl_dump_param_t@@@Z 004402c0 f   ffl_dumpr:ffl_dump_mini.obj
 0001:0003f2c8       ?ffl_get_win_version@@$$FYAXPADI0I@Z 004402c8 f   ffl_dumpr:ffl_dump_common.obj
 0001:0003f570       ?ffl_get_win_version@@YAXPADI0I@Z 00440570 f   ffl_dumpr:ffl_dump_common.obj
 0001:0003f578       ?ffl_formating_time@@$$FYAXPADIPAU_FILETIME@@@Z 00440578 f   ffl_dumpr:ffl_dump_common.obj
 0001:0003f5e0       ?ffl_formating_time@@YAXPADIPAU_FILETIME@@@Z 004405e0 f   ffl_dumpr:ffl_dump_common.obj
 0001:0003f5e8       ?ffl_get_exception_string@@$$FYAPBDK@Z 004405e8 f   ffl_dumpr:ffl_dump_common.obj
 0001:0003fb00       ?ffl_get_exception_string@@YAPBDK@Z 00440b00 f   ffl_dumpr:ffl_dump_common.obj
 0001:0003fb10       ?ffl_dump_print@@YAXPAVffl_text_file@@PBDZZ 00440b10 f   ffl_dumpr:ffl_dump_common.obj
 0001:0003fbc0       ??0ffl_text_file@@$$FQAE@XZ 00440bc0 f   ffl_dumpr:ffl_text_file.obj
 0001:0003fbe0       ??0ffl_text_file@@QAE@XZ   00440be0 f   ffl_dumpr:ffl_text_file.obj
 0001:0003fbe8       ?create@ffl_text_file@@$$FQAE_NPBDII@Z 00440be8 f   ffl_dumpr:ffl_text_file.obj
 0001:0003fc10       ?create@ffl_text_file@@QAE_NPBDII@Z 00440c10 f   ffl_dumpr:ffl_text_file.obj
 0001:0003fc18       ?open@ffl_text_file@@$$FQAE_NPBDII@Z 00440c18 f   ffl_dumpr:ffl_text_file.obj
 0001:0003fc40       ?open@ffl_text_file@@QAE_NPBDII@Z 00440c40 f   ffl_dumpr:ffl_text_file.obj
 0001:0003fc48       ?close@ffl_text_file@@$$FQAEXXZ 00440c48 f   ffl_dumpr:ffl_text_file.obj
 0001:0003fc60       ?close@ffl_text_file@@QAEXXZ 00440c60 f   ffl_dumpr:ffl_text_file.obj
 0001:0003fc68       ?opened@ffl_text_file@@$$FQAE_NXZ 00440c68 f   ffl_dumpr:ffl_text_file.obj
 0001:0003fc80       ?opened@ffl_text_file@@QAE_NXZ 00440c80 f   ffl_dumpr:ffl_text_file.obj
 0001:0003fc88       ?write_text@ffl_text_file@@$$FQAEIPBDI@Z 00440c88 f   ffl_dumpr:ffl_text_file.obj
 0001:0003fcc0       ?write_text@ffl_text_file@@QAEIPBDI@Z 00440cc0 f   ffl_dumpr:ffl_text_file.obj
 0001:0003fcc8       ?read_text@ffl_text_file@@$$FQAEIPADI@Z 00440cc8 f   ffl_dumpr:ffl_text_file.obj
 0001:0003fd00       ?read_text@ffl_text_file@@QAEIPADI@Z 00440d00 f   ffl_dumpr:ffl_text_file.obj
 0001:0003fd08       ?read_line@ffl_text_file@@$$FQAEIPADI@Z 00440d08 f   ffl_dumpr:ffl_text_file.obj
 0001:0003fd90       ?read_line@ffl_text_file@@QAEIPADI@Z 00440d90 f   ffl_dumpr:ffl_text_file.obj
 0001:0003fd98       ?flush@ffl_text_file@@$$FQAE_NXZ 00440d98 f   ffl_dumpr:ffl_text_file.obj
 0001:0003fdb0       ?flush@ffl_text_file@@QAE_NXZ 00440db0 f   ffl_dumpr:ffl_text_file.obj
 0001:0003fdb8       ?size@ffl_text_file@@$$FQAE_KXZ 00440db8 f   ffl_dumpr:ffl_text_file.obj
 0001:0003fdd0       ?size@ffl_text_file@@QAE_KXZ 00440dd0 f   ffl_dumpr:ffl_text_file.obj
 0001:0003fdd8       ??1ffl_text_file@@$$FQAE@XZ 00440dd8 f   ffl_dumpr:ffl_text_file.obj
 0001:0003fe20       ??1ffl_text_file@@QAE@XZ   00440e20 f   ffl_dumpr:ffl_text_file.obj
 0001:0003fe28       ??0ffl_module_info@@$$FQAE@XZ 00440e28 f   ffl_dumpr:ffl_module_info.obj
 0001:0003fe70       ??0ffl_module_info@@QAE@XZ 00440e70 f   ffl_dumpr:ffl_module_info.obj
 0001:0003fe78       ?company_name@ffl_module_info@@$$FQBEPBDXZ 00440e78 f   ffl_dumpr:ffl_module_info.obj
 0001:0003fe90       ?company_name@ffl_module_info@@QBEPBDXZ 00440e90 f   ffl_dumpr:ffl_module_info.obj
 0001:0003fe98       ?product_name@ffl_module_info@@$$FQBEPBDXZ 00440e98 f   ffl_dumpr:ffl_module_info.obj
 0001:0003feb0       ?product_name@ffl_module_info@@QBEPBDXZ 00440eb0 f   ffl_dumpr:ffl_module_info.obj
 0001:0003feb8       ?file_description@ffl_module_info@@$$FQBEPBDXZ 00440eb8 f   ffl_dumpr:ffl_module_info.obj
 0001:0003fed0       ?file_description@ffl_module_info@@QBEPBDXZ 00440ed0 f   ffl_dumpr:ffl_module_info.obj
 0001:0003fed8       ?file_version@ffl_module_info@@$$FQBEPBGXZ 00440ed8 f   ffl_dumpr:ffl_module_info.obj
 0001:0003fef0       ?file_version@ffl_module_info@@QBEPBGXZ 00440ef0 f   ffl_dumpr:ffl_module_info.obj
 0001:0003fef8       ?product_version@ffl_module_info@@$$FQBEPBGXZ 00440ef8 f   ffl_dumpr:ffl_module_info.obj
 0001:0003ff10       ?product_version@ffl_module_info@@QBEPBGXZ 00440f10 f   ffl_dumpr:ffl_module_info.obj
 0001:0003ff18       ?query_fixed_info@ffl_module_info@@$$FAAE_NPAXPAUtagVS_FIXEDFILEINFO@@@Z 00440f18 f   ffl_dumpr:ffl_module_info.obj
 0001:0003ff50       ?query_fixed_info@ffl_module_info@@AAE_NPAXPAUtagVS_FIXEDFILEINFO@@@Z 00440f50 f   ffl_dumpr:ffl_module_info.obj
 0001:0003ff58       ?query_string_info@ffl_module_info@@$$FAAE_NPAXPBDPADI@Z 00440f58 f   ffl_dumpr:ffl_module_info.obj
 0001:0003fff0       ?query_string_info@ffl_module_info@@AAE_NPAXPBDPADI@Z 00440ff0 f   ffl_dumpr:ffl_module_info.obj
 0001:0003fff8       ?load_info@ffl_module_info@@$$FQAE_NPBD@Z 00440ff8 f   ffl_dumpr:ffl_module_info.obj
 0001:00040110       ?load_info@ffl_module_info@@QAE_NPBD@Z 00441110 f   ffl_dumpr:ffl_module_info.obj
 0001:00040118       ??0ffl_file@@$$FQAE@XZ     00441118 f   ffl_dumpr:ffl_file.obj
 0001:00040130       ??0ffl_file@@QAE@XZ        00441130 f   ffl_dumpr:ffl_file.obj
 0001:00040138       ?create@ffl_file@@$$FQAE_NPBDII@Z 00441138 f   ffl_dumpr:ffl_file.obj
 0001:00040170       ?create@ffl_file@@QAE_NPBDII@Z 00441170 f   ffl_dumpr:ffl_file.obj
 0001:00040178       ?open@ffl_file@@$$FQAE_NPBDII@Z 00441178 f   ffl_dumpr:ffl_file.obj
 0001:000401b0       ?open@ffl_file@@QAE_NPBDII@Z 004411b0 f   ffl_dumpr:ffl_file.obj
 0001:000401b8       ?close@ffl_file@@$$FQAEXXZ 004411b8 f   ffl_dumpr:ffl_file.obj
 0001:000401e0       ?close@ffl_file@@QAEXXZ    004411e0 f   ffl_dumpr:ffl_file.obj
 0001:000401e8       ?opened@ffl_file@@$$FQAE_NXZ 004411e8 f   ffl_dumpr:ffl_file.obj
 0001:00040200       ?opened@ffl_file@@QAE_NXZ  00441200 f   ffl_dumpr:ffl_file.obj
 0001:00040208       ?read@ffl_file@@$$FQAEIPAXI@Z 00441208 f   ffl_dumpr:ffl_file.obj
 0001:00040240       ?read@ffl_file@@QAEIPAXI@Z 00441240 f   ffl_dumpr:ffl_file.obj
 0001:00040248       ?write@ffl_file@@$$FQAEIPBXI@Z 00441248 f   ffl_dumpr:ffl_file.obj
 0001:00040270       ?write@ffl_file@@QAEIPBXI@Z 00441270 f   ffl_dumpr:ffl_file.obj
 0001:00040278       ?seek@ffl_file@@$$FQAE_J_JH@Z 00441278 f   ffl_dumpr:ffl_file.obj
 0001:000402d0       ?seek@ffl_file@@QAE_J_JH@Z 004412d0 f   ffl_dumpr:ffl_file.obj
 0001:000402d8       ?flush@ffl_file@@$$FQAE_NXZ 004412d8 f   ffl_dumpr:ffl_file.obj
 0001:00040300       ?flush@ffl_file@@QAE_NXZ   00441300 f   ffl_dumpr:ffl_file.obj
 0001:00040308       ?size@ffl_file@@$$FQAE_KXZ 00441308 f   ffl_dumpr:ffl_file.obj
 0001:00040350       ?size@ffl_file@@QAE_KXZ    00441350 f   ffl_dumpr:ffl_file.obj
 0001:00040358       ??1ffl_file@@$$FQAE@XZ     00441358 f   ffl_dumpr:ffl_file.obj
 0001:00040380       ??1ffl_file@@QAE@XZ        00441380 f   ffl_dumpr:ffl_file.obj
 0001:00040386       _InternetCrackUrlA@16      00441386 f   wininet:WININET.dll
 0001:0004038c       _InternetCanonicalizeUrlA@16 0044138c f   wininet:WININET.dll
 0001:00040392       _InternetQueryOptionA@16   00441392 f   wininet:WININET.dll
 0001:00040398       _InternetSetOptionExA@20   00441398 f   wininet:WININET.dll
 0001:0004039e       _InternetSetCookieA@12     0044139e f   wininet:WININET.dll
 0001:000403a4       _InternetGetCookieA@16     004413a4 f   wininet:WININET.dll
 0001:000403aa       _InternetQueryDataAvailable@16 004413aa f   wininet:WININET.dll
 0001:000403b0       _FtpDeleteFileA@8          004413b0 f   wininet:WININET.dll
 0001:000403b6       _FtpRenameFileA@12         004413b6 f   wininet:WININET.dll
 0001:000403bc       _FtpCreateDirectoryA@8     004413bc f   wininet:WININET.dll
 0001:000403c2       _FtpRemoveDirectoryA@8     004413c2 f   wininet:WININET.dll
 0001:000403c8       _FtpSetCurrentDirectoryA@8 004413c8 f   wininet:WININET.dll
 0001:000403ce       _FtpGetCurrentDirectoryA@12 004413ce f   wininet:WININET.dll
 0001:000403d4       _FtpPutFileA@20            004413d4 f   wininet:WININET.dll
 0001:000403da       _FtpGetFileA@28            004413da f   wininet:WININET.dll
 0001:000403e0       _InternetErrorDlg@20       004413e0 f   wininet:WININET.dll
 0001:000403e6       _HttpAddRequestHeadersA@16 004413e6 f   wininet:WININET.dll
 0001:000403ec       _HttpQueryInfoA@20         004413ec f   wininet:WININET.dll
 0001:000403f2       _InternetFindNextFileA@8   004413f2 f   wininet:WININET.dll
 0001:000403f8       _InternetCloseHandle@4     004413f8 f   wininet:WININET.dll
 0001:000403fe       _InternetGetLastResponseInfoA@12 004413fe f   wininet:WININET.dll
 0001:00040404       _GopherFindFirstFileA@24   00441404 f   wininet:WININET.dll
 0001:0004040a       _InternetOpenA@20          0044140a f   wininet:WININET.dll
 0001:00040410       _InternetSetStatusCallback@8 00441410 f   wininet:WININET.dll
 0001:00040416       _InternetSetFilePointer@20 00441416 f   wininet:WININET.dll
 0001:0004041c       _InternetWriteFile@16      0044141c f   wininet:WININET.dll
 0001:00040422       _InternetReadFile@16       00441422 f   wininet:WININET.dll
 0001:00040428       _HttpSendRequestA@20       00441428 f   wininet:WININET.dll
 0001:0004042e       _HttpEndRequestA@16        0044142e f   wininet:WININET.dll
 0001:00040434       _HttpSendRequestExA@20     00441434 f   wininet:WININET.dll
 0001:0004043a       _GopherGetAttributeA@32    0044143a f   wininet:WININET.dll
 0001:00040440       _FtpOpenFileA@20           00441440 f   wininet:WININET.dll
 0001:00040446       _FtpCommandA@24            00441446 f   wininet:WININET.dll
 0001:0004044c       _GopherCreateLocatorA@28   0044144c f   wininet:WININET.dll
 0001:00040452       _FtpFindFirstFileA@20      00441452 f   wininet:WININET.dll
 0001:00040458       _InternetConnectA@32       00441458 f   wininet:WININET.dll
 0001:0004045e       _GopherOpenFileA@20        0044145e f   wininet:WININET.dll
 0001:00040464       _InternetOpenUrlA@24       00441464 f   wininet:WININET.dll
 0001:0004046a       _HttpOpenRequestA@32       0044146a f   wininet:WININET.dll
 0001:00040470       ??0?$CSimpleArray@PAUHINSTANCE__@@V?$CSimpleArrayEqualHelper@PAUHINSTANCE__@@@ATL@@@ATL@@QAE@XZ 00441470 f i atls:atlbase.obj
 0001:0004047d       ?GetSize@?$CSimpleArray@PAUHINSTANCE__@@V?$CSimpleArrayEqualHelper@PAUHINSTANCE__@@@ATL@@@ATL@@QBEHXZ 0044147d f i atls:atlbase.obj
 0001:00040481       ?RemoveAt@?$CSimpleArray@PAUHINSTANCE__@@V?$CSimpleArrayEqualHelper@PAUHINSTANCE__@@@ATL@@@ATL@@QAEHH@Z 00441481 f i atls:atlbase.obj
 0001:000404c4       ?RemoveAll@?$CSimpleArray@PAUHINSTANCE__@@V?$CSimpleArrayEqualHelper@PAUHINSTANCE__@@@ATL@@@ATL@@QAEXXZ 004414c4 f i atls:atlbase.obj
 0001:000404e1       ??0Wrapper@?$CSimpleArray@PAUHINSTANCE__@@V?$CSimpleArrayEqualHelper@PAUHINSTANCE__@@@ATL@@@ATL@@QAE@ABQAUHINSTANCE__@@@Z 004414e1 f i atls:atlbase.obj
 0001:000404ee       ??$?2PAUHINSTANCE__@@@Wrapper@?$CSimpleArray@PAUHINSTANCE__@@V?$CSimpleArrayEqualHelper@PAUHINSTANCE__@@@ATL@@@ATL@@SAPAXIPAPAUHINSTANCE__@@@Z 004414ee f i atls:atlbase.obj
 0001:000404f3       ?Lock@CComCriticalSection@ATL@@QAEJXZ 004414f3 f i atls:atlbase.obj
 0001:000404fd       ?Unlock@CComCriticalSection@ATL@@QAEJXZ 004414fd f i atls:atlbase.obj
 0001:00040507       ?Lock@?$CComCritSecLock@VCComCriticalSection@ATL@@@ATL@@QAEJXZ 00441507 f i atls:atlbase.obj
 0001:0004051a       ??1?$CSimpleArray@PAUHINSTANCE__@@V?$CSimpleArrayEqualHelper@PAUHINSTANCE__@@@ATL@@@ATL@@QAE@XZ 0044151a f i atls:atlbase.obj
 0001:0004051f       ??A?$CSimpleArray@PAUHINSTANCE__@@V?$CSimpleArrayEqualHelper@PAUHINSTANCE__@@@ATL@@@ATL@@QAEAAPAUHINSTANCE__@@H@Z 0044151f f i atls:atlbase.obj
 0001:00040546       ?InternalSetAtIndex@?$CSimpleArray@PAUHINSTANCE__@@V?$CSimpleArrayEqualHelper@PAUHINSTANCE__@@@ATL@@@ATL@@QAEXHABQAUHINSTANCE__@@@Z 00441546 f i atls:atlbase.obj
 0001:0004055e       ?Unlock@?$CComCritSecLock@VCComCriticalSection@ATL@@@ATL@@QAEXXZ 0044155e f i atls:atlbase.obj
 0001:0004056f       ??0?$CComCritSecLock@VCComCriticalSection@ATL@@@ATL@@QAE@AAVCComCriticalSection@1@_N@Z 0044156f f i atls:atlbase.obj
 0001:00040598       ??1?$CComCritSecLock@VCComCriticalSection@ATL@@@ATL@@QAE@XZ 00441598 f i atls:atlbase.obj
 0001:000405af       ??0_ATL_BASE_MODULE70@ATL@@QAE@XZ 004415af f i atls:atlbase.obj
 0001:000405c9       ??1_ATL_BASE_MODULE70@ATL@@QAE@XZ 004415c9 f i atls:atlbase.obj
 0001:000405d1       ??1CAtlBaseModule@ATL@@QAE@XZ 004415d1 f   atls:atlbase.obj
 0001:000405e7       ?RemoveResourceInstance@CAtlBaseModule@ATL@@QAE_NPAUHINSTANCE__@@@Z 004415e7 f   atls:atlbase.obj
 0001:00040640       ?GetHInstanceAt@CAtlBaseModule@ATL@@QAEPAUHINSTANCE__@@H@Z 00441640 f   atls:atlbase.obj
 0001:0004068e       ?Add@?$CSimpleArray@PAUHINSTANCE__@@V?$CSimpleArrayEqualHelper@PAUHINSTANCE__@@@ATL@@@ATL@@QAEHABQAUHINSTANCE__@@@Z 0044168e f i atls:atlbase.obj
 0001:000406d9       ??0CAtlBaseModule@ATL@@QAE@XZ 004416d9 f   atls:atlbase.obj
 0001:00040788       ?AddResourceInstance@CAtlBaseModule@ATL@@QAE_NPAUHINSTANCE__@@@Z 00441788 f   atls:atlbase.obj
 0001:000407c4       _CreateStdAccessibleObject@16 004417c4 f   oleacc:OLEACC.dll
 0001:000407ca       _AccessibleObjectFromWindow@16 004417ca f   oleacc:OLEACC.dll
 0001:000407d0       _LresultFromObject@12      004417d0 f   oleacc:OLEACC.dll
 0001:000407d6       _LocalFree@4               004417d6 f   kernel32:KERNEL32.dll
 0001:000407dc       _FormatMessageA@28         004417dc f   kernel32:KERNEL32.dll
 0001:000407e2       _GlobalUnlock@4            004417e2 f   kernel32:KERNEL32.dll
 0001:000407e8       _GlobalLock@4              004417e8 f   kernel32:KERNEL32.dll
 0001:000407ee       _GlobalAlloc@8             004417ee f   kernel32:KERNEL32.dll
 0001:000407f4       _GlobalSize@4              004417f4 f   kernel32:KERNEL32.dll
 0001:000407fa       _MulDiv@12                 004417fa f   kernel32:KERNEL32.dll
 0001:00040800       _CopyFileA@12              00441800 f   kernel32:KERNEL32.dll
 0001:00040806       _GlobalFree@4              00441806 f   kernel32:KERNEL32.dll
 0001:0004080c       _SetLastError@4            0044180c f   kernel32:KERNEL32.dll
 0001:00040812       _FileTimeToSystemTime@8    00441812 f   kernel32:KERNEL32.dll
 0001:00040818       _FileTimeToLocalFileTime@8 00441818 f   kernel32:KERNEL32.dll
 0001:0004081e       _LocalAlloc@8              0044181e f   kernel32:KERNEL32.dll
 0001:00040824       _RaiseException@16         00441824 f   kernel32:KERNEL32.dll
 0001:0004082a       _GlobalReAlloc@12          0044182a f   kernel32:KERNEL32.dll
 0001:00040830       _GlobalHandle@4            00441830 f   kernel32:KERNEL32.dll
 0001:00040836       _TlsGetValue@4             00441836 f   kernel32:KERNEL32.dll
 0001:0004083c       _TlsAlloc@0                0044183c f   kernel32:KERNEL32.dll
 0001:00040842       _TlsSetValue@8             00441842 f   kernel32:KERNEL32.dll
 0001:00040848       _LocalReAlloc@12           00441848 f   kernel32:KERNEL32.dll
 0001:0004084e       _TlsFree@4                 0044184e f   kernel32:KERNEL32.dll
 0001:00040854       _SystemTimeToFileTime@8    00441854 f   kernel32:KERNEL32.dll
 0001:0004085a       _ResumeThread@4            0044185a f   kernel32:KERNEL32.dll
 0001:00040860       _SuspendThread@4           00441860 f   kernel32:KERNEL32.dll
 0001:00040866       _FindClose@4               00441866 f   kernel32:KERNEL32.dll
 0001:0004086c       _FindNextFileA@8           0044186c f   kernel32:KERNEL32.dll
 0001:00040872       _FindFirstFileA@8          00441872 f   kernel32:KERNEL32.dll
 0001:00040878       _MoveFileA@8               00441878 f   kernel32:KERNEL32.dll
 0001:0004087e       _DeleteFileA@4             0044187e f   kernel32:KERNEL32.dll
 0001:00040884       _ReadFile@20               00441884 f   kernel32:KERNEL32.dll
 0001:0004088a       _WriteFile@20              0044188a f   kernel32:KERNEL32.dll
 0001:00040890       _SetFilePointer@16         00441890 f   kernel32:KERNEL32.dll
 0001:00040896       _FlushFileBuffers@4        00441896 f   kernel32:KERNEL32.dll
 0001:0004089c       _LockFile@20               0044189c f   kernel32:KERNEL32.dll
 0001:000408a2       _UnlockFile@20             004418a2 f   kernel32:KERNEL32.dll
 0001:000408a8       _SetEndOfFile@4            004418a8 f   kernel32:KERNEL32.dll
 0001:000408ae       _GetFileSize@8             004418ae f   kernel32:KERNEL32.dll
 0001:000408b4       _DuplicateHandle@28        004418b4 f   kernel32:KERNEL32.dll
 0001:000408ba       _GetCurrentProcess@0       004418ba f   kernel32:KERNEL32.dll
 0001:000408c0       _GetVolumeInformationA@32  004418c0 f   kernel32:KERNEL32.dll
 0001:000408c6       _GetShortPathNameA@12      004418c6 f   kernel32:KERNEL32.dll
 0001:000408cc       _LocalFileTimeToFileTime@8 004418cc f   kernel32:KERNEL32.dll
 0001:000408d2       _SetFileTime@16            004418d2 f   kernel32:KERNEL32.dll
 0001:000408d8       _SetFileAttributesA@8      004418d8 f   kernel32:KERNEL32.dll
 0001:000408de       _GetFileTime@16            004418de f   kernel32:KERNEL32.dll
 0001:000408e4       _GlobalFlags@4             004418e4 f   kernel32:KERNEL32.dll
 0001:000408ea       _GetModuleHandleA@4        004418ea f   kernel32:KERNEL32.dll
 0001:000408f0       _lstrcmpW@8                004418f0 f   kernel32:KERNEL32.dll
 0001:000408f6       _GlobalDeleteAtom@4        004418f6 f   kernel32:KERNEL32.dll
 0001:000408fc       _GlobalFindAtomA@4         004418fc f   kernel32:KERNEL32.dll
 0001:00040902       _GlobalAddAtomA@4          00441902 f   kernel32:KERNEL32.dll
 0001:00040908       _GlobalGetAtomNameA@12     00441908 f   kernel32:KERNEL32.dll
 0001:0004090e       _FreeResource@4            0044190e f   kernel32:KERNEL32.dll
 0001:00040914       _EnumResourceLanguagesA@20 00441914 f   kernel32:KERNEL32.dll
 0001:0004091a       _ConvertDefaultLocale@4    0044191a f   kernel32:KERNEL32.dll
 0001:00040920       _GetCurrentThread@0        00441920 f   kernel32:KERNEL32.dll
 0001:00040926       _GetCPInfo@8               00441926 f   kernel32:KERNEL32.dll
 0001:0004092c       _GetOEMCP@0                0044192c f   kernel32:KERNEL32.dll
 0001:00040932       _GetPrivateProfileIntA@16  00441932 f   kernel32:KERNEL32.dll
 0001:00040938       _WritePrivateProfileStringA@16 00441938 f   kernel32:KERNEL32.dll
 0001:0004093e       _GetPrivateProfileStringA@24 0044193e f   kernel32:KERNEL32.dll
 0001:00040944       _GetCurrentDirectoryA@8    00441944 f   kernel32:KERNEL32.dll
 0001:0004094a       _RtlUnwind@16              0044194a f   kernel32:KERNEL32.dll
 0001:00040950       _GetSystemTimeAsFileTime@4 00441950 f   kernel32:KERNEL32.dll
 0001:00040956       _ExitProcess@4             00441956 f   kernel32:KERNEL32.dll
 0001:0004095c       _GetTimeFormatA@24         0044195c f   kernel32:KERNEL32.dll
 0001:00040962       _GetDateFormatA@24         00441962 f   kernel32:KERNEL32.dll
 0001:00040968       _ExitThread@4              00441968 f   kernel32:KERNEL32.dll
 0001:0004096e       _CreateThread@24           0044196e f   kernel32:KERNEL32.dll
 0001:00040974       _VirtualProtect@16         00441974 f   kernel32:KERNEL32.dll
 0001:0004097a       _VirtualQuery@12           0044197a f   kernel32:KERNEL32.dll
 0001:00040980       _GetStartupInfoA@4         00441980 f   kernel32:KERNEL32.dll
 0001:00040986       _GetCommandLineA@0         00441986 f   kernel32:KERNEL32.dll
 0001:0004098c       _SetStdHandle@8            0044198c f   kernel32:KERNEL32.dll
 0001:00040992       _GetFileType@4             00441992 f   kernel32:KERNEL32.dll
 0001:00040998       _HeapSize@12               00441998 f   kernel32:KERNEL32.dll
 0001:0004099e       _FatalAppExitA@8           0044199e f   kernel32:KERNEL32.dll
 0001:000409a4       _GetCurrentProcessId@0     004419a4 f   kernel32:KERNEL32.dll
 0001:000409aa       _GetTimeZoneInformation@4  004419aa f   kernel32:KERNEL32.dll
 0001:000409b0       _IsBadWritePtr@8           004419b0 f   kernel32:KERNEL32.dll
 0001:000409b6       _UnhandledExceptionFilter@4 004419b6 f   kernel32:KERNEL32.dll
 0001:000409bc       _LCMapStringA@24           004419bc f   kernel32:KERNEL32.dll
 0001:000409c2       _LCMapStringW@24           004419c2 f   kernel32:KERNEL32.dll
 0001:000409c8       _GetStringTypeA@20         004419c8 f   kernel32:KERNEL32.dll
 0001:000409ce       _GetStringTypeW@16         004419ce f   kernel32:KERNEL32.dll
 0001:000409d4       _SetHandleCount@4          004419d4 f   kernel32:KERNEL32.dll
 0001:000409da       _GetStdHandle@4            004419da f   kernel32:KERNEL32.dll
 0001:000409e0       _FreeEnvironmentStringsA@4 004419e0 f   kernel32:KERNEL32.dll
 0001:000409e6       _GetEnvironmentStrings@0   004419e6 f   kernel32:KERNEL32.dll
 0001:000409ec       _FreeEnvironmentStringsW@4 004419ec f   kernel32:KERNEL32.dll
 0001:000409f2       _GetEnvironmentStringsW@0  004419f2 f   kernel32:KERNEL32.dll
 0001:000409f8       _GetDriveTypeA@4           004419f8 f   kernel32:KERNEL32.dll
 0001:000409fe       _IsBadReadPtr@8            004419fe f   kernel32:KERNEL32.dll
 0001:00040a04       _IsBadCodePtr@4            00441a04 f   kernel32:KERNEL32.dll
 0001:00040a0a       _GetUserDefaultLCID@0      00441a0a f   kernel32:KERNEL32.dll
 0001:00040a10       _EnumSystemLocalesA@8      00441a10 f   kernel32:KERNEL32.dll
 0001:00040a16       _IsValidLocale@8           00441a16 f   kernel32:KERNEL32.dll
 0001:00040a1c       _IsValidCodePage@4         00441a1c f   kernel32:KERNEL32.dll
 0001:00040a22       _SetConsoleCtrlHandler@8   00441a22 f   kernel32:KERNEL32.dll
 0001:00040a28       _GetLocaleInfoW@16         00441a28 f   kernel32:KERNEL32.dll
 0001:00040a2e       _SetEnvironmentVariableA@8 00441a2e f   kernel32:KERNEL32.dll
 0001:00040a34       _RemoveMenu@12             00441a34 f   user32:USER32.dll
 0001:00040a3a       _GetSubMenu@8              00441a3a f   user32:USER32.dll
 0001:00040a40       _GetMenuItemCount@4        00441a40 f   user32:USER32.dll
 0001:00040a46       _InsertMenuA@20            00441a46 f   user32:USER32.dll
 0001:00040a4c       _GetMenuItemID@8           00441a4c f   user32:USER32.dll
 0001:00040a52       _AppendMenuA@16            00441a52 f   user32:USER32.dll
 0001:00040a58       _GetMenuStringA@20         00441a58 f   user32:USER32.dll
 0001:00040a5e       _GetMenuState@12           00441a5e f   user32:USER32.dll
 0001:00040a64       _EnableWindow@8            00441a64 f   user32:USER32.dll
 0001:00040a6a       _IsWindowEnabled@4         00441a6a f   user32:USER32.dll
 0001:00040a70       _GetLastActivePopup@4      00441a70 f   user32:USER32.dll
 0001:00040a76       _GetWindowLongA@8          00441a76 f   user32:USER32.dll
 0001:00040a7c       _GetParent@4               00441a7c f   user32:USER32.dll
 0001:00040a82       _SendMessageA@16           00441a82 f   user32:USER32.dll
 0001:00040a88       _GetDesktopWindow@0        00441a88 f   user32:USER32.dll
 0001:00040a8e       _UnregisterClassA@8        00441a8e f   user32:USER32.dll
 0001:00040a94       _GetSysColorBrush@4        00441a94 f   user32:USER32.dll
 0001:00040a9a       _GetSysColor@4             00441a9a f   user32:USER32.dll
 0001:00040aa0       _ReleaseDC@8               00441aa0 f   user32:USER32.dll
 0001:00040aa6       _GetDC@4                   00441aa6 f   user32:USER32.dll
 0001:00040aac       _GetSystemMetrics@4        00441aac f   user32:USER32.dll
 0001:00040ab2       _UnhookWindowsHookEx@4     00441ab2 f   user32:USER32.dll
 0001:00040ab8       _GetWindowTextA@12         00441ab8 f   user32:USER32.dll
 0001:00040abe       _GetWindowTextLengthA@4    00441abe f   user32:USER32.dll
 0001:00040ac4       _ValidateRect@8            00441ac4 f   user32:USER32.dll
 0001:00040aca       _GetCursorPos@4            00441aca f   user32:USER32.dll
 0001:00040ad0       _PeekMessageA@20           00441ad0 f   user32:USER32.dll
 0001:00040ad6       _GetKeyState@4             00441ad6 f   user32:USER32.dll
 0001:00040adc       _IsWindowVisible@4         00441adc f   user32:USER32.dll
 0001:00040ae2       _GetActiveWindow@0         00441ae2 f   user32:USER32.dll
 0001:00040ae8       _CallNextHookEx@16         00441ae8 f   user32:USER32.dll
 0001:00040aee       _SetWindowsHookExA@16      00441aee f   user32:USER32.dll
 0001:00040af4       _GetClassNameA@12          00441af4 f   user32:USER32.dll
 0001:00040afa       _SetWindowTextA@8          00441afa f   user32:USER32.dll
 0001:00040b00       _GetFocus@0                00441b00 f   user32:USER32.dll
 0001:00040b06       _PtInRect@12               00441b06 f   user32:USER32.dll
 0001:00040b0c       _GetWindowRect@8           00441b0c f   user32:USER32.dll
 0001:00040b12       _GetDlgCtrlID@4            00441b12 f   user32:USER32.dll
 0001:00040b18       _GetWindow@8               00441b18 f   user32:USER32.dll
 0001:00040b1e       _ClientToScreen@8          00441b1e f   user32:USER32.dll
 0001:00040b24       _SetFocus@4                00441b24 f   user32:USER32.dll
 0001:00040b2a       _SetScrollPos@16           00441b2a f   user32:USER32.dll
 0001:00040b30       _GetScrollPos@8            00441b30 f   user32:USER32.dll
 0001:00040b36       _CheckDlgButton@12         00441b36 f   user32:USER32.dll
 0001:00040b3c       _CheckRadioButton@16       00441b3c f   user32:USER32.dll
 0001:00040b42       _GetDlgItem@8              00441b42 f   user32:USER32.dll
 0001:00040b48       _GetDlgItemInt@16          00441b48 f   user32:USER32.dll
 0001:00040b4e       _GetDlgItemTextA@16        00441b4e f   user32:USER32.dll
 0001:00040b54       _SendDlgItemMessageA@20    00441b54 f   user32:USER32.dll
 0001:00040b5a       _SetDlgItemInt@16          00441b5a f   user32:USER32.dll
 0001:00040b60       _SetDlgItemTextA@12        00441b60 f   user32:USER32.dll
 0001:00040b66       _IsDlgButtonChecked@8      00441b66 f   user32:USER32.dll
 0001:00040b6c       _IsDialogMessageA@8        00441b6c f   user32:USER32.dll
 0001:00040b72       _SetWindowLongA@12         00441b72 f   user32:USER32.dll
 0001:00040b78       _MoveWindow@24             00441b78 f   user32:USER32.dll
 0001:00040b7e       _ScrollWindowEx@32         00441b7e f   user32:USER32.dll
 0001:00040b84       _LoadBitmapA@8             00441b84 f   user32:USER32.dll
 0001:00040b8a       _GetMenuCheckMarkDimensions@0 00441b8a f   user32:USER32.dll
 0001:00040b90       _CheckMenuItem@12          00441b90 f   user32:USER32.dll
 0001:00040b96       _EnableMenuItem@12         00441b96 f   user32:USER32.dll
 0001:00040b9c       _ModifyMenuA@20            00441b9c f   user32:USER32.dll
 0001:00040ba2       _SetMenuItemBitmaps@20     00441ba2 f   user32:USER32.dll
 0001:00040ba8       _CopyRect@8                00441ba8 f   user32:USER32.dll
 0001:00040bae       _GetWindowPlacement@8      00441bae f   user32:USER32.dll
 0001:00040bb4       _IsIconic@4                00441bb4 f   user32:USER32.dll
 0001:00040bba       _SystemParametersInfoA@16  00441bba f   user32:USER32.dll
 0001:00040bc0       _IntersectRect@12          00441bc0 f   user32:USER32.dll
 0001:00040bc6       _OffsetRect@12             00441bc6 f   user32:USER32.dll
 0001:00040bcc       _CallWindowProcA@20        00441bcc f   user32:USER32.dll
 0001:00040bd2       _SetWindowPlacement@8      00441bd2 f   user32:USER32.dll
 0001:00040bd8       _RegisterClassA@4          00441bd8 f   user32:USER32.dll
 0001:00040bde       _GetClassInfoA@12          00441bde f   user32:USER32.dll
 0001:00040be4       _SetScrollInfo@16          00441be4 f   user32:USER32.dll
 0001:00040bea       _GetScrollInfo@12          00441bea f   user32:USER32.dll
 0001:00040bf0       _DeferWindowPos@32         00441bf0 f   user32:USER32.dll
 0001:00040bf6       _EqualRect@8               00441bf6 f   user32:USER32.dll
 0001:00040bfc       _ScreenToClient@8          00441bfc f   user32:USER32.dll
 0001:00040c02       _AdjustWindowRectEx@16     00441c02 f   user32:USER32.dll
 0001:00040c08       _PostMessageA@16           00441c08 f   user32:USER32.dll
 0001:00040c0e       _GetMenu@4                 00441c0e f   user32:USER32.dll
 0001:00040c14       _GetClientRect@8           00441c14 f   user32:USER32.dll
 0001:00040c1a       _ShowScrollBar@12          00441c1a f   user32:USER32.dll
 0001:00040c20       _SetForegroundWindow@4     00441c20 f   user32:USER32.dll
 0001:00040c26       _GetScrollRange@16         00441c26 f   user32:USER32.dll
 0001:00040c2c       _SetScrollRange@20         00441c2c f   user32:USER32.dll
 0001:00040c32       _TrackPopupMenu@28         00441c32 f   user32:USER32.dll
 0001:00040c38       _TrackPopupMenuEx@24       00441c38 f   user32:USER32.dll
 0001:00040c3e       _ScrollWindow@20           00441c3e f   user32:USER32.dll
 0001:00040c44       _MapWindowPoints@16        00441c44 f   user32:USER32.dll
 0001:00040c4a       _GetMessagePos@0           00441c4a f   user32:USER32.dll
 0001:00040c50       _GetMessageTime@0          00441c50 f   user32:USER32.dll
 0001:00040c56       _GetTopWindow@4            00441c56 f   user32:USER32.dll
 0001:00040c5c       _EndDeferWindowPos@4       00441c5c f   user32:USER32.dll
 0001:00040c62       _BeginDeferWindowPos@4     00441c62 f   user32:USER32.dll
 0001:00040c68       _SetActiveWindow@4         00441c68 f   user32:USER32.dll
 0001:00040c6e       _GetForegroundWindow@0     00441c6e f   user32:USER32.dll
 0001:00040c74       _IsChild@8                 00441c74 f   user32:USER32.dll
 0001:00040c7a       _IsWindow@4                00441c7a f   user32:USER32.dll
 0001:00040c80       _RemovePropA@8             00441c80 f   user32:USER32.dll
 0001:00040c86       _GetPropA@8                00441c86 f   user32:USER32.dll
 0001:00040c8c       _SetPropA@12               00441c8c f   user32:USER32.dll
 0001:00040c92       _GetClassInfoExA@12        00441c92 f   user32:USER32.dll
 0001:00040c98       _GetClassLongA@8           00441c98 f   user32:USER32.dll
 0001:00040c9e       _GetCapture@0              00441c9e f   user32:USER32.dll
 0001:00040ca4       _WinHelpA@16               00441ca4 f   user32:USER32.dll
 0001:00040caa       _RegisterWindowMessageA@4  00441caa f   user32:USER32.dll
 0001:00040cb0       _FillRect@12               00441cb0 f   user32:USER32.dll
 0001:00040cb6       _TabbedTextOutA@32         00441cb6 f   user32:USER32.dll
 0001:00040cbc       _DrawTextA@20              00441cbc f   user32:USER32.dll
 0001:00040cc2       _DrawTextExA@24            00441cc2 f   user32:USER32.dll
 0001:00040cc8       _GrayStringA@36            00441cc8 f   user32:USER32.dll
 0001:00040cce       _GetWindowDC@4             00441cce f   user32:USER32.dll
 0001:00040cd4       _InflateRect@12            00441cd4 f   user32:USER32.dll
 0001:00040cda       _GetMenuItemInfoA@16       00441cda f   user32:USER32.dll
 0001:00040ce0       _DestroyMenu@4             00441ce0 f   user32:USER32.dll
 0001:00040ce6       _SetCursor@4               00441ce6 f   user32:USER32.dll
 0001:00040cec       _ShowOwnedPopups@8         00441cec f   user32:USER32.dll
 0001:00040cf2       _DeleteMenu@12             00441cf2 f   user32:USER32.dll
 0001:00040cf8       _DestroyIcon@4             00441cf8 f   user32:USER32.dll
 0001:00040cfe       _EndDialog@8               00441cfe f   user32:USER32.dll
 0001:00040d04       _GetNextDlgTabItem@12      00441d04 f   user32:USER32.dll
 0001:00040d0a       _CreateDialogIndirectParamA@20 00441d0a f   user32:USER32.dll
 0001:00040d10       _GetDialogBaseUnits@0      00441d10 f   user32:USER32.dll
 0001:00040d16       _GetDeviceCaps@8           00441d16 f   gdi32:GDI32.dll
 0001:00040d1c       _CopyMetaFileA@8           00441d1c f   gdi32:GDI32.dll
 0001:00040d22       _CreateDCA@16              00441d22 f   gdi32:GDI32.dll
 0001:00040d28       _CreateBitmap@20           00441d28 f   gdi32:GDI32.dll
 0001:00040d2e       _GetDCOrgEx@8              00441d2e f   gdi32:GDI32.dll
 0001:00040d34       _GetClipBox@8              00441d34 f   gdi32:GDI32.dll
 0001:00040d3a       _GetObjectA@12             00441d3a f   gdi32:GDI32.dll
 0001:00040d40       _SaveDC@4                  00441d40 f   gdi32:GDI32.dll
 0001:00040d46       _RestoreDC@8               00441d46 f   gdi32:GDI32.dll
 0001:00040d4c       _SetPolyFillMode@8         00441d4c f   gdi32:GDI32.dll
 0001:00040d52       _SetROP2@8                 00441d52 f   gdi32:GDI32.dll
 0001:00040d58       _SetStretchBltMode@8       00441d58 f   gdi32:GDI32.dll
 0001:00040d5e       _SetMapMode@8              00441d5e f   gdi32:GDI32.dll
 0001:00040d64       _ExcludeClipRect@20        00441d64 f   gdi32:GDI32.dll
 0001:00040d6a       _IntersectClipRect@20      00441d6a f   gdi32:GDI32.dll
 0001:00040d70       _OffsetClipRgn@12          00441d70 f   gdi32:GDI32.dll
 0001:00040d76       _LineTo@12                 00441d76 f   gdi32:GDI32.dll
 0001:00040d7c       _MoveToEx@16               00441d7c f   gdi32:GDI32.dll
 0001:00040d82       _SetTextAlign@8            00441d82 f   gdi32:GDI32.dll
 0001:00040d88       _SetTextJustification@12   00441d88 f   gdi32:GDI32.dll
 0001:00040d8e       _SetTextCharacterExtra@8   00441d8e f   gdi32:GDI32.dll
 0001:00040d94       _SetMapperFlags@8          00441d94 f   gdi32:GDI32.dll
 0001:00040d9a       _SetArcDirection@8         00441d9a f   gdi32:GDI32.dll
 0001:00040da0       _SetColorAdjustment@8      00441da0 f   gdi32:GDI32.dll
 0001:00040da6       _SelectClipRgn@8           00441da6 f   gdi32:GDI32.dll
 0001:00040dac       _GetClipRgn@8              00441dac f   gdi32:GDI32.dll
 0001:00040db2       _CreateRectRgn@16          00441db2 f   gdi32:GDI32.dll
 0001:00040db8       _SelectClipPath@8          00441db8 f   gdi32:GDI32.dll
 0001:00040dbe       _GetViewportExtEx@8        00441dbe f   gdi32:GDI32.dll
 0001:00040dc4       _GetWindowExtEx@8          00441dc4 f   gdi32:GDI32.dll
 0001:00040dca       _BitBlt@36                 00441dca f   gdi32:GDI32.dll
 0001:00040dd0       _GetPixel@12               00441dd0 f   gdi32:GDI32.dll
 0001:00040dd6       _StartDocA@8               00441dd6 f   gdi32:GDI32.dll
 0001:00040ddc       _PtVisible@12              00441ddc f   gdi32:GDI32.dll
 0001:00040de2       _RectVisible@8             00441de2 f   gdi32:GDI32.dll
 0001:00040de8       _ExtTextOutA@32            00441de8 f   gdi32:GDI32.dll
 0001:00040dee       _Escape@20                 00441dee f   gdi32:GDI32.dll
 0001:00040df4       _SetViewportOrgEx@16       00441df4 f   gdi32:GDI32.dll
 0001:00040dfa       _OffsetViewportOrgEx@16    00441dfa f   gdi32:GDI32.dll
 0001:00040e00       _SetViewportExtEx@16       00441e00 f   gdi32:GDI32.dll
 0001:00040e06       _ScaleViewportExtEx@24     00441e06 f   gdi32:GDI32.dll
 0001:00040e0c       _SetWindowOrgEx@16         00441e0c f   gdi32:GDI32.dll
 0001:00040e12       _OffsetWindowOrgEx@16      00441e12 f   gdi32:GDI32.dll
 0001:00040e18       _SetWindowExtEx@16         00441e18 f   gdi32:GDI32.dll
 0001:00040e1e       _ScaleWindowExtEx@24       00441e1e f   gdi32:GDI32.dll
 0001:00040e24       _GetCurrentPositionEx@8    00441e24 f   gdi32:GDI32.dll
 0001:00040e2a       _ArcTo@36                  00441e2a f   gdi32:GDI32.dll
 0001:00040e30       _PolyDraw@16               00441e30 f   gdi32:GDI32.dll
 0001:00040e36       _PolylineTo@12             00441e36 f   gdi32:GDI32.dll
 0001:00040e3c       _PolyBezierTo@12           00441e3c f   gdi32:GDI32.dll
 0001:00040e42       _ExtSelectClipRgn@12       00441e42 f   gdi32:GDI32.dll
 0001:00040e48       _DeleteDC@4                00441e48 f   gdi32:GDI32.dll
 0001:00040e4e       _CreateDIBPatternBrushPt@8 00441e4e f   gdi32:GDI32.dll
 0001:00040e54       _CreatePatternBrush@4      00441e54 f   gdi32:GDI32.dll
 0001:00040e5a       _CreateCompatibleDC@4      00441e5a f   gdi32:GDI32.dll
 0001:00040e60       _GetStockObject@4          00441e60 f   gdi32:GDI32.dll
 0001:00040e66       _SelectPalette@12          00441e66 f   gdi32:GDI32.dll
 0001:00040e6c       _PlayMetaFileRecord@16     00441e6c f   gdi32:GDI32.dll
 0001:00040e72       _GetObjectType@4           00441e72 f   gdi32:GDI32.dll
 0001:00040e78       _EnumMetaFile@16           00441e78 f   gdi32:GDI32.dll
 0001:00040e7e       _PlayMetaFile@8            00441e7e f   gdi32:GDI32.dll
 0001:00040e84       _CreatePen@12              00441e84 f   gdi32:GDI32.dll
 0001:00040e8a       _ExtCreatePen@20           00441e8a f   gdi32:GDI32.dll
 0001:00040e90       _CreateSolidBrush@4        00441e90 f   gdi32:GDI32.dll
 0001:00040e96       _CreateHatchBrush@8        00441e96 f   gdi32:GDI32.dll
 0001:00040e9c       _CreateFontIndirectA@4     00441e9c f   gdi32:GDI32.dll
 0001:00040ea2       _GetTextExtentPoint32A@16  00441ea2 f   gdi32:GDI32.dll
 0001:00040ea8       _CreateRectRgnIndirect@4   00441ea8 f   gdi32:GDI32.dll
 0001:00040eae       _SetRectRgn@20             00441eae f   gdi32:GDI32.dll
 0001:00040eb4       _CombineRgn@16             00441eb4 f   gdi32:GDI32.dll
 0001:00040eba       _GetMapMode@4              00441eba f   gdi32:GDI32.dll
 0001:00040ec0       _PatBlt@24                 00441ec0 f   gdi32:GDI32.dll
 0001:00040ec6       _DPtoLP@12                 00441ec6 f   gdi32:GDI32.dll
 0001:00040ecc       _GetTextMetricsA@8         00441ecc f   gdi32:GDI32.dll
 0001:00040ed2       _ClosePrinter@4            00441ed2 f   winspool:WINSPOOL.DRV
 0001:00040ed8       _DocumentPropertiesA@24    00441ed8 f   winspool:WINSPOOL.DRV
 0001:00040ede       _OpenPrinterA@12           00441ede f   winspool:WINSPOOL.DRV
 0001:00040ee4       _GetFileTitleA@12          00441ee4 f   comdlg32:comdlg32.dll
 0001:00040eea       _GetSaveFileNameA@4        00441eea f   comdlg32:comdlg32.dll
 0001:00040ef0       _GetOpenFileNameA@4        00441ef0 f   comdlg32:comdlg32.dll
 0001:00040ef6       _RegSetValueA@20           00441ef6 f   advapi32:ADVAPI32.dll
 0001:00040efc       _RegOpenKeyA@12            00441efc f   advapi32:ADVAPI32.dll
 0001:00040f02       _RegCreateKeyExA@36        00441f02 f   advapi32:ADVAPI32.dll
 0001:00040f08       _RegDeleteValueA@8         00441f08 f   advapi32:ADVAPI32.dll
 0001:00040f0e       _RegDeleteKeyA@8           00441f0e f   advapi32:ADVAPI32.dll
 0001:00040f14       _RegEnumKeyA@16            00441f14 f   advapi32:ADVAPI32.dll
 0001:00040f1a       _RegQueryValueA@16         00441f1a f   advapi32:ADVAPI32.dll
 0001:00040f20       _RegCreateKeyA@12          00441f20 f   advapi32:ADVAPI32.dll
 0001:00040f26       _SHGetFileInfoA@20         00441f26 f   shell32:SHELL32.dll
 0001:00040f2c       _ExtractIconA@12           00441f2c f   shell32:SHELL32.dll
 0001:00040f32       _CoTaskMemFree@4           00441f32 f   ole32:ole32.dll
 0001:00040f38       _SetConvertStg@8           00441f38 f   ole32:ole32.dll
 0001:00040f3e       _WriteFmtUserTypeStg@12    00441f3e f   ole32:ole32.dll
 0001:00040f44       _WriteClassStg@8           00441f44 f   ole32:ole32.dll
 0001:00040f4a       _OleRegGetUserType@12      00441f4a f   ole32:ole32.dll
 0001:00040f50       _ReadFmtUserTypeStg@12     00441f50 f   ole32:ole32.dll
 0001:00040f56       _ReadClassStg@8            00441f56 f   ole32:ole32.dll
 0001:00040f5c       _StringFromCLSID@8         00441f5c f   ole32:ole32.dll
 0001:00040f62       _CoTreatAsClass@8          00441f62 f   ole32:ole32.dll
 0001:00040f68       _CreateBindCtx@8           00441f68 f   ole32:ole32.dll
 0001:00040f6e       _CoTaskMemAlloc@4          00441f6e f   ole32:ole32.dll
 0001:00040f74       _ReleaseStgMedium@4        00441f74 f   ole32:ole32.dll
 0001:00040f7a       _OleDuplicateData@12       00441f7a f   ole32:ole32.dll
 0001:00040f80       _CoDisconnectObject@8      00441f80 f   ole32:ole32.dll
 0001:00040f86       _CoCreateInstance@20       00441f86 f   ole32:ole32.dll
 0001:00040f8c       _StringFromGUID2@12        00441f8c f   ole32:ole32.dll
 0001:00040f92       _CLSIDFromString@8         00441f92 f   ole32:ole32.dll
 0001:00040f98       _SysFreeString@4           00441f98 f   oleaut32:OLEAUT32.dll
 0001:00040f9e       _SysStringLen@4            00441f9e f   oleaut32:OLEAUT32.dll
 0001:00040fa4       _SysAllocStringByteLen@8   00441fa4 f   oleaut32:OLEAUT32.dll
 0001:00040faa       _SysStringByteLen@4        00441faa f   oleaut32:OLEAUT32.dll
 0001:00040fb0       _SafeArrayUnaccessData@4   00441fb0 f   oleaut32:OLEAUT32.dll
 0001:00040fb6       _SafeArrayAccessData@8     00441fb6 f   oleaut32:OLEAUT32.dll
 0001:00040fbc       _SafeArrayGetUBound@12     00441fbc f   oleaut32:OLEAUT32.dll
 0001:00040fc2       _SafeArrayGetLBound@12     00441fc2 f   oleaut32:OLEAUT32.dll
 0001:00040fc8       _SafeArrayGetElemsize@4    00441fc8 f   oleaut32:OLEAUT32.dll
 0001:00040fce       _SafeArrayGetDim@4         00441fce f   oleaut32:OLEAUT32.dll
 0001:00040fd4       _SafeArrayCreate@12        00441fd4 f   oleaut32:OLEAUT32.dll
 0001:00040fda       _VariantClear@4            00441fda f   oleaut32:OLEAUT32.dll
 0001:00040fe0       _SafeArrayRedim@8          00441fe0 f   oleaut32:OLEAUT32.dll
 0001:00040fe6       _VariantChangeType@16      00441fe6 f   oleaut32:OLEAUT32.dll
 0001:00040fec       _VariantCopy@8             00441fec f   oleaut32:OLEAUT32.dll
 0001:00040ff2       _SafeArrayAllocData@4      00441ff2 f   oleaut32:OLEAUT32.dll
 0001:00040ff8       _SafeArrayAllocDescriptor@8 00441ff8 f   oleaut32:OLEAUT32.dll
 0001:00040ffe       _SafeArrayCopy@8           00441ffe f   oleaut32:OLEAUT32.dll
 0001:00041004       _SafeArrayGetElement@12    00442004 f   oleaut32:OLEAUT32.dll
 0001:0004100a       _SafeArrayPtrOfIndex@12    0044200a f   oleaut32:OLEAUT32.dll
 0001:00041010       _SafeArrayPutElement@12    00442010 f   oleaut32:OLEAUT32.dll
 0001:00041016       _SafeArrayLock@4           00442016 f   oleaut32:OLEAUT32.dll
 0001:0004101c       _SafeArrayUnlock@4         0044201c f   oleaut32:OLEAUT32.dll
 0001:00041022       _SafeArrayDestroy@4        00442022 f   oleaut32:OLEAUT32.dll
 0001:00041028       _SafeArrayDestroyData@4    00442028 f   oleaut32:OLEAUT32.dll
 0001:0004102e       _SafeArrayDestroyDescriptor@4 0044202e f   oleaut32:OLEAUT32.dll
 0001:00041034       _SysAllocStringLen@8       00442034 f   oleaut32:OLEAUT32.dll
 0001:0004103a       _VariantTimeToSystemTime@12 0044203a f   oleaut32:OLEAUT32.dll
 0001:00041040       _SystemTimeToVariantTime@8 00442040 f   oleaut32:OLEAUT32.dll
 0001:00041046       _SysAllocString@4          00442046 f   oleaut32:OLEAUT32.dll
 0001:0004104c       _SysReAllocStringLen@12    0044204c f   oleaut32:OLEAUT32.dll
 0001:00041052       _VarDateFromStr@16         00442052 f   oleaut32:OLEAUT32.dll
 0001:00041058       _VarBstrFromDec@16         00442058 f   oleaut32:OLEAUT32.dll
 0001:0004105e       _VarDecFromStr@16          0044205e f   oleaut32:OLEAUT32.dll
 0001:00041064       _VarCyFromStr@16           00442064 f   oleaut32:OLEAUT32.dll
 0001:0004106a       _VarBstrFromCy@20          0044206a f   oleaut32:OLEAUT32.dll
 0001:00041070       _VarBstrFromDate@20        00442070 f   oleaut32:OLEAUT32.dll
 0001:00041076       _VariantInit@4             00442076 f   oleaut32:OLEAUT32.dll
 0001:0004107c       _strlwr                    0044207c f   libcmt:strlwr.obj
 0001:0004107c       __strlwr                   0044207c f   libcmt:strlwr.obj
 0001:00041190       __fileno                   00442190 f   libcmt:fileno.obj
 0001:00041190       _fileno                    00442190 f   libcmt:fileno.obj
 0001:00041198       __check_commonlanguageruntime_version 00442198 f   libcmt:checkclr.obj
 0001:000413fa       __CorExeMain@0             004423fa f   MSCOREE:mscoree.dll
 0001:00041400       _GlobalMemoryStatus@4      00442400 f   kernel32:KERNEL32.dll
 0001:00041406       _FileTimeToDosDateTime@12  00442406 f   kernel32:KERNEL32.dll
 0001:0004140c       _GetUserNameA@8            0044240c f   advapi32:ADVAPI32.dll
 0001:00041412       __makepath                 00442412 f   libcmt:makepath.obj
 0001:000414a2       __vsnwprintf               004424a2 f   libcmt:vsnwprnt.obj
 0001:00041511       _wcsncpy                   00442511 f   libcmt:wcsncpy.obj
 0001:0004154e       __wsplitpath               0044254e f   libcmt:wsplitpa.obj
 0001:000416a9       __wmakepath                004426a9 f   libcmt:wmakepat.obj
 0001:0004175a       _VerQueryValueA@16         0044275a f   Version:VERSION.dll
 0001:00041760       _GetFileVersionInfoA@16    00442760 f   Version:VERSION.dll
 0001:00041766       _GetFileVersionInfoSizeA@8 00442766 f   Version:VERSION.dll
 0001:0004176c       ?InitString@CSimpleException@@QAEXXZ 0044276c f   nafxcw:except.obj
 0001:00041795       ?GetErrorMessage@CSimpleException@@UAEHPADIPAI@Z 00442795 f   nafxcw:except.obj
 0001:000417e5       ?AfxThrowMemoryException@@YGXXZ 004427e5 f   nafxcw:except.obj
 0001:000417ff       ?AfxThrowNotSupportedException@@YGXXZ 004427ff f   nafxcw:except.obj
 0001:00041819       ?AfxThrowInvalidArgException@@YGXXZ 00442819 f   nafxcw:except.obj
 0001:00041833       ?GetOFN@CFileDialog@@QBEABUtagOFNA@@XZ 00442833 f   nafxcw:dlgfile.obj
 0001:00041837       ?GetOFN@CFileDialog@@QAEAAUtagOFNA@@XZ 00442837 f   nafxcw:dlgfile.obj
 0001:0004183b       ?DoModal@CFileDialog@@UAEHXZ 0044283b f   nafxcw:dlgfile.obj
 0001:00041925       ?SetTemplate@CFileDialog@@QAEXPBD0@Z 00442925 f   nafxcw:dlgfile.obj
 0001:00041943       ?OnShareViolation@CFileDialog@@MAEIPBD@Z 00442943 f   nafxcw:dlgfile.obj
 0001:00041948       ?OnFileNameOK@CFileDialog@@MAEHXZ 00442948 f   nafxcw:dlgfile.obj
 0001:0004194b       ?OnLBSelChangedNotify@CFileDialog@@MAEXIII@Z 0044294b f   nafxcw:dlgfile.obj
 0001:0004194e       ?OnFileNameChange@CFileDialog@@MAEXXZ 0044294e f   nafxcw:dlgfile.obj
 0001:0004194f       ?OnFolderChange@CFileDialog@@MAEXXZ 0044294f f   nafxcw:dlgfile.obj
 0001:00041950       ?OnTypeChange@CFileDialog@@MAEXXZ 00442950 f   nafxcw:dlgfile.obj
 0001:00041951       ?SetControlText@CFileDialog@@QAEXHPBD@Z 00442951 f   nafxcw:dlgfile.obj
 0001:00041979       ?HideControl@CFileDialog@@QAEXH@Z 00442979 f   nafxcw:dlgfile.obj
 0001:0004199f       ?SetDefExt@CFileDialog@@QAEXPBD@Z 0044299f f   nafxcw:dlgfile.obj
 0001:000419c5       ?OnInitDone@CFileDialog@@MAEXXZ 004429c5 f   nafxcw:dlgfile.obj
 0001:000419de       ?OnNotify@CFileDialog@@MAEHIJPAJ@Z 004429de f   nafxcw:dlgfile.obj
 0001:00041abc       ??1CFileDialog@@UAE@XZ     00442abc f   nafxcw:dlgfile.obj
 0001:00041ae1       ??_GCFileDialog@@UAEPAXI@Z 00442ae1 f i nafxcw:dlgfile.obj
 0001:00041ae1       ??_ECFileDialog@@UAEPAXI@Z 00442ae1 f i nafxcw:dlgfile.obj
 0001:00041afd       ?GetFolderPath@CFileDialog@@QBE?AV?$CStringT@DV?$StrTraitMFC@DV?$ChTraitsCRT@D@ATL@@@@@ATL@@XZ 00442afd f   nafxcw:dlgfile.obj
 0001:00041b96       ??0CFileDialog@@QAE@HPBD0K0PAVCWnd@@K@Z 00442b96 f   nafxcw:dlgfile.obj
 0001:00041d59       ?GetPathName@CFileDialog@@QBE?AV?$CStringT@DV?$StrTraitMFC@DV?$ChTraitsCRT@D@ATL@@@@@ATL@@XZ 00442d59 f   nafxcw:dlgfile.obj
 0001:00041e72       ?GetFileName@CFileDialog@@QBE?AV?$CStringT@DV?$StrTraitMFC@DV?$ChTraitsCRT@D@ATL@@@@@ATL@@XZ 00442e72 f   nafxcw:dlgfile.obj
 0001:00041f36       ?GetFileExt@CFileDialog@@QBE?AV?$CStringT@DV?$StrTraitMFC@DV?$ChTraitsCRT@D@ATL@@@@@ATL@@XZ 00442f36 f   nafxcw:dlgfile.obj
 0001:00042046       ?GetFileTitle@CFileDialog@@QBE?AV?$CStringT@DV?$StrTraitMFC@DV?$ChTraitsCRT@D@ATL@@@@@ATL@@XZ 00443046 f   nafxcw:dlgfile.obj
 0001:000420a3       ?GetNextPathName@CFileDialog@@QBE?AV?$CStringT@DV?$StrTraitMFC@DV?$ChTraitsCRT@D@ATL@@@@@ATL@@AAPAU__POSITION@@@Z 004430a3 f   nafxcw:dlgfile.obj
 0001:00042293       ?GetMessageMap@CCommonDialog@@MBEPBUAFX_MSGMAP@@XZ 00443293 f   nafxcw:dlgcomm.obj
 0001:00042299       ?OnOK@CCommonDialog@@MAEXXZ 00443299 f   nafxcw:dlgcomm.obj
 0001:000422b1       ?OnCancel@CCommonDialog@@MAEXXZ 004432b1 f   nafxcw:dlgcomm.obj
 0001:000422b6       ?OnHelpInfo@CCommonDialog@@IAEHPAUtagHELPINFO@@@Z 004432b6 f   nafxcw:dlgcomm.obj
 0001:000422c4       ?OnPaint@CCommonDialog@@IAEXXZ 004432c4 f   nafxcw:dlgcomm.obj
 0001:000422c9       ?_AfxCommDlgProc@@YGIPAUHWND__@@IIJ@Z 004432c9 f   nafxcw:dlgcomm.obj
 0001:00042464       ?AddRef@CArchiveStream@@UAGKXZ 00443464 f   nafxcw:arcstrm.obj
 0001:0004246a       ?Release@CArchiveStream@@UAGKXZ 0044346a f   nafxcw:arcstrm.obj
 0001:0004246f       ?Read@CArchiveStream@@UAGJPAXKPAK@Z 0044346f f   nafxcw:arcstrm.obj
 0001:000424c7       ?Write@CArchiveStream@@UAGJPBXKPAK@Z 004434c7 f   nafxcw:arcstrm.obj
 0001:00042520       ?SetSize@CArchiveStream@@UAGJT_ULARGE_INTEGER@@@Z 00443520 f   nafxcw:arcstrm.obj
 0001:00042528       ?CopyTo@CArchiveStream@@UAGJPAUIStream@@T_ULARGE_INTEGER@@PAT3@2@Z 00443528 f   nafxcw:arcstrm.obj
 0001:00042530       ?Commit@CArchiveStream@@UAGJK@Z 00443530 f   nafxcw:arcstrm.obj
 0001:00042538       ?Revert@CArchiveStream@@UAGJXZ 00443538 f   nafxcw:arcstrm.obj
 0001:00042540       ?LockRegion@CArchiveStream@@UAGJT_ULARGE_INTEGER@@0K@Z 00443540 f   nafxcw:arcstrm.obj
 0001:00042548       ?UnlockRegion@CArchiveStream@@UAGJT_ULARGE_INTEGER@@0K@Z 00443548 f   nafxcw:arcstrm.obj
 0001:00042550       ?Stat@CArchiveStream@@UAGJPAUtagSTATSTG@@K@Z 00443550 f   nafxcw:arcstrm.obj
 0001:00042558       ?Clone@CArchiveStream@@UAGJPAPAUIStream@@@Z 00443558 f   nafxcw:arcstrm.obj
 0001:00042560       ?QueryInterface@CArchiveStream@@UAGJABU_GUID@@PAPAX@Z 00443560 f   nafxcw:arcstrm.obj
 0001:000425a9       ?Seek@CArchiveStream@@UAGJT_LARGE_INTEGER@@KPAT_ULARGE_INTEGER@@@Z 004435a9 f   nafxcw:arcstrm.obj
 0001:0004261b       ??0CArchiveStream@@QAE@PAVCArchive@@@Z 0044361b f   nafxcw:arcstrm.obj
 0001:0004262d       ?data@CPlex@@QAEPAXXZ      0044362d f i nafxcw:map_pp.obj
 0001:00042631       ?RemoveAll@CPtrList@@QAEXXZ 00443631 f   nafxcw:list_p.obj
 0001:00042651       ?FreeNode@CPtrList@@IAEXPAUCNode@1@@Z 00443651 f   nafxcw:list_p.obj
 0001:00042673       ?RemoveHead@CPtrList@@QAEPAXXZ 00443673 f   nafxcw:list_p.obj
 0001:00042697       ?RemoveTail@CPtrList@@QAEPAXXZ 00443697 f   nafxcw:list_p.obj
 0001:000426bb       ?RemoveAt@CPtrList@@QAEXPAU__POSITION@@@Z 004436bb f   nafxcw:list_p.obj
 0001:000426fb       ?FindIndex@CPtrList@@QBEPAU__POSITION@@H@Z 004436fb f   nafxcw:list_p.obj
 0001:00042719       ?Find@CPtrList@@QBEPAU__POSITION@@PAXPAU2@@Z 00443719 f   nafxcw:list_p.obj
 0001:00042738       ??0CPtrList@@QAE@H@Z       00443738 f   nafxcw:list_p.obj
 0001:0004275b       ??1CPtrList@@UAE@XZ        0044375b f   nafxcw:list_p.obj
 0001:00042766       ?NewNode@CPtrList@@IAEPAUCNode@1@PAU21@0@Z 00443766 f   nafxcw:list_p.obj
 0001:000427bc       ?AddHead@CPtrList@@QAEPAU__POSITION@@PAX@Z 004437bc f   nafxcw:list_p.obj
 0001:000427e6       ?AddTail@CPtrList@@QAEPAU__POSITION@@PAX@Z 004437e6 f   nafxcw:list_p.obj
 0001:0004280f       ?AddHead@CPtrList@@QAEXPAV1@@Z 0044380f f   nafxcw:list_p.obj
 0001:0004284c       ?AddTail@CPtrList@@QAEXPAV1@@Z 0044384c f   nafxcw:list_p.obj
 0001:00042889       ?InsertBefore@CPtrList@@QAEPAU__POSITION@@PAU2@PAX@Z 00443889 f   nafxcw:list_p.obj
 0001:000428c6       ?InsertAfter@CPtrList@@QAEPAU__POSITION@@PAU2@PAX@Z 004438c6 f   nafxcw:list_p.obj
 0001:00042901       ??_GCPtrList@@UAEPAXI@Z    00443901 f i nafxcw:list_p.obj
 0001:00042901       ??_ECPtrList@@UAEPAXI@Z    00443901 f i nafxcw:list_p.obj
 0001:0004291d       ?SetSize@CByteArray@@QAEXHH@Z 0044391d f   nafxcw:array_b.obj
 0001:00042a22       ?Append@CByteArray@@QAEHABV1@@Z 00443a22 f   nafxcw:array_b.obj
 0001:00042a62       ?Copy@CByteArray@@QAEXABV1@@Z 00443a62 f   nafxcw:array_b.obj
 0001:00042a8e       ?FreeExtra@CByteArray@@QAEXXZ 00443a8e f   nafxcw:array_b.obj
 0001:00042acc       ?SetAtGrow@CByteArray@@QAEXHE@Z 00443acc f   nafxcw:array_b.obj
 0001:00042afe       ?InsertAt@CByteArray@@QAEXHEH@Z 00443afe f   nafxcw:array_b.obj
 0001:00042b77       ?RemoveAt@CByteArray@@QAEXHH@Z 00443b77 f   nafxcw:array_b.obj
 0001:00042bbc       ??0CByteArray@@QAE@XZ      00443bbc f   nafxcw:array_b.obj
 0001:00042bd3       ??1CByteArray@@UAE@XZ      00443bd3 f   nafxcw:array_b.obj
 0001:00042be3       ?InsertAt@CByteArray@@QAEXHPAV1@@Z 00443be3 f   nafxcw:array_b.obj
 0001:00042c44       ?Serialize@CByteArray@@UAEXAAVCArchive@@@Z 00443c44 f   nafxcw:array_b.obj
 0001:00042cc1       ??_ECByteArray@@UAEPAXI@Z  00443cc1 f i nafxcw:array_b.obj
 0001:00042cc1       ??_GCByteArray@@UAEPAXI@Z  00443cc1 f i nafxcw:array_b.obj
 0001:00042cdd       ?Create@CPlex@@SGPAU1@AAPAU1@II@Z 00443cdd f   nafxcw:plex.obj
 0001:00042d0e       ?FreeDataChain@CPlex@@QAEXXZ 00443d0e f   nafxcw:plex.obj
 0001:00042d24       ?SetSize@CPtrArray@@QAEXHH@Z 00443d24 f   nafxcw:array_p.obj
 0001:00042e3e       ?Append@CPtrArray@@QAEHABV1@@Z 00443e3e f   nafxcw:array_p.obj
 0001:00042e83       ?Copy@CPtrArray@@QAEXABV1@@Z 00443e83 f   nafxcw:array_p.obj
 0001:00042eb3       ?FreeExtra@CPtrArray@@QAEXXZ 00443eb3 f   nafxcw:array_p.obj
 0001:00042ef8       ?SetAtGrow@CPtrArray@@QAEXHPAX@Z 00443ef8 f   nafxcw:array_p.obj
 0001:00042f2a       ?InsertAt@CPtrArray@@QAEXHPAXH@Z 00443f2a f   nafxcw:array_p.obj
 0001:00042fba       ?RemoveAt@CPtrArray@@QAEXHH@Z 00443fba f   nafxcw:array_p.obj
 0001:00043005       ??0CPtrArray@@QAE@XZ       00444005 f   nafxcw:array_p.obj
 0001:0004301c       ??1CPtrArray@@UAE@XZ       0044401c f   nafxcw:array_p.obj
 0001:0004302c       ?InsertAt@CPtrArray@@QAEXHPAV1@@Z 0044402c f   nafxcw:array_p.obj
 0001:0004308b       ??_GCPtrArray@@UAEPAXI@Z   0044408b f i nafxcw:array_p.obj
 0001:0004308b       ??_ECPtrArray@@UAEPAXI@Z   0044408b f i nafxcw:array_p.obj
 0001:000430a7       ?HashKey@CMapPtrToPtr@@QBEIPAX@Z 004440a7 f i nafxcw:map_pp.obj
 0001:000430b1       ?InitHashTable@CMapPtrToPtr@@QAEXIH@Z 004440b1 f   nafxcw:map_pp.obj
 0001:000430fd       ?RemoveAll@CMapPtrToPtr@@QAEXXZ 004440fd f   nafxcw:map_pp.obj
 0001:00043128       ?FreeAssoc@CMapPtrToPtr@@IAEXPAUCAssoc@1@@Z 00444128 f   nafxcw:map_pp.obj
 0001:00043141       ?GetAssocAt@CMapPtrToPtr@@IBEPAUCAssoc@1@PAXAAI1@Z 00444141 f   nafxcw:map_pp.obj
 0001:00043179       ?GetValueAt@CMapPtrToPtr@@QBEPAXPAX@Z 00444179 f   nafxcw:map_pp.obj
 0001:000431b0       ?Lookup@CMapPtrToPtr@@QBEHPAXAAPAX@Z 004441b0 f   nafxcw:map_pp.obj
 0001:000431d7       ?RemoveKey@CMapPtrToPtr@@QAEHPAX@Z 004441d7 f   nafxcw:map_pp.obj
 0001:0004321a       ?GetNextAssoc@CMapPtrToPtr@@QBEXAAPAU__POSITION@@AAPAX1@Z 0044421a f   nafxcw:map_pp.obj
 0001:00043294       ??0CMapPtrToPtr@@QAE@H@Z   00444294 f   nafxcw:map_pp.obj
 0001:000432c2       ??1CMapPtrToPtr@@UAE@XZ    004442c2 f   nafxcw:map_pp.obj
 0001:000432cd       ?NewAssoc@CMapPtrToPtr@@IAEPAUCAssoc@1@XZ 004442cd f   nafxcw:map_pp.obj
 0001:00043318       ??ACMapPtrToPtr@@QAEAAPAXPAX@Z 00444318 f   nafxcw:map_pp.obj
 0001:0004336d       ??_GCMapPtrToPtr@@UAEPAXI@Z 0044436d f i nafxcw:map_pp.obj
 0001:0004336d       ??_ECMapPtrToPtr@@UAEPAXI@Z 0044436d f i nafxcw:map_pp.obj
 0001:00043389       ?AfxNewHandler@@YAHI@Z     00444389 f   nafxcw:afxmem.obj
 0001:0004338e       ?AfxGetNewHandler@@YGP6AHI@ZXZ 0044438e f   nafxcw:afxmem.obj
 0001:00043394       ?AfxSetNewHandler@@YGP6AHI@ZP6AHI@Z@Z 00444394 f   nafxcw:afxmem.obj
 0001:000433a6       ??2@YAPAXI@Z               004443a6 f   nafxcw:afxmem.obj
 0001:000433d1       ??3@YAXPAX@Z               004443d1 f   nafxcw:afxmem.obj
 0001:000433d6       ??_U@YAPAXI@Z              004443d6 f   nafxcw:afxmem.obj
 0001:000433db       ??_V@YAXPAX@Z              004443db f   nafxcw:afxmem.obj
 0001:000433e0       ?Delete@CException@@QAEXXZ 004443e0 f   nafxcw:except.obj
 0001:000433ee       ?GetErrorMessage@CException@@UAEHPADIPAI@Z 004443ee f   nafxcw:except.obj
 0001:0004340f       ?ReportError@CException@@UAEHII@Z 0044440f f   nafxcw:except.obj
 0001:00043481       ??0CException@@QAE@XZ      00444481 f   nafxcw:except.obj
 0001:0004348b       ??0CException@@QAE@H@Z     0044448b f   nafxcw:except.obj
 0001:00043497       ?AfxGetExceptionContext@@YAPAUAFX_EXCEPTION_CONTEXT@@XZ 00444497 f i nafxcw:except.obj
 0001:000434bf       ??0AFX_EXCEPTION_LINK@@QAE@XZ 004444bf f   nafxcw:except.obj
 0001:000434d5       ?AfxTryCleanup@@YGXXZ      004444d5 f   nafxcw:except.obj
 0001:000434f3       ?AfxThrowLastCleanup@@YGXXZ 004444f3 f   nafxcw:except.obj
 0001:00043503       ?AfxLoadString@@YGHIPADI@Z 00444503 f   nafxcw:winstr.obj
 0001:0004354e       ?AfxLoadString@@YGHIPA_WI@Z 0044454e f   nafxcw:winstr.obj
 0001:000435a4       ?AfxFindStringResourceHandle@@YGPAUHINSTANCE__@@I@Z 004445a4 f   nafxcw:winstr.obj
 0001:000435af       ?AfxExtractSubString@@YGHAAV?$CStringT@DV?$StrTraitMFC@DV?$ChTraitsCRT@D@ATL@@@@@ATL@@PBDHD@Z 004445af f   nafxcw:winstr.obj
 0001:00043631       ??$HashKey@PB_W@@YGIPB_W@Z 00444631 f   nafxcw:strcore.obj
 0001:00043650       ??$HashKey@PBD@@YGIPBD@Z   00444650 f   nafxcw:strcore.obj
 0001:0004366a       ?AfxGetStringManager@@YGPAUIAtlStringMgr@ATL@@XZ 0044466a f   nafxcw:strcore.obj
 0001:00043670       ?Allocate@CAfxStringMgr@@UAEPAUCStringData@ATL@@HH@Z 00444670 f   nafxcw:strcore.obj
 0001:000436ab       ?Free@CAfxStringMgr@@UAEXPAUCStringData@ATL@@@Z 004446ab f   nafxcw:strcore.obj
 0001:000436b8       ?Reallocate@CAfxStringMgr@@UAEPAUCStringData@ATL@@PAU23@HH@Z 004446b8 f   nafxcw:strcore.obj
 0001:000436e7       ?Clone@CAfxStringMgr@@UAEPAUIAtlStringMgr@ATL@@XZ 004446e7 f   nafxcw:strcore.obj
 0001:000436ea       ??B?$CSimpleStringT@_W$0A@@ATL@@QBEPB_WXZ 004446ea f i nafxcw:strcore.obj
 0001:000436ed       ?GetData@?$CSimpleStringT@_W$0A@@ATL@@ABEPAUCStringData@2@XZ 004446ed f i nafxcw:strcore.obj
 0001:000436f3       ?StringLength@?$CSimpleStringT@_W$0A@@ATL@@SAHPB_W@Z 004446f3 f i nafxcw:strcore.obj
 0001:00043702       ?GetString@?$CSimpleStringT@_W$0A@@ATL@@QBEPB_WXZ 00444702 f i nafxcw:strcore.obj
 0001:00043705       ?CopyChars@?$CSimpleStringT@_W$0A@@ATL@@SAXPA_WPB_WH@Z 00444705 f i nafxcw:strcore.obj
 0001:0004371d       ?CopyCharsOverlapped@?$CSimpleStringT@_W$0A@@ATL@@SAXPA_WPB_WH@Z 0044471d f i nafxcw:strcore.obj
 0001:00043735       ?AfxA2WHelper@@YGPA_WPA_WPBDH@Z 00444735 f   nafxcw:strcore.obj
 0001:0004374b       ?AfxW2AHelper@@YGPADPADPB_WH@Z 0044474b f   nafxcw:strcore.obj
 0001:00043761       ??$HashKey@VCComBSTR@ATL@@@@YGIVCComBSTR@ATL@@@Z 00444761 f   nafxcw:strcore.obj
 0001:00043799       ??0CAfxStringMgr@@QAE@XZ   00444799 f i nafxcw:strcore.obj
 0001:000437bf       ?GetNilString@CAfxStringMgr@@UAEPAUCStringData@ATL@@XZ 004447bf f   nafxcw:strcore.obj
 0001:000437cd       ?GetLength@?$CSimpleStringT@_W$0A@@ATL@@QBEHXZ 004447cd f i nafxcw:strcore.obj
 0001:000437d3       ?Attach@?$CSimpleStringT@_W$0A@@ATL@@AAEXPAUCStringData@2@@Z 004447d3 f i nafxcw:strcore.obj
 0001:000437df       ?SetLength@?$CSimpleStringT@_W$0A@@ATL@@AAEXH@Z 004447df f i nafxcw:strcore.obj
 0001:00043806       ?ThrowMemoryException@?$CSimpleStringT@_W$0A@@ATL@@KAXXZ 00444806 f i nafxcw:strcore.obj
 0001:00043811       ??$SerializeElementsInsertExtract@VCComBSTR@ATL@@@@YGXAAVCArchive@@PAVCComBSTR@ATL@@H@Z 00444811 f i nafxcw:strcore.obj
 0001:0004385f       ??$?6DV?$StrTraitMFC@DV?$ChTraitsCRT@D@ATL@@@@@@YGAAVCArchive@@AAV0@ABV?$CStringT@DV?$StrTraitMFC@DV?$ChTraitsCRT@D@ATL@@@@@ATL@@@Z 0044485f f i nafxcw:strcore.obj
 0001:0004388b       ??$?6_WV?$StrTraitMFC@_WV?$ChTraitsCRT@_W@ATL@@@@@@YGAAVCArchive@@AAV0@ABV?$CStringT@_WV?$StrTraitMFC@_WV?$ChTraitsCRT@_W@ATL@@@@@ATL@@@Z 0044488b f i nafxcw:strcore.obj
 0001:000438ba       ?Empty@?$CSimpleStringT@_W$0A@@ATL@@QAEXXZ 004448ba f i nafxcw:strcore.obj
 0001:000438fe       ?ReleaseBufferSetLength@?$CSimpleStringT@_W$0A@@ATL@@QAEXH@Z 004448fe f i nafxcw:strcore.obj
 0001:00043903       ?Fork@?$CSimpleStringT@_W$0A@@ATL@@AAEXH@Z 00444903 f i nafxcw:strcore.obj
 0001:0004396a       ?Reallocate@?$CSimpleStringT@_W$0A@@ATL@@AAEXH@Z 0044496a f i nafxcw:strcore.obj
 0001:00043992       ??$SerializeElements@VCComBSTR@ATL@@@@YGXAAVCArchive@@PAVCComBSTR@ATL@@H@Z 00444992 f   nafxcw:strcore.obj
 0001:00043997       ??0?$CTempBuffer@D$0IA@VCCRTAllocator@ATL@@@ATL@@QAE@I@Z 00444997 f i nafxcw:strcore.obj
 0001:000439ac       ??0?$CTempBuffer@_W$0IA@VCCRTAllocator@ATL@@@ATL@@QAE@I@Z 004449ac f i nafxcw:strcore.obj
 0001:000439c4       ?PrepareWrite2@?$CSimpleStringT@_W$0A@@ATL@@AAEXH@Z 004449c4 f i nafxcw:strcore.obj
 0001:00043a0b       ?PrepareWrite@?$CSimpleStringT@_W$0A@@ATL@@AAEPA_WH@Z 00444a0b f i nafxcw:strcore.obj
 0001:00043a35       ?GetBuffer@?$CSimpleStringT@_W$0A@@ATL@@QAEPA_WH@Z 00444a35 f i nafxcw:strcore.obj
 0001:00043a3a       ?SetString@?$CSimpleStringT@_W$0A@@ATL@@QAEXPB_WH@Z 00444a3a f i nafxcw:strcore.obj
 0001:00043aa3       ??4?$CStringT@_WV?$StrTraitMFC@_WV?$ChTraitsCRT@_W@ATL@@@@@ATL@@QAEAAV01@PBD@Z 00444aa3 f i nafxcw:strcore.obj
 0001:00043aed       ?SetString@?$CSimpleStringT@_W$0A@@ATL@@QAEXPB_W@Z 00444aed f i nafxcw:strcore.obj
 0001:00043b12       ??$?5DV?$StrTraitMFC@DV?$ChTraitsCRT@D@ATL@@@@@@YGAAVCArchive@@AAV0@AAV?$CStringT@DV?$StrTraitMFC@DV?$ChTraitsCRT@D@ATL@@@@@ATL@@@Z 00444b12 f i nafxcw:strcore.obj
 0001:00043c33       ??4?$CSimpleStringT@_W$0A@@ATL@@QAEAAV01@PB_W@Z 00444c33 f i nafxcw:strcore.obj
 0001:00043c45       ??$SerializeElementsInsertExtract@V?$CStringT@DV?$StrTraitMFC@DV?$ChTraitsCRT@D@ATL@@@@@ATL@@@@YGXAAVCArchive@@PAV?$CStringT@DV?$StrTraitMFC@DV?$ChTraitsCRT@D@ATL@@@@@ATL@@H@Z 00444c45 f i nafxcw:strcore.obj
 0001:00043c87       ??4?$CStringT@_WV?$StrTraitMFC@_WV?$ChTraitsCRT@_W@ATL@@@@@ATL@@QAEAAV01@PB_W@Z 00444c87 f i nafxcw:strcore.obj
 0001:00043c99       ??$SerializeElements@V?$CStringT@DV?$StrTraitMFC@DV?$ChTraitsCRT@D@ATL@@@@@ATL@@@@YGXAAVCArchive@@PAV?$CStringT@DV?$StrTraitMFC@DV?$ChTraitsCRT@D@ATL@@@@@ATL@@H@Z 00444c99 f   nafxcw:strcore.obj
 0001:00043c9e       ??$?5_WV?$StrTraitMFC@_WV?$ChTraitsCRT@_W@ATL@@@@@@YGAAVCArchive@@AAV0@AAV?$CStringT@_WV?$StrTraitMFC@_WV?$ChTraitsCRT@_W@ATL@@@@@ATL@@@Z 00444c9e f i nafxcw:strcore.obj
 0001:00043dbf       ??$SerializeElementsInsertExtract@V?$CStringT@_WV?$StrTraitMFC@_WV?$ChTraitsCRT@_W@ATL@@@@@ATL@@@@YGXAAVCArchive@@PAV?$CStringT@_WV?$StrTraitMFC@_WV?$ChTraitsCRT@_W@ATL@@@@@ATL@@H@Z 00444dbf f i nafxcw:strcore.obj
 0001:00043e01       ??$SerializeElements@V?$CStringT@_WV?$StrTraitMFC@_WV?$ChTraitsCRT@_W@ATL@@@@@ATL@@@@YGXAAVCArchive@@PAV?$CStringT@_WV?$StrTraitMFC@_WV?$ChTraitsCRT@_W@ATL@@@@@ATL@@H@Z 00444e01 f   nafxcw:strcore.obj
 0001:00043e10       ?GetRuntimeClass@CObject@@UBEPAUCRuntimeClass@@XZ 00444e10 f   nafxcw:objcore.obj
 0001:00043e16       ?CreateObject@CRuntimeClass@@QAEPAVCObject@@XZ 00444e16 f   nafxcw:objcore.obj
 0001:00043e5c       ?IsSerializable@CObject@@QBEHXZ 00444e5c f   nafxcw:objcore.obj
 0001:00043e6f       ?IsDerivedFrom@CRuntimeClass@@QBEHPBU1@@Z 00444e6f f   nafxcw:objcore.obj
 0001:00043e91       ?AddHead@?$CTypedSimpleList@PAUCRuntimeClass@@@@QAEXPAUCRuntimeClass@@@Z 00444e91 f i nafxcw:objcore.obj
 0001:00043e96       ?IsKindOf@CObject@@QBEHPBUCRuntimeClass@@@Z 00444e96 f   nafxcw:objcore.obj
 0001:00043ea1       ?AfxDynamicDownCast@@YAPAVCObject@@PAUCRuntimeClass@@PAV1@@Z 00444ea1 f   nafxcw:objcore.obj
 0001:00043ec7       ?AfxClassInit@@YGXPAUCRuntimeClass@@@Z 00444ec7 f   nafxcw:objcore.obj
 0001:00043eed       ?UpdateSysColors@AUX_DATA@@QAEXXZ 00444eed f   nafxcw:auxdata.obj
 0001:00043f31       ?UpdateSysMetrics@AUX_DATA@@QAEXXZ 00444f31 f   nafxcw:auxdata.obj
 0001:00043f8b       ?AfxGetThread@@YGPAVCWinThread@@XZ 00444f8b f   nafxcw:thrdcore.obj
 0001:00043f94       ?AfxGetCurrentMessage@@YGPAUtagMSG@@XZ 00444f94 f   nafxcw:thrdcore.obj
 0001:00043f9d       ?AfxInternalProcessWndProcException@@YGJPAVCException@@PBUtagMSG@@@Z 00444f9d f   nafxcw:thrdcore.obj
 0001:00043fc2       ?AfxProcessWndProcException@@YGJPAVCException@@PBUtagMSG@@@Z 00444fc2 f   nafxcw:thrdcore.obj
 0001:00043fd8       ?AfxTermThread@@YGXPAUHINSTANCE__@@@Z 00444fd8 f   nafxcw:thrdcore.obj
 0001:00044086       ?Delete@CWinThread@@UAEXXZ 00445086 f   nafxcw:thrdcore.obj
 0001:00044094       ?InitInstance@CWinThread@@UAEHXZ 00445094 f   nafxcw:thrdcore.obj
 0001:00044097       ?Run@CWinThread@@UAEHXZ    00445097 f   nafxcw:thrdcore.obj
 0001:00044124       ?ExitInstance@CWinThread@@UAEHXZ 00445124 f   nafxcw:thrdcore.obj
 0001:0004412d       ?DispatchThreadMessageEx@CWinThread@@IAEHPAUtagMSG@@@Z 0044512d f   nafxcw:thrdcore.obj
 0001:000441a3       ?ProcessWndProcException@CWinThread@@UAEJPAVCException@@PBUtagMSG@@@Z 004451a3 f   nafxcw:thrdcore.obj
 0001:000441a8       ?IsHelpKey@@YGHPAUtagMSG@@@Z 004451a8 f   nafxcw:thrdcore.obj
 0001:000441ee       ?IsEnterKey@@YAHPAUtagMSG@@@Z 004451ee f i nafxcw:thrdcore.obj
 0001:00044208       ?IsButtonUp@@YAHPAUtagMSG@@@Z 00445208 f i nafxcw:thrdcore.obj
 0001:00044219       ?AfxInternalPreTranslateMessage@@YAHPAUtagMSG@@@Z 00445219 f   nafxcw:thrdcore.obj
 0001:00044285       ?AfxPreTranslateMessage@@YAHPAUtagMSG@@@Z 00445285 f   nafxcw:thrdcore.obj
 0001:000442a0       ?AfxInternalIsIdleMessage@@YAHPAUtagMSG@@@Z 004452a0 f   nafxcw:thrdcore.obj
 0001:0004430c       ?AfxIsIdleMessage@@YAHPAUtagMSG@@@Z 0044530c f   nafxcw:thrdcore.obj
 0001:00044327       ?AfxEndThread@@YGXIH@Z     00445327 f   nafxcw:thrdcore.obj
 0001:0004436c       ?IsIdleMessage@CWinThread@@UAEHPAUtagMSG@@@Z 0044536c f   nafxcw:thrdcore.obj
 0001:00044379       ?DispatchThreadMessage@CWinThread@@IAEXPAUtagMSG@@@Z 00445379 f   nafxcw:thrdcore.obj
 0001:0004437e       ?PreTranslateMessage@CWinThread@@UAEHPAUtagMSG@@@Z 0044537e f   nafxcw:thrdcore.obj
 0001:0004438b       ?GetMainWnd@CWinThread@@UAEPAVCWnd@@XZ 0044538b f   nafxcw:thrdcore.obj
 0001:000443a6       ?AfxInternalPumpMessage@@YGHXZ 004453a6 f   nafxcw:thrdcore.obj
 0001:000443ea       ?AfxPumpMessage@@YGHXZ     004453ea f   nafxcw:thrdcore.obj
 0001:00044400       ?_AfxMsgFilterHook@@YGJHIJ@Z 00445400 f   nafxcw:thrdcore.obj
 0001:00044459       ?ProcessMessageFilter@CWinThread@@UAEHHPAUtagMSG@@@Z 00445459 f   nafxcw:thrdcore.obj
 0001:00044579       ?PumpMessage@CWinThread@@UAEHXZ 00445579 f   nafxcw:thrdcore.obj
 0001:0004457e       ?AfxInitThread@@YGXXZ      0044557e f   nafxcw:thrdcore.obj
 0001:000445ac       ?OnIdle@CWinThread@@UAEHJ@Z 004455ac f   nafxcw:thrdcore.obj
 0001:000446b5       ?_AfxThreadEntry@@YGIPAX@Z 004456b5 f   nafxcw:thrdcore.obj
 0001:000447e3       ?CreateThread@CWinThread@@QAEHKIPAU_SECURITY_ATTRIBUTES@@@Z 004457e3 f   nafxcw:thrdcore.obj
 0001:000448c6       ?AfxBeginThread@@YGPAVCWinThread@@P6AIPAX@Z0HIKPAU_SECURITY_ATTRIBUTES@@@Z 004458c6 f   nafxcw:thrdcore.obj
 0001:00044948       ?AfxBeginThread@@YGPAVCWinThread@@PAUCRuntimeClass@@HIKPAU_SECURITY_ATTRIBUTES@@@Z 00445948 f   nafxcw:thrdcore.obj
 0001:000449a8       ??0CStdioFile@@QAE@XZ      004459a8 f   nafxcw:filetxt.obj
 0001:000449be       ??0CStdioFile@@QAE@PAU_iobuf@@@Z 004459be f   nafxcw:filetxt.obj
 0001:00044a10       ?Open@CStdioFile@@UAEHPBDIPAVCFileException@@@Z 00445a10 f   nafxcw:filetxt.obj
 0001:00044af2       ?Abort@CStdioFile@@UAEXXZ  00445af2 f   nafxcw:filetxt.obj
 0001:00044b1b       ?Duplicate@CStdioFile@@UBEPAVCFile@@XZ 00445b1b f   nafxcw:filetxt.obj
 0001:00044b20       ?LockRange@CStdioFile@@UAEX_K0@Z 00445b20 f   nafxcw:filetxt.obj
 0001:00044b26       ?UnlockRange@CStdioFile@@UAEX_K0@Z 00445b26 f   nafxcw:filetxt.obj
 0001:00044b2c       ?Read@CStdioFile@@UAEIPAXI@Z 00445b2c f   nafxcw:filetxt.obj
 0001:00044b8d       ?Write@CStdioFile@@UAEXPBXI@Z 00445b8d f   nafxcw:filetxt.obj
 0001:00044bcd       ?WriteString@CStdioFile@@UAEXPBD@Z 00445bcd f   nafxcw:filetxt.obj
 0001:00044c05       ?ReadString@CStdioFile@@UAEPADPADI@Z 00445c05 f   nafxcw:filetxt.obj
 0001:00044c51       ?Seek@CStdioFile@@UAE_K_JI@Z 00445c51 f   nafxcw:filetxt.obj
 0001:00044cb7       ?GetLength@CStdioFile@@UBE_KXZ 00445cb7 f   nafxcw:filetxt.obj
 0001:00044d4a       ?GetPosition@CStdioFile@@UBE_KXZ 00445d4a f   nafxcw:filetxt.obj
 0001:00044d70       ?Flush@CStdioFile@@UAEXXZ  00445d70 f   nafxcw:filetxt.obj
 0001:00044d99       ?Close@CStdioFile@@UAEXXZ  00445d99 f   nafxcw:filetxt.obj
 0001:00044dd5       ??1CStdioFile@@UAE@XZ      00445dd5 f   nafxcw:filetxt.obj
 0001:00044e18       ??_ECStdioFile@@UAEPAXI@Z  00445e18 f i nafxcw:filetxt.obj
 0001:00044e18       ??_GCStdioFile@@UAEPAXI@Z  00445e18 f i nafxcw:filetxt.obj
 0001:00044e34       ?ReadString@CStdioFile@@UAEHAAV?$CStringT@DV?$StrTraitMFC@DV?$ChTraitsCRT@D@ATL@@@@@ATL@@@Z 00445e34 f   nafxcw:filetxt.obj
 0001:00044efa       ??0CStdioFile@@QAE@PBDI@Z  00445efa f   nafxcw:filetxt.obj
 0001:00044f7d       ?IsDirSep@@YAHD@Z          00445f7d f i nafxcw:filecore.obj
 0001:00044f92       ?GetBufferPtr@CFile@@UAEIIIPAPAX0@Z 00445f92 f   nafxcw:filecore.obj
 0001:00044f97       ?Rename@CFile@@SGXPBD0@Z   00445f97 f   nafxcw:filecore.obj
 0001:00044fbc       ?Remove@CFile@@SGXPBD@Z    00445fbc f   nafxcw:filecore.obj
 0001:00044fdd       ?AfxComparePath@@YGHPBD0@Z 00445fdd f   nafxcw:filecore.obj
 0001:000450c9       ?Read@CFile@@UAEIPAXI@Z    004460c9 f   nafxcw:filecore.obj
 0001:00045109       ?Write@CFile@@UAEXPBXI@Z   00446109 f   nafxcw:filecore.obj
 0001:00045154       ?Seek@CFile@@UAE_K_JI@Z    00446154 f   nafxcw:filecore.obj
 0001:000451a5       ?GetPosition@CFile@@UBE_KXZ 004461a5 f   nafxcw:filecore.obj
 0001:000451ef       ?Flush@CFile@@UAEXXZ       004461ef f   nafxcw:filecore.obj
 0001:00045216       ?LockRange@CFile@@UAEX_K0@Z 00446216 f   nafxcw:filecore.obj
 0001:00045249       ?UnlockRange@CFile@@UAEX_K0@Z 00446249 f   nafxcw:filecore.obj
 0001:0004527c       ?SetLength@CFile@@UAEX_K@Z 0044627c f   nafxcw:filecore.obj
 0001:000452ae       ?GetLength@CFile@@UBE_KXZ  004462ae f   nafxcw:filecore.obj
 0001:000452ed       ?AfxGetFileTitle@@YGIPBDPADI@Z 004462ed f   nafxcw:filecore.obj
 0001:00045359       ?Close@CFile@@UAEXXZ       00446359 f   nafxcw:filecore.obj
 0001:0004539c       ?Abort@CFile@@UAEXXZ       0044639c f   nafxcw:filecore.obj
 0001:000453bb       ??0CFile@@QAE@XZ           004463bb f   nafxcw:filecore.obj
 0001:000453d8       ??0CFile@@QAE@PAX@Z        004463d8 f   nafxcw:filecore.obj
 0001:000453fa       ??1CFile@@UAE@XZ           004463fa f   nafxcw:filecore.obj
 0001:0004543e       ?Duplicate@CFile@@UBEPAV1@XZ 0044643e f   nafxcw:filecore.obj
 0001:000454b4       ??_GCFile@@UAEPAXI@Z       004464b4 f i nafxcw:filecore.obj
 0001:000454b4       ??_ECFile@@UAEPAXI@Z       004464b4 f i nafxcw:filecore.obj
 0001:000454d0       ?AfxGetInProcServer@@YGHPBDAAV?$CStringT@DV?$StrTraitMFC@DV?$ChTraitsCRT@D@ATL@@@@@ATL@@@Z 004464d0 f   nafxcw:filecore.obj
 0001:00045580       ?AfxGetRoot@@YGXPBDAAV?$CStringT@DV?$StrTraitMFC@DV?$ChTraitsCRT@D@ATL@@@@@ATL@@@Z 00446580 f   nafxcw:filecore.obj
 0001:000455c2       ?AfxFullPath@@YGHPADPBD@Z  004465c2 f   nafxcw:filecore.obj
 0001:00045713       ?Open@CFile@@UAEHPBDIPAVCFileException@@@Z 00446713 f   nafxcw:filecore.obj
 0001:000458be       ?AfxGetModuleShortFileName@@YGXPAUHINSTANCE__@@AAV?$CStringT@DV?$StrTraitMFC@DV?$ChTraitsCRT@D@ATL@@@@@ATL@@@Z 004468be f   nafxcw:filecore.obj
 0001:0004592f       ??0CFile@@QAE@PBDI@Z       0044692f f   nafxcw:filecore.obj
 0001:000459af       ?AfxStringFromCLSID@@YG?AV?$CStringT@DV?$StrTraitMFC@DV?$ChTraitsCRT@D@ATL@@@@@ATL@@ABU_GUID@@@Z 004469af f   nafxcw:filecore.obj
 0001:00045a38       ?GetClassObject@AFX_COM@@QAEJABU_GUID@@0PAPAX@Z 00446a38 f   nafxcw:filecore.obj
 0001:00045add       ?CreateInstance@AFX_COM@@QAEJABU_GUID@@PAUIUnknown@@0PAPAX@Z 00446add f   nafxcw:filecore.obj
 0001:00045b39       ?AfxResolveShortcut@@YGHPAVCWnd@@PBDPADH@Z 00446b39 f   nafxcw:filecore.obj
 0001:00045cad       ??0CFileStatus@@QAE@XZ     00446cad f i nafxcw:filest.obj
 0001:00045cc3       ?GetStatus@CFile@@SGHPBDAAUCFileStatus@@@Z 00446cc3 f   nafxcw:filest.obj
 0001:00045e1a       ?AfxTimeToFileTime@@YAXABVCTime@ATL@@PAU_FILETIME@@@Z 00446e1a f   nafxcw:filest.obj
 0001:00045ed3       ?SetStatus@CFile@@SGXPBDABUCFileStatus@@@Z 00446ed3 f   nafxcw:filest.obj
 0001:00046010       ?GetStatus@CMemFile@@QBEHAAUCFileStatus@@@Z 00447010 f   nafxcw:filest.obj
 0001:0004603c       ?GetStatus@CFile@@QBEHAAUCFileStatus@@@Z 0044703c f   nafxcw:filest.obj
 0001:00046194       ?GetFileName@CFile@@UBE?AV?$CStringT@DV?$StrTraitMFC@DV?$ChTraitsCRT@D@ATL@@@@@ATL@@XZ 00447194 f   nafxcw:filest.obj
 0001:00046267       ?GetFileTitle@CFile@@UBE?AV?$CStringT@DV?$StrTraitMFC@DV?$ChTraitsCRT@D@ATL@@@@@ATL@@XZ 00447267 f   nafxcw:filest.obj
 0001:0004633a       ?GetFilePath@CFile@@UBE?AV?$CStringT@DV?$StrTraitMFC@DV?$ChTraitsCRT@D@ATL@@@@@ATL@@XZ 0044733a f   nafxcw:filest.obj
 0001:000463a1       ?OnAmbientProperty@CWnd@@UAEHPAVCOleControlSite@@JPAUtagVARIANT@@@Z 004473a1 f   nafxcw:winocc.obj
 0001:000463a9       ?GetControlUnknown@CWnd@@QAEPAUIUnknown@@XZ 004473a9 f   nafxcw:winocc.obj
 0001:000463b5       ?PaintWindowlessControls@CWnd@@QAEHPAVCDC@@@Z 004473b5 f   nafxcw:winocc.obj
 0001:000463cb       ?GetOleControlSite@CWnd@@QBEPAVCOleControlSite@@I@Z 004473cb f   nafxcw:winocc.obj
 0001:000463de       ?CheckDlgButton@CWnd@@QAEXHI@Z 004473de f   nafxcw:winocc.obj
 0001:00046400       ?CheckRadioButton@CWnd@@QAEXHHH@Z 00447400 f   nafxcw:winocc.obj
 0001:00046428       ?GetDlgItem@CWnd@@QBEPAV1@H@Z 00447428 f   nafxcw:winocc.obj
 0001:0004644c       ?GetDlgItem@CWnd@@QBEXHPAPAUHWND__@@@Z 0044744c f   nafxcw:winocc.obj
 0001:00046470       ?GetDlgItemInt@CWnd@@QBEIHPAHH@Z 00447470 f   nafxcw:winocc.obj
 0001:00046498       ?GetDlgItemTextA@CWnd@@QBEHHPADH@Z 00447498 f   nafxcw:winocc.obj
 0001:000464c0       ?SendDlgItemMessageA@CWnd@@QAEJHIIJ@Z 004474c0 f   nafxcw:winocc.obj
 0001:000464ee       ?SetDlgItemInt@CWnd@@QAEXHIH@Z 004474ee f   nafxcw:winocc.obj
 0001:00046519       ?SetDlgItemTextA@CWnd@@QAEXHPBD@Z 00447519 f   nafxcw:winocc.obj
 0001:0004653e       ?IsDlgButtonChecked@CWnd@@QBEIH@Z 0044753e f   nafxcw:winocc.obj
 0001:0004655f       ?IsDialogMessageA@CWnd@@QAEHPAUtagMSG@@@Z 0044755f f   nafxcw:winocc.obj
 0001:00046592       ?GetStyle@CWnd@@QBEKXZ     00447592 f   nafxcw:winocc.obj
 0001:000465ac       ?GetExStyle@CWnd@@QBEKXZ   004475ac f   nafxcw:winocc.obj
 0001:000465c6       ?ModifyStyle@CWnd@@QAEHKKI@Z 004475c6 f   nafxcw:winocc.obj
 0001:000465f0       ?ModifyStyleEx@CWnd@@QAEHKKI@Z 004475f0 f   nafxcw:winocc.obj
 0001:0004661a       ?SetWindowTextA@CWnd@@QAEXPBD@Z 0044761a f   nafxcw:winocc.obj
 0001:0004663b       ?GetDlgCtrlID@CWnd@@QBEHXZ 0044763b f   nafxcw:winocc.obj
 0001:00046656       ?SetDlgCtrlID@CWnd@@QAEHH@Z 00447656 f   nafxcw:winocc.obj
 0001:00046679       ?MoveWindow@CWnd@@QAEXHHHHH@Z 00447679 f   nafxcw:winocc.obj
 0001:000466b7       ?ShowWindow@CWnd@@QAEHH@Z  004476b7 f   nafxcw:winocc.obj
 0001:000466d8       ?IsWindowEnabled@CWnd@@QBEHXZ 004476d8 f   nafxcw:winocc.obj
 0001:000466f3       ?EnableWindow@CWnd@@QAEHH@Z 004476f3 f   nafxcw:winocc.obj
 0001:00046714       ?SetFocus@CWnd@@QAEPAV1@XZ 00447714 f   nafxcw:winocc.obj
 0001:00046735       ?InvokeHelper@CWnd@@QAAXJGGPAXPBEZZ 00447735 f   nafxcw:winocc.obj
