 CacheServer

 Timestamp is 525db7e1 (Tue Oct 15 17:47:13 2013)

 Preferred load address is 00400000

 Start         Length     Name                   Class
 0001:00000000 0003dbd6H .text                   CODE
 0001:0003dbd6 00000cf8H .text$AFX_AUX           CODE
 0001:0003e8ce 000001c9H .text$AFX_CMNCTL        CODE
 0001:0003ea97 00000a7aH .text$AFX_COL1          CODE
 0001:0003f511 000002e2H .text$AFX_COL2          CODE
 0001:0003f7f3 0000abefH .text$AFX_CORE1         CODE
 0001:0004a3e2 000034f6H .text$AFX_CORE2         CODE
 0001:0004d8d8 00002355H .text$AFX_CORE3         CODE
 0001:0004fc2d 00000751H .text$AFX_CORE4         CODE
 0001:0005037e 00003e13H .text$AFX_INIT          CODE
 0001:00054191 000014d6H .text$AFX_OLE1          CODE
 0001:00055667 000000ecH .text$AFX_TERM          CODE
 0001:00055760 00002034H .text$x                 CODE
 0001:000577a0 00000338H .text$yc                CODE
 0001:00057ae0 00000078H .text$yd                CODE
 0002:00000000 00000890H .idata$5                DATA
 0002:00000890 0000ef70H .rdata                  DATA
 0002:0000f800 00000089H .rdata$debug            DATA
 0002:0000f88c 00000298H .rdata$ilfixup          DATA
 0002:0000fb24 0000132cH .rdata$r                DATA
 0002:00010e50 000004a0H .rdata$sxdata           DATA
 0002:000112f0 00000004H .rtc$IAA                DATA
 0002:000112f4 00000004H .rtc$IZZ                DATA
 0002:000112f8 00000004H .rtc$TAA                DATA
 0002:000112fc 00000004H .rtc$TZZ                DATA
 0002:00011300 00003758H .xdata$x                DATA
 0002:00014a58 00000004H ATL$__a                 DATA
 0002:00014a5c 00000004H ATL$__z                 DATA
 0002:00014a60 00000154H .idata$2                DATA
 0002:00014bb4 00000014H .idata$3                DATA
 0002:00014bc8 00000890H .idata$4                DATA
 0002:00015458 00002118H .idata$6                DATA
 0002:00017570 00000000H .edata                  DATA
 0003:00000000 00000004H .CRT$XCA                DATA
 0003:00000004 00000004H .CRT$XCA0               DATA
 0003:00000008 00000004H .CRT$XCAA               DATA
 0003:0000000c 0000000cH .CRT$XCC                DATA
 0003:00000018 00000008H .CRT$XCL                DATA
 0003:00000020 00000064H .CRT$XCU                DATA
 0003:00000084 00000004H .CRT$XCZ                DATA
 0003:00000088 00000004H .CRT$XIA                DATA
 0003:0000008c 0000000cH .CRT$XIC                DATA
 0003:00000098 00000004H .CRT$XIY                DATA
 0003:0000009c 00000004H .CRT$XIZ                DATA
 0003:000000a0 00000004H .CRT$XPA                DATA
 0003:000000a4 00000004H .CRT$XPX                DATA
 0003:000000a8 00000004H .CRT$XPZ                DATA
 0003:000000ac 00000004H .CRT$XTA                DATA
 0003:000000b0 00000004H .CRT$XTB                DATA
 0003:000000b4 00000004H .CRT$XTZ                DATA
 0003:000000c0 00002e7cH .data                   DATA
 0003:00002f40 00010d44H .bss                    DATA
 0004:00000000 000001a8H .rsrc$01                DATA
 0004:000001b0 00000600H .rsrc$02                DATA

  Address         Publics by Value              Rva+Base     Lib:Object

 0000:00000000       __except_list              00000000     <absolute>
 0000:00000128       ___safe_se_handler_count   00000128     <absolute>
 0000:00000000       ___ImageBase               00400000     <linker-defined>
 0001:00000000       ?InterlockedExchangePointer@@YGPAXPAPAXPAX@Z 00401000 f i CacheServer.obj
 0001:00000010       ?_AtlGetThreadACPFake@ATL@@YGIXZ 00401010 f i CacheServer.obj
 0001:00000090       ?_AtlGetThreadACPReal@ATL@@YGIXZ 00401090 f i CacheServer.obj
 0001:000000a0       ?_AtlGetThreadACPThunk@ATL@@YGIXZ 004010a0 f i CacheServer.obj
 0001:00000110       ?_AtlGetConversionACP@ATL@@YGIXZ 00401110 f i CacheServer.obj
 0001:00000120       ?StartServer@CDPMng@@QAEHGHK@Z 00401120 f i CacheServer.obj
 0001:00000170       ?ConnectToServer@CDPMng@@QAEHPBDGHKK@Z 00401170 f i CacheServer.obj
 0001:000001c0       ?Initialize@CMyTrace@@QAEXPAUHWND__@@PBDKK@Z 004011c0 f i CacheServer.obj
 0001:00000210       ?AtlThrow@ATL@@YGXJ@Z      00401210 f i CacheServer.obj
 0001:00000230       ?InitLanguageFromResource@@YAXPAUHINSTANCE__@@@Z 00401230 f   CacheServer.obj
 0001:000002c0       ?_AtlGetStringResourceImage@ATL@@YAPBUATLSTRINGRESOURCEIMAGE@1@PAUHINSTANCE__@@PAUHRSRC__@@I@Z 004012c0 f i CacheServer.obj
 0001:00000320       ?AtlGetStringResourceImage@ATL@@YAPBUATLSTRINGRESOURCEIMAGE@1@PAUHINSTANCE__@@I@Z 00401320 f i CacheServer.obj
 0001:00000360       ?ExitInstance@@YAXXZ       00401360 f   CacheServer.obj
 0001:00000390       ?WndProc@@YGJPAUHWND__@@IIJ@Z 00401390 f   CacheServer.obj
 0001:000004d0       ?data@CStringData@ATL@@QAEPAXXZ 004014d0 f i CacheServer.obj
 0001:000004e0       ?IsLocked@CStringData@ATL@@QBE_NXZ 004014e0 f i CacheServer.obj
 0001:000004f0       ?IsShared@CStringData@ATL@@QBE_NXZ 004014f0 f i CacheServer.obj
 0001:00000500       ?Release@CStringData@ATL@@QAEXXZ 00401500 f i CacheServer.obj
 0001:00000520       ?StringCompare@?$ChTraitsCRT@D@ATL@@SAHPBD0@Z 00401520 f i CacheServer.obj
 0001:00000530       ??0CTime@ATL@@QAE@_J@Z     00401530 f i CacheServer.obj
 0001:00000550       ??B?$CSimpleStringT@D$0A@@ATL@@QBEPBDXZ 00401550 f i CacheServer.obj
 0001:00000560       ?GetString@?$CSimpleStringT@D$0A@@ATL@@QBEPBDXZ 00401560 f i CacheServer.obj
 0001:00000570       ?StringLength@?$CSimpleStringT@D$0A@@ATL@@SAHPBD@Z 00401570 f i CacheServer.obj
 0001:00000590       ?GetData@?$CSimpleStringT@D$0A@@ATL@@ABEPAUCStringData@2@XZ 00401590 f i CacheServer.obj
 0001:000005a0       ?SetLength@?$CSimpleStringT@D$0A@@ATL@@AAEXH@Z 004015a0 f i CacheServer.obj
 0001:000005d0       ?FindStringResourceInstance@?$StrTraitMFC@DV?$ChTraitsCRT@D@ATL@@@@SAPAUHINSTANCE__@@I@Z 004015d0 f i CacheServer.obj
 0001:000005e0       ?GetDefaultManager@?$StrTraitMFC@DV?$ChTraitsCRT@D@ATL@@@@SAPAUIAtlStringMgr@ATL@@XZ 004015e0 f i CacheServer.obj
 0001:000005f0       ?Attach@?$CSimpleStringT@D$0A@@ATL@@AAEXPAUCStringData@2@@Z 004015f0 f i CacheServer.obj
 0001:00000600       ?GetBaseTypeLength@?$ChTraitsCRT@D@ATL@@SAHPBGH@Z 00401600 f i CacheServer.obj
 0001:00000630       ?ConvertToBaseType@?$ChTraitsCRT@D@ATL@@SAXPADHPBGH@Z 00401630 f i CacheServer.obj
 0001:00000660       ?CopyChars@?$CSimpleStringT@D$0A@@ATL@@SAXPADPBDH@Z 00401660 f i CacheServer.obj
 0001:00000680       ?CopyCharsOverlapped@?$CSimpleStringT@D$0A@@ATL@@SAXPADPBDH@Z 00401680 f i CacheServer.obj
 0001:00000690       ?ThrowMemoryException@?$CSimpleStringT@D$0A@@ATL@@KAXXZ 00401690 f i CacheServer.obj
 0001:000006a0       ?Fork@?$CSimpleStringT@D$0A@@ATL@@AAEXH@Z 004016a0 f i CacheServer.obj
 0001:00000720       ?Reallocate@?$CSimpleStringT@D$0A@@ATL@@AAEXH@Z 00401720 f i CacheServer.obj
 0001:00000750       ?MyRegisterClass@@YAGPAUHINSTANCE__@@@Z 00401750 f   CacheServer.obj
 0001:000007e0       ?Compare@?$CStringT@DV?$StrTraitMFC@DV?$ChTraitsCRT@D@ATL@@@@@ATL@@QBEHPBD@Z 004017e0 f i CacheServer.obj
 0001:00000800       ?GetTickCount@CTime@ATL@@SG?AV12@XZ 00401800 f i CacheServer.obj
 0001:00000820       ?GetLength@?$CSimpleStringT@D$0A@@ATL@@QBEHXZ 00401820 f i CacheServer.obj
 0001:00000830       ??0?$CSimpleStringT@D$0A@@ATL@@QAE@PAUIAtlStringMgr@1@@Z 00401830 f i CacheServer.obj
 0001:00000850       ??1?$CSimpleStringT@D$0A@@ATL@@QAE@XZ 00401850 f i CacheServer.obj
 0001:00000870       ?ReleaseBufferSetLength@?$CSimpleStringT@D$0A@@ATL@@QAEXH@Z 00401870 f i CacheServer.obj
 0001:000008a0       ?Empty@?$CSimpleStringT@D$0A@@ATL@@QAEXXZ 004018a0 f i CacheServer.obj
 0001:00000910       ?PrepareWrite2@?$CSimpleStringT@D$0A@@ATL@@AAEXH@Z 00401910 f i CacheServer.obj
 0001:00000960       ??8ATL@@YA_NABV?$CStringT@DV?$StrTraitMFC@DV?$ChTraitsCRT@D@ATL@@@@@0@PBD@Z 00401960 f i CacheServer.obj
 0001:00000980       ??1?$CStringT@DV?$StrTraitMFC@DV?$ChTraitsCRT@D@ATL@@@@@ATL@@QAE@XZ 00401980 f i CacheServer.obj
 0001:000009a0       ?PrepareWrite@?$CSimpleStringT@D$0A@@ATL@@AAEPADH@Z 004019a0 f i CacheServer.obj
 0001:000009d0       ?Script@@YAHPBD@Z          004019d0 f   CacheServer.obj
 0001:00000b20       ?GetBuffer@?$CSimpleStringT@D$0A@@ATL@@QAEPADH@Z 00401b20 f i CacheServer.obj
 0001:00000b50       ?LoadStringA@?$CStringT@DV?$StrTraitMFC@DV?$ChTraitsCRT@D@ATL@@@@@ATL@@QAEHPAUHINSTANCE__@@I@Z 00401b50 f i CacheServer.obj
 0001:00000c20       ?SetString@?$CSimpleStringT@D$0A@@ATL@@QAEXPBDH@Z 00401c20 f i CacheServer.obj
 0001:00000cc0       ?LoadStringA@?$CStringT@DV?$StrTraitMFC@DV?$ChTraitsCRT@D@ATL@@@@@ATL@@QAEHI@Z 00401cc0 f i CacheServer.obj
 0001:00000cf0       ?CheckImplicitLoad@?$CStringT@DV?$StrTraitMFC@DV?$ChTraitsCRT@D@ATL@@@@@ATL@@AAE_NPBX@Z 00401cf0 f i CacheServer.obj
 0001:00000d30       ?SetString@?$CSimpleStringT@D$0A@@ATL@@QAEXPBD@Z 00401d30 f i CacheServer.obj
 0001:00000d70       ??4?$CSimpleStringT@D$0A@@ATL@@QAEAAV01@PBD@Z 00401d70 f i CacheServer.obj
 0001:00000db0       ??4?$CStringT@DV?$StrTraitMFC@DV?$ChTraitsCRT@D@ATL@@@@@ATL@@QAEAAV01@PBD@Z 00401db0 f i CacheServer.obj
 0001:00000df0       ??0?$CStringT@DV?$StrTraitMFC@DV?$ChTraitsCRT@D@ATL@@@@@ATL@@QAE@PBD@Z 00401df0 f i CacheServer.obj
 0001:00000ea0       ?Format@CTime@ATL@@QBE?AV?$CStringT@DV?$StrTraitMFC@DV?$ChTraitsCRT@D@ATL@@@@@2@PBD@Z 00401ea0 f i CacheServer.obj
 0001:00000f30       ?InitInstance@@YAHPAUHINSTANCE__@@H@Z 00401f30 f   CacheServer.obj
 0001:00001170       _WinMain@16                00402170 f   CacheServer.obj
 0001:00001240       ??2@YAPAXIPAX@Z            00402240 f i DPCacheSrvr.obj
 0001:00001250       ??3@YAXPAX0@Z              00402250 f i DPCacheSrvr.obj
 0001:00001260       ??6CAr@@QAEAAV0@J@Z        00402260 f i DPCacheSrvr.obj
 0001:00001280       ??6CAr@@QAEAAV0@K@Z        00402280 f i DPCacheSrvr.obj
 0001:000012a0       ??5CAr@@QAEAAV0@AAK@Z      004022a0 f i DPCacheSrvr.obj
 0001:000012e0       ?GetClient@CPlayer@@QAEPAVCDPClient@@XZ 004022e0 f i DPCacheSrvr.obj
 0001:000012f0       ?SetAlive@CPlayer@@QAEXH@Z 004022f0 f i DPCacheSrvr.obj
 0001:00001300       ?GetNetworkId@CPlayer@@QAEKXZ 00402300 f i DPCacheSrvr.obj
 0001:00001310       ?GetPlayerId@CPlayer@@QAEKXZ 00402310 f i DPCacheSrvr.obj
 0001:00001320       ?GetAddr@CPlayer@@QAEPBDXZ 00402320 f i DPCacheSrvr.obj
 0001:00001330       ?SetAddr@CPlayer@@QAEXPAVCDPMng@@@Z 00402330 f i DPCacheSrvr.obj
 0001:00001350       ??0?$pair@$$CBKP8CDPCacheSrvr@@AEXAAVCAr@@KPAEK@Z@std@@QAE@ABKABQ8CDPCacheSrvr@@AEXAAVCAr@@KPAEK@Z@Z 00402350 f i DPCacheSrvr.obj
 0001:00001370       ??R?$less@K@std@@QBE_NABK0@Z 00402370 f i DPCacheSrvr.obj
 0001:00001390       ?_Isnil@?$_Tree@V?$_Tmap_traits@KP8CDPCacheSrvr@@AEXAAVCAr@@KPAEK@ZU?$less@K@std@@V?$allocator@U?$pair@$$CBKP8CDPCacheSrvr@@AEXAAVCAr@@KPAEK@Z@std@@@4@$0A@@std@@@std@@KAAADPAU_Node@?$_Tree_nod@V?$_Tmap_traits@KP8CDPCacheSrvr@@AEXAAVCAr@@KPAEK@ZU?$less@K@std@@V?$allocator@U?$pair@$$CBKP8CDPCacheSrvr@@AEXAAVCAr@@KPAEK@Z@std@@@4@$0A@@std@@@2@@Z 00402390 f i DPCacheSrvr.obj
 0001:000013a0       ?_Left@?$_Tree@V?$_Tmap_traits@KP8CDPCacheSrvr@@AEXAAVCAr@@KPAEK@ZU?$less@K@std@@V?$allocator@U?$pair@$$CBKP8CDPCacheSrvr@@AEXAAVCAr@@KPAEK@Z@std@@@4@$0A@@std@@@std@@KAAAPAU_Node@?$_Tree_nod@V?$_Tmap_traits@KP8CDPCacheSrvr@@AEXAAVCAr@@KPAEK@ZU?$less@K@std@@V?$allocator@U?$pair@$$CBKP8CDPCacheSrvr@@AEXAAVCAr@@KPAEK@Z@std@@@4@$0A@@std@@@2@PAU342@@Z 004023a0 f i DPCacheSrvr.obj
 0001:000013b0       ?_Right@?$_Tree@V?$_Tmap_traits@KP8CDPCacheSrvr@@AEXAAVCAr@@KPAEK@ZU?$less@K@std@@V?$allocator@U?$pair@$$CBKP8CDPCacheSrvr@@AEXAAVCAr@@KPAEK@Z@std@@@4@$0A@@std@@@std@@KAAAPAU_Node@?$_Tree_nod@V?$_Tmap_traits@KP8CDPCacheSrvr@@AEXAAVCAr@@KPAEK@ZU?$less@K@std@@V?$allocator@U?$pair@$$CBKP8CDPCacheSrvr@@AEXAAVCAr@@KPAEK@Z@std@@@4@$0A@@std@@@2@PAU342@@Z 004023b0 f i DPCacheSrvr.obj
 0001:000013c0       ?_Kfn@?$_Tmap_traits@KP8CDPCacheSrvr@@AEXAAVCAr@@KPAEK@ZU?$less@K@std@@V?$allocator@U?$pair@$$CBKP8CDPCacheSrvr@@AEXAAVCAr@@KPAEK@Z@std@@@4@$0A@@std@@SAABKABU?$pair@$$CBKP8CDPCacheSrvr@@AEXAAVCAr@@KPAEK@Z@2@@Z 004023c0 f i DPCacheSrvr.obj
 0001:000013d0       ??0?$allocator@U?$pair@$$CBKP8CDPCacheSrvr@@AEXAAVCAr@@KPAEK@Z@std@@@std@@QAE@XZ 004023d0 f i DPCacheSrvr.obj
 0001:000013e0       ??8const_iterator@?$_Tree@V?$_Tmap_traits@KP8CDPCacheSrvr@@AEXAAVCAr@@KPAEK@ZU?$less@K@std@@V?$allocator@U?$pair@$$CBKP8CDPCacheSrvr@@AEXAAVCAr@@KPAEK@Z@std@@@4@$0A@@std@@@std@@QBE_NABV012@@Z 004023e0 f i DPCacheSrvr.obj
 0001:000013f0       ?_Mynode@const_iterator@?$_Tree@V?$_Tmap_traits@KP8CDPCacheSrvr@@AEXAAVCAr@@KPAEK@ZU?$less@K@std@@V?$allocator@U?$pair@$$CBKP8CDPCacheSrvr@@AEXAAVCAr@@KPAEK@Z@std@@@4@$0A@@std@@@std@@QBEPAU_Node@?$_Tree_nod@V?$_Tmap_traits@KP8CDPCacheSrvr@@AEXAAVCAr@@KPAEK@ZU?$less@K@std@@V?$allocator@U?$pair@$$CBKP8CDPCacheSrvr@@AEXAAVCAr@@KPAEK@Z@std@@@4@$0A@@std@@@3@XZ 004023f0 f i DPCacheSrvr.obj
 0001:00001400       ??0?$pair@Viterator@?$_Tree@V?$_Tmap_traits@KP8CDPCacheSrvr@@AEXAAVCAr@@KPAEK@ZU?$less@K@std@@V?$allocator@U?$pair@$$CBKP8CDPCacheSrvr@@AEXAAVCAr@@KPAEK@Z@std@@@4@$0A@@std@@@std@@_N@std@@QAE@ABViterator@?$_Tree@V?$_Tmap_traits@KP8CDPCacheSrvr@@AEXAAVCAr@@KPAEK@ZU?$less@K@std@@V?$allocator@U?$pair@$$CBKP8CDPCacheSrvr@@AEXAAVCAr@@KPAEK@Z@std@@@4@$0A@@std@@@1@AB_N@Z 00402400 f i DPCacheSrvr.obj
 0001:00001420       ?_Color@?$_Tree@V?$_Tmap_traits@KP8CDPCacheSrvr@@AEXAAVCAr@@KPAEK@ZU?$less@K@std@@V?$allocator@U?$pair@$$CBKP8CDPCacheSrvr@@AEXAAVCAr@@KPAEK@Z@std@@@4@$0A@@std@@@std@@KAAADPAU_Node@?$_Tree_nod@V?$_Tmap_traits@KP8CDPCacheSrvr@@AEXAAVCAr@@KPAEK@ZU?$less@K@std@@V?$allocator@U?$pair@$$CBKP8CDPCacheSrvr@@AEXAAVCAr@@KPAEK@Z@std@@@4@$0A@@std@@@2@@Z 00402420 f i DPCacheSrvr.obj
 0001:00001430       ?_Parent@?$_Tree@V?$_Tmap_traits@KP8CDPCacheSrvr@@AEXAAVCAr@@KPAEK@ZU?$less@K@std@@V?$allocator@U?$pair@$$CBKP8CDPCacheSrvr@@AEXAAVCAr@@KPAEK@Z@std@@@4@$0A@@std@@@std@@KAAAPAU_Node@?$_Tree_nod@V?$_Tmap_traits@KP8CDPCacheSrvr@@AEXAAVCAr@@KPAEK@ZU?$less@K@std@@V?$allocator@U?$pair@$$CBKP8CDPCacheSrvr@@AEXAAVCAr@@KPAEK@Z@std@@@4@$0A@@std@@@2@PAU342@@Z 00402430 f i DPCacheSrvr.obj
 0001:00001440       ?_Myval@?$_Tree@V?$_Tmap_traits@KP8CDPCacheSrvr@@AEXAAVCAr@@KPAEK@ZU?$less@K@std@@V?$allocator@U?$pair@$$CBKP8CDPCacheSrvr@@AEXAAVCAr@@KPAEK@Z@std@@@4@$0A@@std@@@std@@KAAAU?$pair@$$CBKP8CDPCacheSrvr@@AEXAAVCAr@@KPAEK@Z@2@PAU_Node@?$_Tree_nod@V?$_Tmap_traits@KP8CDPCacheSrvr@@AEXAAVCAr@@KPAEK@ZU?$less@K@std@@V?$allocator@U?$pair@$$CBKP8CDPCacheSrvr@@AEXAAVCAr@@KPAEK@Z@std@@@4@$0A@@std@@@2@@Z 00402440 f i DPCacheSrvr.obj
 0001:00001450       ?_Lmost@?$_Tree@V?$_Tmap_traits@KP8CDPCacheSrvr@@AEXAAVCAr@@KPAEK@ZU?$less@K@std@@V?$allocator@U?$pair@$$CBKP8CDPCacheSrvr@@AEXAAVCAr@@KPAEK@Z@std@@@4@$0A@@std@@@std@@IAEAAPAU_Node@?$_Tree_nod@V?$_Tmap_traits@KP8CDPCacheSrvr@@AEXAAVCAr@@KPAEK@ZU?$less@K@std@@V?$allocator@U?$pair@$$CBKP8CDPCacheSrvr@@AEXAAVCAr@@KPAEK@Z@std@@@4@$0A@@std@@@2@XZ 00402450 f i DPCacheSrvr.obj
 0001:00001460       ?_Rmost@?$_Tree@V?$_Tmap_traits@KP8CDPCacheSrvr@@AEXAAVCAr@@KPAEK@ZU?$less@K@std@@V?$allocator@U?$pair@$$CBKP8CDPCacheSrvr@@AEXAAVCAr@@KPAEK@Z@std@@@4@$0A@@std@@@std@@IAEAAPAU_Node@?$_Tree_nod@V?$_Tmap_traits@KP8CDPCacheSrvr@@AEXAAVCAr@@KPAEK@ZU?$less@K@std@@V?$allocator@U?$pair@$$CBKP8CDPCacheSrvr@@AEXAAVCAr@@KPAEK@Z@std@@@4@$0A@@std@@@2@XZ 00402460 f i DPCacheSrvr.obj
 0001:00001470       ??0?$allocator@U?$pair@$$CBKP8CDPCacheSrvr@@AEXAAVCAr@@KPAEK@Z@std@@@std@@QAE@ABV01@@Z 00402470 f i DPCacheSrvr.obj
 0001:00001480       ?deallocate@?$allocator@U_Node@?$_Tree_nod@V?$_Tmap_traits@KP8CDPCacheSrvr@@AEXAAVCAr@@KPAEK@ZU?$less@K@std@@V?$allocator@U?$pair@$$CBKP8CDPCacheSrvr@@AEXAAVCAr@@KPAEK@Z@std@@@4@$0A@@std@@@std@@@std@@QAEXPAU_Node@?$_Tree_nod@V?$_Tmap_traits@KP8CDPCacheSrvr@@AEXAAVCAr@@KPAEK@ZU?$less@K@std@@V?$allocator@U?$pair@$$CBKP8CDPCacheSrvr@@AEXAAVCAr@@KPAEK@Z@std@@@4@$0A@@std@@@2@I@Z 00402480 f i DPCacheSrvr.obj
 0001:00001490       ??0const_iterator@?$_Tree@V?$_Tmap_traits@KP8CDPCacheSrvr@@AEXAAVCAr@@KPAEK@ZU?$less@K@std@@V?$allocator@U?$pair@$$CBKP8CDPCacheSrvr@@AEXAAVCAr@@KPAEK@Z@std@@@4@$0A@@std@@@std@@QAE@PAU_Node@?$_Tree_nod@V?$_Tmap_traits@KP8CDPCacheSrvr@@AEXAAVCAr@@KPAEK@ZU?$less@K@std@@V?$allocator@U?$pair@$$CBKP8CDPCacheSrvr@@AEXAAVCAr@@KPAEK@Z@std@@@4@$0A@@std@@@2@@Z 00402490 f i DPCacheSrvr.obj
 0001:000014a0       ??Dconst_iterator@?$_Tree@V?$_Tmap_traits@KP8CDPCacheSrvr@@AEXAAVCAr@@KPAEK@ZU?$less@K@std@@V?$allocator@U?$pair@$$CBKP8CDPCacheSrvr@@AEXAAVCAr@@KPAEK@Z@std@@@4@$0A@@std@@@std@@QBEABU?$pair@$$CBKP8CDPCacheSrvr@@AEXAAVCAr@@KPAEK@Z@2@XZ 004024a0 f i DPCacheSrvr.obj
 0001:000014b0       ??0?$allocator@D@std@@QAE@XZ 004024b0 f i DPCacheSrvr.obj
 0001:000014c0       ?_Root@?$_Tree@V?$_Tmap_traits@KP8CDPCacheSrvr@@AEXAAVCAr@@KPAEK@ZU?$less@K@std@@V?$allocator@U?$pair@$$CBKP8CDPCacheSrvr@@AEXAAVCAr@@KPAEK@Z@std@@@4@$0A@@std@@@std@@IBEAAPAU_Node@?$_Tree_nod@V?$_Tmap_traits@KP8CDPCacheSrvr@@AEXAAVCAr@@KPAEK@ZU?$less@K@std@@V?$allocator@U?$pair@$$CBKP8CDPCacheSrvr@@AEXAAVCAr@@KPAEK@Z@std@@@4@$0A@@std@@@2@XZ 004024c0 f i DPCacheSrvr.obj
 0001:000014d0       ?max_size@?$allocator@U?$pair@$$CBKP8CDPCacheSrvr@@AEXAAVCAr@@KPAEK@Z@std@@@std@@QBEIXZ 004024d0 f i DPCacheSrvr.obj
 0001:000014e0       ??0_Node@?$_Tree_nod@V?$_Tmap_traits@KP8CDPCacheSrvr@@AEXAAVCAr@@KPAEK@ZU?$less@K@std@@V?$allocator@U?$pair@$$CBKP8CDPCacheSrvr@@AEXAAVCAr@@KPAEK@Z@std@@@4@$0A@@std@@@std@@QAE@PAU012@00ABU?$pair@$$CBKP8CDPCacheSrvr@@AEXAAVCAr@@KPAEK@Z@2@D@Z 004024e0 f i DPCacheSrvr.obj
 0001:00001520       ?_Max@?$_Tree@V?$_Tmap_traits@KP8CDPCacheSrvr@@AEXAAVCAr@@KPAEK@ZU?$less@K@std@@V?$allocator@U?$pair@$$CBKP8CDPCacheSrvr@@AEXAAVCAr@@KPAEK@Z@std@@@4@$0A@@std@@@std@@KAPAU_Node@?$_Tree_nod@V?$_Tmap_traits@KP8CDPCacheSrvr@@AEXAAVCAr@@KPAEK@ZU?$less@K@std@@V?$allocator@U?$pair@$$CBKP8CDPCacheSrvr@@AEXAAVCAr@@KPAEK@Z@std@@@4@$0A@@std@@@2@PAU342@@Z 00402520 f i DPCacheSrvr.obj
 0001:00001540       ?_Min@?$_Tree@V?$_Tmap_traits@KP8CDPCacheSrvr@@AEXAAVCAr@@KPAEK@ZU?$less@K@std@@V?$allocator@U?$pair@$$CBKP8CDPCacheSrvr@@AEXAAVCAr@@KPAEK@Z@std@@@4@$0A@@std@@@std@@KAPAU_Node@?$_Tree_nod@V?$_Tmap_traits@KP8CDPCacheSrvr@@AEXAAVCAr@@KPAEK@ZU?$less@K@std@@V?$allocator@U?$pair@$$CBKP8CDPCacheSrvr@@AEXAAVCAr@@KPAEK@Z@std@@@4@$0A@@std@@@2@PAU342@@Z 00402540 f i DPCacheSrvr.obj
 0001:00001560       ??0?$_Tmap_traits@KP8CDPCacheSrvr@@AEXAAVCAr@@KPAEK@ZU?$less@K@std@@V?$allocator@U?$pair@$$CBKP8CDPCacheSrvr@@AEXAAVCAr@@KPAEK@Z@std@@@4@$0A@@std@@QAE@U?$less@K@1@@Z 00402560 f i DPCacheSrvr.obj
 0001:00001570       ?_Inc@const_iterator@?$_Tree@V?$_Tmap_traits@KP8CDPCacheSrvr@@AEXAAVCAr@@KPAEK@ZU?$less@K@std@@V?$allocator@U?$pair@$$CBKP8CDPCacheSrvr@@AEXAAVCAr@@KPAEK@Z@std@@@4@$0A@@std@@@std@@QAEXXZ 00402570 f i DPCacheSrvr.obj
 0001:000015d0       ??$swap@D@std@@YAXAAD0@Z   004025d0 f i DPCacheSrvr.obj
 0001:000015f0       ??$_Destroy@PAU_Node@?$_Tree_nod@V?$_Tmap_traits@KP8CDPCacheSrvr@@AEXAAVCAr@@KPAEK@ZU?$less@K@std@@V?$allocator@U?$pair@$$CBKP8CDPCacheSrvr@@AEXAAVCAr@@KPAEK@Z@std@@@4@$0A@@std@@@std@@@std@@YAXPAPAU_Node@?$_Tree_nod@V?$_Tmap_traits@KP8CDPCacheSrvr@@AEXAAVCAr@@KPAEK@ZU?$less@K@std@@V?$allocator@U?$pair@$$CBKP8CDPCacheSrvr@@AEXAAVCAr@@KPAEK@Z@std@@@4@$0A@@std@@@0@@Z 004025f0 f i DPCacheSrvr.obj
 0001:00001600       ??$?0U?$pair@$$CBKP8CDPCacheSrvr@@AEXAAVCAr@@KPAEK@Z@std@@@?$allocator@PAU_Node@?$_Tree_nod@V?$_Tmap_traits@KP8CDPCacheSrvr@@AEXAAVCAr@@KPAEK@ZU?$less@K@std@@V?$allocator@U?$pair@$$CBKP8CDPCacheSrvr@@AEXAAVCAr@@KPAEK@Z@std@@@4@$0A@@std@@@std@@@std@@QAE@ABV?$allocator@U?$pair@$$CBKP8CDPCacheSrvr@@AEXAAVCAr@@KPAEK@Z@std@@@1@@Z 00402600 f i DPCacheSrvr.obj
 0001:00001610       ??$_Allocate@U_Node@?$_Tree_nod@V?$_Tmap_traits@KP8CDPCacheSrvr@@AEXAAVCAr@@KPAEK@ZU?$less@K@std@@V?$allocator@U?$pair@$$CBKP8CDPCacheSrvr@@AEXAAVCAr@@KPAEK@Z@std@@@4@$0A@@std@@@std@@@std@@YAPAU_Node@?$_Tree_nod@V?$_Tmap_traits@KP8CDPCacheSrvr@@AEXAAVCAr@@KPAEK@ZU?$less@K@std@@V?$allocator@U?$pair@$$CBKP8CDPCacheSrvr@@AEXAAVCAr@@KPAEK@Z@std@@@4@$0A@@std@@@0@IPAU120@@Z 00402610 f i DPCacheSrvr.obj
 0001:00001630       ??$?0U?$pair@$$CBKP8CDPCacheSrvr@@AEXAAVCAr@@KPAEK@Z@std@@@?$allocator@U_Node@?$_Tree_nod@V?$_Tmap_traits@KP8CDPCacheSrvr@@AEXAAVCAr@@KPAEK@ZU?$less@K@std@@V?$allocator@U?$pair@$$CBKP8CDPCacheSrvr@@AEXAAVCAr@@KPAEK@Z@std@@@4@$0A@@std@@@std@@@std@@QAE@ABV?$allocator@U?$pair@$$CBKP8CDPCacheSrvr@@AEXAAVCAr@@KPAEK@Z@std@@@1@@Z 00402630 f i DPCacheSrvr.obj
 0001:00001640       ??$_Destroy@U_Node@?$_Tree_nod@V?$_Tmap_traits@KP8CDPCacheSrvr@@AEXAAVCAr@@KPAEK@ZU?$less@K@std@@V?$allocator@U?$pair@$$CBKP8CDPCacheSrvr@@AEXAAVCAr@@KPAEK@Z@std@@@4@$0A@@std@@@std@@@std@@YAXPAU_Node@?$_Tree_nod@V?$_Tmap_traits@KP8CDPCacheSrvr@@AEXAAVCAr@@KPAEK@ZU?$less@K@std@@V?$allocator@U?$pair@$$CBKP8CDPCacheSrvr@@AEXAAVCAr@@KPAEK@Z@std@@@4@$0A@@std@@@0@@Z 00402640 f i DPCacheSrvr.obj
 0001:00001650       ??$_Construct@PAU_Node@?$_Tree_nod@V?$_Tmap_traits@KP8CDPCacheSrvr@@AEXAAVCAr@@KPAEK@ZU?$less@K@std@@V?$allocator@U?$pair@$$CBKP8CDPCacheSrvr@@AEXAAVCAr@@KPAEK@Z@std@@@4@$0A@@std@@@std@@PAU123@@std@@YAXPAPAU_Node@?$_Tree_nod@V?$_Tmap_traits@KP8CDPCacheSrvr@@AEXAAVCAr@@KPAEK@ZU?$less@K@std@@V?$allocator@U?$pair@$$CBKP8CDPCacheSrvr@@AEXAAVCAr@@KPAEK@Z@std@@@4@$0A@@std@@@0@ABQAU120@@Z 00402650 f i DPCacheSrvr.obj
 0001:00001670       ?assign@?$char_traits@D@std@@SAXAADABD@Z 00402670 f i DPCacheSrvr.obj
 0001:00001680       ?length@?$char_traits@D@std@@SAIPBD@Z 00402680 f i DPCacheSrvr.obj
 0001:000016a0       ?copy@?$char_traits@D@std@@SAPADPADPBDI@Z 004026a0 f i DPCacheSrvr.obj
 0001:000016d0       ?move@?$char_traits@D@std@@SAPADPADPBDI@Z 004026d0 f i DPCacheSrvr.obj
 0001:000016e0       ?Enter@CMclCritSec@@QAEXXZ 004026e0 f i DPCacheSrvr.obj
 0001:000016f0       ?Leave@CMclCritSec@@QAEXXZ 004026f0 f i DPCacheSrvr.obj
 0001:00001700       ??0CMclAutoLock@@QAE@AAVCMclCritSec@@@Z 00402700 f i DPCacheSrvr.obj
 0001:00001720       ??1CMclAutoLock@@QAE@XZ    00402720 f i DPCacheSrvr.obj
 0001:00001730       ?size@?$basic_string@DU?$char_traits@D@std@@V?$allocator@D@2@@std@@QBEIXZ 00402730 f i DPCacheSrvr.obj
 0001:00001740       ?_Myptr@?$basic_string@DU?$char_traits@D@std@@V?$allocator@D@2@@std@@QBEPBDXZ 00402740 f i DPCacheSrvr.obj
 0001:00001750       ??0?$allocator@D@std@@QAE@ABV01@@Z 00402750 f i DPCacheSrvr.obj
 0001:00001760       ?_Myptr@?$basic_string@DU?$char_traits@D@std@@V?$allocator@D@2@@std@@QAEPADXZ 00402760 f i DPCacheSrvr.obj
 0001:00001770       ?deallocate@?$allocator@D@std@@QAEXPADI@Z 00402770 f i DPCacheSrvr.obj
 0001:00001780       ?_Inside@?$basic_string@DU?$char_traits@D@std@@V?$allocator@D@2@@std@@IAE_NPBD@Z 00402780 f i DPCacheSrvr.obj
 0001:000017c0       ?max_size@?$allocator@D@std@@QBEIXZ 004027c0 f i DPCacheSrvr.obj
 0001:000017d0       ??$_Allocate@D@std@@YAPADIPAD@Z 004027d0 f i DPCacheSrvr.obj
 0001:000017e0       ??6CAr@@QAEAAV0@I@Z        004027e0 f i DPCacheSrvr.obj
 0001:00001800       ?OnAddConnection@CDPCacheSrvr@@AAEXAAVCAr@@KPAEK@Z 00402800 f   DPCacheSrvr.obj
 0001:00001900       ?OnRemoveConnection@CDPCacheSrvr@@AAEXK@Z 00402900 f   DPCacheSrvr.obj
 0001:00001a70       ?OnKeepAlive@CDPCacheSrvr@@AAEXAAVCAr@@KPAEK@Z 00402a70 f   DPCacheSrvr.obj
 0001:00001ae0       ??9const_iterator@?$_Tree@V?$_Tmap_traits@KP8CDPCacheSrvr@@AEXAAVCAr@@KPAEK@ZU?$less@K@std@@V?$allocator@U?$pair@$$CBKP8CDPCacheSrvr@@AEXAAVCAr@@KPAEK@Z@std@@@4@$0A@@std@@@std@@QBE_NABV012@@Z 00402ae0 f i DPCacheSrvr.obj
 0001:00001b00       ?_Key@?$_Tree@V?$_Tmap_traits@KP8CDPCacheSrvr@@AEXAAVCAr@@KPAEK@ZU?$less@K@std@@V?$allocator@U?$pair@$$CBKP8CDPCacheSrvr@@AEXAAVCAr@@KPAEK@Z@std@@@4@$0A@@std@@@std@@KAABKPAU_Node@?$_Tree_nod@V?$_Tmap_traits@KP8CDPCacheSrvr@@AEXAAVCAr@@KPAEK@ZU?$less@K@std@@V?$allocator@U?$pair@$$CBKP8CDPCacheSrvr@@AEXAAVCAr@@KPAEK@Z@std@@@4@$0A@@std@@@2@@Z 00402b00 f i DPCacheSrvr.obj
 0001:00001b10       ?_Root@?$_Tree@V?$_Tmap_traits@KP8CDPCacheSrvr@@AEXAAVCAr@@KPAEK@ZU?$less@K@std@@V?$allocator@U?$pair@$$CBKP8CDPCacheSrvr@@AEXAAVCAr@@KPAEK@Z@std@@@4@$0A@@std@@@std@@IAEAAPAU_Node@?$_Tree_nod@V?$_Tmap_traits@KP8CDPCacheSrvr@@AEXAAVCAr@@KPAEK@ZU?$less@K@std@@V?$allocator@U?$pair@$$CBKP8CDPCacheSrvr@@AEXAAVCAr@@KPAEK@Z@std@@@4@$0A@@std@@@2@XZ 00402b10 f i DPCacheSrvr.obj
 0001:00001b20       ??0iterator@?$_Tree@V?$_Tmap_traits@KP8CDPCacheSrvr@@AEXAAVCAr@@KPAEK@ZU?$less@K@std@@V?$allocator@U?$pair@$$CBKP8CDPCacheSrvr@@AEXAAVCAr@@KPAEK@Z@std@@@4@$0A@@std@@@std@@QAE@PAU_Node@?$_Tree_nod@V?$_Tmap_traits@KP8CDPCacheSrvr@@AEXAAVCAr@@KPAEK@ZU?$less@K@std@@V?$allocator@U?$pair@$$CBKP8CDPCacheSrvr@@AEXAAVCAr@@KPAEK@Z@std@@@4@$0A@@std@@@2@@Z 00402b20 f i DPCacheSrvr.obj
 0001:00001b30       ??Diterator@?$_Tree@V?$_Tmap_traits@KP8CDPCacheSrvr@@AEXAAVCAr@@KPAEK@ZU?$less@K@std@@V?$allocator@U?$pair@$$CBKP8CDPCacheSrvr@@AEXAAVCAr@@KPAEK@Z@std@@@4@$0A@@std@@@std@@QBEAAU?$pair@$$CBKP8CDPCacheSrvr@@AEXAAVCAr@@KPAEK@Z@2@XZ 00402b30 f i DPCacheSrvr.obj
 0001:00001b40       ?max_size@?$_Tree@V?$_Tmap_traits@KP8CDPCacheSrvr@@AEXAAVCAr@@KPAEK@ZU?$less@K@std@@V?$allocator@U?$pair@$$CBKP8CDPCacheSrvr@@AEXAAVCAr@@KPAEK@Z@std@@@4@$0A@@std@@@std@@QBEIXZ 00402b40 f i DPCacheSrvr.obj
 0001:00001b50       ?_Lbound@?$_Tree@V?$_Tmap_traits@KP8CDPCacheSrvr@@AEXAAVCAr@@KPAEK@ZU?$less@K@std@@V?$allocator@U?$pair@$$CBKP8CDPCacheSrvr@@AEXAAVCAr@@KPAEK@Z@std@@@4@$0A@@std@@@std@@IBEPAU_Node@?$_Tree_nod@V?$_Tmap_traits@KP8CDPCacheSrvr@@AEXAAVCAr@@KPAEK@ZU?$less@K@std@@V?$allocator@U?$pair@$$CBKP8CDPCacheSrvr@@AEXAAVCAr@@KPAEK@Z@std@@@4@$0A@@std@@@2@ABK@Z 00402b50 f i DPCacheSrvr.obj
 0001:00001b80       ?_Lrotate@?$_Tree@V?$_Tmap_traits@KP8CDPCacheSrvr@@AEXAAVCAr@@KPAEK@ZU?$less@K@std@@V?$allocator@U?$pair@$$CBKP8CDPCacheSrvr@@AEXAAVCAr@@KPAEK@Z@std@@@4@$0A@@std@@@std@@IAEXPAU_Node@?$_Tree_nod@V?$_Tmap_traits@KP8CDPCacheSrvr@@AEXAAVCAr@@KPAEK@ZU?$less@K@std@@V?$allocator@U?$pair@$$CBKP8CDPCacheSrvr@@AEXAAVCAr@@KPAEK@Z@std@@@4@$0A@@std@@@2@@Z 00402b80 f i DPCacheSrvr.obj
 0001:00001be0       ?_Rrotate@?$_Tree@V?$_Tmap_traits@KP8CDPCacheSrvr@@AEXAAVCAr@@KPAEK@ZU?$less@K@std@@V?$allocator@U?$pair@$$CBKP8CDPCacheSrvr@@AEXAAVCAr@@KPAEK@Z@std@@@4@$0A@@std@@@std@@IAEXPAU_Node@?$_Tree_nod@V?$_Tmap_traits@KP8CDPCacheSrvr@@AEXAAVCAr@@KPAEK@ZU?$less@K@std@@V?$allocator@U?$pair@$$CBKP8CDPCacheSrvr@@AEXAAVCAr@@KPAEK@Z@std@@@4@$0A@@std@@@2@@Z 00402be0 f i DPCacheSrvr.obj
 0001:00001c40       ?destroy@?$allocator@PAU_Node@?$_Tree_nod@V?$_Tmap_traits@KP8CDPCacheSrvr@@AEXAAVCAr@@KPAEK@ZU?$less@K@std@@V?$allocator@U?$pair@$$CBKP8CDPCacheSrvr@@AEXAAVCAr@@KPAEK@Z@std@@@4@$0A@@std@@@std@@@std@@QAEXPAPAU_Node@?$_Tree_nod@V?$_Tmap_traits@KP8CDPCacheSrvr@@AEXAAVCAr@@KPAEK@ZU?$less@K@std@@V?$allocator@U?$pair@$$CBKP8CDPCacheSrvr@@AEXAAVCAr@@KPAEK@Z@std@@@4@$0A@@std@@@2@@Z 00402c40 f i DPCacheSrvr.obj
 0001:00001c50       ?allocate@?$allocator@U_Node@?$_Tree_nod@V?$_Tmap_traits@KP8CDPCacheSrvr@@AEXAAVCAr@@KPAEK@ZU?$less@K@std@@V?$allocator@U?$pair@$$CBKP8CDPCacheSrvr@@AEXAAVCAr@@KPAEK@Z@std@@@4@$0A@@std@@@std@@@std@@QAEPAU_Node@?$_Tree_nod@V?$_Tmap_traits@KP8CDPCacheSrvr@@AEXAAVCAr@@KPAEK@ZU?$less@K@std@@V?$allocator@U?$pair@$$CBKP8CDPCacheSrvr@@AEXAAVCAr@@KPAEK@Z@std@@@4@$0A@@std@@@2@I@Z 00402c50 f i DPCacheSrvr.obj
 0001:00001c70       ?_Dec@const_iterator@?$_Tree@V?$_Tmap_traits@KP8CDPCacheSrvr@@AEXAAVCAr@@KPAEK@ZU?$less@K@std@@V?$allocator@U?$pair@$$CBKP8CDPCacheSrvr@@AEXAAVCAr@@KPAEK@Z@std@@@4@$0A@@std@@@std@@QAEXXZ 00402c70 f i DPCacheSrvr.obj
 0001:00001cd0       ??0?$_Tree_nod@V?$_Tmap_traits@KP8CDPCacheSrvr@@AEXAAVCAr@@KPAEK@ZU?$less@K@std@@V?$allocator@U?$pair@$$CBKP8CDPCacheSrvr@@AEXAAVCAr@@KPAEK@Z@std@@@4@$0A@@std@@@std@@IAE@ABU?$less@K@1@V?$allocator@U?$pair@$$CBKP8CDPCacheSrvr@@AEXAAVCAr@@KPAEK@Z@std@@@1@@Z 00402cd0 f i DPCacheSrvr.obj
 0001:00001ce0       ?destroy@?$allocator@U_Node@?$_Tree_nod@V?$_Tmap_traits@KP8CDPCacheSrvr@@AEXAAVCAr@@KPAEK@ZU?$less@K@std@@V?$allocator@U?$pair@$$CBKP8CDPCacheSrvr@@AEXAAVCAr@@KPAEK@Z@std@@@4@$0A@@std@@@std@@@std@@QAEXPAU_Node@?$_Tree_nod@V?$_Tmap_traits@KP8CDPCacheSrvr@@AEXAAVCAr@@KPAEK@ZU?$less@K@std@@V?$allocator@U?$pair@$$CBKP8CDPCacheSrvr@@AEXAAVCAr@@KPAEK@Z@std@@@4@$0A@@std@@@2@@Z 00402ce0 f i DPCacheSrvr.obj
 0001:00001cf0       ?construct@?$allocator@PAU_Node@?$_Tree_nod@V?$_Tmap_traits@KP8CDPCacheSrvr@@AEXAAVCAr@@KPAEK@ZU?$less@K@std@@V?$allocator@U?$pair@$$CBKP8CDPCacheSrvr@@AEXAAVCAr@@KPAEK@Z@std@@@4@$0A@@std@@@std@@@std@@QAEXPAPAU_Node@?$_Tree_nod@V?$_Tmap_traits@KP8CDPCacheSrvr@@AEXAAVCAr@@KPAEK@ZU?$less@K@std@@V?$allocator@U?$pair@$$CBKP8CDPCacheSrvr@@AEXAAVCAr@@KPAEK@Z@std@@@4@$0A@@std@@@2@ABQAU342@@Z 00402cf0 f i DPCacheSrvr.obj
 0001:00001d10       ??Econst_iterator@?$_Tree@V?$_Tmap_traits@KP8CDPCacheSrvr@@AEXAAVCAr@@KPAEK@ZU?$less@K@std@@V?$allocator@U?$pair@$$CBKP8CDPCacheSrvr@@AEXAAVCAr@@KPAEK@Z@std@@@4@$0A@@std@@@std@@QAEAAV012@XZ 00402d10 f i DPCacheSrvr.obj
 0001:00001d20       ??0?$_String_val@DV?$allocator@D@std@@@std@@IAE@V?$allocator@D@1@@Z 00402d20 f i DPCacheSrvr.obj
 0001:00001d30       ?_Eos@?$basic_string@DU?$char_traits@D@std@@V?$allocator@D@2@@std@@IAEXI@Z 00402d30 f i DPCacheSrvr.obj
 0001:00001d50       ?max_size@?$basic_string@DU?$char_traits@D@std@@V?$allocator@D@2@@std@@QBEIXZ 00402d50 f i DPCacheSrvr.obj
 0001:00001d60       ?allocate@?$allocator@D@std@@QAEPADI@Z 00402d60 f i DPCacheSrvr.obj
 0001:00001d70       ?SysMessageHandler@CDPCacheSrvr@@UAEXPAUDPMSG_GENERIC@@KK@Z 00402d70 f   DPCacheSrvr.obj
 0001:00001e10       ?end@?$_Tree@V?$_Tmap_traits@KP8CDPCacheSrvr@@AEXAAVCAr@@KPAEK@ZU?$less@K@std@@V?$allocator@U?$pair@$$CBKP8CDPCacheSrvr@@AEXAAVCAr@@KPAEK@Z@std@@@4@$0A@@std@@@std@@QAE?AViterator@12@XZ 00402e10 f i DPCacheSrvr.obj
 0001:00001e20       ??Citerator@?$_Tree@V?$_Tmap_traits@KP8CDPCacheSrvr@@AEXAAVCAr@@KPAEK@ZU?$less@K@std@@V?$allocator@U?$pair@$$CBKP8CDPCacheSrvr@@AEXAAVCAr@@KPAEK@Z@std@@@4@$0A@@std@@@std@@QBEPAU?$pair@$$CBKP8CDPCacheSrvr@@AEXAAVCAr@@KPAEK@Z@2@XZ 00402e20 f i DPCacheSrvr.obj
 0001:00001e30       ?begin@?$_Tree@V?$_Tmap_traits@KP8CDPCacheSrvr@@AEXAAVCAr@@KPAEK@ZU?$less@K@std@@V?$allocator@U?$pair@$$CBKP8CDPCacheSrvr@@AEXAAVCAr@@KPAEK@Z@std@@@4@$0A@@std@@@std@@QAE?AViterator@12@XZ 00402e30 f i DPCacheSrvr.obj
 0001:00001e40       ?lower_bound@?$_Tree@V?$_Tmap_traits@KP8CDPCacheSrvr@@AEXAAVCAr@@KPAEK@ZU?$less@K@std@@V?$allocator@U?$pair@$$CBKP8CDPCacheSrvr@@AEXAAVCAr@@KPAEK@Z@std@@@4@$0A@@std@@@std@@QAE?AViterator@12@ABK@Z 00402e40 f i DPCacheSrvr.obj
 0001:00001e80       ?_Buynode@?$_Tree@V?$_Tmap_traits@KP8CDPCacheSrvr@@AEXAAVCAr@@KPAEK@ZU?$less@K@std@@V?$allocator@U?$pair@$$CBKP8CDPCacheSrvr@@AEXAAVCAr@@KPAEK@Z@std@@@4@$0A@@std@@@std@@IAEPAU_Node@?$_Tree_nod@V?$_Tmap_traits@KP8CDPCacheSrvr@@AEXAAVCAr@@KPAEK@ZU?$less@K@std@@V?$allocator@U?$pair@$$CBKP8CDPCacheSrvr@@AEXAAVCAr@@KPAEK@Z@std@@@4@$0A@@std@@@2@PAU342@00ABU?$pair@$$CBKP8CDPCacheSrvr@@AEXAAVCAr@@KPAEK@Z@2@D@Z 00402e80 f i DPCacheSrvr.obj
 0001:00001ec0       ??Fconst_iterator@?$_Tree@V?$_Tmap_traits@KP8CDPCacheSrvr@@AEXAAVCAr@@KPAEK@ZU?$less@K@std@@V?$allocator@U?$pair@$$CBKP8CDPCacheSrvr@@AEXAAVCAr@@KPAEK@Z@std@@@4@$0A@@std@@@std@@QAEAAV012@XZ 00402ec0 f i DPCacheSrvr.obj
 0001:00001ed0       ?_Buynode@?$_Tree@V?$_Tmap_traits@KP8CDPCacheSrvr@@AEXAAVCAr@@KPAEK@ZU?$less@K@std@@V?$allocator@U?$pair@$$CBKP8CDPCacheSrvr@@AEXAAVCAr@@KPAEK@Z@std@@@4@$0A@@std@@@std@@IAEPAU_Node@?$_Tree_nod@V?$_Tmap_traits@KP8CDPCacheSrvr@@AEXAAVCAr@@KPAEK@ZU?$less@K@std@@V?$allocator@U?$pair@$$CBKP8CDPCacheSrvr@@AEXAAVCAr@@KPAEK@Z@std@@@4@$0A@@std@@@2@XZ 00402ed0 f i DPCacheSrvr.obj
 0001:00001f10       ??0?$_Tree_ptr@V?$_Tmap_traits@KP8CDPCacheSrvr@@AEXAAVCAr@@KPAEK@ZU?$less@K@std@@V?$allocator@U?$pair@$$CBKP8CDPCacheSrvr@@AEXAAVCAr@@KPAEK@Z@std@@@4@$0A@@std@@@std@@IAE@ABU?$less@K@1@V?$allocator@U?$pair@$$CBKP8CDPCacheSrvr@@AEXAAVCAr@@KPAEK@Z@std@@@1@@Z 00402f10 f i DPCacheSrvr.obj
 0001:00001f20       ?_Erase@?$_Tree@V?$_Tmap_traits@KP8CDPCacheSrvr@@AEXAAVCAr@@KPAEK@ZU?$less@K@std@@V?$allocator@U?$pair@$$CBKP8CDPCacheSrvr@@AEXAAVCAr@@KPAEK@Z@std@@@4@$0A@@std@@@std@@IAEXPAU_Node@?$_Tree_nod@V?$_Tmap_traits@KP8CDPCacheSrvr@@AEXAAVCAr@@KPAEK@ZU?$less@K@std@@V?$allocator@U?$pair@$$CBKP8CDPCacheSrvr@@AEXAAVCAr@@KPAEK@Z@std@@@4@$0A@@std@@@2@@Z 00402f20 f i DPCacheSrvr.obj
 0001:00001f60       ??Eiterator@?$_Tree@V?$_Tmap_traits@KP8CDPCacheSrvr@@AEXAAVCAr@@KPAEK@ZU?$less@K@std@@V?$allocator@U?$pair@$$CBKP8CDPCacheSrvr@@AEXAAVCAr@@KPAEK@Z@std@@@4@$0A@@std@@@std@@QAEAAV012@XZ 00402f60 f i DPCacheSrvr.obj
 0001:00001f70       ?_Tidy@?$basic_string@DU?$char_traits@D@std@@V?$allocator@D@2@@std@@IAEX_NI@Z 00402f70 f i DPCacheSrvr.obj
 0001:00001fd0       ?erase@?$basic_string@DU?$char_traits@D@std@@V?$allocator@D@2@@std@@QAEAAV12@II@Z 00402fd0 f i DPCacheSrvr.obj
 0001:00002050       ?_Copy@?$basic_string@DU?$char_traits@D@std@@V?$allocator@D@2@@std@@IAEXII@Z 00403050 f i DPCacheSrvr.obj
 0001:00002190       ?find@?$_Tree@V?$_Tmap_traits@KP8CDPCacheSrvr@@AEXAAVCAr@@KPAEK@ZU?$less@K@std@@V?$allocator@U?$pair@$$CBKP8CDPCacheSrvr@@AEXAAVCAr@@KPAEK@Z@std@@@4@$0A@@std@@@std@@QAE?AViterator@12@ABK@Z 00403190 f i DPCacheSrvr.obj
 0001:00002200       ??Fiterator@?$_Tree@V?$_Tmap_traits@KP8CDPCacheSrvr@@AEXAAVCAr@@KPAEK@ZU?$less@K@std@@V?$allocator@U?$pair@$$CBKP8CDPCacheSrvr@@AEXAAVCAr@@KPAEK@Z@std@@@4@$0A@@std@@@std@@QAEAAV012@XZ 00403200 f i DPCacheSrvr.obj
 0001:00002210       ?_Init@?$_Tree@V?$_Tmap_traits@KP8CDPCacheSrvr@@AEXAAVCAr@@KPAEK@ZU?$less@K@std@@V?$allocator@U?$pair@$$CBKP8CDPCacheSrvr@@AEXAAVCAr@@KPAEK@Z@std@@@4@$0A@@std@@@std@@IAEXXZ 00403210 f i DPCacheSrvr.obj
 0001:00002240       ??0?$_Tree_val@V?$_Tmap_traits@KP8CDPCacheSrvr@@AEXAAVCAr@@KPAEK@ZU?$less@K@std@@V?$allocator@U?$pair@$$CBKP8CDPCacheSrvr@@AEXAAVCAr@@KPAEK@Z@std@@@4@$0A@@std@@@std@@IAE@ABU?$less@K@1@V?$allocator@U?$pair@$$CBKP8CDPCacheSrvr@@AEXAAVCAr@@KPAEK@Z@std@@@1@@Z 00403240 f i DPCacheSrvr.obj
 0001:00002250       ?clear@?$_Tree@V?$_Tmap_traits@KP8CDPCacheSrvr@@AEXAAVCAr@@KPAEK@ZU?$less@K@std@@V?$allocator@U?$pair@$$CBKP8CDPCacheSrvr@@AEXAAVCAr@@KPAEK@Z@std@@@4@$0A@@std@@@std@@QAEXXZ 00403250 f i DPCacheSrvr.obj
 0001:00002280       ??Eiterator@?$_Tree@V?$_Tmap_traits@KP8CDPCacheSrvr@@AEXAAVCAr@@KPAEK@ZU?$less@K@std@@V?$allocator@U?$pair@$$CBKP8CDPCacheSrvr@@AEXAAVCAr@@KPAEK@Z@std@@@4@$0A@@std@@@std@@QAE?AV012@H@Z 00403280 f i DPCacheSrvr.obj
 0001:000022a0       ??1?$basic_string@DU?$char_traits@D@std@@V?$allocator@D@2@@std@@QAE@XZ 004032a0 f i DPCacheSrvr.obj
 0001:000022d0       ?_Grow@?$basic_string@DU?$char_traits@D@std@@V?$allocator@D@2@@std@@IAE_NI_N@Z 004032d0 f i DPCacheSrvr.obj
 0001:000023a0       ?GetHandler@CDPCacheSrvr@@AAEP81@AEXAAVCAr@@KPAEK@ZK@Z 004033a0 f i DPCacheSrvr.obj
 0001:000023d0       ?UserMessageHandler@CDPCacheSrvr@@UAEXPAUDPMSG_GENERIC@@KK@Z 004033d0 f   DPCacheSrvr.obj
 0001:00002620       ??0?$_Tree@V?$_Tmap_traits@KP8CDPCacheSrvr@@AEXAAVCAr@@KPAEK@ZU?$less@K@std@@V?$allocator@U?$pair@$$CBKP8CDPCacheSrvr@@AEXAAVCAr@@KPAEK@Z@std@@@4@$0A@@std@@@std@@QAE@ABU?$less@K@1@ABV?$allocator@U?$pair@$$CBKP8CDPCacheSrvr@@AEXAAVCAr@@KPAEK@Z@std@@@1@@Z 00403620 f i DPCacheSrvr.obj
 0001:00002650       ??1logic_error@std@@UAE@XZ 00403650 f i DPCacheSrvr.obj
 0001:00002690       ?what@logic_error@std@@UBEPBDXZ 00403690 f i DPCacheSrvr.obj
 0001:000026a0       ??_Glogic_error@std@@UAEPAXI@Z 004036a0 f i DPCacheSrvr.obj
 0001:000026a0       ??_Elogic_error@std@@UAEPAXI@Z 004036a0 f i DPCacheSrvr.obj
 0001:000026c0       ?assign@?$basic_string@DU?$char_traits@D@std@@V?$allocator@D@2@@std@@QAEAAV12@ABV12@II@Z 004036c0 f i DPCacheSrvr.obj
 0001:000027b0       ?assign@?$basic_string@DU?$char_traits@D@std@@V?$allocator@D@2@@std@@QAEAAV12@PBDI@Z 004037b0 f i DPCacheSrvr.obj
 0001:000028a0       ??0?$basic_string@DU?$char_traits@D@std@@V?$allocator@D@2@@std@@QAE@ABV01@@Z 004038a0 f i DPCacheSrvr.obj
 0001:000028d0       ?assign@?$basic_string@DU?$char_traits@D@std@@V?$allocator@D@2@@std@@QAEAAV12@PBD@Z 004038d0 f i DPCacheSrvr.obj
 0001:00002900       ??0?$basic_string@DU?$char_traits@D@std@@V?$allocator@D@2@@std@@QAE@PBD@Z 00403900 f i DPCacheSrvr.obj
 0001:00002940       ??0logic_error@std@@QAE@ABV?$basic_string@DU?$char_traits@D@std@@V?$allocator@D@2@@1@@Z 00403940 f i DPCacheSrvr.obj
 0001:000029a0       ??0length_error@std@@QAE@ABV?$basic_string@DU?$char_traits@D@std@@V?$allocator@D@2@@1@@Z 004039a0 f i DPCacheSrvr.obj
 0001:000029c0       ??_Glength_error@std@@UAEPAXI@Z 004039c0 f i DPCacheSrvr.obj
 0001:000029c0       ??_Elength_error@std@@UAEPAXI@Z 004039c0 f i DPCacheSrvr.obj
 0001:000029e0       ??1length_error@std@@UAE@XZ 004039e0 f i DPCacheSrvr.obj
 0001:00002a20       ??0out_of_range@std@@QAE@ABV?$basic_string@DU?$char_traits@D@std@@V?$allocator@D@2@@1@@Z 00403a20 f i DPCacheSrvr.obj
 0001:00002a40       ??_Gout_of_range@std@@UAEPAXI@Z 00403a40 f i DPCacheSrvr.obj
 0001:00002a40       ??_Eout_of_range@std@@UAEPAXI@Z 00403a40 f i DPCacheSrvr.obj
 0001:00002a60       ??1out_of_range@std@@UAE@XZ 00403a60 f i DPCacheSrvr.obj
 0001:00002aa0       ?_Insert@?$_Tree@V?$_Tmap_traits@KP8CDPCacheSrvr@@AEXAAVCAr@@KPAEK@ZU?$less@K@std@@V?$allocator@U?$pair@$$CBKP8CDPCacheSrvr@@AEXAAVCAr@@KPAEK@Z@std@@@4@$0A@@std@@@std@@IAE?AViterator@12@_NPAU_Node@?$_Tree_nod@V?$_Tmap_traits@KP8CDPCacheSrvr@@AEXAAVCAr@@KPAEK@ZU?$less@K@std@@V?$allocator@U?$pair@$$CBKP8CDPCacheSrvr@@AEXAAVCAr@@KPAEK@Z@std@@@4@$0A@@std@@@2@ABU?$pair@$$CBKP8CDPCacheSrvr@@AEXAAVCAr@@KPAEK@Z@2@@Z 00403aa0 f i DPCacheSrvr.obj
 0001:00002c50       ??0logic_error@std@@QAE@ABV01@@Z 00403c50 f i DPCacheSrvr.obj
 0001:00002cc0       ??0length_error@std@@QAE@ABV01@@Z 00403cc0 f i DPCacheSrvr.obj
 0001:00002ce0       ?erase@?$_Tree@V?$_Tmap_traits@KP8CDPCacheSrvr@@AEXAAVCAr@@KPAEK@ZU?$less@K@std@@V?$allocator@U?$pair@$$CBKP8CDPCacheSrvr@@AEXAAVCAr@@KPAEK@Z@std@@@4@$0A@@std@@@std@@QAE?AViterator@12@V312@@Z 00403ce0 f i DPCacheSrvr.obj
 0001:00002fa0       ??0out_of_range@std@@QAE@ABV01@@Z 00403fa0 f i DPCacheSrvr.obj
 0001:00002fc0       ?insert@?$_Tree@V?$_Tmap_traits@KP8CDPCacheSrvr@@AEXAAVCAr@@KPAEK@ZU?$less@K@std@@V?$allocator@U?$pair@$$CBKP8CDPCacheSrvr@@AEXAAVCAr@@KPAEK@Z@std@@@4@$0A@@std@@@std@@QAE?AU?$pair@Viterator@?$_Tree@V?$_Tmap_traits@KP8CDPCacheSrvr@@AEXAAVCAr@@KPAEK@ZU?$less@K@std@@V?$allocator@U?$pair@$$CBKP8CDPCacheSrvr@@AEXAAVCAr@@KPAEK@Z@std@@@4@$0A@@std@@@std@@_N@2@ABU?$pair@$$CBKP8CDPCacheSrvr@@AEXAAVCAr@@KPAEK@Z@2@@Z 00403fc0 f i DPCacheSrvr.obj
 0001:00003080       ?erase@?$_Tree@V?$_Tmap_traits@KP8CDPCacheSrvr@@AEXAAVCAr@@KPAEK@ZU?$less@K@std@@V?$allocator@U?$pair@$$CBKP8CDPCacheSrvr@@AEXAAVCAr@@KPAEK@Z@std@@@4@$0A@@std@@@std@@QAE?AViterator@12@V312@0@Z 00404080 f i DPCacheSrvr.obj
 0001:00003140       ?_Tidy@?$_Tree@V?$_Tmap_traits@KP8CDPCacheSrvr@@AEXAAVCAr@@KPAEK@ZU?$less@K@std@@V?$allocator@U?$pair@$$CBKP8CDPCacheSrvr@@AEXAAVCAr@@KPAEK@Z@std@@@4@$0A@@std@@@std@@IAEXXZ 00404140 f i DPCacheSrvr.obj
 0001:00003170       ??1?$_Tree@V?$_Tmap_traits@KP8CDPCacheSrvr@@AEXAAVCAr@@KPAEK@ZU?$less@K@std@@V?$allocator@U?$pair@$$CBKP8CDPCacheSrvr@@AEXAAVCAr@@KPAEK@Z@std@@@4@$0A@@std@@@std@@QAE@XZ 00404170 f i DPCacheSrvr.obj
 0001:000031a0       ??1?$map@KP8CDPCacheSrvr@@AEXAAVCAr@@KPAEK@ZU?$less@K@std@@V?$allocator@U?$pair@$$CBKP8CDPCacheSrvr@@AEXAAVCAr@@KPAEK@Z@std@@@4@@std@@QAE@XZ 004041a0 f i DPCacheSrvr.obj
 0001:000031d0       ??1CDPCacheSrvr@@UAE@XZ    004041d0 f   DPCacheSrvr.obj
 0001:00003250       ??0?$map@KP8CDPCacheSrvr@@AEXAAVCAr@@KPAEK@ZU?$less@K@std@@V?$allocator@U?$pair@$$CBKP8CDPCacheSrvr@@AEXAAVCAr@@KPAEK@Z@std@@@4@@std@@QAE@XZ 00404250 f i DPCacheSrvr.obj
 0001:00003280       ??0CDPCacheSrvr@@QAE@XZ    00404280 f   DPCacheSrvr.obj
 0001:00003340       ??_ECDPCacheSrvr@@UAEPAXI@Z 00404340 f i DPCacheSrvr.obj
 0001:00003340       ??_GCDPCacheSrvr@@UAEPAXI@Z 00404340 f i DPCacheSrvr.obj
 0001:00003360       ??6CAr@@QAEAAV0@E@Z        00404360 f i DPClient.obj
 0001:00003380       ?Send@CDPMng@@QAEHPAXKK@Z  00404380 f i DPClient.obj
 0001:000033a0       ?GetKey@CServerDesc@@QAEKXZ 004043a0 f i DPClient.obj
 0001:000033b0       ?GetIdofMulti@CServerDesc@@QAEKXZ 004043b0 f i DPClient.obj
 0001:000033c0       ?SendToServer@CDPClient@@QAEXKPAXK@Z 004043c0 f i DPClient.obj
 0001:000033f0       ?GetAuthKey@CPlayer@@QAEKXZ 004043f0 f i DPClient.obj
 0001:00003400       ?GetAccount@CPlayer@@QAEPBDXZ 00404400 f i DPClient.obj
 0001:00003410       ?GetPass@CPlayer@@QAEPBDXZ 00404410 f i DPClient.obj
 0001:00003420       ?GetSerial@CPlayer@@QAEKXZ 00404420 f i DPClient.obj
 0001:00003430       ?GetSlot@CPlayer@@QAEEXZ   00404430 f i DPClient.obj
 0001:00003440       ?OnReplace@CDPClient@@AAEXAAVCAr@@KPAXK@Z 00404440 f   DPClient.obj
 0001:00003450       ?SendJoin@CDPClient@@QAEXPAVCPlayer@@@Z 00404450 f   DPClient.obj
 0001:000035e0       ?Add@CDPClientArray@@QAEXPAVCDPClient@@@Z 004045e0 f   DPClient.obj
 0001:000035f0       ??0?$pair@$$CBKP8CDPClient@@AEXAAVCAr@@KPAXK@Z@std@@QAE@ABKABQ8CDPClient@@AEXAAVCAr@@KPAXK@Z@Z 004045f0 f i DPClient.obj
 0001:00003610       ??8const_iterator@?$_Tree@V?$_Tmap_traits@KPAVCServerDesc@@U?$less@K@std@@V?$allocator@U?$pair@$$CBKPAVCServerDesc@@@std@@@3@$0A@@std@@@std@@QBE_NABV012@@Z 00404610 f i DPClient.obj
 0001:00003620       ??9const_iterator@?$_Tree@V?$_Tmap_traits@KPAVCServerDesc@@U?$less@K@std@@V?$allocator@U?$pair@$$CBKPAVCServerDesc@@@std@@@3@$0A@@std@@@std@@QBE_NABV012@@Z 00404620 f i DPClient.obj
 0001:00003640       ??0?$pair@$$CBKPAVCServerDesc@@@std@@QAE@ABKABQAVCServerDesc@@@Z 00404640 f i DPClient.obj
 0001:00003660       ?_Isnil@?$_Tree@V?$_Tmap_traits@KPAVCServerDesc@@U?$less@K@std@@V?$allocator@U?$pair@$$CBKPAVCServerDesc@@@std@@@3@$0A@@std@@@std@@KAAADPAU_Node@?$_Tree_nod@V?$_Tmap_traits@KPAVCServerDesc@@U?$less@K@std@@V?$allocator@U?$pair@$$CBKPAVCServerDesc@@@std@@@3@$0A@@std@@@2@@Z 00404660 f i DPClient.obj
 0001:00003670       ?_Left@?$_Tree@V?$_Tmap_traits@KPAVCServerDesc@@U?$less@K@std@@V?$allocator@U?$pair@$$CBKPAVCServerDesc@@@std@@@3@$0A@@std@@@std@@KAAAPAU_Node@?$_Tree_nod@V?$_Tmap_traits@KPAVCServerDesc@@U?$less@K@std@@V?$allocator@U?$pair@$$CBKPAVCServerDesc@@@std@@@3@$0A@@std@@@2@PAU342@@Z 00404670 f i DPClient.obj
 0001:00003680       ?_Right@?$_Tree@V?$_Tmap_traits@KPAVCServerDesc@@U?$less@K@std@@V?$allocator@U?$pair@$$CBKPAVCServerDesc@@@std@@@3@$0A@@std@@@std@@KAAAPAU_Node@?$_Tree_nod@V?$_Tmap_traits@KPAVCServerDesc@@U?$less@K@std@@V?$allocator@U?$pair@$$CBKPAVCServerDesc@@@std@@@3@$0A@@std@@@2@PAU342@@Z 00404680 f i DPClient.obj
 0001:00003690       ?_Kfn@?$_Tmap_traits@KPAVCServerDesc@@U?$less@K@std@@V?$allocator@U?$pair@$$CBKPAVCServerDesc@@@std@@@3@$0A@@std@@SAABKABU?$pair@$$CBKPAVCServerDesc@@@2@@Z 00404690 f i DPClient.obj
 0001:000036a0       ?_Isnil@?$_Tree@V?$_Tmap_traits@KP8CDPClient@@AEXAAVCAr@@KPAXK@ZU?$less@K@std@@V?$allocator@U?$pair@$$CBKP8CDPClient@@AEXAAVCAr@@KPAXK@Z@std@@@4@$0A@@std@@@std@@KAAADPAU_Node@?$_Tree_nod@V?$_Tmap_traits@KP8CDPClient@@AEXAAVCAr@@KPAXK@ZU?$less@K@std@@V?$allocator@U?$pair@$$CBKP8CDPClient@@AEXAAVCAr@@KPAXK@Z@std@@@4@$0A@@std@@@2@@Z 004046a0 f i DPClient.obj
 0001:000036b0       ?_Left@?$_Tree@V?$_Tmap_traits@KP8CDPClient@@AEXAAVCAr@@KPAXK@ZU?$less@K@std@@V?$allocator@U?$pair@$$CBKP8CDPClient@@AEXAAVCAr@@KPAXK@Z@std@@@4@$0A@@std@@@std@@KAAAPAU_Node@?$_Tree_nod@V?$_Tmap_traits@KP8CDPClient@@AEXAAVCAr@@KPAXK@ZU?$less@K@std@@V?$allocator@U?$pair@$$CBKP8CDPClient@@AEXAAVCAr@@KPAXK@Z@std@@@4@$0A@@std@@@2@PAU342@@Z 004046b0 f i DPClient.obj
 0001:000036c0       ?_Right@?$_Tree@V?$_Tmap_traits@KP8CDPClient@@AEXAAVCAr@@KPAXK@ZU?$less@K@std@@V?$allocator@U?$pair@$$CBKP8CDPClient@@AEXAAVCAr@@KPAXK@Z@std@@@4@$0A@@std@@@std@@KAAAPAU_Node@?$_Tree_nod@V?$_Tmap_traits@KP8CDPClient@@AEXAAVCAr@@KPAXK@ZU?$less@K@std@@V?$allocator@U?$pair@$$CBKP8CDPClient@@AEXAAVCAr@@KPAXK@Z@std@@@4@$0A@@std@@@2@PAU342@@Z 004046c0 f i DPClient.obj
 0001:000036d0       ?_Kfn@?$_Tmap_traits@KP8CDPClient@@AEXAAVCAr@@KPAXK@ZU?$less@K@std@@V?$allocator@U?$pair@$$CBKP8CDPClient@@AEXAAVCAr@@KPAXK@Z@std@@@4@$0A@@std@@SAABKABU?$pair@$$CBKP8CDPClient@@AEXAAVCAr@@KPAXK@Z@2@@Z 004046d0 f i DPClient.obj
 0001:000036e0       ??0?$allocator@U?$pair@$$CBKP8CDPClient@@AEXAAVCAr@@KPAXK@Z@std@@@std@@QAE@XZ 004046e0 f i DPClient.obj
 0001:000036f0       ??8const_iterator@?$_Tree@V?$_Tmap_traits@KP8CDPClient@@AEXAAVCAr@@KPAXK@ZU?$less@K@std@@V?$allocator@U?$pair@$$CBKP8CDPClient@@AEXAAVCAr@@KPAXK@Z@std@@@4@$0A@@std@@@std@@QBE_NABV012@@Z 004046f0 f i DPClient.obj
 0001:00003700       ?_Mynode@const_iterator@?$_Tree@V?$_Tmap_traits@KP8CDPClient@@AEXAAVCAr@@KPAXK@ZU?$less@K@std@@V?$allocator@U?$pair@$$CBKP8CDPClient@@AEXAAVCAr@@KPAXK@Z@std@@@4@$0A@@std@@@std@@QBEPAU_Node@?$_Tree_nod@V?$_Tmap_traits@KP8CDPClient@@AEXAAVCAr@@KPAXK@ZU?$less@K@std@@V?$allocator@U?$pair@$$CBKP8CDPClient@@AEXAAVCAr@@KPAXK@Z@std@@@4@$0A@@std@@@3@XZ 00404700 f i DPClient.obj
 0001:00003710       ??0?$pair@Viterator@?$_Tree@V?$_Tmap_traits@KP8CDPClient@@AEXAAVCAr@@KPAXK@ZU?$less@K@std@@V?$allocator@U?$pair@$$CBKP8CDPClient@@AEXAAVCAr@@KPAXK@Z@std@@@4@$0A@@std@@@std@@_N@std@@QAE@ABViterator@?$_Tree@V?$_Tmap_traits@KP8CDPClient@@AEXAAVCAr@@KPAXK@ZU?$less@K@std@@V?$allocator@U?$pair@$$CBKP8CDPClient@@AEXAAVCAr@@KPAXK@Z@std@@@4@$0A@@std@@@1@AB_N@Z 00404710 f i DPClient.obj
 0001:00003730       ?_Mynode@const_iterator@?$_Tree@V?$_Tmap_traits@KPAVCServerDesc@@U?$less@K@std@@V?$allocator@U?$pair@$$CBKPAVCServerDesc@@@std@@@3@$0A@@std@@@std@@QBEPAU_Node@?$_Tree_nod@V?$_Tmap_traits@KPAVCServerDesc@@U?$less@K@std@@V?$allocator@U?$pair@$$CBKPAVCServerDesc@@@std@@@3@$0A@@std@@@3@XZ 00404730 f i DPClient.obj
 0001:00003740       ??0?$pair@Viterator@?$_Tree@V?$_Tmap_traits@KPAVCServerDesc@@U?$less@K@std@@V?$allocator@U?$pair@$$CBKPAVCServerDesc@@@std@@@3@$0A@@std@@@std@@_N@std@@QAE@ABViterator@?$_Tree@V?$_Tmap_traits@KPAVCServerDesc@@U?$less@K@std@@V?$allocator@U?$pair@$$CBKPAVCServerDesc@@@std@@@3@$0A@@std@@@1@AB_N@Z 00404740 f i DPClient.obj
 0001:00003760       ?_Color@?$_Tree@V?$_Tmap_traits@KPAVCServerDesc@@U?$less@K@std@@V?$allocator@U?$pair@$$CBKPAVCServerDesc@@@std@@@3@$0A@@std@@@std@@KAAADPAU_Node@?$_Tree_nod@V?$_Tmap_traits@KPAVCServerDesc@@U?$less@K@std@@V?$allocator@U?$pair@$$CBKPAVCServerDesc@@@std@@@3@$0A@@std@@@2@@Z 00404760 f i DPClient.obj
 0001:00003770       ?_Parent@?$_Tree@V?$_Tmap_traits@KPAVCServerDesc@@U?$less@K@std@@V?$allocator@U?$pair@$$CBKPAVCServerDesc@@@std@@@3@$0A@@std@@@std@@KAAAPAU_Node@?$_Tree_nod@V?$_Tmap_traits@KPAVCServerDesc@@U?$less@K@std@@V?$allocator@U?$pair@$$CBKPAVCServerDesc@@@std@@@3@$0A@@std@@@2@PAU342@@Z 00404770 f i DPClient.obj
 0001:00003780       ?_Myval@?$_Tree@V?$_Tmap_traits@KPAVCServerDesc@@U?$less@K@std@@V?$allocator@U?$pair@$$CBKPAVCServerDesc@@@std@@@3@$0A@@std@@@std@@KAAAU?$pair@$$CBKPAVCServerDesc@@@2@PAU_Node@?$_Tree_nod@V?$_Tmap_traits@KPAVCServerDesc@@U?$less@K@std@@V?$allocator@U?$pair@$$CBKPAVCServerDesc@@@std@@@3@$0A@@std@@@2@@Z 00404780 f i DPClient.obj
 0001:00003790       ?_Lmost@?$_Tree@V?$_Tmap_traits@KPAVCServerDesc@@U?$less@K@std@@V?$allocator@U?$pair@$$CBKPAVCServerDesc@@@std@@@3@$0A@@std@@@std@@IAEAAPAU_Node@?$_Tree_nod@V?$_Tmap_traits@KPAVCServerDesc@@U?$less@K@std@@V?$allocator@U?$pair@$$CBKPAVCServerDesc@@@std@@@3@$0A@@std@@@2@XZ 00404790 f i DPClient.obj
 0001:000037a0       ?_Rmost@?$_Tree@V?$_Tmap_traits@KPAVCServerDesc@@U?$less@K@std@@V?$allocator@U?$pair@$$CBKPAVCServerDesc@@@std@@@3@$0A@@std@@@std@@IAEAAPAU_Node@?$_Tree_nod@V?$_Tmap_traits@KPAVCServerDesc@@U?$less@K@std@@V?$allocator@U?$pair@$$CBKPAVCServerDesc@@@std@@@3@$0A@@std@@@2@XZ 004047a0 f i DPClient.obj
 0001:000037b0       ?_Color@?$_Tree@V?$_Tmap_traits@KP8CDPClient@@AEXAAVCAr@@KPAXK@ZU?$less@K@std@@V?$allocator@U?$pair@$$CBKP8CDPClient@@AEXAAVCAr@@KPAXK@Z@std@@@4@$0A@@std@@@std@@KAAADPAU_Node@?$_Tree_nod@V?$_Tmap_traits@KP8CDPClient@@AEXAAVCAr@@KPAXK@ZU?$less@K@std@@V?$allocator@U?$pair@$$CBKP8CDPClient@@AEXAAVCAr@@KPAXK@Z@std@@@4@$0A@@std@@@2@@Z 004047b0 f i DPClient.obj
 0001:000037c0       ?_Parent@?$_Tree@V?$_Tmap_traits@KP8CDPClient@@AEXAAVCAr@@KPAXK@ZU?$less@K@std@@V?$allocator@U?$pair@$$CBKP8CDPClient@@AEXAAVCAr@@KPAXK@Z@std@@@4@$0A@@std@@@std@@KAAAPAU_Node@?$_Tree_nod@V?$_Tmap_traits@KP8CDPClient@@AEXAAVCAr@@KPAXK@ZU?$less@K@std@@V?$allocator@U?$pair@$$CBKP8CDPClient@@AEXAAVCAr@@KPAXK@Z@std@@@4@$0A@@std@@@2@PAU342@@Z 004047c0 f i DPClient.obj
 0001:000037d0       ?_Myval@?$_Tree@V?$_Tmap_traits@KP8CDPClient@@AEXAAVCAr@@KPAXK@ZU?$less@K@std@@V?$allocator@U?$pair@$$CBKP8CDPClient@@AEXAAVCAr@@KPAXK@Z@std@@@4@$0A@@std@@@std@@KAAAU?$pair@$$CBKP8CDPClient@@AEXAAVCAr@@KPAXK@Z@2@PAU_Node@?$_Tree_nod@V?$_Tmap_traits@KP8CDPClient@@AEXAAVCAr@@KPAXK@ZU?$less@K@std@@V?$allocator@U?$pair@$$CBKP8CDPClient@@AEXAAVCAr@@KPAXK@Z@std@@@4@$0A@@std@@@2@@Z 004047d0 f i DPClient.obj
 0001:000037e0       ?_Lmost@?$_Tree@V?$_Tmap_traits@KP8CDPClient@@AEXAAVCAr@@KPAXK@ZU?$less@K@std@@V?$allocator@U?$pair@$$CBKP8CDPClient@@AEXAAVCAr@@KPAXK@Z@std@@@4@$0A@@std@@@std@@IAEAAPAU_Node@?$_Tree_nod@V?$_Tmap_traits@KP8CDPClient@@AEXAAVCAr@@KPAXK@ZU?$less@K@std@@V?$allocator@U?$pair@$$CBKP8CDPClient@@AEXAAVCAr@@KPAXK@Z@std@@@4@$0A@@std@@@2@XZ 004047e0 f i DPClient.obj
 0001:000037f0       ?_Rmost@?$_Tree@V?$_Tmap_traits@KP8CDPClient@@AEXAAVCAr@@KPAXK@ZU?$less@K@std@@V?$allocator@U?$pair@$$CBKP8CDPClient@@AEXAAVCAr@@KPAXK@Z@std@@@4@$0A@@std@@@std@@IAEAAPAU_Node@?$_Tree_nod@V?$_Tmap_traits@KP8CDPClient@@AEXAAVCAr@@KPAXK@ZU?$less@K@std@@V?$allocator@U?$pair@$$CBKP8CDPClient@@AEXAAVCAr@@KPAXK@Z@std@@@4@$0A@@std@@@2@XZ 004047f0 f i DPClient.obj
 0001:00003800       ??0?$allocator@U?$pair@$$CBKP8CDPClient@@AEXAAVCAr@@KPAXK@Z@std@@@std@@QAE@ABV01@@Z 00404800 f i DPClient.obj
 0001:00003810       ?deallocate@?$allocator@U_Node@?$_Tree_nod@V?$_Tmap_traits@KP8CDPClient@@AEXAAVCAr@@KPAXK@ZU?$less@K@std@@V?$allocator@U?$pair@$$CBKP8CDPClient@@AEXAAVCAr@@KPAXK@Z@std@@@4@$0A@@std@@@std@@@std@@QAEXPAU_Node@?$_Tree_nod@V?$_Tmap_traits@KP8CDPClient@@AEXAAVCAr@@KPAXK@ZU?$less@K@std@@V?$allocator@U?$pair@$$CBKP8CDPClient@@AEXAAVCAr@@KPAXK@Z@std@@@4@$0A@@std@@@2@I@Z 00404810 f i DPClient.obj
 0001:00003820       ??0const_iterator@?$_Tree@V?$_Tmap_traits@KP8CDPClient@@AEXAAVCAr@@KPAXK@ZU?$less@K@std@@V?$allocator@U?$pair@$$CBKP8CDPClient@@AEXAAVCAr@@KPAXK@Z@std@@@4@$0A@@std@@@std@@QAE@PAU_Node@?$_Tree_nod@V?$_Tmap_traits@KP8CDPClient@@AEXAAVCAr@@KPAXK@ZU?$less@K@std@@V?$allocator@U?$pair@$$CBKP8CDPClient@@AEXAAVCAr@@KPAXK@Z@std@@@4@$0A@@std@@@2@@Z 00404820 f i DPClient.obj
 0001:00003830       ??Dconst_iterator@?$_Tree@V?$_Tmap_traits@KP8CDPClient@@AEXAAVCAr@@KPAXK@ZU?$less@K@std@@V?$allocator@U?$pair@$$CBKP8CDPClient@@AEXAAVCAr@@KPAXK@Z@std@@@4@$0A@@std@@@std@@QBEABU?$pair@$$CBKP8CDPClient@@AEXAAVCAr@@KPAXK@Z@2@XZ 00404830 f i DPClient.obj
 0001:00003840       ??0const_iterator@?$_Tree@V?$_Tmap_traits@KPAVCServerDesc@@U?$less@K@std@@V?$allocator@U?$pair@$$CBKPAVCServerDesc@@@std@@@3@$0A@@std@@@std@@QAE@PAU_Node@?$_Tree_nod@V?$_Tmap_traits@KPAVCServerDesc@@U?$less@K@std@@V?$allocator@U?$pair@$$CBKPAVCServerDesc@@@std@@@3@$0A@@std@@@2@@Z 00404840 f i DPClient.obj
 0001:00003850       ??0?$pair@Viterator@?$_Tree@V?$_Tmap_traits@KPAVCServerDesc@@U?$less@K@std@@V?$allocator@U?$pair@$$CBKPAVCServerDesc@@@std@@@3@$0A@@std@@@std@@V123@@std@@QAE@ABViterator@?$_Tree@V?$_Tmap_traits@KPAVCServerDesc@@U?$less@K@std@@V?$allocator@U?$pair@$$CBKPAVCServerDesc@@@std@@@3@$0A@@std@@@1@0@Z 00404850 f i DPClient.obj
 0001:00003870       ?_Max@?$_Tree@V?$_Tmap_traits@KPAVCServerDesc@@U?$less@K@std@@V?$allocator@U?$pair@$$CBKPAVCServerDesc@@@std@@@3@$0A@@std@@@std@@KAPAU_Node@?$_Tree_nod@V?$_Tmap_traits@KPAVCServerDesc@@U?$less@K@std@@V?$allocator@U?$pair@$$CBKPAVCServerDesc@@@std@@@3@$0A@@std@@@2@PAU342@@Z 00404870 f i DPClient.obj
 0001:00003890       ?_Min@?$_Tree@V?$_Tmap_traits@KPAVCServerDesc@@U?$less@K@std@@V?$allocator@U?$pair@$$CBKPAVCServerDesc@@@std@@@3@$0A@@std@@@std@@KAPAU_Node@?$_Tree_nod@V?$_Tmap_traits@KPAVCServerDesc@@U?$less@K@std@@V?$allocator@U?$pair@$$CBKPAVCServerDesc@@@std@@@3@$0A@@std@@@2@PAU342@@Z 00404890 f i DPClient.obj
 0001:000038b0       ?_Root@?$_Tree@V?$_Tmap_traits@KPAVCServerDesc@@U?$less@K@std@@V?$allocator@U?$pair@$$CBKPAVCServerDesc@@@std@@@3@$0A@@std@@@std@@IBEAAPAU_Node@?$_Tree_nod@V?$_Tmap_traits@KPAVCServerDesc@@U?$less@K@std@@V?$allocator@U?$pair@$$CBKPAVCServerDesc@@@std@@@3@$0A@@std@@@2@XZ 004048b0 f i DPClient.obj
 0001:000038c0       ?max_size@?$allocator@U?$pair@$$CBKPAVCServerDesc@@@std@@@std@@QBEIXZ 004048c0 f i DPClient.obj
 0001:000038d0       ?deallocate@?$allocator@U_Node@?$_Tree_nod@V?$_Tmap_traits@KPAVCServerDesc@@U?$less@K@std@@V?$allocator@U?$pair@$$CBKPAVCServerDesc@@@std@@@3@$0A@@std@@@std@@@std@@QAEXPAU_Node@?$_Tree_nod@V?$_Tmap_traits@KPAVCServerDesc@@U?$less@K@std@@V?$allocator@U?$pair@$$CBKPAVCServerDesc@@@std@@@3@$0A@@std@@@2@I@Z 004048d0 f i DPClient.obj
 0001:000038e0       ?_Root@?$_Tree@V?$_Tmap_traits@KP8CDPClient@@AEXAAVCAr@@KPAXK@ZU?$less@K@std@@V?$allocator@U?$pair@$$CBKP8CDPClient@@AEXAAVCAr@@KPAXK@Z@std@@@4@$0A@@std@@@std@@IBEAAPAU_Node@?$_Tree_nod@V?$_Tmap_traits@KP8CDPClient@@AEXAAVCAr@@KPAXK@ZU?$less@K@std@@V?$allocator@U?$pair@$$CBKP8CDPClient@@AEXAAVCAr@@KPAXK@Z@std@@@4@$0A@@std@@@2@XZ 004048e0 f i DPClient.obj
 0001:000038f0       ?max_size@?$allocator@U?$pair@$$CBKP8CDPClient@@AEXAAVCAr@@KPAXK@Z@std@@@std@@QBEIXZ 004048f0 f i DPClient.obj
 0001:00003900       ?_Dec@const_iterator@?$_Tree@V?$_Tmap_traits@KPAVCServerDesc@@U?$less@K@std@@V?$allocator@U?$pair@$$CBKPAVCServerDesc@@@std@@@3@$0A@@std@@@std@@QAEXXZ 00404900 f i DPClient.obj
 0001:00003960       ??0_Node@?$_Tree_nod@V?$_Tmap_traits@KPAVCServerDesc@@U?$less@K@std@@V?$allocator@U?$pair@$$CBKPAVCServerDesc@@@std@@@3@$0A@@std@@@std@@QAE@PAU012@00ABU?$pair@$$CBKPAVCServerDesc@@@2@D@Z 00404960 f i DPClient.obj
 0001:000039a0       ??0_Node@?$_Tree_nod@V?$_Tmap_traits@KP8CDPClient@@AEXAAVCAr@@KPAXK@ZU?$less@K@std@@V?$allocator@U?$pair@$$CBKP8CDPClient@@AEXAAVCAr@@KPAXK@Z@std@@@4@$0A@@std@@@std@@QAE@PAU012@00ABU?$pair@$$CBKP8CDPClient@@AEXAAVCAr@@KPAXK@Z@2@D@Z 004049a0 f i DPClient.obj
 0001:000039e0       ?_Max@?$_Tree@V?$_Tmap_traits@KP8CDPClient@@AEXAAVCAr@@KPAXK@ZU?$less@K@std@@V?$allocator@U?$pair@$$CBKP8CDPClient@@AEXAAVCAr@@KPAXK@Z@std@@@4@$0A@@std@@@std@@KAPAU_Node@?$_Tree_nod@V?$_Tmap_traits@KP8CDPClient@@AEXAAVCAr@@KPAXK@ZU?$less@K@std@@V?$allocator@U?$pair@$$CBKP8CDPClient@@AEXAAVCAr@@KPAXK@Z@std@@@4@$0A@@std@@@2@PAU342@@Z 004049e0 f i DPClient.obj
 0001:00003a00       ?_Min@?$_Tree@V?$_Tmap_traits@KP8CDPClient@@AEXAAVCAr@@KPAXK@ZU?$less@K@std@@V?$allocator@U?$pair@$$CBKP8CDPClient@@AEXAAVCAr@@KPAXK@Z@std@@@4@$0A@@std@@@std@@KAPAU_Node@?$_Tree_nod@V?$_Tmap_traits@KP8CDPClient@@AEXAAVCAr@@KPAXK@ZU?$less@K@std@@V?$allocator@U?$pair@$$CBKP8CDPClient@@AEXAAVCAr@@KPAXK@Z@std@@@4@$0A@@std@@@2@PAU342@@Z 00404a00 f i DPClient.obj
 0001:00003a20       ??0?$_Tmap_traits@KP8CDPClient@@AEXAAVCAr@@KPAXK@ZU?$less@K@std@@V?$allocator@U?$pair@$$CBKP8CDPClient@@AEXAAVCAr@@KPAXK@Z@std@@@4@$0A@@std@@QAE@U?$less@K@1@@Z 00404a20 f i DPClient.obj
 0001:00003a30       ?_Inc@const_iterator@?$_Tree@V?$_Tmap_traits@KPAVCServerDesc@@U?$less@K@std@@V?$allocator@U?$pair@$$CBKPAVCServerDesc@@@std@@@3@$0A@@std@@@std@@QAEXXZ 00404a30 f i DPClient.obj
 0001:00003a90       ?_Inc@const_iterator@?$_Tree@V?$_Tmap_traits@KP8CDPClient@@AEXAAVCAr@@KPAXK@ZU?$less@K@std@@V?$allocator@U?$pair@$$CBKP8CDPClient@@AEXAAVCAr@@KPAXK@Z@std@@@4@$0A@@std@@@std@@QAEXXZ 00404a90 f i DPClient.obj
 0001:00003af0       ??$_Destroy@PAU_Node@?$_Tree_nod@V?$_Tmap_traits@KP8CDPClient@@AEXAAVCAr@@KPAXK@ZU?$less@K@std@@V?$allocator@U?$pair@$$CBKP8CDPClient@@AEXAAVCAr@@KPAXK@Z@std@@@4@$0A@@std@@@std@@@std@@YAXPAPAU_Node@?$_Tree_nod@V?$_Tmap_traits@KP8CDPClient@@AEXAAVCAr@@KPAXK@ZU?$less@K@std@@V?$allocator@U?$pair@$$CBKP8CDPClient@@AEXAAVCAr@@KPAXK@Z@std@@@4@$0A@@std@@@0@@Z 00404af0 f i DPClient.obj
 0001:00003b00       ??$_Allocate@U_Node@?$_Tree_nod@V?$_Tmap_traits@KPAVCServerDesc@@U?$less@K@std@@V?$allocator@U?$pair@$$CBKPAVCServerDesc@@@std@@@3@$0A@@std@@@std@@@std@@YAPAU_Node@?$_Tree_nod@V?$_Tmap_traits@KPAVCServerDesc@@U?$less@K@std@@V?$allocator@U?$pair@$$CBKPAVCServerDesc@@@std@@@3@$0A@@std@@@0@IPAU120@@Z 00404b00 f i DPClient.obj
 0001:00003b20       ??$_Destroy@U_Node@?$_Tree_nod@V?$_Tmap_traits@KPAVCServerDesc@@U?$less@K@std@@V?$allocator@U?$pair@$$CBKPAVCServerDesc@@@std@@@3@$0A@@std@@@std@@@std@@YAXPAU_Node@?$_Tree_nod@V?$_Tmap_traits@KPAVCServerDesc@@U?$less@K@std@@V?$allocator@U?$pair@$$CBKPAVCServerDesc@@@std@@@3@$0A@@std@@@0@@Z 00404b20 f i DPClient.obj
 0001:00003b30       ??$?0U?$pair@$$CBKP8CDPClient@@AEXAAVCAr@@KPAXK@Z@std@@@?$allocator@PAU_Node@?$_Tree_nod@V?$_Tmap_traits@KP8CDPClient@@AEXAAVCAr@@KPAXK@ZU?$less@K@std@@V?$allocator@U?$pair@$$CBKP8CDPClient@@AEXAAVCAr@@KPAXK@Z@std@@@4@$0A@@std@@@std@@@std@@QAE@ABV?$allocator@U?$pair@$$CBKP8CDPClient@@AEXAAVCAr@@KPAXK@Z@std@@@1@@Z 00404b30 f i DPClient.obj
 0001:00003b40       ??$_Allocate@U_Node@?$_Tree_nod@V?$_Tmap_traits@KP8CDPClient@@AEXAAVCAr@@KPAXK@ZU?$less@K@std@@V?$allocator@U?$pair@$$CBKP8CDPClient@@AEXAAVCAr@@KPAXK@Z@std@@@4@$0A@@std@@@std@@@std@@YAPAU_Node@?$_Tree_nod@V?$_Tmap_traits@KP8CDPClient@@AEXAAVCAr@@KPAXK@ZU?$less@K@std@@V?$allocator@U?$pair@$$CBKP8CDPClient@@AEXAAVCAr@@KPAXK@Z@std@@@4@$0A@@std@@@0@IPAU120@@Z 00404b40 f i DPClient.obj
 0001:00003b60       ??$?0U?$pair@$$CBKP8CDPClient@@AEXAAVCAr@@KPAXK@Z@std@@@?$allocator@U_Node@?$_Tree_nod@V?$_Tmap_traits@KP8CDPClient@@AEXAAVCAr@@KPAXK@ZU?$less@K@std@@V?$allocator@U?$pair@$$CBKP8CDPClient@@AEXAAVCAr@@KPAXK@Z@std@@@4@$0A@@std@@@std@@@std@@QAE@ABV?$allocator@U?$pair@$$CBKP8CDPClient@@AEXAAVCAr@@KPAXK@Z@std@@@1@@Z 00404b60 f i DPClient.obj
 0001:00003b70       ??$_Destroy@U_Node@?$_Tree_nod@V?$_Tmap_traits@KP8CDPClient@@AEXAAVCAr@@KPAXK@ZU?$less@K@std@@V?$allocator@U?$pair@$$CBKP8CDPClient@@AEXAAVCAr@@KPAXK@Z@std@@@4@$0A@@std@@@std@@@std@@YAXPAU_Node@?$_Tree_nod@V?$_Tmap_traits@KP8CDPClient@@AEXAAVCAr@@KPAXK@ZU?$less@K@std@@V?$allocator@U?$pair@$$CBKP8CDPClient@@AEXAAVCAr@@KPAXK@Z@std@@@4@$0A@@std@@@0@@Z 00404b70 f i DPClient.obj
 0001:00003b80       ??$_Construct@PAU_Node@?$_Tree_nod@V?$_Tmap_traits@KP8CDPClient@@AEXAAVCAr@@KPAXK@ZU?$less@K@std@@V?$allocator@U?$pair@$$CBKP8CDPClient@@AEXAAVCAr@@KPAXK@Z@std@@@4@$0A@@std@@@std@@PAU123@@std@@YAXPAPAU_Node@?$_Tree_nod@V?$_Tmap_traits@KP8CDPClient@@AEXAAVCAr@@KPAXK@ZU?$less@K@std@@V?$allocator@U?$pair@$$CBKP8CDPClient@@AEXAAVCAr@@KPAXK@Z@std@@@4@$0A@@std@@@0@ABQAU120@@Z 00404b80 f i DPClient.obj
 0001:00003ba0       ??$_Iter_cat@Viterator@?$_Tree@V?$_Tmap_traits@KPAVCServerDesc@@U?$less@K@std@@V?$allocator@U?$pair@$$CBKPAVCServerDesc@@@std@@@3@$0A@@std@@@std@@@std@@YA?AUbidirectional_iterator_tag@0@ABViterator@?$_Tree@V?$_Tmap_traits@KPAVCServerDesc@@U?$less@K@std@@V?$allocator@U?$pair@$$CBKPAVCServerDesc@@@std@@@3@$0A@@std@@@0@@Z 00404ba0 f i DPClient.obj
 0001:00003bb0       ??0CMclCritSec@@QAE@XZ     00404bb0 f i DPClient.obj
 0001:00003bd0       ??1CMclCritSec@@UAE@XZ     00404bd0 f i DPClient.obj
 0001:00003bf0       ??_GCMclCritSec@@UAEPAXI@Z 00404bf0 f i DPClient.obj
 0001:00003bf0       ??_ECMclCritSec@@UAEPAXI@Z 00404bf0 f i DPClient.obj
 0001:00003c20       ??0CDPClientArray@@QAE@XZ  00404c20 f   DPClient.obj
 0001:00003c90       ?Free@CDPClientArray@@QAEXXZ 00404c90 f   DPClient.obj
 0001:00003d40       ?GetClient@CDPClientArray@@QAEPAVCDPClient@@KKABUD3DXVECTOR3@@@Z 00404d40 f   DPClient.obj
 0001:00003e00       ?SendToServer@CDPClientArray@@QAEXKPAXK@Z 00404e00 f   DPClient.obj
 0001:00003e90       ??9const_iterator@?$_Tree@V?$_Tmap_traits@KP8CDPClient@@AEXAAVCAr@@KPAXK@ZU?$less@K@std@@V?$allocator@U?$pair@$$CBKP8CDPClient@@AEXAAVCAr@@KPAXK@Z@std@@@4@$0A@@std@@@std@@QBE_NABV012@@Z 00404e90 f i DPClient.obj
 0001:00003eb0       ?_Key@?$_Tree@V?$_Tmap_traits@KPAVCServerDesc@@U?$less@K@std@@V?$allocator@U?$pair@$$CBKPAVCServerDesc@@@std@@@3@$0A@@std@@@std@@KAABKPAU_Node@?$_Tree_nod@V?$_Tmap_traits@KPAVCServerDesc@@U?$less@K@std@@V?$allocator@U?$pair@$$CBKPAVCServerDesc@@@std@@@3@$0A@@std@@@2@@Z 00404eb0 f i DPClient.obj
 0001:00003ec0       ?_Root@?$_Tree@V?$_Tmap_traits@KPAVCServerDesc@@U?$less@K@std@@V?$allocator@U?$pair@$$CBKPAVCServerDesc@@@std@@@3@$0A@@std@@@std@@IAEAAPAU_Node@?$_Tree_nod@V?$_Tmap_traits@KPAVCServerDesc@@U?$less@K@std@@V?$allocator@U?$pair@$$CBKPAVCServerDesc@@@std@@@3@$0A@@std@@@2@XZ 00404ec0 f i DPClient.obj
 0001:00003ed0       ?_Key@?$_Tree@V?$_Tmap_traits@KP8CDPClient@@AEXAAVCAr@@KPAXK@ZU?$less@K@std@@V?$allocator@U?$pair@$$CBKP8CDPClient@@AEXAAVCAr@@KPAXK@Z@std@@@4@$0A@@std@@@std@@KAABKPAU_Node@?$_Tree_nod@V?$_Tmap_traits@KP8CDPClient@@AEXAAVCAr@@KPAXK@ZU?$less@K@std@@V?$allocator@U?$pair@$$CBKP8CDPClient@@AEXAAVCAr@@KPAXK@Z@std@@@4@$0A@@std@@@2@@Z 00404ed0 f i DPClient.obj
 0001:00003ee0       ?_Root@?$_Tree@V?$_Tmap_traits@KP8CDPClient@@AEXAAVCAr@@KPAXK@ZU?$less@K@std@@V?$allocator@U?$pair@$$CBKP8CDPClient@@AEXAAVCAr@@KPAXK@Z@std@@@4@$0A@@std@@@std@@IAEAAPAU_Node@?$_Tree_nod@V?$_Tmap_traits@KP8CDPClient@@AEXAAVCAr@@KPAXK@ZU?$less@K@std@@V?$allocator@U?$pair@$$CBKP8CDPClient@@AEXAAVCAr@@KPAXK@Z@std@@@4@$0A@@std@@@2@XZ 00404ee0 f i DPClient.obj
 0001:00003ef0       ??0iterator@?$_Tree@V?$_Tmap_traits@KP8CDPClient@@AEXAAVCAr@@KPAXK@ZU?$less@K@std@@V?$allocator@U?$pair@$$CBKP8CDPClient@@AEXAAVCAr@@KPAXK@Z@std@@@4@$0A@@std@@@std@@QAE@PAU_Node@?$_Tree_nod@V?$_Tmap_traits@KP8CDPClient@@AEXAAVCAr@@KPAXK@ZU?$less@K@std@@V?$allocator@U?$pair@$$CBKP8CDPClient@@AEXAAVCAr@@KPAXK@Z@std@@@4@$0A@@std@@@2@@Z 00404ef0 f i DPClient.obj
 0001:00003f00       ??Diterator@?$_Tree@V?$_Tmap_traits@KP8CDPClient@@AEXAAVCAr@@KPAXK@ZU?$less@K@std@@V?$allocator@U?$pair@$$CBKP8CDPClient@@AEXAAVCAr@@KPAXK@Z@std@@@4@$0A@@std@@@std@@QBEAAU?$pair@$$CBKP8CDPClient@@AEXAAVCAr@@KPAXK@Z@2@XZ 00404f00 f i DPClient.obj
 0001:00003f10       ??0iterator@?$_Tree@V?$_Tmap_traits@KPAVCServerDesc@@U?$less@K@std@@V?$allocator@U?$pair@$$CBKPAVCServerDesc@@@std@@@3@$0A@@std@@@std@@QAE@PAU_Node@?$_Tree_nod@V?$_Tmap_traits@KPAVCServerDesc@@U?$less@K@std@@V?$allocator@U?$pair@$$CBKPAVCServerDesc@@@std@@@3@$0A@@std@@@2@@Z 00404f10 f i DPClient.obj
 0001:00003f20       ?max_size@?$_Tree@V?$_Tmap_traits@KPAVCServerDesc@@U?$less@K@std@@V?$allocator@U?$pair@$$CBKPAVCServerDesc@@@std@@@3@$0A@@std@@@std@@QBEIXZ 00404f20 f i DPClient.obj
 0001:00003f30       ?_Lbound@?$_Tree@V?$_Tmap_traits@KPAVCServerDesc@@U?$less@K@std@@V?$allocator@U?$pair@$$CBKPAVCServerDesc@@@std@@@3@$0A@@std@@@std@@IBEPAU_Node@?$_Tree_nod@V?$_Tmap_traits@KPAVCServerDesc@@U?$less@K@std@@V?$allocator@U?$pair@$$CBKPAVCServerDesc@@@std@@@3@$0A@@std@@@2@ABK@Z 00404f30 f i DPClient.obj
 0001:00003f60       ?_Lrotate@?$_Tree@V?$_Tmap_traits@KPAVCServerDesc@@U?$less@K@std@@V?$allocator@U?$pair@$$CBKPAVCServerDesc@@@std@@@3@$0A@@std@@@std@@IAEXPAU_Node@?$_Tree_nod@V?$_Tmap_traits@KPAVCServerDesc@@U?$less@K@std@@V?$allocator@U?$pair@$$CBKPAVCServerDesc@@@std@@@3@$0A@@std@@@2@@Z 00404f60 f i DPClient.obj
 0001:00003fc0       ?_Rrotate@?$_Tree@V?$_Tmap_traits@KPAVCServerDesc@@U?$less@K@std@@V?$allocator@U?$pair@$$CBKPAVCServerDesc@@@std@@@3@$0A@@std@@@std@@IAEXPAU_Node@?$_Tree_nod@V?$_Tmap_traits@KPAVCServerDesc@@U?$less@K@std@@V?$allocator@U?$pair@$$CBKPAVCServerDesc@@@std@@@3@$0A@@std@@@2@@Z 00404fc0 f i DPClient.obj
 0001:00004020       ?max_size@?$_Tree@V?$_Tmap_traits@KP8CDPClient@@AEXAAVCAr@@KPAXK@ZU?$less@K@std@@V?$allocator@U?$pair@$$CBKP8CDPClient@@AEXAAVCAr@@KPAXK@Z@std@@@4@$0A@@std@@@std@@QBEIXZ 00405020 f i DPClient.obj
 0001:00004030       ?_Lbound@?$_Tree@V?$_Tmap_traits@KP8CDPClient@@AEXAAVCAr@@KPAXK@ZU?$less@K@std@@V?$allocator@U?$pair@$$CBKP8CDPClient@@AEXAAVCAr@@KPAXK@Z@std@@@4@$0A@@std@@@std@@IBEPAU_Node@?$_Tree_nod@V?$_Tmap_traits@KP8CDPClient@@AEXAAVCAr@@KPAXK@ZU?$less@K@std@@V?$allocator@U?$pair@$$CBKP8CDPClient@@AEXAAVCAr@@KPAXK@Z@std@@@4@$0A@@std@@@2@ABK@Z 00405030 f i DPClient.obj
 0001:00004060       ?_Lrotate@?$_Tree@V?$_Tmap_traits@KP8CDPClient@@AEXAAVCAr@@KPAXK@ZU?$less@K@std@@V?$allocator@U?$pair@$$CBKP8CDPClient@@AEXAAVCAr@@KPAXK@Z@std@@@4@$0A@@std@@@std@@IAEXPAU_Node@?$_Tree_nod@V?$_Tmap_traits@KP8CDPClient@@AEXAAVCAr@@KPAXK@ZU?$less@K@std@@V?$allocator@U?$pair@$$CBKP8CDPClient@@AEXAAVCAr@@KPAXK@Z@std@@@4@$0A@@std@@@2@@Z 00405060 f i DPClient.obj
 0001:000040c0       ?_Rrotate@?$_Tree@V?$_Tmap_traits@KP8CDPClient@@AEXAAVCAr@@KPAXK@ZU?$less@K@std@@V?$allocator@U?$pair@$$CBKP8CDPClient@@AEXAAVCAr@@KPAXK@Z@std@@@4@$0A@@std@@@std@@IAEXPAU_Node@?$_Tree_nod@V?$_Tmap_traits@KP8CDPClient@@AEXAAVCAr@@KPAXK@ZU?$less@K@std@@V?$allocator@U?$pair@$$CBKP8CDPClient@@AEXAAVCAr@@KPAXK@Z@std@@@4@$0A@@std@@@2@@Z 004050c0 f i DPClient.obj
 0001:00004120       ?destroy@?$allocator@PAU_Node@?$_Tree_nod@V?$_Tmap_traits@KP8CDPClient@@AEXAAVCAr@@KPAXK@ZU?$less@K@std@@V?$allocator@U?$pair@$$CBKP8CDPClient@@AEXAAVCAr@@KPAXK@Z@std@@@4@$0A@@std@@@std@@@std@@QAEXPAPAU_Node@?$_Tree_nod@V?$_Tmap_traits@KP8CDPClient@@AEXAAVCAr@@KPAXK@ZU?$less@K@std@@V?$allocator@U?$pair@$$CBKP8CDPClient@@AEXAAVCAr@@KPAXK@Z@std@@@4@$0A@@std@@@2@@Z 00405120 f i DPClient.obj
 0001:00004130       ??Fconst_iterator@?$_Tree@V?$_Tmap_traits@KPAVCServerDesc@@U?$less@K@std@@V?$allocator@U?$pair@$$CBKPAVCServerDesc@@@std@@@3@$0A@@std@@@std@@QAEAAV012@XZ 00405130 f i DPClient.obj
 0001:00004140       ?_Ubound@?$_Tree@V?$_Tmap_traits@KPAVCServerDesc@@U?$less@K@std@@V?$allocator@U?$pair@$$CBKPAVCServerDesc@@@std@@@3@$0A@@std@@@std@@IBEPAU_Node@?$_Tree_nod@V?$_Tmap_traits@KPAVCServerDesc@@U?$less@K@std@@V?$allocator@U?$pair@$$CBKPAVCServerDesc@@@std@@@3@$0A@@std@@@2@ABK@Z 00405140 f i DPClient.obj
 0001:00004170       ?allocate@?$allocator@U_Node@?$_Tree_nod@V?$_Tmap_traits@KPAVCServerDesc@@U?$less@K@std@@V?$allocator@U?$pair@$$CBKPAVCServerDesc@@@std@@@3@$0A@@std@@@std@@@std@@QAEPAU_Node@?$_Tree_nod@V?$_Tmap_traits@KPAVCServerDesc@@U?$less@K@std@@V?$allocator@U?$pair@$$CBKPAVCServerDesc@@@std@@@3@$0A@@std@@@2@I@Z 00405170 f i DPClient.obj
 0001:00004190       ?destroy@?$allocator@U_Node@?$_Tree_nod@V?$_Tmap_traits@KPAVCServerDesc@@U?$less@K@std@@V?$allocator@U?$pair@$$CBKPAVCServerDesc@@@std@@@3@$0A@@std@@@std@@@std@@QAEXPAU_Node@?$_Tree_nod@V?$_Tmap_traits@KPAVCServerDesc@@U?$less@K@std@@V?$allocator@U?$pair@$$CBKPAVCServerDesc@@@std@@@3@$0A@@std@@@2@@Z 00405190 f i DPClient.obj
 0001:000041a0       ?allocate@?$allocator@U_Node@?$_Tree_nod@V?$_Tmap_traits@KP8CDPClient@@AEXAAVCAr@@KPAXK@ZU?$less@K@std@@V?$allocator@U?$pair@$$CBKP8CDPClient@@AEXAAVCAr@@KPAXK@Z@std@@@4@$0A@@std@@@std@@@std@@QAEPAU_Node@?$_Tree_nod@V?$_Tmap_traits@KP8CDPClient@@AEXAAVCAr@@KPAXK@ZU?$less@K@std@@V?$allocator@U?$pair@$$CBKP8CDPClient@@AEXAAVCAr@@KPAXK@Z@std@@@4@$0A@@std@@@2@I@Z 004051a0 f i DPClient.obj
 0001:000041c0       ?_Dec@const_iterator@?$_Tree@V?$_Tmap_traits@KP8CDPClient@@AEXAAVCAr@@KPAXK@ZU?$less@K@std@@V?$allocator@U?$pair@$$CBKP8CDPClient@@AEXAAVCAr@@KPAXK@Z@std@@@4@$0A@@std@@@std@@QAEXXZ 004051c0 f i DPClient.obj
 0001:00004220       ??0?$_Tree_nod@V?$_Tmap_traits@KP8CDPClient@@AEXAAVCAr@@KPAXK@ZU?$less@K@std@@V?$allocator@U?$pair@$$CBKP8CDPClient@@AEXAAVCAr@@KPAXK@Z@std@@@4@$0A@@std@@@std@@IAE@ABU?$less@K@1@V?$allocator@U?$pair@$$CBKP8CDPClient@@AEXAAVCAr@@KPAXK@Z@std@@@1@@Z 00405220 f i DPClient.obj
 0001:00004230       ?destroy@?$allocator@U_Node@?$_Tree_nod@V?$_Tmap_traits@KP8CDPClient@@AEXAAVCAr@@KPAXK@ZU?$less@K@std@@V?$allocator@U?$pair@$$CBKP8CDPClient@@AEXAAVCAr@@KPAXK@Z@std@@@4@$0A@@std@@@std@@@std@@QAEXPAU_Node@?$_Tree_nod@V?$_Tmap_traits@KP8CDPClient@@AEXAAVCAr@@KPAXK@ZU?$less@K@std@@V?$allocator@U?$pair@$$CBKP8CDPClient@@AEXAAVCAr@@KPAXK@Z@std@@@4@$0A@@std@@@2@@Z 00405230 f i DPClient.obj
 0001:00004240       ?construct@?$allocator@PAU_Node@?$_Tree_nod@V?$_Tmap_traits@KP8CDPClient@@AEXAAVCAr@@KPAXK@ZU?$less@K@std@@V?$allocator@U?$pair@$$CBKP8CDPClient@@AEXAAVCAr@@KPAXK@Z@std@@@4@$0A@@std@@@std@@@std@@QAEXPAPAU_Node@?$_Tree_nod@V?$_Tmap_traits@KP8CDPClient@@AEXAAVCAr@@KPAXK@ZU?$less@K@std@@V?$allocator@U?$pair@$$CBKP8CDPClient@@AEXAAVCAr@@KPAXK@Z@std@@@4@$0A@@std@@@2@ABQAU342@@Z 00405240 f i DPClient.obj
 0001:00004260       ??Econst_iterator@?$_Tree@V?$_Tmap_traits@KPAVCServerDesc@@U?$less@K@std@@V?$allocator@U?$pair@$$CBKPAVCServerDesc@@@std@@@3@$0A@@std@@@std@@QAEAAV012@XZ 00405260 f i DPClient.obj
 0001:00004270       ??Econst_iterator@?$_Tree@V?$_Tmap_traits@KP8CDPClient@@AEXAAVCAr@@KPAXK@ZU?$less@K@std@@V?$allocator@U?$pair@$$CBKP8CDPClient@@AEXAAVCAr@@KPAXK@Z@std@@@4@$0A@@std@@@std@@QAEAAV012@XZ 00405270 f i DPClient.obj
 0001:00004280       ?OnQueryDestroyPlayer@CDPClient@@AAEXAAVCAr@@KPAXK@Z 00405280 f   DPClient.obj
 0001:00004420       ??1CDPClientArray@@UAE@XZ  00405420 f   DPClient.obj
 0001:00004480       ?end@?$_Tree@V?$_Tmap_traits@KPAVCServerDesc@@U?$less@K@std@@V?$allocator@U?$pair@$$CBKPAVCServerDesc@@@std@@@3@$0A@@std@@@std@@QAE?AViterator@12@XZ 00405480 f i DPClient.obj
 0001:00004490       ?end@?$_Tree@V?$_Tmap_traits@KP8CDPClient@@AEXAAVCAr@@KPAXK@ZU?$less@K@std@@V?$allocator@U?$pair@$$CBKP8CDPClient@@AEXAAVCAr@@KPAXK@Z@std@@@4@$0A@@std@@@std@@QAE?AViterator@12@XZ 00405490 f i DPClient.obj
 0001:000044a0       ??Citerator@?$_Tree@V?$_Tmap_traits@KP8CDPClient@@AEXAAVCAr@@KPAXK@ZU?$less@K@std@@V?$allocator@U?$pair@$$CBKP8CDPClient@@AEXAAVCAr@@KPAXK@Z@std@@@4@$0A@@std@@@std@@QBEPAU?$pair@$$CBKP8CDPClient@@AEXAAVCAr@@KPAXK@Z@2@XZ 004054a0 f i DPClient.obj
 0001:000044b0       ?begin@?$_Tree@V?$_Tmap_traits@KPAVCServerDesc@@U?$less@K@std@@V?$allocator@U?$pair@$$CBKPAVCServerDesc@@@std@@@3@$0A@@std@@@std@@QAE?AViterator@12@XZ 004054b0 f i DPClient.obj
 0001:000044c0       ?lower_bound@?$_Tree@V?$_Tmap_traits@KPAVCServerDesc@@U?$less@K@std@@V?$allocator@U?$pair@$$CBKPAVCServerDesc@@@std@@@3@$0A@@std@@@std@@QAE?AViterator@12@ABK@Z 004054c0 f i DPClient.obj
 0001:00004500       ?begin@?$_Tree@V?$_Tmap_traits@KP8CDPClient@@AEXAAVCAr@@KPAXK@ZU?$less@K@std@@V?$allocator@U?$pair@$$CBKP8CDPClient@@AEXAAVCAr@@KPAXK@Z@std@@@4@$0A@@std@@@std@@QAE?AViterator@12@XZ 00405500 f i DPClient.obj
 0001:00004510       ?lower_bound@?$_Tree@V?$_Tmap_traits@KP8CDPClient@@AEXAAVCAr@@KPAXK@ZU?$less@K@std@@V?$allocator@U?$pair@$$CBKP8CDPClient@@AEXAAVCAr@@KPAXK@Z@std@@@4@$0A@@std@@@std@@QAE?AViterator@12@ABK@Z 00405510 f i DPClient.obj
 0001:00004550       ??Fiterator@?$_Tree@V?$_Tmap_traits@KPAVCServerDesc@@U?$less@K@std@@V?$allocator@U?$pair@$$CBKPAVCServerDesc@@@std@@@3@$0A@@std@@@std@@QAEAAV012@XZ 00405550 f i DPClient.obj
 0001:00004560       ?upper_bound@?$_Tree@V?$_Tmap_traits@KPAVCServerDesc@@U?$less@K@std@@V?$allocator@U?$pair@$$CBKPAVCServerDesc@@@std@@@3@$0A@@std@@@std@@QAE?AViterator@12@ABK@Z 00405560 f i DPClient.obj
 0001:000045a0       ?_Buynode@?$_Tree@V?$_Tmap_traits@KPAVCServerDesc@@U?$less@K@std@@V?$allocator@U?$pair@$$CBKPAVCServerDesc@@@std@@@3@$0A@@std@@@std@@IAEPAU_Node@?$_Tree_nod@V?$_Tmap_traits@KPAVCServerDesc@@U?$less@K@std@@V?$allocator@U?$pair@$$CBKPAVCServerDesc@@@std@@@3@$0A@@std@@@2@PAU342@00ABU?$pair@$$CBKPAVCServerDesc@@@2@D@Z 004055a0 f i DPClient.obj
 0001:000045e0       ?_Buynode@?$_Tree@V?$_Tmap_traits@KP8CDPClient@@AEXAAVCAr@@KPAXK@ZU?$less@K@std@@V?$allocator@U?$pair@$$CBKP8CDPClient@@AEXAAVCAr@@KPAXK@Z@std@@@4@$0A@@std@@@std@@IAEPAU_Node@?$_Tree_nod@V?$_Tmap_traits@KP8CDPClient@@AEXAAVCAr@@KPAXK@ZU?$less@K@std@@V?$allocator@U?$pair@$$CBKP8CDPClient@@AEXAAVCAr@@KPAXK@Z@std@@@4@$0A@@std@@@2@PAU342@00ABU?$pair@$$CBKP8CDPClient@@AEXAAVCAr@@KPAXK@Z@2@D@Z 004055e0 f i DPClient.obj
 0001:00004620       ??Fconst_iterator@?$_Tree@V?$_Tmap_traits@KP8CDPClient@@AEXAAVCAr@@KPAXK@ZU?$less@K@std@@V?$allocator@U?$pair@$$CBKP8CDPClient@@AEXAAVCAr@@KPAXK@Z@std@@@4@$0A@@std@@@std@@QAEAAV012@XZ 00405620 f i DPClient.obj
 0001:00004630       ?_Erase@?$_Tree@V?$_Tmap_traits@KPAVCServerDesc@@U?$less@K@std@@V?$allocator@U?$pair@$$CBKPAVCServerDesc@@@std@@@3@$0A@@std@@@std@@IAEXPAU_Node@?$_Tree_nod@V?$_Tmap_traits@KPAVCServerDesc@@U?$less@K@std@@V?$allocator@U?$pair@$$CBKPAVCServerDesc@@@std@@@3@$0A@@std@@@2@@Z 00405630 f i DPClient.obj
 0001:00004670       ?_Buynode@?$_Tree@V?$_Tmap_traits@KP8CDPClient@@AEXAAVCAr@@KPAXK@ZU?$less@K@std@@V?$allocator@U?$pair@$$CBKP8CDPClient@@AEXAAVCAr@@KPAXK@Z@std@@@4@$0A@@std@@@std@@IAEPAU_Node@?$_Tree_nod@V?$_Tmap_traits@KP8CDPClient@@AEXAAVCAr@@KPAXK@ZU?$less@K@std@@V?$allocator@U?$pair@$$CBKP8CDPClient@@AEXAAVCAr@@KPAXK@Z@std@@@4@$0A@@std@@@2@XZ 00405670 f i DPClient.obj
 0001:000046b0       ??0?$_Tree_ptr@V?$_Tmap_traits@KP8CDPClient@@AEXAAVCAr@@KPAXK@ZU?$less@K@std@@V?$allocator@U?$pair@$$CBKP8CDPClient@@AEXAAVCAr@@KPAXK@Z@std@@@4@$0A@@std@@@std@@IAE@ABU?$less@K@1@V?$allocator@U?$pair@$$CBKP8CDPClient@@AEXAAVCAr@@KPAXK@Z@std@@@1@@Z 004056b0 f i DPClient.obj
 0001:000046c0       ??Eiterator@?$_Tree@V?$_Tmap_traits@KPAVCServerDesc@@U?$less@K@std@@V?$allocator@U?$pair@$$CBKPAVCServerDesc@@@std@@@3@$0A@@std@@@std@@QAEAAV012@XZ 004056c0 f i DPClient.obj
 0001:000046d0       ?_Erase@?$_Tree@V?$_Tmap_traits@KP8CDPClient@@AEXAAVCAr@@KPAXK@ZU?$less@K@std@@V?$allocator@U?$pair@$$CBKP8CDPClient@@AEXAAVCAr@@KPAXK@Z@std@@@4@$0A@@std@@@std@@IAEXPAU_Node@?$_Tree_nod@V?$_Tmap_traits@KP8CDPClient@@AEXAAVCAr@@KPAXK@ZU?$less@K@std@@V?$allocator@U?$pair@$$CBKP8CDPClient@@AEXAAVCAr@@KPAXK@Z@std@@@4@$0A@@std@@@2@@Z 004056d0 f i DPClient.obj
 0001:00004710       ??Eiterator@?$_Tree@V?$_Tmap_traits@KP8CDPClient@@AEXAAVCAr@@KPAXK@ZU?$less@K@std@@V?$allocator@U?$pair@$$CBKP8CDPClient@@AEXAAVCAr@@KPAXK@Z@std@@@4@$0A@@std@@@std@@QAEAAV012@XZ 00405710 f i DPClient.obj
 0001:00004720       ??$_Distance2@Viterator@?$_Tree@V?$_Tmap_traits@KPAVCServerDesc@@U?$less@K@std@@V?$allocator@U?$pair@$$CBKPAVCServerDesc@@@std@@@3@$0A@@std@@@std@@I@std@@YAXViterator@?$_Tree@V?$_Tmap_traits@KPAVCServerDesc@@U?$less@K@std@@V?$allocator@U?$pair@$$CBKPAVCServerDesc@@@std@@@3@$0A@@std@@@0@0AAIUbidirectional_iterator_tag@0@@Z 00405720 f i DPClient.obj
 0001:00004750       ??_GCDPClientArray@@UAEPAXI@Z 00405750 f i DPClient.obj
 0001:00004750       ??_ECDPClientArray@@UAEPAXI@Z 00405750 f i DPClient.obj
 0001:00004770       ?find@?$_Tree@V?$_Tmap_traits@KPAVCServerDesc@@U?$less@K@std@@V?$allocator@U?$pair@$$CBKPAVCServerDesc@@@std@@@3@$0A@@std@@@std@@QAE?AViterator@12@ABK@Z 00405770 f i DPClient.obj
 0001:000047e0       ?find@?$_Tree@V?$_Tmap_traits@KP8CDPClient@@AEXAAVCAr@@KPAXK@ZU?$less@K@std@@V?$allocator@U?$pair@$$CBKP8CDPClient@@AEXAAVCAr@@KPAXK@Z@std@@@4@$0A@@std@@@std@@QAE?AViterator@12@ABK@Z 004057e0 f i DPClient.obj
 0001:00004850       ?equal_range@?$_Tree@V?$_Tmap_traits@KPAVCServerDesc@@U?$less@K@std@@V?$allocator@U?$pair@$$CBKPAVCServerDesc@@@std@@@3@$0A@@std@@@std@@QAE?AU?$pair@Viterator@?$_Tree@V?$_Tmap_traits@KPAVCServerDesc@@U?$less@K@std@@V?$allocator@U?$pair@$$CBKPAVCServerDesc@@@std@@@3@$0A@@std@@@std@@V123@@2@ABK@Z 00405850 f i DPClient.obj
 0001:000048c0       ??Fiterator@?$_Tree@V?$_Tmap_traits@KP8CDPClient@@AEXAAVCAr@@KPAXK@ZU?$less@K@std@@V?$allocator@U?$pair@$$CBKP8CDPClient@@AEXAAVCAr@@KPAXK@Z@std@@@4@$0A@@std@@@std@@QAEAAV012@XZ 004058c0 f i DPClient.obj
 0001:000048d0       ?clear@?$_Tree@V?$_Tmap_traits@KPAVCServerDesc@@U?$less@K@std@@V?$allocator@U?$pair@$$CBKPAVCServerDesc@@@std@@@3@$0A@@std@@@std@@QAEXXZ 004058d0 f i DPClient.obj
 0001:00004900       ?_Init@?$_Tree@V?$_Tmap_traits@KP8CDPClient@@AEXAAVCAr@@KPAXK@ZU?$less@K@std@@V?$allocator@U?$pair@$$CBKP8CDPClient@@AEXAAVCAr@@KPAXK@Z@std@@@4@$0A@@std@@@std@@IAEXXZ 00405900 f i DPClient.obj
 0001:00004930       ??0?$_Tree_val@V?$_Tmap_traits@KP8CDPClient@@AEXAAVCAr@@KPAXK@ZU?$less@K@std@@V?$allocator@U?$pair@$$CBKP8CDPClient@@AEXAAVCAr@@KPAXK@Z@std@@@4@$0A@@std@@@std@@IAE@ABU?$less@K@1@V?$allocator@U?$pair@$$CBKP8CDPClient@@AEXAAVCAr@@KPAXK@Z@std@@@1@@Z 00405930 f i DPClient.obj
 0001:00004940       ??Eiterator@?$_Tree@V?$_Tmap_traits@KPAVCServerDesc@@U?$less@K@std@@V?$allocator@U?$pair@$$CBKPAVCServerDesc@@@std@@@3@$0A@@std@@@std@@QAE?AV012@H@Z 00405940 f i DPClient.obj
 0001:00004960       ?clear@?$_Tree@V?$_Tmap_traits@KP8CDPClient@@AEXAAVCAr@@KPAXK@ZU?$less@K@std@@V?$allocator@U?$pair@$$CBKP8CDPClient@@AEXAAVCAr@@KPAXK@Z@std@@@4@$0A@@std@@@std@@QAEXXZ 00405960 f i DPClient.obj
 0001:00004990       ??Eiterator@?$_Tree@V?$_Tmap_traits@KP8CDPClient@@AEXAAVCAr@@KPAXK@ZU?$less@K@std@@V?$allocator@U?$pair@$$CBKP8CDPClient@@AEXAAVCAr@@KPAXK@Z@std@@@4@$0A@@std@@@std@@QAE?AV012@H@Z 00405990 f i DPClient.obj
 0001:000049b0       ??$_Distance@Viterator@?$_Tree@V?$_Tmap_traits@KPAVCServerDesc@@U?$less@K@std@@V?$allocator@U?$pair@$$CBKPAVCServerDesc@@@std@@@3@$0A@@std@@@std@@I@std@@YAXViterator@?$_Tree@V?$_Tmap_traits@KPAVCServerDesc@@U?$less@K@std@@V?$allocator@U?$pair@$$CBKPAVCServerDesc@@@std@@@3@$0A@@std@@@0@0AAI@Z 004059b0 f i DPClient.obj
 0001:000049f0       ?GetHandler@CDPClient@@AAEP81@AEXAAVCAr@@KPAXK@ZK@Z 004059f0 f i DPClient.obj
 0001:00004a20       ?UserMessageHandler@CDPClient@@UAEXPAUDPMSG_GENERIC@@KK@Z 00405a20 f   DPClient.obj
 0001:00004b40       ??0?$_Tree@V?$_Tmap_traits@KP8CDPClient@@AEXAAVCAr@@KPAXK@ZU?$less@K@std@@V?$allocator@U?$pair@$$CBKP8CDPClient@@AEXAAVCAr@@KPAXK@Z@std@@@4@$0A@@std@@@std@@QAE@ABU?$less@K@1@ABV?$allocator@U?$pair@$$CBKP8CDPClient@@AEXAAVCAr@@KPAXK@Z@std@@@1@@Z 00405b40 f i DPClient.obj
 0001:00004b70       ?_Insert@?$_Tree@V?$_Tmap_traits@KPAVCServerDesc@@U?$less@K@std@@V?$allocator@U?$pair@$$CBKPAVCServerDesc@@@std@@@3@$0A@@std@@@std@@IAE?AViterator@12@_NPAU_Node@?$_Tree_nod@V?$_Tmap_traits@KPAVCServerDesc@@U?$less@K@std@@V?$allocator@U?$pair@$$CBKPAVCServerDesc@@@std@@@3@$0A@@std@@@2@ABU?$pair@$$CBKPAVCServerDesc@@@2@@Z 00405b70 f i DPClient.obj
 0001:00004d20       ?_Insert@?$_Tree@V?$_Tmap_traits@KP8CDPClient@@AEXAAVCAr@@KPAXK@ZU?$less@K@std@@V?$allocator@U?$pair@$$CBKP8CDPClient@@AEXAAVCAr@@KPAXK@Z@std@@@4@$0A@@std@@@std@@IAE?AViterator@12@_NPAU_Node@?$_Tree_nod@V?$_Tmap_traits@KP8CDPClient@@AEXAAVCAr@@KPAXK@ZU?$less@K@std@@V?$allocator@U?$pair@$$CBKP8CDPClient@@AEXAAVCAr@@KPAXK@Z@std@@@4@$0A@@std@@@2@ABU?$pair@$$CBKP8CDPClient@@AEXAAVCAr@@KPAXK@Z@2@@Z 00405d20 f i DPClient.obj
 0001:00004ed0       ?erase@?$_Tree@V?$_Tmap_traits@KPAVCServerDesc@@U?$less@K@std@@V?$allocator@U?$pair@$$CBKPAVCServerDesc@@@std@@@3@$0A@@std@@@std@@QAE?AViterator@12@V312@@Z 00405ed0 f i DPClient.obj
 0001:00005190       ?erase@?$_Tree@V?$_Tmap_traits@KP8CDPClient@@AEXAAVCAr@@KPAXK@ZU?$less@K@std@@V?$allocator@U?$pair@$$CBKP8CDPClient@@AEXAAVCAr@@KPAXK@Z@std@@@4@$0A@@std@@@std@@QAE?AViterator@12@V312@@Z 00406190 f i DPClient.obj
 0001:00005450       ?insert@?$_Tree@V?$_Tmap_traits@KPAVCServerDesc@@U?$less@K@std@@V?$allocator@U?$pair@$$CBKPAVCServerDesc@@@std@@@3@$0A@@std@@@std@@QAE?AU?$pair@Viterator@?$_Tree@V?$_Tmap_traits@KPAVCServerDesc@@U?$less@K@std@@V?$allocator@U?$pair@$$CBKPAVCServerDesc@@@std@@@3@$0A@@std@@@std@@_N@2@ABU?$pair@$$CBKPAVCServerDesc@@@2@@Z 00406450 f i DPClient.obj
 0001:00005510       ?insert@?$_Tree@V?$_Tmap_traits@KP8CDPClient@@AEXAAVCAr@@KPAXK@ZU?$less@K@std@@V?$allocator@U?$pair@$$CBKP8CDPClient@@AEXAAVCAr@@KPAXK@Z@std@@@4@$0A@@std@@@std@@QAE?AU?$pair@Viterator@?$_Tree@V?$_Tmap_traits@KP8CDPClient@@AEXAAVCAr@@KPAXK@ZU?$less@K@std@@V?$allocator@U?$pair@$$CBKP8CDPClient@@AEXAAVCAr@@KPAXK@Z@std@@@4@$0A@@std@@@std@@_N@2@ABU?$pair@$$CBKP8CDPClient@@AEXAAVCAr@@KPAXK@Z@2@@Z 00406510 f i DPClient.obj
 0001:000055d0       ?erase@?$_Tree@V?$_Tmap_traits@KPAVCServerDesc@@U?$less@K@std@@V?$allocator@U?$pair@$$CBKPAVCServerDesc@@@std@@@3@$0A@@std@@@std@@QAE?AViterator@12@V312@0@Z 004065d0 f i DPClient.obj
 0001:00005690       ?erase@?$_Tree@V?$_Tmap_traits@KP8CDPClient@@AEXAAVCAr@@KPAXK@ZU?$less@K@std@@V?$allocator@U?$pair@$$CBKP8CDPClient@@AEXAAVCAr@@KPAXK@Z@std@@@4@$0A@@std@@@std@@QAE?AViterator@12@V312@0@Z 00406690 f i DPClient.obj
 0001:00005750       ?erase@?$_Tree@V?$_Tmap_traits@KPAVCServerDesc@@U?$less@K@std@@V?$allocator@U?$pair@$$CBKPAVCServerDesc@@@std@@@3@$0A@@std@@@std@@QAEIABK@Z 00406750 f i DPClient.obj
 0001:000057b0       ?_Tidy@?$_Tree@V?$_Tmap_traits@KP8CDPClient@@AEXAAVCAr@@KPAXK@ZU?$less@K@std@@V?$allocator@U?$pair@$$CBKP8CDPClient@@AEXAAVCAr@@KPAXK@Z@std@@@4@$0A@@std@@@std@@IAEXXZ 004067b0 f i DPClient.obj
 0001:000057e0       ?Remove@CDPClientArray@@QAEHPAVCDPClient@@@Z 004067e0 f   DPClient.obj
 0001:00005910       ??1?$_Tree@V?$_Tmap_traits@KP8CDPClient@@AEXAAVCAr@@KPAXK@ZU?$less@K@std@@V?$allocator@U?$pair@$$CBKP8CDPClient@@AEXAAVCAr@@KPAXK@Z@std@@@4@$0A@@std@@@std@@QAE@XZ 00406910 f i DPClient.obj
 0001:00005940       ??1?$map@KP8CDPClient@@AEXAAVCAr@@KPAXK@ZU?$less@K@std@@V?$allocator@U?$pair@$$CBKP8CDPClient@@AEXAAVCAr@@KPAXK@Z@std@@@4@@std@@QAE@XZ 00406940 f i DPClient.obj
 0001:00005970       ??1CDPClient@@UAE@XZ       00406970 f   DPClient.obj
 0001:000059f0       ?SysMessageHandler@CDPClient@@UAEXPAUDPMSG_GENERIC@@KK@Z 004069f0 f   DPClient.obj
 0001:00005a10       ??0?$map@KP8CDPClient@@AEXAAVCAr@@KPAXK@ZU?$less@K@std@@V?$allocator@U?$pair@$$CBKP8CDPClient@@AEXAAVCAr@@KPAXK@Z@std@@@4@@std@@QAE@XZ 00406a10 f i DPClient.obj
 0001:00005a40       ??0CDPClient@@QAE@XZ       00406a40 f   DPClient.obj
 0001:00005ae0       ??_ECDPClient@@UAEPAXI@Z   00406ae0 f i DPClient.obj
 0001:00005ae0       ??_GCDPClient@@UAEPAXI@Z   00406ae0 f i DPClient.obj
 0001:00005b00       ?Connect@CDPClientArray@@QAEHPAVCServerDesc@@@Z 00406b00 f   DPClient.obj
 0001:00005c80       ??5CAr@@QAEAAV0@AAE@Z      00406c80 f i DPCoreClient.obj
 0001:00005cb0       ??5CAr@@QAEAAV0@AAG@Z      00406cb0 f i DPCoreClient.obj
 0001:00005cf0       ?GetPlayer@CPlayer@@QAEPBDXZ 00406cf0 f i DPCoreClient.obj
 0001:00005d00       ?SetClient@CPlayer@@QAEXPAVCDPClient@@@Z 00406d00 f i DPCoreClient.obj
 0001:00005d10       ?GetWorld@CPlayer@@QAEKXZ  00406d10 f i DPCoreClient.obj
 0001:00005d20       ?GetChannel@CPlayer@@QAEKXZ 00406d20 f i DPCoreClient.obj
 0001:00005d30       ?GetParty@CPlayer@@QAEKXZ  00406d30 f i DPCoreClient.obj
 0001:00005d40       ?GetGuild@CPlayer@@QAEKXZ  00406d40 f i DPCoreClient.obj
 0001:00005d50       ?GetWar@CPlayer@@QAEKXZ    00406d50 f i DPCoreClient.obj
 0001:00005d60       ?SysMessageHandler@CDPCoreClient@@UAEXPAUDPMSG_GENERIC@@KK@Z 00406d60 f   DPCoreClient.obj
 0001:00005d90       ?SendDestroyPlayer@CDPCoreClient@@QAEXPAVCPlayer@@@Z 00406d90 f   DPCoreClient.obj
 0001:00005e80       ?SendAddPlayer@CDPCoreClient@@QAEXPAVCPlayer@@AAVCRTMessenger@@@Z 00406e80 f   DPCoreClient.obj
 0001:00006080       ?OnProcServer@CDPCoreClient@@IAEXAAVCAr@@K@Z 00407080 f   DPCoreClient.obj
 0001:00006100       ?OnDestroyAllPlayers@CDPCoreClient@@IAEXAAVCAr@@K@Z 00407100 f   DPCoreClient.obj
 0001:00006120       ?OnKillPlayer@CDPCoreClient@@IAEXAAVCAr@@K@Z 00407120 f   DPCoreClient.obj
 0001:00006140       ?SendToServer@CDPCoreClient@@QAEXKPAXK@Z 00407140 f   DPCoreClient.obj
 0001:00006180       ??0?$pair@$$CBKP8CDPCoreClient@@AEXAAVCAr@@K@Z@std@@QAE@ABKABQ8CDPCoreClient@@AEXAAVCAr@@K@Z@Z 00407180 f i DPCoreClient.obj
 0001:000061a0       ?_Isnil@?$_Tree@V?$_Tmap_traits@KP8CDPCoreClient@@AEXAAVCAr@@K@ZU?$less@K@std@@V?$allocator@U?$pair@$$CBKP8CDPCoreClient@@AEXAAVCAr@@K@Z@std@@@4@$0A@@std@@@std@@KAAADPAU_Node@?$_Tree_nod@V?$_Tmap_traits@KP8CDPCoreClient@@AEXAAVCAr@@K@ZU?$less@K@std@@V?$allocator@U?$pair@$$CBKP8CDPCoreClient@@AEXAAVCAr@@K@Z@std@@@4@$0A@@std@@@2@@Z 004071a0 f i DPCoreClient.obj
 0001:000061b0       ?_Left@?$_Tree@V?$_Tmap_traits@KP8CDPCoreClient@@AEXAAVCAr@@K@ZU?$less@K@std@@V?$allocator@U?$pair@$$CBKP8CDPCoreClient@@AEXAAVCAr@@K@Z@std@@@4@$0A@@std@@@std@@KAAAPAU_Node@?$_Tree_nod@V?$_Tmap_traits@KP8CDPCoreClient@@AEXAAVCAr@@K@ZU?$less@K@std@@V?$allocator@U?$pair@$$CBKP8CDPCoreClient@@AEXAAVCAr@@K@Z@std@@@4@$0A@@std@@@2@PAU342@@Z 004071b0 f i DPCoreClient.obj
 0001:000061c0       ?_Right@?$_Tree@V?$_Tmap_traits@KP8CDPCoreClient@@AEXAAVCAr@@K@ZU?$less@K@std@@V?$allocator@U?$pair@$$CBKP8CDPCoreClient@@AEXAAVCAr@@K@Z@std@@@4@$0A@@std@@@std@@KAAAPAU_Node@?$_Tree_nod@V?$_Tmap_traits@KP8CDPCoreClient@@AEXAAVCAr@@K@ZU?$less@K@std@@V?$allocator@U?$pair@$$CBKP8CDPCoreClient@@AEXAAVCAr@@K@Z@std@@@4@$0A@@std@@@2@PAU342@@Z 004071c0 f i DPCoreClient.obj
 0001:000061d0       ?_Kfn@?$_Tmap_traits@KP8CDPCoreClient@@AEXAAVCAr@@K@ZU?$less@K@std@@V?$allocator@U?$pair@$$CBKP8CDPCoreClient@@AEXAAVCAr@@K@Z@std@@@4@$0A@@std@@SAABKABU?$pair@$$CBKP8CDPCoreClient@@AEXAAVCAr@@K@Z@2@@Z 004071d0 f i DPCoreClient.obj
 0001:000061e0       ??0?$allocator@U?$pair@$$CBKP8CDPCoreClient@@AEXAAVCAr@@K@Z@std@@@std@@QAE@XZ 004071e0 f i DPCoreClient.obj
 0001:000061f0       ??8const_iterator@?$_Tree@V?$_Tmap_traits@KP8CDPCoreClient@@AEXAAVCAr@@K@ZU?$less@K@std@@V?$allocator@U?$pair@$$CBKP8CDPCoreClient@@AEXAAVCAr@@K@Z@std@@@4@$0A@@std@@@std@@QBE_NABV012@@Z 004071f0 f i DPCoreClient.obj
 0001:00006200       ?_Mynode@const_iterator@?$_Tree@V?$_Tmap_traits@KP8CDPCoreClient@@AEXAAVCAr@@K@ZU?$less@K@std@@V?$allocator@U?$pair@$$CBKP8CDPCoreClient@@AEXAAVCAr@@K@Z@std@@@4@$0A@@std@@@std@@QBEPAU_Node@?$_Tree_nod@V?$_Tmap_traits@KP8CDPCoreClient@@AEXAAVCAr@@K@ZU?$less@K@std@@V?$allocator@U?$pair@$$CBKP8CDPCoreClient@@AEXAAVCAr@@K@Z@std@@@4@$0A@@std@@@3@XZ 00407200 f i DPCoreClient.obj
 0001:00006210       ??0?$pair@Viterator@?$_Tree@V?$_Tmap_traits@KP8CDPCoreClient@@AEXAAVCAr@@K@ZU?$less@K@std@@V?$allocator@U?$pair@$$CBKP8CDPCoreClient@@AEXAAVCAr@@K@Z@std@@@4@$0A@@std@@@std@@_N@std@@QAE@ABViterator@?$_Tree@V?$_Tmap_traits@KP8CDPCoreClient@@AEXAAVCAr@@K@ZU?$less@K@std@@V?$allocator@U?$pair@$$CBKP8CDPCoreClient@@AEXAAVCAr@@K@Z@std@@@4@$0A@@std@@@1@AB_N@Z 00407210 f i DPCoreClient.obj
 0001:00006230       ?_Color@?$_Tree@V?$_Tmap_traits@KP8CDPCoreClient@@AEXAAVCAr@@K@ZU?$less@K@std@@V?$allocator@U?$pair@$$CBKP8CDPCoreClient@@AEXAAVCAr@@K@Z@std@@@4@$0A@@std@@@std@@KAAADPAU_Node@?$_Tree_nod@V?$_Tmap_traits@KP8CDPCoreClient@@AEXAAVCAr@@K@ZU?$less@K@std@@V?$allocator@U?$pair@$$CBKP8CDPCoreClient@@AEXAAVCAr@@K@Z@std@@@4@$0A@@std@@@2@@Z 00407230 f i DPCoreClient.obj
 0001:00006240       ?_Parent@?$_Tree@V?$_Tmap_traits@KP8CDPCoreClient@@AEXAAVCAr@@K@ZU?$less@K@std@@V?$allocator@U?$pair@$$CBKP8CDPCoreClient@@AEXAAVCAr@@K@Z@std@@@4@$0A@@std@@@std@@KAAAPAU_Node@?$_Tree_nod@V?$_Tmap_traits@KP8CDPCoreClient@@AEXAAVCAr@@K@ZU?$less@K@std@@V?$allocator@U?$pair@$$CBKP8CDPCoreClient@@AEXAAVCAr@@K@Z@std@@@4@$0A@@std@@@2@PAU342@@Z 00407240 f i DPCoreClient.obj
 0001:00006250       ?_Myval@?$_Tree@V?$_Tmap_traits@KP8CDPCoreClient@@AEXAAVCAr@@K@ZU?$less@K@std@@V?$allocator@U?$pair@$$CBKP8CDPCoreClient@@AEXAAVCAr@@K@Z@std@@@4@$0A@@std@@@std@@KAAAU?$pair@$$CBKP8CDPCoreClient@@AEXAAVCAr@@K@Z@2@PAU_Node@?$_Tree_nod@V?$_Tmap_traits@KP8CDPCoreClient@@AEXAAVCAr@@K@ZU?$less@K@std@@V?$allocator@U?$pair@$$CBKP8CDPCoreClient@@AEXAAVCAr@@K@Z@std@@@4@$0A@@std@@@2@@Z 00407250 f i DPCoreClient.obj
 0001:00006260       ?_Lmost@?$_Tree@V?$_Tmap_traits@KP8CDPCoreClient@@AEXAAVCAr@@K@ZU?$less@K@std@@V?$allocator@U?$pair@$$CBKP8CDPCoreClient@@AEXAAVCAr@@K@Z@std@@@4@$0A@@std@@@std@@IAEAAPAU_Node@?$_Tree_nod@V?$_Tmap_traits@KP8CDPCoreClient@@AEXAAVCAr@@K@ZU?$less@K@std@@V?$allocator@U?$pair@$$CBKP8CDPCoreClient@@AEXAAVCAr@@K@Z@std@@@4@$0A@@std@@@2@XZ 00407260 f i DPCoreClient.obj
 0001:00006270       ?_Rmost@?$_Tree@V?$_Tmap_traits@KP8CDPCoreClient@@AEXAAVCAr@@K@ZU?$less@K@std@@V?$allocator@U?$pair@$$CBKP8CDPCoreClient@@AEXAAVCAr@@K@Z@std@@@4@$0A@@std@@@std@@IAEAAPAU_Node@?$_Tree_nod@V?$_Tmap_traits@KP8CDPCoreClient@@AEXAAVCAr@@K@ZU?$less@K@std@@V?$allocator@U?$pair@$$CBKP8CDPCoreClient@@AEXAAVCAr@@K@Z@std@@@4@$0A@@std@@@2@XZ 00407270 f i DPCoreClient.obj
 0001:00006280       ??0?$allocator@U?$pair@$$CBKP8CDPCoreClient@@AEXAAVCAr@@K@Z@std@@@std@@QAE@ABV01@@Z 00407280 f i DPCoreClient.obj
 0001:00006290       ?deallocate@?$allocator@U_Node@?$_Tree_nod@V?$_Tmap_traits@KP8CDPCoreClient@@AEXAAVCAr@@K@ZU?$less@K@std@@V?$allocator@U?$pair@$$CBKP8CDPCoreClient@@AEXAAVCAr@@K@Z@std@@@4@$0A@@std@@@std@@@std@@QAEXPAU_Node@?$_Tree_nod@V?$_Tmap_traits@KP8CDPCoreClient@@AEXAAVCAr@@K@ZU?$less@K@std@@V?$allocator@U?$pair@$$CBKP8CDPCoreClient@@AEXAAVCAr@@K@Z@std@@@4@$0A@@std@@@2@I@Z 00407290 f i DPCoreClient.obj
 0001:000062a0       ??0const_iterator@?$_Tree@V?$_Tmap_traits@KP8CDPCoreClient@@AEXAAVCAr@@K@ZU?$less@K@std@@V?$allocator@U?$pair@$$CBKP8CDPCoreClient@@AEXAAVCAr@@K@Z@std@@@4@$0A@@std@@@std@@QAE@PAU_Node@?$_Tree_nod@V?$_Tmap_traits@KP8CDPCoreClient@@AEXAAVCAr@@K@ZU?$less@K@std@@V?$allocator@U?$pair@$$CBKP8CDPCoreClient@@AEXAAVCAr@@K@Z@std@@@4@$0A@@std@@@2@@Z 004072a0 f i DPCoreClient.obj
 0001:000062b0       ??Dconst_iterator@?$_Tree@V?$_Tmap_traits@KP8CDPCoreClient@@AEXAAVCAr@@K@ZU?$less@K@std@@V?$allocator@U?$pair@$$CBKP8CDPCoreClient@@AEXAAVCAr@@K@Z@std@@@4@$0A@@std@@@std@@QBEABU?$pair@$$CBKP8CDPCoreClient@@AEXAAVCAr@@K@Z@2@XZ 004072b0 f i DPCoreClient.obj
 0001:000062c0       ?_Root@?$_Tree@V?$_Tmap_traits@KP8CDPCoreClient@@AEXAAVCAr@@K@ZU?$less@K@std@@V?$allocator@U?$pair@$$CBKP8CDPCoreClient@@AEXAAVCAr@@K@Z@std@@@4@$0A@@std@@@std@@IBEAAPAU_Node@?$_Tree_nod@V?$_Tmap_traits@KP8CDPCoreClient@@AEXAAVCAr@@K@ZU?$less@K@std@@V?$allocator@U?$pair@$$CBKP8CDPCoreClient@@AEXAAVCAr@@K@Z@std@@@4@$0A@@std@@@2@XZ 004072c0 f i DPCoreClient.obj
 0001:000062d0       ?max_size@?$allocator@U?$pair@$$CBKP8CDPCoreClient@@AEXAAVCAr@@K@Z@std@@@std@@QBEIXZ 004072d0 f i DPCoreClient.obj
 0001:000062e0       ??0_Node@?$_Tree_nod@V?$_Tmap_traits@KP8CDPCoreClient@@AEXAAVCAr@@K@ZU?$less@K@std@@V?$allocator@U?$pair@$$CBKP8CDPCoreClient@@AEXAAVCAr@@K@Z@std@@@4@$0A@@std@@@std@@QAE@PAU012@00ABU?$pair@$$CBKP8CDPCoreClient@@AEXAAVCAr@@K@Z@2@D@Z 004072e0 f i DPCoreClient.obj
 0001:00006320       ?_Max@?$_Tree@V?$_Tmap_traits@KP8CDPCoreClient@@AEXAAVCAr@@K@ZU?$less@K@std@@V?$allocator@U?$pair@$$CBKP8CDPCoreClient@@AEXAAVCAr@@K@Z@std@@@4@$0A@@std@@@std@@KAPAU_Node@?$_Tree_nod@V?$_Tmap_traits@KP8CDPCoreClient@@AEXAAVCAr@@K@ZU?$less@K@std@@V?$allocator@U?$pair@$$CBKP8CDPCoreClient@@AEXAAVCAr@@K@Z@std@@@4@$0A@@std@@@2@PAU342@@Z 00407320 f i DPCoreClient.obj
 0001:00006340       ?_Min@?$_Tree@V?$_Tmap_traits@KP8CDPCoreClient@@AEXAAVCAr@@K@ZU?$less@K@std@@V?$allocator@U?$pair@$$CBKP8CDPCoreClient@@AEXAAVCAr@@K@Z@std@@@4@$0A@@std@@@std@@KAPAU_Node@?$_Tree_nod@V?$_Tmap_traits@KP8CDPCoreClient@@AEXAAVCAr@@K@ZU?$less@K@std@@V?$allocator@U?$pair@$$CBKP8CDPCoreClient@@AEXAAVCAr@@K@Z@std@@@4@$0A@@std@@@2@PAU342@@Z 00407340 f i DPCoreClient.obj
 0001:00006360       ??0?$_Tmap_traits@KP8CDPCoreClient@@AEXAAVCAr@@K@ZU?$less@K@std@@V?$allocator@U?$pair@$$CBKP8CDPCoreClient@@AEXAAVCAr@@K@Z@std@@@4@$0A@@std@@QAE@U?$less@K@1@@Z 00407360 f i DPCoreClient.obj
 0001:00006370       ?_Inc@const_iterator@?$_Tree@V?$_Tmap_traits@KP8CDPCoreClient@@AEXAAVCAr@@K@ZU?$less@K@std@@V?$allocator@U?$pair@$$CBKP8CDPCoreClient@@AEXAAVCAr@@K@Z@std@@@4@$0A@@std@@@std@@QAEXXZ 00407370 f i DPCoreClient.obj
 0001:000063d0       ??$_Destroy@PAU_Node@?$_Tree_nod@V?$_Tmap_traits@KP8CDPCoreClient@@AEXAAVCAr@@K@ZU?$less@K@std@@V?$allocator@U?$pair@$$CBKP8CDPCoreClient@@AEXAAVCAr@@K@Z@std@@@4@$0A@@std@@@std@@@std@@YAXPAPAU_Node@?$_Tree_nod@V?$_Tmap_traits@KP8CDPCoreClient@@AEXAAVCAr@@K@ZU?$less@K@std@@V?$allocator@U?$pair@$$CBKP8CDPCoreClient@@AEXAAVCAr@@K@Z@std@@@4@$0A@@std@@@0@@Z 004073d0 f i DPCoreClient.obj
 0001:000063e0       ??$?0U?$pair@$$CBKP8CDPCoreClient@@AEXAAVCAr@@K@Z@std@@@?$allocator@PAU_Node@?$_Tree_nod@V?$_Tmap_traits@KP8CDPCoreClient@@AEXAAVCAr@@K@ZU?$less@K@std@@V?$allocator@U?$pair@$$CBKP8CDPCoreClient@@AEXAAVCAr@@K@Z@std@@@4@$0A@@std@@@std@@@std@@QAE@ABV?$allocator@U?$pair@$$CBKP8CDPCoreClient@@AEXAAVCAr@@K@Z@std@@@1@@Z 004073e0 f i DPCoreClient.obj
 0001:000063f0       ??$_Allocate@U_Node@?$_Tree_nod@V?$_Tmap_traits@KP8CDPCoreClient@@AEXAAVCAr@@K@ZU?$less@K@std@@V?$allocator@U?$pair@$$CBKP8CDPCoreClient@@AEXAAVCAr@@K@Z@std@@@4@$0A@@std@@@std@@@std@@YAPAU_Node@?$_Tree_nod@V?$_Tmap_traits@KP8CDPCoreClient@@AEXAAVCAr@@K@ZU?$less@K@std@@V?$allocator@U?$pair@$$CBKP8CDPCoreClient@@AEXAAVCAr@@K@Z@std@@@4@$0A@@std@@@0@IPAU120@@Z 004073f0 f i DPCoreClient.obj
 0001:00006410       ??$?0U?$pair@$$CBKP8CDPCoreClient@@AEXAAVCAr@@K@Z@std@@@?$allocator@U_Node@?$_Tree_nod@V?$_Tmap_traits@KP8CDPCoreClient@@AEXAAVCAr@@K@ZU?$less@K@std@@V?$allocator@U?$pair@$$CBKP8CDPCoreClient@@AEXAAVCAr@@K@Z@std@@@4@$0A@@std@@@std@@@std@@QAE@ABV?$allocator@U?$pair@$$CBKP8CDPCoreClient@@AEXAAVCAr@@K@Z@std@@@1@@Z 00407410 f i DPCoreClient.obj
 0001:00006420       ??$_Destroy@U_Node@?$_Tree_nod@V?$_Tmap_traits@KP8CDPCoreClient@@AEXAAVCAr@@K@ZU?$less@K@std@@V?$allocator@U?$pair@$$CBKP8CDPCoreClient@@AEXAAVCAr@@K@Z@std@@@4@$0A@@std@@@std@@@std@@YAXPAU_Node@?$_Tree_nod@V?$_Tmap_traits@KP8CDPCoreClient@@AEXAAVCAr@@K@ZU?$less@K@std@@V?$allocator@U?$pair@$$CBKP8CDPCoreClient@@AEXAAVCAr@@K@Z@std@@@4@$0A@@std@@@0@@Z 00407420 f i DPCoreClient.obj
 0001:00006430       ??$_Construct@PAU_Node@?$_Tree_nod@V?$_Tmap_traits@KP8CDPCoreClient@@AEXAAVCAr@@K@ZU?$less@K@std@@V?$allocator@U?$pair@$$CBKP8CDPCoreClient@@AEXAAVCAr@@K@Z@std@@@4@$0A@@std@@@std@@PAU123@@std@@YAXPAPAU_Node@?$_Tree_nod@V?$_Tmap_traits@KP8CDPCoreClient@@AEXAAVCAr@@K@ZU?$less@K@std@@V?$allocator@U?$pair@$$CBKP8CDPCoreClient@@AEXAAVCAr@@K@Z@std@@@4@$0A@@std@@@0@ABQAU120@@Z 00407430 f i DPCoreClient.obj
 0001:00006450       ??0D3DXVECTOR3@@QAE@MMM@Z  00407450 f i DPCoreClient.obj
 0001:00006470       ??5CAr@@QAEAAV0@AAF@Z      00407470 f i DPCoreClient.obj
 0001:000064b0       ?OnProcServerList@CDPCoreClient@@IAEXAAVCAr@@K@Z 004074b0 f   DPCoreClient.obj
 0001:00006570       ?OnJoin@CDPCoreClient@@IAEXAAVCAr@@K@Z 00407570 f   DPCoreClient.obj
 0001:00006690       ?OnLeave@CDPCoreClient@@IAEXAAVCAr@@K@Z 00407690 f   DPCoreClient.obj
 0001:00006720       ??9const_iterator@?$_Tree@V?$_Tmap_traits@KP8CDPCoreClient@@AEXAAVCAr@@K@ZU?$less@K@std@@V?$allocator@U?$pair@$$CBKP8CDPCoreClient@@AEXAAVCAr@@K@Z@std@@@4@$0A@@std@@@std@@QBE_NABV012@@Z 00407720 f i DPCoreClient.obj
 0001:00006740       ?_Key@?$_Tree@V?$_Tmap_traits@KP8CDPCoreClient@@AEXAAVCAr@@K@ZU?$less@K@std@@V?$allocator@U?$pair@$$CBKP8CDPCoreClient@@AEXAAVCAr@@K@Z@std@@@4@$0A@@std@@@std@@KAABKPAU_Node@?$_Tree_nod@V?$_Tmap_traits@KP8CDPCoreClient@@AEXAAVCAr@@K@ZU?$less@K@std@@V?$allocator@U?$pair@$$CBKP8CDPCoreClient@@AEXAAVCAr@@K@Z@std@@@4@$0A@@std@@@2@@Z 00407740 f i DPCoreClient.obj
 0001:00006750       ?_Root@?$_Tree@V?$_Tmap_traits@KP8CDPCoreClient@@AEXAAVCAr@@K@ZU?$less@K@std@@V?$allocator@U?$pair@$$CBKP8CDPCoreClient@@AEXAAVCAr@@K@Z@std@@@4@$0A@@std@@@std@@IAEAAPAU_Node@?$_Tree_nod@V?$_Tmap_traits@KP8CDPCoreClient@@AEXAAVCAr@@K@ZU?$less@K@std@@V?$allocator@U?$pair@$$CBKP8CDPCoreClient@@AEXAAVCAr@@K@Z@std@@@4@$0A@@std@@@2@XZ 00407750 f i DPCoreClient.obj
 0001:00006760       ??0iterator@?$_Tree@V?$_Tmap_traits@KP8CDPCoreClient@@AEXAAVCAr@@K@ZU?$less@K@std@@V?$allocator@U?$pair@$$CBKP8CDPCoreClient@@AEXAAVCAr@@K@Z@std@@@4@$0A@@std@@@std@@QAE@PAU_Node@?$_Tree_nod@V?$_Tmap_traits@KP8CDPCoreClient@@AEXAAVCAr@@K@ZU?$less@K@std@@V?$allocator@U?$pair@$$CBKP8CDPCoreClient@@AEXAAVCAr@@K@Z@std@@@4@$0A@@std@@@2@@Z 00407760 f i DPCoreClient.obj
 0001:00006770       ??Diterator@?$_Tree@V?$_Tmap_traits@KP8CDPCoreClient@@AEXAAVCAr@@K@ZU?$less@K@std@@V?$allocator@U?$pair@$$CBKP8CDPCoreClient@@AEXAAVCAr@@K@Z@std@@@4@$0A@@std@@@std@@QBEAAU?$pair@$$CBKP8CDPCoreClient@@AEXAAVCAr@@K@Z@2@XZ 00407770 f i DPCoreClient.obj
 0001:00006780       ?max_size@?$_Tree@V?$_Tmap_traits@KP8CDPCoreClient@@AEXAAVCAr@@K@ZU?$less@K@std@@V?$allocator@U?$pair@$$CBKP8CDPCoreClient@@AEXAAVCAr@@K@Z@std@@@4@$0A@@std@@@std@@QBEIXZ 00407780 f i DPCoreClient.obj
 0001:00006790       ?_Lbound@?$_Tree@V?$_Tmap_traits@KP8CDPCoreClient@@AEXAAVCAr@@K@ZU?$less@K@std@@V?$allocator@U?$pair@$$CBKP8CDPCoreClient@@AEXAAVCAr@@K@Z@std@@@4@$0A@@std@@@std@@IBEPAU_Node@?$_Tree_nod@V?$_Tmap_traits@KP8CDPCoreClient@@AEXAAVCAr@@K@ZU?$less@K@std@@V?$allocator@U?$pair@$$CBKP8CDPCoreClient@@AEXAAVCAr@@K@Z@std@@@4@$0A@@std@@@2@ABK@Z 00407790 f i DPCoreClient.obj
 0001:000067c0       ?_Lrotate@?$_Tree@V?$_Tmap_traits@KP8CDPCoreClient@@AEXAAVCAr@@K@ZU?$less@K@std@@V?$allocator@U?$pair@$$CBKP8CDPCoreClient@@AEXAAVCAr@@K@Z@std@@@4@$0A@@std@@@std@@IAEXPAU_Node@?$_Tree_nod@V?$_Tmap_traits@KP8CDPCoreClient@@AEXAAVCAr@@K@ZU?$less@K@std@@V?$allocator@U?$pair@$$CBKP8CDPCoreClient@@AEXAAVCAr@@K@Z@std@@@4@$0A@@std@@@2@@Z 004077c0 f i DPCoreClient.obj
 0001:00006820       ?_Rrotate@?$_Tree@V?$_Tmap_traits@KP8CDPCoreClient@@AEXAAVCAr@@K@ZU?$less@K@std@@V?$allocator@U?$pair@$$CBKP8CDPCoreClient@@AEXAAVCAr@@K@Z@std@@@4@$0A@@std@@@std@@IAEXPAU_Node@?$_Tree_nod@V?$_Tmap_traits@KP8CDPCoreClient@@AEXAAVCAr@@K@ZU?$less@K@std@@V?$allocator@U?$pair@$$CBKP8CDPCoreClient@@AEXAAVCAr@@K@Z@std@@@4@$0A@@std@@@2@@Z 00407820 f i DPCoreClient.obj
 0001:00006880       ?destroy@?$allocator@PAU_Node@?$_Tree_nod@V?$_Tmap_traits@KP8CDPCoreClient@@AEXAAVCAr@@K@ZU?$less@K@std@@V?$allocator@U?$pair@$$CBKP8CDPCoreClient@@AEXAAVCAr@@K@Z@std@@@4@$0A@@std@@@std@@@std@@QAEXPAPAU_Node@?$_Tree_nod@V?$_Tmap_traits@KP8CDPCoreClient@@AEXAAVCAr@@K@ZU?$less@K@std@@V?$allocator@U?$pair@$$CBKP8CDPCoreClient@@AEXAAVCAr@@K@Z@std@@@4@$0A@@std@@@2@@Z 00407880 f i DPCoreClient.obj
 0001:00006890       ?allocate@?$allocator@U_Node@?$_Tree_nod@V?$_Tmap_traits@KP8CDPCoreClient@@AEXAAVCAr@@K@ZU?$less@K@std@@V?$allocator@U?$pair@$$CBKP8CDPCoreClient@@AEXAAVCAr@@K@Z@std@@@4@$0A@@std@@@std@@@std@@QAEPAU_Node@?$_Tree_nod@V?$_Tmap_traits@KP8CDPCoreClient@@AEXAAVCAr@@K@ZU?$less@K@std@@V?$allocator@U?$pair@$$CBKP8CDPCoreClient@@AEXAAVCAr@@K@Z@std@@@4@$0A@@std@@@2@I@Z 00407890 f i DPCoreClient.obj
 0001:000068b0       ?_Dec@const_iterator@?$_Tree@V?$_Tmap_traits@KP8CDPCoreClient@@AEXAAVCAr@@K@ZU?$less@K@std@@V?$allocator@U?$pair@$$CBKP8CDPCoreClient@@AEXAAVCAr@@K@Z@std@@@4@$0A@@std@@@std@@QAEXXZ 004078b0 f i DPCoreClient.obj
 0001:00006910       ??0?$_Tree_nod@V?$_Tmap_traits@KP8CDPCoreClient@@AEXAAVCAr@@K@ZU?$less@K@std@@V?$allocator@U?$pair@$$CBKP8CDPCoreClient@@AEXAAVCAr@@K@Z@std@@@4@$0A@@std@@@std@@IAE@ABU?$less@K@1@V?$allocator@U?$pair@$$CBKP8CDPCoreClient@@AEXAAVCAr@@K@Z@std@@@1@@Z 00407910 f i DPCoreClient.obj
 0001:00006920       ?destroy@?$allocator@U_Node@?$_Tree_nod@V?$_Tmap_traits@KP8CDPCoreClient@@AEXAAVCAr@@K@ZU?$less@K@std@@V?$allocator@U?$pair@$$CBKP8CDPCoreClient@@AEXAAVCAr@@K@Z@std@@@4@$0A@@std@@@std@@@std@@QAEXPAU_Node@?$_Tree_nod@V?$_Tmap_traits@KP8CDPCoreClient@@AEXAAVCAr@@K@ZU?$less@K@std@@V?$allocator@U?$pair@$$CBKP8CDPCoreClient@@AEXAAVCAr@@K@Z@std@@@4@$0A@@std@@@2@@Z 00407920 f i DPCoreClient.obj
 0001:00006930       ?construct@?$allocator@PAU_Node@?$_Tree_nod@V?$_Tmap_traits@KP8CDPCoreClient@@AEXAAVCAr@@K@ZU?$less@K@std@@V?$allocator@U?$pair@$$CBKP8CDPCoreClient@@AEXAAVCAr@@K@Z@std@@@4@$0A@@std@@@std@@@std@@QAEXPAPAU_Node@?$_Tree_nod@V?$_Tmap_traits@KP8CDPCoreClient@@AEXAAVCAr@@K@ZU?$less@K@std@@V?$allocator@U?$pair@$$CBKP8CDPCoreClient@@AEXAAVCAr@@K@Z@std@@@4@$0A@@std@@@2@ABQAU342@@Z 00407930 f i DPCoreClient.obj
 0001:00006950       ??Econst_iterator@?$_Tree@V?$_Tmap_traits@KP8CDPCoreClient@@AEXAAVCAr@@K@ZU?$less@K@std@@V?$allocator@U?$pair@$$CBKP8CDPCoreClient@@AEXAAVCAr@@K@Z@std@@@4@$0A@@std@@@std@@QAEAAV012@XZ 00407950 f i DPCoreClient.obj
 0001:00006960       ?end@?$_Tree@V?$_Tmap_traits@KP8CDPCoreClient@@AEXAAVCAr@@K@ZU?$less@K@std@@V?$allocator@U?$pair@$$CBKP8CDPCoreClient@@AEXAAVCAr@@K@Z@std@@@4@$0A@@std@@@std@@QAE?AViterator@12@XZ 00407960 f i DPCoreClient.obj
 0001:00006970       ??Citerator@?$_Tree@V?$_Tmap_traits@KP8CDPCoreClient@@AEXAAVCAr@@K@ZU?$less@K@std@@V?$allocator@U?$pair@$$CBKP8CDPCoreClient@@AEXAAVCAr@@K@Z@std@@@4@$0A@@std@@@std@@QBEPAU?$pair@$$CBKP8CDPCoreClient@@AEXAAVCAr@@K@Z@2@XZ 00407970 f i DPCoreClient.obj
 0001:00006980       ?begin@?$_Tree@V?$_Tmap_traits@KP8CDPCoreClient@@AEXAAVCAr@@K@ZU?$less@K@std@@V?$allocator@U?$pair@$$CBKP8CDPCoreClient@@AEXAAVCAr@@K@Z@std@@@4@$0A@@std@@@std@@QAE?AViterator@12@XZ 00407980 f i DPCoreClient.obj
 0001:00006990       ?lower_bound@?$_Tree@V?$_Tmap_traits@KP8CDPCoreClient@@AEXAAVCAr@@K@ZU?$less@K@std@@V?$allocator@U?$pair@$$CBKP8CDPCoreClient@@AEXAAVCAr@@K@Z@std@@@4@$0A@@std@@@std@@QAE?AViterator@12@ABK@Z 00407990 f i DPCoreClient.obj
 0001:000069d0       ?_Buynode@?$_Tree@V?$_Tmap_traits@KP8CDPCoreClient@@AEXAAVCAr@@K@ZU?$less@K@std@@V?$allocator@U?$pair@$$CBKP8CDPCoreClient@@AEXAAVCAr@@K@Z@std@@@4@$0A@@std@@@std@@IAEPAU_Node@?$_Tree_nod@V?$_Tmap_traits@KP8CDPCoreClient@@AEXAAVCAr@@K@ZU?$less@K@std@@V?$allocator@U?$pair@$$CBKP8CDPCoreClient@@AEXAAVCAr@@K@Z@std@@@4@$0A@@std@@@2@PAU342@00ABU?$pair@$$CBKP8CDPCoreClient@@AEXAAVCAr@@K@Z@2@D@Z 004079d0 f i DPCoreClient.obj
 0001:00006a10       ??Fconst_iterator@?$_Tree@V?$_Tmap_traits@KP8CDPCoreClient@@AEXAAVCAr@@K@ZU?$less@K@std@@V?$allocator@U?$pair@$$CBKP8CDPCoreClient@@AEXAAVCAr@@K@Z@std@@@4@$0A@@std@@@std@@QAEAAV012@XZ 00407a10 f i DPCoreClient.obj
 0001:00006a20       ?_Buynode@?$_Tree@V?$_Tmap_traits@KP8CDPCoreClient@@AEXAAVCAr@@K@ZU?$less@K@std@@V?$allocator@U?$pair@$$CBKP8CDPCoreClient@@AEXAAVCAr@@K@Z@std@@@4@$0A@@std@@@std@@IAEPAU_Node@?$_Tree_nod@V?$_Tmap_traits@KP8CDPCoreClient@@AEXAAVCAr@@K@ZU?$less@K@std@@V?$allocator@U?$pair@$$CBKP8CDPCoreClient@@AEXAAVCAr@@K@Z@std@@@4@$0A@@std@@@2@XZ 00407a20 f i DPCoreClient.obj
 0001:00006a60       ??0?$_Tree_ptr@V?$_Tmap_traits@KP8CDPCoreClient@@AEXAAVCAr@@K@ZU?$less@K@std@@V?$allocator@U?$pair@$$CBKP8CDPCoreClient@@AEXAAVCAr@@K@Z@std@@@4@$0A@@std@@@std@@IAE@ABU?$less@K@1@V?$allocator@U?$pair@$$CBKP8CDPCoreClient@@AEXAAVCAr@@K@Z@std@@@1@@Z 00407a60 f i DPCoreClient.obj
 0001:00006a70       ?_Erase@?$_Tree@V?$_Tmap_traits@KP8CDPCoreClient@@AEXAAVCAr@@K@ZU?$less@K@std@@V?$allocator@U?$pair@$$CBKP8CDPCoreClient@@AEXAAVCAr@@K@Z@std@@@4@$0A@@std@@@std@@IAEXPAU_Node@?$_Tree_nod@V?$_Tmap_traits@KP8CDPCoreClient@@AEXAAVCAr@@K@ZU?$less@K@std@@V?$allocator@U?$pair@$$CBKP8CDPCoreClient@@AEXAAVCAr@@K@Z@std@@@4@$0A@@std@@@2@@Z 00407a70 f i DPCoreClient.obj
 0001:00006ab0       ??Eiterator@?$_Tree@V?$_Tmap_traits@KP8CDPCoreClient@@AEXAAVCAr@@K@ZU?$less@K@std@@V?$allocator@U?$pair@$$CBKP8CDPCoreClient@@AEXAAVCAr@@K@Z@std@@@4@$0A@@std@@@std@@QAEAAV012@XZ 00407ab0 f i DPCoreClient.obj
 0001:00006ac0       ?find@?$_Tree@V?$_Tmap_traits@KP8CDPCoreClient@@AEXAAVCAr@@K@ZU?$less@K@std@@V?$allocator@U?$pair@$$CBKP8CDPCoreClient@@AEXAAVCAr@@K@Z@std@@@4@$0A@@std@@@std@@QAE?AViterator@12@ABK@Z 00407ac0 f i DPCoreClient.obj
 0001:00006b30       ??Fiterator@?$_Tree@V?$_Tmap_traits@KP8CDPCoreClient@@AEXAAVCAr@@K@ZU?$less@K@std@@V?$allocator@U?$pair@$$CBKP8CDPCoreClient@@AEXAAVCAr@@K@Z@std@@@4@$0A@@std@@@std@@QAEAAV012@XZ 00407b30 f i DPCoreClient.obj
 0001:00006b40       ?_Init@?$_Tree@V?$_Tmap_traits@KP8CDPCoreClient@@AEXAAVCAr@@K@ZU?$less@K@std@@V?$allocator@U?$pair@$$CBKP8CDPCoreClient@@AEXAAVCAr@@K@Z@std@@@4@$0A@@std@@@std@@IAEXXZ 00407b40 f i DPCoreClient.obj
 0001:00006b70       ??0?$_Tree_val@V?$_Tmap_traits@KP8CDPCoreClient@@AEXAAVCAr@@K@ZU?$less@K@std@@V?$allocator@U?$pair@$$CBKP8CDPCoreClient@@AEXAAVCAr@@K@Z@std@@@4@$0A@@std@@@std@@IAE@ABU?$less@K@1@V?$allocator@U?$pair@$$CBKP8CDPCoreClient@@AEXAAVCAr@@K@Z@std@@@1@@Z 00407b70 f i DPCoreClient.obj
 0001:00006b80       ?clear@?$_Tree@V?$_Tmap_traits@KP8CDPCoreClient@@AEXAAVCAr@@K@ZU?$less@K@std@@V?$allocator@U?$pair@$$CBKP8CDPCoreClient@@AEXAAVCAr@@K@Z@std@@@4@$0A@@std@@@std@@QAEXXZ 00407b80 f i DPCoreClient.obj
 0001:00006bb0       ??Eiterator@?$_Tree@V?$_Tmap_traits@KP8CDPCoreClient@@AEXAAVCAr@@K@ZU?$less@K@std@@V?$allocator@U?$pair@$$CBKP8CDPCoreClient@@AEXAAVCAr@@K@Z@std@@@4@$0A@@std@@@std@@QAE?AV012@H@Z 00407bb0 f i DPCoreClient.obj
 0001:00006bd0       ?GetHandler@CDPCoreClient@@AAEP81@AEXAAVCAr@@K@ZK@Z 00407bd0 f i DPCoreClient.obj
 0001:00006c00       ?UserMessageHandler@CDPCoreClient@@UAEXPAUDPMSG_GENERIC@@KK@Z 00407c00 f   DPCoreClient.obj
 0001:00006d90       ??0?$_Tree@V?$_Tmap_traits@KP8CDPCoreClient@@AEXAAVCAr@@K@ZU?$less@K@std@@V?$allocator@U?$pair@$$CBKP8CDPCoreClient@@AEXAAVCAr@@K@Z@std@@@4@$0A@@std@@@std@@QAE@ABU?$less@K@1@ABV?$allocator@U?$pair@$$CBKP8CDPCoreClient@@AEXAAVCAr@@K@Z@std@@@1@@Z 00407d90 f i DPCoreClient.obj
 0001:00006dc0       ?_Insert@?$_Tree@V?$_Tmap_traits@KP8CDPCoreClient@@AEXAAVCAr@@K@ZU?$less@K@std@@V?$allocator@U?$pair@$$CBKP8CDPCoreClient@@AEXAAVCAr@@K@Z@std@@@4@$0A@@std@@@std@@IAE?AViterator@12@_NPAU_Node@?$_Tree_nod@V?$_Tmap_traits@KP8CDPCoreClient@@AEXAAVCAr@@K@ZU?$less@K@std@@V?$allocator@U?$pair@$$CBKP8CDPCoreClient@@AEXAAVCAr@@K@Z@std@@@4@$0A@@std@@@2@ABU?$pair@$$CBKP8CDPCoreClient@@AEXAAVCAr@@K@Z@2@@Z 00407dc0 f i DPCoreClient.obj
 0001:00006f70       ?erase@?$_Tree@V?$_Tmap_traits@KP8CDPCoreClient@@AEXAAVCAr@@K@ZU?$less@K@std@@V?$allocator@U?$pair@$$CBKP8CDPCoreClient@@AEXAAVCAr@@K@Z@std@@@4@$0A@@std@@@std@@QAE?AViterator@12@V312@@Z 00407f70 f i DPCoreClient.obj
 0001:00007230       ?insert@?$_Tree@V?$_Tmap_traits@KP8CDPCoreClient@@AEXAAVCAr@@K@ZU?$less@K@std@@V?$allocator@U?$pair@$$CBKP8CDPCoreClient@@AEXAAVCAr@@K@Z@std@@@4@$0A@@std@@@std@@QAE?AU?$pair@Viterator@?$_Tree@V?$_Tmap_traits@KP8CDPCoreClient@@AEXAAVCAr@@K@ZU?$less@K@std@@V?$allocator@U?$pair@$$CBKP8CDPCoreClient@@AEXAAVCAr@@K@Z@std@@@4@$0A@@std@@@std@@_N@2@ABU?$pair@$$CBKP8CDPCoreClient@@AEXAAVCAr@@K@Z@2@@Z 00408230 f i DPCoreClient.obj
 0001:000072f0       ?erase@?$_Tree@V?$_Tmap_traits@KP8CDPCoreClient@@AEXAAVCAr@@K@ZU?$less@K@std@@V?$allocator@U?$pair@$$CBKP8CDPCoreClient@@AEXAAVCAr@@K@Z@std@@@4@$0A@@std@@@std@@QAE?AViterator@12@V312@0@Z 004082f0 f i DPCoreClient.obj
 0001:000073b0       ?_Tidy@?$_Tree@V?$_Tmap_traits@KP8CDPCoreClient@@AEXAAVCAr@@K@ZU?$less@K@std@@V?$allocator@U?$pair@$$CBKP8CDPCoreClient@@AEXAAVCAr@@K@Z@std@@@4@$0A@@std@@@std@@IAEXXZ 004083b0 f i DPCoreClient.obj
 0001:000073e0       ??1?$_Tree@V?$_Tmap_traits@KP8CDPCoreClient@@AEXAAVCAr@@K@ZU?$less@K@std@@V?$allocator@U?$pair@$$CBKP8CDPCoreClient@@AEXAAVCAr@@K@Z@std@@@4@$0A@@std@@@std@@QAE@XZ 004083e0 f i DPCoreClient.obj
 0001:00007410       ??1?$map@KP8CDPCoreClient@@AEXAAVCAr@@K@ZU?$less@K@std@@V?$allocator@U?$pair@$$CBKP8CDPCoreClient@@AEXAAVCAr@@K@Z@std@@@4@@std@@QAE@XZ 00408410 f i DPCoreClient.obj
 0001:00007440       ??1CDPCoreClient@@UAE@XZ   00408440 f   DPCoreClient.obj
 0001:000074c0       ??0?$map@KP8CDPCoreClient@@AEXAAVCAr@@K@ZU?$less@K@std@@V?$allocator@U?$pair@$$CBKP8CDPCoreClient@@AEXAAVCAr@@K@Z@std@@@4@@std@@QAE@XZ 004084c0 f i DPCoreClient.obj
 0001:000074f0       ??0CDPCoreClient@@QAE@XZ   004084f0 f   DPCoreClient.obj
 0001:00007630       ??_ECDPCoreClient@@UAEPAXI@Z 00408630 f i DPCoreClient.obj
 0001:00007630       ??_GCDPCoreClient@@UAEPAXI@Z 00408630 f i DPCoreClient.obj
 0001:00007650       ??0_PacketRecvd@@QAE@KK@Z  00408650 f i packetlog.obj
 0001:00007670       ?pllpr1@@YA_NAAU_PlayerRecvd@@0@Z 00408670 f   packetlog.obj
 0001:00007690       ?pllpr2@@YA_NAAU_PacketRecvd@@0@Z 00408690 f   packetlog.obj
 0001:000076b0       ??8const_iterator@?$_Tree@V?$_Tmap_traits@KU_PlayerRecvd@@U?$less@K@std@@V?$allocator@U?$pair@$$CBKU_PlayerRecvd@@@std@@@3@$0A@@std@@@std@@QBE_NABV012@@Z 004086b0 f i packetlog.obj
 0001:000076c0       ??9const_iterator@?$_Tree@V?$_Tmap_traits@KU_PlayerRecvd@@U?$less@K@std@@V?$allocator@U?$pair@$$CBKU_PlayerRecvd@@@std@@@3@$0A@@std@@@std@@QBE_NABV012@@Z 004086c0 f i packetlog.obj
 0001:000076e0       ??0?$pair@$$CBKU_PacketRecvd@@@std@@QAE@ABKABU_PacketRecvd@@@Z 004086e0 f i packetlog.obj
 0001:00007710       ??8const_iterator@?$_Tree@V?$_Tmap_traits@KU_PacketRecvd@@U?$less@K@std@@V?$allocator@U?$pair@$$CBKU_PacketRecvd@@@std@@@3@$0A@@std@@@std@@QBE_NABV012@@Z 00408710 f i packetlog.obj
 0001:00007720       ??9const_iterator@?$_Tree@V?$_Tmap_traits@KU_PacketRecvd@@U?$less@K@std@@V?$allocator@U?$pair@$$CBKU_PacketRecvd@@@std@@@3@$0A@@std@@@std@@QBE_NABV012@@Z 00408720 f i packetlog.obj
 0001:00007740       ??Eiterator@?$vector@U_PlayerRecvd@@V?$allocator@U_PlayerRecvd@@@std@@@std@@QAEAAV012@XZ 00408740 f i packetlog.obj
 0001:00007750       ??Eiterator@?$vector@U_PacketRecvd@@V?$allocator@U_PacketRecvd@@@std@@@std@@QAEAAV012@XZ 00408750 f i packetlog.obj
 0001:00007760       ?_Isnil@?$_Tree@V?$_Tmap_traits@KU_PacketRecvd@@U?$less@K@std@@V?$allocator@U?$pair@$$CBKU_PacketRecvd@@@std@@@3@$0A@@std@@@std@@KAAADPAU_Node@?$_Tree_nod@V?$_Tmap_traits@KU_PacketRecvd@@U?$less@K@std@@V?$allocator@U?$pair@$$CBKU_PacketRecvd@@@std@@@3@$0A@@std@@@2@@Z 00408760 f i packetlog.obj
 0001:00007770       ?_Left@?$_Tree@V?$_Tmap_traits@KU_PacketRecvd@@U?$less@K@std@@V?$allocator@U?$pair@$$CBKU_PacketRecvd@@@std@@@3@$0A@@std@@@std@@KAAAPAU_Node@?$_Tree_nod@V?$_Tmap_traits@KU_PacketRecvd@@U?$less@K@std@@V?$allocator@U?$pair@$$CBKU_PacketRecvd@@@std@@@3@$0A@@std@@@2@PAU342@@Z 00408770 f i packetlog.obj
 0001:00007780       ?_Right@?$_Tree@V?$_Tmap_traits@KU_PacketRecvd@@U?$less@K@std@@V?$allocator@U?$pair@$$CBKU_PacketRecvd@@@std@@@3@$0A@@std@@@std@@KAAAPAU_Node@?$_Tree_nod@V?$_Tmap_traits@KU_PacketRecvd@@U?$less@K@std@@V?$allocator@U?$pair@$$CBKU_PacketRecvd@@@std@@@3@$0A@@std@@@2@PAU342@@Z 00408780 f i packetlog.obj
 0001:00007790       ?key_comp@?$_Tree@V?$_Tmap_traits@KU_PacketRecvd@@U?$less@K@std@@V?$allocator@U?$pair@$$CBKU_PacketRecvd@@@std@@@3@$0A@@std@@@std@@QBE?AU?$less@K@2@XZ 00408790 f i packetlog.obj
 0001:000077a0       ?_Lmost@?$_Tree@V?$_Tmap_traits@KU_PacketRecvd@@U?$less@K@std@@V?$allocator@U?$pair@$$CBKU_PacketRecvd@@@std@@@3@$0A@@std@@@std@@IAEAAPAU_Node@?$_Tree_nod@V?$_Tmap_traits@KU_PacketRecvd@@U?$less@K@std@@V?$allocator@U?$pair@$$CBKU_PacketRecvd@@@std@@@3@$0A@@std@@@2@XZ 004087a0 f i packetlog.obj
 0001:000077b0       ?_Kfn@?$_Tmap_traits@KU_PacketRecvd@@U?$less@K@std@@V?$allocator@U?$pair@$$CBKU_PacketRecvd@@@std@@@3@$0A@@std@@SAABKABU?$pair@$$CBKU_PacketRecvd@@@2@@Z 004087b0 f i packetlog.obj
 0001:000077c0       ??0?$allocator@U?$pair@$$CBKU_PacketRecvd@@@std@@@std@@QAE@XZ 004087c0 f i packetlog.obj
 0001:000077d0       ?_Isnil@?$_Tree@V?$_Tmap_traits@KU_PlayerRecvd@@U?$less@K@std@@V?$allocator@U?$pair@$$CBKU_PlayerRecvd@@@std@@@3@$0A@@std@@@std@@KAAADPAU_Node@?$_Tree_nod@V?$_Tmap_traits@KU_PlayerRecvd@@U?$less@K@std@@V?$allocator@U?$pair@$$CBKU_PlayerRecvd@@@std@@@3@$0A@@std@@@2@@Z 004087d0 f i packetlog.obj
 0001:000077e0       ?_Left@?$_Tree@V?$_Tmap_traits@KU_PlayerRecvd@@U?$less@K@std@@V?$allocator@U?$pair@$$CBKU_PlayerRecvd@@@std@@@3@$0A@@std@@@std@@KAAAPAU_Node@?$_Tree_nod@V?$_Tmap_traits@KU_PlayerRecvd@@U?$less@K@std@@V?$allocator@U?$pair@$$CBKU_PlayerRecvd@@@std@@@3@$0A@@std@@@2@PAU342@@Z 004087e0 f i packetlog.obj
 0001:000077f0       ?_Right@?$_Tree@V?$_Tmap_traits@KU_PlayerRecvd@@U?$less@K@std@@V?$allocator@U?$pair@$$CBKU_PlayerRecvd@@@std@@@3@$0A@@std@@@std@@KAAAPAU_Node@?$_Tree_nod@V?$_Tmap_traits@KU_PlayerRecvd@@U?$less@K@std@@V?$allocator@U?$pair@$$CBKU_PlayerRecvd@@@std@@@3@$0A@@std@@@2@PAU342@@Z 004087f0 f i packetlog.obj
 0001:00007800       ?_Lmost@?$_Tree@V?$_Tmap_traits@KU_PlayerRecvd@@U?$less@K@std@@V?$allocator@U?$pair@$$CBKU_PlayerRecvd@@@std@@@3@$0A@@std@@@std@@IAEAAPAU_Node@?$_Tree_nod@V?$_Tmap_traits@KU_PlayerRecvd@@U?$less@K@std@@V?$allocator@U?$pair@$$CBKU_PlayerRecvd@@@std@@@3@$0A@@std@@@2@XZ 00408800 f i packetlog.obj
 0001:00007810       ?_Rmost@?$_Tree@V?$_Tmap_traits@KU_PlayerRecvd@@U?$less@K@std@@V?$allocator@U?$pair@$$CBKU_PlayerRecvd@@@std@@@3@$0A@@std@@@std@@IAEAAPAU_Node@?$_Tree_nod@V?$_Tmap_traits@KU_PlayerRecvd@@U?$less@K@std@@V?$allocator@U?$pair@$$CBKU_PlayerRecvd@@@std@@@3@$0A@@std@@@2@XZ 00408810 f i packetlog.obj
 0001:00007820       ?_Kfn@?$_Tmap_traits@KU_PlayerRecvd@@U?$less@K@std@@V?$allocator@U?$pair@$$CBKU_PlayerRecvd@@@std@@@3@$0A@@std@@SAABKABU?$pair@$$CBKU_PlayerRecvd@@@2@@Z 00408820 f i packetlog.obj
 0001:00007830       ??0?$allocator@U?$pair@$$CBKU_PlayerRecvd@@@std@@@std@@QAE@XZ 00408830 f i packetlog.obj
 0001:00007840       ?_Mynode@const_iterator@?$_Tree@V?$_Tmap_traits@KU_PlayerRecvd@@U?$less@K@std@@V?$allocator@U?$pair@$$CBKU_PlayerRecvd@@@std@@@3@$0A@@std@@@std@@QBEPAU_Node@?$_Tree_nod@V?$_Tmap_traits@KU_PlayerRecvd@@U?$less@K@std@@V?$allocator@U?$pair@$$CBKU_PlayerRecvd@@@std@@@3@$0A@@std@@@3@XZ 00408840 f i packetlog.obj
 0001:00007850       ??0?$pair@Viterator@?$_Tree@V?$_Tmap_traits@KU_PacketRecvd@@U?$less@K@std@@V?$allocator@U?$pair@$$CBKU_PacketRecvd@@@std@@@3@$0A@@std@@@std@@_N@std@@QAE@ABViterator@?$_Tree@V?$_Tmap_traits@KU_PacketRecvd@@U?$less@K@std@@V?$allocator@U?$pair@$$CBKU_PacketRecvd@@@std@@@3@$0A@@std@@@1@AB_N@Z 00408850 f i packetlog.obj
 0001:00007870       ?_Mynode@const_iterator@?$_Tree@V?$_Tmap_traits@KU_PacketRecvd@@U?$less@K@std@@V?$allocator@U?$pair@$$CBKU_PacketRecvd@@@std@@@3@$0A@@std@@@std@@QBEPAU_Node@?$_Tree_nod@V?$_Tmap_traits@KU_PacketRecvd@@U?$less@K@std@@V?$allocator@U?$pair@$$CBKU_PacketRecvd@@@std@@@3@$0A@@std@@@3@XZ 00408870 f i packetlog.obj
 0001:00007880       ??0?$pair@Viterator@?$_Tree@V?$_Tmap_traits@KU_PlayerRecvd@@U?$less@K@std@@V?$allocator@U?$pair@$$CBKU_PlayerRecvd@@@std@@@3@$0A@@std@@@std@@_N@std@@QAE@ABViterator@?$_Tree@V?$_Tmap_traits@KU_PlayerRecvd@@U?$less@K@std@@V?$allocator@U?$pair@$$CBKU_PlayerRecvd@@@std@@@3@$0A@@std@@@1@AB_N@Z 00408880 f i packetlog.obj
 0001:000078a0       ?capacity@?$vector@U_PlayerRecvd@@V?$allocator@U_PlayerRecvd@@@std@@@std@@QBEIXZ 004088a0 f i packetlog.obj
 0001:000078c0       ?size@?$vector@U_PlayerRecvd@@V?$allocator@U_PlayerRecvd@@@std@@@std@@QBEIXZ 004088c0 f i packetlog.obj
 0001:000078e0       ??0?$allocator@U_PlayerRecvd@@@std@@QAE@XZ 004088e0 f i packetlog.obj
 0001:000078f0       ??8const_iterator@?$vector@U_PlayerRecvd@@V?$allocator@U_PlayerRecvd@@@std@@@std@@QBE_NABV012@@Z 004088f0 f i packetlog.obj
 0001:00007900       ?capacity@?$vector@U_PacketRecvd@@V?$allocator@U_PacketRecvd@@@std@@@std@@QBEIXZ 00408900 f i packetlog.obj
 0001:00007920       ?size@?$vector@U_PacketRecvd@@V?$allocator@U_PacketRecvd@@@std@@@std@@QBEIXZ 00408920 f i packetlog.obj
 0001:00007940       ??0?$allocator@U_PacketRecvd@@@std@@QAE@XZ 00408940 f i packetlog.obj
 0001:00007950       ??8const_iterator@?$vector@U_PacketRecvd@@V?$allocator@U_PacketRecvd@@@std@@@std@@QBE_NABV012@@Z 00408950 f i packetlog.obj
 0001:00007960       ?_Color@?$_Tree@V?$_Tmap_traits@KU_PacketRecvd@@U?$less@K@std@@V?$allocator@U?$pair@$$CBKU_PacketRecvd@@@std@@@3@$0A@@std@@@std@@KAAADPAU_Node@?$_Tree_nod@V?$_Tmap_traits@KU_PacketRecvd@@U?$less@K@std@@V?$allocator@U?$pair@$$CBKU_PacketRecvd@@@std@@@3@$0A@@std@@@2@@Z 00408960 f i packetlog.obj
 0001:00007970       ?_Parent@?$_Tree@V?$_Tmap_traits@KU_PacketRecvd@@U?$less@K@std@@V?$allocator@U?$pair@$$CBKU_PacketRecvd@@@std@@@3@$0A@@std@@@std@@KAAAPAU_Node@?$_Tree_nod@V?$_Tmap_traits@KU_PacketRecvd@@U?$less@K@std@@V?$allocator@U?$pair@$$CBKU_PacketRecvd@@@std@@@3@$0A@@std@@@2@PAU342@@Z 00408970 f i packetlog.obj
 0001:00007980       ?_Myval@?$_Tree@V?$_Tmap_traits@KU_PacketRecvd@@U?$less@K@std@@V?$allocator@U?$pair@$$CBKU_PacketRecvd@@@std@@@3@$0A@@std@@@std@@KAAAU?$pair@$$CBKU_PacketRecvd@@@2@PAU_Node@?$_Tree_nod@V?$_Tmap_traits@KU_PacketRecvd@@U?$less@K@std@@V?$allocator@U?$pair@$$CBKU_PacketRecvd@@@std@@@3@$0A@@std@@@2@@Z 00408980 f i packetlog.obj
 0001:00007990       ?size@?$_Tree@V?$_Tmap_traits@KU_PacketRecvd@@U?$less@K@std@@V?$allocator@U?$pair@$$CBKU_PacketRecvd@@@std@@@3@$0A@@std@@@std@@QBEIXZ 00408990 f i packetlog.obj
 0001:000079a0       ?_Max@?$_Tree@V?$_Tmap_traits@KU_PacketRecvd@@U?$less@K@std@@V?$allocator@U?$pair@$$CBKU_PacketRecvd@@@std@@@3@$0A@@std@@@std@@KAPAU_Node@?$_Tree_nod@V?$_Tmap_traits@KU_PacketRecvd@@U?$less@K@std@@V?$allocator@U?$pair@$$CBKU_PacketRecvd@@@std@@@3@$0A@@std@@@2@PAU342@@Z 004089a0 f i packetlog.obj
 0001:000079c0       ?_Min@?$_Tree@V?$_Tmap_traits@KU_PacketRecvd@@U?$less@K@std@@V?$allocator@U?$pair@$$CBKU_PacketRecvd@@@std@@@3@$0A@@std@@@std@@KAPAU_Node@?$_Tree_nod@V?$_Tmap_traits@KU_PacketRecvd@@U?$less@K@std@@V?$allocator@U?$pair@$$CBKU_PacketRecvd@@@std@@@3@$0A@@std@@@2@PAU342@@Z 004089c0 f i packetlog.obj
 0001:000079e0       ?_Rmost@?$_Tree@V?$_Tmap_traits@KU_PacketRecvd@@U?$less@K@std@@V?$allocator@U?$pair@$$CBKU_PacketRecvd@@@std@@@3@$0A@@std@@@std@@IAEAAPAU_Node@?$_Tree_nod@V?$_Tmap_traits@KU_PacketRecvd@@U?$less@K@std@@V?$allocator@U?$pair@$$CBKU_PacketRecvd@@@std@@@3@$0A@@std@@@2@XZ 004089e0 f i packetlog.obj
 0001:000079f0       ?_Root@?$_Tree@V?$_Tmap_traits@KU_PacketRecvd@@U?$less@K@std@@V?$allocator@U?$pair@$$CBKU_PacketRecvd@@@std@@@3@$0A@@std@@@std@@IBEAAPAU_Node@?$_Tree_nod@V?$_Tmap_traits@KU_PacketRecvd@@U?$less@K@std@@V?$allocator@U?$pair@$$CBKU_PacketRecvd@@@std@@@3@$0A@@std@@@2@XZ 004089f0 f i packetlog.obj
 0001:00007a00       ??0?$allocator@U?$pair@$$CBKU_PacketRecvd@@@std@@@std@@QAE@ABV01@@Z 00408a00 f i packetlog.obj
 0001:00007a10       ?deallocate@?$allocator@U_Node@?$_Tree_nod@V?$_Tmap_traits@KU_PacketRecvd@@U?$less@K@std@@V?$allocator@U?$pair@$$CBKU_PacketRecvd@@@std@@@3@$0A@@std@@@std@@@std@@QAEXPAU_Node@?$_Tree_nod@V?$_Tmap_traits@KU_PacketRecvd@@U?$less@K@std@@V?$allocator@U?$pair@$$CBKU_PacketRecvd@@@std@@@3@$0A@@std@@@2@I@Z 00408a10 f i packetlog.obj
 0001:00007a20       ?_Color@?$_Tree@V?$_Tmap_traits@KU_PlayerRecvd@@U?$less@K@std@@V?$allocator@U?$pair@$$CBKU_PlayerRecvd@@@std@@@3@$0A@@std@@@std@@KAAADPAU_Node@?$_Tree_nod@V?$_Tmap_traits@KU_PlayerRecvd@@U?$less@K@std@@V?$allocator@U?$pair@$$CBKU_PlayerRecvd@@@std@@@3@$0A@@std@@@2@@Z 00408a20 f i packetlog.obj
 0001:00007a30       ?_Parent@?$_Tree@V?$_Tmap_traits@KU_PlayerRecvd@@U?$less@K@std@@V?$allocator@U?$pair@$$CBKU_PlayerRecvd@@@std@@@3@$0A@@std@@@std@@KAAAPAU_Node@?$_Tree_nod@V?$_Tmap_traits@KU_PlayerRecvd@@U?$less@K@std@@V?$allocator@U?$pair@$$CBKU_PlayerRecvd@@@std@@@3@$0A@@std@@@2@PAU342@@Z 00408a30 f i packetlog.obj
 0001:00007a40       ?_Myval@?$_Tree@V?$_Tmap_traits@KU_PlayerRecvd@@U?$less@K@std@@V?$allocator@U?$pair@$$CBKU_PlayerRecvd@@@std@@@3@$0A@@std@@@std@@KAAAU?$pair@$$CBKU_PlayerRecvd@@@2@PAU_Node@?$_Tree_nod@V?$_Tmap_traits@KU_PlayerRecvd@@U?$less@K@std@@V?$allocator@U?$pair@$$CBKU_PlayerRecvd@@@std@@@3@$0A@@std@@@2@@Z 00408a40 f i packetlog.obj
 0001:00007a50       ??0?$allocator@U?$pair@$$CBKU_PlayerRecvd@@@std@@@std@@QAE@ABV01@@Z 00408a50 f i packetlog.obj
 0001:00007a60       ?deallocate@?$allocator@U_Node@?$_Tree_nod@V?$_Tmap_traits@KU_PlayerRecvd@@U?$less@K@std@@V?$allocator@U?$pair@$$CBKU_PlayerRecvd@@@std@@@3@$0A@@std@@@std@@@std@@QAEXPAU_Node@?$_Tree_nod@V?$_Tmap_traits@KU_PlayerRecvd@@U?$less@K@std@@V?$allocator@U?$pair@$$CBKU_PlayerRecvd@@@std@@@3@$0A@@std@@@2@I@Z 00408a60 f i packetlog.obj
 0001:00007a70       ??0const_iterator@?$_Tree@V?$_Tmap_traits@KU_PlayerRecvd@@U?$less@K@std@@V?$allocator@U?$pair@$$CBKU_PlayerRecvd@@@std@@@3@$0A@@std@@@std@@QAE@PAU_Node@?$_Tree_nod@V?$_Tmap_traits@KU_PlayerRecvd@@U?$less@K@std@@V?$allocator@U?$pair@$$CBKU_PlayerRecvd@@@std@@@3@$0A@@std@@@2@@Z 00408a70 f i packetlog.obj
 0001:00007a80       ??Dconst_iterator@?$_Tree@V?$_Tmap_traits@KU_PlayerRecvd@@U?$less@K@std@@V?$allocator@U?$pair@$$CBKU_PlayerRecvd@@@std@@@3@$0A@@std@@@std@@QBEABU?$pair@$$CBKU_PlayerRecvd@@@2@XZ 00408a80 f i packetlog.obj
 0001:00007a90       ??0const_iterator@?$_Tree@V?$_Tmap_traits@KU_PacketRecvd@@U?$less@K@std@@V?$allocator@U?$pair@$$CBKU_PacketRecvd@@@std@@@3@$0A@@std@@@std@@QAE@PAU_Node@?$_Tree_nod@V?$_Tmap_traits@KU_PacketRecvd@@U?$less@K@std@@V?$allocator@U?$pair@$$CBKU_PacketRecvd@@@std@@@3@$0A@@std@@@2@@Z 00408a90 f i packetlog.obj
 0001:00007aa0       ??Dconst_iterator@?$_Tree@V?$_Tmap_traits@KU_PacketRecvd@@U?$less@K@std@@V?$allocator@U?$pair@$$CBKU_PacketRecvd@@@std@@@3@$0A@@std@@@std@@QBEABU?$pair@$$CBKU_PacketRecvd@@@2@XZ 00408aa0 f i packetlog.obj
 0001:00007ab0       ?_Inc@const_iterator@?$_Tree@V?$_Tmap_traits@KU_PacketRecvd@@U?$less@K@std@@V?$allocator@U?$pair@$$CBKU_PacketRecvd@@@std@@@3@$0A@@std@@@std@@QAEXXZ 00408ab0 f i packetlog.obj
 0001:00007b10       ??0?$allocator@U_PlayerRecvd@@@std@@QAE@ABV01@@Z 00408b10 f i packetlog.obj
 0001:00007b20       ?deallocate@?$allocator@U_PlayerRecvd@@@std@@QAEXPAU_PlayerRecvd@@I@Z 00408b20 f i packetlog.obj
 0001:00007b30       ??0const_iterator@?$vector@U_PlayerRecvd@@V?$allocator@U_PlayerRecvd@@@std@@@std@@QAE@PAU_PlayerRecvd@@@Z 00408b30 f i packetlog.obj
 0001:00007b40       ??Dconst_iterator@?$vector@U_PlayerRecvd@@V?$allocator@U_PlayerRecvd@@@std@@@std@@QBEABU_PlayerRecvd@@XZ 00408b40 f i packetlog.obj
 0001:00007b50       ??0?$allocator@U_PacketRecvd@@@std@@QAE@ABV01@@Z 00408b50 f i packetlog.obj
 0001:00007b60       ?deallocate@?$allocator@U_PacketRecvd@@@std@@QAEXPAU_PacketRecvd@@I@Z 00408b60 f i packetlog.obj
 0001:00007b70       ??0const_iterator@?$vector@U_PacketRecvd@@V?$allocator@U_PacketRecvd@@@std@@@std@@QAE@PAU_PacketRecvd@@@Z 00408b70 f i packetlog.obj
 0001:00007b80       ??Dconst_iterator@?$vector@U_PacketRecvd@@V?$allocator@U_PacketRecvd@@@std@@@std@@QBEABU_PacketRecvd@@XZ 00408b80 f i packetlog.obj
 0001:00007b90       ?max_size@?$allocator@U?$pair@$$CBKU_PacketRecvd@@@std@@@std@@QBEIXZ 00408b90 f i packetlog.obj
 0001:00007ba0       ?_Min@?$_Tree@V?$_Tmap_traits@KU_PlayerRecvd@@U?$less@K@std@@V?$allocator@U?$pair@$$CBKU_PlayerRecvd@@@std@@@3@$0A@@std@@@std@@KAPAU_Node@?$_Tree_nod@V?$_Tmap_traits@KU_PlayerRecvd@@U?$less@K@std@@V?$allocator@U?$pair@$$CBKU_PlayerRecvd@@@std@@@3@$0A@@std@@@2@PAU342@@Z 00408ba0 f i packetlog.obj
 0001:00007bc0       ?_Root@?$_Tree@V?$_Tmap_traits@KU_PlayerRecvd@@U?$less@K@std@@V?$allocator@U?$pair@$$CBKU_PlayerRecvd@@@std@@@3@$0A@@std@@@std@@IBEAAPAU_Node@?$_Tree_nod@V?$_Tmap_traits@KU_PlayerRecvd@@U?$less@K@std@@V?$allocator@U?$pair@$$CBKU_PlayerRecvd@@@std@@@3@$0A@@std@@@2@XZ 00408bc0 f i packetlog.obj
 0001:00007bd0       ?max_size@?$allocator@U?$pair@$$CBKU_PlayerRecvd@@@std@@@std@@QBEIXZ 00408bd0 f i packetlog.obj
 0001:00007be0       ?_Dec@const_iterator@?$_Tree@V?$_Tmap_traits@KU_PacketRecvd@@U?$less@K@std@@V?$allocator@U?$pair@$$CBKU_PacketRecvd@@@std@@@3@$0A@@std@@@std@@QAEXXZ 00408be0 f i packetlog.obj
 0001:00007c40       ?max_size@?$allocator@U_PlayerRecvd@@@std@@QBEIXZ 00408c40 f i packetlog.obj
 0001:00007c50       ??Yiterator@?$vector@U_PlayerRecvd@@V?$allocator@U_PlayerRecvd@@@std@@@std@@QAEAAV012@H@Z 00408c50 f i packetlog.obj
 0001:00007c70       ??Gconst_iterator@?$vector@U_PlayerRecvd@@V?$allocator@U_PlayerRecvd@@@std@@@std@@QBEHABV012@@Z 00408c70 f i packetlog.obj
 0001:00007c90       ?max_size@?$allocator@U_PacketRecvd@@@std@@QBEIXZ 00408c90 f i packetlog.obj
 0001:00007ca0       ??Yiterator@?$vector@U_PacketRecvd@@V?$allocator@U_PacketRecvd@@@std@@@std@@QAEAAV012@H@Z 00408ca0 f i packetlog.obj
 0001:00007cc0       ??Gconst_iterator@?$vector@U_PacketRecvd@@V?$allocator@U_PacketRecvd@@@std@@@std@@QBEHABV012@@Z 00408cc0 f i packetlog.obj
 0001:00007ce0       ??0_Node@?$_Tree_nod@V?$_Tmap_traits@KU_PacketRecvd@@U?$less@K@std@@V?$allocator@U?$pair@$$CBKU_PacketRecvd@@@std@@@3@$0A@@std@@@std@@QAE@PAU012@00ABU?$pair@$$CBKU_PacketRecvd@@@2@D@Z 00408ce0 f i packetlog.obj
 0001:00007d30       ??0?$_Tmap_traits@KU_PacketRecvd@@U?$less@K@std@@V?$allocator@U?$pair@$$CBKU_PacketRecvd@@@std@@@3@$0A@@std@@QAE@U?$less@K@1@@Z 00408d30 f i packetlog.obj
 0001:00007d40       ?_Max@?$_Tree@V?$_Tmap_traits@KU_PlayerRecvd@@U?$less@K@std@@V?$allocator@U?$pair@$$CBKU_PlayerRecvd@@@std@@@3@$0A@@std@@@std@@KAPAU_Node@?$_Tree_nod@V?$_Tmap_traits@KU_PlayerRecvd@@U?$less@K@std@@V?$allocator@U?$pair@$$CBKU_PlayerRecvd@@@std@@@3@$0A@@std@@@2@PAU342@@Z 00408d40 f i packetlog.obj
 0001:00007d60       ??0?$_Tmap_traits@KU_PlayerRecvd@@U?$less@K@std@@V?$allocator@U?$pair@$$CBKU_PlayerRecvd@@@std@@@3@$0A@@std@@QAE@U?$less@K@1@@Z 00408d60 f i packetlog.obj
 0001:00007d70       ??$?0U?$pair@$$CBKU_PacketRecvd@@@std@@@?$allocator@PAU_Node@?$_Tree_nod@V?$_Tmap_traits@KU_PacketRecvd@@U?$less@K@std@@V?$allocator@U?$pair@$$CBKU_PacketRecvd@@@std@@@3@$0A@@std@@@std@@@std@@QAE@ABV?$allocator@U?$pair@$$CBKU_PacketRecvd@@@std@@@1@@Z 00408d70 f i packetlog.obj
 0001:00007d80       ??$_Destroy@PAU_Node@?$_Tree_nod@V?$_Tmap_traits@KU_PacketRecvd@@U?$less@K@std@@V?$allocator@U?$pair@$$CBKU_PacketRecvd@@@std@@@3@$0A@@std@@@std@@@std@@YAXPAPAU_Node@?$_Tree_nod@V?$_Tmap_traits@KU_PacketRecvd@@U?$less@K@std@@V?$allocator@U?$pair@$$CBKU_PacketRecvd@@@std@@@3@$0A@@std@@@0@@Z 00408d80 f i packetlog.obj
 0001:00007d90       ??$_Destroy@PAU_Node@?$_Tree_nod@V?$_Tmap_traits@KU_PlayerRecvd@@U?$less@K@std@@V?$allocator@U?$pair@$$CBKU_PlayerRecvd@@@std@@@3@$0A@@std@@@std@@@std@@YAXPAPAU_Node@?$_Tree_nod@V?$_Tmap_traits@KU_PlayerRecvd@@U?$less@K@std@@V?$allocator@U?$pair@$$CBKU_PlayerRecvd@@@std@@@3@$0A@@std@@@0@@Z 00408d90 f i packetlog.obj
 0001:00007da0       ??$_Allocate@U_PlayerRecvd@@@std@@YAPAU_PlayerRecvd@@IPAU1@@Z 00408da0 f i packetlog.obj
 0001:00007dc0       ??$fill@PAU_PacketRecvd@@U1@@std@@YAXPAU_PacketRecvd@@0ABU1@@Z 00408dc0 f i packetlog.obj
 0001:00007e00       ??$_Allocate@U_PacketRecvd@@@std@@YAPAU_PacketRecvd@@IPAU1@@Z 00408e00 f i packetlog.obj
 0001:00007e20       ??$?0U?$pair@$$CBKU_PacketRecvd@@@std@@@?$allocator@U_Node@?$_Tree_nod@V?$_Tmap_traits@KU_PacketRecvd@@U?$less@K@std@@V?$allocator@U?$pair@$$CBKU_PacketRecvd@@@std@@@3@$0A@@std@@@std@@@std@@QAE@ABV?$allocator@U?$pair@$$CBKU_PacketRecvd@@@std@@@1@@Z 00408e20 f i packetlog.obj
 0001:00007e30       ??$_Allocate@U_Node@?$_Tree_nod@V?$_Tmap_traits@KU_PacketRecvd@@U?$less@K@std@@V?$allocator@U?$pair@$$CBKU_PacketRecvd@@@std@@@3@$0A@@std@@@std@@@std@@YAPAU_Node@?$_Tree_nod@V?$_Tmap_traits@KU_PacketRecvd@@U?$less@K@std@@V?$allocator@U?$pair@$$CBKU_PacketRecvd@@@std@@@3@$0A@@std@@@0@IPAU120@@Z 00408e30 f i packetlog.obj
 0001:00007e50       ??$_Construct@PAU_Node@?$_Tree_nod@V?$_Tmap_traits@KU_PacketRecvd@@U?$less@K@std@@V?$allocator@U?$pair@$$CBKU_PacketRecvd@@@std@@@3@$0A@@std@@@std@@PAU123@@std@@YAXPAPAU_Node@?$_Tree_nod@V?$_Tmap_traits@KU_PacketRecvd@@U?$less@K@std@@V?$allocator@U?$pair@$$CBKU_PacketRecvd@@@std@@@3@$0A@@std@@@0@ABQAU120@@Z 00408e50 f i packetlog.obj
 0001:00007e70       ??$?0U?$pair@$$CBKU_PlayerRecvd@@@std@@@?$allocator@PAU_Node@?$_Tree_nod@V?$_Tmap_traits@KU_PlayerRecvd@@U?$less@K@std@@V?$allocator@U?$pair@$$CBKU_PlayerRecvd@@@std@@@3@$0A@@std@@@std@@@std@@QAE@ABV?$allocator@U?$pair@$$CBKU_PlayerRecvd@@@std@@@1@@Z 00408e70 f i packetlog.obj
 0001:00007e80       ??$_Allocate@U_Node@?$_Tree_nod@V?$_Tmap_traits@KU_PlayerRecvd@@U?$less@K@std@@V?$allocator@U?$pair@$$CBKU_PlayerRecvd@@@std@@@3@$0A@@std@@@std@@@std@@YAPAU_Node@?$_Tree_nod@V?$_Tmap_traits@KU_PlayerRecvd@@U?$less@K@std@@V?$allocator@U?$pair@$$CBKU_PlayerRecvd@@@std@@@3@$0A@@std@@@0@IPAU120@@Z 00408e80 f i packetlog.obj
 0001:00007ea0       ??$_Destroy@U_Node@?$_Tree_nod@V?$_Tmap_traits@KU_PacketRecvd@@U?$less@K@std@@V?$allocator@U?$pair@$$CBKU_PacketRecvd@@@std@@@3@$0A@@std@@@std@@@std@@YAXPAU_Node@?$_Tree_nod@V?$_Tmap_traits@KU_PacketRecvd@@U?$less@K@std@@V?$allocator@U?$pair@$$CBKU_PacketRecvd@@@std@@@3@$0A@@std@@@0@@Z 00408ea0 f i packetlog.obj
 0001:00007eb0       ??$?0U?$pair@$$CBKU_PlayerRecvd@@@std@@@?$allocator@U_Node@?$_Tree_nod@V?$_Tmap_traits@KU_PlayerRecvd@@U?$less@K@std@@V?$allocator@U?$pair@$$CBKU_PlayerRecvd@@@std@@@3@$0A@@std@@@std@@@std@@QAE@ABV?$allocator@U?$pair@$$CBKU_PlayerRecvd@@@std@@@1@@Z 00408eb0 f i packetlog.obj
 0001:00007ec0       ??$_Construct@PAU_Node@?$_Tree_nod@V?$_Tmap_traits@KU_PlayerRecvd@@U?$less@K@std@@V?$allocator@U?$pair@$$CBKU_PlayerRecvd@@@std@@@3@$0A@@std@@@std@@PAU123@@std@@YAXPAPAU_Node@?$_Tree_nod@V?$_Tmap_traits@KU_PlayerRecvd@@U?$less@K@std@@V?$allocator@U?$pair@$$CBKU_PlayerRecvd@@@std@@@3@$0A@@std@@@0@ABQAU120@@Z 00408ec0 f i packetlog.obj
 0001:00007ee0       ??$_Ptr_cat@PAU_PlayerRecvd@@PAU1@@std@@YA?AU_Nonscalar_ptr_iterator_tag@0@AAPAU_PlayerRecvd@@0@Z 00408ee0 f i packetlog.obj
 0001:00007ef0       ??$_Ptr_cat@PAU_PacketRecvd@@PAU1@@std@@YA?AU_Nonscalar_ptr_iterator_tag@0@AAPAU_PacketRecvd@@0@Z 00408ef0 f i packetlog.obj
 0001:00007f00       ??$_Copy_backward_opt@PAU_PacketRecvd@@PAU1@@std@@YAPAU_PacketRecvd@@PAU1@00U_Nonscalar_ptr_iterator_tag@0@@Z 00408f00 f i packetlog.obj
 0001:00007f40       ??$_Construct@U_PacketRecvd@@U1@@std@@YAXPAU_PacketRecvd@@ABU1@@Z 00408f40 f i packetlog.obj
 0001:00007f60       ??$_Destroy@U_PacketRecvd@@@std@@YAXPAU_PacketRecvd@@@Z 00408f60 f i packetlog.obj
 0001:00007f70       ??Eiterator@?$vector@U_PlayerRecvd@@V?$allocator@U_PlayerRecvd@@@std@@@std@@QAE?AV012@H@Z 00408f70 f i packetlog.obj
 0001:00007f80       ??Fiterator@?$vector@U_PlayerRecvd@@V?$allocator@U_PlayerRecvd@@@std@@@std@@QAEAAV012@XZ 00408f80 f i packetlog.obj
 0001:00007f90       ??Mconst_iterator@?$vector@U_PlayerRecvd@@V?$allocator@U_PlayerRecvd@@@std@@@std@@QBE_NABV012@@Z 00408f90 f i packetlog.obj
 0001:00007fa0       ??Eiterator@?$vector@U_PacketRecvd@@V?$allocator@U_PacketRecvd@@@std@@@std@@QAE?AV012@H@Z 00408fa0 f i packetlog.obj
 0001:00007fb0       ??Fiterator@?$vector@U_PacketRecvd@@V?$allocator@U_PacketRecvd@@@std@@@std@@QAEAAV012@XZ 00408fb0 f i packetlog.obj
 0001:00007fc0       ??Mconst_iterator@?$vector@U_PacketRecvd@@V?$allocator@U_PacketRecvd@@@std@@@std@@QBE_NABV012@@Z 00408fc0 f i packetlog.obj
 0001:00007fd0       ??0?$pair@Viterator@?$vector@U_PlayerRecvd@@V?$allocator@U_PlayerRecvd@@@std@@@std@@V123@@std@@QAE@ABViterator@?$vector@U_PlayerRecvd@@V?$allocator@U_PlayerRecvd@@@std@@@1@0@Z 00408fd0 f i packetlog.obj
 0001:00007ff0       ??0?$pair@Viterator@?$vector@U_PacketRecvd@@V?$allocator@U_PacketRecvd@@@std@@@std@@V123@@std@@QAE@ABViterator@?$vector@U_PacketRecvd@@V?$allocator@U_PacketRecvd@@@std@@@1@0@Z 00408ff0 f i packetlog.obj
 0001:00008010       ??Ziterator@?$vector@U_PlayerRecvd@@V?$allocator@U_PlayerRecvd@@@std@@@std@@QAEAAV012@H@Z 00409010 f i packetlog.obj
 0001:00008030       ??Ziterator@?$vector@U_PacketRecvd@@V?$allocator@U_PacketRecvd@@@std@@@std@@QAEAAV012@H@Z 00409030 f i packetlog.obj
 0001:00008050       ??$_Dist_type@Viterator@?$vector@U_PlayerRecvd@@V?$allocator@U_PlayerRecvd@@@std@@@std@@@std@@YAPAHViterator@?$vector@U_PlayerRecvd@@V?$allocator@U_PlayerRecvd@@@std@@@0@@Z 00409050 f i packetlog.obj
 0001:00008060       ??$_Val_type@Viterator@?$vector@U_PlayerRecvd@@V?$allocator@U_PlayerRecvd@@@std@@@std@@@std@@YAPAU_PlayerRecvd@@Viterator@?$vector@U_PlayerRecvd@@V?$allocator@U_PlayerRecvd@@@std@@@0@@Z 00409060 f i packetlog.obj
 0001:00008070       ??$_Dist_type@Viterator@?$vector@U_PacketRecvd@@V?$allocator@U_PacketRecvd@@@std@@@std@@@std@@YAPAHViterator@?$vector@U_PacketRecvd@@V?$allocator@U_PacketRecvd@@@std@@@0@@Z 00409070 f i packetlog.obj
 0001:00008080       ??$_Val_type@Viterator@?$vector@U_PacketRecvd@@V?$allocator@U_PacketRecvd@@@std@@@std@@@std@@YAPAU_PacketRecvd@@Viterator@?$vector@U_PacketRecvd@@V?$allocator@U_PacketRecvd@@@std@@@0@@Z 00409080 f i packetlog.obj
 0001:00008090       ??$_Iter_cat@Viterator@?$vector@U_PlayerRecvd@@V?$allocator@U_PlayerRecvd@@@std@@@std@@@std@@YA?AUrandom_access_iterator_tag@0@ABViterator@?$vector@U_PlayerRecvd@@V?$allocator@U_PlayerRecvd@@@std@@@0@@Z 00409090 f i packetlog.obj
 0001:000080a0       ??$swap@U_PacketRecvd@@@std@@YAXAAU_PacketRecvd@@0@Z 004090a0 f i packetlog.obj
 0001:000080e0       ??$_Iter_cat@Viterator@?$vector@U_PacketRecvd@@V?$allocator@U_PacketRecvd@@@std@@@std@@@std@@YA?AUrandom_access_iterator_tag@0@ABViterator@?$vector@U_PacketRecvd@@V?$allocator@U_PacketRecvd@@@std@@@0@@Z 004090e0 f i packetlog.obj
 0001:000080f0       ??9const_iterator@?$vector@U_PlayerRecvd@@V?$allocator@U_PlayerRecvd@@@std@@@std@@QBE_NABV012@@Z 004090f0 f i packetlog.obj
 0001:00008110       ??9const_iterator@?$vector@U_PacketRecvd@@V?$allocator@U_PacketRecvd@@@std@@@std@@QBE_NABV012@@Z 00409110 f i packetlog.obj
 0001:00008130       ?_Key@?$_Tree@V?$_Tmap_traits@KU_PacketRecvd@@U?$less@K@std@@V?$allocator@U?$pair@$$CBKU_PacketRecvd@@@std@@@3@$0A@@std@@@std@@KAABKPAU_Node@?$_Tree_nod@V?$_Tmap_traits@KU_PacketRecvd@@U?$less@K@std@@V?$allocator@U?$pair@$$CBKU_PacketRecvd@@@std@@@3@$0A@@std@@@2@@Z 00409130 f i packetlog.obj
 0001:00008140       ?get_allocator@?$_Tree@V?$_Tmap_traits@KU_PacketRecvd@@U?$less@K@std@@V?$allocator@U?$pair@$$CBKU_PacketRecvd@@@std@@@3@$0A@@std@@@std@@QBE?AV?$allocator@U?$pair@$$CBKU_PacketRecvd@@@std@@@2@XZ 00409140 f i packetlog.obj
 0001:00008150       ?_Root@?$_Tree@V?$_Tmap_traits@KU_PacketRecvd@@U?$less@K@std@@V?$allocator@U?$pair@$$CBKU_PacketRecvd@@@std@@@3@$0A@@std@@@std@@IAEAAPAU_Node@?$_Tree_nod@V?$_Tmap_traits@KU_PacketRecvd@@U?$less@K@std@@V?$allocator@U?$pair@$$CBKU_PacketRecvd@@@std@@@3@$0A@@std@@@2@XZ 00409150 f i packetlog.obj
 0001:00008160       ?_Key@?$_Tree@V?$_Tmap_traits@KU_PlayerRecvd@@U?$less@K@std@@V?$allocator@U?$pair@$$CBKU_PlayerRecvd@@@std@@@3@$0A@@std@@@std@@KAABKPAU_Node@?$_Tree_nod@V?$_Tmap_traits@KU_PlayerRecvd@@U?$less@K@std@@V?$allocator@U?$pair@$$CBKU_PlayerRecvd@@@std@@@3@$0A@@std@@@2@@Z 00409160 f i packetlog.obj
 0001:00008170       ?_Root@?$_Tree@V?$_Tmap_traits@KU_PlayerRecvd@@U?$less@K@std@@V?$allocator@U?$pair@$$CBKU_PlayerRecvd@@@std@@@3@$0A@@std@@@std@@IAEAAPAU_Node@?$_Tree_nod@V?$_Tmap_traits@KU_PlayerRecvd@@U?$less@K@std@@V?$allocator@U?$pair@$$CBKU_PlayerRecvd@@@std@@@3@$0A@@std@@@2@XZ 00409170 f i packetlog.obj
 0001:00008180       ??0iterator@?$_Tree@V?$_Tmap_traits@KU_PlayerRecvd@@U?$less@K@std@@V?$allocator@U?$pair@$$CBKU_PlayerRecvd@@@std@@@3@$0A@@std@@@std@@QAE@PAU_Node@?$_Tree_nod@V?$_Tmap_traits@KU_PlayerRecvd@@U?$less@K@std@@V?$allocator@U?$pair@$$CBKU_PlayerRecvd@@@std@@@3@$0A@@std@@@2@@Z 00409180 f i packetlog.obj
 0001:00008190       ??Diterator@?$_Tree@V?$_Tmap_traits@KU_PlayerRecvd@@U?$less@K@std@@V?$allocator@U?$pair@$$CBKU_PlayerRecvd@@@std@@@3@$0A@@std@@@std@@QBEAAU?$pair@$$CBKU_PlayerRecvd@@@2@XZ 00409190 f i packetlog.obj
 0001:000081a0       ??0iterator@?$_Tree@V?$_Tmap_traits@KU_PacketRecvd@@U?$less@K@std@@V?$allocator@U?$pair@$$CBKU_PacketRecvd@@@std@@@3@$0A@@std@@@std@@QAE@PAU_Node@?$_Tree_nod@V?$_Tmap_traits@KU_PacketRecvd@@U?$less@K@std@@V?$allocator@U?$pair@$$CBKU_PacketRecvd@@@std@@@3@$0A@@std@@@2@@Z 004091a0 f i packetlog.obj
 0001:000081b0       ??Diterator@?$_Tree@V?$_Tmap_traits@KU_PacketRecvd@@U?$less@K@std@@V?$allocator@U?$pair@$$CBKU_PacketRecvd@@@std@@@3@$0A@@std@@@std@@QBEAAU?$pair@$$CBKU_PacketRecvd@@@2@XZ 004091b0 f i packetlog.obj
 0001:000081c0       ??Econst_iterator@?$_Tree@V?$_Tmap_traits@KU_PacketRecvd@@U?$less@K@std@@V?$allocator@U?$pair@$$CBKU_PacketRecvd@@@std@@@3@$0A@@std@@@std@@QAEAAV012@XZ 004091c0 f i packetlog.obj
 0001:000081d0       ??0?$_Vector_val@U_PlayerRecvd@@V?$allocator@U_PlayerRecvd@@@std@@@std@@IAE@V?$allocator@U_PlayerRecvd@@@1@@Z 004091d0 f i packetlog.obj
 0001:000081e0       ??0iterator@?$vector@U_PlayerRecvd@@V?$allocator@U_PlayerRecvd@@@std@@@std@@QAE@PAU_PlayerRecvd@@@Z 004091e0 f i packetlog.obj
 0001:000081f0       ??Diterator@?$vector@U_PlayerRecvd@@V?$allocator@U_PlayerRecvd@@@std@@@std@@QBEAAU_PlayerRecvd@@XZ 004091f0 f i packetlog.obj
 0001:00008200       ??0?$_Vector_val@U_PacketRecvd@@V?$allocator@U_PacketRecvd@@@std@@@std@@IAE@V?$allocator@U_PacketRecvd@@@1@@Z 00409200 f i packetlog.obj
 0001:00008210       ??0iterator@?$vector@U_PacketRecvd@@V?$allocator@U_PacketRecvd@@@std@@@std@@QAE@PAU_PacketRecvd@@@Z 00409210 f i packetlog.obj
 0001:00008220       ??Diterator@?$vector@U_PacketRecvd@@V?$allocator@U_PacketRecvd@@@std@@@std@@QBEAAU_PacketRecvd@@XZ 00409220 f i packetlog.obj
 0001:00008230       ?max_size@?$_Tree@V?$_Tmap_traits@KU_PacketRecvd@@U?$less@K@std@@V?$allocator@U?$pair@$$CBKU_PacketRecvd@@@std@@@3@$0A@@std@@@std@@QBEIXZ 00409230 f i packetlog.obj
 0001:00008240       ?_Lbound@?$_Tree@V?$_Tmap_traits@KU_PacketRecvd@@U?$less@K@std@@V?$allocator@U?$pair@$$CBKU_PacketRecvd@@@std@@@3@$0A@@std@@@std@@IBEPAU_Node@?$_Tree_nod@V?$_Tmap_traits@KU_PacketRecvd@@U?$less@K@std@@V?$allocator@U?$pair@$$CBKU_PacketRecvd@@@std@@@3@$0A@@std@@@2@ABK@Z 00409240 f i packetlog.obj
 0001:00008270       ?_Lrotate@?$_Tree@V?$_Tmap_traits@KU_PacketRecvd@@U?$less@K@std@@V?$allocator@U?$pair@$$CBKU_PacketRecvd@@@std@@@3@$0A@@std@@@std@@IAEXPAU_Node@?$_Tree_nod@V?$_Tmap_traits@KU_PacketRecvd@@U?$less@K@std@@V?$allocator@U?$pair@$$CBKU_PacketRecvd@@@std@@@3@$0A@@std@@@2@@Z 00409270 f i packetlog.obj
 0001:000082d0       ?_Rrotate@?$_Tree@V?$_Tmap_traits@KU_PacketRecvd@@U?$less@K@std@@V?$allocator@U?$pair@$$CBKU_PacketRecvd@@@std@@@3@$0A@@std@@@std@@IAEXPAU_Node@?$_Tree_nod@V?$_Tmap_traits@KU_PacketRecvd@@U?$less@K@std@@V?$allocator@U?$pair@$$CBKU_PacketRecvd@@@std@@@3@$0A@@std@@@2@@Z 004092d0 f i packetlog.obj
 0001:00008330       ?destroy@?$allocator@PAU_Node@?$_Tree_nod@V?$_Tmap_traits@KU_PacketRecvd@@U?$less@K@std@@V?$allocator@U?$pair@$$CBKU_PacketRecvd@@@std@@@3@$0A@@std@@@std@@@std@@QAEXPAPAU_Node@?$_Tree_nod@V?$_Tmap_traits@KU_PacketRecvd@@U?$less@K@std@@V?$allocator@U?$pair@$$CBKU_PacketRecvd@@@std@@@3@$0A@@std@@@2@@Z 00409330 f i packetlog.obj
 0001:00008340       ?max_size@?$_Tree@V?$_Tmap_traits@KU_PlayerRecvd@@U?$less@K@std@@V?$allocator@U?$pair@$$CBKU_PlayerRecvd@@@std@@@3@$0A@@std@@@std@@QBEIXZ 00409340 f i packetlog.obj
 0001:00008350       ?_Lbound@?$_Tree@V?$_Tmap_traits@KU_PlayerRecvd@@U?$less@K@std@@V?$allocator@U?$pair@$$CBKU_PlayerRecvd@@@std@@@3@$0A@@std@@@std@@IBEPAU_Node@?$_Tree_nod@V?$_Tmap_traits@KU_PlayerRecvd@@U?$less@K@std@@V?$allocator@U?$pair@$$CBKU_PlayerRecvd@@@std@@@3@$0A@@std@@@2@ABK@Z 00409350 f i packetlog.obj
 0001:00008380       ?_Lrotate@?$_Tree@V?$_Tmap_traits@KU_PlayerRecvd@@U?$less@K@std@@V?$allocator@U?$pair@$$CBKU_PlayerRecvd@@@std@@@3@$0A@@std@@@std@@IAEXPAU_Node@?$_Tree_nod@V?$_Tmap_traits@KU_PlayerRecvd@@U?$less@K@std@@V?$allocator@U?$pair@$$CBKU_PlayerRecvd@@@std@@@3@$0A@@std@@@2@@Z 00409380 f i packetlog.obj
 0001:000083e0       ?_Rrotate@?$_Tree@V?$_Tmap_traits@KU_PlayerRecvd@@U?$less@K@std@@V?$allocator@U?$pair@$$CBKU_PlayerRecvd@@@std@@@3@$0A@@std@@@std@@IAEXPAU_Node@?$_Tree_nod@V?$_Tmap_traits@KU_PlayerRecvd@@U?$less@K@std@@V?$allocator@U?$pair@$$CBKU_PlayerRecvd@@@std@@@3@$0A@@std@@@2@@Z 004093e0 f i packetlog.obj
 0001:00008440       ?destroy@?$allocator@PAU_Node@?$_Tree_nod@V?$_Tmap_traits@KU_PlayerRecvd@@U?$less@K@std@@V?$allocator@U?$pair@$$CBKU_PlayerRecvd@@@std@@@3@$0A@@std@@@std@@@std@@QAEXPAPAU_Node@?$_Tree_nod@V?$_Tmap_traits@KU_PlayerRecvd@@U?$less@K@std@@V?$allocator@U?$pair@$$CBKU_PlayerRecvd@@@std@@@3@$0A@@std@@@2@@Z 00409440 f i packetlog.obj
 0001:00008450       ?_Inc@const_iterator@?$_Tree@V?$_Tmap_traits@KU_PlayerRecvd@@U?$less@K@std@@V?$allocator@U?$pair@$$CBKU_PlayerRecvd@@@std@@@3@$0A@@std@@@std@@QAEXXZ 00409450 f i packetlog.obj
 0001:000084b0       ??Fconst_iterator@?$_Tree@V?$_Tmap_traits@KU_PacketRecvd@@U?$less@K@std@@V?$allocator@U?$pair@$$CBKU_PacketRecvd@@@std@@@3@$0A@@std@@@std@@QAEAAV012@XZ 004094b0 f i packetlog.obj
 0001:000084c0       ?max_size@?$vector@U_PlayerRecvd@@V?$allocator@U_PlayerRecvd@@@std@@@std@@QBEIXZ 004094c0 f i packetlog.obj
 0001:000084d0       ?allocate@?$allocator@U_PlayerRecvd@@@std@@QAEPAU_PlayerRecvd@@I@Z 004094d0 f i packetlog.obj
 0001:000084f0       ??Hiterator@?$vector@U_PlayerRecvd@@V?$allocator@U_PlayerRecvd@@@std@@@std@@QBE?AV012@H@Z 004094f0 f i packetlog.obj
 0001:00008510       ??Giterator@?$vector@U_PlayerRecvd@@V?$allocator@U_PlayerRecvd@@@std@@@std@@QBEHABVconst_iterator@12@@Z 00409510 f i packetlog.obj
 0001:00008530       ?max_size@?$vector@U_PacketRecvd@@V?$allocator@U_PacketRecvd@@@std@@@std@@QBEIXZ 00409530 f i packetlog.obj
 0001:00008540       ?allocate@?$allocator@U_PacketRecvd@@@std@@QAEPAU_PacketRecvd@@I@Z 00409540 f i packetlog.obj
 0001:00008560       ??Hiterator@?$vector@U_PacketRecvd@@V?$allocator@U_PacketRecvd@@@std@@@std@@QBE?AV012@H@Z 00409560 f i packetlog.obj
 0001:00008580       ??Giterator@?$vector@U_PacketRecvd@@V?$allocator@U_PacketRecvd@@@std@@@std@@QBEHABVconst_iterator@12@@Z 00409580 f i packetlog.obj
 0001:000085a0       ??0?$_Tree_nod@V?$_Tmap_traits@KU_PacketRecvd@@U?$less@K@std@@V?$allocator@U?$pair@$$CBKU_PacketRecvd@@@std@@@3@$0A@@std@@@std@@IAE@ABU?$less@K@1@V?$allocator@U?$pair@$$CBKU_PacketRecvd@@@std@@@1@@Z 004095a0 f i packetlog.obj
 0001:000085b0       ?allocate@?$allocator@U_Node@?$_Tree_nod@V?$_Tmap_traits@KU_PacketRecvd@@U?$less@K@std@@V?$allocator@U?$pair@$$CBKU_PacketRecvd@@@std@@@3@$0A@@std@@@std@@@std@@QAEPAU_Node@?$_Tree_nod@V?$_Tmap_traits@KU_PacketRecvd@@U?$less@K@std@@V?$allocator@U?$pair@$$CBKU_PacketRecvd@@@std@@@3@$0A@@std@@@2@I@Z 004095b0 f i packetlog.obj
 0001:000085d0       ?construct@?$allocator@PAU_Node@?$_Tree_nod@V?$_Tmap_traits@KU_PacketRecvd@@U?$less@K@std@@V?$allocator@U?$pair@$$CBKU_PacketRecvd@@@std@@@3@$0A@@std@@@std@@@std@@QAEXPAPAU_Node@?$_Tree_nod@V?$_Tmap_traits@KU_PacketRecvd@@U?$less@K@std@@V?$allocator@U?$pair@$$CBKU_PacketRecvd@@@std@@@3@$0A@@std@@@2@ABQAU342@@Z 004095d0 f i packetlog.obj
 0001:000085f0       ?allocate@?$allocator@U_Node@?$_Tree_nod@V?$_Tmap_traits@KU_PlayerRecvd@@U?$less@K@std@@V?$allocator@U?$pair@$$CBKU_PlayerRecvd@@@std@@@3@$0A@@std@@@std@@@std@@QAEPAU_Node@?$_Tree_nod@V?$_Tmap_traits@KU_PlayerRecvd@@U?$less@K@std@@V?$allocator@U?$pair@$$CBKU_PlayerRecvd@@@std@@@3@$0A@@std@@@2@I@Z 004095f0 f i packetlog.obj
 0001:00008610       ?_Dec@const_iterator@?$_Tree@V?$_Tmap_traits@KU_PlayerRecvd@@U?$less@K@std@@V?$allocator@U?$pair@$$CBKU_PlayerRecvd@@@std@@@3@$0A@@std@@@std@@QAEXXZ 00409610 f i packetlog.obj
 0001:00008670       ?destroy@?$allocator@U_Node@?$_Tree_nod@V?$_Tmap_traits@KU_PacketRecvd@@U?$less@K@std@@V?$allocator@U?$pair@$$CBKU_PacketRecvd@@@std@@@3@$0A@@std@@@std@@@std@@QAEXPAU_Node@?$_Tree_nod@V?$_Tmap_traits@KU_PacketRecvd@@U?$less@K@std@@V?$allocator@U?$pair@$$CBKU_PacketRecvd@@@std@@@3@$0A@@std@@@2@@Z 00409670 f i packetlog.obj
 0001:00008680       ??0?$_Tree_nod@V?$_Tmap_traits@KU_PlayerRecvd@@U?$less@K@std@@V?$allocator@U?$pair@$$CBKU_PlayerRecvd@@@std@@@3@$0A@@std@@@std@@IAE@ABU?$less@K@1@V?$allocator@U?$pair@$$CBKU_PlayerRecvd@@@std@@@1@@Z 00409680 f i packetlog.obj
 0001:00008690       ?construct@?$allocator@PAU_Node@?$_Tree_nod@V?$_Tmap_traits@KU_PlayerRecvd@@U?$less@K@std@@V?$allocator@U?$pair@$$CBKU_PlayerRecvd@@@std@@@3@$0A@@std@@@std@@@std@@QAEXPAPAU_Node@?$_Tree_nod@V?$_Tmap_traits@KU_PlayerRecvd@@U?$less@K@std@@V?$allocator@U?$pair@$$CBKU_PlayerRecvd@@@std@@@3@$0A@@std@@@2@ABQAU342@@Z 00409690 f i packetlog.obj
 0001:000086b0       ??$copy_backward@PAU_PacketRecvd@@PAU1@@std@@YAPAU_PacketRecvd@@PAU1@00@Z 004096b0 f i packetlog.obj
 0001:000086d0       ?construct@?$allocator@U_PacketRecvd@@@std@@QAEXPAU_PacketRecvd@@ABU3@@Z 004096d0 f i packetlog.obj
 0001:000086f0       ?destroy@?$allocator@U_PacketRecvd@@@std@@QAEXPAU_PacketRecvd@@@Z 004096f0 f i packetlog.obj
 0001:00008700       ??$_Uninit_copy@PAU_PacketRecvd@@PAU1@V?$allocator@U_PacketRecvd@@@std@@@std@@YAPAU_PacketRecvd@@PAU1@00AAV?$allocator@U_PacketRecvd@@@0@U_Nonscalar_ptr_iterator_tag@0@@Z 00409700 f i packetlog.obj
 0001:00008740       ??Giterator@?$vector@U_PlayerRecvd@@V?$allocator@U_PlayerRecvd@@@std@@@std@@QBE?AV012@H@Z 00409740 f i packetlog.obj
 0001:00008760       ??Giterator@?$vector@U_PacketRecvd@@V?$allocator@U_PacketRecvd@@@std@@@std@@QBE?AV012@H@Z 00409760 f i packetlog.obj
 0001:00008780       ??$iter_swap@Viterator@?$vector@U_PacketRecvd@@V?$allocator@U_PacketRecvd@@@std@@@std@@V123@@std@@YAXViterator@?$vector@U_PacketRecvd@@V?$allocator@U_PacketRecvd@@@std@@@0@0@Z 00409780 f i packetlog.obj
 0001:000087c0       ??$_Med3@Viterator@?$vector@U_PacketRecvd@@V?$allocator@U_PacketRecvd@@@std@@@std@@P6A_NAAU_PacketRecvd@@0@Z@std@@YAXViterator@?$vector@U_PacketRecvd@@V?$allocator@U_PacketRecvd@@@std@@@0@00P6A_NAAU_PacketRecvd@@1@Z@Z 004097c0 f i packetlog.obj
 0001:00008890       ??$_Push_heap@Viterator@?$vector@U_PacketRecvd@@V?$allocator@U_PacketRecvd@@@std@@@std@@HU_PacketRecvd@@P6A_NAAU4@0@Z@std@@YAXViterator@?$vector@U_PacketRecvd@@V?$allocator@U_PacketRecvd@@@std@@@0@HHU_PacketRecvd@@P6A_NAAU3@2@Z@Z 00409890 f i packetlog.obj
 0001:00008920       ??$_Rotate@Viterator@?$vector@U_PacketRecvd@@V?$allocator@U_PacketRecvd@@@std@@@std@@HU_PacketRecvd@@@std@@YAXViterator@?$vector@U_PacketRecvd@@V?$allocator@U_PacketRecvd@@@std@@@0@00PAHPAU_PacketRecvd@@@Z 00409920 f i packetlog.obj
 0001:00008a50       ?begin@?$_Tree@V?$_Tmap_traits@KU_PacketRecvd@@U?$less@K@std@@V?$allocator@U?$pair@$$CBKU_PacketRecvd@@@std@@@3@$0A@@std@@@std@@QAE?AViterator@12@XZ 00409a50 f i packetlog.obj
 0001:00008a60       ?end@?$_Tree@V?$_Tmap_traits@KU_PacketRecvd@@U?$less@K@std@@V?$allocator@U?$pair@$$CBKU_PacketRecvd@@@std@@@3@$0A@@std@@@std@@QAE?AViterator@12@XZ 00409a60 f i packetlog.obj
 0001:00008a70       ?begin@?$_Tree@V?$_Tmap_traits@KU_PlayerRecvd@@U?$less@K@std@@V?$allocator@U?$pair@$$CBKU_PlayerRecvd@@@std@@@3@$0A@@std@@@std@@QAE?AViterator@12@XZ 00409a70 f i packetlog.obj
 0001:00008a80       ?end@?$_Tree@V?$_Tmap_traits@KU_PlayerRecvd@@U?$less@K@std@@V?$allocator@U?$pair@$$CBKU_PlayerRecvd@@@std@@@3@$0A@@std@@@std@@QAE?AViterator@12@XZ 00409a80 f i packetlog.obj
 0001:00008a90       ??Citerator@?$_Tree@V?$_Tmap_traits@KU_PlayerRecvd@@U?$less@K@std@@V?$allocator@U?$pair@$$CBKU_PlayerRecvd@@@std@@@3@$0A@@std@@@std@@QBEPAU?$pair@$$CBKU_PlayerRecvd@@@2@XZ 00409a90 f i packetlog.obj
 0001:00008aa0       ??Citerator@?$_Tree@V?$_Tmap_traits@KU_PacketRecvd@@U?$less@K@std@@V?$allocator@U?$pair@$$CBKU_PacketRecvd@@@std@@@3@$0A@@std@@@std@@QBEPAU?$pair@$$CBKU_PacketRecvd@@@2@XZ 00409aa0 f i packetlog.obj
 0001:00008ab0       ??Eiterator@?$_Tree@V?$_Tmap_traits@KU_PacketRecvd@@U?$less@K@std@@V?$allocator@U?$pair@$$CBKU_PacketRecvd@@@std@@@3@$0A@@std@@@std@@QAEAAV012@XZ 00409ab0 f i packetlog.obj
 0001:00008ac0       ?begin@?$vector@U_PlayerRecvd@@V?$allocator@U_PlayerRecvd@@@std@@@std@@QAE?AViterator@12@XZ 00409ac0 f i packetlog.obj
 0001:00008ad0       ?end@?$vector@U_PlayerRecvd@@V?$allocator@U_PlayerRecvd@@@std@@@std@@QAE?AViterator@12@XZ 00409ad0 f i packetlog.obj
 0001:00008ae0       ??Citerator@?$vector@U_PlayerRecvd@@V?$allocator@U_PlayerRecvd@@@std@@@std@@QBEPAU_PlayerRecvd@@XZ 00409ae0 f i packetlog.obj
 0001:00008af0       ?begin@?$vector@U_PacketRecvd@@V?$allocator@U_PacketRecvd@@@std@@@std@@QAE?AViterator@12@XZ 00409af0 f i packetlog.obj
 0001:00008b00       ?end@?$vector@U_PacketRecvd@@V?$allocator@U_PacketRecvd@@@std@@@std@@QAE?AViterator@12@XZ 00409b00 f i packetlog.obj
 0001:00008b10       ??Citerator@?$vector@U_PacketRecvd@@V?$allocator@U_PacketRecvd@@@std@@@std@@QBEPAU_PacketRecvd@@XZ 00409b10 f i packetlog.obj
 0001:00008b20       ?lower_bound@?$_Tree@V?$_Tmap_traits@KU_PacketRecvd@@U?$less@K@std@@V?$allocator@U?$pair@$$CBKU_PacketRecvd@@@std@@@3@$0A@@std@@@std@@QAE?AViterator@12@ABK@Z 00409b20 f i packetlog.obj
 0001:00008b60       ?lower_bound@?$_Tree@V?$_Tmap_traits@KU_PlayerRecvd@@U?$less@K@std@@V?$allocator@U?$pair@$$CBKU_PlayerRecvd@@@std@@@3@$0A@@std@@@std@@QAE?AViterator@12@ABK@Z 00409b60 f i packetlog.obj
 0001:00008ba0       ??Econst_iterator@?$_Tree@V?$_Tmap_traits@KU_PlayerRecvd@@U?$less@K@std@@V?$allocator@U?$pair@$$CBKU_PlayerRecvd@@@std@@@3@$0A@@std@@@std@@QAEAAV012@XZ 00409ba0 f i packetlog.obj
 0001:00008bb0       ??Fiterator@?$_Tree@V?$_Tmap_traits@KU_PacketRecvd@@U?$less@K@std@@V?$allocator@U?$pair@$$CBKU_PacketRecvd@@@std@@@3@$0A@@std@@@std@@QAEAAV012@XZ 00409bb0 f i packetlog.obj
 0001:00008bc0       ?_Buynode@?$_Tree@V?$_Tmap_traits@KU_PacketRecvd@@U?$less@K@std@@V?$allocator@U?$pair@$$CBKU_PacketRecvd@@@std@@@3@$0A@@std@@@std@@IAEPAU_Node@?$_Tree_nod@V?$_Tmap_traits@KU_PacketRecvd@@U?$less@K@std@@V?$allocator@U?$pair@$$CBKU_PacketRecvd@@@std@@@3@$0A@@std@@@2@XZ 00409bc0 f i packetlog.obj
 0001:00008c00       ?_Buynode@?$_Tree@V?$_Tmap_traits@KU_PacketRecvd@@U?$less@K@std@@V?$allocator@U?$pair@$$CBKU_PacketRecvd@@@std@@@3@$0A@@std@@@std@@IAEPAU_Node@?$_Tree_nod@V?$_Tmap_traits@KU_PacketRecvd@@U?$less@K@std@@V?$allocator@U?$pair@$$CBKU_PacketRecvd@@@std@@@3@$0A@@std@@@2@PAU342@00ABU?$pair@$$CBKU_PacketRecvd@@@2@D@Z 00409c00 f i packetlog.obj
 0001:00008c50       ??0?$_Tree_ptr@V?$_Tmap_traits@KU_PacketRecvd@@U?$less@K@std@@V?$allocator@U?$pair@$$CBKU_PacketRecvd@@@std@@@3@$0A@@std@@@std@@IAE@ABU?$less@K@1@V?$allocator@U?$pair@$$CBKU_PacketRecvd@@@std@@@1@@Z 00409c50 f i packetlog.obj
 0001:00008c60       ??Fconst_iterator@?$_Tree@V?$_Tmap_traits@KU_PlayerRecvd@@U?$less@K@std@@V?$allocator@U?$pair@$$CBKU_PlayerRecvd@@@std@@@3@$0A@@std@@@std@@QAEAAV012@XZ 00409c60 f i packetlog.obj
 0001:00008c70       ?_Erase@?$_Tree@V?$_Tmap_traits@KU_PacketRecvd@@U?$less@K@std@@V?$allocator@U?$pair@$$CBKU_PacketRecvd@@@std@@@3@$0A@@std@@@std@@IAEXPAU_Node@?$_Tree_nod@V?$_Tmap_traits@KU_PacketRecvd@@U?$less@K@std@@V?$allocator@U?$pair@$$CBKU_PacketRecvd@@@std@@@3@$0A@@std@@@2@@Z 00409c70 f i packetlog.obj
 0001:00008cb0       ?_Buynode@?$_Tree@V?$_Tmap_traits@KU_PlayerRecvd@@U?$less@K@std@@V?$allocator@U?$pair@$$CBKU_PlayerRecvd@@@std@@@3@$0A@@std@@@std@@IAEPAU_Node@?$_Tree_nod@V?$_Tmap_traits@KU_PlayerRecvd@@U?$less@K@std@@V?$allocator@U?$pair@$$CBKU_PlayerRecvd@@@std@@@3@$0A@@std@@@2@XZ 00409cb0 f i packetlog.obj
 0001:00008cf0       ??0?$_Tree_ptr@V?$_Tmap_traits@KU_PlayerRecvd@@U?$less@K@std@@V?$allocator@U?$pair@$$CBKU_PlayerRecvd@@@std@@@3@$0A@@std@@@std@@IAE@ABU?$less@K@1@V?$allocator@U?$pair@$$CBKU_PlayerRecvd@@@std@@@1@@Z 00409cf0 f i packetlog.obj
 0001:00008d00       ??Eiterator@?$_Tree@V?$_Tmap_traits@KU_PacketRecvd@@U?$less@K@std@@V?$allocator@U?$pair@$$CBKU_PacketRecvd@@@std@@@3@$0A@@std@@@std@@QAE?AV012@H@Z 00409d00 f i packetlog.obj
 0001:00008d20       ??$_Uninit_fill_n@PAU_PacketRecvd@@IU1@V?$allocator@U_PacketRecvd@@@std@@@std@@YAXPAU_PacketRecvd@@IABU1@AAV?$allocator@U_PacketRecvd@@@0@U_Nonscalar_ptr_iterator_tag@0@@Z 00409d20 f i packetlog.obj
 0001:00008d60       ??$_Destroy_range@U_PacketRecvd@@V?$allocator@U_PacketRecvd@@@std@@@std@@YAXPAU_PacketRecvd@@0AAV?$allocator@U_PacketRecvd@@@0@U_Nonscalar_ptr_iterator_tag@0@@Z 00409d60 f i packetlog.obj
 0001:00008d70       ??$_Uninitialized_copy@PAU_PacketRecvd@@PAU1@V?$allocator@U_PacketRecvd@@@std@@@std@@YAPAU_PacketRecvd@@PAU1@00AAV?$allocator@U_PacketRecvd@@@0@@Z 00409d70 f i packetlog.obj
 0001:00008da0       ??$_Median@Viterator@?$vector@U_PacketRecvd@@V?$allocator@U_PacketRecvd@@@std@@@std@@P6A_NAAU_PacketRecvd@@0@Z@std@@YAXViterator@?$vector@U_PacketRecvd@@V?$allocator@U_PacketRecvd@@@std@@@0@00P6A_NAAU_PacketRecvd@@1@Z@Z 00409da0 f i packetlog.obj
 0001:00008e50       ??$_Adjust_heap@Viterator@?$vector@U_PacketRecvd@@V?$allocator@U_PacketRecvd@@@std@@@std@@HU_PacketRecvd@@P6A_NAAU4@0@Z@std@@YAXViterator@?$vector@U_PacketRecvd@@V?$allocator@U_PacketRecvd@@@std@@@0@HHU_PacketRecvd@@P6A_NAAU3@2@Z@Z 00409e50 f i packetlog.obj
 0001:00008f10       ??$_Rotate@Viterator@?$vector@U_PacketRecvd@@V?$allocator@U_PacketRecvd@@@std@@@std@@@std@@YAXViterator@?$vector@U_PacketRecvd@@V?$allocator@U_PacketRecvd@@@std@@@0@00Urandom_access_iterator_tag@0@@Z 00409f10 f i packetlog.obj
 0001:00008f30       ??$_Pop_heap@Viterator@?$vector@U_PacketRecvd@@V?$allocator@U_PacketRecvd@@@std@@@std@@HU_PacketRecvd@@P6A_NAAU4@0@Z@std@@YAXViterator@?$vector@U_PacketRecvd@@V?$allocator@U_PacketRecvd@@@std@@@0@00U_PacketRecvd@@P6A_NAAU3@2@ZPAH@Z 00409f30 f i packetlog.obj
 0001:00008f90       ?find@?$_Tree@V?$_Tmap_traits@KU_PacketRecvd@@U?$less@K@std@@V?$allocator@U?$pair@$$CBKU_PacketRecvd@@@std@@@3@$0A@@std@@@std@@QAE?AViterator@12@ABK@Z 00409f90 f i packetlog.obj
 0001:00009000       ?find@?$_Tree@V?$_Tmap_traits@KU_PlayerRecvd@@U?$less@K@std@@V?$allocator@U?$pair@$$CBKU_PlayerRecvd@@@std@@@3@$0A@@std@@@std@@QAE?AViterator@12@ABK@Z 0040a000 f i packetlog.obj
 0001:00009070       ??Eiterator@?$_Tree@V?$_Tmap_traits@KU_PlayerRecvd@@U?$less@K@std@@V?$allocator@U?$pair@$$CBKU_PlayerRecvd@@@std@@@3@$0A@@std@@@std@@QAEAAV012@XZ 0040a070 f i packetlog.obj
 0001:00009080       ?_Init@?$_Tree@V?$_Tmap_traits@KU_PacketRecvd@@U?$less@K@std@@V?$allocator@U?$pair@$$CBKU_PacketRecvd@@@std@@@3@$0A@@std@@@std@@IAEXXZ 0040a080 f i packetlog.obj
 0001:000090b0       ??0?$_Tree_val@V?$_Tmap_traits@KU_PacketRecvd@@U?$less@K@std@@V?$allocator@U?$pair@$$CBKU_PacketRecvd@@@std@@@3@$0A@@std@@@std@@IAE@ABU?$less@K@1@V?$allocator@U?$pair@$$CBKU_PacketRecvd@@@std@@@1@@Z 0040a0b0 f i packetlog.obj
 0001:000090c0       ??Fiterator@?$_Tree@V?$_Tmap_traits@KU_PlayerRecvd@@U?$less@K@std@@V?$allocator@U?$pair@$$CBKU_PlayerRecvd@@@std@@@3@$0A@@std@@@std@@QAEAAV012@XZ 0040a0c0 f i packetlog.obj
 0001:000090d0       ?_Copy@?$_Tree@V?$_Tmap_traits@KU_PacketRecvd@@U?$less@K@std@@V?$allocator@U?$pair@$$CBKU_PacketRecvd@@@std@@@3@$0A@@std@@@std@@IAEPAU_Node@?$_Tree_nod@V?$_Tmap_traits@KU_PacketRecvd@@U?$less@K@std@@V?$allocator@U?$pair@$$CBKU_PacketRecvd@@@std@@@3@$0A@@std@@@2@PAU342@0@Z 0040a0d0 f i packetlog.obj
 0001:00009180       ?_Init@?$_Tree@V?$_Tmap_traits@KU_PlayerRecvd@@U?$less@K@std@@V?$allocator@U?$pair@$$CBKU_PlayerRecvd@@@std@@@3@$0A@@std@@@std@@IAEXXZ 0040a180 f i packetlog.obj
 0001:000091b0       ??0?$_Tree_val@V?$_Tmap_traits@KU_PlayerRecvd@@U?$less@K@std@@V?$allocator@U?$pair@$$CBKU_PlayerRecvd@@@std@@@3@$0A@@std@@@std@@IAE@ABU?$less@K@1@V?$allocator@U?$pair@$$CBKU_PlayerRecvd@@@std@@@1@@Z 0040a1b0 f i packetlog.obj
 0001:000091c0       ?clear@?$_Tree@V?$_Tmap_traits@KU_PacketRecvd@@U?$less@K@std@@V?$allocator@U?$pair@$$CBKU_PacketRecvd@@@std@@@3@$0A@@std@@@std@@QAEXXZ 0040a1c0 f i packetlog.obj
 0001:000091f0       ??Eiterator@?$_Tree@V?$_Tmap_traits@KU_PlayerRecvd@@U?$less@K@std@@V?$allocator@U?$pair@$$CBKU_PlayerRecvd@@@std@@@3@$0A@@std@@@std@@QAE?AV012@H@Z 0040a1f0 f i packetlog.obj
 0001:00009210       ??$_Uninitialized_fill_n@PAU_PacketRecvd@@IU1@V?$allocator@U_PacketRecvd@@@std@@@std@@YAXPAU_PacketRecvd@@IABU1@AAV?$allocator@U_PacketRecvd@@@0@@Z 0040a210 f i packetlog.obj
 0001:00009240       ??$_Destroy_range@U_PacketRecvd@@V?$allocator@U_PacketRecvd@@@std@@@std@@YAXPAU_PacketRecvd@@0AAV?$allocator@U_PacketRecvd@@@0@@Z 0040a240 f i packetlog.obj
 0001:00009250       ??$_Ucopy@PAU_PacketRecvd@@@?$vector@U_PacketRecvd@@V?$allocator@U_PacketRecvd@@@std@@@std@@IAEPAU_PacketRecvd@@PAU2@00@Z 0040a250 f i packetlog.obj
 0001:00009270       ??$_Unguarded_partition@Viterator@?$vector@U_PacketRecvd@@V?$allocator@U_PacketRecvd@@@std@@@std@@P6A_NAAU_PacketRecvd@@0@Z@std@@YA?AU?$pair@Viterator@?$vector@U_PacketRecvd@@V?$allocator@U_PacketRecvd@@@std@@@std@@V123@@0@Viterator@?$vector@U_PacketRecvd@@V?$allocator@U_PacketRecvd@@@std@@@0@0P6A_NAAU_PacketRecvd@@1@Z@Z 0040a270 f i packetlog.obj
 0001:000095b0       ??$_Make_heap@Viterator@?$vector@U_PacketRecvd@@V?$allocator@U_PacketRecvd@@@std@@@std@@HU_PacketRecvd@@P6A_NAAU4@0@Z@std@@YAXViterator@?$vector@U_PacketRecvd@@V?$allocator@U_PacketRecvd@@@std@@@0@0P6A_NAAU_PacketRecvd@@1@ZPAHPAU3@@Z 0040a5b0 f i packetlog.obj
 0001:00009620       ??$rotate@Viterator@?$vector@U_PacketRecvd@@V?$allocator@U_PacketRecvd@@@std@@@std@@@std@@YAXViterator@?$vector@U_PacketRecvd@@V?$allocator@U_PacketRecvd@@@std@@@0@00@Z 0040a620 f i packetlog.obj
 0001:00009650       ??$_Pop_heap_0@Viterator@?$vector@U_PacketRecvd@@V?$allocator@U_PacketRecvd@@@std@@@std@@U_PacketRecvd@@P6A_NAAU4@0@Z@std@@YAXViterator@?$vector@U_PacketRecvd@@V?$allocator@U_PacketRecvd@@@std@@@0@0P6A_NAAU_PacketRecvd@@1@ZPAU3@@Z 0040a650 f i packetlog.obj
 0001:00009690       ??0?$_Tree@V?$_Tmap_traits@KU_PacketRecvd@@U?$less@K@std@@V?$allocator@U?$pair@$$CBKU_PacketRecvd@@@std@@@3@$0A@@std@@@std@@QAE@ABU?$less@K@1@ABV?$allocator@U?$pair@$$CBKU_PacketRecvd@@@std@@@1@@Z 0040a690 f i packetlog.obj
 0001:000096c0       ?_Copy@?$_Tree@V?$_Tmap_traits@KU_PacketRecvd@@U?$less@K@std@@V?$allocator@U?$pair@$$CBKU_PacketRecvd@@@std@@@3@$0A@@std@@@std@@IAEXABV12@@Z 0040a6c0 f i packetlog.obj
 0001:00009750       ??0?$_Tree@V?$_Tmap_traits@KU_PlayerRecvd@@U?$less@K@std@@V?$allocator@U?$pair@$$CBKU_PlayerRecvd@@@std@@@3@$0A@@std@@@std@@QAE@ABU?$less@K@1@ABV?$allocator@U?$pair@$$CBKU_PlayerRecvd@@@std@@@1@@Z 0040a750 f i packetlog.obj
 0001:00009780       ?_Ufill@?$vector@U_PacketRecvd@@V?$allocator@U_PacketRecvd@@@std@@@std@@IAEPAU_PacketRecvd@@PAU3@IABU3@@Z 0040a780 f i packetlog.obj
 0001:000097b0       ?_Destroy@?$vector@U_PacketRecvd@@V?$allocator@U_PacketRecvd@@@std@@@std@@IAEXPAU_PacketRecvd@@0@Z 0040a7b0 f i packetlog.obj
 0001:000097c0       ??$make_heap@Viterator@?$vector@U_PacketRecvd@@V?$allocator@U_PacketRecvd@@@std@@@std@@P6A_NAAU_PacketRecvd@@0@Z@std@@YAXViterator@?$vector@U_PacketRecvd@@V?$allocator@U_PacketRecvd@@@std@@@0@0P6A_NAAU_PacketRecvd@@1@Z@Z 0040a7c0 f i packetlog.obj
 0001:00009800       ??$_Insertion_sort@Viterator@?$vector@U_PacketRecvd@@V?$allocator@U_PacketRecvd@@@std@@@std@@P6A_NAAU_PacketRecvd@@0@Z@std@@YAXViterator@?$vector@U_PacketRecvd@@V?$allocator@U_PacketRecvd@@@std@@@0@0P6A_NAAU_PacketRecvd@@1@Z@Z 0040a800 f i packetlog.obj
 0001:000098a0       ??$pop_heap@Viterator@?$vector@U_PacketRecvd@@V?$allocator@U_PacketRecvd@@@std@@@std@@P6A_NAAU_PacketRecvd@@0@Z@std@@YAXViterator@?$vector@U_PacketRecvd@@V?$allocator@U_PacketRecvd@@@std@@@0@0P6A_NAAU_PacketRecvd@@1@Z@Z 0040a8a0 f i packetlog.obj
 0001:00009900       ?_Tidy@?$vector@U_PacketRecvd@@V?$allocator@U_PacketRecvd@@@std@@@std@@IAEXXZ 0040a900 f i packetlog.obj
 0001:00009930       ??$sort_heap@Viterator@?$vector@U_PacketRecvd@@V?$allocator@U_PacketRecvd@@@std@@@std@@P6A_NAAU_PacketRecvd@@0@Z@std@@YAXViterator@?$vector@U_PacketRecvd@@V?$allocator@U_PacketRecvd@@@std@@@0@0P6A_NAAU_PacketRecvd@@1@Z@Z 0040a930 f i packetlog.obj
 0001:000099d0       ??1?$vector@U_PacketRecvd@@V?$allocator@U_PacketRecvd@@@std@@@std@@QAE@XZ 0040a9d0 f i packetlog.obj
 0001:00009a00       ??$_Sort@Viterator@?$vector@U_PacketRecvd@@V?$allocator@U_PacketRecvd@@@std@@@std@@HP6A_NAAU_PacketRecvd@@0@Z@std@@YAXViterator@?$vector@U_PacketRecvd@@V?$allocator@U_PacketRecvd@@@std@@@0@0HP6A_NAAU_PacketRecvd@@1@Z@Z 0040aa00 f i packetlog.obj
 0001:00009b40       ?_Insert@?$_Tree@V?$_Tmap_traits@KU_PacketRecvd@@U?$less@K@std@@V?$allocator@U?$pair@$$CBKU_PacketRecvd@@@std@@@3@$0A@@std@@@std@@IAE?AViterator@12@_NPAU_Node@?$_Tree_nod@V?$_Tmap_traits@KU_PacketRecvd@@U?$less@K@std@@V?$allocator@U?$pair@$$CBKU_PacketRecvd@@@std@@@3@$0A@@std@@@2@ABU?$pair@$$CBKU_PacketRecvd@@@2@@Z 0040ab40 f i packetlog.obj
 0001:00009cf0       ?_Xlen@?$vector@U_PlayerRecvd@@V?$allocator@U_PlayerRecvd@@@std@@@std@@IBEXXZ 0040acf0 f i packetlog.obj
 0001:00009d60       ?_Xlen@?$vector@U_PacketRecvd@@V?$allocator@U_PacketRecvd@@@std@@@std@@IBEXXZ 0040ad60 f i packetlog.obj
 0001:00009dd0       ?erase@?$_Tree@V?$_Tmap_traits@KU_PacketRecvd@@U?$less@K@std@@V?$allocator@U?$pair@$$CBKU_PacketRecvd@@@std@@@3@$0A@@std@@@std@@QAE?AViterator@12@V312@@Z 0040add0 f i packetlog.obj
 0001:0000a090       ??$sort@Viterator@?$vector@U_PacketRecvd@@V?$allocator@U_PacketRecvd@@@std@@@std@@P6A_NAAU_PacketRecvd@@0@Z@std@@YAXViterator@?$vector@U_PacketRecvd@@V?$allocator@U_PacketRecvd@@@std@@@0@0P6A_NAAU_PacketRecvd@@1@Z@Z 0040b090 f i packetlog.obj
 0001:0000a0d0       ?insert@?$_Tree@V?$_Tmap_traits@KU_PacketRecvd@@U?$less@K@std@@V?$allocator@U?$pair@$$CBKU_PacketRecvd@@@std@@@3@$0A@@std@@@std@@QAE?AU?$pair@Viterator@?$_Tree@V?$_Tmap_traits@KU_PacketRecvd@@U?$less@K@std@@V?$allocator@U?$pair@$$CBKU_PacketRecvd@@@std@@@3@$0A@@std@@@std@@_N@2@ABU?$pair@$$CBKU_PacketRecvd@@@2@@Z 0040b0d0 f i packetlog.obj
 0001:0000a190       ?_Buy@?$vector@U_PlayerRecvd@@V?$allocator@U_PlayerRecvd@@@std@@@std@@IAE_NI@Z 0040b190 f i packetlog.obj
 0001:0000a1e0       ?_Buy@?$vector@U_PacketRecvd@@V?$allocator@U_PacketRecvd@@@std@@@std@@IAE_NI@Z 0040b1e0 f i packetlog.obj
 0001:0000a230       ?erase@?$_Tree@V?$_Tmap_traits@KU_PacketRecvd@@U?$less@K@std@@V?$allocator@U?$pair@$$CBKU_PacketRecvd@@@std@@@3@$0A@@std@@@std@@QAE?AViterator@12@V312@0@Z 0040b230 f i packetlog.obj
 0001:0000a2f0       ?_Insert_n@?$vector@U_PacketRecvd@@V?$allocator@U_PacketRecvd@@@std@@@std@@IAEXViterator@12@IABU_PacketRecvd@@@Z 0040b2f0 f i packetlog.obj
 0001:0000a5b0       ??4?$_Tree@V?$_Tmap_traits@KU_PacketRecvd@@U?$less@K@std@@V?$allocator@U?$pair@$$CBKU_PacketRecvd@@@std@@@3@$0A@@std@@@std@@QAEAAV01@ABV01@@Z 0040b5b0 f i packetlog.obj
 0001:0000a5e0       ??0?$vector@U_PlayerRecvd@@V?$allocator@U_PlayerRecvd@@@std@@@std@@QAE@XZ 0040b5e0 f i packetlog.obj
 0001:0000a5f0       ??0?$vector@U_PacketRecvd@@V?$allocator@U_PacketRecvd@@@std@@@std@@QAE@XZ 0040b5f0 f i packetlog.obj
 0001:0000a600       ?_Tidy@?$_Tree@V?$_Tmap_traits@KU_PacketRecvd@@U?$less@K@std@@V?$allocator@U?$pair@$$CBKU_PacketRecvd@@@std@@@3@$0A@@std@@@std@@IAEXXZ 0040b600 f i packetlog.obj
 0001:0000a630       ?insert@?$vector@U_PacketRecvd@@V?$allocator@U_PacketRecvd@@@std@@@std@@QAE?AViterator@12@V312@ABU_PacketRecvd@@@Z 0040b630 f i packetlog.obj
 0001:0000a6a0       ??4?$map@KU_PacketRecvd@@U?$less@K@std@@V?$allocator@U?$pair@$$CBKU_PacketRecvd@@@std@@@3@@std@@QAEAAV01@ABV01@@Z 0040b6a0 f i packetlog.obj
 0001:0000a6d0       ??0?$_Tree@V?$_Tmap_traits@KU_PacketRecvd@@U?$less@K@std@@V?$allocator@U?$pair@$$CBKU_PacketRecvd@@@std@@@3@$0A@@std@@@std@@QAE@ABV01@@Z 0040b6d0 f i packetlog.obj
 0001:0000a760       ??1?$_Tree@V?$_Tmap_traits@KU_PacketRecvd@@U?$less@K@std@@V?$allocator@U?$pair@$$CBKU_PacketRecvd@@@std@@@3@$0A@@std@@@std@@QAE@XZ 0040b760 f i packetlog.obj
 0001:0000a790       ?push_back@?$vector@U_PacketRecvd@@V?$allocator@U_PacketRecvd@@@std@@@std@@QAEXABU_PacketRecvd@@@Z 0040b790 f i packetlog.obj
 0001:0000a810       ??4_PlayerRecvd@@QAEAAU0@ABU0@@Z 0040b810 f i packetlog.obj
 0001:0000a860       ??$_Copy_backward_opt@PAU_PlayerRecvd@@PAU1@@std@@YAPAU_PlayerRecvd@@PAU1@00U_Nonscalar_ptr_iterator_tag@0@@Z 0040b860 f i packetlog.obj
 0001:0000a8e0       ??0?$map@KU_PacketRecvd@@U?$less@K@std@@V?$allocator@U?$pair@$$CBKU_PacketRecvd@@@std@@@3@@std@@QAE@ABV01@@Z 0040b8e0 f i packetlog.obj
 0001:0000a900       ??1?$map@KU_PacketRecvd@@U?$less@K@std@@V?$allocator@U?$pair@$$CBKU_PacketRecvd@@@std@@@3@@std@@QAE@XZ 0040b900 f i packetlog.obj
 0001:0000a930       ??1_PlayerRecvd@@QAE@XZ    0040b930 f i packetlog.obj
 0001:0000a960       ??1?$pair@$$CBKU_PlayerRecvd@@@std@@QAE@XZ 0040b960 f i packetlog.obj
 0001:0000a990       ??0?$map@KU_PacketRecvd@@U?$less@K@std@@V?$allocator@U?$pair@$$CBKU_PacketRecvd@@@std@@@3@@std@@QAE@XZ 0040b990 f i packetlog.obj
 0001:0000a9c0       ??0_PlayerRecvd@@QAE@ABU0@@Z 0040b9c0 f i packetlog.obj
 0001:0000a9f0       ??0?$pair@$$CBKU_PlayerRecvd@@@std@@QAE@ABU01@@Z 0040b9f0 f i packetlog.obj
 0001:0000aa20       ??$fill@PAU_PlayerRecvd@@U1@@std@@YAXPAU_PlayerRecvd@@0ABU1@@Z 0040ba20 f i packetlog.obj
 0001:0000aa90       ??$copy_backward@PAU_PlayerRecvd@@PAU1@@std@@YAPAU_PlayerRecvd@@PAU1@00@Z 0040ba90 f i packetlog.obj
 0001:0000aab0       ??1_Node@?$_Tree_nod@V?$_Tmap_traits@KU_PlayerRecvd@@U?$less@K@std@@V?$allocator@U?$pair@$$CBKU_PlayerRecvd@@@std@@@3@$0A@@std@@@std@@QAE@XZ 0040bab0 f i packetlog.obj
 0001:0000aae0       ??$_Construct@U_PlayerRecvd@@U1@@std@@YAXPAU_PlayerRecvd@@ABU1@@Z 0040bae0 f i packetlog.obj
 0001:0000ab40       ??_G_PlayerRecvd@@QAEPAXI@Z 0040bb40 f i packetlog.obj
 0001:0000ab60       ??$swap@U_PlayerRecvd@@@std@@YAXAAU_PlayerRecvd@@0@Z 0040bb60 f i packetlog.obj
 0001:0000ac60       ??$_Push_heap@Viterator@?$vector@U_PlayerRecvd@@V?$allocator@U_PlayerRecvd@@@std@@@std@@HU_PlayerRecvd@@P6A_NAAU4@0@Z@std@@YAXViterator@?$vector@U_PlayerRecvd@@V?$allocator@U_PlayerRecvd@@@std@@@0@HHU_PlayerRecvd@@P6A_NAAU3@2@Z@Z 0040bc60 f i packetlog.obj
 0001:0000ad90       ??$_Rotate@Viterator@?$vector@U_PlayerRecvd@@V?$allocator@U_PlayerRecvd@@@std@@@std@@HU_PlayerRecvd@@@std@@YAXViterator@?$vector@U_PlayerRecvd@@V?$allocator@U_PlayerRecvd@@@std@@@0@00PAHPAU_PlayerRecvd@@@Z 0040bd90 f i packetlog.obj
 0001:0000afa0       ??0_PlayerRecvd@@QAE@KKAAV?$map@KU_PacketRecvd@@U?$less@K@std@@V?$allocator@U?$pair@$$CBKU_PacketRecvd@@@std@@@3@@std@@@Z 0040bfa0 f i packetlog.obj
 0001:0000afd0       ??0?$pair@$$CBKU_PlayerRecvd@@@std@@QAE@ABKABU_PlayerRecvd@@@Z 0040bfd0 f i packetlog.obj
 0001:0000b010       ??0_Node@?$_Tree_nod@V?$_Tmap_traits@KU_PlayerRecvd@@U?$less@K@std@@V?$allocator@U?$pair@$$CBKU_PlayerRecvd@@@std@@@3@$0A@@std@@@std@@QAE@PAU012@00ABU?$pair@$$CBKU_PlayerRecvd@@@2@D@Z 0040c010 f i packetlog.obj
 0001:0000b060       ??_G_Node@?$_Tree_nod@V?$_Tmap_traits@KU_PlayerRecvd@@U?$less@K@std@@V?$allocator@U?$pair@$$CBKU_PlayerRecvd@@@std@@@3@$0A@@std@@@std@@QAEPAXI@Z 0040c060 f i packetlog.obj
 0001:0000b080       ?construct@?$allocator@U_PlayerRecvd@@@std@@QAEXPAU_PlayerRecvd@@ABU3@@Z 0040c080 f i packetlog.obj
 0001:0000b0a0       ??$_Destroy@U_PlayerRecvd@@@std@@YAXPAU_PlayerRecvd@@@Z 0040c0a0 f i packetlog.obj
 0001:0000b0b0       ??$iter_swap@Viterator@?$vector@U_PlayerRecvd@@V?$allocator@U_PlayerRecvd@@@std@@@std@@V123@@std@@YAXViterator@?$vector@U_PlayerRecvd@@V?$allocator@U_PlayerRecvd@@@std@@@0@0@Z 0040c0b0 f i packetlog.obj
 0001:0000b0c0       ??$_Med3@Viterator@?$vector@U_PlayerRecvd@@V?$allocator@U_PlayerRecvd@@@std@@@std@@P6A_NAAU_PlayerRecvd@@0@Z@std@@YAXViterator@?$vector@U_PlayerRecvd@@V?$allocator@U_PlayerRecvd@@@std@@@0@00P6A_NAAU_PlayerRecvd@@1@Z@Z 0040c0c0 f i packetlog.obj
 0001:0000b120       ??$_Adjust_heap@Viterator@?$vector@U_PlayerRecvd@@V?$allocator@U_PlayerRecvd@@@std@@@std@@HU_PlayerRecvd@@P6A_NAAU4@0@Z@std@@YAXViterator@?$vector@U_PlayerRecvd@@V?$allocator@U_PlayerRecvd@@@std@@@0@HHU_PlayerRecvd@@P6A_NAAU3@2@Z@Z 0040c120 f i packetlog.obj
 0001:0000b290       ??$_Rotate@Viterator@?$vector@U_PlayerRecvd@@V?$allocator@U_PlayerRecvd@@@std@@@std@@@std@@YAXViterator@?$vector@U_PlayerRecvd@@V?$allocator@U_PlayerRecvd@@@std@@@0@00Urandom_access_iterator_tag@0@@Z 0040c290 f i packetlog.obj
 0001:0000b2b0       ??$_Pop_heap@Viterator@?$vector@U_PlayerRecvd@@V?$allocator@U_PlayerRecvd@@@std@@@std@@HU_PlayerRecvd@@P6A_NAAU4@0@Z@std@@YAXViterator@?$vector@U_PlayerRecvd@@V?$allocator@U_PlayerRecvd@@@std@@@0@00U_PlayerRecvd@@P6A_NAAU3@2@ZPAH@Z 0040c2b0 f i packetlog.obj
 0001:0000b3a0       ?_Buynode@?$_Tree@V?$_Tmap_traits@KU_PlayerRecvd@@U?$less@K@std@@V?$allocator@U?$pair@$$CBKU_PlayerRecvd@@@std@@@3@$0A@@std@@@std@@IAEPAU_Node@?$_Tree_nod@V?$_Tmap_traits@KU_PlayerRecvd@@U?$less@K@std@@V?$allocator@U?$pair@$$CBKU_PlayerRecvd@@@std@@@3@$0A@@std@@@2@PAU342@00ABU?$pair@$$CBKU_PlayerRecvd@@@2@D@Z 0040c3a0 f i packetlog.obj
 0001:0000b430       ??$_Destroy@U_Node@?$_Tree_nod@V?$_Tmap_traits@KU_PlayerRecvd@@U?$less@K@std@@V?$allocator@U?$pair@$$CBKU_PlayerRecvd@@@std@@@3@$0A@@std@@@std@@@std@@YAXPAU_Node@?$_Tree_nod@V?$_Tmap_traits@KU_PlayerRecvd@@U?$less@K@std@@V?$allocator@U?$pair@$$CBKU_PlayerRecvd@@@std@@@3@$0A@@std@@@0@@Z 0040c430 f i packetlog.obj
 0001:0000b440       ?destroy@?$allocator@U_PlayerRecvd@@@std@@QAEXPAU_PlayerRecvd@@@Z 0040c440 f i packetlog.obj
 0001:0000b450       ??$_Uninit_copy@PAU_PlayerRecvd@@PAU1@V?$allocator@U_PlayerRecvd@@@std@@@std@@YAPAU_PlayerRecvd@@PAU1@00AAV?$allocator@U_PlayerRecvd@@@0@U_Nonscalar_ptr_iterator_tag@0@@Z 0040c450 f i packetlog.obj
 0001:0000b520       ??$_Median@Viterator@?$vector@U_PlayerRecvd@@V?$allocator@U_PlayerRecvd@@@std@@@std@@P6A_NAAU_PlayerRecvd@@0@Z@std@@YAXViterator@?$vector@U_PlayerRecvd@@V?$allocator@U_PlayerRecvd@@@std@@@0@00P6A_NAAU_PlayerRecvd@@1@Z@Z 0040c520 f i packetlog.obj
 0001:0000b5d0       ??$_Make_heap@Viterator@?$vector@U_PlayerRecvd@@V?$allocator@U_PlayerRecvd@@@std@@@std@@HU_PlayerRecvd@@P6A_NAAU4@0@Z@std@@YAXViterator@?$vector@U_PlayerRecvd@@V?$allocator@U_PlayerRecvd@@@std@@@0@0P6A_NAAU_PlayerRecvd@@1@ZPAHPAU3@@Z 0040c5d0 f i packetlog.obj
 0001:0000b650       ??$rotate@Viterator@?$vector@U_PlayerRecvd@@V?$allocator@U_PlayerRecvd@@@std@@@std@@@std@@YAXViterator@?$vector@U_PlayerRecvd@@V?$allocator@U_PlayerRecvd@@@std@@@0@00@Z 0040c650 f i packetlog.obj
 0001:0000b680       ??$_Pop_heap_0@Viterator@?$vector@U_PlayerRecvd@@V?$allocator@U_PlayerRecvd@@@std@@@std@@U_PlayerRecvd@@P6A_NAAU4@0@Z@std@@YAXViterator@?$vector@U_PlayerRecvd@@V?$allocator@U_PlayerRecvd@@@std@@@0@0P6A_NAAU_PlayerRecvd@@1@ZPAU3@@Z 0040c680 f i packetlog.obj
 0001:0000b6d0       ?_Insert@?$_Tree@V?$_Tmap_traits@KU_PlayerRecvd@@U?$less@K@std@@V?$allocator@U?$pair@$$CBKU_PlayerRecvd@@@std@@@3@$0A@@std@@@std@@IAE?AViterator@12@_NPAU_Node@?$_Tree_nod@V?$_Tmap_traits@KU_PlayerRecvd@@U?$less@K@std@@V?$allocator@U?$pair@$$CBKU_PlayerRecvd@@@std@@@3@$0A@@std@@@2@ABU?$pair@$$CBKU_PlayerRecvd@@@2@@Z 0040c6d0 f i packetlog.obj
 0001:0000b880       ?destroy@?$allocator@U_Node@?$_Tree_nod@V?$_Tmap_traits@KU_PlayerRecvd@@U?$less@K@std@@V?$allocator@U?$pair@$$CBKU_PlayerRecvd@@@std@@@3@$0A@@std@@@std@@@std@@QAEXPAU_Node@?$_Tree_nod@V?$_Tmap_traits@KU_PlayerRecvd@@U?$less@K@std@@V?$allocator@U?$pair@$$CBKU_PlayerRecvd@@@std@@@3@$0A@@std@@@2@@Z 0040c880 f i packetlog.obj
 0001:0000b890       ?erase@?$_Tree@V?$_Tmap_traits@KU_PlayerRecvd@@U?$less@K@std@@V?$allocator@U?$pair@$$CBKU_PlayerRecvd@@@std@@@3@$0A@@std@@@std@@QAE?AViterator@12@V312@@Z 0040c890 f i packetlog.obj
 0001:0000bb80       ??$_Uninit_fill_n@PAU_PlayerRecvd@@IU1@V?$allocator@U_PlayerRecvd@@@std@@@std@@YAXPAU_PlayerRecvd@@IABU1@AAV?$allocator@U_PlayerRecvd@@@0@U_Nonscalar_ptr_iterator_tag@0@@Z 0040cb80 f i packetlog.obj
 0001:0000bc50       ??$_Destroy_range@U_PlayerRecvd@@V?$allocator@U_PlayerRecvd@@@std@@@std@@YAXPAU_PlayerRecvd@@0AAV?$allocator@U_PlayerRecvd@@@0@U_Nonscalar_ptr_iterator_tag@0@@Z 0040cc50 f i packetlog.obj
 0001:0000bc80       ??$_Uninitialized_copy@PAU_PlayerRecvd@@PAU1@V?$allocator@U_PlayerRecvd@@@std@@@std@@YAPAU_PlayerRecvd@@PAU1@00AAV?$allocator@U_PlayerRecvd@@@0@@Z 0040cc80 f i packetlog.obj
 0001:0000bcb0       ??$_Unguarded_partition@Viterator@?$vector@U_PlayerRecvd@@V?$allocator@U_PlayerRecvd@@@std@@@std@@P6A_NAAU_PlayerRecvd@@0@Z@std@@YA?AU?$pair@Viterator@?$vector@U_PlayerRecvd@@V?$allocator@U_PlayerRecvd@@@std@@@std@@V123@@0@Viterator@?$vector@U_PlayerRecvd@@V?$allocator@U_PlayerRecvd@@@std@@@0@0P6A_NAAU_PlayerRecvd@@1@Z@Z 0040ccb0 f i packetlog.obj
 0001:0000be70       ??$make_heap@Viterator@?$vector@U_PlayerRecvd@@V?$allocator@U_PlayerRecvd@@@std@@@std@@P6A_NAAU_PlayerRecvd@@0@Z@std@@YAXViterator@?$vector@U_PlayerRecvd@@V?$allocator@U_PlayerRecvd@@@std@@@0@0P6A_NAAU_PlayerRecvd@@1@Z@Z 0040ce70 f i packetlog.obj
 0001:0000beb0       ??$_Insertion_sort@Viterator@?$vector@U_PlayerRecvd@@V?$allocator@U_PlayerRecvd@@@std@@@std@@P6A_NAAU_PlayerRecvd@@0@Z@std@@YAXViterator@?$vector@U_PlayerRecvd@@V?$allocator@U_PlayerRecvd@@@std@@@0@0P6A_NAAU_PlayerRecvd@@1@Z@Z 0040ceb0 f i packetlog.obj
 0001:0000bf50       ??$pop_heap@Viterator@?$vector@U_PlayerRecvd@@V?$allocator@U_PlayerRecvd@@@std@@@std@@P6A_NAAU_PlayerRecvd@@0@Z@std@@YAXViterator@?$vector@U_PlayerRecvd@@V?$allocator@U_PlayerRecvd@@@std@@@0@0P6A_NAAU_PlayerRecvd@@1@Z@Z 0040cf50 f i packetlog.obj
 0001:0000bf90       ?insert@?$_Tree@V?$_Tmap_traits@KU_PlayerRecvd@@U?$less@K@std@@V?$allocator@U?$pair@$$CBKU_PlayerRecvd@@@std@@@3@$0A@@std@@@std@@QAE?AU?$pair@Viterator@?$_Tree@V?$_Tmap_traits@KU_PlayerRecvd@@U?$less@K@std@@V?$allocator@U?$pair@$$CBKU_PlayerRecvd@@@std@@@3@$0A@@std@@@std@@_N@2@ABU?$pair@$$CBKU_PlayerRecvd@@@2@@Z 0040cf90 f i packetlog.obj
 0001:0000c050       ?_Erase@?$_Tree@V?$_Tmap_traits@KU_PlayerRecvd@@U?$less@K@std@@V?$allocator@U?$pair@$$CBKU_PlayerRecvd@@@std@@@3@$0A@@std@@@std@@IAEXPAU_Node@?$_Tree_nod@V?$_Tmap_traits@KU_PlayerRecvd@@U?$less@K@std@@V?$allocator@U?$pair@$$CBKU_PlayerRecvd@@@std@@@3@$0A@@std@@@2@@Z 0040d050 f i packetlog.obj
 0001:0000c090       ??$_Uninitialized_fill_n@PAU_PlayerRecvd@@IU1@V?$allocator@U_PlayerRecvd@@@std@@@std@@YAXPAU_PlayerRecvd@@IABU1@AAV?$allocator@U_PlayerRecvd@@@0@@Z 0040d090 f i packetlog.obj
 0001:0000c0c0       ??$_Destroy_range@U_PlayerRecvd@@V?$allocator@U_PlayerRecvd@@@std@@@std@@YAXPAU_PlayerRecvd@@0AAV?$allocator@U_PlayerRecvd@@@0@@Z 0040d0c0 f i packetlog.obj
 0001:0000c0f0       ??$_Ucopy@PAU_PlayerRecvd@@@?$vector@U_PlayerRecvd@@V?$allocator@U_PlayerRecvd@@@std@@@std@@IAEPAU_PlayerRecvd@@PAU2@00@Z 0040d0f0 f i packetlog.obj
 0001:0000c110       ??$sort_heap@Viterator@?$vector@U_PlayerRecvd@@V?$allocator@U_PlayerRecvd@@@std@@@std@@P6A_NAAU_PlayerRecvd@@0@Z@std@@YAXViterator@?$vector@U_PlayerRecvd@@V?$allocator@U_PlayerRecvd@@@std@@@0@0P6A_NAAU_PlayerRecvd@@1@Z@Z 0040d110 f i packetlog.obj
 0001:0000c170       ?Add@CPacketLog@@QAEXKKK@Z 0040d170 f   packetlog.obj
 0001:0000c3a0       ?clear@?$_Tree@V?$_Tmap_traits@KU_PlayerRecvd@@U?$less@K@std@@V?$allocator@U?$pair@$$CBKU_PlayerRecvd@@@std@@@3@$0A@@std@@@std@@QAEXXZ 0040d3a0 f i packetlog.obj
 0001:0000c3d0       ?_Ufill@?$vector@U_PlayerRecvd@@V?$allocator@U_PlayerRecvd@@@std@@@std@@IAEPAU_PlayerRecvd@@PAU3@IABU3@@Z 0040d3d0 f i packetlog.obj
 0001:0000c400       ?erase@?$_Tree@V?$_Tmap_traits@KU_PlayerRecvd@@U?$less@K@std@@V?$allocator@U?$pair@$$CBKU_PlayerRecvd@@@std@@@3@$0A@@std@@@std@@QAE?AViterator@12@V312@0@Z 0040d400 f i packetlog.obj
 0001:0000c4c0       ?_Destroy@?$vector@U_PlayerRecvd@@V?$allocator@U_PlayerRecvd@@@std@@@std@@IAEXPAU_PlayerRecvd@@0@Z 0040d4c0 f i packetlog.obj
 0001:0000c4f0       ?_Insert_n@?$vector@U_PlayerRecvd@@V?$allocator@U_PlayerRecvd@@@std@@@std@@IAEXViterator@12@IABU_PlayerRecvd@@@Z 0040d4f0 f i packetlog.obj
 0001:0000c820       ??$_Sort@Viterator@?$vector@U_PlayerRecvd@@V?$allocator@U_PlayerRecvd@@@std@@@std@@HP6A_NAAU_PlayerRecvd@@0@Z@std@@YAXViterator@?$vector@U_PlayerRecvd@@V?$allocator@U_PlayerRecvd@@@std@@@0@0HP6A_NAAU_PlayerRecvd@@1@Z@Z 0040d820 f i packetlog.obj
 0001:0000c970       ?Reset@CPacketLog@@QAEXXZ  0040d970 f   packetlog.obj
 0001:0000ca00       ?_Tidy@?$_Tree@V?$_Tmap_traits@KU_PlayerRecvd@@U?$less@K@std@@V?$allocator@U?$pair@$$CBKU_PlayerRecvd@@@std@@@3@$0A@@std@@@std@@IAEXXZ 0040da00 f i packetlog.obj
 0001:0000ca30       ?insert@?$vector@U_PlayerRecvd@@V?$allocator@U_PlayerRecvd@@@std@@@std@@QAE?AViterator@12@V312@ABU_PlayerRecvd@@@Z 0040da30 f i packetlog.obj
 0001:0000caa0       ?_Tidy@?$vector@U_PlayerRecvd@@V?$allocator@U_PlayerRecvd@@@std@@@std@@IAEXXZ 0040daa0 f i packetlog.obj
 0001:0000caf0       ??$sort@Viterator@?$vector@U_PlayerRecvd@@V?$allocator@U_PlayerRecvd@@@std@@@std@@P6A_NAAU_PlayerRecvd@@0@Z@std@@YAXViterator@?$vector@U_PlayerRecvd@@V?$allocator@U_PlayerRecvd@@@std@@@0@0P6A_NAAU_PlayerRecvd@@1@Z@Z 0040daf0 f i packetlog.obj
 0001:0000cb30       ??1?$_Tree@V?$_Tmap_traits@KU_PlayerRecvd@@U?$less@K@std@@V?$allocator@U?$pair@$$CBKU_PlayerRecvd@@@std@@@3@$0A@@std@@@std@@QAE@XZ 0040db30 f i packetlog.obj
 0001:0000cb60       ??1?$vector@U_PlayerRecvd@@V?$allocator@U_PlayerRecvd@@@std@@@std@@QAE@XZ 0040db60 f i packetlog.obj
 0001:0000cb70       ?push_back@?$vector@U_PlayerRecvd@@V?$allocator@U_PlayerRecvd@@@std@@@std@@QAEXABU_PlayerRecvd@@@Z 0040db70 f i packetlog.obj
 0001:0000cc00       ??1?$map@KU_PlayerRecvd@@U?$less@K@std@@V?$allocator@U?$pair@$$CBKU_PlayerRecvd@@@std@@@3@@std@@QAE@XZ 0040dc00 f i packetlog.obj
 0001:0000cc30       ??1CPacketLog@@UAE@XZ      0040dc30 f   packetlog.obj
 0001:0000cc80       ?Print@CPacketLog@@QAEXXZ  0040dc80 f   packetlog.obj
 0001:0000cfb0       ??0?$map@KU_PlayerRecvd@@U?$less@K@std@@V?$allocator@U?$pair@$$CBKU_PlayerRecvd@@@std@@@3@@std@@QAE@XZ 0040dfb0 f i packetlog.obj
 0001:0000cfe0       ??0CPacketLog@@AAE@XZ      0040dfe0 f   packetlog.obj
 0001:0000d030       ??_GCPacketLog@@UAEPAXI@Z  0040e030 f i packetlog.obj
 0001:0000d030       ??_ECPacketLog@@UAEPAXI@Z  0040e030 f i packetlog.obj
 0001:0000d050       ?Instance@CPacketLog@@SAPAV1@XZ 0040e050 f   packetlog.obj
 0001:0000d0b0       ?IsAlive@CPlayer@@QAEHXZ   0040e0b0 f i Player.obj
 0001:0000d0c0       ?IsTimeover@CPlayer@@QAEHK@Z 0040e0c0 f i Player.obj
 0001:0000d0f0       ??0CPlayer@@QAE@KK@Z       0040e0f0 f   Player.obj
 0001:0000d170       ??1CPlayer@@UAE@XZ         0040e170 f   Player.obj
 0001:0000d180       ?Join@CPlayer@@QAEXAAVCAr@@@Z 0040e180 f   Player.obj
 0001:0000d2f0       ?DestroyGarbagePlayer@CPlayerMng@@AAEXPAVCPlayer@@@Z 0040e2f0 f   Player.obj
 0001:0000d310       ?SendKeepAlive@CPlayerMng@@AAEXPAVCPlayer@@@Z 0040e310 f   Player.obj
 0001:0000d3f0       ??0?$pair@$$CBKPAVCPlayer@@@std@@QAE@ABKABQAVCPlayer@@@Z 0040e3f0 f i Player.obj
 0001:0000d410       ?_Color@?$_Tree@V?$_Tmap_traits@KPAVCPlayer@@U?$less@K@std@@V?$allocator@U?$pair@$$CBKPAVCPlayer@@@std@@@3@$0A@@std@@@std@@KAAADPAU_Node@?$_Tree_nod@V?$_Tmap_traits@KPAVCPlayer@@U?$less@K@std@@V?$allocator@U?$pair@$$CBKPAVCPlayer@@@std@@@3@$0A@@std@@@2@@Z 0040e410 f i Player.obj
 0001:0000d420       ?_Isnil@?$_Tree@V?$_Tmap_traits@KPAVCPlayer@@U?$less@K@std@@V?$allocator@U?$pair@$$CBKPAVCPlayer@@@std@@@3@$0A@@std@@@std@@KAAADPAU_Node@?$_Tree_nod@V?$_Tmap_traits@KPAVCPlayer@@U?$less@K@std@@V?$allocator@U?$pair@$$CBKPAVCPlayer@@@std@@@3@$0A@@std@@@2@@Z 0040e420 f i Player.obj
 0001:0000d430       ?_Left@?$_Tree@V?$_Tmap_traits@KPAVCPlayer@@U?$less@K@std@@V?$allocator@U?$pair@$$CBKPAVCPlayer@@@std@@@3@$0A@@std@@@std@@KAAAPAU_Node@?$_Tree_nod@V?$_Tmap_traits@KPAVCPlayer@@U?$less@K@std@@V?$allocator@U?$pair@$$CBKPAVCPlayer@@@std@@@3@$0A@@std@@@2@PAU342@@Z 0040e430 f i Player.obj
 0001:0000d440       ?_Parent@?$_Tree@V?$_Tmap_traits@KPAVCPlayer@@U?$less@K@std@@V?$allocator@U?$pair@$$CBKPAVCPlayer@@@std@@@3@$0A@@std@@@std@@KAAAPAU_Node@?$_Tree_nod@V?$_Tmap_traits@KPAVCPlayer@@U?$less@K@std@@V?$allocator@U?$pair@$$CBKPAVCPlayer@@@std@@@3@$0A@@std@@@2@PAU342@@Z 0040e440 f i Player.obj
 0001:0000d450       ?_Right@?$_Tree@V?$_Tmap_traits@KPAVCPlayer@@U?$less@K@std@@V?$allocator@U?$pair@$$CBKPAVCPlayer@@@std@@@3@$0A@@std@@@std@@KAAAPAU_Node@?$_Tree_nod@V?$_Tmap_traits@KPAVCPlayer@@U?$less@K@std@@V?$allocator@U?$pair@$$CBKPAVCPlayer@@@std@@@3@$0A@@std@@@2@PAU342@@Z 0040e450 f i Player.obj
 0001:0000d460       ?_Lmost@?$_Tree@V?$_Tmap_traits@KPAVCPlayer@@U?$less@K@std@@V?$allocator@U?$pair@$$CBKPAVCPlayer@@@std@@@3@$0A@@std@@@std@@IAEAAPAU_Node@?$_Tree_nod@V?$_Tmap_traits@KPAVCPlayer@@U?$less@K@std@@V?$allocator@U?$pair@$$CBKPAVCPlayer@@@std@@@3@$0A@@std@@@2@XZ 0040e460 f i Player.obj
 0001:0000d470       ?_Max@?$_Tree@V?$_Tmap_traits@KPAVCPlayer@@U?$less@K@std@@V?$allocator@U?$pair@$$CBKPAVCPlayer@@@std@@@3@$0A@@std@@@std@@KAPAU_Node@?$_Tree_nod@V?$_Tmap_traits@KPAVCPlayer@@U?$less@K@std@@V?$allocator@U?$pair@$$CBKPAVCPlayer@@@std@@@3@$0A@@std@@@2@PAU342@@Z 0040e470 f i Player.obj
 0001:0000d490       ?_Min@?$_Tree@V?$_Tmap_traits@KPAVCPlayer@@U?$less@K@std@@V?$allocator@U?$pair@$$CBKPAVCPlayer@@@std@@@3@$0A@@std@@@std@@KAPAU_Node@?$_Tree_nod@V?$_Tmap_traits@KPAVCPlayer@@U?$less@K@std@@V?$allocator@U?$pair@$$CBKPAVCPlayer@@@std@@@3@$0A@@std@@@2@PAU342@@Z 0040e490 f i Player.obj
 0001:0000d4b0       ?_Rmost@?$_Tree@V?$_Tmap_traits@KPAVCPlayer@@U?$less@K@std@@V?$allocator@U?$pair@$$CBKPAVCPlayer@@@std@@@3@$0A@@std@@@std@@IAEAAPAU_Node@?$_Tree_nod@V?$_Tmap_traits@KPAVCPlayer@@U?$less@K@std@@V?$allocator@U?$pair@$$CBKPAVCPlayer@@@std@@@3@$0A@@std@@@2@XZ 0040e4b0 f i Player.obj
 0001:0000d4c0       ?_Root@?$_Tree@V?$_Tmap_traits@KPAVCPlayer@@U?$less@K@std@@V?$allocator@U?$pair@$$CBKPAVCPlayer@@@std@@@3@$0A@@std@@@std@@IAEAAPAU_Node@?$_Tree_nod@V?$_Tmap_traits@KPAVCPlayer@@U?$less@K@std@@V?$allocator@U?$pair@$$CBKPAVCPlayer@@@std@@@3@$0A@@std@@@2@XZ 0040e4c0 f i Player.obj
 0001:0000d4d0       ?_Rrotate@?$_Tree@V?$_Tmap_traits@KPAVCPlayer@@U?$less@K@std@@V?$allocator@U?$pair@$$CBKPAVCPlayer@@@std@@@3@$0A@@std@@@std@@IAEXPAU_Node@?$_Tree_nod@V?$_Tmap_traits@KPAVCPlayer@@U?$less@K@std@@V?$allocator@U?$pair@$$CBKPAVCPlayer@@@std@@@3@$0A@@std@@@2@@Z 0040e4d0 f i Player.obj
 0001:0000d530       ?_Kfn@?$_Tmap_traits@KPAVCPlayer@@U?$less@K@std@@V?$allocator@U?$pair@$$CBKPAVCPlayer@@@std@@@3@$0A@@std@@SAABKABU?$pair@$$CBKPAVCPlayer@@@2@@Z 0040e530 f i Player.obj
 0001:0000d540       ??0?$allocator@U?$pair@$$CBKPAVCPlayer@@@std@@@std@@QAE@XZ 0040e540 f i Player.obj
 0001:0000d550       ?deallocate@?$allocator@U_Node@?$_Tree_nod@V?$_Tmap_traits@KPAVCPlayer@@U?$less@K@std@@V?$allocator@U?$pair@$$CBKPAVCPlayer@@@std@@@3@$0A@@std@@@std@@@std@@QAEXPAU_Node@?$_Tree_nod@V?$_Tmap_traits@KPAVCPlayer@@U?$less@K@std@@V?$allocator@U?$pair@$$CBKPAVCPlayer@@@std@@@3@$0A@@std@@@2@I@Z 0040e550 f i Player.obj
 0001:0000d560       ??8const_iterator@?$_Tree@V?$_Tmap_traits@KPAVCPlayer@@U?$less@K@std@@V?$allocator@U?$pair@$$CBKPAVCPlayer@@@std@@@3@$0A@@std@@@std@@QBE_NABV012@@Z 0040e560 f i Player.obj
 0001:0000d570       ?_Mynode@const_iterator@?$_Tree@V?$_Tmap_traits@KPAVCPlayer@@U?$less@K@std@@V?$allocator@U?$pair@$$CBKPAVCPlayer@@@std@@@3@$0A@@std@@@std@@QBEPAU_Node@?$_Tree_nod@V?$_Tmap_traits@KPAVCPlayer@@U?$less@K@std@@V?$allocator@U?$pair@$$CBKPAVCPlayer@@@std@@@3@$0A@@std@@@3@XZ 0040e570 f i Player.obj
 0001:0000d580       ??0?$pair@Viterator@?$_Tree@V?$_Tmap_traits@KPAVCPlayer@@U?$less@K@std@@V?$allocator@U?$pair@$$CBKPAVCPlayer@@@std@@@3@$0A@@std@@@std@@_N@std@@QAE@ABViterator@?$_Tree@V?$_Tmap_traits@KPAVCPlayer@@U?$less@K@std@@V?$allocator@U?$pair@$$CBKPAVCPlayer@@@std@@@3@$0A@@std@@@1@AB_N@Z 0040e580 f i Player.obj
 0001:0000d5a0       ?_Myval@?$_Tree@V?$_Tmap_traits@KPAVCPlayer@@U?$less@K@std@@V?$allocator@U?$pair@$$CBKPAVCPlayer@@@std@@@3@$0A@@std@@@std@@KAAAU?$pair@$$CBKPAVCPlayer@@@2@PAU_Node@?$_Tree_nod@V?$_Tmap_traits@KPAVCPlayer@@U?$less@K@std@@V?$allocator@U?$pair@$$CBKPAVCPlayer@@@std@@@3@$0A@@std@@@2@@Z 0040e5a0 f i Player.obj
 0001:0000d5b0       ??0?$allocator@U?$pair@$$CBKPAVCPlayer@@@std@@@std@@QAE@ABV01@@Z 0040e5b0 f i Player.obj
 0001:0000d5c0       ??0const_iterator@?$_Tree@V?$_Tmap_traits@KPAVCPlayer@@U?$less@K@std@@V?$allocator@U?$pair@$$CBKPAVCPlayer@@@std@@@3@$0A@@std@@@std@@QAE@PAU_Node@?$_Tree_nod@V?$_Tmap_traits@KPAVCPlayer@@U?$less@K@std@@V?$allocator@U?$pair@$$CBKPAVCPlayer@@@std@@@3@$0A@@std@@@2@@Z 0040e5c0 f i Player.obj
 0001:0000d5d0       ??Dconst_iterator@?$_Tree@V?$_Tmap_traits@KPAVCPlayer@@U?$less@K@std@@V?$allocator@U?$pair@$$CBKPAVCPlayer@@@std@@@3@$0A@@std@@@std@@QBEABU?$pair@$$CBKPAVCPlayer@@@2@XZ 0040e5d0 f i Player.obj
 0001:0000d5e0       ?_Inc@const_iterator@?$_Tree@V?$_Tmap_traits@KPAVCPlayer@@U?$less@K@std@@V?$allocator@U?$pair@$$CBKPAVCPlayer@@@std@@@3@$0A@@std@@@std@@QAEXXZ 0040e5e0 f i Player.obj
 0001:0000d640       ?_Root@?$_Tree@V?$_Tmap_traits@KPAVCPlayer@@U?$less@K@std@@V?$allocator@U?$pair@$$CBKPAVCPlayer@@@std@@@3@$0A@@std@@@std@@IBEAAPAU_Node@?$_Tree_nod@V?$_Tmap_traits@KPAVCPlayer@@U?$less@K@std@@V?$allocator@U?$pair@$$CBKPAVCPlayer@@@std@@@3@$0A@@std@@@2@XZ 0040e640 f i Player.obj
 0001:0000d650       ?max_size@?$allocator@U?$pair@$$CBKPAVCPlayer@@@std@@@std@@QBEIXZ 0040e650 f i Player.obj
 0001:0000d660       ?_Dec@const_iterator@?$_Tree@V?$_Tmap_traits@KPAVCPlayer@@U?$less@K@std@@V?$allocator@U?$pair@$$CBKPAVCPlayer@@@std@@@3@$0A@@std@@@std@@QAEXXZ 0040e660 f i Player.obj
 0001:0000d6c0       ??0_Node@?$_Tree_nod@V?$_Tmap_traits@KPAVCPlayer@@U?$less@K@std@@V?$allocator@U?$pair@$$CBKPAVCPlayer@@@std@@@3@$0A@@std@@@std@@QAE@PAU012@00ABU?$pair@$$CBKPAVCPlayer@@@2@D@Z 0040e6c0 f i Player.obj
 0001:0000d700       ??0?$_Tmap_traits@KPAVCPlayer@@U?$less@K@std@@V?$allocator@U?$pair@$$CBKPAVCPlayer@@@std@@@3@$0A@@std@@QAE@U?$less@K@1@@Z 0040e700 f i Player.obj
 0001:0000d710       ??$_Destroy@U_Node@?$_Tree_nod@V?$_Tmap_traits@KPAVCPlayer@@U?$less@K@std@@V?$allocator@U?$pair@$$CBKPAVCPlayer@@@std@@@3@$0A@@std@@@std@@@std@@YAXPAU_Node@?$_Tree_nod@V?$_Tmap_traits@KPAVCPlayer@@U?$less@K@std@@V?$allocator@U?$pair@$$CBKPAVCPlayer@@@std@@@3@$0A@@std@@@0@@Z 0040e710 f i Player.obj
 0001:0000d720       ??$_Destroy@PAU_Node@?$_Tree_nod@V?$_Tmap_traits@KPAVCPlayer@@U?$less@K@std@@V?$allocator@U?$pair@$$CBKPAVCPlayer@@@std@@@3@$0A@@std@@@std@@@std@@YAXPAPAU_Node@?$_Tree_nod@V?$_Tmap_traits@KPAVCPlayer@@U?$less@K@std@@V?$allocator@U?$pair@$$CBKPAVCPlayer@@@std@@@3@$0A@@std@@@0@@Z 0040e720 f i Player.obj
 0001:0000d730       ??$?0U?$pair@$$CBKPAVCPlayer@@@std@@@?$allocator@PAU_Node@?$_Tree_nod@V?$_Tmap_traits@KPAVCPlayer@@U?$less@K@std@@V?$allocator@U?$pair@$$CBKPAVCPlayer@@@std@@@3@$0A@@std@@@std@@@std@@QAE@ABV?$allocator@U?$pair@$$CBKPAVCPlayer@@@std@@@1@@Z 0040e730 f i Player.obj
 0001:0000d740       ??$_Allocate@U_Node@?$_Tree_nod@V?$_Tmap_traits@KPAVCPlayer@@U?$less@K@std@@V?$allocator@U?$pair@$$CBKPAVCPlayer@@@std@@@3@$0A@@std@@@std@@@std@@YAPAU_Node@?$_Tree_nod@V?$_Tmap_traits@KPAVCPlayer@@U?$less@K@std@@V?$allocator@U?$pair@$$CBKPAVCPlayer@@@std@@@3@$0A@@std@@@0@IPAU120@@Z 0040e740 f i Player.obj
 0001:0000d760       ??$?0U?$pair@$$CBKPAVCPlayer@@@std@@@?$allocator@U_Node@?$_Tree_nod@V?$_Tmap_traits@KPAVCPlayer@@U?$less@K@std@@V?$allocator@U?$pair@$$CBKPAVCPlayer@@@std@@@3@$0A@@std@@@std@@@std@@QAE@ABV?$allocator@U?$pair@$$CBKPAVCPlayer@@@std@@@1@@Z 0040e760 f i Player.obj
 0001:0000d770       ??$_Construct@PAU_Node@?$_Tree_nod@V?$_Tmap_traits@KPAVCPlayer@@U?$less@K@std@@V?$allocator@U?$pair@$$CBKPAVCPlayer@@@std@@@3@$0A@@std@@@std@@PAU123@@std@@YAXPAPAU_Node@?$_Tree_nod@V?$_Tmap_traits@KPAVCPlayer@@U?$less@K@std@@V?$allocator@U?$pair@$$CBKPAVCPlayer@@@std@@@3@$0A@@std@@@0@ABQAU120@@Z 0040e770 f i Player.obj
 0001:0000d790       ??_GCPlayer@@UAEPAXI@Z     0040e790 f i Player.obj
 0001:0000d790       ??_ECPlayer@@UAEPAXI@Z     0040e790 f i Player.obj
 0001:0000d7b0       ??9const_iterator@?$_Tree@V?$_Tmap_traits@KPAVCPlayer@@U?$less@K@std@@V?$allocator@U?$pair@$$CBKPAVCPlayer@@@std@@@3@$0A@@std@@@std@@QBE_NABV012@@Z 0040e7b0 f i Player.obj
 0001:0000d7d0       ?_Key@?$_Tree@V?$_Tmap_traits@KPAVCPlayer@@U?$less@K@std@@V?$allocator@U?$pair@$$CBKPAVCPlayer@@@std@@@3@$0A@@std@@@std@@KAABKPAU_Node@?$_Tree_nod@V?$_Tmap_traits@KPAVCPlayer@@U?$less@K@std@@V?$allocator@U?$pair@$$CBKPAVCPlayer@@@std@@@3@$0A@@std@@@2@@Z 0040e7d0 f i Player.obj
 0001:0000d7e0       ?_Lrotate@?$_Tree@V?$_Tmap_traits@KPAVCPlayer@@U?$less@K@std@@V?$allocator@U?$pair@$$CBKPAVCPlayer@@@std@@@3@$0A@@std@@@std@@IAEXPAU_Node@?$_Tree_nod@V?$_Tmap_traits@KPAVCPlayer@@U?$less@K@std@@V?$allocator@U?$pair@$$CBKPAVCPlayer@@@std@@@3@$0A@@std@@@2@@Z 0040e7e0 f i Player.obj
 0001:0000d840       ?destroy@?$allocator@U_Node@?$_Tree_nod@V?$_Tmap_traits@KPAVCPlayer@@U?$less@K@std@@V?$allocator@U?$pair@$$CBKPAVCPlayer@@@std@@@3@$0A@@std@@@std@@@std@@QAEXPAU_Node@?$_Tree_nod@V?$_Tmap_traits@KPAVCPlayer@@U?$less@K@std@@V?$allocator@U?$pair@$$CBKPAVCPlayer@@@std@@@3@$0A@@std@@@2@@Z 0040e840 f i Player.obj
 0001:0000d850       ??0iterator@?$_Tree@V?$_Tmap_traits@KPAVCPlayer@@U?$less@K@std@@V?$allocator@U?$pair@$$CBKPAVCPlayer@@@std@@@3@$0A@@std@@@std@@QAE@PAU_Node@?$_Tree_nod@V?$_Tmap_traits@KPAVCPlayer@@U?$less@K@std@@V?$allocator@U?$pair@$$CBKPAVCPlayer@@@std@@@3@$0A@@std@@@2@@Z 0040e850 f i Player.obj
 0001:0000d860       ??Diterator@?$_Tree@V?$_Tmap_traits@KPAVCPlayer@@U?$less@K@std@@V?$allocator@U?$pair@$$CBKPAVCPlayer@@@std@@@3@$0A@@std@@@std@@QBEAAU?$pair@$$CBKPAVCPlayer@@@2@XZ 0040e860 f i Player.obj
 0001:0000d870       ??Econst_iterator@?$_Tree@V?$_Tmap_traits@KPAVCPlayer@@U?$less@K@std@@V?$allocator@U?$pair@$$CBKPAVCPlayer@@@std@@@3@$0A@@std@@@std@@QAEAAV012@XZ 0040e870 f i Player.obj
 0001:0000d880       ?max_size@?$_Tree@V?$_Tmap_traits@KPAVCPlayer@@U?$less@K@std@@V?$allocator@U?$pair@$$CBKPAVCPlayer@@@std@@@3@$0A@@std@@@std@@QBEIXZ 0040e880 f i Player.obj
 0001:0000d890       ?_Lbound@?$_Tree@V?$_Tmap_traits@KPAVCPlayer@@U?$less@K@std@@V?$allocator@U?$pair@$$CBKPAVCPlayer@@@std@@@3@$0A@@std@@@std@@IBEPAU_Node@?$_Tree_nod@V?$_Tmap_traits@KPAVCPlayer@@U?$less@K@std@@V?$allocator@U?$pair@$$CBKPAVCPlayer@@@std@@@3@$0A@@std@@@2@ABK@Z 0040e890 f i Player.obj
 0001:0000d8c0       ?destroy@?$allocator@PAU_Node@?$_Tree_nod@V?$_Tmap_traits@KPAVCPlayer@@U?$less@K@std@@V?$allocator@U?$pair@$$CBKPAVCPlayer@@@std@@@3@$0A@@std@@@std@@@std@@QAEXPAPAU_Node@?$_Tree_nod@V?$_Tmap_traits@KPAVCPlayer@@U?$less@K@std@@V?$allocator@U?$pair@$$CBKPAVCPlayer@@@std@@@3@$0A@@std@@@2@@Z 0040e8c0 f i Player.obj
 0001:0000d8d0       ??Fconst_iterator@?$_Tree@V?$_Tmap_traits@KPAVCPlayer@@U?$less@K@std@@V?$allocator@U?$pair@$$CBKPAVCPlayer@@@std@@@3@$0A@@std@@@std@@QAEAAV012@XZ 0040e8d0 f i Player.obj
 0001:0000d8e0       ?allocate@?$allocator@U_Node@?$_Tree_nod@V?$_Tmap_traits@KPAVCPlayer@@U?$less@K@std@@V?$allocator@U?$pair@$$CBKPAVCPlayer@@@std@@@3@$0A@@std@@@std@@@std@@QAEPAU_Node@?$_Tree_nod@V?$_Tmap_traits@KPAVCPlayer@@U?$less@K@std@@V?$allocator@U?$pair@$$CBKPAVCPlayer@@@std@@@3@$0A@@std@@@2@I@Z 0040e8e0 f i Player.obj
 0001:0000d900       ??0?$_Tree_nod@V?$_Tmap_traits@KPAVCPlayer@@U?$less@K@std@@V?$allocator@U?$pair@$$CBKPAVCPlayer@@@std@@@3@$0A@@std@@@std@@IAE@ABU?$less@K@1@V?$allocator@U?$pair@$$CBKPAVCPlayer@@@std@@@1@@Z 0040e900 f i Player.obj
 0001:0000d910       ?construct@?$allocator@PAU_Node@?$_Tree_nod@V?$_Tmap_traits@KPAVCPlayer@@U?$less@K@std@@V?$allocator@U?$pair@$$CBKPAVCPlayer@@@std@@@3@$0A@@std@@@std@@@std@@QAEXPAPAU_Node@?$_Tree_nod@V?$_Tmap_traits@KPAVCPlayer@@U?$less@K@std@@V?$allocator@U?$pair@$$CBKPAVCPlayer@@@std@@@3@$0A@@std@@@2@ABQAU342@@Z 0040e910 f i Player.obj
 0001:0000d930       ?begin@?$_Tree@V?$_Tmap_traits@KPAVCPlayer@@U?$less@K@std@@V?$allocator@U?$pair@$$CBKPAVCPlayer@@@std@@@3@$0A@@std@@@std@@QAE?AViterator@12@XZ 0040e930 f i Player.obj
 0001:0000d940       ?end@?$_Tree@V?$_Tmap_traits@KPAVCPlayer@@U?$less@K@std@@V?$allocator@U?$pair@$$CBKPAVCPlayer@@@std@@@3@$0A@@std@@@std@@QAE?AViterator@12@XZ 0040e940 f i Player.obj
 0001:0000d950       ??Citerator@?$_Tree@V?$_Tmap_traits@KPAVCPlayer@@U?$less@K@std@@V?$allocator@U?$pair@$$CBKPAVCPlayer@@@std@@@3@$0A@@std@@@std@@QBEPAU?$pair@$$CBKPAVCPlayer@@@2@XZ 0040e950 f i Player.obj
 0001:0000d960       ??Eiterator@?$_Tree@V?$_Tmap_traits@KPAVCPlayer@@U?$less@K@std@@V?$allocator@U?$pair@$$CBKPAVCPlayer@@@std@@@3@$0A@@std@@@std@@QAEAAV012@XZ 0040e960 f i Player.obj
 0001:0000d970       ?lower_bound@?$_Tree@V?$_Tmap_traits@KPAVCPlayer@@U?$less@K@std@@V?$allocator@U?$pair@$$CBKPAVCPlayer@@@std@@@3@$0A@@std@@@std@@QAE?AViterator@12@ABK@Z 0040e970 f i Player.obj
 0001:0000d9b0       ?_Erase@?$_Tree@V?$_Tmap_traits@KPAVCPlayer@@U?$less@K@std@@V?$allocator@U?$pair@$$CBKPAVCPlayer@@@std@@@3@$0A@@std@@@std@@IAEXPAU_Node@?$_Tree_nod@V?$_Tmap_traits@KPAVCPlayer@@U?$less@K@std@@V?$allocator@U?$pair@$$CBKPAVCPlayer@@@std@@@3@$0A@@std@@@2@@Z 0040e9b0 f i Player.obj
 0001:0000d9f0       ??Fiterator@?$_Tree@V?$_Tmap_traits@KPAVCPlayer@@U?$less@K@std@@V?$allocator@U?$pair@$$CBKPAVCPlayer@@@std@@@3@$0A@@std@@@std@@QAEAAV012@XZ 0040e9f0 f i Player.obj
 0001:0000da00       ?_Buynode@?$_Tree@V?$_Tmap_traits@KPAVCPlayer@@U?$less@K@std@@V?$allocator@U?$pair@$$CBKPAVCPlayer@@@std@@@3@$0A@@std@@@std@@IAEPAU_Node@?$_Tree_nod@V?$_Tmap_traits@KPAVCPlayer@@U?$less@K@std@@V?$allocator@U?$pair@$$CBKPAVCPlayer@@@std@@@3@$0A@@std@@@2@PAU342@00ABU?$pair@$$CBKPAVCPlayer@@@2@D@Z 0040ea00 f i Player.obj
 0001:0000da40       ?_Buynode@?$_Tree@V?$_Tmap_traits@KPAVCPlayer@@U?$less@K@std@@V?$allocator@U?$pair@$$CBKPAVCPlayer@@@std@@@3@$0A@@std@@@std@@IAEPAU_Node@?$_Tree_nod@V?$_Tmap_traits@KPAVCPlayer@@U?$less@K@std@@V?$allocator@U?$pair@$$CBKPAVCPlayer@@@std@@@3@$0A@@std@@@2@XZ 0040ea40 f i Player.obj
 0001:0000da80       ??0?$_Tree_ptr@V?$_Tmap_traits@KPAVCPlayer@@U?$less@K@std@@V?$allocator@U?$pair@$$CBKPAVCPlayer@@@std@@@3@$0A@@std@@@std@@IAE@ABU?$less@K@1@V?$allocator@U?$pair@$$CBKPAVCPlayer@@@std@@@1@@Z 0040ea80 f i Player.obj
 0001:0000da90       ??Eiterator@?$_Tree@V?$_Tmap_traits@KPAVCPlayer@@U?$less@K@std@@V?$allocator@U?$pair@$$CBKPAVCPlayer@@@std@@@3@$0A@@std@@@std@@QAE?AV012@H@Z 0040ea90 f i Player.obj
 0001:0000dab0       ?DestroyPlayersOnChannel@CPlayerMng@@AAEXPAVCDPClient@@@Z 0040eab0 f   Player.obj
 0001:0000db10       ?DestroyAllPlayers@CPlayerMng@@AAEXXZ 0040eb10 f   Player.obj
 0001:0000db50       ?GetPlayerBySerial@CPlayerMng@@QAEPAVCPlayer@@K@Z 0040eb50 f   Player.obj
 0001:0000dbb0       ?DestroyGarbage@CPlayerMng@@QAEXXZ 0040ebb0 f   Player.obj
 0001:0000dc80       ?clear@?$_Tree@V?$_Tmap_traits@KPAVCPlayer@@U?$less@K@std@@V?$allocator@U?$pair@$$CBKPAVCPlayer@@@std@@@3@$0A@@std@@@std@@QAEXXZ 0040ec80 f i Player.obj
 0001:0000dcb0       ?find@?$_Tree@V?$_Tmap_traits@KPAVCPlayer@@U?$less@K@std@@V?$allocator@U?$pair@$$CBKPAVCPlayer@@@std@@@3@$0A@@std@@@std@@QAE?AViterator@12@ABK@Z 0040ecb0 f i Player.obj
 0001:0000dd20       ?_Init@?$_Tree@V?$_Tmap_traits@KPAVCPlayer@@U?$less@K@std@@V?$allocator@U?$pair@$$CBKPAVCPlayer@@@std@@@3@$0A@@std@@@std@@IAEXXZ 0040ed20 f i Player.obj
 0001:0000dd50       ??0?$_Tree_val@V?$_Tmap_traits@KPAVCPlayer@@U?$less@K@std@@V?$allocator@U?$pair@$$CBKPAVCPlayer@@@std@@@3@$0A@@std@@@std@@IAE@ABU?$less@K@1@V?$allocator@U?$pair@$$CBKPAVCPlayer@@@std@@@1@@Z 0040ed50 f i Player.obj
 0001:0000dd60       ?Clear@CPlayerMng@@QAEXXZ  0040ed60 f   Player.obj
 0001:0000de30       ?GetPlayer@CPlayerMng@@QAEPAVCPlayer@@K@Z 0040ee30 f   Player.obj
 0001:0000de60       ?DestroyPlayer@CPlayerMng@@QAEXPAVCDPClient@@@Z 0040ee60 f   Player.obj
 0001:0000ded0       ??0?$_Tree@V?$_Tmap_traits@KPAVCPlayer@@U?$less@K@std@@V?$allocator@U?$pair@$$CBKPAVCPlayer@@@std@@@3@$0A@@std@@@std@@QAE@ABU?$less@K@1@ABV?$allocator@U?$pair@$$CBKPAVCPlayer@@@std@@@1@@Z 0040eed0 f i Player.obj
 0001:0000df00       ?erase@?$_Tree@V?$_Tmap_traits@KPAVCPlayer@@U?$less@K@std@@V?$allocator@U?$pair@$$CBKPAVCPlayer@@@std@@@3@$0A@@std@@@std@@QAE?AViterator@12@V312@@Z 0040ef00 f i Player.obj
 0001:0000e1c0       ?_Insert@?$_Tree@V?$_Tmap_traits@KPAVCPlayer@@U?$less@K@std@@V?$allocator@U?$pair@$$CBKPAVCPlayer@@@std@@@3@$0A@@std@@@std@@IAE?AViterator@12@_NPAU_Node@?$_Tree_nod@V?$_Tmap_traits@KPAVCPlayer@@U?$less@K@std@@V?$allocator@U?$pair@$$CBKPAVCPlayer@@@std@@@3@$0A@@std@@@2@ABU?$pair@$$CBKPAVCPlayer@@@2@@Z 0040f1c0 f i Player.obj
 0001:0000e370       ?erase@?$_Tree@V?$_Tmap_traits@KPAVCPlayer@@U?$less@K@std@@V?$allocator@U?$pair@$$CBKPAVCPlayer@@@std@@@3@$0A@@std@@@std@@QAE?AViterator@12@V312@0@Z 0040f370 f i Player.obj
 0001:0000e430       ?RemovePlayer@CPlayerMng@@QAEHK@Z 0040f430 f   Player.obj
 0001:0000e4e0       ?insert@?$_Tree@V?$_Tmap_traits@KPAVCPlayer@@U?$less@K@std@@V?$allocator@U?$pair@$$CBKPAVCPlayer@@@std@@@3@$0A@@std@@@std@@QAE?AU?$pair@Viterator@?$_Tree@V?$_Tmap_traits@KPAVCPlayer@@U?$less@K@std@@V?$allocator@U?$pair@$$CBKPAVCPlayer@@@std@@@3@$0A@@std@@@std@@_N@2@ABU?$pair@$$CBKPAVCPlayer@@@2@@Z 0040f4e0 f i Player.obj
 0001:0000e5a0       ?_Tidy@?$_Tree@V?$_Tmap_traits@KPAVCPlayer@@U?$less@K@std@@V?$allocator@U?$pair@$$CBKPAVCPlayer@@@std@@@3@$0A@@std@@@std@@IAEXXZ 0040f5a0 f i Player.obj
 0001:0000e5d0       ?AddPlayer@CPlayerMng@@QAEHK@Z 0040f5d0 f   Player.obj
 0001:0000e690       ??1?$_Tree@V?$_Tmap_traits@KPAVCPlayer@@U?$less@K@std@@V?$allocator@U?$pair@$$CBKPAVCPlayer@@@std@@@3@$0A@@std@@@std@@QAE@XZ 0040f690 f i Player.obj
 0001:0000e6c0       ??1?$map@KPAVCPlayer@@U?$less@K@std@@V?$allocator@U?$pair@$$CBKPAVCPlayer@@@std@@@3@@std@@QAE@XZ 0040f6c0 f i Player.obj
 0001:0000e6f0       ??1CPlayerMng@@UAE@XZ      0040f6f0 f   Player.obj
 0001:0000e780       ??0?$map@KPAVCPlayer@@U?$less@K@std@@V?$allocator@U?$pair@$$CBKPAVCPlayer@@@std@@@3@@std@@QAE@XZ 0040f780 f i Player.obj
 0001:0000e7b0       ??0CPlayerMng@@QAE@XZ      0040f7b0 f   Player.obj
 0001:0000e830       ??_ECPlayerMng@@UAEPAXI@Z  0040f830 f i Player.obj
 0001:0000e830       ??_GCPlayerMng@@UAEPAXI@Z  0040f830 f i Player.obj
 0001:0000e850       ?Instance@CPlayerMng@@SAPAV1@XZ 0040f850 f   Player.obj
 0001:0000e8b0       ?IsStoring@CAr@@QBEHXZ     0040f8b0 f i rtmessenger.obj
 0001:0000e8c0       ??5CAr@@QAEAAV0@AAJ@Z      0040f8c0 f i rtmessenger.obj
 0001:0000e900       ??0_Friend@@QAE@XZ         0040f900 f i rtmessenger.obj
 0001:0000e910       ?GetState@CRTMessenger@@QAEKXZ 0040f910 f i rtmessenger.obj
 0001:0000e920       ?size@?$_Tree@V?$_Tmap_traits@KU_Friend@@U?$less@K@std@@V?$allocator@U?$pair@$$CBKU_Friend@@@std@@@3@$0A@@std@@@std@@QBEIXZ 0040f920 f i rtmessenger.obj
 0001:0000e930       ??0?$pair@$$CBKU_Friend@@@std@@QAE@ABKABU_Friend@@@Z 0040f930 f i rtmessenger.obj
 0001:0000e950       ?_Isnil@?$_Tree@V?$_Tmap_traits@KU_Friend@@U?$less@K@std@@V?$allocator@U?$pair@$$CBKU_Friend@@@std@@@3@$0A@@std@@@std@@KAAADPAU_Node@?$_Tree_nod@V?$_Tmap_traits@KU_Friend@@U?$less@K@std@@V?$allocator@U?$pair@$$CBKU_Friend@@@std@@@3@$0A@@std@@@2@@Z 0040f950 f i rtmessenger.obj
 0001:0000e960       ?_Left@?$_Tree@V?$_Tmap_traits@KU_Friend@@U?$less@K@std@@V?$allocator@U?$pair@$$CBKU_Friend@@@std@@@3@$0A@@std@@@std@@KAAAPAU_Node@?$_Tree_nod@V?$_Tmap_traits@KU_Friend@@U?$less@K@std@@V?$allocator@U?$pair@$$CBKU_Friend@@@std@@@3@$0A@@std@@@2@PAU342@@Z 0040f960 f i rtmessenger.obj
 0001:0000e970       ?_Right@?$_Tree@V?$_Tmap_traits@KU_Friend@@U?$less@K@std@@V?$allocator@U?$pair@$$CBKU_Friend@@@std@@@3@$0A@@std@@@std@@KAAAPAU_Node@?$_Tree_nod@V?$_Tmap_traits@KU_Friend@@U?$less@K@std@@V?$allocator@U?$pair@$$CBKU_Friend@@@std@@@3@$0A@@std@@@2@PAU342@@Z 0040f970 f i rtmessenger.obj
 0001:0000e980       ?_Lmost@?$_Tree@V?$_Tmap_traits@KU_Friend@@U?$less@K@std@@V?$allocator@U?$pair@$$CBKU_Friend@@@std@@@3@$0A@@std@@@std@@IAEAAPAU_Node@?$_Tree_nod@V?$_Tmap_traits@KU_Friend@@U?$less@K@std@@V?$allocator@U?$pair@$$CBKU_Friend@@@std@@@3@$0A@@std@@@2@XZ 0040f980 f i rtmessenger.obj
 0001:0000e990       ?_Rmost@?$_Tree@V?$_Tmap_traits@KU_Friend@@U?$less@K@std@@V?$allocator@U?$pair@$$CBKU_Friend@@@std@@@3@$0A@@std@@@std@@IAEAAPAU_Node@?$_Tree_nod@V?$_Tmap_traits@KU_Friend@@U?$less@K@std@@V?$allocator@U?$pair@$$CBKU_Friend@@@std@@@3@$0A@@std@@@2@XZ 0040f990 f i rtmessenger.obj
 0001:0000e9a0       ?_Kfn@?$_Tmap_traits@KU_Friend@@U?$less@K@std@@V?$allocator@U?$pair@$$CBKU_Friend@@@std@@@3@$0A@@std@@SAABKABU?$pair@$$CBKU_Friend@@@2@@Z 0040f9a0 f i rtmessenger.obj
 0001:0000e9b0       ??0?$allocator@U?$pair@$$CBKU_Friend@@@std@@@std@@QAE@XZ 0040f9b0 f i rtmessenger.obj
 0001:0000e9c0       ??8const_iterator@?$_Tree@V?$_Tmap_traits@KU_Friend@@U?$less@K@std@@V?$allocator@U?$pair@$$CBKU_Friend@@@std@@@3@$0A@@std@@@std@@QBE_NABV012@@Z 0040f9c0 f i rtmessenger.obj
 0001:0000e9d0       ?_Mynode@const_iterator@?$_Tree@V?$_Tmap_traits@KU_Friend@@U?$less@K@std@@V?$allocator@U?$pair@$$CBKU_Friend@@@std@@@3@$0A@@std@@@std@@QBEPAU_Node@?$_Tree_nod@V?$_Tmap_traits@KU_Friend@@U?$less@K@std@@V?$allocator@U?$pair@$$CBKU_Friend@@@std@@@3@$0A@@std@@@3@XZ 0040f9d0 f i rtmessenger.obj
 0001:0000e9e0       ??0?$pair@Viterator@?$_Tree@V?$_Tmap_traits@KU_Friend@@U?$less@K@std@@V?$allocator@U?$pair@$$CBKU_Friend@@@std@@@3@$0A@@std@@@std@@_N@std@@QAE@ABViterator@?$_Tree@V?$_Tmap_traits@KU_Friend@@U?$less@K@std@@V?$allocator@U?$pair@$$CBKU_Friend@@@std@@@3@$0A@@std@@@1@AB_N@Z 0040f9e0 f i rtmessenger.obj
 0001:0000ea00       ?_Color@?$_Tree@V?$_Tmap_traits@KU_Friend@@U?$less@K@std@@V?$allocator@U?$pair@$$CBKU_Friend@@@std@@@3@$0A@@std@@@std@@KAAADPAU_Node@?$_Tree_nod@V?$_Tmap_traits@KU_Friend@@U?$less@K@std@@V?$allocator@U?$pair@$$CBKU_Friend@@@std@@@3@$0A@@std@@@2@@Z 0040fa00 f i rtmessenger.obj
 0001:0000ea10       ?_Parent@?$_Tree@V?$_Tmap_traits@KU_Friend@@U?$less@K@std@@V?$allocator@U?$pair@$$CBKU_Friend@@@std@@@3@$0A@@std@@@std@@KAAAPAU_Node@?$_Tree_nod@V?$_Tmap_traits@KU_Friend@@U?$less@K@std@@V?$allocator@U?$pair@$$CBKU_Friend@@@std@@@3@$0A@@std@@@2@PAU342@@Z 0040fa10 f i rtmessenger.obj
 0001:0000ea20       ?_Myval@?$_Tree@V?$_Tmap_traits@KU_Friend@@U?$less@K@std@@V?$allocator@U?$pair@$$CBKU_Friend@@@std@@@3@$0A@@std@@@std@@KAAAU?$pair@$$CBKU_Friend@@@2@PAU_Node@?$_Tree_nod@V?$_Tmap_traits@KU_Friend@@U?$less@K@std@@V?$allocator@U?$pair@$$CBKU_Friend@@@std@@@3@$0A@@std@@@2@@Z 0040fa20 f i rtmessenger.obj
 0001:0000ea30       ??0?$allocator@U?$pair@$$CBKU_Friend@@@std@@@std@@QAE@ABV01@@Z 0040fa30 f i rtmessenger.obj
 0001:0000ea40       ?deallocate@?$allocator@U_Node@?$_Tree_nod@V?$_Tmap_traits@KU_Friend@@U?$less@K@std@@V?$allocator@U?$pair@$$CBKU_Friend@@@std@@@3@$0A@@std@@@std@@@std@@QAEXPAU_Node@?$_Tree_nod@V?$_Tmap_traits@KU_Friend@@U?$less@K@std@@V?$allocator@U?$pair@$$CBKU_Friend@@@std@@@3@$0A@@std@@@2@I@Z 0040fa40 f i rtmessenger.obj
 0001:0000ea50       ??0const_iterator@?$_Tree@V?$_Tmap_traits@KU_Friend@@U?$less@K@std@@V?$allocator@U?$pair@$$CBKU_Friend@@@std@@@3@$0A@@std@@@std@@QAE@PAU_Node@?$_Tree_nod@V?$_Tmap_traits@KU_Friend@@U?$less@K@std@@V?$allocator@U?$pair@$$CBKU_Friend@@@std@@@3@$0A@@std@@@2@@Z 0040fa50 f i rtmessenger.obj
 0001:0000ea60       ??Dconst_iterator@?$_Tree@V?$_Tmap_traits@KU_Friend@@U?$less@K@std@@V?$allocator@U?$pair@$$CBKU_Friend@@@std@@@3@$0A@@std@@@std@@QBEABU?$pair@$$CBKU_Friend@@@2@XZ 0040fa60 f i rtmessenger.obj
 0001:0000ea70       ?_Max@?$_Tree@V?$_Tmap_traits@KU_Friend@@U?$less@K@std@@V?$allocator@U?$pair@$$CBKU_Friend@@@std@@@3@$0A@@std@@@std@@KAPAU_Node@?$_Tree_nod@V?$_Tmap_traits@KU_Friend@@U?$less@K@std@@V?$allocator@U?$pair@$$CBKU_Friend@@@std@@@3@$0A@@std@@@2@PAU342@@Z 0040fa70 f i rtmessenger.obj
 0001:0000ea90       ?_Min@?$_Tree@V?$_Tmap_traits@KU_Friend@@U?$less@K@std@@V?$allocator@U?$pair@$$CBKU_Friend@@@std@@@3@$0A@@std@@@std@@KAPAU_Node@?$_Tree_nod@V?$_Tmap_traits@KU_Friend@@U?$less@K@std@@V?$allocator@U?$pair@$$CBKU_Friend@@@std@@@3@$0A@@std@@@2@PAU342@@Z 0040fa90 f i rtmessenger.obj
 0001:0000eab0       ?_Root@?$_Tree@V?$_Tmap_traits@KU_Friend@@U?$less@K@std@@V?$allocator@U?$pair@$$CBKU_Friend@@@std@@@3@$0A@@std@@@std@@IBEAAPAU_Node@?$_Tree_nod@V?$_Tmap_traits@KU_Friend@@U?$less@K@std@@V?$allocator@U?$pair@$$CBKU_Friend@@@std@@@3@$0A@@std@@@2@XZ 0040fab0 f i rtmessenger.obj
 0001:0000eac0       ?max_size@?$allocator@U?$pair@$$CBKU_Friend@@@std@@@std@@QBEIXZ 0040fac0 f i rtmessenger.obj
 0001:0000ead0       ?_Dec@const_iterator@?$_Tree@V?$_Tmap_traits@KU_Friend@@U?$less@K@std@@V?$allocator@U?$pair@$$CBKU_Friend@@@std@@@3@$0A@@std@@@std@@QAEXXZ 0040fad0 f i rtmessenger.obj
 0001:0000eb30       ??0_Node@?$_Tree_nod@V?$_Tmap_traits@KU_Friend@@U?$less@K@std@@V?$allocator@U?$pair@$$CBKU_Friend@@@std@@@3@$0A@@std@@@std@@QAE@PAU012@00ABU?$pair@$$CBKU_Friend@@@2@D@Z 0040fb30 f i rtmessenger.obj
 0001:0000eb70       ??0?$_Tmap_traits@KU_Friend@@U?$less@K@std@@V?$allocator@U?$pair@$$CBKU_Friend@@@std@@@3@$0A@@std@@QAE@U?$less@K@1@@Z 0040fb70 f i rtmessenger.obj
 0001:0000eb80       ??$_Destroy@U_Node@?$_Tree_nod@V?$_Tmap_traits@KU_Friend@@U?$less@K@std@@V?$allocator@U?$pair@$$CBKU_Friend@@@std@@@3@$0A@@std@@@std@@@std@@YAXPAU_Node@?$_Tree_nod@V?$_Tmap_traits@KU_Friend@@U?$less@K@std@@V?$allocator@U?$pair@$$CBKU_Friend@@@std@@@3@$0A@@std@@@0@@Z 0040fb80 f i rtmessenger.obj
 0001:0000eb90       ??$_Destroy@PAU_Node@?$_Tree_nod@V?$_Tmap_traits@KU_Friend@@U?$less@K@std@@V?$allocator@U?$pair@$$CBKU_Friend@@@std@@@3@$0A@@std@@@std@@@std@@YAXPAPAU_Node@?$_Tree_nod@V?$_Tmap_traits@KU_Friend@@U?$less@K@std@@V?$allocator@U?$pair@$$CBKU_Friend@@@std@@@3@$0A@@std@@@0@@Z 0040fb90 f i rtmessenger.obj
 0001:0000eba0       ??$?0U?$pair@$$CBKU_Friend@@@std@@@?$allocator@PAU_Node@?$_Tree_nod@V?$_Tmap_traits@KU_Friend@@U?$less@K@std@@V?$allocator@U?$pair@$$CBKU_Friend@@@std@@@3@$0A@@std@@@std@@@std@@QAE@ABV?$allocator@U?$pair@$$CBKU_Friend@@@std@@@1@@Z 0040fba0 f i rtmessenger.obj
 0001:0000ebb0       ??$_Allocate@U_Node@?$_Tree_nod@V?$_Tmap_traits@KU_Friend@@U?$less@K@std@@V?$allocator@U?$pair@$$CBKU_Friend@@@std@@@3@$0A@@std@@@std@@@std@@YAPAU_Node@?$_Tree_nod@V?$_Tmap_traits@KU_Friend@@U?$less@K@std@@V?$allocator@U?$pair@$$CBKU_Friend@@@std@@@3@$0A@@std@@@0@IPAU120@@Z 0040fbb0 f i rtmessenger.obj
 0001:0000ebd0       ??$?0U?$pair@$$CBKU_Friend@@@std@@@?$allocator@U_Node@?$_Tree_nod@V?$_Tmap_traits@KU_Friend@@U?$less@K@std@@V?$allocator@U?$pair@$$CBKU_Friend@@@std@@@3@$0A@@std@@@std@@@std@@QAE@ABV?$allocator@U?$pair@$$CBKU_Friend@@@std@@@1@@Z 0040fbd0 f i rtmessenger.obj
 0001:0000ebe0       ??$_Construct@PAU_Node@?$_Tree_nod@V?$_Tmap_traits@KU_Friend@@U?$less@K@std@@V?$allocator@U?$pair@$$CBKU_Friend@@@std@@@3@$0A@@std@@@std@@PAU123@@std@@YAXPAPAU_Node@?$_Tree_nod@V?$_Tmap_traits@KU_Friend@@U?$less@K@std@@V?$allocator@U?$pair@$$CBKU_Friend@@@std@@@3@$0A@@std@@@0@ABQAU120@@Z 0040fbe0 f i rtmessenger.obj
 0001:0000ec00       ??6CAr@@QAEAAV0@H@Z        0040fc00 f i rtmessenger.obj
 0001:0000ec20       ??5CAr@@QAEAAV0@AAH@Z      0040fc20 f i rtmessenger.obj
 0001:0000ec60       ??9const_iterator@?$_Tree@V?$_Tmap_traits@KU_Friend@@U?$less@K@std@@V?$allocator@U?$pair@$$CBKU_Friend@@@std@@@3@$0A@@std@@@std@@QBE_NABV012@@Z 0040fc60 f i rtmessenger.obj
 0001:0000ec80       ?_Key@?$_Tree@V?$_Tmap_traits@KU_Friend@@U?$less@K@std@@V?$allocator@U?$pair@$$CBKU_Friend@@@std@@@3@$0A@@std@@@std@@KAABKPAU_Node@?$_Tree_nod@V?$_Tmap_traits@KU_Friend@@U?$less@K@std@@V?$allocator@U?$pair@$$CBKU_Friend@@@std@@@3@$0A@@std@@@2@@Z 0040fc80 f i rtmessenger.obj
 0001:0000ec90       ?_Root@?$_Tree@V?$_Tmap_traits@KU_Friend@@U?$less@K@std@@V?$allocator@U?$pair@$$CBKU_Friend@@@std@@@3@$0A@@std@@@std@@IAEAAPAU_Node@?$_Tree_nod@V?$_Tmap_traits@KU_Friend@@U?$less@K@std@@V?$allocator@U?$pair@$$CBKU_Friend@@@std@@@3@$0A@@std@@@2@XZ 0040fc90 f i rtmessenger.obj
 0001:0000eca0       ??0iterator@?$_Tree@V?$_Tmap_traits@KU_Friend@@U?$less@K@std@@V?$allocator@U?$pair@$$CBKU_Friend@@@std@@@3@$0A@@std@@@std@@QAE@PAU_Node@?$_Tree_nod@V?$_Tmap_traits@KU_Friend@@U?$less@K@std@@V?$allocator@U?$pair@$$CBKU_Friend@@@std@@@3@$0A@@std@@@2@@Z 0040fca0 f i rtmessenger.obj
 0001:0000ecb0       ??Diterator@?$_Tree@V?$_Tmap_traits@KU_Friend@@U?$less@K@std@@V?$allocator@U?$pair@$$CBKU_Friend@@@std@@@3@$0A@@std@@@std@@QBEAAU?$pair@$$CBKU_Friend@@@2@XZ 0040fcb0 f i rtmessenger.obj
 0001:0000ecc0       ?max_size@?$_Tree@V?$_Tmap_traits@KU_Friend@@U?$less@K@std@@V?$allocator@U?$pair@$$CBKU_Friend@@@std@@@3@$0A@@std@@@std@@QBEIXZ 0040fcc0 f i rtmessenger.obj
 0001:0000ecd0       ?_Lbound@?$_Tree@V?$_Tmap_traits@KU_Friend@@U?$less@K@std@@V?$allocator@U?$pair@$$CBKU_Friend@@@std@@@3@$0A@@std@@@std@@IBEPAU_Node@?$_Tree_nod@V?$_Tmap_traits@KU_Friend@@U?$less@K@std@@V?$allocator@U?$pair@$$CBKU_Friend@@@std@@@3@$0A@@std@@@2@ABK@Z 0040fcd0 f i rtmessenger.obj
 0001:0000ed00       ?_Lrotate@?$_Tree@V?$_Tmap_traits@KU_Friend@@U?$less@K@std@@V?$allocator@U?$pair@$$CBKU_Friend@@@std@@@3@$0A@@std@@@std@@IAEXPAU_Node@?$_Tree_nod@V?$_Tmap_traits@KU_Friend@@U?$less@K@std@@V?$allocator@U?$pair@$$CBKU_Friend@@@std@@@3@$0A@@std@@@2@@Z 0040fd00 f i rtmessenger.obj
 0001:0000ed60       ?_Rrotate@?$_Tree@V?$_Tmap_traits@KU_Friend@@U?$less@K@std@@V?$allocator@U?$pair@$$CBKU_Friend@@@std@@@3@$0A@@std@@@std@@IAEXPAU_Node@?$_Tree_nod@V?$_Tmap_traits@KU_Friend@@U?$less@K@std@@V?$allocator@U?$pair@$$CBKU_Friend@@@std@@@3@$0A@@std@@@2@@Z 0040fd60 f i rtmessenger.obj
 0001:0000edc0       ?destroy@?$allocator@U_Node@?$_Tree_nod@V?$_Tmap_traits@KU_Friend@@U?$less@K@std@@V?$allocator@U?$pair@$$CBKU_Friend@@@std@@@3@$0A@@std@@@std@@@std@@QAEXPAU_Node@?$_Tree_nod@V?$_Tmap_traits@KU_Friend@@U?$less@K@std@@V?$allocator@U?$pair@$$CBKU_Friend@@@std@@@3@$0A@@std@@@2@@Z 0040fdc0 f i rtmessenger.obj
 0001:0000edd0       ?destroy@?$allocator@PAU_Node@?$_Tree_nod@V?$_Tmap_traits@KU_Friend@@U?$less@K@std@@V?$allocator@U?$pair@$$CBKU_Friend@@@std@@@3@$0A@@std@@@std@@@std@@QAEXPAPAU_Node@?$_Tree_nod@V?$_Tmap_traits@KU_Friend@@U?$less@K@std@@V?$allocator@U?$pair@$$CBKU_Friend@@@std@@@3@$0A@@std@@@2@@Z 0040fdd0 f i rtmessenger.obj
 0001:0000ede0       ??Fconst_iterator@?$_Tree@V?$_Tmap_traits@KU_Friend@@U?$less@K@std@@V?$allocator@U?$pair@$$CBKU_Friend@@@std@@@3@$0A@@std@@@std@@QAEAAV012@XZ 0040fde0 f i rtmessenger.obj
 0001:0000edf0       ?_Inc@const_iterator@?$_Tree@V?$_Tmap_traits@KU_Friend@@U?$less@K@std@@V?$allocator@U?$pair@$$CBKU_Friend@@@std@@@3@$0A@@std@@@std@@QAEXXZ 0040fdf0 f i rtmessenger.obj
 0001:0000ee50       ?allocate@?$allocator@U_Node@?$_Tree_nod@V?$_Tmap_traits@KU_Friend@@U?$less@K@std@@V?$allocator@U?$pair@$$CBKU_Friend@@@std@@@3@$0A@@std@@@std@@@std@@QAEPAU_Node@?$_Tree_nod@V?$_Tmap_traits@KU_Friend@@U?$less@K@std@@V?$allocator@U?$pair@$$CBKU_Friend@@@std@@@3@$0A@@std@@@2@I@Z 0040fe50 f i rtmessenger.obj
 0001:0000ee70       ??0?$_Tree_nod@V?$_Tmap_traits@KU_Friend@@U?$less@K@std@@V?$allocator@U?$pair@$$CBKU_Friend@@@std@@@3@$0A@@std@@@std@@IAE@ABU?$less@K@1@V?$allocator@U?$pair@$$CBKU_Friend@@@std@@@1@@Z 0040fe70 f i rtmessenger.obj
 0001:0000ee80       ?construct@?$allocator@PAU_Node@?$_Tree_nod@V?$_Tmap_traits@KU_Friend@@U?$less@K@std@@V?$allocator@U?$pair@$$CBKU_Friend@@@std@@@3@$0A@@std@@@std@@@std@@QAEXPAPAU_Node@?$_Tree_nod@V?$_Tmap_traits@KU_Friend@@U?$less@K@std@@V?$allocator@U?$pair@$$CBKU_Friend@@@std@@@3@$0A@@std@@@2@ABQAU342@@Z 0040fe80 f i rtmessenger.obj
 0001:0000eea0       ?begin@?$_Tree@V?$_Tmap_traits@KU_Friend@@U?$less@K@std@@V?$allocator@U?$pair@$$CBKU_Friend@@@std@@@3@$0A@@std@@@std@@QAE?AViterator@12@XZ 0040fea0 f i rtmessenger.obj
 0001:0000eeb0       ?end@?$_Tree@V?$_Tmap_traits@KU_Friend@@U?$less@K@std@@V?$allocator@U?$pair@$$CBKU_Friend@@@std@@@3@$0A@@std@@@std@@QAE?AViterator@12@XZ 0040feb0 f i rtmessenger.obj
 0001:0000eec0       ??Citerator@?$_Tree@V?$_Tmap_traits@KU_Friend@@U?$less@K@std@@V?$allocator@U?$pair@$$CBKU_Friend@@@std@@@3@$0A@@std@@@std@@QBEPAU?$pair@$$CBKU_Friend@@@2@XZ 0040fec0 f i rtmessenger.obj
 0001:0000eed0       ?lower_bound@?$_Tree@V?$_Tmap_traits@KU_Friend@@U?$less@K@std@@V?$allocator@U?$pair@$$CBKU_Friend@@@std@@@3@$0A@@std@@@std@@QAE?AViterator@12@ABK@Z 0040fed0 f i rtmessenger.obj
 0001:0000ef10       ?_Erase@?$_Tree@V?$_Tmap_traits@KU_Friend@@U?$less@K@std@@V?$allocator@U?$pair@$$CBKU_Friend@@@std@@@3@$0A@@std@@@std@@IAEXPAU_Node@?$_Tree_nod@V?$_Tmap_traits@KU_Friend@@U?$less@K@std@@V?$allocator@U?$pair@$$CBKU_Friend@@@std@@@3@$0A@@std@@@2@@Z 0040ff10 f i rtmessenger.obj
 0001:0000ef50       ??Fiterator@?$_Tree@V?$_Tmap_traits@KU_Friend@@U?$less@K@std@@V?$allocator@U?$pair@$$CBKU_Friend@@@std@@@3@$0A@@std@@@std@@QAEAAV012@XZ 0040ff50 f i rtmessenger.obj
 0001:0000ef60       ??Econst_iterator@?$_Tree@V?$_Tmap_traits@KU_Friend@@U?$less@K@std@@V?$allocator@U?$pair@$$CBKU_Friend@@@std@@@3@$0A@@std@@@std@@QAEAAV012@XZ 0040ff60 f i rtmessenger.obj
 0001:0000ef70       ?_Buynode@?$_Tree@V?$_Tmap_traits@KU_Friend@@U?$less@K@std@@V?$allocator@U?$pair@$$CBKU_Friend@@@std@@@3@$0A@@std@@@std@@IAEPAU_Node@?$_Tree_nod@V?$_Tmap_traits@KU_Friend@@U?$less@K@std@@V?$allocator@U?$pair@$$CBKU_Friend@@@std@@@3@$0A@@std@@@2@PAU342@00ABU?$pair@$$CBKU_Friend@@@2@D@Z 0040ff70 f i rtmessenger.obj
 0001:0000efc0       ?_Buynode@?$_Tree@V?$_Tmap_traits@KU_Friend@@U?$less@K@std@@V?$allocator@U?$pair@$$CBKU_Friend@@@std@@@3@$0A@@std@@@std@@IAEPAU_Node@?$_Tree_nod@V?$_Tmap_traits@KU_Friend@@U?$less@K@std@@V?$allocator@U?$pair@$$CBKU_Friend@@@std@@@3@$0A@@std@@@2@XZ 0040ffc0 f i rtmessenger.obj
 0001:0000f000       ??0?$_Tree_ptr@V?$_Tmap_traits@KU_Friend@@U?$less@K@std@@V?$allocator@U?$pair@$$CBKU_Friend@@@std@@@3@$0A@@std@@@std@@IAE@ABU?$less@K@1@V?$allocator@U?$pair@$$CBKU_Friend@@@std@@@1@@Z 00410000 f i rtmessenger.obj
 0001:0000f010       ?clear@?$_Tree@V?$_Tmap_traits@KU_Friend@@U?$less@K@std@@V?$allocator@U?$pair@$$CBKU_Friend@@@std@@@3@$0A@@std@@@std@@QAEXXZ 00410010 f i rtmessenger.obj
 0001:0000f040       ?find@?$_Tree@V?$_Tmap_traits@KU_Friend@@U?$less@K@std@@V?$allocator@U?$pair@$$CBKU_Friend@@@std@@@3@$0A@@std@@@std@@QAE?AViterator@12@ABK@Z 00410040 f i rtmessenger.obj
 0001:0000f0b0       ??Eiterator@?$_Tree@V?$_Tmap_traits@KU_Friend@@U?$less@K@std@@V?$allocator@U?$pair@$$CBKU_Friend@@@std@@@3@$0A@@std@@@std@@QAEAAV012@XZ 004100b0 f i rtmessenger.obj
 0001:0000f0c0       ?_Init@?$_Tree@V?$_Tmap_traits@KU_Friend@@U?$less@K@std@@V?$allocator@U?$pair@$$CBKU_Friend@@@std@@@3@$0A@@std@@@std@@IAEXXZ 004100c0 f i rtmessenger.obj
 0001:0000f0f0       ??0?$_Tree_val@V?$_Tmap_traits@KU_Friend@@U?$less@K@std@@V?$allocator@U?$pair@$$CBKU_Friend@@@std@@@3@$0A@@std@@@std@@IAE@ABU?$less@K@1@V?$allocator@U?$pair@$$CBKU_Friend@@@std@@@1@@Z 004100f0 f i rtmessenger.obj
 0001:0000f100       ??Eiterator@?$_Tree@V?$_Tmap_traits@KU_Friend@@U?$less@K@std@@V?$allocator@U?$pair@$$CBKU_Friend@@@std@@@3@$0A@@std@@@std@@QAE?AV012@H@Z 00410100 f i rtmessenger.obj
 0001:0000f120       ?GetFriend@CRTMessenger@@QAEPAU_Friend@@K@Z 00410120 f   rtmessenger.obj
 0001:0000f150       ?SetBlock@CRTMessenger@@QAEXKH@Z 00410150 f   rtmessenger.obj
 0001:0000f190       ?IsBlock@CRTMessenger@@QAEHK@Z 00410190 f   rtmessenger.obj
 0001:0000f1d0       ??0?$_Tree@V?$_Tmap_traits@KU_Friend@@U?$less@K@std@@V?$allocator@U?$pair@$$CBKU_Friend@@@std@@@3@$0A@@std@@@std@@QAE@ABU?$less@K@1@ABV?$allocator@U?$pair@$$CBKU_Friend@@@std@@@1@@Z 004101d0 f i rtmessenger.obj
 0001:0000f200       ?_Insert@?$_Tree@V?$_Tmap_traits@KU_Friend@@U?$less@K@std@@V?$allocator@U?$pair@$$CBKU_Friend@@@std@@@3@$0A@@std@@@std@@IAE?AViterator@12@_NPAU_Node@?$_Tree_nod@V?$_Tmap_traits@KU_Friend@@U?$less@K@std@@V?$allocator@U?$pair@$$CBKU_Friend@@@std@@@3@$0A@@std@@@2@ABU?$pair@$$CBKU_Friend@@@2@@Z 00410200 f i rtmessenger.obj
 0001:0000f3b0       ?erase@?$_Tree@V?$_Tmap_traits@KU_Friend@@U?$less@K@std@@V?$allocator@U?$pair@$$CBKU_Friend@@@std@@@3@$0A@@std@@@std@@QAE?AViterator@12@V312@@Z 004103b0 f i rtmessenger.obj
 0001:0000f670       ?insert@?$_Tree@V?$_Tmap_traits@KU_Friend@@U?$less@K@std@@V?$allocator@U?$pair@$$CBKU_Friend@@@std@@@3@$0A@@std@@@std@@QAE?AU?$pair@Viterator@?$_Tree@V?$_Tmap_traits@KU_Friend@@U?$less@K@std@@V?$allocator@U?$pair@$$CBKU_Friend@@@std@@@3@$0A@@std@@@std@@_N@2@ABU?$pair@$$CBKU_Friend@@@2@@Z 00410670 f i rtmessenger.obj
 0001:0000f730       ?erase@?$_Tree@V?$_Tmap_traits@KU_Friend@@U?$less@K@std@@V?$allocator@U?$pair@$$CBKU_Friend@@@std@@@3@$0A@@std@@@std@@QAE?AViterator@12@V312@0@Z 00410730 f i rtmessenger.obj
 0001:0000f7f0       ?_Tidy@?$_Tree@V?$_Tmap_traits@KU_Friend@@U?$less@K@std@@V?$allocator@U?$pair@$$CBKU_Friend@@@std@@@3@$0A@@std@@@std@@IAEXXZ 004107f0 f i rtmessenger.obj
 0001:0000f820       ?SetFriend@CRTMessenger@@QAEXKPAU_Friend@@@Z 00410820 f   rtmessenger.obj
 0001:0000f8b0       ?Serialize@CRTMessenger@@QAEHAAVCAr@@@Z 004108b0 f   rtmessenger.obj
 0001:0000fa20       ??4CRTMessenger@@UAEAAV0@AAV0@@Z 00410a20 f   rtmessenger.obj
 0001:0000fa90       ??1?$_Tree@V?$_Tmap_traits@KU_Friend@@U?$less@K@std@@V?$allocator@U?$pair@$$CBKU_Friend@@@std@@@3@$0A@@std@@@std@@QAE@XZ 00410a90 f i rtmessenger.obj
 0001:0000fac0       ??1?$map@KU_Friend@@U?$less@K@std@@V?$allocator@U?$pair@$$CBKU_Friend@@@std@@@3@@std@@QAE@XZ 00410ac0 f i rtmessenger.obj
 0001:0000faf0       ??1CRTMessenger@@UAE@XZ    00410af0 f   rtmessenger.obj
 0001:0000fb80       ??0?$map@KU_Friend@@U?$less@K@std@@V?$allocator@U?$pair@$$CBKU_Friend@@@std@@@3@@std@@QAE@XZ 00410b80 f i rtmessenger.obj
 0001:0000fbb0       ??0CRTMessenger@@QAE@XZ    00410bb0 f   rtmessenger.obj
 0001:0000fbf0       ??_GCRTMessenger@@UAEPAXI@Z 00410bf0 f i rtmessenger.obj
 0001:0000fbf0       ??_ECRTMessenger@@UAEPAXI@Z 00410bf0 f i rtmessenger.obj
 0001:0000fc10       ??0CSpeedHackChecker@@QAE@XZ 00410c10 f   speedhackchecker.obj
 0001:0000fc20       ??1CSpeedHackChecker@@QAE@XZ 00410c20 f   speedhackchecker.obj
 0001:0000fc30       ?sETbaseOfServer@CSpeedHackChecker@@QAEXPAVCDPMng@@K@Z 00410c30 f   speedhackchecker.obj
 0001:0000fd30       ?sETbaseOfClient@CSpeedHackChecker@@QAEXK@Z 00410d30 f   speedhackchecker.obj
 0001:0000fd40       ?rEQoffsetOfClient@CSpeedHackChecker@@QAEXPAVCDPMng@@K@Z 00410d40 f   speedhackchecker.obj
 0001:0000fe30       ?CheckClock@CSpeedHackChecker@@QAEHKPAVCDPMng@@K@Z 00410e30 f   speedhackchecker.obj
 0001:0000ff70       ?Allocate@CCRTAllocator@ATL@@SAPAXI@Z 00410f70 f i StdAfx.obj
 0001:0000ff80       ?Free@CCRTAllocator@ATL@@SAXPAX@Z 00410f80 f i StdAfx.obj
 0001:0000ff90       ?_AtlVerifyStackAvailable@_ATL_SAFE_ALLOCA_IMPL@ATL@@YA_NK@Z 00410f90 f i StdAfx.obj
 0001:00010020       ?AtlA2WHelper@@YGPAGPAGPBDHI@Z 00411020 f i StdAfx.obj
 0001:00010060       ?AtlW2AHelper@@YGPADPADPBGHI@Z 00411060 f i StdAfx.obj
 0001:000100a0       ?AtlThrowLastWin32@ATL@@YGXXZ 004110a0 f i StdAfx.obj
 0001:000100c0       ?_AtlInstallStringThunk@ATL@@YAXPAPAXPAX1@Z 004110c0 f i StdAfx.obj
 0001:00010100       ?lstrcmpiWFake@ATL@@YGHPBG0@Z 00411100 f i StdAfx.obj
 0001:000101d0       ?lstrcmpiWThunk@ATL@@YGHPBG0@Z 004111d0 f i StdAfx.obj
 0001:00010220       ?CharLowerWFake@ATL@@YGPAGPAG@Z 00411220 f i StdAfx.obj
 0001:000102e0       ?CharLowerWThunk@ATL@@YGPAGPAG@Z 004112e0 f i StdAfx.obj
 0001:00010330       ?CharUpperWFake@ATL@@YGPAGPAG@Z 00411330 f i StdAfx.obj
 0001:000103f0       ?CharUpperWThunk@ATL@@YGPAGPAG@Z 004113f0 f i StdAfx.obj
 0001:00010440       ??0?$CAtlSafeAllocBufferManager@VCCRTAllocator@ATL@@@_ATL_SAFE_ALLOCA_IMPL@ATL@@QAE@XZ 00411440 f i StdAfx.obj
 0001:00010450       ??1?$CAtlSafeAllocBufferManager@VCCRTAllocator@ATL@@@_ATL_SAFE_ALLOCA_IMPL@ATL@@QAE@XZ 00411450 f i StdAfx.obj
 0001:00010470       ??0?$CTempBuffer@D$0IA@VCCRTAllocator@ATL@@@ATL@@QAE@XZ 00411470 f i StdAfx.obj
 0001:00010480       ??B?$CTempBuffer@D$0IA@VCCRTAllocator@ATL@@@ATL@@QBEPADXZ 00411480 f i StdAfx.obj
 0001:00010490       ??1?$CW2AEX@$0IA@@ATL@@QAE@XZ 00411490 f i StdAfx.obj
 0001:000104b0       ??B?$CW2AEX@$0IA@@ATL@@QBEPADXZ 004114b0 f i StdAfx.obj
 0001:000104c0       ?FreeHeap@?$CTempBuffer@D$0IA@VCCRTAllocator@ATL@@@ATL@@AAEXXZ 004114c0 f i StdAfx.obj
 0001:000104d0       ?Init@?$CW2AEX@$0IA@@ATL@@AAEXPBGI@Z 004114d0 f i StdAfx.obj
 0001:00010540       ?StringFindString@?$ChTraitsCRT@D@ATL@@SAPBDPBD0@Z 00411540 f i StdAfx.obj
 0001:00010550       ?StringUppercase@?$ChTraitsCRT@D@ATL@@SAPADPAD@Z 00411550 f i StdAfx.obj
 0001:00010560       ?GetData@CAtlSafeAllocBufferNode@?$CAtlSafeAllocBufferManager@VCCRTAllocator@ATL@@@_ATL_SAFE_ALLOCA_IMPL@ATL@@QAEPAXXZ 00411560 f i StdAfx.obj
 0001:00010570       ?AllocateHeap@?$CTempBuffer@D$0IA@VCCRTAllocator@ATL@@@ATL@@AAEXI@Z 00411570 f i StdAfx.obj
 0001:000105a0       ?Allocate@?$CAtlSafeAllocBufferManager@VCCRTAllocator@ATL@@@_ATL_SAFE_ALLOCA_IMPL@ATL@@QAEPAXK@Z 004115a0 f i StdAfx.obj
 0001:000105d0       ??1?$CTempBuffer@D$0IA@VCCRTAllocator@ATL@@@ATL@@QAE@XZ 004115d0 f i StdAfx.obj
 0001:000105e0       ??0?$CW2AEX@$0IA@@ATL@@QAE@PBG@Z 004115e0 f i StdAfx.obj
 0001:00010610       ?AllocateBytes@?$CTempBuffer@D$0IA@VCCRTAllocator@ATL@@@ATL@@QAEPADI@Z 00411610 f i StdAfx.obj
 0001:00010640       ?CompareStringWFake@ATL@@YGHKKPBGH0H@Z 00411640 f i StdAfx.obj
 0001:000107a0       ?CompareStringWThunk@ATL@@YGHKKPBGH0H@Z 004117a0 f i StdAfx.obj
 0001:000107f0       ?Allocate@?$CTempBuffer@D$0IA@VCCRTAllocator@ATL@@@ATL@@QAEPADI@Z 004117f0 f i StdAfx.obj
 0001:00010820       ??0?$CStringT@DV?$StrTraitMFC@DV?$ChTraitsCRT@D@ATL@@@@@ATL@@QAE@XZ 00411820 f i StdAfx.obj
 0001:00010840       ?Find@?$CStringT@DV?$StrTraitMFC@DV?$ChTraitsCRT@D@ATL@@@@@ATL@@QBEHPBDH@Z 00411840 f i StdAfx.obj
 0001:00010880       ?GetEnvironmentVariableWFake@ATL@@YGKPBGPAGK@Z 00411880 f i StdAfx.obj
 0001:00010a10       ?GetEnvironmentVariableWThunk@ATL@@YGKPBGPAGK@Z 00411a10 f i StdAfx.obj
 0001:00010a60       ?GetStringTypeExWFake@ATL@@YGHKKPBGHPAG@Z 00411a60 f i StdAfx.obj
 0001:00010b70       ?GetStringTypeExWThunk@ATL@@YGHKKPBGHPAG@Z 00411b70 f i StdAfx.obj
 0001:00010bc0       ?MakeUpper@?$CStringT@DV?$StrTraitMFC@DV?$ChTraitsCRT@D@ATL@@@@@ATL@@QAEAAV12@XZ 00411bc0 f i StdAfx.obj
 0001:00010c20       ?KillProcess@@YAHV?$CStringT@DV?$StrTraitMFC@DV?$ChTraitsCRT@D@ATL@@@@@ATL@@@Z 00411c20 f   StdAfx.obj
 0001:00010ec0       ?GetCharLen@@YAHPBD@Z      00411ec0 f   vutil.obj
 0001:00010ed0       ?GetStrCut@@YAHPBDPADH@Z   00411ed0 f   vutil.obj
 0001:00010f20       ?GetStrLen@@YAHPBD@Z       00411f20 f   vutil.obj
 0001:00010f60       ?CopyChar@@YAHPBDPAD@Z     00411f60 f   vutil.obj
 0001:00010fa0       ?IsMultiByte@@YAHPBD@Z     00411fa0 f   vutil.obj
 0001:00010fd0       ?IsHangul@@YAHG@Z          00411fd0 f   vutil.obj
 0001:00011020       ?SetStrNull@@YAXPADH@Z     00412020 f   vutil.obj
 0001:00011080       ?AddRef@CStringData@ATL@@QAEXXZ 00412080 f i vutil.obj
 0001:00011090       ?isdigit2@@YAHD@Z          00412090 f i vutil.obj
 0001:000110b0       ?IsNative@@YAHPBD@Z        004120b0 f   vutil.obj
 0001:00011170       ?GetManager@?$CSimpleStringT@D$0A@@ATL@@QBEPAUIAtlStringMgr@2@XZ 00412170 f i vutil.obj
 0001:00011180       ??0?$CSimpleStringT@D$0A@@ATL@@QAE@PBDHPAUIAtlStringMgr@1@@Z 00412180 f i vutil.obj
 0001:000111f0       ?CloneData@?$CSimpleStringT@D$0A@@ATL@@CAPAUCStringData@2@PAU32@@Z 004121f0 f i vutil.obj
 0001:00011250       ??A?$CSimpleStringT@D$0A@@ATL@@QBEDH@Z 00412250 f i vutil.obj
 0001:00011270       ??0?$CStringT@DV?$StrTraitMFC@DV?$ChTraitsCRT@D@ATL@@@@@ATL@@QAE@PBDHPAUIAtlStringMgr@1@@Z 00412270 f i vutil.obj
 0001:00011290       ??0?$CSimpleStringT@D$0A@@ATL@@QAE@ABV01@@Z 00412290 f i vutil.obj
 0001:000112b0       ??0?$CStringT@DV?$StrTraitMFC@DV?$ChTraitsCRT@D@ATL@@@@@ATL@@QAE@ABV01@@Z 004122b0 f i vutil.obj
 0001:000112d0       ?Left@?$CStringT@DV?$StrTraitMFC@DV?$ChTraitsCRT@D@ATL@@@@@ATL@@QBE?AV12@H@Z 004122d0 f i vutil.obj
 0001:00011330       ??4?$CSimpleStringT@D$0A@@ATL@@QAEAAV01@ABV01@@Z 00412330 f i vutil.obj
 0001:000113a0       ??4?$CStringT@DV?$StrTraitMFC@DV?$ChTraitsCRT@D@ATL@@@@@ATL@@QAEAAV01@ABV01@@Z 004123a0 f i vutil.obj
 0001:000113c0       ?SetStrNull@@YAXAAV?$CStringT@DV?$StrTraitMFC@DV?$ChTraitsCRT@D@ATL@@@@@ATL@@H@Z 004123c0 f   vutil.obj
 0001:000114b0       ?GetCrcByte@CRC32@@QBEEI@Z 004124b0 f i crc.obj
 0001:000114c0       ?Reset@CRC32@@AAEXXZ       004124c0 f i crc.obj
 0001:000114d0       ??0CRC32@@QAE@XZ           004124d0 f   crc.obj
 0001:000114e0       ?ThrowIfInvalidTruncatedSize@CRC32@@ABEXI@Z 004124e0 f   crc.obj
 0001:000114f0       ?TruncatedFinal@CRC32@@QAEXPAEI@Z 004124f0 f   crc.obj
 0001:00011530       ??$IsPowerOf2@I@@YA_NI@Z   00412530 f i crc.obj
 0001:00011550       ??$ModPowerOf2@II@@YAIII@Z 00412550 f i crc.obj
 0001:00011560       ??$GetAlignment@I@@YAIPAI@Z 00412560 f i crc.obj
 0001:00011570       ?IsAlignedOn@@YA_NPBXI@Z   00412570 f i crc.obj
 0001:000115a0       ??$IsAligned@I@@YA_NPBXPAI@Z 004125a0 f i crc.obj
 0001:000115b0       ?Update@CRC32@@QAEXPBEI@Z  004125b0 f   crc.obj
 0001:000116c0       ?Restart@CRC32@@QAEXXZ     004126c0 f i buffer.obj
 0001:000116d0       ?DigestSize@CRC32@@QBEIXZ  004126d0 f i buffer.obj
 0001:000116e0       ?GetWritableBuffer@CBuffer@@QAEPAEPAH@Z 004126e0 f i buffer.obj
 0001:00011700       ?GetWritableBufferSize@CBuffer@@QAEHXZ 00412700 f i buffer.obj
 0001:00011710       ?GetReadableBuffer@CBuffer@@QAEPAEPAH@Z 00412710 f i buffer.obj
 0001:00011730       ?GetReadableBufferSize@CBuffer@@QAEHXZ 00412730 f i buffer.obj
 0001:00011740       ?GetHead@CBufferQueue@@QAEPAVCBuffer@@XZ 00412740 f i buffer.obj
 0001:00011750       ?GetTail@CBufferQueue@@QAEPAVCBuffer@@XZ 00412750 f i buffer.obj
 0001:00011760       ?IsEmpty@CBufferQueue@@QAEHXZ 00412760 f i buffer.obj
 0001:00011770       ?RemoveHead@CBufferQueue@@QAEXXZ 00412770 f i buffer.obj
 0001:000117b0       ??0CBuffer@@QAE@K@Z        004127b0 f   buffer.obj
 0001:00011820       ?GetPacketSize@CBuffer@@UAEKPAE@Z 00412820 f i buffer.obj
 0001:00011830       ?SetHeader@CBuffer@@UAEXK@Z 00412830 f i buffer.obj
 0001:00011860       ??1CBuffer@@UAE@XZ         00412860 f   buffer.obj
 0001:00011890       ?RemoveData@CBufferQueue@@QAEXK@Z 00412890 f   buffer.obj
 0001:00011910       ?GetData@CBufferQueue@@QAEXPAU_WSABUF@@PAK@Z 00412910 f   buffer.obj
 0001:00011960       ??0CBufferFactory@@AAE@XZ  00412960 f   buffer.obj
 0001:00011970       ?GetInstance@CBufferFactory@@SAAAV1@XZ 00412970 f   buffer.obj
 0001:00011990       ?Free@?$MemPooler@VCBuffer@@@@QAEHPAVCBuffer@@@Z 00412990 f i buffer.obj
 0001:000119e0       ?Free@?$MemPooler@VCBuffer2@@@@QAEHPAVCBuffer2@@@Z 004129e0 f i buffer.obj
 0001:00011a30       ??0?$allocator@PAX@std@@QAE@XZ 00412a30 f i buffer.obj
 0001:00011a40       ??0?$allocator@PAX@std@@QAE@ABV01@@Z 00412a40 f i buffer.obj
 0001:00011a50       ?_Nextnode@?$list@PAXV?$allocator@PAX@std@@@std@@KAAAPAU_Node@?$_List_nod@PAXV?$allocator@PAX@std@@@2@PAU342@@Z 00412a50 f i buffer.obj
 0001:00011a60       ?_Prevnode@?$list@PAXV?$allocator@PAX@std@@@std@@KAAAPAU_Node@?$_List_nod@PAXV?$allocator@PAX@std@@@2@PAU342@@Z 00412a60 f i buffer.obj
 0001:00011a70       ?deallocate@?$allocator@U_Node@?$_List_nod@PAXV?$allocator@PAX@std@@@std@@@std@@QAEXPAU_Node@?$_List_nod@PAXV?$allocator@PAX@std@@@2@I@Z 00412a70 f i buffer.obj
 0001:00011a80       ?_Mynode@const_iterator@?$list@PAXV?$allocator@PAX@std@@@std@@QBEPAU_Node@?$_List_nod@PAXV?$allocator@PAX@std@@@3@XZ 00412a80 f i buffer.obj
 0001:00011a90       ??0const_iterator@?$list@PAXV?$allocator@PAX@std@@@std@@QAE@PAU_Node@?$_List_nod@PAXV?$allocator@PAX@std@@@2@@Z 00412a90 f i buffer.obj
 0001:00011aa0       ??0_Node@?$_List_nod@PAXV?$allocator@PAX@std@@@std@@QAE@PAU012@0ABQAX@Z 00412aa0 f i buffer.obj
 0001:00011ac0       ?max_size@?$allocator@PAX@std@@QBEIXZ 00412ac0 f i buffer.obj
 0001:00011ad0       ??$?0PAX@?$allocator@PAU_Node@?$_List_nod@PAXV?$allocator@PAX@std@@@std@@@std@@QAE@ABV?$allocator@PAX@1@@Z 00412ad0 f i buffer.obj
 0001:00011ae0       ??$_Allocate@U_Node@?$_List_nod@PAXV?$allocator@PAX@std@@@std@@@std@@YAPAU_Node@?$_List_nod@PAXV?$allocator@PAX@std@@@0@IPAU120@@Z 00412ae0 f i buffer.obj
 0001:00011b00       ??$_Construct@PAU_Node@?$_List_nod@PAXV?$allocator@PAX@std@@@std@@PAU123@@std@@YAXPAPAU_Node@?$_List_nod@PAXV?$allocator@PAX@std@@@0@ABQAU120@@Z 00412b00 f i buffer.obj
 0001:00011b20       ??$_Destroy@PAU_Node@?$_List_nod@PAXV?$allocator@PAX@std@@@std@@@std@@YAXPAPAU_Node@?$_List_nod@PAXV?$allocator@PAX@std@@@0@@Z 00412b20 f i buffer.obj
 0001:00011b30       ??$?0PAX@?$allocator@U_Node@?$_List_nod@PAXV?$allocator@PAX@std@@@std@@@std@@QAE@ABV?$allocator@PAX@1@@Z 00412b30 f i buffer.obj
 0001:00011b40       ??$_Destroy@U_Node@?$_List_nod@PAXV?$allocator@PAX@std@@@std@@@std@@YAXPAU_Node@?$_List_nod@PAXV?$allocator@PAX@std@@@0@@Z 00412b40 f i buffer.obj
 0001:00011b50       ?Final@CRC32@@QAEXPAE@Z    00412b50 f i buffer.obj
 0001:00011b60       ??3CBuffer@@SAXPAX@Z       00412b60 f i buffer.obj
 0001:00011ba0       ??0CBuffer2@@QAE@K@Z       00412ba0 f i buffer.obj
 0001:00011bd0       ?GetPacketSize@CBuffer2@@UAEKPAE@Z 00412bd0 f i buffer.obj
 0001:00011bf0       ?SetHeader@CBuffer2@@UAEXK@Z 00412bf0 f i buffer.obj
 0001:00011c20       ??3CBuffer2@@SAXPAX@Z      00412c20 f i buffer.obj
 0001:00011c60       ?AddTail@CBufferQueue@@QAEXPAVCBuffer@@@Z 00412c60 f i buffer.obj
 0001:00011cc0       ??_GCBuffer@@UAEPAXI@Z     00412cc0 f i buffer.obj
 0001:00011cc0       ??_ECBuffer@@UAEPAXI@Z     00412cc0 f i buffer.obj
 0001:00011d40       ??0CBufferQueue@@QAE@XZ    00412d40 f   buffer.obj
 0001:00011d80       ?Clear@CBufferQueue@@QAEXH@Z 00412d80 f   buffer.obj
 0001:00011e00       ?allocate@?$allocator@U_Node@?$_List_nod@PAXV?$allocator@PAX@std@@@std@@@std@@QAEPAU_Node@?$_List_nod@PAXV?$allocator@PAX@std@@@2@I@Z 00412e00 f i buffer.obj
 0001:00011e20       ?construct@?$allocator@PAU_Node@?$_List_nod@PAXV?$allocator@PAX@std@@@std@@@std@@QAEXPAPAU_Node@?$_List_nod@PAXV?$allocator@PAX@std@@@2@ABQAU342@@Z 00412e20 f i buffer.obj
 0001:00011e40       ?destroy@?$allocator@PAU_Node@?$_List_nod@PAXV?$allocator@PAX@std@@@std@@@std@@QAEXPAPAU_Node@?$_List_nod@PAXV?$allocator@PAX@std@@@2@@Z 00412e40 f i buffer.obj
 0001:00011e50       ?_Buynode@?$list@PAXV?$allocator@PAX@std@@@std@@IAEPAU_Node@?$_List_nod@PAXV?$allocator@PAX@std@@@2@PAU342@0ABQAX@Z 00412e50 f i buffer.obj
 0001:00011e80       ??0?$_List_nod@PAXV?$allocator@PAX@std@@@std@@IAE@V?$allocator@PAX@1@@Z 00412e80 f i buffer.obj
 0001:00011e90       ?destroy@?$allocator@U_Node@?$_List_nod@PAXV?$allocator@PAX@std@@@std@@@std@@QAEXPAU_Node@?$_List_nod@PAXV?$allocator@PAX@std@@@2@@Z 00412e90 f i buffer.obj
 0001:00011ea0       ??0iterator@?$list@PAXV?$allocator@PAX@std@@@std@@QAE@PAU_Node@?$_List_nod@PAXV?$allocator@PAX@std@@@2@@Z 00412ea0 f i buffer.obj
 0001:00011eb0       ?max_size@?$list@PAXV?$allocator@PAX@std@@@std@@QBEIXZ 00412eb0 f i buffer.obj
 0001:00011ec0       ??_ECBuffer2@@UAEPAXI@Z    00412ec0 f i buffer.obj
 0001:00011ec0       ??_GCBuffer2@@UAEPAXI@Z    00412ec0 f i buffer.obj
 0001:00011f10       ??1CBuffer2@@UAE@XZ        00412f10 f i buffer.obj
 0001:00011f40       ??1CBufferQueue@@UAE@XZ    00412f40 f   buffer.obj
 0001:00011fa0       ?_Buynode@?$list@PAXV?$allocator@PAX@std@@@std@@IAEPAU_Node@?$_List_nod@PAXV?$allocator@PAX@std@@@2@XZ 00412fa0 f i buffer.obj
 0001:00011fc0       ?end@?$list@PAXV?$allocator@PAX@std@@@std@@QAE?AViterator@12@XZ 00412fc0 f i buffer.obj
 0001:00011fd0       ?clear@?$list@PAXV?$allocator@PAX@std@@@std@@QAEXXZ 00412fd0 f i buffer.obj
 0001:00012010       ??0?$_List_ptr@PAXV?$allocator@PAX@std@@@std@@IAE@V?$allocator@PAX@1@@Z 00413010 f i buffer.obj
 0001:00012020       ??_GCBufferQueue@@UAEPAXI@Z 00413020 f i buffer.obj
 0001:00012020       ??_ECBufferQueue@@UAEPAXI@Z 00413020 f i buffer.obj
 0001:00012040       ?_Tidy@?$list@PAXV?$allocator@PAX@std@@@std@@IAEXXZ 00413040 f i buffer.obj
 0001:00012060       ??0?$_List_val@PAXV?$allocator@PAX@std@@@std@@IAE@V?$allocator@PAX@1@@Z 00413060 f i buffer.obj
 0001:00012070       ??0?$list@PAXV?$allocator@PAX@std@@@std@@QAE@XZ 00413070 f i buffer.obj
 0001:00012090       ??1?$list@PAXV?$allocator@PAX@std@@@std@@QAE@XZ 00413090 f i buffer.obj
 0001:000120b0       ?_Incsize@?$list@PAXV?$allocator@PAX@std@@@std@@IAEXI@Z 004130b0 f i buffer.obj
 0001:00012150       ?_Insert@?$list@PAXV?$allocator@PAX@std@@@std@@QAEXViterator@12@ABQAX@Z 00413150 f i buffer.obj
 0001:00012190       ?push_back@?$list@PAXV?$allocator@PAX@std@@@std@@QAEXABQAX@Z 00413190 f i buffer.obj
 0001:000121d0       ?Create@?$MemPooler@VCBuffer@@@@IAEXXZ 004131d0 f i buffer.obj
 0001:00012260       ?Create@?$MemPooler@VCBuffer2@@@@IAEXXZ 00413260 f i buffer.obj
 0001:000122f0       ??0?$MemPooler@VCBuffer@@@@QAE@H@Z 004132f0 f i buffer.obj
 0001:00012370       ?Alloc@?$MemPooler@VCBuffer@@@@QAEPAVCBuffer@@XZ 00413370 f i buffer.obj
 0001:000123b0       ??0?$MemPooler@VCBuffer2@@@@QAE@H@Z 004133b0 f i buffer.obj
 0001:00012430       ?Alloc@?$MemPooler@VCBuffer2@@@@QAEPAVCBuffer2@@XZ 00413430 f i buffer.obj
 0001:00012470       ??2CBuffer@@SAPAXI@Z       00413470 f i buffer.obj
 0001:000124b0       ??2CBuffer2@@SAPAXI@Z      004134b0 f i buffer.obj
 0001:000124f0       ?CreateBuffer@CBufferFactory@@QAEPAVCBuffer@@W4BUFFER_TYPE@@K@Z 004134f0 f   buffer.obj
 0001:00012610       ?AddData@CBufferQueue@@QAEXPAEKW4BUFFER_TYPE@@@Z 00413610 f   buffer.obj
 0001:000127c0       ?GetHandle@CSock@@QAEIXZ   004137c0 f i clientsock.obj
 0001:000127d0       ?GetSize@CBuffer@@QAEHXZ   004137d0 f i clientsock.obj
 0001:000127e0       ?crc@CBufferQueue@@QAEXPAVCRC32@@PAK@Z 004137e0 f i clientsock.obj
 0001:00012800       ?Close@CClientSock@@UAEXXZ 00413800 f   clientsock.obj
 0001:00012840       ?CloseConnection@CClientSock@@UAEHI@Z 00413840 f   clientsock.obj
 0001:00012850       ?Shutdown@CClientSock@@UAEHI@Z 00413850 f   clientsock.obj
 0001:00012860       ?Connect@CClientSock@@QAEHPADG@Z 00413860 f   clientsock.obj
 0001:00012940       ?Recv@CClientSock@@QAEHXZ  00413940 f   clientsock.obj
 0001:000129c0       ?GetPeerAddr@CClientSock@@UAEJKPAXPAK@Z 004139c0 f   clientsock.obj
 0001:00012a60       ?CreateBuffer@CClientSock@@QAEPAVCBuffer@@XZ 00413a60 f   clientsock.obj
 0001:00012a80       ?SendProtocolId@CClientSock@@QAEXXZ 00413a80 f   clientsock.obj
 0001:00012af0       ??0CClientSock@@QAE@K@Z    00413af0 f   clientsock.obj
 0001:00012bd0       ?Get@CSock@@UAEPAV1@I@Z    00413bd0 f i clientsock.obj
 0001:00012bf0       ?SetProtocolId@CClientSock@@UAEXK@Z 00413bf0 f i clientsock.obj
 0001:00012c00       ?GetPeerAddr@CClientSock@@UAEKK@Z 00413c00 f i clientsock.obj
 0001:00012c10       ??1CClientSock@@UAE@XZ     00413c10 f   clientsock.obj
 0001:00012cb0       ?Send@CClientSock@@UAEXPADKK@Z 00413cb0 f   clientsock.obj
 0001:00012de0       ?SendRemnant@CClientSock@@QAEHK@Z 00413de0 f   clientsock.obj
 0001:00012ef0       ?Fetch@CClientSock@@QAEPAVCBuffer@@K@Z 00413ef0 f   clientsock.obj
 0001:00013230       ??_GCClientSock@@UAEPAXI@Z 00414230 f i clientsock.obj
 0001:00013230       ??_ECClientSock@@UAEPAXI@Z 00414230 f i clientsock.obj
 0001:00013260       ?Free@?$MemPooler@VCClientSock@@@@QAEHPAVCClientSock@@@Z 00414260 f i clientsock.obj
 0001:000132b0       ?Create@?$MemPooler@VCClientSock@@@@IAEXXZ 004142b0 f i clientsock.obj
 0001:00013340       ??0?$MemPooler@VCClientSock@@@@QAE@H@Z 00414340 f i clientsock.obj
 0001:000133c0       ??0CClientSockE@@QAE@K@Z   004143c0 f   clientsocke.obj
 0001:00013480       ?GetPeerAddr@CSock@@UAEKK@Z 00414480 f i clientsocke.obj
 0001:00013490       ?SetProtocolId@CClientSockE@@UAEXK@Z 00414490 f i clientsocke.obj
 0001:000134a0       ?Close@CClientSockE@@UAEXXZ 004144a0 f   clientsocke.obj
 0001:00013500       ?CloseConnection@CClientSockE@@UAEHI@Z 00414500 f   clientsocke.obj
 0001:00013510       ?Shutdown@CClientSockE@@UAEHI@Z 00414510 f   clientsocke.obj
 0001:00013520       ?Create@CClientSockE@@UAEHGH@Z 00414520 f   clientsocke.obj
 0001:00013560       ?Attach@CClientSockE@@UAEXI@Z 00414560 f   clientsocke.obj
 0001:000135a0       ?Connect@CClientSockE@@QAEHPADG@Z 004145a0 f   clientsocke.obj
 0001:00013680       ?Recv@CClientSockE@@QAEHXZ 00414680 f   clientsocke.obj
 0001:00013720       ?GetPeerAddr@CClientSockE@@UAEJKPAXPAK@Z 00414720 f   clientsocke.obj
 0001:000137c0       ?CreateBuffer@CClientSockE@@QAEPAVCBuffer@@XZ 004147c0 f   clientsocke.obj
 0001:000137e0       ?SendProtocolId@CClientSockE@@QAEXXZ 004147e0 f   clientsocke.obj
 0001:00013830       ??1CClientSockE@@UAE@XZ    00414830 f   clientsocke.obj
 0001:00013890       ?Send@CClientSockE@@UAEXPADKK@Z 00414890 f   clientsocke.obj
 0001:00013990       ?SendRemnant@CClientSockE@@QAEHK@Z 00414990 f   clientsocke.obj
 0001:00013ab0       ?Fetch@CClientSockE@@QAEPAVCBuffer@@K@Z 00414ab0 f   clientsocke.obj
 0001:00013cc0       ??_GCClientSockE@@UAEPAXI@Z 00414cc0 f i clientsocke.obj
 0001:00013cc0       ??_ECClientSockE@@UAEPAXI@Z 00414cc0 f i clientsocke.obj
 0001:00013cf0       ?Free@?$MemPooler@VCClientSockE@@@@QAEHPAVCClientSockE@@@Z 00414cf0 f i clientsocke.obj
 0001:00013d40       ?Create@?$MemPooler@VCClientSockE@@@@IAEXXZ 00414d40 f i clientsocke.obj
 0001:00013dd0       ??0?$MemPooler@VCClientSockE@@@@QAE@H@Z 00414dd0 f i clientsocke.obj
 0001:00013e50       ?GetRecvHandle@CDPSock@@QAEPAXXZ 00414e50 f i dpmng.obj
 0001:00013e60       ?GetHostAddr@CDPSock@@QAEJPAXPAK@Z 00414e60 f i dpmng.obj
 0001:00013e80       ?GetPlayerAddr@CDPSock@@QAEJKPAXPAK@Z 00414e80 f i dpmng.obj
 0001:00013e90       ?GetPlayerAddr@CDPSock@@QAEKK@Z 00414e90 f i dpmng.obj
 0001:00013ea0       ?GetRecvHandle@CDPMng@@QAEPAXXZ 00414ea0 f i dpmng.obj
 0001:00013eb0       ?GetCloseHandle@CDPMng@@QAEPAXXZ 00414eb0 f i dpmng.obj
 0001:00013ec0       ??0CDPMng@@QAE@XZ          00414ec0 f   dpmng.obj
 0001:00013ee0       ??1CDPMng@@UAE@XZ          00414ee0 f   dpmng.obj
 0001:00013ef0       ?DeleteDPObject@CDPMng@@QAEHXZ 00414ef0 f   dpmng.obj
 0001:00013f60       ?InitConnection@CDPMng@@QAEHPAXG@Z 00414f60 f   dpmng.obj
 0001:00013f80       ?GetHostAddr@CDPMng@@QAEXPAD@Z 00414f80 f   dpmng.obj
 0001:00013fb0       ?GetPlayerAddr@CDPMng@@QAEXKPAD@Z 00414fb0 f   dpmng.obj
 0001:00013fe0       ?GetPlayerAddr@CDPMng@@QAEKK@Z 00414fe0 f   dpmng.obj
 0001:00014000       ?ReceiveMessage@CDPMng@@QAEHXZ 00415000 f   dpmng.obj
 0001:000140a0       ?DestroyPlayer@CDPMng@@QAEHK@Z 004150a0 f   dpmng.obj
 0001:000140c0       ?ReceiveThread@@YGIPAX@Z   004150c0 f   dpmng.obj
 0001:00014120       ?InitializeNetLib@@YAHXZ   00415120 f   dpmng.obj
 0001:00014170       ?TestNetLib@@YAXPBDG@Z     00415170 f   dpmng.obj
 0001:00014210       ??Econst_iterator@?$list@PAXV?$allocator@PAX@std@@@std@@QAEAAV012@XZ 00415210 f i dpmng.obj
 0001:00014220       ??8const_iterator@?$list@PAXV?$allocator@PAX@std@@@std@@QBE_NABV012@@Z 00415220 f i dpmng.obj
 0001:00014230       ?_Myval@?$list@PAXV?$allocator@PAX@std@@@std@@KAAAPAXPAU_Node@?$_List_nod@PAXV?$allocator@PAX@std@@@2@@Z 00415230 f i dpmng.obj
 0001:00014240       ?chWindows9x@@YAHXZ        00415240 f i dpmng.obj
 0001:000142a0       ??_ECDPMng@@UAEPAXI@Z      004152a0 f i dpmng.obj
 0001:000142a0       ??_GCDPMng@@UAEPAXI@Z      004152a0 f i dpmng.obj
 0001:000142c0       ?CreateDPObject@CDPMng@@QAEHH@Z 004152c0 f   dpmng.obj
 0001:00014380       ?CreateSession@CDPMng@@QAEHPBDK@Z 00415380 f   dpmng.obj
 0001:000143c0       ?JoinSession@CDPMng@@QAEHPBDKK@Z 004153c0 f   dpmng.obj
 0001:00014410       ??Eiterator@?$list@PAXV?$allocator@PAX@std@@@std@@QAEAAV012@XZ 00415410 f i dpmng.obj
 0001:00014420       ??9const_iterator@?$list@PAXV?$allocator@PAX@std@@@std@@QBE_NABV012@@Z 00415420 f i dpmng.obj
 0001:00014440       ??Dconst_iterator@?$list@PAXV?$allocator@PAX@std@@@std@@QBEABQAXXZ 00415440 f i dpmng.obj
 0001:00014450       ?begin@?$list@PAXV?$allocator@PAX@std@@@std@@QAE?AViterator@12@XZ 00415450 f i dpmng.obj
 0001:00014460       ??Diterator@?$list@PAXV?$allocator@PAX@std@@@std@@QBEAAPAXXZ 00415460 f i dpmng.obj
 0001:00014470       ?Destroy@?$MemPooler@VCBuffer@@@@IAEXXZ 00415470 f i dpmng.obj
 0001:000144e0       ?Destroy@?$MemPooler@VCBuffer2@@@@IAEXXZ 004154e0 f i dpmng.obj
 0001:00014550       ?Destroy@?$MemPooler@VCClientSock@@@@IAEXXZ 00415550 f i dpmng.obj
 0001:000145c0       ?Destroy@?$MemPooler@VCClientSockE@@@@IAEXXZ 004155c0 f i dpmng.obj
 0001:00014630       ??1?$MemPooler@VCBuffer@@@@QAE@XZ 00415630 f i dpmng.obj
 0001:00014660       ??1?$MemPooler@VCBuffer2@@@@QAE@XZ 00415660 f i dpmng.obj
 0001:00014690       ??1?$MemPooler@VCClientSock@@@@QAE@XZ 00415690 f i dpmng.obj
 0001:000146c0       ??1?$MemPooler@VCClientSockE@@@@QAE@XZ 004156c0 f i dpmng.obj
 0001:000146f0       ??_G?$MemPooler@VCClientSock@@@@QAEPAXI@Z 004156f0 f i dpmng.obj
 0001:00014710       ??_G?$MemPooler@VCClientSockE@@@@QAEPAXI@Z 00415710 f i dpmng.obj
 0001:00014730       ??_G?$MemPooler@VCBuffer@@@@QAEPAXI@Z 00415730 f i dpmng.obj
 0001:00014750       ??_G?$MemPooler@VCBuffer2@@@@QAEPAXI@Z 00415750 f i dpmng.obj
 0001:00014770       ?UninitializeNetLib@@YAXXZ 00415770 f   dpmng.obj
 0001:00014830       ?SetID@CSock@@QAEXK@Z      00415830 f i dpsock.obj
 0001:00014840       ?GetID@CSock@@QAEKXZ       00415840 f i dpsock.obj
 0001:00014850       ?SetPeerID@CSock@@QAEXK@Z  00415850 f i dpsock.obj
 0001:00014860       ?IsCrcWrite@CClientSock@@QAEHXZ 00415860 f i dpsock.obj
 0001:00014870       ?IsCrcWrite@CClientSockE@@QAEHXZ 00415870 f i dpsock.obj
 0001:00014880       ?GetRecvEvent@CClientSockE@@QAEPAXXZ 00415880 f i dpsock.obj
 0001:00014890       ?GetSendEvent@CClientSockE@@QAEPAXXZ 00415890 f i dpsock.obj
 0001:000148a0       ?GetServerSock@CDPSock@@QAEPAVCSock@@XZ 004158a0 f i dpsock.obj
 0001:000148c0       ?GetCompletionPort@CDPSock@@QAEPAXH@Z 004158c0 f i dpsock.obj
 0001:000148d0       ?GetCloseHandle@CDPSock@@QAEPAXXZ 004158d0 f i dpsock.obj
 0001:000148e0       ?GetIoWorkerCount@CDPSock@@QAEHXZ 004158e0 f i dpsock.obj
 0001:000148f0       ?GetSockThreaded@CDPSock@@QAEPAVCSock@@XZ 004158f0 f i dpsock.obj
 0001:00014900       ?Get@CDPSock@@QAEPAVCClientSock@@I@Z 00415900 f i dpsock.obj
 0001:00014920       ?InitializeConnection@CDPSock@@QAEHPAXK@Z 00415920 f   dpsock.obj
 0001:00014960       ?Send@CDPSock@@QAEHPADKK@Z 00415960 f   dpsock.obj
 0001:00014990       ?Shutdown@CDPSock@@QAEHK@Z 00415990 f   dpsock.obj
 0001:000149b0       ?SetProtocolId@CDPSock@@QAEXK@Z 004159b0 f   dpsock.obj
 0001:000149e0       ?size@?$list@PAXV?$allocator@PAX@std@@@std@@QBEIXZ 004159e0 f i dpsock.obj
 0001:000149f0       ??0CSystemInfo@@QAE@XZ     004159f0 f i dpsock.obj
 0001:00014a00       ??3CClientSock@@SAXPAX@Z   00415a00 f i dpsock.obj
 0001:00014a40       ??3CClientSockE@@SAXPAX@Z  00415a40 f i dpsock.obj
 0001:00014a80       ?Receive@CDPSock@@QAEPAVCBuffer@@XZ 00415a80 f   dpsock.obj
 0001:00014af0       ?AddCreatePlayerOrGroupMsg@CDPSock@@QAEXKPAVCBuffer@@@Z 00415af0 f   dpsock.obj
 0001:00014bd0       ?AddDestroyPlayerOrGroupMsg@CDPSock@@QAEXKPAVCBuffer@@@Z 00415bd0 f   dpsock.obj
 0001:00014cb0       ??Eiterator@?$list@PAXV?$allocator@PAX@std@@@std@@QAE?AV012@H@Z 00415cb0 f i dpsock.obj
 0001:00014cc0       ?CloseConnection@CDPSock@@QAEXK@Z 00415cc0 f   dpsock.obj
 0001:00014d20       ?IoWorkerThread@@YGIPAX@Z  00415d20 f   dpsock.obj
 0001:000150a0       ?erase@?$list@PAXV?$allocator@PAX@std@@@std@@QAE?AViterator@12@V312@@Z 004160a0 f i dpsock.obj
 0001:000150e0       ?RemoveThread@CDPSock@@QAEXPAX@Z 004160e0 f   dpsock.obj
 0001:00015150       ?EventWorkerThread@@YGIPAX@Z 00416150 f   dpsock.obj
 0001:00015320       ?front@?$list@PAXV?$allocator@PAX@std@@@std@@QAEAAPAXXZ 00416320 f i dpsock.obj
 0001:00015330       ?pop_front@?$list@PAXV?$allocator@PAX@std@@@std@@QAEXXZ 00416330 f i dpsock.obj
 0001:00015360       ?CloseIoWorker@CDPSock@@AAEHXZ 00416360 f   dpsock.obj
 0001:00015530       ??0CDPSock@@QAE@XZ         00416530 f   dpsock.obj
 0001:000155f0       ?Close@CDPSock@@QAEHXZ     004165f0 f   dpsock.obj
 0001:00015650       ?CreateServerE@CDPSock@@QAEHK@Z 00416650 f   dpsock.obj
 0001:00015760       ??1CDPSock@@UAE@XZ         00416760 f   dpsock.obj
 0001:00015810       ??_GCDPSock@@UAEPAXI@Z     00416810 f i dpsock.obj
 0001:00015810       ??_ECDPSock@@UAEPAXI@Z     00416810 f i dpsock.obj
 0001:00015830       ?CreateIoWorker@CDPSock@@AAEHK@Z 00416830 f   dpsock.obj
 0001:00015910       ?CreateEventWorker@CDPSock@@QAEHPAVCSock@@@Z 00416910 f   dpsock.obj
 0001:000159b0       ?CreateServer@CDPSock@@QAEHK@Z 004169b0 f   dpsock.obj
 0001:00015ad0       ?Alloc@?$MemPooler@VCClientSock@@@@QAEPAVCClientSock@@XZ 00416ad0 f i dpsock.obj
 0001:00015b10       ?Alloc@?$MemPooler@VCClientSockE@@@@QAEPAVCClientSockE@@XZ 00416b10 f i dpsock.obj
 0001:00015b50       ??2CClientSock@@SAPAXI@Z   00416b50 f i dpsock.obj
 0001:00015b90       ??2CClientSockE@@SAPAXI@Z  00416b90 f i dpsock.obj
 0001:00015bd0       ?JoinToServer@CDPSock@@QAEHKK@Z 00416bd0 f   dpsock.obj
 0001:00015df0       ?JoinToServerE@CDPSock@@QAEHKK@Z 00416df0 f   dpsock.obj
 0001:00016000       ?GetListenHandle@CServerSock@@QAEPAXXZ 00417000 f i serversock.obj
 0001:00016010       ?GetCloseHandle@CServerSock@@QAEPAXXZ 00417010 f i serversock.obj
 0001:00016020       ?GetCompletionPort@CServerSock@@QAEPAXH@Z 00417020 f i serversock.obj
 0001:00016030       ?GetIoWorkerCount@CServerSock@@QAEHXZ 00417030 f i serversock.obj
 0001:00016040       ?Listen@CServerSock@@QAEHXZ 00417040 f   serversock.obj
 0001:00016080       ?GetPeerAddr@CServerSock@@QAEJIPAK@Z 00417080 f   serversock.obj
 0001:00016100       ?ListenThread@@YGIPAX@Z    00417100 f   serversock.obj
 0001:00016230       ??0?$pair@$$CBKPAVCClientSock@@@std@@QAE@ABKABQAVCClientSock@@@Z 00417230 f i serversock.obj
 0001:00016250       ?_Color@?$_Tree@V?$_Tmap_traits@KPAVCClientSock@@U?$less@K@std@@V?$allocator@U?$pair@$$CBKPAVCClientSock@@@std@@@3@$0A@@std@@@std@@KAAADPAU_Node@?$_Tree_nod@V?$_Tmap_traits@KPAVCClientSock@@U?$less@K@std@@V?$allocator@U?$pair@$$CBKPAVCClientSock@@@std@@@3@$0A@@std@@@2@@Z 00417250 f i serversock.obj
 0001:00016260       ?_Isnil@?$_Tree@V?$_Tmap_traits@KPAVCClientSock@@U?$less@K@std@@V?$allocator@U?$pair@$$CBKPAVCClientSock@@@std@@@3@$0A@@std@@@std@@KAAADPAU_Node@?$_Tree_nod@V?$_Tmap_traits@KPAVCClientSock@@U?$less@K@std@@V?$allocator@U?$pair@$$CBKPAVCClientSock@@@std@@@3@$0A@@std@@@2@@Z 00417260 f i serversock.obj
 0001:00016270       ?_Left@?$_Tree@V?$_Tmap_traits@KPAVCClientSock@@U?$less@K@std@@V?$allocator@U?$pair@$$CBKPAVCClientSock@@@std@@@3@$0A@@std@@@std@@KAAAPAU_Node@?$_Tree_nod@V?$_Tmap_traits@KPAVCClientSock@@U?$less@K@std@@V?$allocator@U?$pair@$$CBKPAVCClientSock@@@std@@@3@$0A@@std@@@2@PAU342@@Z 00417270 f i serversock.obj
 0001:00016280       ?_Parent@?$_Tree@V?$_Tmap_traits@KPAVCClientSock@@U?$less@K@std@@V?$allocator@U?$pair@$$CBKPAVCClientSock@@@std@@@3@$0A@@std@@@std@@KAAAPAU_Node@?$_Tree_nod@V?$_Tmap_traits@KPAVCClientSock@@U?$less@K@std@@V?$allocator@U?$pair@$$CBKPAVCClientSock@@@std@@@3@$0A@@std@@@2@PAU342@@Z 00417280 f i serversock.obj
 0001:00016290       ?_Right@?$_Tree@V?$_Tmap_traits@KPAVCClientSock@@U?$less@K@std@@V?$allocator@U?$pair@$$CBKPAVCClientSock@@@std@@@3@$0A@@std@@@std@@KAAAPAU_Node@?$_Tree_nod@V?$_Tmap_traits@KPAVCClientSock@@U?$less@K@std@@V?$allocator@U?$pair@$$CBKPAVCClientSock@@@std@@@3@$0A@@std@@@2@PAU342@@Z 00417290 f i serversock.obj
 0001:000162a0       ?_Lmost@?$_Tree@V?$_Tmap_traits@KPAVCClientSock@@U?$less@K@std@@V?$allocator@U?$pair@$$CBKPAVCClientSock@@@std@@@3@$0A@@std@@@std@@IAEAAPAU_Node@?$_Tree_nod@V?$_Tmap_traits@KPAVCClientSock@@U?$less@K@std@@V?$allocator@U?$pair@$$CBKPAVCClientSock@@@std@@@3@$0A@@std@@@2@XZ 004172a0 f i serversock.obj
 0001:000162b0       ?_Max@?$_Tree@V?$_Tmap_traits@KPAVCClientSock@@U?$less@K@std@@V?$allocator@U?$pair@$$CBKPAVCClientSock@@@std@@@3@$0A@@std@@@std@@KAPAU_Node@?$_Tree_nod@V?$_Tmap_traits@KPAVCClientSock@@U?$less@K@std@@V?$allocator@U?$pair@$$CBKPAVCClientSock@@@std@@@3@$0A@@std@@@2@PAU342@@Z 004172b0 f i serversock.obj
 0001:000162d0       ?_Min@?$_Tree@V?$_Tmap_traits@KPAVCClientSock@@U?$less@K@std@@V?$allocator@U?$pair@$$CBKPAVCClientSock@@@std@@@3@$0A@@std@@@std@@KAPAU_Node@?$_Tree_nod@V?$_Tmap_traits@KPAVCClientSock@@U?$less@K@std@@V?$allocator@U?$pair@$$CBKPAVCClientSock@@@std@@@3@$0A@@std@@@2@PAU342@@Z 004172d0 f i serversock.obj
 0001:000162f0       ?_Rmost@?$_Tree@V?$_Tmap_traits@KPAVCClientSock@@U?$less@K@std@@V?$allocator@U?$pair@$$CBKPAVCClientSock@@@std@@@3@$0A@@std@@@std@@IAEAAPAU_Node@?$_Tree_nod@V?$_Tmap_traits@KPAVCClientSock@@U?$less@K@std@@V?$allocator@U?$pair@$$CBKPAVCClientSock@@@std@@@3@$0A@@std@@@2@XZ 004172f0 f i serversock.obj
 0001:00016300       ?_Root@?$_Tree@V?$_Tmap_traits@KPAVCClientSock@@U?$less@K@std@@V?$allocator@U?$pair@$$CBKPAVCClientSock@@@std@@@3@$0A@@std@@@std@@IAEAAPAU_Node@?$_Tree_nod@V?$_Tmap_traits@KPAVCClientSock@@U?$less@K@std@@V?$allocator@U?$pair@$$CBKPAVCClientSock@@@std@@@3@$0A@@std@@@2@XZ 00417300 f i serversock.obj
 0001:00016310       ?_Rrotate@?$_Tree@V?$_Tmap_traits@KPAVCClientSock@@U?$less@K@std@@V?$allocator@U?$pair@$$CBKPAVCClientSock@@@std@@@3@$0A@@std@@@std@@IAEXPAU_Node@?$_Tree_nod@V?$_Tmap_traits@KPAVCClientSock@@U?$less@K@std@@V?$allocator@U?$pair@$$CBKPAVCClientSock@@@std@@@3@$0A@@std@@@2@@Z 00417310 f i serversock.obj
 0001:00016370       ?_Kfn@?$_Tmap_traits@KPAVCClientSock@@U?$less@K@std@@V?$allocator@U?$pair@$$CBKPAVCClientSock@@@std@@@3@$0A@@std@@SAABKABU?$pair@$$CBKPAVCClientSock@@@2@@Z 00417370 f i serversock.obj
 0001:00016380       ??0?$allocator@U?$pair@$$CBKPAVCClientSock@@@std@@@std@@QAE@XZ 00417380 f i serversock.obj
 0001:00016390       ?deallocate@?$allocator@U_Node@?$_Tree_nod@V?$_Tmap_traits@KPAVCClientSock@@U?$less@K@std@@V?$allocator@U?$pair@$$CBKPAVCClientSock@@@std@@@3@$0A@@std@@@std@@@std@@QAEXPAU_Node@?$_Tree_nod@V?$_Tmap_traits@KPAVCClientSock@@U?$less@K@std@@V?$allocator@U?$pair@$$CBKPAVCClientSock@@@std@@@3@$0A@@std@@@2@I@Z 00417390 f i serversock.obj
 0001:000163a0       ??8const_iterator@?$_Tree@V?$_Tmap_traits@KPAVCClientSock@@U?$less@K@std@@V?$allocator@U?$pair@$$CBKPAVCClientSock@@@std@@@3@$0A@@std@@@std@@QBE_NABV012@@Z 004173a0 f i serversock.obj
 0001:000163b0       ?_Mynode@const_iterator@?$_Tree@V?$_Tmap_traits@KPAVCClientSock@@U?$less@K@std@@V?$allocator@U?$pair@$$CBKPAVCClientSock@@@std@@@3@$0A@@std@@@std@@QBEPAU_Node@?$_Tree_nod@V?$_Tmap_traits@KPAVCClientSock@@U?$less@K@std@@V?$allocator@U?$pair@$$CBKPAVCClientSock@@@std@@@3@$0A@@std@@@3@XZ 004173b0 f i serversock.obj
 0001:000163c0       ??0?$pair@Viterator@?$_Tree@V?$_Tmap_traits@KPAVCClientSock@@U?$less@K@std@@V?$allocator@U?$pair@$$CBKPAVCClientSock@@@std@@@3@$0A@@std@@@std@@_N@std@@QAE@ABViterator@?$_Tree@V?$_Tmap_traits@KPAVCClientSock@@U?$less@K@std@@V?$allocator@U?$pair@$$CBKPAVCClientSock@@@std@@@3@$0A@@std@@@1@AB_N@Z 004173c0 f i serversock.obj
 0001:000163e0       ?_Myval@?$_Tree@V?$_Tmap_traits@KPAVCClientSock@@U?$less@K@std@@V?$allocator@U?$pair@$$CBKPAVCClientSock@@@std@@@3@$0A@@std@@@std@@KAAAU?$pair@$$CBKPAVCClientSock@@@2@PAU_Node@?$_Tree_nod@V?$_Tmap_traits@KPAVCClientSock@@U?$less@K@std@@V?$allocator@U?$pair@$$CBKPAVCClientSock@@@std@@@3@$0A@@std@@@2@@Z 004173e0 f i serversock.obj
 0001:000163f0       ??0?$allocator@U?$pair@$$CBKPAVCClientSock@@@std@@@std@@QAE@ABV01@@Z 004173f0 f i serversock.obj
 0001:00016400       ??0const_iterator@?$_Tree@V?$_Tmap_traits@KPAVCClientSock@@U?$less@K@std@@V?$allocator@U?$pair@$$CBKPAVCClientSock@@@std@@@3@$0A@@std@@@std@@QAE@PAU_Node@?$_Tree_nod@V?$_Tmap_traits@KPAVCClientSock@@U?$less@K@std@@V?$allocator@U?$pair@$$CBKPAVCClientSock@@@std@@@3@$0A@@std@@@2@@Z 00417400 f i serversock.obj
 0001:00016410       ??Dconst_iterator@?$_Tree@V?$_Tmap_traits@KPAVCClientSock@@U?$less@K@std@@V?$allocator@U?$pair@$$CBKPAVCClientSock@@@std@@@3@$0A@@std@@@std@@QBEABU?$pair@$$CBKPAVCClientSock@@@2@XZ 00417410 f i serversock.obj
 0001:00016420       ?_Inc@const_iterator@?$_Tree@V?$_Tmap_traits@KPAVCClientSock@@U?$less@K@std@@V?$allocator@U?$pair@$$CBKPAVCClientSock@@@std@@@3@$0A@@std@@@std@@QAEXXZ 00417420 f i serversock.obj
 0001:00016480       ?_Root@?$_Tree@V?$_Tmap_traits@KPAVCClientSock@@U?$less@K@std@@V?$allocator@U?$pair@$$CBKPAVCClientSock@@@std@@@3@$0A@@std@@@std@@IBEAAPAU_Node@?$_Tree_nod@V?$_Tmap_traits@KPAVCClientSock@@U?$less@K@std@@V?$allocator@U?$pair@$$CBKPAVCClientSock@@@std@@@3@$0A@@std@@@2@XZ 00417480 f i serversock.obj
 0001:00016490       ?max_size@?$allocator@U?$pair@$$CBKPAVCClientSock@@@std@@@std@@QBEIXZ 00417490 f i serversock.obj
 0001:000164a0       ?_Dec@const_iterator@?$_Tree@V?$_Tmap_traits@KPAVCClientSock@@U?$less@K@std@@V?$allocator@U?$pair@$$CBKPAVCClientSock@@@std@@@3@$0A@@std@@@std@@QAEXXZ 004174a0 f i serversock.obj
 0001:00016500       ??0_Node@?$_Tree_nod@V?$_Tmap_traits@KPAVCClientSock@@U?$less@K@std@@V?$allocator@U?$pair@$$CBKPAVCClientSock@@@std@@@3@$0A@@std@@@std@@QAE@PAU012@00ABU?$pair@$$CBKPAVCClientSock@@@2@D@Z 00417500 f i serversock.obj
 0001:00016540       ??0?$_Tmap_traits@KPAVCClientSock@@U?$less@K@std@@V?$allocator@U?$pair@$$CBKPAVCClientSock@@@std@@@3@$0A@@std@@QAE@U?$less@K@1@@Z 00417540 f i serversock.obj
 0001:00016550       ??$_Destroy@U_Node@?$_Tree_nod@V?$_Tmap_traits@KPAVCClientSock@@U?$less@K@std@@V?$allocator@U?$pair@$$CBKPAVCClientSock@@@std@@@3@$0A@@std@@@std@@@std@@YAXPAU_Node@?$_Tree_nod@V?$_Tmap_traits@KPAVCClientSock@@U?$less@K@std@@V?$allocator@U?$pair@$$CBKPAVCClientSock@@@std@@@3@$0A@@std@@@0@@Z 00417550 f i serversock.obj
 0001:00016560       ??$_Destroy@PAU_Node@?$_Tree_nod@V?$_Tmap_traits@KPAVCClientSock@@U?$less@K@std@@V?$allocator@U?$pair@$$CBKPAVCClientSock@@@std@@@3@$0A@@std@@@std@@@std@@YAXPAPAU_Node@?$_Tree_nod@V?$_Tmap_traits@KPAVCClientSock@@U?$less@K@std@@V?$allocator@U?$pair@$$CBKPAVCClientSock@@@std@@@3@$0A@@std@@@0@@Z 00417560 f i serversock.obj
 0001:00016570       ??$?0U?$pair@$$CBKPAVCClientSock@@@std@@@?$allocator@PAU_Node@?$_Tree_nod@V?$_Tmap_traits@KPAVCClientSock@@U?$less@K@std@@V?$allocator@U?$pair@$$CBKPAVCClientSock@@@std@@@3@$0A@@std@@@std@@@std@@QAE@ABV?$allocator@U?$pair@$$CBKPAVCClientSock@@@std@@@1@@Z 00417570 f i serversock.obj
 0001:00016580       ??$_Allocate@U_Node@?$_Tree_nod@V?$_Tmap_traits@KPAVCClientSock@@U?$less@K@std@@V?$allocator@U?$pair@$$CBKPAVCClientSock@@@std@@@3@$0A@@std@@@std@@@std@@YAPAU_Node@?$_Tree_nod@V?$_Tmap_traits@KPAVCClientSock@@U?$less@K@std@@V?$allocator@U?$pair@$$CBKPAVCClientSock@@@std@@@3@$0A@@std@@@0@IPAU120@@Z 00417580 f i serversock.obj
 0001:000165a0       ??$?0U?$pair@$$CBKPAVCClientSock@@@std@@@?$allocator@U_Node@?$_Tree_nod@V?$_Tmap_traits@KPAVCClientSock@@U?$less@K@std@@V?$allocator@U?$pair@$$CBKPAVCClientSock@@@std@@@3@$0A@@std@@@std@@@std@@QAE@ABV?$allocator@U?$pair@$$CBKPAVCClientSock@@@std@@@1@@Z 004175a0 f i serversock.obj
 0001:000165b0       ??$_Construct@PAU_Node@?$_Tree_nod@V?$_Tmap_traits@KPAVCClientSock@@U?$less@K@std@@V?$allocator@U?$pair@$$CBKPAVCClientSock@@@std@@@3@$0A@@std@@@std@@PAU123@@std@@YAXPAPAU_Node@?$_Tree_nod@V?$_Tmap_traits@KPAVCClientSock@@U?$less@K@std@@V?$allocator@U?$pair@$$CBKPAVCClientSock@@@std@@@3@$0A@@std@@@0@ABQAU120@@Z 004175b0 f i serversock.obj
 0001:000165d0       ?Lock@CMapChild@@QAEXXZ    004175d0 f i serversock.obj
 0001:000165e0       ?Unlock@CMapChild@@QAEXXZ  004175e0 f i serversock.obj
 0001:000165f0       ?StartServer@CServerSock@@QAEHPAPAXK@Z 004175f0 f   serversock.obj
 0001:00016680       ?Shutdown@CServerSock@@UAEHI@Z 00417680 f   serversock.obj
 0001:00016710       ?GetPeerAddr@CServerSock@@UAEJKPAXPAK@Z 00417710 f   serversock.obj
 0001:00016810       ?GetPeerAddr@CServerSock@@UAEKK@Z 00417810 f   serversock.obj
 0001:000168a0       ??9const_iterator@?$_Tree@V?$_Tmap_traits@KPAVCClientSock@@U?$less@K@std@@V?$allocator@U?$pair@$$CBKPAVCClientSock@@@std@@@3@$0A@@std@@@std@@QBE_NABV012@@Z 004178a0 f i serversock.obj
 0001:000168c0       ?_Key@?$_Tree@V?$_Tmap_traits@KPAVCClientSock@@U?$less@K@std@@V?$allocator@U?$pair@$$CBKPAVCClientSock@@@std@@@3@$0A@@std@@@std@@KAABKPAU_Node@?$_Tree_nod@V?$_Tmap_traits@KPAVCClientSock@@U?$less@K@std@@V?$allocator@U?$pair@$$CBKPAVCClientSock@@@std@@@3@$0A@@std@@@2@@Z 004178c0 f i serversock.obj
 0001:000168d0       ?_Lrotate@?$_Tree@V?$_Tmap_traits@KPAVCClientSock@@U?$less@K@std@@V?$allocator@U?$pair@$$CBKPAVCClientSock@@@std@@@3@$0A@@std@@@std@@IAEXPAU_Node@?$_Tree_nod@V?$_Tmap_traits@KPAVCClientSock@@U?$less@K@std@@V?$allocator@U?$pair@$$CBKPAVCClientSock@@@std@@@3@$0A@@std@@@2@@Z 004178d0 f i serversock.obj
 0001:00016930       ?destroy@?$allocator@U_Node@?$_Tree_nod@V?$_Tmap_traits@KPAVCClientSock@@U?$less@K@std@@V?$allocator@U?$pair@$$CBKPAVCClientSock@@@std@@@3@$0A@@std@@@std@@@std@@QAEXPAU_Node@?$_Tree_nod@V?$_Tmap_traits@KPAVCClientSock@@U?$less@K@std@@V?$allocator@U?$pair@$$CBKPAVCClientSock@@@std@@@3@$0A@@std@@@2@@Z 00417930 f i serversock.obj
 0001:00016940       ??0iterator@?$_Tree@V?$_Tmap_traits@KPAVCClientSock@@U?$less@K@std@@V?$allocator@U?$pair@$$CBKPAVCClientSock@@@std@@@3@$0A@@std@@@std@@QAE@PAU_Node@?$_Tree_nod@V?$_Tmap_traits@KPAVCClientSock@@U?$less@K@std@@V?$allocator@U?$pair@$$CBKPAVCClientSock@@@std@@@3@$0A@@std@@@2@@Z 00417940 f i serversock.obj
 0001:00016950       ??Diterator@?$_Tree@V?$_Tmap_traits@KPAVCClientSock@@U?$less@K@std@@V?$allocator@U?$pair@$$CBKPAVCClientSock@@@std@@@3@$0A@@std@@@std@@QBEAAU?$pair@$$CBKPAVCClientSock@@@2@XZ 00417950 f i serversock.obj
 0001:00016960       ??Econst_iterator@?$_Tree@V?$_Tmap_traits@KPAVCClientSock@@U?$less@K@std@@V?$allocator@U?$pair@$$CBKPAVCClientSock@@@std@@@3@$0A@@std@@@std@@QAEAAV012@XZ 00417960 f i serversock.obj
 0001:00016970       ?max_size@?$_Tree@V?$_Tmap_traits@KPAVCClientSock@@U?$less@K@std@@V?$allocator@U?$pair@$$CBKPAVCClientSock@@@std@@@3@$0A@@std@@@std@@QBEIXZ 00417970 f i serversock.obj
 0001:00016980       ?_Lbound@?$_Tree@V?$_Tmap_traits@KPAVCClientSock@@U?$less@K@std@@V?$allocator@U?$pair@$$CBKPAVCClientSock@@@std@@@3@$0A@@std@@@std@@IBEPAU_Node@?$_Tree_nod@V?$_Tmap_traits@KPAVCClientSock@@U?$less@K@std@@V?$allocator@U?$pair@$$CBKPAVCClientSock@@@std@@@3@$0A@@std@@@2@ABK@Z 00417980 f i serversock.obj
 0001:000169b0       ?destroy@?$allocator@PAU_Node@?$_Tree_nod@V?$_Tmap_traits@KPAVCClientSock@@U?$less@K@std@@V?$allocator@U?$pair@$$CBKPAVCClientSock@@@std@@@3@$0A@@std@@@std@@@std@@QAEXPAPAU_Node@?$_Tree_nod@V?$_Tmap_traits@KPAVCClientSock@@U?$less@K@std@@V?$allocator@U?$pair@$$CBKPAVCClientSock@@@std@@@3@$0A@@std@@@2@@Z 004179b0 f i serversock.obj
 0001:000169c0       ??Fconst_iterator@?$_Tree@V?$_Tmap_traits@KPAVCClientSock@@U?$less@K@std@@V?$allocator@U?$pair@$$CBKPAVCClientSock@@@std@@@3@$0A@@std@@@std@@QAEAAV012@XZ 004179c0 f i serversock.obj
 0001:000169d0       ?allocate@?$allocator@U_Node@?$_Tree_nod@V?$_Tmap_traits@KPAVCClientSock@@U?$less@K@std@@V?$allocator@U?$pair@$$CBKPAVCClientSock@@@std@@@3@$0A@@std@@@std@@@std@@QAEPAU_Node@?$_Tree_nod@V?$_Tmap_traits@KPAVCClientSock@@U?$less@K@std@@V?$allocator@U?$pair@$$CBKPAVCClientSock@@@std@@@3@$0A@@std@@@2@I@Z 004179d0 f i serversock.obj
 0001:000169f0       ??0?$_Tree_nod@V?$_Tmap_traits@KPAVCClientSock@@U?$less@K@std@@V?$allocator@U?$pair@$$CBKPAVCClientSock@@@std@@@3@$0A@@std@@@std@@IAE@ABU?$less@K@1@V?$allocator@U?$pair@$$CBKPAVCClientSock@@@std@@@1@@Z 004179f0 f i serversock.obj
 0001:00016a00       ?construct@?$allocator@PAU_Node@?$_Tree_nod@V?$_Tmap_traits@KPAVCClientSock@@U?$less@K@std@@V?$allocator@U?$pair@$$CBKPAVCClientSock@@@std@@@3@$0A@@std@@@std@@@std@@QAEXPAPAU_Node@?$_Tree_nod@V?$_Tmap_traits@KPAVCClientSock@@U?$less@K@std@@V?$allocator@U?$pair@$$CBKPAVCClientSock@@@std@@@3@$0A@@std@@@2@ABQAU342@@Z 00417a00 f i serversock.obj
 0001:00016a20       ?begin@?$_Tree@V?$_Tmap_traits@KPAVCClientSock@@U?$less@K@std@@V?$allocator@U?$pair@$$CBKPAVCClientSock@@@std@@@3@$0A@@std@@@std@@QAE?AViterator@12@XZ 00417a20 f i serversock.obj
 0001:00016a30       ?end@?$_Tree@V?$_Tmap_traits@KPAVCClientSock@@U?$less@K@std@@V?$allocator@U?$pair@$$CBKPAVCClientSock@@@std@@@3@$0A@@std@@@std@@QAE?AViterator@12@XZ 00417a30 f i serversock.obj
 0001:00016a40       ??Citerator@?$_Tree@V?$_Tmap_traits@KPAVCClientSock@@U?$less@K@std@@V?$allocator@U?$pair@$$CBKPAVCClientSock@@@std@@@3@$0A@@std@@@std@@QBEPAU?$pair@$$CBKPAVCClientSock@@@2@XZ 00417a40 f i serversock.obj
 0001:00016a50       ??Eiterator@?$_Tree@V?$_Tmap_traits@KPAVCClientSock@@U?$less@K@std@@V?$allocator@U?$pair@$$CBKPAVCClientSock@@@std@@@3@$0A@@std@@@std@@QAEAAV012@XZ 00417a50 f i serversock.obj
 0001:00016a60       ?lower_bound@?$_Tree@V?$_Tmap_traits@KPAVCClientSock@@U?$less@K@std@@V?$allocator@U?$pair@$$CBKPAVCClientSock@@@std@@@3@$0A@@std@@@std@@QAE?AViterator@12@ABK@Z 00417a60 f i serversock.obj
 0001:00016aa0       ?_Erase@?$_Tree@V?$_Tmap_traits@KPAVCClientSock@@U?$less@K@std@@V?$allocator@U?$pair@$$CBKPAVCClientSock@@@std@@@3@$0A@@std@@@std@@IAEXPAU_Node@?$_Tree_nod@V?$_Tmap_traits@KPAVCClientSock@@U?$less@K@std@@V?$allocator@U?$pair@$$CBKPAVCClientSock@@@std@@@3@$0A@@std@@@2@@Z 00417aa0 f i serversock.obj
 0001:00016ae0       ??Fiterator@?$_Tree@V?$_Tmap_traits@KPAVCClientSock@@U?$less@K@std@@V?$allocator@U?$pair@$$CBKPAVCClientSock@@@std@@@3@$0A@@std@@@std@@QAEAAV012@XZ 00417ae0 f i serversock.obj
 0001:00016af0       ?_Buynode@?$_Tree@V?$_Tmap_traits@KPAVCClientSock@@U?$less@K@std@@V?$allocator@U?$pair@$$CBKPAVCClientSock@@@std@@@3@$0A@@std@@@std@@IAEPAU_Node@?$_Tree_nod@V?$_Tmap_traits@KPAVCClientSock@@U?$less@K@std@@V?$allocator@U?$pair@$$CBKPAVCClientSock@@@std@@@3@$0A@@std@@@2@PAU342@00ABU?$pair@$$CBKPAVCClientSock@@@2@D@Z 00417af0 f i serversock.obj
 0001:00016b30       ?_Buynode@?$_Tree@V?$_Tmap_traits@KPAVCClientSock@@U?$less@K@std@@V?$allocator@U?$pair@$$CBKPAVCClientSock@@@std@@@3@$0A@@std@@@std@@IAEPAU_Node@?$_Tree_nod@V?$_Tmap_traits@KPAVCClientSock@@U?$less@K@std@@V?$allocator@U?$pair@$$CBKPAVCClientSock@@@std@@@3@$0A@@std@@@2@XZ 00417b30 f i serversock.obj
 0001:00016b70       ??0?$_Tree_ptr@V?$_Tmap_traits@KPAVCClientSock@@U?$less@K@std@@V?$allocator@U?$pair@$$CBKPAVCClientSock@@@std@@@3@$0A@@std@@@std@@IAE@ABU?$less@K@1@V?$allocator@U?$pair@$$CBKPAVCClientSock@@@std@@@1@@Z 00417b70 f i serversock.obj
 0001:00016b80       ??Eiterator@?$_Tree@V?$_Tmap_traits@KPAVCClientSock@@U?$less@K@std@@V?$allocator@U?$pair@$$CBKPAVCClientSock@@@std@@@3@$0A@@std@@@std@@QAE?AV012@H@Z 00417b80 f i serversock.obj
 0001:00016ba0       ?Send@CServerSock@@UAEXPADKK@Z 00417ba0 f   serversock.obj
 0001:00016c80       ?clear@?$_Tree@V?$_Tmap_traits@KPAVCClientSock@@U?$less@K@std@@V?$allocator@U?$pair@$$CBKPAVCClientSock@@@std@@@3@$0A@@std@@@std@@QAEXXZ 00417c80 f i serversock.obj
 0001:00016cb0       ?find@?$_Tree@V?$_Tmap_traits@KPAVCClientSock@@U?$less@K@std@@V?$allocator@U?$pair@$$CBKPAVCClientSock@@@std@@@3@$0A@@std@@@std@@QAE?AViterator@12@ABK@Z 00417cb0 f i serversock.obj
 0001:00016d20       ?_Init@?$_Tree@V?$_Tmap_traits@KPAVCClientSock@@U?$less@K@std@@V?$allocator@U?$pair@$$CBKPAVCClientSock@@@std@@@3@$0A@@std@@@std@@IAEXXZ 00417d20 f i serversock.obj
 0001:00016d50       ??0?$_Tree_val@V?$_Tmap_traits@KPAVCClientSock@@U?$less@K@std@@V?$allocator@U?$pair@$$CBKPAVCClientSock@@@std@@@3@$0A@@std@@@std@@IAE@ABU?$less@K@1@V?$allocator@U?$pair@$$CBKPAVCClientSock@@@std@@@1@@Z 00417d50 f i serversock.obj
 0001:00016d60       ?CloseAllChild@CServerSock@@QAEXXZ 00417d60 f   serversock.obj
 0001:00016e40       ??0?$_Tree@V?$_Tmap_traits@KPAVCClientSock@@U?$less@K@std@@V?$allocator@U?$pair@$$CBKPAVCClientSock@@@std@@@3@$0A@@std@@@std@@QAE@ABU?$less@K@1@ABV?$allocator@U?$pair@$$CBKPAVCClientSock@@@std@@@1@@Z 00417e40 f i serversock.obj
 0001:00016e70       ?Close@CServerSock@@UAEXXZ 00417e70 f   serversock.obj
 0001:00016ed0       ?erase@?$_Tree@V?$_Tmap_traits@KPAVCClientSock@@U?$less@K@std@@V?$allocator@U?$pair@$$CBKPAVCClientSock@@@std@@@3@$0A@@std@@@std@@QAE?AViterator@12@V312@@Z 00417ed0 f i serversock.obj
 0001:00017190       ?_Insert@?$_Tree@V?$_Tmap_traits@KPAVCClientSock@@U?$less@K@std@@V?$allocator@U?$pair@$$CBKPAVCClientSock@@@std@@@3@$0A@@std@@@std@@IAE?AViterator@12@_NPAU_Node@?$_Tree_nod@V?$_Tmap_traits@KPAVCClientSock@@U?$less@K@std@@V?$allocator@U?$pair@$$CBKPAVCClientSock@@@std@@@3@$0A@@std@@@2@ABU?$pair@$$CBKPAVCClientSock@@@2@@Z 00418190 f i serversock.obj
 0001:00017340       ?erase@?$_Tree@V?$_Tmap_traits@KPAVCClientSock@@U?$less@K@std@@V?$allocator@U?$pair@$$CBKPAVCClientSock@@@std@@@3@$0A@@std@@@std@@QAE?AViterator@12@V312@0@Z 00418340 f i serversock.obj
 0001:00017400       ?CloseChild@CServerSock@@QAEHI@Z 00418400 f   serversock.obj
 0001:000174c0       ?CloseConnection@CServerSock@@UAEHI@Z 004184c0 f   serversock.obj
 0001:000174d0       ?insert@?$_Tree@V?$_Tmap_traits@KPAVCClientSock@@U?$less@K@std@@V?$allocator@U?$pair@$$CBKPAVCClientSock@@@std@@@3@$0A@@std@@@std@@QAE?AU?$pair@Viterator@?$_Tree@V?$_Tmap_traits@KPAVCClientSock@@U?$less@K@std@@V?$allocator@U?$pair@$$CBKPAVCClientSock@@@std@@@3@$0A@@std@@@std@@_N@2@ABU?$pair@$$CBKPAVCClientSock@@@2@@Z 004184d0 f i serversock.obj
 0001:00017590       ?_Tidy@?$_Tree@V?$_Tmap_traits@KPAVCClientSock@@U?$less@K@std@@V?$allocator@U?$pair@$$CBKPAVCClientSock@@@std@@@3@$0A@@std@@@std@@IAEXXZ 00418590 f i serversock.obj
 0001:000175c0       ??1?$_Tree@V?$_Tmap_traits@KPAVCClientSock@@U?$less@K@std@@V?$allocator@U?$pair@$$CBKPAVCClientSock@@@std@@@3@$0A@@std@@@std@@QAE@XZ 004185c0 f i serversock.obj
 0001:000175f0       ??1?$map@KPAVCClientSock@@U?$less@K@std@@V?$allocator@U?$pair@$$CBKPAVCClientSock@@@std@@@3@@std@@QAE@XZ 004185f0 f i serversock.obj
 0001:00017620       ??0?$map@KPAVCClientSock@@U?$less@K@std@@V?$allocator@U?$pair@$$CBKPAVCClientSock@@@std@@@3@@std@@QAE@XZ 00418620 f i serversock.obj
 0001:00017650       ??0CMapChild@@QAE@XZ       00418650 f i serversock.obj
 0001:000176a0       ??1CMapChild@@UAE@XZ       004186a0 f i serversock.obj
 0001:000176f0       ??_ECMapChild@@UAEPAXI@Z   004186f0 f i serversock.obj
 0001:000176f0       ??_GCMapChild@@UAEPAXI@Z   004186f0 f i serversock.obj
 0001:00017710       ??0CServerSock@@QAE@K@Z    00418710 f   serversock.obj
 0001:000177b0       ?SetProtocolId@CSock@@UAEXK@Z 004187b0 f i serversock.obj
 0001:000177c0       ?Get@CServerSock@@UAEPAVCSock@@I@Z 004187c0 f i serversock.obj
 0001:00017800       ??1CServerSock@@UAE@XZ     00418800 f   serversock.obj
 0001:000178a0       ??_GCServerSock@@UAEPAXI@Z 004188a0 f i serversock.obj
 0001:000178a0       ??_ECServerSock@@UAEPAXI@Z 004188a0 f i serversock.obj
 0001:000178c0       ?AddChild@CServerSock@@QAEPAVCClientSock@@I@Z 004188c0 f   serversock.obj
 0001:00017990       ?AllocAndAssoc@CServerSock@@QAEHIK@Z 00418990 f   serversock.obj
 0001:00017a00       ?GetListenHandle@CServerSockE@@QAEPAXXZ 00418a00 f i serversocke.obj
 0001:00017a10       ?GetCloseHandle@CServerSockE@@QAEPAXXZ 00418a10 f i serversocke.obj
 0001:00017a20       ?Listen@CServerSockE@@QAEHXZ 00418a20 f   serversocke.obj
 0001:00017a60       ?Shutdown@CServerSockE@@UAEHI@Z 00418a60 f   serversocke.obj
 0001:00017a70       ?GetPeerAddr@CServerSockE@@UAEJKPAXPAK@Z 00418a70 f   serversocke.obj
 0001:00017b30       ??0?$pair@$$CBKPAVCClientSockE@@@std@@QAE@ABKABQAVCClientSockE@@@Z 00418b30 f i serversocke.obj
 0001:00017b50       ?_Color@?$_Tree@V?$_Tmap_traits@KPAVCClientSockE@@U?$less@K@std@@V?$allocator@U?$pair@$$CBKPAVCClientSockE@@@std@@@3@$0A@@std@@@std@@KAAADPAU_Node@?$_Tree_nod@V?$_Tmap_traits@KPAVCClientSockE@@U?$less@K@std@@V?$allocator@U?$pair@$$CBKPAVCClientSockE@@@std@@@3@$0A@@std@@@2@@Z 00418b50 f i serversocke.obj
 0001:00017b60       ?_Isnil@?$_Tree@V?$_Tmap_traits@KPAVCClientSockE@@U?$less@K@std@@V?$allocator@U?$pair@$$CBKPAVCClientSockE@@@std@@@3@$0A@@std@@@std@@KAAADPAU_Node@?$_Tree_nod@V?$_Tmap_traits@KPAVCClientSockE@@U?$less@K@std@@V?$allocator@U?$pair@$$CBKPAVCClientSockE@@@std@@@3@$0A@@std@@@2@@Z 00418b60 f i serversocke.obj
 0001:00017b70       ?_Left@?$_Tree@V?$_Tmap_traits@KPAVCClientSockE@@U?$less@K@std@@V?$allocator@U?$pair@$$CBKPAVCClientSockE@@@std@@@3@$0A@@std@@@std@@KAAAPAU_Node@?$_Tree_nod@V?$_Tmap_traits@KPAVCClientSockE@@U?$less@K@std@@V?$allocator@U?$pair@$$CBKPAVCClientSockE@@@std@@@3@$0A@@std@@@2@PAU342@@Z 00418b70 f i serversocke.obj
 0001:00017b80       ?_Parent@?$_Tree@V?$_Tmap_traits@KPAVCClientSockE@@U?$less@K@std@@V?$allocator@U?$pair@$$CBKPAVCClientSockE@@@std@@@3@$0A@@std@@@std@@KAAAPAU_Node@?$_Tree_nod@V?$_Tmap_traits@KPAVCClientSockE@@U?$less@K@std@@V?$allocator@U?$pair@$$CBKPAVCClientSockE@@@std@@@3@$0A@@std@@@2@PAU342@@Z 00418b80 f i serversocke.obj
 0001:00017b90       ?_Right@?$_Tree@V?$_Tmap_traits@KPAVCClientSockE@@U?$less@K@std@@V?$allocator@U?$pair@$$CBKPAVCClientSockE@@@std@@@3@$0A@@std@@@std@@KAAAPAU_Node@?$_Tree_nod@V?$_Tmap_traits@KPAVCClientSockE@@U?$less@K@std@@V?$allocator@U?$pair@$$CBKPAVCClientSockE@@@std@@@3@$0A@@std@@@2@PAU342@@Z 00418b90 f i serversocke.obj
 0001:00017ba0       ?_Lmost@?$_Tree@V?$_Tmap_traits@KPAVCClientSockE@@U?$less@K@std@@V?$allocator@U?$pair@$$CBKPAVCClientSockE@@@std@@@3@$0A@@std@@@std@@IAEAAPAU_Node@?$_Tree_nod@V?$_Tmap_traits@KPAVCClientSockE@@U?$less@K@std@@V?$allocator@U?$pair@$$CBKPAVCClientSockE@@@std@@@3@$0A@@std@@@2@XZ 00418ba0 f i serversocke.obj
 0001:00017bb0       ?_Max@?$_Tree@V?$_Tmap_traits@KPAVCClientSockE@@U?$less@K@std@@V?$allocator@U?$pair@$$CBKPAVCClientSockE@@@std@@@3@$0A@@std@@@std@@KAPAU_Node@?$_Tree_nod@V?$_Tmap_traits@KPAVCClientSockE@@U?$less@K@std@@V?$allocator@U?$pair@$$CBKPAVCClientSockE@@@std@@@3@$0A@@std@@@2@PAU342@@Z 00418bb0 f i serversocke.obj
 0001:00017bd0       ?_Min@?$_Tree@V?$_Tmap_traits@KPAVCClientSockE@@U?$less@K@std@@V?$allocator@U?$pair@$$CBKPAVCClientSockE@@@std@@@3@$0A@@std@@@std@@KAPAU_Node@?$_Tree_nod@V?$_Tmap_traits@KPAVCClientSockE@@U?$less@K@std@@V?$allocator@U?$pair@$$CBKPAVCClientSockE@@@std@@@3@$0A@@std@@@2@PAU342@@Z 00418bd0 f i serversocke.obj
 0001:00017bf0       ?_Rmost@?$_Tree@V?$_Tmap_traits@KPAVCClientSockE@@U?$less@K@std@@V?$allocator@U?$pair@$$CBKPAVCClientSockE@@@std@@@3@$0A@@std@@@std@@IAEAAPAU_Node@?$_Tree_nod@V?$_Tmap_traits@KPAVCClientSockE@@U?$less@K@std@@V?$allocator@U?$pair@$$CBKPAVCClientSockE@@@std@@@3@$0A@@std@@@2@XZ 00418bf0 f i serversocke.obj
 0001:00017c00       ?_Root@?$_Tree@V?$_Tmap_traits@KPAVCClientSockE@@U?$less@K@std@@V?$allocator@U?$pair@$$CBKPAVCClientSockE@@@std@@@3@$0A@@std@@@std@@IAEAAPAU_Node@?$_Tree_nod@V?$_Tmap_traits@KPAVCClientSockE@@U?$less@K@std@@V?$allocator@U?$pair@$$CBKPAVCClientSockE@@@std@@@3@$0A@@std@@@2@XZ 00418c00 f i serversocke.obj
 0001:00017c10       ?_Rrotate@?$_Tree@V?$_Tmap_traits@KPAVCClientSockE@@U?$less@K@std@@V?$allocator@U?$pair@$$CBKPAVCClientSockE@@@std@@@3@$0A@@std@@@std@@IAEXPAU_Node@?$_Tree_nod@V?$_Tmap_traits@KPAVCClientSockE@@U?$less@K@std@@V?$allocator@U?$pair@$$CBKPAVCClientSockE@@@std@@@3@$0A@@std@@@2@@Z 00418c10 f i serversocke.obj
 0001:00017c70       ?_Kfn@?$_Tmap_traits@KPAVCClientSockE@@U?$less@K@std@@V?$allocator@U?$pair@$$CBKPAVCClientSockE@@@std@@@3@$0A@@std@@SAABKABU?$pair@$$CBKPAVCClientSockE@@@2@@Z 00418c70 f i serversocke.obj
 0001:00017c80       ??0?$allocator@U?$pair@$$CBKPAVCClientSockE@@@std@@@std@@QAE@XZ 00418c80 f i serversocke.obj
 0001:00017c90       ?deallocate@?$allocator@U_Node@?$_Tree_nod@V?$_Tmap_traits@KPAVCClientSockE@@U?$less@K@std@@V?$allocator@U?$pair@$$CBKPAVCClientSockE@@@std@@@3@$0A@@std@@@std@@@std@@QAEXPAU_Node@?$_Tree_nod@V?$_Tmap_traits@KPAVCClientSockE@@U?$less@K@std@@V?$allocator@U?$pair@$$CBKPAVCClientSockE@@@std@@@3@$0A@@std@@@2@I@Z 00418c90 f i serversocke.obj
 0001:00017ca0       ??8const_iterator@?$_Tree@V?$_Tmap_traits@KPAVCClientSockE@@U?$less@K@std@@V?$allocator@U?$pair@$$CBKPAVCClientSockE@@@std@@@3@$0A@@std@@@std@@QBE_NABV012@@Z 00418ca0 f i serversocke.obj
 0001:00017cb0       ?_Mynode@const_iterator@?$_Tree@V?$_Tmap_traits@KPAVCClientSockE@@U?$less@K@std@@V?$allocator@U?$pair@$$CBKPAVCClientSockE@@@std@@@3@$0A@@std@@@std@@QBEPAU_Node@?$_Tree_nod@V?$_Tmap_traits@KPAVCClientSockE@@U?$less@K@std@@V?$allocator@U?$pair@$$CBKPAVCClientSockE@@@std@@@3@$0A@@std@@@3@XZ 00418cb0 f i serversocke.obj
 0001:00017cc0       ??0?$pair@Viterator@?$_Tree@V?$_Tmap_traits@KPAVCClientSockE@@U?$less@K@std@@V?$allocator@U?$pair@$$CBKPAVCClientSockE@@@std@@@3@$0A@@std@@@std@@_N@std@@QAE@ABViterator@?$_Tree@V?$_Tmap_traits@KPAVCClientSockE@@U?$less@K@std@@V?$allocator@U?$pair@$$CBKPAVCClientSockE@@@std@@@3@$0A@@std@@@1@AB_N@Z 00418cc0 f i serversocke.obj
 0001:00017ce0       ?_Myval@?$_Tree@V?$_Tmap_traits@KPAVCClientSockE@@U?$less@K@std@@V?$allocator@U?$pair@$$CBKPAVCClientSockE@@@std@@@3@$0A@@std@@@std@@KAAAU?$pair@$$CBKPAVCClientSockE@@@2@PAU_Node@?$_Tree_nod@V?$_Tmap_traits@KPAVCClientSockE@@U?$less@K@std@@V?$allocator@U?$pair@$$CBKPAVCClientSockE@@@std@@@3@$0A@@std@@@2@@Z 00418ce0 f i serversocke.obj
 0001:00017cf0       ??0?$allocator@U?$pair@$$CBKPAVCClientSockE@@@std@@@std@@QAE@ABV01@@Z 00418cf0 f i serversocke.obj
 0001:00017d00       ??0const_iterator@?$_Tree@V?$_Tmap_traits@KPAVCClientSockE@@U?$less@K@std@@V?$allocator@U?$pair@$$CBKPAVCClientSockE@@@std@@@3@$0A@@std@@@std@@QAE@PAU_Node@?$_Tree_nod@V?$_Tmap_traits@KPAVCClientSockE@@U?$less@K@std@@V?$allocator@U?$pair@$$CBKPAVCClientSockE@@@std@@@3@$0A@@std@@@2@@Z 00418d00 f i serversocke.obj
 0001:00017d10       ??Dconst_iterator@?$_Tree@V?$_Tmap_traits@KPAVCClientSockE@@U?$less@K@std@@V?$allocator@U?$pair@$$CBKPAVCClientSockE@@@std@@@3@$0A@@std@@@std@@QBEABU?$pair@$$CBKPAVCClientSockE@@@2@XZ 00418d10 f i serversocke.obj
 0001:00017d20       ?_Inc@const_iterator@?$_Tree@V?$_Tmap_traits@KPAVCClientSockE@@U?$less@K@std@@V?$allocator@U?$pair@$$CBKPAVCClientSockE@@@std@@@3@$0A@@std@@@std@@QAEXXZ 00418d20 f i serversocke.obj
 0001:00017d80       ?_Root@?$_Tree@V?$_Tmap_traits@KPAVCClientSockE@@U?$less@K@std@@V?$allocator@U?$pair@$$CBKPAVCClientSockE@@@std@@@3@$0A@@std@@@std@@IBEAAPAU_Node@?$_Tree_nod@V?$_Tmap_traits@KPAVCClientSockE@@U?$less@K@std@@V?$allocator@U?$pair@$$CBKPAVCClientSockE@@@std@@@3@$0A@@std@@@2@XZ 00418d80 f i serversocke.obj
 0001:00017d90       ?max_size@?$allocator@U?$pair@$$CBKPAVCClientSockE@@@std@@@std@@QBEIXZ 00418d90 f i serversocke.obj
 0001:00017da0       ?_Dec@const_iterator@?$_Tree@V?$_Tmap_traits@KPAVCClientSockE@@U?$less@K@std@@V?$allocator@U?$pair@$$CBKPAVCClientSockE@@@std@@@3@$0A@@std@@@std@@QAEXXZ 00418da0 f i serversocke.obj
 0001:00017e00       ??0_Node@?$_Tree_nod@V?$_Tmap_traits@KPAVCClientSockE@@U?$less@K@std@@V?$allocator@U?$pair@$$CBKPAVCClientSockE@@@std@@@3@$0A@@std@@@std@@QAE@PAU012@00ABU?$pair@$$CBKPAVCClientSockE@@@2@D@Z 00418e00 f i serversocke.obj
 0001:00017e40       ??0?$_Tmap_traits@KPAVCClientSockE@@U?$less@K@std@@V?$allocator@U?$pair@$$CBKPAVCClientSockE@@@std@@@3@$0A@@std@@QAE@U?$less@K@1@@Z 00418e40 f i serversocke.obj
 0001:00017e50       ??$_Destroy@U_Node@?$_Tree_nod@V?$_Tmap_traits@KPAVCClientSockE@@U?$less@K@std@@V?$allocator@U?$pair@$$CBKPAVCClientSockE@@@std@@@3@$0A@@std@@@std@@@std@@YAXPAU_Node@?$_Tree_nod@V?$_Tmap_traits@KPAVCClientSockE@@U?$less@K@std@@V?$allocator@U?$pair@$$CBKPAVCClientSockE@@@std@@@3@$0A@@std@@@0@@Z 00418e50 f i serversocke.obj
 0001:00017e60       ??$_Destroy@PAU_Node@?$_Tree_nod@V?$_Tmap_traits@KPAVCClientSockE@@U?$less@K@std@@V?$allocator@U?$pair@$$CBKPAVCClientSockE@@@std@@@3@$0A@@std@@@std@@@std@@YAXPAPAU_Node@?$_Tree_nod@V?$_Tmap_traits@KPAVCClientSockE@@U?$less@K@std@@V?$allocator@U?$pair@$$CBKPAVCClientSockE@@@std@@@3@$0A@@std@@@0@@Z 00418e60 f i serversocke.obj
 0001:00017e70       ??$?0U?$pair@$$CBKPAVCClientSockE@@@std@@@?$allocator@PAU_Node@?$_Tree_nod@V?$_Tmap_traits@KPAVCClientSockE@@U?$less@K@std@@V?$allocator@U?$pair@$$CBKPAVCClientSockE@@@std@@@3@$0A@@std@@@std@@@std@@QAE@ABV?$allocator@U?$pair@$$CBKPAVCClientSockE@@@std@@@1@@Z 00418e70 f i serversocke.obj
 0001:00017e80       ??$_Allocate@U_Node@?$_Tree_nod@V?$_Tmap_traits@KPAVCClientSockE@@U?$less@K@std@@V?$allocator@U?$pair@$$CBKPAVCClientSockE@@@std@@@3@$0A@@std@@@std@@@std@@YAPAU_Node@?$_Tree_nod@V?$_Tmap_traits@KPAVCClientSockE@@U?$less@K@std@@V?$allocator@U?$pair@$$CBKPAVCClientSockE@@@std@@@3@$0A@@std@@@0@IPAU120@@Z 00418e80 f i serversocke.obj
 0001:00017ea0       ??$?0U?$pair@$$CBKPAVCClientSockE@@@std@@@?$allocator@U_Node@?$_Tree_nod@V?$_Tmap_traits@KPAVCClientSockE@@U?$less@K@std@@V?$allocator@U?$pair@$$CBKPAVCClientSockE@@@std@@@3@$0A@@std@@@std@@@std@@QAE@ABV?$allocator@U?$pair@$$CBKPAVCClientSockE@@@std@@@1@@Z 00418ea0 f i serversocke.obj
 0001:00017eb0       ??$_Construct@PAU_Node@?$_Tree_nod@V?$_Tmap_traits@KPAVCClientSockE@@U?$less@K@std@@V?$allocator@U?$pair@$$CBKPAVCClientSockE@@@std@@@3@$0A@@std@@@std@@PAU123@@std@@YAXPAPAU_Node@?$_Tree_nod@V?$_Tmap_traits@KPAVCClientSockE@@U?$less@K@std@@V?$allocator@U?$pair@$$CBKPAVCClientSockE@@@std@@@3@$0A@@std@@@0@ABQAU120@@Z 00418eb0 f i serversocke.obj
 0001:00017ed0       ?Lock@CMapChildE@@QAEXXZ   00418ed0 f i serversocke.obj
 0001:00017ee0       ?Unlock@CMapChildE@@QAEXXZ 00418ee0 f i serversocke.obj
 0001:00017ef0       ??9const_iterator@?$_Tree@V?$_Tmap_traits@KPAVCClientSockE@@U?$less@K@std@@V?$allocator@U?$pair@$$CBKPAVCClientSockE@@@std@@@3@$0A@@std@@@std@@QBE_NABV012@@Z 00418ef0 f i serversocke.obj
 0001:00017f10       ?_Key@?$_Tree@V?$_Tmap_traits@KPAVCClientSockE@@U?$less@K@std@@V?$allocator@U?$pair@$$CBKPAVCClientSockE@@@std@@@3@$0A@@std@@@std@@KAABKPAU_Node@?$_Tree_nod@V?$_Tmap_traits@KPAVCClientSockE@@U?$less@K@std@@V?$allocator@U?$pair@$$CBKPAVCClientSockE@@@std@@@3@$0A@@std@@@2@@Z 00418f10 f i serversocke.obj
 0001:00017f20       ?_Lrotate@?$_Tree@V?$_Tmap_traits@KPAVCClientSockE@@U?$less@K@std@@V?$allocator@U?$pair@$$CBKPAVCClientSockE@@@std@@@3@$0A@@std@@@std@@IAEXPAU_Node@?$_Tree_nod@V?$_Tmap_traits@KPAVCClientSockE@@U?$less@K@std@@V?$allocator@U?$pair@$$CBKPAVCClientSockE@@@std@@@3@$0A@@std@@@2@@Z 00418f20 f i serversocke.obj
 0001:00017f80       ?destroy@?$allocator@U_Node@?$_Tree_nod@V?$_Tmap_traits@KPAVCClientSockE@@U?$less@K@std@@V?$allocator@U?$pair@$$CBKPAVCClientSockE@@@std@@@3@$0A@@std@@@std@@@std@@QAEXPAU_Node@?$_Tree_nod@V?$_Tmap_traits@KPAVCClientSockE@@U?$less@K@std@@V?$allocator@U?$pair@$$CBKPAVCClientSockE@@@std@@@3@$0A@@std@@@2@@Z 00418f80 f i serversocke.obj
 0001:00017f90       ??0iterator@?$_Tree@V?$_Tmap_traits@KPAVCClientSockE@@U?$less@K@std@@V?$allocator@U?$pair@$$CBKPAVCClientSockE@@@std@@@3@$0A@@std@@@std@@QAE@PAU_Node@?$_Tree_nod@V?$_Tmap_traits@KPAVCClientSockE@@U?$less@K@std@@V?$allocator@U?$pair@$$CBKPAVCClientSockE@@@std@@@3@$0A@@std@@@2@@Z 00418f90 f i serversocke.obj
 0001:00017fa0       ??Diterator@?$_Tree@V?$_Tmap_traits@KPAVCClientSockE@@U?$less@K@std@@V?$allocator@U?$pair@$$CBKPAVCClientSockE@@@std@@@3@$0A@@std@@@std@@QBEAAU?$pair@$$CBKPAVCClientSockE@@@2@XZ 00418fa0 f i serversocke.obj
 0001:00017fb0       ??Econst_iterator@?$_Tree@V?$_Tmap_traits@KPAVCClientSockE@@U?$less@K@std@@V?$allocator@U?$pair@$$CBKPAVCClientSockE@@@std@@@3@$0A@@std@@@std@@QAEAAV012@XZ 00418fb0 f i serversocke.obj
 0001:00017fc0       ?max_size@?$_Tree@V?$_Tmap_traits@KPAVCClientSockE@@U?$less@K@std@@V?$allocator@U?$pair@$$CBKPAVCClientSockE@@@std@@@3@$0A@@std@@@std@@QBEIXZ 00418fc0 f i serversocke.obj
 0001:00017fd0       ?_Lbound@?$_Tree@V?$_Tmap_traits@KPAVCClientSockE@@U?$less@K@std@@V?$allocator@U?$pair@$$CBKPAVCClientSockE@@@std@@@3@$0A@@std@@@std@@IBEPAU_Node@?$_Tree_nod@V?$_Tmap_traits@KPAVCClientSockE@@U?$less@K@std@@V?$allocator@U?$pair@$$CBKPAVCClientSockE@@@std@@@3@$0A@@std@@@2@ABK@Z 00418fd0 f i serversocke.obj
 0001:00018000       ?destroy@?$allocator@PAU_Node@?$_Tree_nod@V?$_Tmap_traits@KPAVCClientSockE@@U?$less@K@std@@V?$allocator@U?$pair@$$CBKPAVCClientSockE@@@std@@@3@$0A@@std@@@std@@@std@@QAEXPAPAU_Node@?$_Tree_nod@V?$_Tmap_traits@KPAVCClientSockE@@U?$less@K@std@@V?$allocator@U?$pair@$$CBKPAVCClientSockE@@@std@@@3@$0A@@std@@@2@@Z 00419000 f i serversocke.obj
 0001:00018010       ??Fconst_iterator@?$_Tree@V?$_Tmap_traits@KPAVCClientSockE@@U?$less@K@std@@V?$allocator@U?$pair@$$CBKPAVCClientSockE@@@std@@@3@$0A@@std@@@std@@QAEAAV012@XZ 00419010 f i serversocke.obj
 0001:00018020       ?allocate@?$allocator@U_Node@?$_Tree_nod@V?$_Tmap_traits@KPAVCClientSockE@@U?$less@K@std@@V?$allocator@U?$pair@$$CBKPAVCClientSockE@@@std@@@3@$0A@@std@@@std@@@std@@QAEPAU_Node@?$_Tree_nod@V?$_Tmap_traits@KPAVCClientSockE@@U?$less@K@std@@V?$allocator@U?$pair@$$CBKPAVCClientSockE@@@std@@@3@$0A@@std@@@2@I@Z 00419020 f i serversocke.obj
 0001:00018040       ??0?$_Tree_nod@V?$_Tmap_traits@KPAVCClientSockE@@U?$less@K@std@@V?$allocator@U?$pair@$$CBKPAVCClientSockE@@@std@@@3@$0A@@std@@@std@@IAE@ABU?$less@K@1@V?$allocator@U?$pair@$$CBKPAVCClientSockE@@@std@@@1@@Z 00419040 f i serversocke.obj
 0001:00018050       ?construct@?$allocator@PAU_Node@?$_Tree_nod@V?$_Tmap_traits@KPAVCClientSockE@@U?$less@K@std@@V?$allocator@U?$pair@$$CBKPAVCClientSockE@@@std@@@3@$0A@@std@@@std@@@std@@QAEXPAPAU_Node@?$_Tree_nod@V?$_Tmap_traits@KPAVCClientSockE@@U?$less@K@std@@V?$allocator@U?$pair@$$CBKPAVCClientSockE@@@std@@@3@$0A@@std@@@2@ABQAU342@@Z 00419050 f i serversocke.obj
 0001:00018070       ?begin@?$_Tree@V?$_Tmap_traits@KPAVCClientSockE@@U?$less@K@std@@V?$allocator@U?$pair@$$CBKPAVCClientSockE@@@std@@@3@$0A@@std@@@std@@QAE?AViterator@12@XZ 00419070 f i serversocke.obj
 0001:00018080       ?end@?$_Tree@V?$_Tmap_traits@KPAVCClientSockE@@U?$less@K@std@@V?$allocator@U?$pair@$$CBKPAVCClientSockE@@@std@@@3@$0A@@std@@@std@@QAE?AViterator@12@XZ 00419080 f i serversocke.obj
 0001:00018090       ??Citerator@?$_Tree@V?$_Tmap_traits@KPAVCClientSockE@@U?$less@K@std@@V?$allocator@U?$pair@$$CBKPAVCClientSockE@@@std@@@3@$0A@@std@@@std@@QBEPAU?$pair@$$CBKPAVCClientSockE@@@2@XZ 00419090 f i serversocke.obj
 0001:000180a0       ??Eiterator@?$_Tree@V?$_Tmap_traits@KPAVCClientSockE@@U?$less@K@std@@V?$allocator@U?$pair@$$CBKPAVCClientSockE@@@std@@@3@$0A@@std@@@std@@QAEAAV012@XZ 004190a0 f i serversocke.obj
 0001:000180b0       ?lower_bound@?$_Tree@V?$_Tmap_traits@KPAVCClientSockE@@U?$less@K@std@@V?$allocator@U?$pair@$$CBKPAVCClientSockE@@@std@@@3@$0A@@std@@@std@@QAE?AViterator@12@ABK@Z 004190b0 f i serversocke.obj
 0001:000180f0       ?_Erase@?$_Tree@V?$_Tmap_traits@KPAVCClientSockE@@U?$less@K@std@@V?$allocator@U?$pair@$$CBKPAVCClientSockE@@@std@@@3@$0A@@std@@@std@@IAEXPAU_Node@?$_Tree_nod@V?$_Tmap_traits@KPAVCClientSockE@@U?$less@K@std@@V?$allocator@U?$pair@$$CBKPAVCClientSockE@@@std@@@3@$0A@@std@@@2@@Z 004190f0 f i serversocke.obj
 0001:00018130       ??Fiterator@?$_Tree@V?$_Tmap_traits@KPAVCClientSockE@@U?$less@K@std@@V?$allocator@U?$pair@$$CBKPAVCClientSockE@@@std@@@3@$0A@@std@@@std@@QAEAAV012@XZ 00419130 f i serversocke.obj
 0001:00018140       ?_Buynode@?$_Tree@V?$_Tmap_traits@KPAVCClientSockE@@U?$less@K@std@@V?$allocator@U?$pair@$$CBKPAVCClientSockE@@@std@@@3@$0A@@std@@@std@@IAEPAU_Node@?$_Tree_nod@V?$_Tmap_traits@KPAVCClientSockE@@U?$less@K@std@@V?$allocator@U?$pair@$$CBKPAVCClientSockE@@@std@@@3@$0A@@std@@@2@PAU342@00ABU?$pair@$$CBKPAVCClientSockE@@@2@D@Z 00419140 f i serversocke.obj
 0001:00018180       ?_Buynode@?$_Tree@V?$_Tmap_traits@KPAVCClientSockE@@U?$less@K@std@@V?$allocator@U?$pair@$$CBKPAVCClientSockE@@@std@@@3@$0A@@std@@@std@@IAEPAU_Node@?$_Tree_nod@V?$_Tmap_traits@KPAVCClientSockE@@U?$less@K@std@@V?$allocator@U?$pair@$$CBKPAVCClientSockE@@@std@@@3@$0A@@std@@@2@XZ 00419180 f i serversocke.obj
 0001:000181c0       ??0?$_Tree_ptr@V?$_Tmap_traits@KPAVCClientSockE@@U?$less@K@std@@V?$allocator@U?$pair@$$CBKPAVCClientSockE@@@std@@@3@$0A@@std@@@std@@IAE@ABU?$less@K@1@V?$allocator@U?$pair@$$CBKPAVCClientSockE@@@std@@@1@@Z 004191c0 f i serversocke.obj
 0001:000181d0       ??Eiterator@?$_Tree@V?$_Tmap_traits@KPAVCClientSockE@@U?$less@K@std@@V?$allocator@U?$pair@$$CBKPAVCClientSockE@@@std@@@3@$0A@@std@@@std@@QAE?AV012@H@Z 004191d0 f i serversocke.obj
 0001:000181f0       ?Send@CServerSockE@@UAEXPADKK@Z 004191f0 f   serversocke.obj
 0001:000182d0       ?clear@?$_Tree@V?$_Tmap_traits@KPAVCClientSockE@@U?$less@K@std@@V?$allocator@U?$pair@$$CBKPAVCClientSockE@@@std@@@3@$0A@@std@@@std@@QAEXXZ 004192d0 f i serversocke.obj
 0001:00018300       ?find@?$_Tree@V?$_Tmap_traits@KPAVCClientSockE@@U?$less@K@std@@V?$allocator@U?$pair@$$CBKPAVCClientSockE@@@std@@@3@$0A@@std@@@std@@QAE?AViterator@12@ABK@Z 00419300 f i serversocke.obj
 0001:00018370       ?_Init@?$_Tree@V?$_Tmap_traits@KPAVCClientSockE@@U?$less@K@std@@V?$allocator@U?$pair@$$CBKPAVCClientSockE@@@std@@@3@$0A@@std@@@std@@IAEXXZ 00419370 f i serversocke.obj
 0001:000183a0       ??0?$_Tree_val@V?$_Tmap_traits@KPAVCClientSockE@@U?$less@K@std@@V?$allocator@U?$pair@$$CBKPAVCClientSockE@@@std@@@3@$0A@@std@@@std@@IAE@ABU?$less@K@1@V?$allocator@U?$pair@$$CBKPAVCClientSockE@@@std@@@1@@Z 004193a0 f i serversocke.obj
 0001:000183b0       ?CloseAllChild@CServerSockE@@QAEXXZ 004193b0 f   serversocke.obj
 0001:00018480       ??0?$_Tree@V?$_Tmap_traits@KPAVCClientSockE@@U?$less@K@std@@V?$allocator@U?$pair@$$CBKPAVCClientSockE@@@std@@@3@$0A@@std@@@std@@QAE@ABU?$less@K@1@ABV?$allocator@U?$pair@$$CBKPAVCClientSockE@@@std@@@1@@Z 00419480 f i serversocke.obj
 0001:000184b0       ?Close@CServerSockE@@UAEXXZ 004194b0 f   serversocke.obj
 0001:00018510       ?erase@?$_Tree@V?$_Tmap_traits@KPAVCClientSockE@@U?$less@K@std@@V?$allocator@U?$pair@$$CBKPAVCClientSockE@@@std@@@3@$0A@@std@@@std@@QAE?AViterator@12@V312@@Z 00419510 f i serversocke.obj
 0001:000187d0       ?_Insert@?$_Tree@V?$_Tmap_traits@KPAVCClientSockE@@U?$less@K@std@@V?$allocator@U?$pair@$$CBKPAVCClientSockE@@@std@@@3@$0A@@std@@@std@@IAE?AViterator@12@_NPAU_Node@?$_Tree_nod@V?$_Tmap_traits@KPAVCClientSockE@@U?$less@K@std@@V?$allocator@U?$pair@$$CBKPAVCClientSockE@@@std@@@3@$0A@@std@@@2@ABU?$pair@$$CBKPAVCClientSockE@@@2@@Z 004197d0 f i serversocke.obj
 0001:00018980       ?erase@?$_Tree@V?$_Tmap_traits@KPAVCClientSockE@@U?$less@K@std@@V?$allocator@U?$pair@$$CBKPAVCClientSockE@@@std@@@3@$0A@@std@@@std@@QAE?AViterator@12@V312@0@Z 00419980 f i serversocke.obj
 0001:00018a40       ?CloseChild@CServerSockE@@QAEHI@Z 00419a40 f   serversocke.obj
 0001:00018b00       ?CloseConnection@CServerSockE@@UAEHI@Z 00419b00 f   serversocke.obj
 0001:00018b10       ?insert@?$_Tree@V?$_Tmap_traits@KPAVCClientSockE@@U?$less@K@std@@V?$allocator@U?$pair@$$CBKPAVCClientSockE@@@std@@@3@$0A@@std@@@std@@QAE?AU?$pair@Viterator@?$_Tree@V?$_Tmap_traits@KPAVCClientSockE@@U?$less@K@std@@V?$allocator@U?$pair@$$CBKPAVCClientSockE@@@std@@@3@$0A@@std@@@std@@_N@2@ABU?$pair@$$CBKPAVCClientSockE@@@2@@Z 00419b10 f i serversocke.obj
 0001:00018bd0       ?_Tidy@?$_Tree@V?$_Tmap_traits@KPAVCClientSockE@@U?$less@K@std@@V?$allocator@U?$pair@$$CBKPAVCClientSockE@@@std@@@3@$0A@@std@@@std@@IAEXXZ 00419bd0 f i serversocke.obj
 0001:00018c00       ??1?$_Tree@V?$_Tmap_traits@KPAVCClientSockE@@U?$less@K@std@@V?$allocator@U?$pair@$$CBKPAVCClientSockE@@@std@@@3@$0A@@std@@@std@@QAE@XZ 00419c00 f i serversocke.obj
 0001:00018c30       ??1?$map@KPAVCClientSockE@@U?$less@K@std@@V?$allocator@U?$pair@$$CBKPAVCClientSockE@@@std@@@3@@std@@QAE@XZ 00419c30 f i serversocke.obj
 0001:00018c60       ??0?$map@KPAVCClientSockE@@U?$less@K@std@@V?$allocator@U?$pair@$$CBKPAVCClientSockE@@@std@@@3@@std@@QAE@XZ 00419c60 f i serversocke.obj
 0001:00018c90       ??0CMapChildE@@QAE@XZ      00419c90 f i serversocke.obj
 0001:00018ce0       ??1CMapChildE@@UAE@XZ      00419ce0 f i serversocke.obj
 0001:00018d30       ??_ECMapChildE@@UAEPAXI@Z  00419d30 f i serversocke.obj
 0001:00018d30       ??_GCMapChildE@@UAEPAXI@Z  00419d30 f i serversocke.obj
 0001:00018d50       ??0CServerSockE@@QAE@K@Z   00419d50 f   serversocke.obj
 0001:00018df0       ?Get@CServerSockE@@UAEPAVCSock@@I@Z 00419df0 f i serversocke.obj
 0001:00018e30       ??1CServerSockE@@UAE@XZ    00419e30 f   serversocke.obj
 0001:00018ed0       ??_ECServerSockE@@UAEPAXI@Z 00419ed0 f i serversocke.obj
 0001:00018ed0       ??_GCServerSockE@@UAEPAXI@Z 00419ed0 f i serversocke.obj
 0001:00018ef0       ?AddChild@CServerSockE@@QAEPAVCClientSockE@@I@Z 00419ef0 f   serversocke.obj
 0001:00018fc0       ?ListenThreadE@@YGIPAX@Z   00419fc0 f   serversocke.obj
 0001:000190f0       ?StartServer@CServerSockE@@QAEHPAVCDPSock@@@Z 0041a0f0 f   serversocke.obj
 0001:00019150       ??0CSock@@QAE@XZ           0041a150 f   sock.obj
 0001:00019170       ?Clear@CSock@@QAEXXZ       0041a170 f   sock.obj
 0001:000191a0       ?Attach@CSock@@UAEXI@Z     0041a1a0 f   sock.obj
 0001:000191e0       ?Detach@CSock@@UAEXXZ      0041a1e0 f   sock.obj
 0001:000191f0       ?GetHostAddr@CSock@@UAEJPAXPAK@Z 0041a1f0 f   sock.obj
 0001:000192a0       ??1CSock@@UAE@XZ           0041a2a0 f   sock.obj
 0001:000192e0       ?Create@CSock@@UAEHGH@Z    0041a2e0 f   sock.obj
 0001:000193f0       ??_GCSock@@UAEPAXI@Z       0041a3f0 f i sock.obj
 0001:000193f0       ??_ECSock@@UAEPAXI@Z       0041a3f0 f i sock.obj
 0001:00019440       ??0CAr@@QAE@PAXI@Z         0041a440 f   ar.obj
 0001:00019490       ??1CAr@@QAE@XZ             0041a490 f   ar.obj
 0001:000194c0       ?Read@CAr@@QAEXPAXI@Z      0041a4c0 f   ar.obj
 0001:00019520       ?Reserve@CAr@@QAEXI@Z      0041a520 f   ar.obj
 0001:00019550       ?CheckBuf@CAr@@QAEXI@Z     0041a550 f   ar.obj
 0001:000195e0       ?GetBuffer@CAr@@QAEPAEPAH@Z 0041a5e0 f   ar.obj
 0001:00019600       ?Flush@CAr@@QAEXXZ         0041a600 f   ar.obj
 0001:00019610       ?ReelIn@CAr@@QAEXI@Z       0041a610 f   ar.obj
 0001:00019650       ?Write@CAr@@QAEXPBXI@Z     0041a650 f   ar.obj
 0001:00019690       ?ReadString@CAr@@QAEPADPAD@Z 0041a690 f   ar.obj
 0001:000196d0       ?ReadString@CAr@@QAEPADPADH@Z 0041a6d0 f   ar.obj
 0001:00019740       ?WriteString@CAr@@QAEXPBD@Z 0041a740 f   ar.obj
 0001:000197a0       ?Free@?$MemPooler@U_CONNECTIONREQUEST2@@@@QAEHPAU_CONNECTIONREQUEST2@@@Z 0041a7a0 f i dos2.obj
 0001:000197f0       ??0?$pair@$$CBKPAU_CONNECTIONREQUEST2@@@std@@QAE@ABKABQAU_CONNECTIONREQUEST2@@@Z 0041a7f0 f i dos2.obj
 0001:00019810       ?_Isnil@?$_Tree@V?$_Tmap_traits@KPAU_CONNECTIONREQUEST2@@U?$less@K@std@@V?$allocator@U?$pair@$$CBKPAU_CONNECTIONREQUEST2@@@std@@@3@$0A@@std@@@std@@KAAADPAU_Node@?$_Tree_nod@V?$_Tmap_traits@KPAU_CONNECTIONREQUEST2@@U?$less@K@std@@V?$allocator@U?$pair@$$CBKPAU_CONNECTIONREQUEST2@@@std@@@3@$0A@@std@@@2@@Z 0041a810 f i dos2.obj
 0001:00019820       ?_Left@?$_Tree@V?$_Tmap_traits@KPAU_CONNECTIONREQUEST2@@U?$less@K@std@@V?$allocator@U?$pair@$$CBKPAU_CONNECTIONREQUEST2@@@std@@@3@$0A@@std@@@std@@KAAAPAU_Node@?$_Tree_nod@V?$_Tmap_traits@KPAU_CONNECTIONREQUEST2@@U?$less@K@std@@V?$allocator@U?$pair@$$CBKPAU_CONNECTIONREQUEST2@@@std@@@3@$0A@@std@@@2@PAU342@@Z 0041a820 f i dos2.obj
 0001:00019830       ?_Right@?$_Tree@V?$_Tmap_traits@KPAU_CONNECTIONREQUEST2@@U?$less@K@std@@V?$allocator@U?$pair@$$CBKPAU_CONNECTIONREQUEST2@@@std@@@3@$0A@@std@@@std@@KAAAPAU_Node@?$_Tree_nod@V?$_Tmap_traits@KPAU_CONNECTIONREQUEST2@@U?$less@K@std@@V?$allocator@U?$pair@$$CBKPAU_CONNECTIONREQUEST2@@@std@@@3@$0A@@std@@@2@PAU342@@Z 0041a830 f i dos2.obj
 0001:00019840       ?_Lmost@?$_Tree@V?$_Tmap_traits@KPAU_CONNECTIONREQUEST2@@U?$less@K@std@@V?$allocator@U?$pair@$$CBKPAU_CONNECTIONREQUEST2@@@std@@@3@$0A@@std@@@std@@IAEAAPAU_Node@?$_Tree_nod@V?$_Tmap_traits@KPAU_CONNECTIONREQUEST2@@U?$less@K@std@@V?$allocator@U?$pair@$$CBKPAU_CONNECTIONREQUEST2@@@std@@@3@$0A@@std@@@2@XZ 0041a840 f i dos2.obj
 0001:00019850       ?_Rmost@?$_Tree@V?$_Tmap_traits@KPAU_CONNECTIONREQUEST2@@U?$less@K@std@@V?$allocator@U?$pair@$$CBKPAU_CONNECTIONREQUEST2@@@std@@@3@$0A@@std@@@std@@IAEAAPAU_Node@?$_Tree_nod@V?$_Tmap_traits@KPAU_CONNECTIONREQUEST2@@U?$less@K@std@@V?$allocator@U?$pair@$$CBKPAU_CONNECTIONREQUEST2@@@std@@@3@$0A@@std@@@2@XZ 0041a850 f i dos2.obj
 0001:00019860       ?_Kfn@?$_Tmap_traits@KPAU_CONNECTIONREQUEST2@@U?$less@K@std@@V?$allocator@U?$pair@$$CBKPAU_CONNECTIONREQUEST2@@@std@@@3@$0A@@std@@SAABKABU?$pair@$$CBKPAU_CONNECTIONREQUEST2@@@2@@Z 0041a860 f i dos2.obj
 0001:00019870       ??0?$allocator@U?$pair@$$CBKPAU_CONNECTIONREQUEST2@@@std@@@std@@QAE@XZ 0041a870 f i dos2.obj
 0001:00019880       ??8const_iterator@?$_Tree@V?$_Tmap_traits@KPAU_CONNECTIONREQUEST2@@U?$less@K@std@@V?$allocator@U?$pair@$$CBKPAU_CONNECTIONREQUEST2@@@std@@@3@$0A@@std@@@std@@QBE_NABV012@@Z 0041a880 f i dos2.obj
 0001:00019890       ?_Mynode@const_iterator@?$_Tree@V?$_Tmap_traits@KPAU_CONNECTIONREQUEST2@@U?$less@K@std@@V?$allocator@U?$pair@$$CBKPAU_CONNECTIONREQUEST2@@@std@@@3@$0A@@std@@@std@@QBEPAU_Node@?$_Tree_nod@V?$_Tmap_traits@KPAU_CONNECTIONREQUEST2@@U?$less@K@std@@V?$allocator@U?$pair@$$CBKPAU_CONNECTIONREQUEST2@@@std@@@3@$0A@@std@@@3@XZ 0041a890 f i dos2.obj
 0001:000198a0       ??0?$pair@Viterator@?$_Tree@V?$_Tmap_traits@KPAU_CONNECTIONREQUEST2@@U?$less@K@std@@V?$allocator@U?$pair@$$CBKPAU_CONNECTIONREQUEST2@@@std@@@3@$0A@@std@@@std@@_N@std@@QAE@ABViterator@?$_Tree@V?$_Tmap_traits@KPAU_CONNECTIONREQUEST2@@U?$less@K@std@@V?$allocator@U?$pair@$$CBKPAU_CONNECTIONREQUEST2@@@std@@@3@$0A@@std@@@1@AB_N@Z 0041a8a0 f i dos2.obj
 0001:000198c0       ?_Color@?$_Tree@V?$_Tmap_traits@KPAU_CONNECTIONREQUEST2@@U?$less@K@std@@V?$allocator@U?$pair@$$CBKPAU_CONNECTIONREQUEST2@@@std@@@3@$0A@@std@@@std@@KAAADPAU_Node@?$_Tree_nod@V?$_Tmap_traits@KPAU_CONNECTIONREQUEST2@@U?$less@K@std@@V?$allocator@U?$pair@$$CBKPAU_CONNECTIONREQUEST2@@@std@@@3@$0A@@std@@@2@@Z 0041a8c0 f i dos2.obj
 0001:000198d0       ?_Parent@?$_Tree@V?$_Tmap_traits@KPAU_CONNECTIONREQUEST2@@U?$less@K@std@@V?$allocator@U?$pair@$$CBKPAU_CONNECTIONREQUEST2@@@std@@@3@$0A@@std@@@std@@KAAAPAU_Node@?$_Tree_nod@V?$_Tmap_traits@KPAU_CONNECTIONREQUEST2@@U?$less@K@std@@V?$allocator@U?$pair@$$CBKPAU_CONNECTIONREQUEST2@@@std@@@3@$0A@@std@@@2@PAU342@@Z 0041a8d0 f i dos2.obj
 0001:000198e0       ?_Myval@?$_Tree@V?$_Tmap_traits@KPAU_CONNECTIONREQUEST2@@U?$less@K@std@@V?$allocator@U?$pair@$$CBKPAU_CONNECTIONREQUEST2@@@std@@@3@$0A@@std@@@std@@KAAAU?$pair@$$CBKPAU_CONNECTIONREQUEST2@@@2@PAU_Node@?$_Tree_nod@V?$_Tmap_traits@KPAU_CONNECTIONREQUEST2@@U?$less@K@std@@V?$allocator@U?$pair@$$CBKPAU_CONNECTIONREQUEST2@@@std@@@3@$0A@@std@@@2@@Z 0041a8e0 f i dos2.obj
 0001:000198f0       ??0?$allocator@U?$pair@$$CBKPAU_CONNECTIONREQUEST2@@@std@@@std@@QAE@ABV01@@Z 0041a8f0 f i dos2.obj
 0001:00019900       ?deallocate@?$allocator@U_Node@?$_Tree_nod@V?$_Tmap_traits@KPAU_CONNECTIONREQUEST2@@U?$less@K@std@@V?$allocator@U?$pair@$$CBKPAU_CONNECTIONREQUEST2@@@std@@@3@$0A@@std@@@std@@@std@@QAEXPAU_Node@?$_Tree_nod@V?$_Tmap_traits@KPAU_CONNECTIONREQUEST2@@U?$less@K@std@@V?$allocator@U?$pair@$$CBKPAU_CONNECTIONREQUEST2@@@std@@@3@$0A@@std@@@2@I@Z 0041a900 f i dos2.obj
 0001:00019910       ??0const_iterator@?$_Tree@V?$_Tmap_traits@KPAU_CONNECTIONREQUEST2@@U?$less@K@std@@V?$allocator@U?$pair@$$CBKPAU_CONNECTIONREQUEST2@@@std@@@3@$0A@@std@@@std@@QAE@PAU_Node@?$_Tree_nod@V?$_Tmap_traits@KPAU_CONNECTIONREQUEST2@@U?$less@K@std@@V?$allocator@U?$pair@$$CBKPAU_CONNECTIONREQUEST2@@@std@@@3@$0A@@std@@@2@@Z 0041a910 f i dos2.obj
 0001:00019920       ??Dconst_iterator@?$_Tree@V?$_Tmap_traits@KPAU_CONNECTIONREQUEST2@@U?$less@K@std@@V?$allocator@U?$pair@$$CBKPAU_CONNECTIONREQUEST2@@@std@@@3@$0A@@std@@@std@@QBEABU?$pair@$$CBKPAU_CONNECTIONREQUEST2@@@2@XZ 0041a920 f i dos2.obj
 0001:00019930       ?_Min@?$_Tree@V?$_Tmap_traits@KPAU_CONNECTIONREQUEST2@@U?$less@K@std@@V?$allocator@U?$pair@$$CBKPAU_CONNECTIONREQUEST2@@@std@@@3@$0A@@std@@@std@@KAPAU_Node@?$_Tree_nod@V?$_Tmap_traits@KPAU_CONNECTIONREQUEST2@@U?$less@K@std@@V?$allocator@U?$pair@$$CBKPAU_CONNECTIONREQUEST2@@@std@@@3@$0A@@std@@@2@PAU342@@Z 0041a930 f i dos2.obj
 0001:00019950       ?_Root@?$_Tree@V?$_Tmap_traits@KPAU_CONNECTIONREQUEST2@@U?$less@K@std@@V?$allocator@U?$pair@$$CBKPAU_CONNECTIONREQUEST2@@@std@@@3@$0A@@std@@@std@@IBEAAPAU_Node@?$_Tree_nod@V?$_Tmap_traits@KPAU_CONNECTIONREQUEST2@@U?$less@K@std@@V?$allocator@U?$pair@$$CBKPAU_CONNECTIONREQUEST2@@@std@@@3@$0A@@std@@@2@XZ 0041a950 f i dos2.obj
 0001:00019960       ?max_size@?$allocator@U?$pair@$$CBKPAU_CONNECTIONREQUEST2@@@std@@@std@@QBEIXZ 0041a960 f i dos2.obj
 0001:00019970       ??0_Node@?$_Tree_nod@V?$_Tmap_traits@KPAU_CONNECTIONREQUEST2@@U?$less@K@std@@V?$allocator@U?$pair@$$CBKPAU_CONNECTIONREQUEST2@@@std@@@3@$0A@@std@@@std@@QAE@PAU012@00ABU?$pair@$$CBKPAU_CONNECTIONREQUEST2@@@2@D@Z 0041a970 f i dos2.obj
 0001:000199b0       ?_Max@?$_Tree@V?$_Tmap_traits@KPAU_CONNECTIONREQUEST2@@U?$less@K@std@@V?$allocator@U?$pair@$$CBKPAU_CONNECTIONREQUEST2@@@std@@@3@$0A@@std@@@std@@KAPAU_Node@?$_Tree_nod@V?$_Tmap_traits@KPAU_CONNECTIONREQUEST2@@U?$less@K@std@@V?$allocator@U?$pair@$$CBKPAU_CONNECTIONREQUEST2@@@std@@@3@$0A@@std@@@2@PAU342@@Z 0041a9b0 f i dos2.obj
 0001:000199d0       ??0?$_Tmap_traits@KPAU_CONNECTIONREQUEST2@@U?$less@K@std@@V?$allocator@U?$pair@$$CBKPAU_CONNECTIONREQUEST2@@@std@@@3@$0A@@std@@QAE@U?$less@K@1@@Z 0041a9d0 f i dos2.obj
 0001:000199e0       ??$_Destroy@U_Node@?$_Tree_nod@V?$_Tmap_traits@KPAU_CONNECTIONREQUEST2@@U?$less@K@std@@V?$allocator@U?$pair@$$CBKPAU_CONNECTIONREQUEST2@@@std@@@3@$0A@@std@@@std@@@std@@YAXPAU_Node@?$_Tree_nod@V?$_Tmap_traits@KPAU_CONNECTIONREQUEST2@@U?$less@K@std@@V?$allocator@U?$pair@$$CBKPAU_CONNECTIONREQUEST2@@@std@@@3@$0A@@std@@@0@@Z 0041a9e0 f i dos2.obj
 0001:000199f0       ??$_Destroy@PAU_Node@?$_Tree_nod@V?$_Tmap_traits@KPAU_CONNECTIONREQUEST2@@U?$less@K@std@@V?$allocator@U?$pair@$$CBKPAU_CONNECTIONREQUEST2@@@std@@@3@$0A@@std@@@std@@@std@@YAXPAPAU_Node@?$_Tree_nod@V?$_Tmap_traits@KPAU_CONNECTIONREQUEST2@@U?$less@K@std@@V?$allocator@U?$pair@$$CBKPAU_CONNECTIONREQUEST2@@@std@@@3@$0A@@std@@@0@@Z 0041a9f0 f i dos2.obj
 0001:00019a00       ??$?0U?$pair@$$CBKPAU_CONNECTIONREQUEST2@@@std@@@?$allocator@PAU_Node@?$_Tree_nod@V?$_Tmap_traits@KPAU_CONNECTIONREQUEST2@@U?$less@K@std@@V?$allocator@U?$pair@$$CBKPAU_CONNECTIONREQUEST2@@@std@@@3@$0A@@std@@@std@@@std@@QAE@ABV?$allocator@U?$pair@$$CBKPAU_CONNECTIONREQUEST2@@@std@@@1@@Z 0041aa00 f i dos2.obj
 0001:00019a10       ??$_Allocate@U_Node@?$_Tree_nod@V?$_Tmap_traits@KPAU_CONNECTIONREQUEST2@@U?$less@K@std@@V?$allocator@U?$pair@$$CBKPAU_CONNECTIONREQUEST2@@@std@@@3@$0A@@std@@@std@@@std@@YAPAU_Node@?$_Tree_nod@V?$_Tmap_traits@KPAU_CONNECTIONREQUEST2@@U?$less@K@std@@V?$allocator@U?$pair@$$CBKPAU_CONNECTIONREQUEST2@@@std@@@3@$0A@@std@@@0@IPAU120@@Z 0041aa10 f i dos2.obj
 0001:00019a30       ??$?0U?$pair@$$CBKPAU_CONNECTIONREQUEST2@@@std@@@?$allocator@U_Node@?$_Tree_nod@V?$_Tmap_traits@KPAU_CONNECTIONREQUEST2@@U?$less@K@std@@V?$allocator@U?$pair@$$CBKPAU_CONNECTIONREQUEST2@@@std@@@3@$0A@@std@@@std@@@std@@QAE@ABV?$allocator@U?$pair@$$CBKPAU_CONNECTIONREQUEST2@@@std@@@1@@Z 0041aa30 f i dos2.obj
 0001:00019a40       ??$_Construct@PAU_Node@?$_Tree_nod@V?$_Tmap_traits@KPAU_CONNECTIONREQUEST2@@U?$less@K@std@@V?$allocator@U?$pair@$$CBKPAU_CONNECTIONREQUEST2@@@std@@@3@$0A@@std@@@std@@PAU123@@std@@YAXPAPAU_Node@?$_Tree_nod@V?$_Tmap_traits@KPAU_CONNECTIONREQUEST2@@U?$less@K@std@@V?$allocator@U?$pair@$$CBKPAU_CONNECTIONREQUEST2@@@std@@@3@$0A@@std@@@0@ABQAU120@@Z 0041aa40 f i dos2.obj
 0001:00019a60       ??1CTimer@@UAE@XZ          0041aa60 f i dos2.obj
 0001:00019a70       ?IsTimeOut@CTimer@@QAEHXZ  0041aa70 f i dos2.obj
 0001:00019a80       ??_GCTimer@@UAEPAXI@Z      0041aa80 f i dos2.obj
 0001:00019a80       ??_ECTimer@@UAEPAXI@Z      0041aa80 f i dos2.obj
 0001:00019aa0       ??9const_iterator@?$_Tree@V?$_Tmap_traits@KPAU_CONNECTIONREQUEST2@@U?$less@K@std@@V?$allocator@U?$pair@$$CBKPAU_CONNECTIONREQUEST2@@@std@@@3@$0A@@std@@@std@@QBE_NABV012@@Z 0041aaa0 f i dos2.obj
 0001:00019ac0       ?_Key@?$_Tree@V?$_Tmap_traits@KPAU_CONNECTIONREQUEST2@@U?$less@K@std@@V?$allocator@U?$pair@$$CBKPAU_CONNECTIONREQUEST2@@@std@@@3@$0A@@std@@@std@@KAABKPAU_Node@?$_Tree_nod@V?$_Tmap_traits@KPAU_CONNECTIONREQUEST2@@U?$less@K@std@@V?$allocator@U?$pair@$$CBKPAU_CONNECTIONREQUEST2@@@std@@@3@$0A@@std@@@2@@Z 0041aac0 f i dos2.obj
 0001:00019ad0       ?_Root@?$_Tree@V?$_Tmap_traits@KPAU_CONNECTIONREQUEST2@@U?$less@K@std@@V?$allocator@U?$pair@$$CBKPAU_CONNECTIONREQUEST2@@@std@@@3@$0A@@std@@@std@@IAEAAPAU_Node@?$_Tree_nod@V?$_Tmap_traits@KPAU_CONNECTIONREQUEST2@@U?$less@K@std@@V?$allocator@U?$pair@$$CBKPAU_CONNECTIONREQUEST2@@@std@@@3@$0A@@std@@@2@XZ 0041aad0 f i dos2.obj
 0001:00019ae0       ??0iterator@?$_Tree@V?$_Tmap_traits@KPAU_CONNECTIONREQUEST2@@U?$less@K@std@@V?$allocator@U?$pair@$$CBKPAU_CONNECTIONREQUEST2@@@std@@@3@$0A@@std@@@std@@QAE@PAU_Node@?$_Tree_nod@V?$_Tmap_traits@KPAU_CONNECTIONREQUEST2@@U?$less@K@std@@V?$allocator@U?$pair@$$CBKPAU_CONNECTIONREQUEST2@@@std@@@3@$0A@@std@@@2@@Z 0041aae0 f i dos2.obj
 0001:00019af0       ??Diterator@?$_Tree@V?$_Tmap_traits@KPAU_CONNECTIONREQUEST2@@U?$less@K@std@@V?$allocator@U?$pair@$$CBKPAU_CONNECTIONREQUEST2@@@std@@@3@$0A@@std@@@std@@QBEAAU?$pair@$$CBKPAU_CONNECTIONREQUEST2@@@2@XZ 0041aaf0 f i dos2.obj
 0001:00019b00       ?max_size@?$_Tree@V?$_Tmap_traits@KPAU_CONNECTIONREQUEST2@@U?$less@K@std@@V?$allocator@U?$pair@$$CBKPAU_CONNECTIONREQUEST2@@@std@@@3@$0A@@std@@@std@@QBEIXZ 0041ab00 f i dos2.obj
 0001:00019b10       ?_Lbound@?$_Tree@V?$_Tmap_traits@KPAU_CONNECTIONREQUEST2@@U?$less@K@std@@V?$allocator@U?$pair@$$CBKPAU_CONNECTIONREQUEST2@@@std@@@3@$0A@@std@@@std@@IBEPAU_Node@?$_Tree_nod@V?$_Tmap_traits@KPAU_CONNECTIONREQUEST2@@U?$less@K@std@@V?$allocator@U?$pair@$$CBKPAU_CONNECTIONREQUEST2@@@std@@@3@$0A@@std@@@2@ABK@Z 0041ab10 f i dos2.obj
 0001:00019b40       ?_Lrotate@?$_Tree@V?$_Tmap_traits@KPAU_CONNECTIONREQUEST2@@U?$less@K@std@@V?$allocator@U?$pair@$$CBKPAU_CONNECTIONREQUEST2@@@std@@@3@$0A@@std@@@std@@IAEXPAU_Node@?$_Tree_nod@V?$_Tmap_traits@KPAU_CONNECTIONREQUEST2@@U?$less@K@std@@V?$allocator@U?$pair@$$CBKPAU_CONNECTIONREQUEST2@@@std@@@3@$0A@@std@@@2@@Z 0041ab40 f i dos2.obj
 0001:00019ba0       ?_Rrotate@?$_Tree@V?$_Tmap_traits@KPAU_CONNECTIONREQUEST2@@U?$less@K@std@@V?$allocator@U?$pair@$$CBKPAU_CONNECTIONREQUEST2@@@std@@@3@$0A@@std@@@std@@IAEXPAU_Node@?$_Tree_nod@V?$_Tmap_traits@KPAU_CONNECTIONREQUEST2@@U?$less@K@std@@V?$allocator@U?$pair@$$CBKPAU_CONNECTIONREQUEST2@@@std@@@3@$0A@@std@@@2@@Z 0041aba0 f i dos2.obj
 0001:00019c00       ?destroy@?$allocator@U_Node@?$_Tree_nod@V?$_Tmap_traits@KPAU_CONNECTIONREQUEST2@@U?$less@K@std@@V?$allocator@U?$pair@$$CBKPAU_CONNECTIONREQUEST2@@@std@@@3@$0A@@std@@@std@@@std@@QAEXPAU_Node@?$_Tree_nod@V?$_Tmap_traits@KPAU_CONNECTIONREQUEST2@@U?$less@K@std@@V?$allocator@U?$pair@$$CBKPAU_CONNECTIONREQUEST2@@@std@@@3@$0A@@std@@@2@@Z 0041ac00 f i dos2.obj
 0001:00019c10       ?destroy@?$allocator@PAU_Node@?$_Tree_nod@V?$_Tmap_traits@KPAU_CONNECTIONREQUEST2@@U?$less@K@std@@V?$allocator@U?$pair@$$CBKPAU_CONNECTIONREQUEST2@@@std@@@3@$0A@@std@@@std@@@std@@QAEXPAPAU_Node@?$_Tree_nod@V?$_Tmap_traits@KPAU_CONNECTIONREQUEST2@@U?$less@K@std@@V?$allocator@U?$pair@$$CBKPAU_CONNECTIONREQUEST2@@@std@@@3@$0A@@std@@@2@@Z 0041ac10 f i dos2.obj
 0001:00019c20       ?_Inc@const_iterator@?$_Tree@V?$_Tmap_traits@KPAU_CONNECTIONREQUEST2@@U?$less@K@std@@V?$allocator@U?$pair@$$CBKPAU_CONNECTIONREQUEST2@@@std@@@3@$0A@@std@@@std@@QAEXXZ 0041ac20 f i dos2.obj
 0001:00019c80       ?allocate@?$allocator@U_Node@?$_Tree_nod@V?$_Tmap_traits@KPAU_CONNECTIONREQUEST2@@U?$less@K@std@@V?$allocator@U?$pair@$$CBKPAU_CONNECTIONREQUEST2@@@std@@@3@$0A@@std@@@std@@@std@@QAEPAU_Node@?$_Tree_nod@V?$_Tmap_traits@KPAU_CONNECTIONREQUEST2@@U?$less@K@std@@V?$allocator@U?$pair@$$CBKPAU_CONNECTIONREQUEST2@@@std@@@3@$0A@@std@@@2@I@Z 0041ac80 f i dos2.obj
 0001:00019ca0       ?_Dec@const_iterator@?$_Tree@V?$_Tmap_traits@KPAU_CONNECTIONREQUEST2@@U?$less@K@std@@V?$allocator@U?$pair@$$CBKPAU_CONNECTIONREQUEST2@@@std@@@3@$0A@@std@@@std@@QAEXXZ 0041aca0 f i dos2.obj
 0001:00019d00       ??0?$_Tree_nod@V?$_Tmap_traits@KPAU_CONNECTIONREQUEST2@@U?$less@K@std@@V?$allocator@U?$pair@$$CBKPAU_CONNECTIONREQUEST2@@@std@@@3@$0A@@std@@@std@@IAE@ABU?$less@K@1@V?$allocator@U?$pair@$$CBKPAU_CONNECTIONREQUEST2@@@std@@@1@@Z 0041ad00 f i dos2.obj
 0001:00019d10       ?construct@?$allocator@PAU_Node@?$_Tree_nod@V?$_Tmap_traits@KPAU_CONNECTIONREQUEST2@@U?$less@K@std@@V?$allocator@U?$pair@$$CBKPAU_CONNECTIONREQUEST2@@@std@@@3@$0A@@std@@@std@@@std@@QAEXPAPAU_Node@?$_Tree_nod@V?$_Tmap_traits@KPAU_CONNECTIONREQUEST2@@U?$less@K@std@@V?$allocator@U?$pair@$$CBKPAU_CONNECTIONREQUEST2@@@std@@@3@$0A@@std@@@2@ABQAU342@@Z 0041ad10 f i dos2.obj
 0001:00019d30       ?begin@?$_Tree@V?$_Tmap_traits@KPAU_CONNECTIONREQUEST2@@U?$less@K@std@@V?$allocator@U?$pair@$$CBKPAU_CONNECTIONREQUEST2@@@std@@@3@$0A@@std@@@std@@QAE?AViterator@12@XZ 0041ad30 f i dos2.obj
 0001:00019d40       ?end@?$_Tree@V?$_Tmap_traits@KPAU_CONNECTIONREQUEST2@@U?$less@K@std@@V?$allocator@U?$pair@$$CBKPAU_CONNECTIONREQUEST2@@@std@@@3@$0A@@std@@@std@@QAE?AViterator@12@XZ 0041ad40 f i dos2.obj
 0001:00019d50       ??Citerator@?$_Tree@V?$_Tmap_traits@KPAU_CONNECTIONREQUEST2@@U?$less@K@std@@V?$allocator@U?$pair@$$CBKPAU_CONNECTIONREQUEST2@@@std@@@3@$0A@@std@@@std@@QBEPAU?$pair@$$CBKPAU_CONNECTIONREQUEST2@@@2@XZ 0041ad50 f i dos2.obj
 0001:00019d60       ?lower_bound@?$_Tree@V?$_Tmap_traits@KPAU_CONNECTIONREQUEST2@@U?$less@K@std@@V?$allocator@U?$pair@$$CBKPAU_CONNECTIONREQUEST2@@@std@@@3@$0A@@std@@@std@@QAE?AViterator@12@ABK@Z 0041ad60 f i dos2.obj
 0001:00019da0       ?_Erase@?$_Tree@V?$_Tmap_traits@KPAU_CONNECTIONREQUEST2@@U?$less@K@std@@V?$allocator@U?$pair@$$CBKPAU_CONNECTIONREQUEST2@@@std@@@3@$0A@@std@@@std@@IAEXPAU_Node@?$_Tree_nod@V?$_Tmap_traits@KPAU_CONNECTIONREQUEST2@@U?$less@K@std@@V?$allocator@U?$pair@$$CBKPAU_CONNECTIONREQUEST2@@@std@@@3@$0A@@std@@@2@@Z 0041ada0 f i dos2.obj
 0001:00019de0       ??Econst_iterator@?$_Tree@V?$_Tmap_traits@KPAU_CONNECTIONREQUEST2@@U?$less@K@std@@V?$allocator@U?$pair@$$CBKPAU_CONNECTIONREQUEST2@@@std@@@3@$0A@@std@@@std@@QAEAAV012@XZ 0041ade0 f i dos2.obj
 0001:00019df0       ?_Buynode@?$_Tree@V?$_Tmap_traits@KPAU_CONNECTIONREQUEST2@@U?$less@K@std@@V?$allocator@U?$pair@$$CBKPAU_CONNECTIONREQUEST2@@@std@@@3@$0A@@std@@@std@@IAEPAU_Node@?$_Tree_nod@V?$_Tmap_traits@KPAU_CONNECTIONREQUEST2@@U?$less@K@std@@V?$allocator@U?$pair@$$CBKPAU_CONNECTIONREQUEST2@@@std@@@3@$0A@@std@@@2@PAU342@00ABU?$pair@$$CBKPAU_CONNECTIONREQUEST2@@@2@D@Z 0041adf0 f i dos2.obj
 0001:00019e30       ??Fconst_iterator@?$_Tree@V?$_Tmap_traits@KPAU_CONNECTIONREQUEST2@@U?$less@K@std@@V?$allocator@U?$pair@$$CBKPAU_CONNECTIONREQUEST2@@@std@@@3@$0A@@std@@@std@@QAEAAV012@XZ 0041ae30 f i dos2.obj
 0001:00019e40       ?_Buynode@?$_Tree@V?$_Tmap_traits@KPAU_CONNECTIONREQUEST2@@U?$less@K@std@@V?$allocator@U?$pair@$$CBKPAU_CONNECTIONREQUEST2@@@std@@@3@$0A@@std@@@std@@IAEPAU_Node@?$_Tree_nod@V?$_Tmap_traits@KPAU_CONNECTIONREQUEST2@@U?$less@K@std@@V?$allocator@U?$pair@$$CBKPAU_CONNECTIONREQUEST2@@@std@@@3@$0A@@std@@@2@XZ 0041ae40 f i dos2.obj
 0001:00019e80       ??0?$_Tree_ptr@V?$_Tmap_traits@KPAU_CONNECTIONREQUEST2@@U?$less@K@std@@V?$allocator@U?$pair@$$CBKPAU_CONNECTIONREQUEST2@@@std@@@3@$0A@@std@@@std@@IAE@ABU?$less@K@1@V?$allocator@U?$pair@$$CBKPAU_CONNECTIONREQUEST2@@@std@@@1@@Z 0041ae80 f i dos2.obj
 0001:00019e90       ?clear@?$_Tree@V?$_Tmap_traits@KPAU_CONNECTIONREQUEST2@@U?$less@K@std@@V?$allocator@U?$pair@$$CBKPAU_CONNECTIONREQUEST2@@@std@@@3@$0A@@std@@@std@@QAEXXZ 0041ae90 f i dos2.obj
 0001:00019ec0       ?find@?$_Tree@V?$_Tmap_traits@KPAU_CONNECTIONREQUEST2@@U?$less@K@std@@V?$allocator@U?$pair@$$CBKPAU_CONNECTIONREQUEST2@@@std@@@3@$0A@@std@@@std@@QAE?AViterator@12@ABK@Z 0041aec0 f i dos2.obj
 0001:00019f30       ??Eiterator@?$_Tree@V?$_Tmap_traits@KPAU_CONNECTIONREQUEST2@@U?$less@K@std@@V?$allocator@U?$pair@$$CBKPAU_CONNECTIONREQUEST2@@@std@@@3@$0A@@std@@@std@@QAEAAV012@XZ 0041af30 f i dos2.obj
 0001:00019f40       ?Destroy@?$MemPooler@U_CONNECTIONREQUEST2@@@@IAEXXZ 0041af40 f i dos2.obj
 0001:00019fb0       ??Fiterator@?$_Tree@V?$_Tmap_traits@KPAU_CONNECTIONREQUEST2@@U?$less@K@std@@V?$allocator@U?$pair@$$CBKPAU_CONNECTIONREQUEST2@@@std@@@3@$0A@@std@@@std@@QAEAAV012@XZ 0041afb0 f i dos2.obj
 0001:00019fc0       ?_Init@?$_Tree@V?$_Tmap_traits@KPAU_CONNECTIONREQUEST2@@U?$less@K@std@@V?$allocator@U?$pair@$$CBKPAU_CONNECTIONREQUEST2@@@std@@@3@$0A@@std@@@std@@IAEXXZ 0041afc0 f i dos2.obj
 0001:00019ff0       ??0?$_Tree_val@V?$_Tmap_traits@KPAU_CONNECTIONREQUEST2@@U?$less@K@std@@V?$allocator@U?$pair@$$CBKPAU_CONNECTIONREQUEST2@@@std@@@3@$0A@@std@@@std@@IAE@ABU?$less@K@1@V?$allocator@U?$pair@$$CBKPAU_CONNECTIONREQUEST2@@@std@@@1@@Z 0041aff0 f i dos2.obj
 0001:0001a000       ??Eiterator@?$_Tree@V?$_Tmap_traits@KPAU_CONNECTIONREQUEST2@@U?$less@K@std@@V?$allocator@U?$pair@$$CBKPAU_CONNECTIONREQUEST2@@@std@@@3@$0A@@std@@@std@@QAE?AV012@H@Z 0041b000 f i dos2.obj
 0001:0001a020       ?Get@CDos2@@AAEPAU_CONNECTIONREQUEST2@@K@Z 0041b020 f   dos2.obj
 0001:0001a050       ?Release@CDos2@@AAEXXZ     0041b050 f   dos2.obj
 0001:0001a0d0       ??1?$MemPooler@U_CONNECTIONREQUEST2@@@@QAE@XZ 0041b0d0 f i dos2.obj
 0001:0001a100       ??0?$_Tree@V?$_Tmap_traits@KPAU_CONNECTIONREQUEST2@@U?$less@K@std@@V?$allocator@U?$pair@$$CBKPAU_CONNECTIONREQUEST2@@@std@@@3@$0A@@std@@@std@@QAE@ABU?$less@K@1@ABV?$allocator@U?$pair@$$CBKPAU_CONNECTIONREQUEST2@@@std@@@1@@Z 0041b100 f i dos2.obj
 0001:0001a130       ??_G?$MemPooler@U_CONNECTIONREQUEST2@@@@QAEPAXI@Z 0041b130 f i dos2.obj
 0001:0001a150       ?_Insert@?$_Tree@V?$_Tmap_traits@KPAU_CONNECTIONREQUEST2@@U?$less@K@std@@V?$allocator@U?$pair@$$CBKPAU_CONNECTIONREQUEST2@@@std@@@3@$0A@@std@@@std@@IAE?AViterator@12@_NPAU_Node@?$_Tree_nod@V?$_Tmap_traits@KPAU_CONNECTIONREQUEST2@@U?$less@K@std@@V?$allocator@U?$pair@$$CBKPAU_CONNECTIONREQUEST2@@@std@@@3@$0A@@std@@@2@ABU?$pair@$$CBKPAU_CONNECTIONREQUEST2@@@2@@Z 0041b150 f i dos2.obj
 0001:0001a300       ?erase@?$_Tree@V?$_Tmap_traits@KPAU_CONNECTIONREQUEST2@@U?$less@K@std@@V?$allocator@U?$pair@$$CBKPAU_CONNECTIONREQUEST2@@@std@@@3@$0A@@std@@@std@@QAE?AViterator@12@V312@@Z 0041b300 f i dos2.obj
 0001:0001a5c0       ?insert@?$_Tree@V?$_Tmap_traits@KPAU_CONNECTIONREQUEST2@@U?$less@K@std@@V?$allocator@U?$pair@$$CBKPAU_CONNECTIONREQUEST2@@@std@@@3@$0A@@std@@@std@@QAE?AU?$pair@Viterator@?$_Tree@V?$_Tmap_traits@KPAU_CONNECTIONREQUEST2@@U?$less@K@std@@V?$allocator@U?$pair@$$CBKPAU_CONNECTIONREQUEST2@@@std@@@3@$0A@@std@@@std@@_N@2@ABU?$pair@$$CBKPAU_CONNECTIONREQUEST2@@@2@@Z 0041b5c0 f i dos2.obj
 0001:0001a680       ?erase@?$_Tree@V?$_Tmap_traits@KPAU_CONNECTIONREQUEST2@@U?$less@K@std@@V?$allocator@U?$pair@$$CBKPAU_CONNECTIONREQUEST2@@@std@@@3@$0A@@std@@@std@@QAE?AViterator@12@V312@0@Z 0041b680 f i dos2.obj
 0001:0001a740       ?_Tidy@?$_Tree@V?$_Tmap_traits@KPAU_CONNECTIONREQUEST2@@U?$less@K@std@@V?$allocator@U?$pair@$$CBKPAU_CONNECTIONREQUEST2@@@std@@@3@$0A@@std@@@std@@IAEXXZ 0041b740 f i dos2.obj
 0001:0001a770       ??1?$_Tree@V?$_Tmap_traits@KPAU_CONNECTIONREQUEST2@@U?$less@K@std@@V?$allocator@U?$pair@$$CBKPAU_CONNECTIONREQUEST2@@@std@@@3@$0A@@std@@@std@@QAE@XZ 0041b770 f i dos2.obj
 0001:0001a7a0       ?Create@?$MemPooler@U_CONNECTIONREQUEST2@@@@IAEXXZ 0041b7a0 f i dos2.obj
 0001:0001a830       ??1?$map@KPAU_CONNECTIONREQUEST2@@U?$less@K@std@@V?$allocator@U?$pair@$$CBKPAU_CONNECTIONREQUEST2@@@std@@@3@@std@@QAE@XZ 0041b830 f i dos2.obj
 0001:0001a860       ??1CDos2@@UAE@XZ           0041b860 f   dos2.obj
 0001:0001a9e0       ??0?$map@KPAU_CONNECTIONREQUEST2@@U?$less@K@std@@V?$allocator@U?$pair@$$CBKPAU_CONNECTIONREQUEST2@@@std@@@3@@std@@QAE@XZ 0041b9e0 f i dos2.obj
 0001:0001aa10       ??0?$MemPooler@U_CONNECTIONREQUEST2@@@@QAE@H@Z 0041ba10 f i dos2.obj
 0001:0001aa90       ?Alloc@?$MemPooler@U_CONNECTIONREQUEST2@@@@QAEPAU_CONNECTIONREQUEST2@@XZ 0041ba90 f i dos2.obj
 0001:0001aad0       ??0CDos2@@QAE@XZ           0041bad0 f   dos2.obj
 0001:0001aba0       ??_ECDos2@@UAEPAXI@Z       0041bba0 f i dos2.obj
 0001:0001aba0       ??_GCDos2@@UAEPAXI@Z       0041bba0 f i dos2.obj
 0001:0001abc0       ?Add@CDos2@@AAEXK@Z        0041bbc0 f   dos2.obj
 0001:0001ac40       ?IsOver@CDos2@@QAEHK@Z     0041bc40 f   dos2.obj
 0001:0001acf0       ??1CHeapMng@@UAE@XZ        0041bcf0 f   heapmng.obj
 0001:0001ad10       ?Malloc@CHeapMng@@QAEPAXI@Z 0041bd10 f   heapmng.obj
 0001:0001ad30       ?Free@CHeapMng@@QAEXPAX@Z  0041bd30 f   heapmng.obj
 0001:0001ad50       ?Realloc@CHeapMng@@QAEPAXPAXI@Z 0041bd50 f   heapmng.obj
 0001:0001ad70       ??0CHeapMng@@QAE@XZ        0041bd70 f   heapmng.obj
 0001:0001ada0       ??_GCHeapMng@@UAEPAXI@Z    0041bda0 f i heapmng.obj
 0001:0001ada0       ??_ECHeapMng@@UAEPAXI@Z    0041bda0 f i heapmng.obj
 0001:0001add0       ?FindKey@CMyTrace@@AAEHK@Z 0041bdd0 f   MyTrace.obj
 0001:0001ae70       ?Key@CMyTrace@@SAKPBD@Z    0041be70 f   MyTrace.obj
 0001:0001aef0       ?TextOutA@CMyTrace@@AAEXPAUHDC__@@HHPBDH@Z 0041bef0 f   MyTrace.obj
 0001:0001af60       ?GetText@CMyTrace@@QAEXKPAD@Z 0041bf60 f   MyTrace.obj
 0001:0001af90       ??0CMyTrace@@QAE@XZ        0041bf90 f   MyTrace.obj
 0001:0001afe0       ??1CMyTrace@@UAE@XZ        0041bfe0 f   MyTrace.obj
 0001:0001b020       ?Add@CMyTrace@@QAAXKHPBDZZ 0041c020 f   MyTrace.obj
 0001:0001b1f0       ?AddLine@CMyTrace@@QAEXD@Z 0041c1f0 f   MyTrace.obj
 0001:0001b260       ?Paint@CMyTrace@@QAEXPAUHDC__@@@Z 0041c260 f   MyTrace.obj
 0001:0001b4f0       ??_ECMyTrace@@UAEPAXI@Z    0041c4f0 f i MyTrace.obj
 0001:0001b4f0       ??_GCMyTrace@@UAEPAXI@Z    0041c4f0 f i MyTrace.obj
 0001:0001b510       ??6CAr@@QAEAAV0@G@Z        0041c510 f i ServerDesc.obj
 0001:0001b530       ??6@YAAAVCAr@@AAV0@UtagRECT@@@Z 0041c530 f i ServerDesc.obj
 0001:0001b550       ??5@YAAAVCAr@@AAV0@AAUtagRECT@@@Z 0041c550 f i ServerDesc.obj
 0001:0001b570       ?SetKey@CServerDesc@@QAEXK@Z 0041c570 f i ServerDesc.obj
 0001:0001b590       ?size@?$list@PAVCJurisdiction@@V?$allocator@PAVCJurisdiction@@@std@@@std@@QBEIXZ 0041c590 f i ServerDesc.obj
 0001:0001b5a0       ?_Nextnode@?$list@PAVCJurisdiction@@V?$allocator@PAVCJurisdiction@@@std@@@std@@KAAAPAU_Node@?$_List_nod@PAVCJurisdiction@@V?$allocator@PAVCJurisdiction@@@std@@@2@PAU342@@Z 0041c5a0 f i ServerDesc.obj
 0001:0001b5b0       ??0?$allocator@PAVCJurisdiction@@@std@@QAE@XZ 0041c5b0 f i ServerDesc.obj
 0001:0001b5c0       ??0?$allocator@U?$pair@$$CBKPAVCServerDesc@@@std@@@std@@QAE@XZ 0041c5c0 f i ServerDesc.obj
 0001:0001b5d0       ??Econst_iterator@?$list@PAVCJurisdiction@@V?$allocator@PAVCJurisdiction@@@std@@@std@@QAEAAV012@XZ 0041c5d0 f i ServerDesc.obj
 0001:0001b5e0       ??8const_iterator@?$list@PAVCJurisdiction@@V?$allocator@PAVCJurisdiction@@@std@@@std@@QBE_NABV012@@Z 0041c5e0 f i ServerDesc.obj
 0001:0001b5f0       ?_Prevnode@?$list@PAVCJurisdiction@@V?$allocator@PAVCJurisdiction@@@std@@@std@@KAAAPAU_Node@?$_List_nod@PAVCJurisdiction@@V?$allocator@PAVCJurisdiction@@@std@@@2@PAU342@@Z 0041c5f0 f i ServerDesc.obj
 0001:0001b600       ?_Myval@?$list@PAVCJurisdiction@@V?$allocator@PAVCJurisdiction@@@std@@@std@@KAAAPAVCJurisdiction@@PAU_Node@?$_List_nod@PAVCJurisdiction@@V?$allocator@PAVCJurisdiction@@@std@@@2@@Z 0041c600 f i ServerDesc.obj
 0001:0001b610       ??0?$allocator@PAVCJurisdiction@@@std@@QAE@ABV01@@Z 0041c610 f i ServerDesc.obj
 0001:0001b620       ?deallocate@?$allocator@U_Node@?$_List_nod@PAVCJurisdiction@@V?$allocator@PAVCJurisdiction@@@std@@@std@@@std@@QAEXPAU_Node@?$_List_nod@PAVCJurisdiction@@V?$allocator@PAVCJurisdiction@@@std@@@2@I@Z 0041c620 f i ServerDesc.obj
 0001:0001b630       ??0?$allocator@U?$pair@$$CBKPAVCServerDesc@@@std@@@std@@QAE@ABV01@@Z 0041c630 f i ServerDesc.obj
 0001:0001b640       ??0const_iterator@?$list@PAVCJurisdiction@@V?$allocator@PAVCJurisdiction@@@std@@@std@@QAE@PAU_Node@?$_List_nod@PAVCJurisdiction@@V?$allocator@PAVCJurisdiction@@@std@@@2@@Z 0041c640 f i ServerDesc.obj
 0001:0001b650       ?_Mynode@const_iterator@?$list@PAVCJurisdiction@@V?$allocator@PAVCJurisdiction@@@std@@@std@@QBEPAU_Node@?$_List_nod@PAVCJurisdiction@@V?$allocator@PAVCJurisdiction@@@std@@@3@XZ 0041c650 f i ServerDesc.obj
 0001:0001b660       ??Dconst_iterator@?$_Tree@V?$_Tmap_traits@KPAVCServerDesc@@U?$less@K@std@@V?$allocator@U?$pair@$$CBKPAVCServerDesc@@@std@@@3@$0A@@std@@@std@@QBEABU?$pair@$$CBKPAVCServerDesc@@@2@XZ 0041c660 f i ServerDesc.obj
 0001:0001b670       ??0_Node@?$_List_nod@PAVCJurisdiction@@V?$allocator@PAVCJurisdiction@@@std@@@std@@QAE@PAU012@0ABQAVCJurisdiction@@@Z 0041c670 f i ServerDesc.obj
 0001:0001b690       ?max_size@?$allocator@PAVCJurisdiction@@@std@@QBEIXZ 0041c690 f i ServerDesc.obj
 0001:0001b6a0       ??0?$_Tmap_traits@KPAVCServerDesc@@U?$less@K@std@@V?$allocator@U?$pair@$$CBKPAVCServerDesc@@@std@@@3@$0A@@std@@QAE@U?$less@K@1@@Z 0041c6a0 f i ServerDesc.obj
 0001:0001b6b0       ??$?0PAVCJurisdiction@@@?$allocator@PAU_Node@?$_List_nod@PAVCJurisdiction@@V?$allocator@PAVCJurisdiction@@@std@@@std@@@std@@QAE@ABV?$allocator@PAVCJurisdiction@@@1@@Z 0041c6b0 f i ServerDesc.obj
 0001:0001b6c0       ??$_Allocate@U_Node@?$_List_nod@PAVCJurisdiction@@V?$allocator@PAVCJurisdiction@@@std@@@std@@@std@@YAPAU_Node@?$_List_nod@PAVCJurisdiction@@V?$allocator@PAVCJurisdiction@@@std@@@0@IPAU120@@Z 0041c6c0 f i ServerDesc.obj
 0001:0001b6e0       ??$_Destroy@U_Node@?$_List_nod@PAVCJurisdiction@@V?$allocator@PAVCJurisdiction@@@std@@@std@@@std@@YAXPAU_Node@?$_List_nod@PAVCJurisdiction@@V?$allocator@PAVCJurisdiction@@@std@@@0@@Z 0041c6e0 f i ServerDesc.obj
 0001:0001b6f0       ??$_Construct@PAU_Node@?$_List_nod@PAVCJurisdiction@@V?$allocator@PAVCJurisdiction@@@std@@@std@@PAU123@@std@@YAXPAPAU_Node@?$_List_nod@PAVCJurisdiction@@V?$allocator@PAVCJurisdiction@@@std@@@0@ABQAU120@@Z 0041c6f0 f i ServerDesc.obj
 0001:0001b710       ??$_Destroy@PAU_Node@?$_List_nod@PAVCJurisdiction@@V?$allocator@PAVCJurisdiction@@@std@@@std@@@std@@YAXPAPAU_Node@?$_List_nod@PAVCJurisdiction@@V?$allocator@PAVCJurisdiction@@@std@@@0@@Z 0041c710 f i ServerDesc.obj
 0001:0001b720       ??$_Destroy@PAU_Node@?$_Tree_nod@V?$_Tmap_traits@KPAVCServerDesc@@U?$less@K@std@@V?$allocator@U?$pair@$$CBKPAVCServerDesc@@@std@@@3@$0A@@std@@@std@@@std@@YAXPAPAU_Node@?$_Tree_nod@V?$_Tmap_traits@KPAVCServerDesc@@U?$less@K@std@@V?$allocator@U?$pair@$$CBKPAVCServerDesc@@@std@@@3@$0A@@std@@@0@@Z 0041c720 f i ServerDesc.obj
 0001:0001b730       ??$?0PAVCJurisdiction@@@?$allocator@U_Node@?$_List_nod@PAVCJurisdiction@@V?$allocator@PAVCJurisdiction@@@std@@@std@@@std@@QAE@ABV?$allocator@PAVCJurisdiction@@@1@@Z 0041c730 f i ServerDesc.obj
 0001:0001b740       ??$?0U?$pair@$$CBKPAVCServerDesc@@@std@@@?$allocator@PAU_Node@?$_Tree_nod@V?$_Tmap_traits@KPAVCServerDesc@@U?$less@K@std@@V?$allocator@U?$pair@$$CBKPAVCServerDesc@@@std@@@3@$0A@@std@@@std@@@std@@QAE@ABV?$allocator@U?$pair@$$CBKPAVCServerDesc@@@std@@@1@@Z 0041c740 f i ServerDesc.obj
 0001:0001b750       ??$?0U?$pair@$$CBKPAVCServerDesc@@@std@@@?$allocator@U_Node@?$_Tree_nod@V?$_Tmap_traits@KPAVCServerDesc@@U?$less@K@std@@V?$allocator@U?$pair@$$CBKPAVCServerDesc@@@std@@@3@$0A@@std@@@std@@@std@@QAE@ABV?$allocator@U?$pair@$$CBKPAVCServerDesc@@@std@@@1@@Z 0041c750 f i ServerDesc.obj
 0001:0001b760       ??$_Construct@PAU_Node@?$_Tree_nod@V?$_Tmap_traits@KPAVCServerDesc@@U?$less@K@std@@V?$allocator@U?$pair@$$CBKPAVCServerDesc@@@std@@@3@$0A@@std@@@std@@PAU123@@std@@YAXPAPAU_Node@?$_Tree_nod@V?$_Tmap_traits@KPAVCServerDesc@@U?$less@K@std@@V?$allocator@U?$pair@$$CBKPAVCServerDesc@@@std@@@3@$0A@@std@@@0@ABQAU120@@Z 0041c760 f i ServerDesc.obj
 0001:0001b780       ??0CRect@@QAE@XZ           0041c780 f i ServerDesc.obj
 0001:0001b790       ?SetRect@CRect@@QAEXHHHH@Z 0041c790 f i ServerDesc.obj
 0001:0001b7b0       ??6CAr@@QAEAAV0@F@Z        0041c7b0 f i ServerDesc.obj
 0001:0001b7d0       ??0CJurisdiction@@QAE@XZ   0041c7d0 f i ServerDesc.obj
 0001:0001b810       ??_ECJurisdiction@@UAEPAXI@Z 0041c810 f i ServerDesc.obj
 0001:0001b810       ??_GCJurisdiction@@UAEPAXI@Z 0041c810 f i ServerDesc.obj
 0001:0001b830       ??Eiterator@?$list@PAVCJurisdiction@@V?$allocator@PAVCJurisdiction@@@std@@@std@@QAEAAV012@XZ 0041c830 f i ServerDesc.obj
 0001:0001b840       ??9const_iterator@?$list@PAVCJurisdiction@@V?$allocator@PAVCJurisdiction@@@std@@@std@@QBE_NABV012@@Z 0041c840 f i ServerDesc.obj
 0001:0001b860       ??0iterator@?$list@PAVCJurisdiction@@V?$allocator@PAVCJurisdiction@@@std@@@std@@QAE@PAU_Node@?$_List_nod@PAVCJurisdiction@@V?$allocator@PAVCJurisdiction@@@std@@@2@@Z 0041c860 f i ServerDesc.obj
 0001:0001b870       ??Dconst_iterator@?$list@PAVCJurisdiction@@V?$allocator@PAVCJurisdiction@@@std@@@std@@QBEABQAVCJurisdiction@@XZ 0041c870 f i ServerDesc.obj
 0001:0001b880       ??Diterator@?$_Tree@V?$_Tmap_traits@KPAVCServerDesc@@U?$less@K@std@@V?$allocator@U?$pair@$$CBKPAVCServerDesc@@@std@@@3@$0A@@std@@@std@@QBEAAU?$pair@$$CBKPAVCServerDesc@@@2@XZ 0041c880 f i ServerDesc.obj
 0001:0001b890       ?allocate@?$allocator@U_Node@?$_List_nod@PAVCJurisdiction@@V?$allocator@PAVCJurisdiction@@@std@@@std@@@std@@QAEPAU_Node@?$_List_nod@PAVCJurisdiction@@V?$allocator@PAVCJurisdiction@@@std@@@2@I@Z 0041c890 f i ServerDesc.obj
 0001:0001b8b0       ?destroy@?$allocator@U_Node@?$_List_nod@PAVCJurisdiction@@V?$allocator@PAVCJurisdiction@@@std@@@std@@@std@@QAEXPAU_Node@?$_List_nod@PAVCJurisdiction@@V?$allocator@PAVCJurisdiction@@@std@@@2@@Z 0041c8b0 f i ServerDesc.obj
 0001:0001b8c0       ?construct@?$allocator@PAU_Node@?$_List_nod@PAVCJurisdiction@@V?$allocator@PAVCJurisdiction@@@std@@@std@@@std@@QAEXPAPAU_Node@?$_List_nod@PAVCJurisdiction@@V?$allocator@PAVCJurisdiction@@@std@@@2@ABQAU342@@Z 0041c8c0 f i ServerDesc.obj
 0001:0001b8e0       ?destroy@?$allocator@PAU_Node@?$_List_nod@PAVCJurisdiction@@V?$allocator@PAVCJurisdiction@@@std@@@std@@@std@@QAEXPAPAU_Node@?$_List_nod@PAVCJurisdiction@@V?$allocator@PAVCJurisdiction@@@std@@@2@@Z 0041c8e0 f i ServerDesc.obj
 0001:0001b8f0       ?destroy@?$allocator@PAU_Node@?$_Tree_nod@V?$_Tmap_traits@KPAVCServerDesc@@U?$less@K@std@@V?$allocator@U?$pair@$$CBKPAVCServerDesc@@@std@@@3@$0A@@std@@@std@@@std@@QAEXPAPAU_Node@?$_Tree_nod@V?$_Tmap_traits@KPAVCServerDesc@@U?$less@K@std@@V?$allocator@U?$pair@$$CBKPAVCServerDesc@@@std@@@3@$0A@@std@@@2@@Z 0041c8f0 f i ServerDesc.obj
 0001:0001b900       ??Eiterator@?$list@PAVCJurisdiction@@V?$allocator@PAVCJurisdiction@@@std@@@std@@QAE?AV012@H@Z 0041c900 f i ServerDesc.obj
 0001:0001b910       ?max_size@?$list@PAVCJurisdiction@@V?$allocator@PAVCJurisdiction@@@std@@@std@@QBEIXZ 0041c910 f i ServerDesc.obj
 0001:0001b920       ??0?$_List_nod@PAVCJurisdiction@@V?$allocator@PAVCJurisdiction@@@std@@@std@@IAE@V?$allocator@PAVCJurisdiction@@@1@@Z 0041c920 f i ServerDesc.obj
 0001:0001b930       ??0?$_Tree_nod@V?$_Tmap_traits@KPAVCServerDesc@@U?$less@K@std@@V?$allocator@U?$pair@$$CBKPAVCServerDesc@@@std@@@3@$0A@@std@@@std@@IAE@ABU?$less@K@1@V?$allocator@U?$pair@$$CBKPAVCServerDesc@@@std@@@1@@Z 0041c930 f i ServerDesc.obj
 0001:0001b940       ?construct@?$allocator@PAU_Node@?$_Tree_nod@V?$_Tmap_traits@KPAVCServerDesc@@U?$less@K@std@@V?$allocator@U?$pair@$$CBKPAVCServerDesc@@@std@@@3@$0A@@std@@@std@@@std@@QAEXPAPAU_Node@?$_Tree_nod@V?$_Tmap_traits@KPAVCServerDesc@@U?$less@K@std@@V?$allocator@U?$pair@$$CBKPAVCServerDesc@@@std@@@3@$0A@@std@@@2@ABQAU342@@Z 0041c940 f i ServerDesc.obj
 0001:0001b960       ?begin@?$list@PAVCJurisdiction@@V?$allocator@PAVCJurisdiction@@@std@@@std@@QAE?AViterator@12@XZ 0041c960 f i ServerDesc.obj
 0001:0001b970       ?end@?$list@PAVCJurisdiction@@V?$allocator@PAVCJurisdiction@@@std@@@std@@QAE?AViterator@12@XZ 0041c970 f i ServerDesc.obj
 0001:0001b980       ??Diterator@?$list@PAVCJurisdiction@@V?$allocator@PAVCJurisdiction@@@std@@@std@@QBEAAPAVCJurisdiction@@XZ 0041c980 f i ServerDesc.obj
 0001:0001b990       ??Citerator@?$_Tree@V?$_Tmap_traits@KPAVCServerDesc@@U?$less@K@std@@V?$allocator@U?$pair@$$CBKPAVCServerDesc@@@std@@@3@$0A@@std@@@std@@QBEPAU?$pair@$$CBKPAVCServerDesc@@@2@XZ 0041c990 f i ServerDesc.obj
 0001:0001b9a0       ?erase@?$list@PAVCJurisdiction@@V?$allocator@PAVCJurisdiction@@@std@@@std@@QAE?AViterator@12@V312@@Z 0041c9a0 f i ServerDesc.obj
 0001:0001b9e0       ?_Buynode@?$list@PAVCJurisdiction@@V?$allocator@PAVCJurisdiction@@@std@@@std@@IAEPAU_Node@?$_List_nod@PAVCJurisdiction@@V?$allocator@PAVCJurisdiction@@@std@@@2@XZ 0041c9e0 f i ServerDesc.obj
 0001:0001ba00       ?clear@?$list@PAVCJurisdiction@@V?$allocator@PAVCJurisdiction@@@std@@@std@@QAEXXZ 0041ca00 f i ServerDesc.obj
 0001:0001ba40       ?_Buynode@?$list@PAVCJurisdiction@@V?$allocator@PAVCJurisdiction@@@std@@@std@@IAEPAU_Node@?$_List_nod@PAVCJurisdiction@@V?$allocator@PAVCJurisdiction@@@std@@@2@PAU342@0ABQAVCJurisdiction@@@Z 0041ca40 f i ServerDesc.obj
 0001:0001ba70       ??0?$_List_ptr@PAVCJurisdiction@@V?$allocator@PAVCJurisdiction@@@std@@@std@@IAE@V?$allocator@PAVCJurisdiction@@@1@@Z 0041ca70 f i ServerDesc.obj
 0001:0001ba80       ?_Buynode@?$_Tree@V?$_Tmap_traits@KPAVCServerDesc@@U?$less@K@std@@V?$allocator@U?$pair@$$CBKPAVCServerDesc@@@std@@@3@$0A@@std@@@std@@IAEPAU_Node@?$_Tree_nod@V?$_Tmap_traits@KPAVCServerDesc@@U?$less@K@std@@V?$allocator@U?$pair@$$CBKPAVCServerDesc@@@std@@@3@$0A@@std@@@2@XZ 0041ca80 f i ServerDesc.obj
 0001:0001bac0       ??0?$_Tree_ptr@V?$_Tmap_traits@KPAVCServerDesc@@U?$less@K@std@@V?$allocator@U?$pair@$$CBKPAVCServerDesc@@@std@@@3@$0A@@std@@@std@@IAE@ABU?$less@K@1@V?$allocator@U?$pair@$$CBKPAVCServerDesc@@@std@@@1@@Z 0041cac0 f i ServerDesc.obj
 0001:0001bad0       ?IsUnderJurisdiction@CServerDesc@@QAEHKABU_D3DVECTOR@@@Z 0041cad0 f   ServerDesc.obj
 0001:0001bb00       ?IsIntersected@CServerDesc@@QAEHK@Z 0041cb00 f   ServerDesc.obj
 0001:0001bb30       ?front@?$list@PAVCJurisdiction@@V?$allocator@PAVCJurisdiction@@@std@@@std@@QAEAAPAVCJurisdiction@@XZ 0041cb30 f i ServerDesc.obj
 0001:0001bb40       ?pop_front@?$list@PAVCJurisdiction@@V?$allocator@PAVCJurisdiction@@@std@@@std@@QAEXXZ 0041cb40 f i ServerDesc.obj
 0001:0001bb70       ?_Tidy@?$list@PAVCJurisdiction@@V?$allocator@PAVCJurisdiction@@@std@@@std@@IAEXXZ 0041cb70 f i ServerDesc.obj
 0001:0001bb90       ??0?$_List_val@PAVCJurisdiction@@V?$allocator@PAVCJurisdiction@@@std@@@std@@IAE@V?$allocator@PAVCJurisdiction@@@1@@Z 0041cb90 f i ServerDesc.obj
 0001:0001bba0       ?_Init@?$_Tree@V?$_Tmap_traits@KPAVCServerDesc@@U?$less@K@std@@V?$allocator@U?$pair@$$CBKPAVCServerDesc@@@std@@@3@$0A@@std@@@std@@IAEXXZ 0041cba0 f i ServerDesc.obj
 0001:0001bbd0       ??0?$_Tree_val@V?$_Tmap_traits@KPAVCServerDesc@@U?$less@K@std@@V?$allocator@U?$pair@$$CBKPAVCServerDesc@@@std@@@3@$0A@@std@@@std@@IAE@ABU?$less@K@1@V?$allocator@U?$pair@$$CBKPAVCServerDesc@@@std@@@1@@Z 0041cbd0 f i ServerDesc.obj
 0001:0001bbe0       ?Free@CServerDescArray@@QAEXXZ 0041cbe0 f   ServerDesc.obj
 0001:0001bcb0       ?GetAt@CServerDescArray@@QAEPAVCServerDesc@@K@Z 0041ccb0 f   ServerDesc.obj
 0001:0001bce0       ??0?$list@PAVCJurisdiction@@V?$allocator@PAVCJurisdiction@@@std@@@std@@QAE@XZ 0041cce0 f i ServerDesc.obj
 0001:0001bd00       ??1?$list@PAVCJurisdiction@@V?$allocator@PAVCJurisdiction@@@std@@@std@@QAE@XZ 0041cd00 f i ServerDesc.obj
 0001:0001bd20       ??0?$_Tree@V?$_Tmap_traits@KPAVCServerDesc@@U?$less@K@std@@V?$allocator@U?$pair@$$CBKPAVCServerDesc@@@std@@@3@$0A@@std@@@std@@QAE@ABU?$less@K@1@ABV?$allocator@U?$pair@$$CBKPAVCServerDesc@@@std@@@1@@Z 0041cd20 f i ServerDesc.obj
 0001:0001bd50       ??0CServerDesc@@QAE@XZ     0041cd50 f   ServerDesc.obj
 0001:0001bd80       ??1CServerDesc@@UAE@XZ     0041cd80 f   ServerDesc.obj
 0001:0001be30       ??_ECServerDesc@@UAEPAXI@Z 0041ce30 f i ServerDesc.obj
 0001:0001be30       ??_GCServerDesc@@UAEPAXI@Z 0041ce30 f i ServerDesc.obj
 0001:0001be50       ?_Incsize@?$list@PAVCJurisdiction@@V?$allocator@PAVCJurisdiction@@@std@@@std@@IAEXI@Z 0041ce50 f i ServerDesc.obj
 0001:0001bef0       ?_Insert@?$list@PAVCJurisdiction@@V?$allocator@PAVCJurisdiction@@@std@@@std@@QAEXViterator@12@ABQAVCJurisdiction@@@Z 0041cef0 f i ServerDesc.obj
 0001:0001bf30       ?push_back@?$list@PAVCJurisdiction@@V?$allocator@PAVCJurisdiction@@@std@@@std@@QAEXABQAVCJurisdiction@@@Z 0041cf30 f i ServerDesc.obj
 0001:0001bf70       ?_Tidy@?$_Tree@V?$_Tmap_traits@KPAVCServerDesc@@U?$less@K@std@@V?$allocator@U?$pair@$$CBKPAVCServerDesc@@@std@@@3@$0A@@std@@@std@@IAEXXZ 0041cf70 f i ServerDesc.obj
 0001:0001bfa0       ?Serialize@CServerDesc@@QAEXAAVCAr@@@Z 0041cfa0 f   ServerDesc.obj
 0001:0001c1f0       ??1?$_Tree@V?$_Tmap_traits@KPAVCServerDesc@@U?$less@K@std@@V?$allocator@U?$pair@$$CBKPAVCServerDesc@@@std@@@3@$0A@@std@@@std@@QAE@XZ 0041d1f0 f i ServerDesc.obj
 0001:0001c220       ??1?$map@KPAVCServerDesc@@U?$less@K@std@@V?$allocator@U?$pair@$$CBKPAVCServerDesc@@@std@@@3@@std@@QAE@XZ 0041d220 f i ServerDesc.obj
 0001:0001c250       ??1CServerDescArray@@UAE@XZ 0041d250 f   ServerDesc.obj
 0001:0001c2e0       ??0?$map@KPAVCServerDesc@@U?$less@K@std@@V?$allocator@U?$pair@$$CBKPAVCServerDesc@@@std@@@3@@std@@QAE@XZ 0041d2e0 f i ServerDesc.obj
 0001:0001c310       ??0CServerDescArray@@QAE@XZ 0041d310 f   ServerDesc.obj
 0001:0001c360       ??_ECServerDescArray@@UAEPAXI@Z 0041d360 f i ServerDesc.obj
 0001:0001c360       ??_GCServerDescArray@@UAEPAXI@Z 0041d360 f i ServerDesc.obj
 0001:0001c380       ?DXUtil_GetDXSDKMediaPathCch@@YAJPADH@Z 0041d380 f   dxutil.obj
 0001:0001c470       ?DXUtil_WriteStringRegKey@@YAJPAUHKEY__@@PAD1@Z 0041d470 f   dxutil.obj
 0001:0001c4b0       ?DXUtil_ReadIntRegKey@@YAJPAUHKEY__@@PADPAKK@Z 0041d4b0 f   dxutil.obj
 0001:0001c510       ?DXUtil_WriteIntRegKey@@YAJPAUHKEY__@@PADK@Z 0041d510 f   dxutil.obj
 0001:0001c540       ?DXUtil_ReadBoolRegKey@@YAJPAUHKEY__@@PADPAHH@Z 0041d540 f   dxutil.obj
 0001:0001c5a0       ?DXUtil_WriteBoolRegKey@@YAJPAUHKEY__@@PADH@Z 0041d5a0 f   dxutil.obj
 0001:0001c5d0       ?DXUtil_ReadGuidRegKey@@YAJPAUHKEY__@@PADPAU_GUID@@AAU2@@Z 0041d5d0 f   dxutil.obj
 0001:0001c640       ?DXUtil_WriteGuidRegKey@@YAJPAUHKEY__@@PADU_GUID@@@Z 0041d640 f   dxutil.obj
 0001:0001c6a0       ?DXUtil_Timer@@YGMW4TIMER_COMMAND@@@Z 0041d6a0 f   dxutil.obj
 0001:0001ca70       __tcsncpy                  0041da70 f i dxutil.obj
 0001:0001ca80       __tcsrchr                  0041da80 f i dxutil.obj
 0001:0001ca90       ?DXUtil_ConvertAnsiStringToWideCch@@YAJPAGPBDH@Z 0041da90 f   dxutil.obj
 0001:0001cae0       ?DXUtil_ConvertWideStringToAnsiCch@@YAJPADPBGH@Z 0041dae0 f   dxutil.obj
 0001:0001cb30       ?DXUtil_ConvertGenericStringToAnsiCch@@YAJPADPBDH@Z 0041db30 f   dxutil.obj
 0001:0001cb70       ?DXUtil_ConvertGenericStringToWideCch@@YAJPAGPBDH@Z 0041db70 f   dxutil.obj
 0001:0001cba0       ?DXUtil_ConvertAnsiStringToGenericCch@@YAJPADPBDH@Z 0041dba0 f   dxutil.obj
 0001:0001cbe0       ?DXUtil_ConvertWideStringToGenericCch@@YAJPADPBGH@Z 0041dbe0 f   dxutil.obj
 0001:0001cc10       ?DXUtil_LaunchReadme@@YAXPAUHWND__@@PAD@Z 0041dc10 f   dxutil.obj
 0001:0001cf90       ?DXUtil_Trace@@YAXPADZZ    0041df90 f   dxutil.obj
 0001:0001cfa0       ?DXUtil_ConvertStringToGUID@@YAJPBDPAU_GUID@@@Z 0041dfa0 f   dxutil.obj
 0001:0001d060       ?DXUtil_ConvertGUIDToStringCch@@YAJPBU_GUID@@PADH@Z 0041e060 f   dxutil.obj
 0001:0001d0d0       ??0CArrayList@@QAE@W4ArrayListType@@I@Z 0041e0d0 f   dxutil.obj
 0001:0001d100       ??1CArrayList@@QAE@XZ      0041e100 f   dxutil.obj
 0001:0001d110       ?Add@CArrayList@@QAEJPAX@Z 0041e110 f   dxutil.obj
 0001:0001d200       ?Remove@CArrayList@@QAEXI@Z 0041e200 f   dxutil.obj
 0001:0001d240       ?GetPtr@CArrayList@@QAEPAXI@Z 0041e240 f   dxutil.obj
 0001:0001d260       ?Contains@CArrayList@@QAE_NPAX@Z 0041e260 f   dxutil.obj
 0001:0001d2b0       ?DXUtil_ConvertAnsiStringToWideCb@@YAJPAGPBDH@Z 0041e2b0 f   dxutil.obj
 0001:0001d300       ?DXUtil_ConvertWideStringToAnsiCb@@YAJPADPBGH@Z 0041e300 f   dxutil.obj
 0001:0001d350       ?DXUtil_ConvertGenericStringToAnsiCb@@YAJPADPBDH@Z 0041e350 f   dxutil.obj
 0001:0001d390       ?DXUtil_ConvertGenericStringToWideCb@@YAJPAGPBDH@Z 0041e390 f   dxutil.obj
 0001:0001d3d0       ?DXUtil_ConvertAnsiStringToGenericCb@@YAJPADPBDH@Z 0041e3d0 f   dxutil.obj
 0001:0001d410       ?DXUtil_ConvertWideStringToGenericCb@@YAJPADPBGH@Z 0041e410 f   dxutil.obj
 0001:0001d440       ?DXUtil_ConvertGUIDToStringCb@@YAJPBU_GUID@@PADH@Z 0041e440 f   dxutil.obj
 0001:0001d450       ?DXUtil_GetDXSDKMediaPathCb@@YAJPADH@Z 0041e450 f   dxutil.obj
 0001:0001d460       ?DXUtil_FindMediaFileCch@@YAJPADH0@Z 0041e460 f   dxutil.obj
 0001:0001d620       ?DXUtil_ReadStringRegKeyCch@@YAJPAUHKEY__@@PAD1K1@Z 0041e620 f   dxutil.obj
 0001:0001d680       ?DXUtil_ReadStringRegKeyCb@@YAJPAUHKEY__@@PAD1K1@Z 0041e680 f   dxutil.obj
 0001:0001d690       ?DXUtil_FindMediaFileCb@@YAJPADH0@Z 0041e690 f   dxutil.obj
 0001:0001d6a0       ?OUTPUTDEBUGSTRING@@YAXPBDZZ 0041e6a0 f   debug.obj
 0001:0001d710       ?MakeFileNameDate@@YAPBDPBD@Z 0041e710 f   debug.obj
 0001:0001d970       ?DEBUGOUT2@@YAXPBD0@Z      0041e970 f   debug.obj
 0001:0001d9d0       ?FILEOUT@@YAXPBD0ZZ        0041e9d0 f   debug.obj
 0001:0001d9f0       ?WriteLog@@YAXPBDZZ        0041e9f0 f   debug.obj
 0001:0001da10       ?WriteError@@YAXPBDZZ      0041ea10 f   debug.obj
 0001:0001da30       ?Close@CFileIO@@UAEHXZ     0041ea30 f   file.obj
 0001:0001da60       ?Open@CFileIO@@UAEHPBDPAD@Z 0041ea60 f   file.obj
 0001:0001da90       ?Read@CFileIO@@UAEPAXXZ    0041ea90 f   file.obj
 0001:0001daf0       ??0CFileFinder@@QAE@XZ     0041eaf0 f   file.obj
 0001:0001db00       ??1CFileFinder@@QAE@XZ     0041eb00 f   file.obj
 0001:0001db10       ?WildCmp@CFileFinder@@QAEHPBD0@Z 0041eb10 f   file.obj
 0001:0001dbb0       ?FindFirst@CFileFinder@@QAEHPBDPAU_finddata_t@@@Z 0041ebb0 f   file.obj
 0001:0001dbe0       ?FindNext@CFileFinder@@QAEHPAU_finddata_t@@@Z 0041ebe0 f   file.obj
 0001:0001dc00       ?FindClose@CFileFinder@@QAEXXZ 0041ec00 f   file.obj
 0001:0001dc20       ?_mbstowcsz@ATL@@YAHPAGPBDK@Z 0041ec20 f i file.obj
 0001:0001dc70       ?Write@CFileIO@@QAEIPAXII@Z 0041ec70 f i file.obj
 0001:0001dc90       ?PutWideString@CFileIO@@QAEHPBD@Z 0041ec90 f   file.obj
 0001:0001dd30       ?iswhite@@YAHG@Z           0041ed30 f i scanner.obj
 0001:0001dd50       ?isdelim@@YAHG@Z           0041ed50 f i scanner.obj
 0001:0001dd90       ?IsComposibleTh@@YA_NEEH@Z 0041ed90 f   scanner.obj
 0001:0001ddd0       ?CharNextTh@@YAPBDPBD@Z    0041edd0 f   scanner.obj
 0001:0001de40       ?CharNextVt@@YAPBDPBD@Z    0041ee40 f   scanner.obj
 0001:0001dea0       ?CharNextEx@@YAPBDPBDG@Z   0041eea0 f   scanner.obj
 0001:0001def0       ?IsTone@@YAHG@Z            0041eef0 f   scanner.obj
 0001:0001df20       ?ComposeTone@@YAGGH@Z      0041ef20 f   scanner.obj
 0001:0001df60       ?GetTone@@YA_NGPAH0@Z      0041ef60 f   scanner.obj
 0001:0001dfc0       ?ComposeString@@YAXPAG0H@Z 0041efc0 f   scanner.obj
 0001:0001e040       ?DecomposeString@@YAXPAG0H@Z 0041f040 f   scanner.obj
 0001:0001e0c0       ?IsCyrillic@@YAHD@Z        0041f0c0 f   scanner.obj
 0001:0001e0e0       ?WideCharToMultiByteEx@@YAHIKPBGHPADHPBDPAH@Z 0041f0e0 f   scanner.obj
 0001:0001e1e0       ?MultiByteToWideCharEx@@YAHIKPBDHPAGH@Z 0041f1e0 f   scanner.obj
 0001:0001e280       ?Free@CScanner@@QAEXXZ     0041f280 f   scanner.obj
 0001:0001e2b0       ?Read@CScanner@@IAEHPAVCFileIO@@H@Z 0041f2b0 f   scanner.obj
 0001:0001e370       ?SetProg@CScanner@@QAEXPAX@Z 0041f370 f   scanner.obj
 0001:0001e390       ?GetLineNum@CScanner@@UAEHPAX@Z 0041f390 f   scanner.obj
 0001:0001e3c0       ?PutBack@CScanner@@UAEXXZ  0041f3c0 f   scanner.obj
 0001:0001e3f0       ?StringLowercase@?$ChTraitsCRT@D@ATL@@SAPADPAD@Z 0041f3f0 f i scanner.obj
 0001:0001e400       ??0CFileIO@@QAE@XZ         0041f400 f i scanner.obj
 0001:0001e410       ??1CFileIO@@UAE@XZ         0041f410 f i scanner.obj
 0001:0001e420       ?Flush@CFileIO@@UAEHXZ     0041f420 f i scanner.obj
 0001:0001e430       ?GetC@CFileIO@@UAEDXZ      0041f430 f i scanner.obj
 0001:0001e440       ?GetW@CFileIO@@UAEGXZ      0041f440 f i scanner.obj
 0001:0001e450       ?GetDW@CFileIO@@UAEKXZ     0041f450 f i scanner.obj
 0001:0001e470       ?Tell@CFileIO@@UAEJXZ      0041f470 f i scanner.obj
 0001:0001e480       ?Seek@CFileIO@@UAEHJH@Z    0041f480 f i scanner.obj
 0001:0001e4a0       ?Read@CFileIO@@UAEIPAXII@Z 0041f4a0 f i scanner.obj
 0001:0001e4c0       ??_GCFileIO@@UAEPAXI@Z     0041f4c0 f i scanner.obj
 0001:0001e4c0       ??_ECFileIO@@UAEPAXI@Z     0041f4c0 f i scanner.obj
 0001:0001e4f0       ?GetFormattedLength@?$ChTraitsCRT@D@ATL@@SAHPBDPAD@Z 0041f4f0 f i scanner.obj
 0001:0001e500       ?Format@?$ChTraitsCRT@D@ATL@@SAHPADPBD0@Z 0041f500 f i scanner.obj
 0001:0001e510       ?GetLength@CFileIO@@UAEJXZ 0041f510 f i scanner.obj
 0001:0001e530       ?IsEmpty@?$CSimpleStringT@D$0A@@ATL@@QBE_NXZ 0041f530 f i scanner.obj
 0001:0001e540       ??0CScanner@@QAE@H@Z       0041f540 f   scanner.obj
 0001:0001e5b0       ?SetMark@CScanner@@UAEXXZ  0041f5b0 f i scanner.obj
 0001:0001e5c0       ?GoMark@CScanner@@UAEXXZ   0041f5c0 f i scanner.obj
 0001:0001e5d0       ??0CScanner@@QAE@PAXH@Z    0041f5d0 f   scanner.obj
 0001:0001e640       ??1CScanner@@UAE@XZ        0041f640 f   scanner.obj
 0001:0001e6b0       ?GetInt64@CScanner@@QAE_JH@Z 0041f6b0 f   scanner.obj
 0001:0001e780       ?GetFloat@CScanner@@QAEMH@Z 0041f780 f   scanner.obj
 0001:0001e820       ??_GCScanner@@UAEPAXI@Z    0041f820 f i scanner.obj
 0001:0001e820       ??_ECScanner@@UAEPAXI@Z    0041f820 f i scanner.obj
 0001:0001e840       ?MakeLower@?$CStringT@DV?$StrTraitMFC@DV?$ChTraitsCRT@D@ATL@@@@@ATL@@QAEAAV12@XZ 0041f840 f i scanner.obj
 0001:0001e8a0       ?FormatV@?$CStringT@DV?$StrTraitMFC@DV?$ChTraitsCRT@D@ATL@@@@@ATL@@QAEXPBDPAD@Z 0041f8a0 f i scanner.obj
 0001:0001e920       ?GetNumber@CScanner@@QAEHH@Z 0041f920 f   scanner.obj
 0001:0001ea70       ?GetHex@CScanner@@QAEKH@Z  0041fa70 f   scanner.obj
 0001:0001eb20       ?GetSerialNumber@CScanner@@QAEKH@Z 0041fb20 f   scanner.obj
 0001:0001eb30       ?Format@?$CStringT@DV?$StrTraitMFC@DV?$ChTraitsCRT@D@ATL@@@@@ATL@@QAAXPBDZZ 0041fb30 f i scanner.obj
 0001:0001eb50       ?GetLastFull@CScanner@@QAEXXZ 0041fb50 f   scanner.obj
 0001:0001ec00       ?GetToken@CScanner@@UAEHH@Z 0041fc00 f   scanner.obj
 0001:0001f300       ?Load@CScanner@@QAEHPBDH@Z 00420300 f   scanner.obj
 0001:0001f440       ?Load_FileIO@CScanner@@QAEHPBDH@Z 00420440 f   scanner.obj
 0001:0001f580       ?GetTime@CTimer@@QAENXZ    00420580 f   timer.obj
 0001:0001f5a0       ?Set@CTimer@@QAEXMH@Z      004205a0 f   timer.obj
 0001:0001f5e0       ?Reset@CTimer@@UAEXXZ      004205e0 f   timer.obj
 0001:0001f620       ?Over@CTimer@@UAEHXZ       00420620 f   timer.obj
 0001:0001f680       ?GetLeftTime@CTimer@@QAENXZ 00420680 f   timer.obj
 0001:0001f6b0       ?GetInterval@CTimer@@QAEMXZ 004206b0 f   timer.obj
 0001:0001f6c0       ??RCTimer@@QAEXXZ          004206c0 f   timer.obj
 0001:0001f6d0       ??RCTimer@@QAEXN@Z         004206d0 f   timer.obj
 0001:0001f720       ?GetSunPercent@CGameTimer@@QAEHXZ 00420720 f   timer.obj
 0001:0001f7a0       ?GetMoonPercent@CGameTimer@@QAEHXZ 004207a0 f   timer.obj
 0001:0001f7b0       ??1CGameTimer@@QAE@XZ      004207b0 f   timer.obj
 0001:0001f7c0       ?SetCurrentTime@CGameTimer@@QAEXN@Z 004207c0 f   timer.obj
 0001:0001f7f0       ?GetTickCount@CGameTimer@@QAENXZ 004207f0 f   timer.obj
 0001:0001f820       ?SetCurrentTime@CGameTimer@@QAEXHH@Z 00420820 f   timer.obj
 0001:0001f860       ?Compute@CGameTimer@@QAEXXZ 00420860 f   timer.obj
 0001:0001f8d0       ?SetTime@CGameTimer@@QAEXHHHH@Z 004208d0 f   timer.obj
 0001:0001f8f0       ?Set@CSkipTimer@@QAEXM@Z   004208f0 f   timer.obj
 0001:0001f930       ?Over@CSkipTimer@@UAEHXZ   00420930 f   timer.obj
 0001:0001f9a0       ?IsNeedSkip@CSkipTimer@@QAEHXZ 004209a0 f   timer.obj
 0001:0001f9e0       ?Skip@CSkipTimer@@QAEXXZ   004209e0 f   timer.obj
 0001:0001f9f0       ?IsMaxSkip@CSkipTimer@@QAEHXZ 004209f0 f   timer.obj
 0001:0001fa50       ?IsNight@CDate@@QAEHXZ     00420a50 f   timer.obj
 0001:0001fa70       ?GetDay@CDate@@QAEHXZ      00420a70 f   timer.obj
 0001:0001fa90       ?ComputeShade@CDate@@QAEHH@Z 00420a90 f   timer.obj
 0001:0001faf0       ?GetTimeColor@CDate@@QAEXPAUtagTIMECOLOR@@@Z 00420af0 f   timer.obj
 0001:0001fba0       ?Process@CDate@@QAEXXZ     00420ba0 f   timer.obj
 0001:0001fc20       ?InitFST@@YAXXZ            00420c20 f   timer.obj
 0001:0001fc40       ?SetFrameSkip@@YAXH@Z      00420c40 f   timer.obj
 0001:0001fc70       ?GetFrameSkip@@YAHXZ       00420c70 f   timer.obj
 0001:0001fcc0       ?IsDrawTiming@@YAHXZ       00420cc0 f   timer.obj
 0001:0001fd20       ?SetFST@@YAXXZ             00420d20 f   timer.obj
 0001:0001fdb0       ??1CSkipTimer@@UAE@XZ      00420db0 f i timer.obj
 0001:0001fdc0       ??0CTimer@@QAE@XZ          00420dc0 f   timer.obj
 0001:0001fe00       ??0CTimer@@QAE@M@Z         00420e00 f   timer.obj
 0001:0001fe40       ??0CTimer@@QAE@MH@Z        00420e40 f   timer.obj
 0001:0001fe90       ??0CGameTimer@@QAE@XZ      00420e90 f   timer.obj
 0001:0001fee0       ??0CGameTimer@@QAE@N@Z     00420ee0 f   timer.obj
 0001:0001ff30       ??1CDate@@QAE@XZ           00420f30 f   timer.obj
 0001:0001ff40       ??0CSkipTimer@@QAE@XZ      00420f40 f i timer.obj
 0001:0001ff80       ??_ECSkipTimer@@UAEPAXI@Z  00420f80 f i timer.obj
 0001:0001ff80       ??_GCSkipTimer@@UAEPAXI@Z  00420f80 f i timer.obj
 0001:0001ffa0       ??0CDate@@QAE@XZ           00420fa0 f   timer.obj
 0001:00020000       ??0CDate@@QAE@HHHHHHH@Z    00421000 f   timer.obj
 0001:000200a0       ?xRandomF@@YAMM@Z          004210a0 f   xutil.obj
 0001:000200c0       ?xSRand@@YAXK@Z            004210c0 f   xutil.obj
 0001:000200d0       ?Error@@YAPBDPBDZZ         004210d0 f   xutil.obj
 0001:00020190       ?GetFileName@@YAXPBDPAD@Z  00421190 f   xutil.obj
 0001:000201e0       ?GetFileTitle@@YAXPBDPAD@Z 004211e0 f   xutil.obj
 0001:00020220       ?GetFileExt@@YAXPBDPAD@Z   00421220 f   xutil.obj
 0001:00020260       ?GetFilePath@@YAXPBDPAD@Z  00421260 f   xutil.obj
 0001:000202b0       ?StringFind@@YAHPBDH@Z     004212b0 f   xutil.obj
 0001:000202d0       ?MakeEven@@YAXAAJ@Z        004212d0 f   xutil.obj
 0001:000202e0       ?SetLanguageInfo@@YAXHH@Z  004212e0 f   xutil.obj
 0001:00020300       ?GetLanguage@@YAHXZ        00421300 f   xutil.obj
 0001:00020310       ?GetSubLanguage@@YAHXZ     00421310 f   xutil.obj
 0001:00020320       ?SetUse2ndPassWord@@YAXH@Z 00421320 f   xutil.obj
 0001:00020330       ?IsUse2ndPassWord@@YAHXZ   00421330 f   xutil.obj
 0001:00020340       __tcsinc                   00421340 f i xutil.obj
 0001:00020350       ?xRand@@YAKXZ              00421350 f i xutil.obj
 0001:00020370       ?xRandom@@YAKK@Z           00421370 f i xutil.obj
 0001:00020390       ?xRandom@@YAKKK@Z          00421390 f   xutil.obj
 0001:000203d0       ?StringTrimRight@@YAXPAD@Z 004213d0 f   xutil.obj
 0001:00020420       ?Insert@?$CStringT@DV?$StrTraitMFC@DV?$ChTraitsCRT@D@ATL@@@@@ATL@@QAEHHD@Z 00421420 f i xutil.obj
 0001:000204a0       ?GetNumberFormatEx@@YA?AV?$CStringT@DV?$StrTraitMFC@DV?$ChTraitsCRT@D@ATL@@@@@ATL@@PBD@Z 004214a0 f   xutil.obj
 0001:000206a0       ?_AddErrorMsg@@YAXPBD0@Z   004216a0 f   exceptionhandler.obj
 0001:00020750       ?CrashHandlerExceptionFilter@@YGJPAU_EXCEPTION_POINTERS@@@Z 00421750 f   exceptionhandler.obj
 0001:000209b0       ?InitEH@@YAXXZ             004219b0 f   exceptionhandler.obj
 0001:000209e4       _ntohs@4                   004219e4 f   ws2_32:WS2_32.dll
 0001:000209ea       _htons@4                   004219ea f   ws2_32:WS2_32.dll
 0001:000209f0       _closesocket@4             004219f0 f   ws2_32:WS2_32.dll
 0001:000209f6       _shutdown@8                004219f6 f   ws2_32:WS2_32.dll
 0001:000209fc       _WSASetLastError@4         004219fc f   ws2_32:WS2_32.dll
 0001:00020a02       _WSAGetLastError@0         00421a02 f   ws2_32:WS2_32.dll
 0001:00020a08       _connect@12                00421a08 f   ws2_32:WS2_32.dll
 0001:00020a0e       _gethostbyname@4           00421a0e f   ws2_32:WS2_32.dll
 0001:00020a14       _inet_addr@4               00421a14 f   ws2_32:WS2_32.dll
 0001:00020a1a       _WSARecv@28                00421a1a f   ws2_32:WS2_32.dll
 0001:00020a20       _getpeername@12            00421a20 f   ws2_32:WS2_32.dll
 0001:00020a26       _WSASend@28                00421a26 f   ws2_32:WS2_32.dll
 0001:00020a2c       _WSACloseEvent@4           00421a2c f   ws2_32:WS2_32.dll
 0001:00020a32       _WSACreateEvent@0          00421a32 f   ws2_32:WS2_32.dll
 0001:00020a38       _WSAStartup@8              00421a38 f   ws2_32:WS2_32.dll
 0001:00020a3e       _socket@12                 00421a3e f   ws2_32:WS2_32.dll
 0001:00020a44       _WSACleanup@0              00421a44 f   ws2_32:WS2_32.dll
 0001:00020a4a       _WSAResetEvent@4           00421a4a f   ws2_32:WS2_32.dll
 0001:00020a50       _WSAWaitForMultipleEvents@20 00421a50 f   ws2_32:WS2_32.dll
 0001:00020a56       _WSASetEvent@4             00421a56 f   ws2_32:WS2_32.dll
 0001:00020a5c       _setsockopt@20             00421a5c f   ws2_32:WS2_32.dll
 0001:00020a62       _listen@8                  00421a62 f   ws2_32:WS2_32.dll
 0001:00020a68       _WSAEventSelect@12         00421a68 f   ws2_32:WS2_32.dll
 0001:00020a6e       _WSAAccept@20              00421a6e f   ws2_32:WS2_32.dll
 0001:00020a74       _WSAEnumNetworkEvents@12   00421a74 f   ws2_32:WS2_32.dll
 0001:00020a7a       _gethostname@8             00421a7a f   ws2_32:WS2_32.dll
 0001:00020a80       _bind@12                   00421a80 f   ws2_32:WS2_32.dll
 0001:00020a86       _htonl@4                   00421a86 f   ws2_32:WS2_32.dll
 0001:00020a8c       _WSASocketA@24             00421a8c f   ws2_32:WS2_32.dll
 0001:00020a92       _timeGetTime@0             00421a92 f   winmm:WINMM.dll
 0001:00020a98       _InterlockedExchange@8     00421a98 f   kernel32:KERNEL32.dll
 0001:00020a9e       _GetACP@0                  00421a9e f   kernel32:KERNEL32.dll
 0001:00020aa4       _GetLocaleInfoA@16         00421aa4 f   kernel32:KERNEL32.dll
 0001:00020aaa       _GetThreadLocale@0         00421aaa f   kernel32:KERNEL32.dll
 0001:00020ab0       _GetVersionExA@4           00421ab0 f   kernel32:KERNEL32.dll
 0001:00020ab6       _SizeofResource@8          00421ab6 f   kernel32:KERNEL32.dll
 0001:00020abc       _LockResource@4            00421abc f   kernel32:KERNEL32.dll
 0001:00020ac2       _LoadResource@8            00421ac2 f   kernel32:KERNEL32.dll
 0001:00020ac8       _FindResourceA@12          00421ac8 f   kernel32:KERNEL32.dll
 0001:00020ace       _WideCharToMultiByte@32    00421ace f   kernel32:KERNEL32.dll
 0001:00020ad4       _EnterCriticalSection@4    00421ad4 f   kernel32:KERNEL32.dll
 0001:00020ada       _LeaveCriticalSection@4    00421ada f   kernel32:KERNEL32.dll
 0001:00020ae0       _InitializeCriticalSection@4 00421ae0 f   kernel32:KERNEL32.dll
 0001:00020ae6       _DeleteCriticalSection@4   00421ae6 f   kernel32:KERNEL32.dll
 0001:00020aec       _GetTickCount@0            00421aec f   kernel32:KERNEL32.dll
 0001:00020af2       _InterlockedIncrement@4    00421af2 f   kernel32:KERNEL32.dll
 0001:00020af8       _MultiByteToWideChar@24    00421af8 f   kernel32:KERNEL32.dll
 0001:00020afe       _GetLastError@0            00421afe f   kernel32:KERNEL32.dll
 0001:00020b04       _GetVersion@0              00421b04 f   kernel32:KERNEL32.dll
 0001:00020b0a       _lstrcmpiA@8               00421b0a f   kernel32:KERNEL32.dll
 0001:00020b10       _lstrlenW@4                00421b10 f   kernel32:KERNEL32.dll
 0001:00020b16       _lstrcmpiW@8               00421b16 f   kernel32:KERNEL32.dll
 0001:00020b1c       _lstrlenA@4                00421b1c f   kernel32:KERNEL32.dll
 0001:00020b22       _CompareStringA@24         00421b22 f   kernel32:KERNEL32.dll
 0001:00020b28       _CompareStringW@24         00421b28 f   kernel32:KERNEL32.dll
 0001:00020b2e       _GetEnvironmentVariableA@12 00421b2e f   kernel32:KERNEL32.dll
 0001:00020b34       _GetEnvironmentVariableW@12 00421b34 f   kernel32:KERNEL32.dll
 0001:00020b3a       _GetStringTypeExA@20       00421b3a f   kernel32:KERNEL32.dll
 0001:00020b40       _GetStringTypeExW@20       00421b40 f   kernel32:KERNEL32.dll
 0001:00020b46       _CloseHandle@4             00421b46 f   kernel32:KERNEL32.dll
 0001:00020b4c       _WaitForSingleObject@8     00421b4c f   kernel32:KERNEL32.dll
 0001:00020b52       _TerminateProcess@8        00421b52 f   kernel32:KERNEL32.dll
 0001:00020b58       _GetExitCodeProcess@8      00421b58 f   kernel32:KERNEL32.dll
 0001:00020b5e       _OpenProcess@12            00421b5e f   kernel32:KERNEL32.dll
 0001:00020b64       _Process32Next@8           00421b64 f   kernel32:KERNEL32.dll
 0001:00020b6a       _Process32First@8          00421b6a f   kernel32:KERNEL32.dll
 0001:00020b70       _CreateToolhelp32Snapshot@8 00421b70 f   kernel32:KERNEL32.dll
 0001:00020b76       _IsDBCSLeadByte@4          00421b76 f   kernel32:KERNEL32.dll
 0001:00020b7c       _VirtualAlloc@16           00421b7c f   kernel32:KERNEL32.dll
 0001:00020b82       _InitializeCriticalSectionAndSpinCount@8 00421b82 f   kernel32:KERNEL32.dll
 0001:00020b88       _InterlockedDecrement@4    00421b88 f   kernel32:KERNEL32.dll
 0001:00020b8e       _SetEvent@4                00421b8e f   kernel32:KERNEL32.dll
 0001:00020b94       _WaitForMultipleObjects@16 00421b94 f   kernel32:KERNEL32.dll
 0001:00020b9a       _SetThreadPriority@8       00421b9a f   kernel32:KERNEL32.dll
 0001:00020ba0       _CreateEventA@16           00421ba0 f   kernel32:KERNEL32.dll
 0001:00020ba6       _VirtualFree@12            00421ba6 f   kernel32:KERNEL32.dll
 0001:00020bac       _GetSystemInfo@4           00421bac f   kernel32:KERNEL32.dll
 0001:00020bb2       _GetQueuedCompletionStatus@20 00421bb2 f   kernel32:KERNEL32.dll
 0001:00020bb8       _GetOverlappedResult@16    00421bb8 f   kernel32:KERNEL32.dll
 0001:00020bbe       _PostQueuedCompletionStatus@16 00421bbe f   kernel32:KERNEL32.dll
 0001:00020bc4       _CreateIoCompletionPort@16 00421bc4 f   kernel32:KERNEL32.dll
 0001:00020bca       _HeapDestroy@4             00421bca f   kernel32:KERNEL32.dll
 0001:00020bd0       _HeapAlloc@12              00421bd0 f   kernel32:KERNEL32.dll
 0001:00020bd6       _HeapFree@12               00421bd6 f   kernel32:KERNEL32.dll
 0001:00020bdc       _HeapReAlloc@16            00421bdc f   kernel32:KERNEL32.dll
 0001:00020be2       _HeapCreate@12             00421be2 f   kernel32:KERNEL32.dll
 0001:00020be8       _lstrcpyA@8                00421be8 f   kernel32:KERNEL32.dll
 0001:00020bee       _QueryPerformanceCounter@4 00421bee f   kernel32:KERNEL32.dll
 0001:00020bf4       _QueryPerformanceFrequency@4 00421bf4 f   kernel32:KERNEL32.dll
 0001:00020bfa       _FreeLibrary@4             00421bfa f   kernel32:KERNEL32.dll
 0001:00020c00       _GetProcAddress@8          00421c00 f   kernel32:KERNEL32.dll
 0001:00020c06       _LoadLibraryA@4            00421c06 f   kernel32:KERNEL32.dll
 0001:00020c0c       _lstrcatA@8                00421c0c f   kernel32:KERNEL32.dll
 0001:00020c12       _GetModuleFileNameA@12     00421c12 f   kernel32:KERNEL32.dll
 0001:00020c18       _GetFileAttributesA@4      00421c18 f   kernel32:KERNEL32.dll
 0001:00020c1e       _CreateFileA@28            00421c1e f   kernel32:KERNEL32.dll
 0001:00020c24       _lstrcpynA@12              00421c24 f   kernel32:KERNEL32.dll
 0001:00020c2a       _GetFullPathNameA@16       00421c2a f   kernel32:KERNEL32.dll
 0001:00020c30       _OutputDebugStringA@4      00421c30 f   kernel32:KERNEL32.dll
 0001:00020c36       _GetLocalTime@4            00421c36 f   kernel32:KERNEL32.dll
 0001:00020c3c       _SetUnhandledExceptionFilter@4 00421c3c f   kernel32:KERNEL32.dll
 0001:00020c42       _SetErrorMode@4            00421c42 f   kernel32:KERNEL32.dll
 0001:00020c48       _LoadStringA@16            00421c48 f   user32:USER32.dll
 0001:00020c4e       _DestroyWindow@4           00421c4e f   user32:USER32.dll
 0001:00020c54       _DefWindowProcA@16         00421c54 f   user32:USER32.dll
 0001:00020c5a       _PostQuitMessage@4         00421c5a f   user32:USER32.dll
 0001:00020c60       _KillTimer@8               00421c60 f   user32:USER32.dll
 0001:00020c66       _EndPaint@8                00421c66 f   user32:USER32.dll
 0001:00020c6c       _BeginPaint@8              00421c6c f   user32:USER32.dll
 0001:00020c72       _RegisterClassExA@4        00421c72 f   user32:USER32.dll
 0001:00020c78       _LoadCursorA@8             00421c78 f   user32:USER32.dll
 0001:00020c7e       _LoadIconA@8               00421c7e f   user32:USER32.dll
 0001:00020c84       _UpdateWindow@4            00421c84 f   user32:USER32.dll
 0001:00020c8a       _ShowWindow@8              00421c8a f   user32:USER32.dll
 0001:00020c90       _SetWindowPos@28           00421c90 f   user32:USER32.dll
 0001:00020c96       _SetTimer@16               00421c96 f   user32:USER32.dll
 0001:00020c9c       _CreateWindowExA@48        00421c9c f   user32:USER32.dll
 0001:00020ca2       _DispatchMessageA@4        00421ca2 f   user32:USER32.dll
 0001:00020ca8       _TranslateMessage@4        00421ca8 f   user32:USER32.dll
 0001:00020cae       _GetMessageA@16            00421cae f   user32:USER32.dll
 0001:00020cb4       _CharLowerA@4              00421cb4 f   user32:USER32.dll
 0001:00020cba       _CharLowerW@4              00421cba f   user32:USER32.dll
 0001:00020cc0       _CharUpperA@4              00421cc0 f   user32:USER32.dll
 0001:00020cc6       _CharUpperW@4              00421cc6 f   user32:USER32.dll
 0001:00020ccc       _CharNextA@4               00421ccc f   user32:USER32.dll
 0001:00020cd2       _InvalidateRect@12         00421cd2 f   user32:USER32.dll
 0001:00020cd8       _SetRect@20                00421cd8 f   user32:USER32.dll
 0001:00020cde       _MessageBoxA@16            00421cde f   user32:USER32.dll
 0001:00020ce4       _CharNextExA@12            00421ce4 f   user32:USER32.dll
 0001:00020cea       _CreateFontA@56            00421cea f   gdi32:GDI32.dll
 0001:00020cf0       _TextOutA@20               00421cf0 f   gdi32:GDI32.dll
 0001:00020cf6       _SetTextColor@8            00421cf6 f   gdi32:GDI32.dll
 0001:00020cfc       _SetBkMode@8               00421cfc f   gdi32:GDI32.dll
 0001:00020d02       _DeleteObject@4            00421d02 f   gdi32:GDI32.dll
 0001:00020d08       _SetBkColor@8              00421d08 f   gdi32:GDI32.dll
 0001:00020d0e       _SelectObject@8            00421d0e f   gdi32:GDI32.dll
 0001:00020d14       _RegCloseKey@4             00421d14 f   advapi32:ADVAPI32.dll
 0001:00020d1a       _RegQueryValueExA@24       00421d1a f   advapi32:ADVAPI32.dll
 0001:00020d20       _RegOpenKeyExA@20          00421d20 f   advapi32:ADVAPI32.dll
 0001:00020d26       _RegSetValueExA@24         00421d26 f   advapi32:ADVAPI32.dll
 0001:00020d2c       _GetNextStackTraceString@8 00421d2c f   neuzd:NeuzD.dll
 0001:00020d32       _GetFirstStackTraceString@8 00421d32 f   neuzd:NeuzD.dll
 0001:00020d38       _GetRegisterString@4       00421d38 f   neuzd:NeuzD.dll
 0001:00020d3e       _GetFaultReason@4          00421d3e f   neuzd:NeuzD.dll
 0001:00020d44       ?AtlA2WHelper@@YGPA_WPA_WPBDHI@Z 00421d44 f i nafxcw:olemisc.obj
 0001:00020d7b       ?AtlW2AHelper@@YGPADPADPB_WHI@Z 00421d7b f i nafxcw:olemisc.obj
 0001:00020db3       ?ocslen@@YAHPB_W@Z         00421db3 f i nafxcw:olemisc.obj
 0001:00020dbe       ?ocscpy@@YAPA_WPA_WPB_W@Z  00421dbe f i nafxcw:olemisc.obj
 0001:00020dde       ??1CObject@@UAE@XZ         00421dde f i nafxcw:olemisc.obj
 0001:00020ddf       ??3CObject@@SGXPAX@Z       00421ddf f i nafxcw:olemisc.obj
 0001:00020dec       ??2CObject@@SGPAXI@Z       00421dec f i nafxcw:olemisc.obj
 0001:00020df9       ??1CException@@UAE@XZ      00421df9 f i nafxcw:olemisc.obj
 0001:00020dfa       ?AfxGetAppName@@YGPBDXZ    00421dfa f i nafxcw:olemisc.obj
 0001:00020e03       ??0COleException@@QAE@XZ   00421e03 f i nafxcw:olemisc.obj
 0001:00020e19       ?Serialize@CObject@@UAEXAAVCArchive@@@Z 00421e19 f i nafxcw:olemisc.obj
 0001:00020e1c       ?GetBaseTypeLength@?$ChTraitsCRT@D@ATL@@SAHPB_WH@Z 00421e1c f i nafxcw:olemisc.obj
 0001:00020e39       ?ConvertToBaseType@?$ChTraitsCRT@D@ATL@@SAXPADHPB_WH@Z 00421e39 f i nafxcw:olemisc.obj
 0001:00020e5c       ?AtlDevModeA2W@@YAPAU_devicemodeW@@PAU1@PBU_devicemodeA@@@Z 00421e5c f i nafxcw:olemisc.obj
 0001:00020efa       ?AtlDevModeW2A@@YGPAU_devicemodeA@@PAU1@PBU_devicemodeW@@@Z 00421efa f i nafxcw:olemisc.obj
 0001:00020f9a       ??_GCOleException@@UAEPAXI@Z 00421f9a f i nafxcw:olemisc.obj
 0001:00020f9a       ??_ECOleException@@UAEPAXI@Z 00421f9a f i nafxcw:olemisc.obj
 0001:00020fb6       ??1COleException@@UAE@XZ   00421fb6 f i nafxcw:olemisc.obj
 0001:00020fbd       ?AppendChar@?$CSimpleStringT@D$0A@@ATL@@QAEXD@Z 00421fbd f i nafxcw:olemisc.obj
 0001:00020fe5       ?Append@?$CSimpleStringT@D$0A@@ATL@@QAEXPBDH@Z 00421fe5 f i nafxcw:olemisc.obj
 0001:00021031       ??Y?$CSimpleStringT@D$0A@@ATL@@QAEAAV01@D@Z 00422031 f i nafxcw:olemisc.obj
 0001:00021043       ??Y?$CStringT@DV?$StrTraitMFC@DV?$ChTraitsCRT@D@ATL@@@@@ATL@@QAEAAV01@D@Z 00422043 f i nafxcw:olemisc.obj
 0001:00021055       ??0CObject@@IAE@XZ         00422055 f i nafxcw:except.obj
 0001:00021058       ??1CSimpleException@@UAE@XZ 00422058 f i nafxcw:except.obj
 0001:00021059       ??1CMemoryException@@UAE@XZ 00422059 f i nafxcw:except.obj
 0001:00021060       ??1CNotSupportedException@@UAE@XZ 00422060 f i nafxcw:except.obj
 0001:00021067       ??1CInvalidArgException@@UAE@XZ 00422067 f i nafxcw:except.obj
 0001:0002106e       ??0CSimpleException@@QAE@H@Z 0042206e f i nafxcw:except.obj
 0001:00021086       ??_GCMemoryException@@UAEPAXI@Z 00422086 f i nafxcw:except.obj
 0001:00021086       ??_ECMemoryException@@UAEPAXI@Z 00422086 f i nafxcw:except.obj
 0001:000210a2       ??0CMemoryException@@QAE@HI@Z 004220a2 f i nafxcw:except.obj
 0001:000210c4       ??_ECNotSupportedException@@UAEPAXI@Z 004220c4 f i nafxcw:except.obj
 0001:000210c4       ??_GCNotSupportedException@@UAEPAXI@Z 004220c4 f i nafxcw:except.obj
 0001:000210e0       ??0CNotSupportedException@@QAE@HI@Z 004220e0 f i nafxcw:except.obj
 0001:00021102       ??_ECInvalidArgException@@UAEPAXI@Z 00422102 f i nafxcw:except.obj
 0001:00021102       ??_GCInvalidArgException@@UAEPAXI@Z 00422102 f i nafxcw:except.obj
 0001:0002111e       ??0CInvalidArgException@@QAE@HI@Z 0042211e f i nafxcw:except.obj
 0001:00021140       __tcschr                   00422140 f i nafxcw:winstr.obj
 0001:00021145       ?AfxGetResourceHandle@@YGPAUHINSTANCE__@@XZ 00422145 f i nafxcw:winstr.obj
 0001:0002114e       ?ReleaseBuffer@?$CSimpleStringT@D$0A@@ATL@@QAEXH@Z 0042214e f i nafxcw:winstr.obj
 0001:00021173       ?GetBufferSetLength@?$CSimpleStringT@D$0A@@ATL@@QAEPADH@Z 00422173 f i nafxcw:winstr.obj
 0001:00021194       ??0CNilStringData@ATL@@QAE@XZ 00422194 f i nafxcw:strcore.obj
 0001:000211b0       ?SetManager@CNilStringData@ATL@@QAEXPAUIAtlStringMgr@2@@Z 004221b0 f i nafxcw:strcore.obj
 0001:000211b9       ?GetBaseTypeLength@?$ChTraitsCRT@_W@ATL@@SAHPBD@Z 004221b9 f i nafxcw:strcore.obj
 0001:000211d3       ?ConvertToBaseType@?$ChTraitsCRT@_W@ATL@@SAXPA_WHPBDH@Z 004221d3 f i nafxcw:strcore.obj
 0001:000211f3       ?IsStoring@CArchive@@QBEHXZ 004221f3 f i nafxcw:strcore.obj
 0001:000211fc       ??1CComBSTR@ATL@@QAE@XZ    004221fc f i nafxcw:strcore.obj
 0001:00021205       ?Length@CComBSTR@ATL@@QBEIXZ 00422205 f i nafxcw:strcore.obj
 0001:00021214       ?Copy@CComBSTR@ATL@@QBEPA_WXZ 00422214 f i nafxcw:strcore.obj
 0001:00021231       ??7CComBSTR@ATL@@QBE_NXZ   00422231 f i nafxcw:strcore.obj
 0001:00021239       ??B?$CTempBuffer@_W$0IA@VCCRTAllocator@ATL@@@ATL@@QBEPA_WXZ 00422239 f i nafxcw:strcore.obj
 0001:0002123c       ?GetBaseTypeLength@?$ChTraitsCRT@D@ATL@@SAHPB_W@Z 0042223c f i nafxcw:strcore.obj
 0001:00021258       ?FreeHeap@?$CTempBuffer@_W$0IA@VCCRTAllocator@ATL@@@ATL@@AAEXXZ 00422258 f i nafxcw:strcore.obj
 0001:00021261       ?AllocateHeap@?$CTempBuffer@_W$0IA@VCCRTAllocator@ATL@@@ATL@@AAEXI@Z 00422261 f i nafxcw:strcore.obj
 0001:00021282       ??0CComBSTR@ATL@@QAE@ABV01@@Z 00422282 f i nafxcw:strcore.obj
 0001:000212ad       ??1?$CTempBuffer@_W$0IA@VCCRTAllocator@ATL@@@ATL@@QAE@XZ 004222ad f i nafxcw:strcore.obj
 0001:000212ba       ?AllocateBytes@?$CTempBuffer@_W$0IA@VCCRTAllocator@ATL@@@ATL@@QAEPA_WI@Z 004222ba f i nafxcw:strcore.obj
 0001:000212dd       ?Allocate@?$CTempBuffer@_W$0IA@VCCRTAllocator@ATL@@@ATL@@QAEPA_WI@Z 004222dd f i nafxcw:strcore.obj
 0001:000212ec       ??4?$CStringT@DV?$StrTraitMFC@DV?$ChTraitsCRT@D@ATL@@@@@ATL@@QAEAAV01@PB_W@Z 004222ec f i nafxcw:strcore.obj
 0001:00021336       ?_AtlRaiseException@ATL@@YAXKK@Z 00422336 f i nafxcw:objcore.obj
 0001:00021349       ??0CComCriticalSection@ATL@@QAE@XZ 00422349 f i nafxcw:objcore.obj
 0001:0002135d       ?Init@CComCriticalSection@ATL@@QAEJXZ 0042235d f i nafxcw:objcore.obj
 0001:000213ad       ?Term@CComCriticalSection@ATL@@QAEJXZ 004223ad f i nafxcw:objcore.obj
 0001:000213b7       ?GetModuleInstance@CAtlBaseModule@ATL@@QAEPAUHINSTANCE__@@XZ 004223b7 f i nafxcw:objcore.obj
 0001:000213bb       ?lstrcmpiWFake@ATL@@YGHPB_W0@Z 004223bb f i nafxcw:objcore.obj
 0001:00021437       ?lstrcmpiWThunk@ATL@@YGHPB_W0@Z 00422437 f i nafxcw:objcore.obj
 0001:00021455       ?CharLowerWFake@ATL@@YGPA_WPA_W@Z 00422455 f i nafxcw:objcore.obj
 0001:000214dd       ?CharLowerWThunk@ATL@@YGPA_WPA_W@Z 004224dd f i nafxcw:objcore.obj
 0001:000214fb       ?CharUpperWFake@ATL@@YGPA_WPA_W@Z 004224fb f i nafxcw:objcore.obj
 0001:00021583       ?CharUpperWThunk@ATL@@YGPA_WPA_W@Z 00422583 f i nafxcw:objcore.obj
 0001:000215a1       ?AtlWinModuleInit@ATL@@YGJPAU_ATL_WIN_MODULE70@1@@Z 004225a1 f i nafxcw:objcore.obj
 0001:000215c4       ??1stringdispid@CComTypeInfoHolder@ATL@@QAE@XZ 004225c4 f i nafxcw:objcore.obj
 0001:000215cd       ??0?$CSimpleArray@GV?$CSimpleArrayEqualHelper@G@ATL@@@ATL@@QAE@XZ 004225cd f i nafxcw:objcore.obj
 0001:000215da       ?GetSize@?$CSimpleArray@GV?$CSimpleArrayEqualHelper@G@ATL@@@ATL@@QBEHXZ 004225da f i nafxcw:objcore.obj
 0001:000215de       ?RemoveAll@?$CSimpleArray@GV?$CSimpleArrayEqualHelper@G@ATL@@@ATL@@QAEXXZ 004225de f i nafxcw:objcore.obj
 0001:000215fb       ??A?$CSimpleArray@GV?$CSimpleArrayEqualHelper@G@ATL@@@ATL@@QAEAAGH@Z 004225fb f i nafxcw:objcore.obj
 0001:00021622       ?Init@?$CW2AEX@$0IA@@ATL@@AAEXPB_WI@Z 00422622 f i nafxcw:objcore.obj
 0001:00021688       ?AtlWinModuleTerm@ATL@@YGJPAU_ATL_WIN_MODULE70@1@PAUHINSTANCE__@@@Z 00422688 f i nafxcw:objcore.obj
 0001:000216e8       ??_Estringdispid@CComTypeInfoHolder@ATL@@QAEPAXI@Z 004226e8 f i nafxcw:objcore.obj
 0001:00021733       ??0?$CW2AEX@$0IA@@ATL@@QAE@PB_W@Z 00422733 f i nafxcw:objcore.obj
 0001:00021753       ??1?$CSimpleArray@GV?$CSimpleArrayEqualHelper@G@ATL@@@ATL@@QAE@XZ 00422753 f i nafxcw:objcore.obj
 0001:00021758       ?CompareStringWFake@ATL@@YGHKKPB_WH0H@Z 00422758 f i nafxcw:objcore.obj
 0001:0002185c       ?CompareStringWThunk@ATL@@YGHKKPB_WH0H@Z 0042285c f i nafxcw:objcore.obj
 0001:0002187e       ?Term@CAtlWinModule@ATL@@QAEXXZ 0042287e f i nafxcw:objcore.obj
 0001:0002188b       ??0_ATL_WIN_MODULE70@ATL@@QAE@XZ 0042288b f i nafxcw:objcore.obj
 0001:000218a5       ??1_ATL_WIN_MODULE70@ATL@@QAE@XZ 004228a5 f i nafxcw:objcore.obj
 0001:000218ad       ?GetEnvironmentVariableWFake@ATL@@YGKPB_WPA_WK@Z 004228ad f i nafxcw:objcore.obj
 0001:000219e9       ?GetEnvironmentVariableWThunk@ATL@@YGKPB_WPA_WK@Z 004229e9 f i nafxcw:objcore.obj
 0001:00021a07       ?GetStringTypeExWFake@ATL@@YGHKKPB_WHPAG@Z 00422a07 f i nafxcw:objcore.obj
 0001:00021ae4       ?GetStringTypeExWThunk@ATL@@YGHKKPB_WHPAG@Z 00422ae4 f i nafxcw:objcore.obj
 0001:00021b06       ??0CAtlWinModule@ATL@@QAE@XZ 00422b06 f i nafxcw:objcore.obj
 0001:00021b29       ??1CAtlWinModule@ATL@@QAE@XZ 00422b29 f i nafxcw:objcore.obj
 0001:00021b41       ?AtlAllocTaskWideString@ATL@@YAPA_WPBD@Z 00422b41 f i nafxcw:olecnvrt.obj
 0001:00021b8c       ?AtlAllocTaskAnsiString@ATL@@YAPADPB_W@Z 00422b8c f i nafxcw:olecnvrt.obj
 0001:00021bd9       _IsEqualGUID               00422bd9 f i nafxcw:oleunk.obj
 0001:00021bf1       _==                        00422bf1 f i nafxcw:oleunk.obj
 0001:00021bf6       ??0IUnknown@@QAE@XZ        00422bf6 f i nafxcw:oleunk.obj
 0001:00021bf9       ?InternalAddRef@CCmdTarget@@QAEKXZ 00422bf9 f i nafxcw:oleunk.obj
 0001:00021c04       ??0CPoint@@QAE@XZ          00422c04 f i nafxcw:afxstate.obj
 0001:00021c07       ??0CPoint@@QAE@HH@Z        00422c07 f i nafxcw:afxstate.obj
 0001:00021c19       ??0CSimpleList@@QAE@H@Z    00422c19 f i nafxcw:afxstate.obj
 0001:00021c28       ?Construct@CSimpleList@@QAEXH@Z 00422c28 f i nafxcw:afxstate.obj
 0001:00021c32       ??1CNoTrackObject@@UAE@XZ  00422c32 f i nafxcw:afxstate.obj
 0001:00021c33       ??0CTypeLibCache@@QAE@XZ   00422c33 f i nafxcw:afxstate.obj
 0001:00021c45       ?IsEmpty@CPtrList@@QBEHXZ  00422c45 f i nafxcw:afxstate.obj
 0001:00021c4e       ?GetStartPosition@CMapPtrToPtr@@QBEPAU__POSITION@@XZ 00422c4e f i nafxcw:afxstate.obj
 0001:00021c56       ?AfxGetApp@@YGPAVCWinApp@@XZ 00422c56 f i nafxcw:appui1.obj
 0001:00021c5f       ?AfxGetMainWnd@@YGPAVCWnd@@XZ 00422c5f f i nafxcw:appui1.obj
 0001:00021c72       ?GetSafeHwnd@CWnd@@QBEPAUHWND__@@XZ 00422c72 f i nafxcw:appui1.obj
 0001:00021c7d       ?GetNextPtr@CSimpleList@@QBEPAPAXPAX@Z 00422c7d f i nafxcw:afxtls.obj
 0001:00021c87       ?GetHead@CSimpleList@@QBEPAXXZ 00422c87 f i nafxcw:afxtls.obj
 0001:00021c8a       ??2CThreadSlotData@@SGPAXIPAX@Z 00422c8a f i nafxcw:afxtls.obj
 0001:00021c91       ?AfxCheckError@@YGXJ@Z     00422c91 f   nafxcw:olevar.obj
 0001:00021cae       ?_AfxCompareSafeArrays@@YGHPAUtagSAFEARRAY@@0@Z 00422cae f   nafxcw:olevar.obj
 0001:00021f1a       ?_AfxCreateOneDimArray@@YGXAAUtagVARIANT@@K@Z 00422f1a f   nafxcw:olevar.obj
 0001:00021fc5       ?_AfxCopyBinaryData@@YGXPAUtagSAFEARRAY@@PBXK@Z 00422fc5 f   nafxcw:olevar.obj
 0001:00022000       ??0COleVariant@@QAE@FG@Z   00423000 f   nafxcw:olevar.obj
 0001:00022027       ??0COleVariant@@QAE@JG@Z   00423027 f   nafxcw:olevar.obj
 0001:0002208c       ?ChangeType@COleVariant@@QAEXGPAUtagVARIANT@@@Z 0042308c f   nafxcw:olevar.obj
 0001:000220b7       ?Detach@COleVariant@@QAE?AUtagVARIANT@@XZ 004230b7 f   nafxcw:olevar.obj
 0001:000220de       ??8COleVariant@@QBEHABUtagVARIANT@@@Z 004230de f   nafxcw:olevar.obj
 0001:00022222       ??4COleVariant@@QAEABV0@ABUtagVARIANT@@@Z 00423222 f   nafxcw:olevar.obj
 0001:0002223c       ??4COleVariant@@QAEABV0@PBUtagVARIANT@@@Z 0042323c f   nafxcw:olevar.obj
 0001:00022256       ??4COleVariant@@QAEABV0@ABV0@@Z 00423256 f   nafxcw:olevar.obj
 0001:00022270       ??4COleVariant@@QAEABV0@ABVCLongBinary@@@Z 00423270 f   nafxcw:olevar.obj
 0001:000222b3       ?AfxVariantInit@@YGXPAUtagVARIANT@@@Z 004232b3 f   nafxcw:olevar.obj
 0001:000222c6       ??$CopyElements@VCOleVariant@@@@YGXPAVCOleVariant@@PBV0@H@Z 004232c6 f   nafxcw:olevar.obj
 0001:000222ec       ??4COleCurrency@@QAEABV0@ABV0@@Z 004232ec f   nafxcw:olevar.obj
 0001:00022305       ??MCOleCurrency@@QBEHABV0@@Z 00423305 f   nafxcw:olevar.obj
 0001:00022323       ??OCOleCurrency@@QBEHABV0@@Z 00423323 f   nafxcw:olevar.obj
 0001:00022341       ??NCOleCurrency@@QBEHABV0@@Z 00423341 f   nafxcw:olevar.obj
 0001:0002235f       ??PCOleCurrency@@QBEHABV0@@Z 0042335f f   nafxcw:olevar.obj
 0001:0002237d       ?Detach@COleSafeArray@@QAE?AUtagVARIANT@@XZ 0042337d f   nafxcw:olevar.obj
 0001:000223a4       ??4COleSafeArray@@QAEAAV0@ABV0@@Z 004233a4 f   nafxcw:olevar.obj
 0001:000223ca       ??4COleSafeArray@@QAEAAV0@ABUtagVARIANT@@@Z 004233ca f   nafxcw:olevar.obj
 0001:000223f0       ??4COleSafeArray@@QAEAAV0@PBUtagVARIANT@@@Z 004233f0 f   nafxcw:olevar.obj
 0001:00022416       ??4COleSafeArray@@QAEAAV0@ABVCOleVariant@@@Z 00423416 f   nafxcw:olevar.obj
 0001:0002243c       ??8COleSafeArray@@QBEHABUtagSAFEARRAY@@@Z 0042343c f   nafxcw:olevar.obj
 0001:0002244b       ??8COleSafeArray@@QBEHPBUtagSAFEARRAY@@@Z 0042344b f   nafxcw:olevar.obj
 0001:0002245a       ??8COleSafeArray@@QBEHABV0@@Z 0042345a f   nafxcw:olevar.obj
 0001:00022478       ??8COleSafeArray@@QBEHABUtagVARIANT@@@Z 00423478 f   nafxcw:olevar.obj
 0001:00022496       ??8COleSafeArray@@QBEHPBUtagVARIANT@@@Z 00423496 f   nafxcw:olevar.obj
 0001:000224b4       ??8COleSafeArray@@QBEHABVCOleVariant@@@Z 004234b4 f   nafxcw:olevar.obj
 0001:000224d2       ?AccessData@COleSafeArray@@QAEXPAPAX@Z 004234d2 f   nafxcw:olevar.obj
 0001:000224e8       ?UnaccessData@COleSafeArray@@QAEXXZ 004234e8 f   nafxcw:olevar.obj
 0001:000224f8       ?AllocData@COleSafeArray@@QAEXXZ 004234f8 f   nafxcw:olevar.obj
 0001:00022508       ?AllocDescriptor@COleSafeArray@@QAEXK@Z 00423508 f   nafxcw:olevar.obj
 0001:0002251f       ?Copy@COleSafeArray@@QAEXPAPAUtagSAFEARRAY@@@Z 0042351f f   nafxcw:olevar.obj
 0001:00022535       ?GetLBound@COleSafeArray@@QAEXKPAJ@Z 00423535 f   nafxcw:olevar.obj
 0001:0002254f       ?GetUBound@COleSafeArray@@QAEXKPAJ@Z 0042354f f   nafxcw:olevar.obj
 0001:00022569       ?GetElement@COleSafeArray@@QAEXPAJPAX@Z 00423569 f   nafxcw:olevar.obj
 0001:00022583       ?PtrOfIndex@COleSafeArray@@QAEXPAJPAPAX@Z 00423583 f   nafxcw:olevar.obj
 0001:0002259d       ?PutElement@COleSafeArray@@QAEXPAJPAX@Z 0042359d f   nafxcw:olevar.obj
 0001:000225b7       ?Redim@COleSafeArray@@QAEXPAUtagSAFEARRAYBOUND@@@Z 004235b7 f   nafxcw:olevar.obj
 0001:000225cd       ?Lock@COleSafeArray@@QAEXXZ 004235cd f   nafxcw:olevar.obj
 0001:000225dd       ?Unlock@COleSafeArray@@QAEXXZ 004235dd f   nafxcw:olevar.obj
 0001:000225ed       ?Destroy@COleSafeArray@@QAEXXZ 004235ed f   nafxcw:olevar.obj
 0001:000225fd       ?DestroyData@COleSafeArray@@QAEXXZ 004235fd f   nafxcw:olevar.obj
 0001:0002260d       ?DestroyDescriptor@COleSafeArray@@QAEXXZ 0042360d f   nafxcw:olevar.obj
 0001:0002261d       ?AfxSafeArrayInit@@YGXPAVCOleSafeArray@@@Z 0042361d f   nafxcw:olevar.obj
 0001:00022637       ?AllocSysString@?$ChTraitsCRT@D@ATL@@SAPA_WPBDH@Z 00423637 f i nafxcw:olevar.obj
 0001:00022682       ??$HashKey@K@@YGIK@Z       00423682 f i nafxcw:olevar.obj
 0001:0002268c       ?GetSize@CByteArray@@QBEHXZ 0042368c f i nafxcw:olevar.obj
 0001:00022690       ?GetData@CByteArray@@QBEPBEXZ 00423690 f i nafxcw:olevar.obj
 0001:00022694       ?GetData@CByteArray@@QAEPAEXZ 00423694 f i nafxcw:olevar.obj
 0001:00022698       ?IsLoading@CArchive@@QBEHXZ 00423698 f i nafxcw:olevar.obj
 0001:0002269f       ??0CComBSTR@ATL@@QAE@XZ    0042369f f i nafxcw:olevar.obj
 0001:000226a5       ??BCComBSTR@ATL@@QBEPA_WXZ 004236a5 f i nafxcw:olevar.obj
 0001:000226a8       ??ICComBSTR@ATL@@QAEPAPA_WXZ 004236a8 f i nafxcw:olevar.obj
 0001:000226ab       ?Attach@CComBSTR@ATL@@QAEXPA_W@Z 004236ab f i nafxcw:olevar.obj
 0001:000226c7       ?Detach@CComBSTR@ATL@@QAEPA_WXZ 004236c7 f i nafxcw:olevar.obj
 0001:000226cd       ?Empty@CComBSTR@ATL@@QAEXXZ 004236cd f i nafxcw:olevar.obj
 0001:000226dd       ??0COleDateTime@ATL@@QAE@XZ 004236dd f i nafxcw:olevar.obj
 0001:000226e8       ?GetStatus@COleDateTime@ATL@@QBE?AW4DateTimeStatus@12@XZ 004236e8 f i nafxcw:olevar.obj
 0001:000226ec       ?GetAsSystemTime@COleDateTime@ATL@@QBE_NAAU_SYSTEMTIME@@@Z 004236ec f i nafxcw:olevar.obj
 0001:00022711       ??BCOleDateTime@ATL@@QBENXZ 00423711 f i nafxcw:olevar.obj
 0001:00022714       ?SetDateTime@COleDateTime@ATL@@QAEHHHHHHH@Z 00423714 f i nafxcw:olevar.obj
 0001:000227d5       ??0COleVariant@@QAE@XZ     004237d5 f i nafxcw:olevar.obj
 0001:000227e2       ??1COleVariant@@QAE@XZ     004237e2 f i nafxcw:olevar.obj
 0001:000227ea       ?Clear@COleVariant@@QAEXXZ 004237ea f i nafxcw:olevar.obj
 0001:000227f2       ??BCOleVariant@@QAEPAUtagVARIANT@@XZ 004237f2 f i nafxcw:olevar.obj
 0001:000227f5       ??0COleCurrency@@QAE@ABV0@@Z 004237f5 f i nafxcw:olevar.obj
 0001:0002280e       ?GetStatus@COleCurrency@@QBE?AW4CurrencyStatus@1@XZ 0042380e f i nafxcw:olevar.obj
 0001:00022812       ?SetStatus@COleCurrency@@QAEXW4CurrencyStatus@1@@Z 00423812 f i nafxcw:olevar.obj
 0001:0002281c       ?Clear@COleSafeArray@@QAEXXZ 0042381c f i nafxcw:olevar.obj
 0001:00022824       ?GetDim@COleSafeArray@@QAEKXZ 00423824 f i nafxcw:olevar.obj
 0001:0002282e       ?GetElemSize@COleSafeArray@@QAEKXZ 0042382e f i nafxcw:olevar.obj
 0001:00022838       ??0COleVariant@@QAE@ABUtagVARIANT@@@Z 00423838 f   nafxcw:olevar.obj
 0001:00022858       ??0COleVariant@@QAE@PBUtagVARIANT@@@Z 00423858 f   nafxcw:olevar.obj
 0001:00022878       ??0COleVariant@@QAE@ABV0@@Z 00423878 f   nafxcw:olevar.obj
 0001:00022898       ??0COleVariant@@QAE@PBDG@Z 00423898 f   nafxcw:olevar.obj
 0001:0002290f       ?SetString@COleVariant@@QAEXPBDG@Z 0042390f f   nafxcw:olevar.obj
 0001:0002298b       ?Attach@COleVariant@@QAEXAAUtagVARIANT@@@Z 0042398b f   nafxcw:olevar.obj
 0001:000229af       ?GetByteArrayFromVariantArray@COleVariant@@QAEXAAVCByteArray@@@Z 004239af f   nafxcw:olevar.obj
 0001:00022a48       ??4COleVariant@@QAEABV0@QBD@Z 00423a48 f   nafxcw:olevar.obj
 0001:00022ab5       ??4COleVariant@@QAEABV0@ABV?$CStringT@DV?$StrTraitMFC@DV?$ChTraitsCRT@D@ATL@@@@@ATL@@@Z 00423ab5 f   nafxcw:olevar.obj
 0001:00022b24       ??4COleVariant@@QAEABV0@E@Z 00423b24 f   nafxcw:olevar.obj
 0001:00022b46       ??4COleVariant@@QAEABV0@F@Z 00423b46 f   nafxcw:olevar.obj
 0001:00022b7f       ??4COleVariant@@QAEABV0@J@Z 00423b7f f   nafxcw:olevar.obj
 0001:00022bbe       ??4COleVariant@@QAEABV0@ABVCOleCurrency@@@Z 00423bbe f   nafxcw:olevar.obj
 0001:00022be8       ??4COleVariant@@QAEABV0@M@Z 00423be8 f   nafxcw:olevar.obj
 0001:00022c0a       ??4COleVariant@@QAEABV0@N@Z 00423c0a f   nafxcw:olevar.obj
 0001:00022c2c       ??4COleVariant@@QAEABV0@ABVCOleDateTime@ATL@@@Z 00423c2c f   nafxcw:olevar.obj
 0001:00022c50       ??4COleVariant@@QAEABV0@ABVCByteArray@@@Z 00423c50 f   nafxcw:olevar.obj
 0001:00022c84       ??$HashKey@ABUtagVARIANT@@@@YGIABUtagVARIANT@@@Z 00423c84 f   nafxcw:olevar.obj
 0001:00022d0c       ??4COleCurrency@@QAEABV0@TtagCY@@@Z 00423d0c f   nafxcw:olevar.obj
 0001:00022d22       ??4COleCurrency@@QAEABV0@ABUtagVARIANT@@@Z 00423d22 f   nafxcw:olevar.obj
 0001:00022dc0       ??0COleSafeArray@@QAE@ABUtagSAFEARRAY@@G@Z 00423dc0 f   nafxcw:olevar.obj
 0001:00022e06       ??0COleSafeArray@@QAE@PBUtagSAFEARRAY@@G@Z 00423e06 f   nafxcw:olevar.obj
 0001:00022e4c       ??0COleSafeArray@@QAE@ABV0@@Z 00423e4c f   nafxcw:olevar.obj
 0001:00022e7e       ??0COleSafeArray@@QAE@ABUtagVARIANT@@@Z 00423e7e f   nafxcw:olevar.obj
 0001:00022eb0       ??0COleSafeArray@@QAE@ABVCOleVariant@@@Z 00423eb0 f   nafxcw:olevar.obj
 0001:00022ee2       ??0COleSafeArray@@QAE@PBUtagVARIANT@@@Z 00423ee2 f   nafxcw:olevar.obj
 0001:00022f14       ?Attach@COleSafeArray@@QAEXAAUtagVARIANT@@@Z 00423f14 f   nafxcw:olevar.obj
 0001:00022f43       ?GetByteArray@COleSafeArray@@QAEXAAVCByteArray@@@Z 00423f43 f   nafxcw:olevar.obj
 0001:00022fdc       ?GetOneDimSize@COleSafeArray@@QAEKXZ 00423fdc f   nafxcw:olevar.obj
 0001:00023006       ?ResizeOneDim@COleSafeArray@@QAEXK@Z 00424006 f   nafxcw:olevar.obj
 0001:0002303b       ?Create@COleSafeArray@@QAEXGKPAUtagSAFEARRAYBOUND@@@Z 0042403b f   nafxcw:olevar.obj
 0001:000230a5       ??6CArchive@@QAEAAV0@E@Z   004240a5 f i nafxcw:olevar.obj
 0001:000230dd       ??6CArchive@@QAEAAV0@_J@Z  004240dd f i nafxcw:olevar.obj
 0001:0002311f       ??6CArchive@@QAEAAV0@_K@Z  0042411f f i nafxcw:olevar.obj
 0001:00023161       ??6CArchive@@QAEAAV0@G@Z   00424161 f i nafxcw:olevar.obj
 0001:0002319d       ??6CArchive@@QAEAAV0@J@Z   0042419d f i nafxcw:olevar.obj
 0001:000231d8       ??6CArchive@@QAEAAV0@K@Z   004241d8 f i nafxcw:olevar.obj
 0001:00023213       ??6CArchive@@QAEAAV0@M@Z   00424213 f i nafxcw:olevar.obj
 0001:0002324e       ??6CArchive@@QAEAAV0@N@Z   0042424e f i nafxcw:olevar.obj
 0001:00023289       ??5CArchive@@QAEAAV0@AAE@Z 00424289 f i nafxcw:olevar.obj
 0001:000232c8       ??5CArchive@@QAEAAV0@AA_J@Z 004242c8 f i nafxcw:olevar.obj
 0001:00023310       ??5CArchive@@QAEAAV0@AA_K@Z 00424310 f i nafxcw:olevar.obj
 0001:00023358       ??5CArchive@@QAEAAV0@AAG@Z 00424358 f i nafxcw:olevar.obj
 0001:0002339b       ??5CArchive@@QAEAAV0@AAK@Z 0042439b f i nafxcw:olevar.obj
 0001:000233dd       ??5CArchive@@QAEAAV0@AAM@Z 004243dd f i nafxcw:olevar.obj
 0001:0002341f       ??5CArchive@@QAEAAV0@AAN@Z 0042441f f i nafxcw:olevar.obj
 0001:00023461       ??5CArchive@@QAEAAV0@AAJ@Z 00424461 f i nafxcw:olevar.obj
 0001:000234a3       ??0COleCurrency@@QAE@XZ    004244a3 f i nafxcw:olevar.obj
 0001:000234b0       ??0COleCurrency@@QAE@TtagCY@@@Z 004244b0 f i nafxcw:olevar.obj
 0001:000234c6       ??6@YGAAVCArchive@@AAV0@VCComBSTR@ATL@@@Z 004244c6 f   nafxcw:olevar.obj
 0001:00023527       ??5@YGAAVCArchive@@AAV0@AAVCComBSTR@ATL@@@Z 00424527 f   nafxcw:olevar.obj
 0001:00023587       ??HCOleCurrency@@QBE?AV0@ABV0@@Z 00424587 f   nafxcw:olevar.obj
 0001:0002360c       ??GCOleCurrency@@QBE?AV0@ABV0@@Z 0042460c f   nafxcw:olevar.obj
 0001:00023691       ??GCOleCurrency@@QBE?AV0@XZ 00424691 f   nafxcw:olevar.obj
 0001:000236d7       ??DCOleCurrency@@QBE?AV0@J@Z 004246d7 f   nafxcw:olevar.obj
 0001:000237f5       ??KCOleCurrency@@QBE?AV0@J@Z 004247f5 f   nafxcw:olevar.obj
 0001:00023871       ?SetCurrency@COleCurrency@@QAEXJJ@Z 00424871 f   nafxcw:olevar.obj
 0001:00023929       ??6@YGAAVCArchive@@AAV0@VCOleCurrency@@@Z 00424929 f   nafxcw:olevar.obj
 0001:00023951       ??5@YGAAVCArchive@@AAV0@AAVCOleCurrency@@@Z 00424951 f   nafxcw:olevar.obj
 0001:0002397e       ??6@YGAAVCArchive@@AAV0@VCOleDateTime@ATL@@@Z 0042497e f   nafxcw:olevar.obj
 0001:000239a0       ??5@YGAAVCArchive@@AAV0@AAVCOleDateTime@ATL@@@Z 004249a0 f   nafxcw:olevar.obj
 0001:000239c0       ??6@YGAAVCArchive@@AAV0@VCOleDateTimeSpan@ATL@@@Z 004249c0 f   nafxcw:olevar.obj
 0001:000239e2       ??5@YGAAVCArchive@@AAV0@AAVCOleDateTimeSpan@ATL@@@Z 004249e2 f   nafxcw:olevar.obj
 0001:00023a02       ?CreateOneDim@COleSafeArray@@QAEXGKPBXJ@Z 00424a02 f   nafxcw:olevar.obj
 0001:00023a69       ?Create@COleSafeArray@@QAEXGKPAK@Z 00424a69 f   nafxcw:olevar.obj
 0001:00023af5       ?AllocSysString@?$CStringT@DV?$StrTraitMFC@DV?$ChTraitsCRT@D@ATL@@@@@ATL@@QBEPA_WXZ 00424af5 f i nafxcw:olevar.obj
 0001:00023b0c       ??6CArchive@@QAEAAV0@F@Z   00424b0c f i nafxcw:olevar.obj
 0001:00023b11       ??6CArchive@@QAEAAV0@D@Z   00424b11 f i nafxcw:olevar.obj
 0001:00023b16       ??5CArchive@@QAEAAV0@AAF@Z 00424b16 f i nafxcw:olevar.obj
 0001:00023b1b       ??5CArchive@@QAEAAV0@AAD@Z 00424b1b f i nafxcw:olevar.obj
 0001:00023b20       ?ParseDateTime@COleDateTime@ATL@@QAE_NPBDKK@Z 00424b20 f i nafxcw:olevar.obj
 0001:00023bea       ??6@YGAAVCArchive@@AAV0@VCOleVariant@@@Z 00424bea f   nafxcw:olevar.obj
 0001:00023e0e       ??5@YGAAVCArchive@@AAV0@AAVCOleVariant@@@Z 00424e0e f   nafxcw:olevar.obj
 0001:0002409a       ??$SerializeElements@VCOleVariant@@@@YGXAAVCArchive@@PAVCOleVariant@@H@Z 0042509a f   nafxcw:olevar.obj
 0001:000240eb       ??0COleCurrency@@QAE@JJ@Z  004250eb f   nafxcw:olevar.obj
 0001:00024105       ?DDX_Text@@YGXPAVCDataExchange@@HAAUtagDEC@@@Z 00425105 f   nafxcw:olevar.obj
 0001:0002423d       ?DDX_Text@@YGXPAVCDataExchange@@HAAU_GUID@@@Z 0042523d f   nafxcw:olevar.obj
 0001:000243bf       ??0?$CStringT@DV?$StrTraitMFC@DV?$ChTraitsCRT@D@ATL@@@@@ATL@@QAE@PB_W@Z 004253bf f i nafxcw:olevar.obj
 0001:0002440a       ?ParseCurrency@COleCurrency@@QAEHPBDKK@Z 0042540a f   nafxcw:olevar.obj
 0001:000244e2       ?Format@COleCurrency@@QBE?AV?$CStringT@DV?$StrTraitMFC@DV?$ChTraitsCRT@D@ATL@@@@@ATL@@KK@Z 004254e2 f   nafxcw:olevar.obj
 0001:000245e6       ?DDX_Text@@YGXPAVCDataExchange@@HAAVCOleCurrency@@@Z 004255e6 f   nafxcw:olevar.obj
 0001:000246ca       ?Format@COleDateTime@ATL@@QBE?AV?$CStringT@DV?$StrTraitMFC@DV?$ChTraitsCRT@D@ATL@@@@@2@KK@Z 004256ca f i nafxcw:olevar.obj
 0001:000247ef       ?DDX_Text@@YGXPAVCDataExchange@@HAAVCOleDateTime@ATL@@@Z 004257ef f   nafxcw:olevar.obj
 0001:000248d3       ?DDX_Text@@YGXPAVCDataExchange@@HAAU_FILETIME@@@Z 004258d3 f   nafxcw:olevar.obj
 0001:00024a12       ??0CArchiveException@@QAE@HPBD@Z 00425a12 f i nafxcw:arcex.obj
 0001:00024a5f       ??_GCArchiveException@@UAEPAXI@Z 00425a5f f i nafxcw:arcex.obj
 0001:00024a5f       ??_ECArchiveException@@UAEPAXI@Z 00425a5f f i nafxcw:arcex.obj
 0001:00024a7b       ??1CArchiveException@@UAE@XZ 00425a7b f i nafxcw:arcex.obj
 0001:00024a8c       ??BCRect@@QAEPAUtagRECT@@XZ 00425a8c f i nafxcw:winutil.obj
 0001:00024a8f       ?PtInRect@CRect@@QBEHUtagPOINT@@@Z 00425a8f f i nafxcw:winutil.obj
 0001:00024aa1       ?GetHeadPosition@CPtrList@@QBEPAU__POSITION@@XZ 00425aa1 f i nafxcw:list_p.obj
 0001:00024aa5       ?GetTailPosition@CPtrList@@QBEPAU__POSITION@@XZ 00425aa5 f i nafxcw:list_p.obj
 0001:00024aa9       ?GetNext@CPtrList@@QAEAAPAXAAPAU__POSITION@@@Z 00425aa9 f i nafxcw:list_p.obj
 0001:00024ac2       ?GetPrev@CPtrList@@QAEAAPAXAAPAU__POSITION@@@Z 00425ac2 f i nafxcw:list_p.obj
 0001:00024adc       ??0CPoint@@QAE@UtagPOINT@@@Z 00425adc f i nafxcw:thrdcore.obj
 0001:00024aee       ??8CPoint@@QBEHUtagPOINT@@@Z 00425aee f i nafxcw:thrdcore.obj
 0001:00024b09       ?SendMessageA@CWnd@@QAEJIIJ@Z 00425b09 f i nafxcw:thrdcore.obj
 0001:00024b21       ?IsWindowVisible@CWnd@@QBEHXZ 00425b21 f i nafxcw:thrdcore.obj
 0001:00024b2b       ?SendMessageToDescendants@CWnd@@QAEXIIJHH@Z 00425b2b f i nafxcw:thrdcore.obj
 0001:00024b49       ?GetActiveWindow@CWnd@@SGPAV1@XZ 00425b49 f i nafxcw:thrdcore.obj
 0001:00024b56       ?SetThreadPriority@CWinThread@@QAEHH@Z 00425b56 f i nafxcw:thrdcore.obj
 0001:00024b66       ?ResumeThread@CWinThread@@QAEKXZ 00425b66 f i nafxcw:thrdcore.obj
 0001:00024b70       ??0AFX_CLASSINIT@@QAE@PAUCRuntimeClass@@@Z 00425b70 f i nafxcw:array_b.obj
 0001:00024b82       ?GetAt@CByteArray@@QBEEH@Z 00425b82 f i nafxcw:array_b.obj
 0001:00024b9e       ?SetAt@CByteArray@@QAEXHE@Z 00425b9e f i nafxcw:array_b.obj
 0001:00024bbe       ?GetFile@CArchive@@QBEPAVCFile@@XZ 00425bbe f i nafxcw:arcstrm.obj
 0001:00024bc2       ??0ISequentialStream@@QAE@XZ 00425bc2 f i nafxcw:arcstrm.obj
 0001:00024bc5       ??0IStream@@QAE@XZ         00425bc5 f i nafxcw:arcstrm.obj
 0001:00024bc8       ?GetNextWindow@@YAPAUHWND__@@PAU1@I@Z 00425bc8 f i nafxcw:winocc.obj
 0001:00024bd7       ?GetNext@CPtrList@@QBEAAPBXAAPAU__POSITION@@@Z 00425bd7 f i nafxcw:winocc.obj
 0001:00024bf0       ?GetPrev@CPtrList@@QBEAAPBXAAPAU__POSITION@@@Z 00425bf0 f i nafxcw:winocc.obj
 0001:00024c0a       ?GetAt@CPtrList@@QBEAAPBXPAU__POSITION@@@Z 00425c0a f i nafxcw:winocc.obj
 0001:00024c1d       ?GetSafeHandle@CGdiObject@@QBEPAXXZ 00425c1d f i nafxcw:winocc.obj
 0001:00024c28       ?GetNextWindow@CWnd@@QBEPAV1@I@Z 00425c28 f i nafxcw:winocc.obj
 0001:00024c3f       ?GetWindow@CWnd@@QBEPAV1@I@Z 00425c3f f i nafxcw:winocc.obj
 0001:00024c55       ?LookupPermanent@CHandleMap@@QAEPAVCObject@@PAX@Z 00425c55 f i nafxcw:winocc.obj
 0001:00024c5d       ??0CSize@@QAE@K@Z          00425c5d f i nafxcw:cmdtarg.obj
 0001:00024c74       ?CheckMenuItem@CMenu@@QAEIII@Z 00425c74 f i nafxcw:cmdtarg.obj
 0001:00024c88       ?EnableMenuItem@CMenu@@QAEIII@Z 00425c88 f i nafxcw:cmdtarg.obj
 0001:00024c9c       ?GetMenuState@CMenu@@QBEIII@Z 00425c9c f i nafxcw:cmdtarg.obj
 0001:00024cb0       ?ModifyMenuA@CMenu@@QAEHIIIPBD@Z 00425cb0 f i nafxcw:cmdtarg.obj
 0001:00024ccc       ?GetParent@CWnd@@QBEPAV1@XZ 00425ccc f i nafxcw:cmdtarg.obj
 0001:00024cdc       ?SetAt@CMapPtrToPtr@@QAEXPAX0@Z 00425cdc f i nafxcw:winhand.obj
 0001:00024cee       ?LookupTemporary@CHandleMap@@QAEPAVCObject@@PAX@Z 00425cee f i nafxcw:winhand.obj
 0001:00024cf6       ??_ECHandleMap@@UAEPAXI@Z  00425cf6 f i nafxcw:winhand.obj
 0001:00024cf6       ??_GCHandleMap@@UAEPAXI@Z  00425cf6 f i nafxcw:winhand.obj
 0001:00024d12       ??1CHandleMap@@UAE@XZ      00425d12 f i nafxcw:winhand.obj
 0001:00024d66       __tcscmp                   00425d66 f i nafxcw:wincore.obj
 0001:00024d6b       ?UnlockResource@@YGHPAX@Z  00425d6b f i nafxcw:wincore.obj
 0001:00024d70       ?A2T@@YAPADPAD@Z           00425d70 f i nafxcw:wincore.obj
 0001:00024d75       ??0CPoint@@QAE@J@Z         00425d75 f i nafxcw:wincore.obj
 0001:00024d8c       ?Width@CRect@@QBEHXZ       00425d8c f i nafxcw:wincore.obj
 0001:00024d92       ?Height@CRect@@QBEHXZ      00425d92 f i nafxcw:wincore.obj
 0001:00024d99       ?TopLeft@CRect@@QAEAAVCPoint@@XZ 00425d99 f i nafxcw:wincore.obj
 0001:00024d9c       ?BottomRight@CRect@@QAEAAVCPoint@@XZ 00425d9c f i nafxcw:wincore.obj
 0001:00024da0       ??4CRect@@QAEXABUtagRECT@@@Z 00425da0 f i nafxcw:wincore.obj
 0001:00024dae       ??2CObject@@SGPAXIPAX@Z    00425dae f i nafxcw:wincore.obj
 0001:00024db5       ??3CObject@@SGXPAX0@Z      00425db5 f i nafxcw:wincore.obj
 0001:00024dc2       _IsPlatformNT              00425dc2 f   nafxcw:wincore.obj
 0001:00024e13       _InitMultipleMonitorStubs  00425e13 f   nafxcw:wincore.obj
 0001:00024f0d       _xGetSystemMetrics@4       00425f0d f   nafxcw:wincore.obj
 0001:00024f55       _xMonitorFromPoint@12      00425f55 f   nafxcw:wincore.obj
 0001:00024fab       _xMonitorFromRect@8        00425fab f   nafxcw:wincore.obj
 0001:00024ff7       _xMonitorFromWindow@8      00425ff7 f   nafxcw:wincore.obj
 0001:00025062       _xGetMonitorInfo@8         00426062 f   nafxcw:wincore.obj
 0001:000250f7       _xEnumDisplayMonitors@16   004260f7 f   nafxcw:wincore.obj
 0001:000251e2       _xEnumDisplayDevices@16    004261e2 f   nafxcw:wincore.obj
 0001:0002524f       ??1CAccessibleProxy@ATL@@UAE@XZ 0042624f f i nafxcw:wincore.obj
 0001:00025250       ?AtlIAccessibleInvokeHelper@ATL@@YGJPAUIAccessible@@JABU_GUID@@KGPAUtagDISPPARAMS@@PAUtagVARIANT@@PAUtagEXCEPINFO@@PAI@Z 00426250 f   nafxcw:wincore.obj
 0001:00025838       ?AtlIAccessibleGetIDsOfNamesHelper@ATL@@YGJABU_GUID@@PAPA_WIKPAJ@Z 00426838 f   nafxcw:wincore.obj
 0001:00025898       ?AfxGetInstanceHandle@@YGPAUHINSTANCE__@@XZ 00426898 f i nafxcw:wincore.obj
 0001:000258a1       ?GetMenuItemCount@CMenu@@QBEIXZ 004268a1 f i nafxcw:wincore.obj
 0001:000258ab       ?GetMenuItemID@CMenu@@QBEIH@Z 004268ab f i nafxcw:wincore.obj
 0001:000258bb       ?GetSubMenu@CMenu@@QBEPAV1@H@Z 004268bb f i nafxcw:wincore.obj
 0001:000258d1       ?PostMessageA@CWnd@@QAEHIIJ@Z 004268d1 f i nafxcw:wincore.obj
 0001:000258e9       ?GetMenu@CWnd@@QBEPAVCMenu@@XZ 004268e9 f i nafxcw:wincore.obj
 0001:000258f9       ?GetWindowRect@CWnd@@QBEXPAUtagRECT@@@Z 004268f9 f i nafxcw:wincore.obj
 0001:00025909       ?GetClientRect@CWnd@@QBEXPAUtagRECT@@@Z 00426909 f i nafxcw:wincore.obj
 0001:00025919       ?ScreenToClient@CWnd@@QBEXPAUtagPOINT@@@Z 00426919 f i nafxcw:wincore.obj
 0001:00025929       ?UpdateWindow@CWnd@@QAEXXZ 00426929 f i nafxcw:wincore.obj
 0001:00025933       ?ShowScrollBar@CWnd@@QAEXIH@Z 00426933 f i nafxcw:wincore.obj
 0001:00025947       ?SetForegroundWindow@CWnd@@QAEHXZ 00426947 f i nafxcw:wincore.obj
 0001:00025951       ?DoDataExchange@CWnd@@MAEXPAVCDataExchange@@@Z 00426951 f i nafxcw:wincore.obj
 0001:00025954       ?BeginModalState@CWnd@@UAEXXZ 00426954 f i nafxcw:wincore.obj
 0001:00025960       ?EndModalState@CWnd@@UAEXXZ 00426960 f i nafxcw:wincore.obj
 0001:0002596c       ?GetScrollPos@CScrollBar@@QBEHXZ 0042696c f i nafxcw:wincore.obj
 0001:00025978       ?SetScrollPos@CScrollBar@@QAEHHH@Z 00426978 f i nafxcw:wincore.obj
 0001:0002598e       ?GetScrollRange@CScrollBar@@QBEXPAH0@Z 0042698e f i nafxcw:wincore.obj
 0001:000259a4       ?SetScrollRange@CScrollBar@@QAEXHHH@Z 004269a4 f i nafxcw:wincore.obj
 0001:000259be       ??0CWaitCursor@@QAE@XZ     004269be f i nafxcw:wincore.obj
 0001:000259d2       ??1CWaitCursor@@QAE@XZ     004269d2 f i nafxcw:wincore.obj
 0001:000259df       ?SetWindowLongPtrA@@YAJPAUHWND__@@HJ@Z 004269df f i nafxcw:wincore.obj
 0001:000259f2       ?GetWindowLongPtrA@@YAJPAUHWND__@@H@Z 004269f2 f i nafxcw:wincore.obj
 0001:00025a01       ?SetPermanent@CHandleMap@@QAEXPAXPAVCObject@@@Z 00426a01 f i nafxcw:wincore.obj
 0001:00025a16       ?RemoveHandle@CHandleMap@@QAEXPAX@Z 00426a16 f i nafxcw:wincore.obj
 0001:00025a1e       ??0CComObjectRootBase@ATL@@QAE@XZ 00426a1e f i nafxcw:wincore.obj
 0001:00025a24       ?FinalConstruct@CComObjectRootBase@ATL@@QAEJXZ 00426a24 f i nafxcw:wincore.obj
 0001:00025a27       ?_AtlFinalConstruct@CComObjectRootBase@ATL@@QAEJXZ 00426a27 f i nafxcw:wincore.obj
 0001:00025a2a       ?SetVoid@CComObjectRootBase@ATL@@QAEXPAX@Z 00426a2a f i nafxcw:wincore.obj
 0001:00025a2d       ?InternalFinalConstructAddRef@CComObjectRootBase@ATL@@QAEXXZ 00426a2d f i nafxcw:wincore.obj
 0001:00025a2e       ?InternalFinalConstructRelease@CComObjectRootBase@ATL@@QAEXXZ 00426a2e f i nafxcw:wincore.obj
 0001:00025a2f       ??0?$CComObjectRootEx@VCComSingleThreadModel@ATL@@@ATL@@QAE@XZ 00426a2f f i nafxcw:wincore.obj
 0001:00025a35       ??0IOleWindow@@QAE@XZ      00426a35 f i nafxcw:wincore.obj
 0001:00025a38       ?GetDescendantWindow@CWnd@@QBEPAV1@HH@Z 00426a38 f i nafxcw:wincore.obj
 0001:00025a4b       ?SetActiveWindow@CWnd@@QAEPAV1@XZ 00426a4b f i nafxcw:wincore.obj
 0001:00025a5b       ?GetLastActivePopup@CWnd@@QBEPAV1@XZ 00426a5b f i nafxcw:wincore.obj
 0001:00025a6b       ?GetForegroundWindow@CWnd@@SGPAV1@XZ 00426a6b f i nafxcw:wincore.obj
 0001:00025a78       ??0CAccessibleProxy@ATL@@QAE@XZ 00426a78 f i nafxcw:wincore.obj
 0001:00025a93       ?GetWindow@CAccessibleProxy@ATL@@UAGJPAPAUHWND__@@@Z 00426a93 f i nafxcw:wincore.obj
 0001:00025a98       ?ContextSensitiveHelp@CAccessibleProxy@ATL@@UAGJH@Z 00426a98 f i nafxcw:wincore.obj
 0001:00025aa0       ?FinalRelease@CAccessibleProxy@ATL@@QAEJXZ 00426aa0 f i nafxcw:wincore.obj
 0001:00025ab5       ?AtlInternalQueryInterface@ATL@@YGJPAXPBU_ATL_INTMAP_ENTRY@1@ABU_GUID@@PAPAX@Z 00426ab5 f i nafxcw:wincore.obj
 0001:00025b83       ?GetOwner@CWnd@@QBEPAV1@XZ 00426b83 f i nafxcw:wincore.obj
 0001:00025b9a       ?GetUpperBound@CPtrArray@@QBEHXZ 00426b9a f i nafxcw:arcobj.obj
 0001:00025b9f       ?GetAt@CPtrArray@@QBEPAXH@Z 00426b9f f i nafxcw:arcobj.obj
 0001:00025bbb       ?SetAt@CPtrArray@@QAEXHPAX@Z 00426bbb f i nafxcw:arcobj.obj
 0001:00025bdb       ??0CSize@@QAE@XZ           00426bdb f i nafxcw:wingdi.obj
 0001:00025bde       ??0CSize@@QAE@UtagSIZE@@@Z 00426bde f i nafxcw:wingdi.obj
 0001:00025bf0       ??0CRect@@QAE@HHHH@Z       00426bf0 f i nafxcw:wingdi.obj
 0001:00025c10       ?SwapLeftRight@CRect@@SGXPAUtagRECT@@@Z 00426c10 f i nafxcw:wingdi.obj
 0001:00025c21       ??0CResourceException@@QAE@HI@Z 00426c21 f i nafxcw:wingdi.obj
 0001:00025c43       ??1CResourceException@@UAE@XZ 00426c43 f i nafxcw:wingdi.obj
 0001:00025c4a       ??0CUserException@@QAE@HI@Z 00426c4a f i nafxcw:wingdi.obj
 0001:00025c6c       ??1CUserException@@UAE@XZ  00426c6c f i nafxcw:wingdi.obj
 0001:00025c73       ??0CGdiObject@@QAE@XZ      00426c73 f i nafxcw:wingdi.obj
 0001:00025c80       ?GetBitmap@CBitmap@@QAEHPAUtagBITMAP@@@Z 00426c80 f i nafxcw:wingdi.obj
 0001:00025c92       ?GetSafeHdc@CDC@@QBEPAUHDC__@@XZ 00426c92 f i nafxcw:wingdi.obj
 0001:00025c9d       ?GetViewportExt@CDC@@QBE?AVCSize@@XZ 00426c9d f i nafxcw:wingdi.obj
 0001:00025cc1       ?GetWindowExt@CDC@@QBE?AVCSize@@XZ 00426cc1 f i nafxcw:wingdi.obj
 0001:00025ce5       ?FillRect@CDC@@QAEXPBUtagRECT@@PAVCBrush@@@Z 00426ce5 f i nafxcw:wingdi.obj
 0001:00025d01       ?BitBlt@CDC@@QAEHHHHHPAV1@HHK@Z 00426d01 f i nafxcw:wingdi.obj
 0001:00025d31       ?GetPixel@CDC@@QBEKHH@Z    00426d31 f i nafxcw:wingdi.obj
 0001:00025d45       ?StartDocA@CDC@@QAEHPAU_DOCINFOA@@@Z 00426d45 f i nafxcw:wingdi.obj
 0001:00025d55       ?abs@@YAJJ@Z               00426d55 f i nafxcw:wingdi.obj
 0001:00025d5a       ?PtVisible@CDC@@UBEHHH@Z   00426d5a f i nafxcw:wingdi.obj
 0001:00025d6e       ?RectVisible@CDC@@UBEHPBUtagRECT@@@Z 00426d6e f i nafxcw:wingdi.obj
 0001:00025d7e       ?TextOutA@CDC@@UAEHHHPBDH@Z 00426d7e f i nafxcw:wingdi.obj
 0001:00025d9a       ?ExtTextOutA@CDC@@UAEHHHIPBUtagRECT@@PBDIPAH@Z 00426d9a f i nafxcw:wingdi.obj
 0001:00025dbf       ?TabbedTextOutA@CDC@@UAE?AVCSize@@HHPBDHHPAHH@Z 00426dbf f i nafxcw:wingdi.obj
 0001:00025df7       ?DrawTextA@CDC@@UAEHPBDHPAUtagRECT@@I@Z 00426df7 f i nafxcw:wingdi.obj
 0001:00025e13       ?DrawTextExA@CDC@@UAEHPADHPAUtagRECT@@IPAUtagDRAWTEXTPARAMS@@@Z 00426e13 f i nafxcw:wingdi.obj
 0001:00025e32       ?GrayStringA@CDC@@UAEHPAVCBrush@@P6GHPAUHDC__@@JH@ZJHHHHH@Z 00426e32 f i nafxcw:wingdi.obj
 0001:00025e62       ?Escape@CDC@@UAEHHHPBDPAX@Z 00426e62 f i nafxcw:wingdi.obj
 0001:00025e7e       ??_ECResourceException@@UAEPAXI@Z 00426e7e f i nafxcw:wingdi.obj
 0001:00025e7e       ??_GCResourceException@@UAEPAXI@Z 00426e7e f i nafxcw:wingdi.obj
 0001:00025e9a       ??_GCUserException@@UAEPAXI@Z 00426e9a f i nafxcw:wingdi.obj
 0001:00025e9a       ??_ECUserException@@UAEPAXI@Z 00426e9a f i nafxcw:wingdi.obj
 0001:00025eb6       ??1CGdiObject@@UAE@XZ      00426eb6 f i nafxcw:wingdi.obj
 0001:00025ec1       ??0CBrush@@QAE@XZ          00426ec1 f i nafxcw:wingdi.obj
 0001:00025ece       ??1CBrush@@UAE@XZ          00426ece f i nafxcw:wingdi.obj
 0001:00025ed9       ?CreatePatternBrush@CBrush@@QAEHPAVCBitmap@@@Z 00426ed9 f i nafxcw:wingdi.obj
 0001:00025efa       ?FromHandle@CFont@@SGPAV1@PAUHFONT__@@@Z 00426efa f i nafxcw:wingdi.obj
 0001:00025eff       ??0CBitmap@@QAE@XZ         00426eff f i nafxcw:wingdi.obj
 0001:00025f0c       ??1CBitmap@@UAE@XZ         00426f0c f i nafxcw:wingdi.obj
 0001:00025f17       ?CreateBitmap@CBitmap@@QAEHHHIIPBX@Z 00426f17 f i nafxcw:wingdi.obj
 0001:00025f3f       ?CreateCompatibleDC@CDC@@QAEHPAV1@@Z 00426f3f f i nafxcw:wingdi.obj
 0001:00025f60       ??_GCGdiObject@@UAEPAXI@Z  00426f60 f i nafxcw:wingdi.obj
 0001:00025f60       ??_ECGdiObject@@UAEPAXI@Z  00426f60 f i nafxcw:wingdi.obj
 0001:00025f7c       ??_ECPen@@UAEPAXI@Z        00426f7c f i nafxcw:wingdi.obj
 0001:00025f7c       ??_GCPen@@UAEPAXI@Z        00426f7c f i nafxcw:wingdi.obj
 0001:00025f98       ??1CPen@@UAE@XZ            00426f98 f i nafxcw:wingdi.obj
 0001:00025fa3       ??_GCBrush@@UAEPAXI@Z      00426fa3 f i nafxcw:wingdi.obj
 0001:00025fa3       ??_ECBrush@@UAEPAXI@Z      00426fa3 f i nafxcw:wingdi.obj
 0001:00025fbf       ??_ECBitmap@@UAEPAXI@Z     00426fbf f i nafxcw:wingdi.obj
 0001:00025fbf       ??_GCBitmap@@UAEPAXI@Z     00426fbf f i nafxcw:wingdi.obj
 0001:00025fdb       ?SelectObject@CDC@@QAEPAVCBitmap@@PAV2@@Z 00426fdb f i nafxcw:wingdi.obj
 0001:00025ff2       ??0CFixedAllocNoSync@@QAE@II@Z 00426ff2 f   nafxcw:fixalloc.obj
 0001:0002601c       ?FreeAll@CFixedAllocNoSync@@QAEXXZ 0042701c f   nafxcw:fixalloc.obj
 0001:00026031       ?Free@CFixedAllocNoSync@@QAEXPAX@Z 00427031 f   nafxcw:fixalloc.obj
 0001:00026044       ??1CFixedAllocNoSync@@QAE@XZ 00427044 f   nafxcw:fixalloc.obj
 0001:00026049       ?Alloc@CFixedAllocNoSync@@QAEPAXXZ 00427049 f   nafxcw:fixalloc.obj
 0001:0002608a       ??0CFixedAlloc@@QAE@II@Z   0042708a f   nafxcw:fixalloc.obj
 0001:000260aa       ??1CFixedAlloc@@QAE@XZ     004270aa f   nafxcw:fixalloc.obj
 0001:000260bf       ?FreeAll@CFixedAlloc@@QAEXXZ 004270bf f   nafxcw:fixalloc.obj
 0001:0002612c       ?Alloc@CFixedAlloc@@QAEPAXXZ 0042712c f   nafxcw:fixalloc.obj
 0001:0002618a       ?Free@CFixedAlloc@@QAEXPAX@Z 0042718a f   nafxcw:fixalloc.obj
 0001:00026201       ??0CRect@@QAE@ABUtagRECT@@@Z 00427201 f i nafxcw:winmenu.obj
 0001:00026215       ?InflateRect@CRect@@QAEXHH@Z 00427215 f i nafxcw:winmenu.obj
 0001:00026227       ?GetObjectA@CGdiObject@@QBEHHPAX@Z 00427227 f i nafxcw:winmenu.obj
 0001:0002623b       ??0CFont@@QAE@XZ           0042723b f i nafxcw:winmenu.obj
 0001:00026248       ??1CFont@@UAE@XZ           00427248 f i nafxcw:winmenu.obj
 0001:00026253       ?CreateFontIndirectA@CFont@@QAEHPBUtagLOGFONTA@@@Z 00427253 f i nafxcw:winmenu.obj
 0001:0002626c       ??0CMenu@@QAE@XZ           0042726c f i nafxcw:winmenu.obj
 0001:00026279       ?GetMenuItemInfoA@CMenu@@QAEHIPAUtagMENUITEMINFOA@@H@Z 00427279 f i nafxcw:winmenu.obj
 0001:00026291       ??_ECFont@@UAEPAXI@Z       00427291 f i nafxcw:winmenu.obj
 0001:00026291       ??_GCFont@@UAEPAXI@Z       00427291 f i nafxcw:winmenu.obj
 0001:000262ad       ?ExtTextOutA@CDC@@QAEHHHIPBUtagRECT@@ABV?$CStringT@DV?$StrTraitMFC@DV?$ChTraitsCRT@D@ATL@@@@@ATL@@PAH@Z 004272ad f i nafxcw:winmenu.obj
 0001:000262d6       ?GetTextExtent@CDC@@QBE?AVCSize@@ABV?$CStringT@DV?$StrTraitMFC@DV?$ChTraitsCRT@D@ATL@@@@@ATL@@@Z 004272d6 f i nafxcw:winmenu.obj
 0001:00026303       ??1CMenu@@UAE@XZ           00427303 f i nafxcw:winmenu.obj
 0001:0002630e       ??_GCMenu@@UAEPAXI@Z       0042730e f i nafxcw:winmenu.obj
 0001:0002630e       ??_ECMenu@@UAEPAXI@Z       0042730e f i nafxcw:winmenu.obj
 0001:0002632a       ?T2CA@@YAPBDPBD@Z          0042732a f i nafxcw:appcore.obj
 0001:0002632f       ?SetResourceInstance@CAtlBaseModule@ATL@@QAEPAUHINSTANCE__@@PAU3@@Z 0042732f f i nafxcw:appcore.obj
 0001:00026340       ?AfxSetResourceHandle@@YGXPAUHINSTANCE__@@@Z 00427340 f i nafxcw:appcore.obj
 0001:0002634f       ?GetSize@CPtrArray@@QBEHXZ 0042734f f i nafxcw:array_p.obj
 0001:00026353       ?IntersectRect@CRect@@QAEHPBUtagRECT@@0@Z 00427353 f i nafxcw:wingdix.obj
 0001:00026365       ?FromHandle@CBrush@@SGPAV1@PAUHBRUSH__@@@Z 00427365 f i nafxcw:wingdix.obj
 0001:0002636a       ??0CRgn@@QAE@XZ            0042736a f i nafxcw:wingdix.obj
 0001:00026377       ??1CRgn@@UAE@XZ            00427377 f i nafxcw:wingdix.obj
 0001:00026382       ?CreateRectRgn@CRgn@@QAEHHHHH@Z 00427382 f i nafxcw:wingdix.obj
 0001:000263a7       ?CreateRectRgnIndirect@CRgn@@QAEHPBUtagRECT@@@Z 004273a7 f i nafxcw:wingdix.obj
 0001:000263c0       ?SetRectRgn@CRgn@@QAEXPBUtagRECT@@@Z 004273c0 f i nafxcw:wingdix.obj
 0001:000263db       ?CombineRgn@CRgn@@QAEHPAV1@0H@Z 004273db f i nafxcw:wingdix.obj
 0001:00026407       ?GetDeviceCaps@CDC@@QBEHH@Z 00427407 f i nafxcw:wingdix.obj
 0001:00026417       ?GetMapMode@CDC@@QBEHXZ    00427417 f i nafxcw:wingdix.obj
 0001:00026421       ?PatBlt@CDC@@QAEHHHHHK@Z   00427421 f i nafxcw:wingdix.obj
 0001:00026440       ??_ECRgn@@UAEPAXI@Z        00427440 f i nafxcw:wingdix.obj
 0001:00026440       ??_GCRgn@@UAEPAXI@Z        00427440 f i nafxcw:wingdix.obj
 0001:0002645c       ?ShowOwnedPopups@CWnd@@QAEXH@Z 0042745c f i nafxcw:appui.obj
 0001:0002646c       ??ACRecentFileList@@QAEAAV?$CStringT@DV?$StrTraitMFC@DV?$ChTraitsCRT@D@ATL@@@@@ATL@@H@Z 0042746c f i nafxcw:appui.obj
 0001:00026479       ?DeleteMenu@CMenu@@QAEHII@Z 00427479 f i nafxcw:filelist.obj
 0001:0002648d       ?InsertMenuA@CMenu@@QAEHIIIPBD@Z 0042748d f i nafxcw:filelist.obj
 0001:000264a9       ?GetBuffer@?$CSimpleStringT@D$0A@@ATL@@QAEPADXZ 004274a9 f i nafxcw:appui2.obj
 0001:000264c3       ?GetFileTitle@@YGFPBDPADG@Z 004274c3 f i nafxcw:filecore.obj
 0001:000264c9       ??1CFileException@@UAE@XZ  004274c9 f i nafxcw:filecore.obj
 0001:000264da       ??_ECFileException@@UAEPAXI@Z 004274da f i nafxcw:filecore.obj
 0001:000264da       ??_GCFileException@@UAEPAXI@Z 004274da f i nafxcw:filecore.obj
 0001:000264f6       ??0CFileException@@QAE@HJPBD@Z 004274f6 f i nafxcw:filecore.obj
 0001:00026549       ?SetFilePath@CFile@@UAEXPBD@Z 00427549 f i nafxcw:filecore.obj
 0001:0002655e       __tcsdec                   0042755e f i nafxcw:docmgr.obj
 0001:00026563       ??_9@$BBEM@AE              00427563 f i nafxcw:docmgr.obj
 0001:0002656b       ?GetCount@CPtrList@@QBEHXZ 0042756b f i nafxcw:docmgr.obj
 0001:0002656f       ?GetHead@CPtrList@@QAEAAPAXXZ 0042756f f i nafxcw:docmgr.obj
 0001:00026576       ?IsIconic@CWnd@@QBEHXZ     00427576 f i nafxcw:docmgr.obj
 0001:00026580       ?Create@CDialog@@UAEHIPAVCWnd@@@Z 00427580 f i nafxcw:docmgr.obj
 0001:00026595       ?GetCount@CListBox@@QBEHXZ 00427595 f i nafxcw:docmgr.obj
 0001:000265a8       ?GetCurSel@CListBox@@QBEHXZ 004275a8 f i nafxcw:docmgr.obj
 0001:000265bb       ?SetCurSel@CListBox@@QAEHH@Z 004275bb f i nafxcw:docmgr.obj
 0001:000265d2       ?SetItemData@CListBox@@QAEHHK@Z 004275d2 f i nafxcw:docmgr.obj
 0001:000265eb       ?GetItemDataPtr@CListBox@@QBEPAXH@Z 004275eb f i nafxcw:docmgr.obj
 0001:00026602       ?SetItemDataPtr@CListBox@@QAEHHPAX@Z 00427602 f i nafxcw:docmgr.obj
 0001:00026607       ?AddString@CListBox@@QAEHPBD@Z 00427607 f i nafxcw:docmgr.obj
 0001:0002661e       ?ResetContent@CListBox@@QAEXXZ 0042761e f i nafxcw:docmgr.obj
 0001:00026631       ?Append@?$CSimpleStringT@D$0A@@ATL@@QAEXABV12@@Z 00427631 f i nafxcw:docmgr.obj
 0001:00026643       ?IsValidFILETIME@CTime@ATL@@SGHABU_FILETIME@@@Z 00427643 f i nafxcw:filest.obj
 0001:00026672       ??0CTime@ATL@@QAE@XZ       00427672 f i nafxcw:filest.obj
 0001:0002667c       ??0CTime@ATL@@QAE@HHHHHHH@Z 0042767c f i nafxcw:filest.obj
 0001:000266dc       ??0CTime@ATL@@QAE@ABU_SYSTEMTIME@@H@Z 004276dc f i nafxcw:filest.obj
 0001:00026734       ??0CTime@ATL@@QAE@ABU_FILETIME@@H@Z 00427734 f i nafxcw:filest.obj
 0001:00026792       ??4CTime@ATL@@QAEAAV01@_J@Z 00427792 f i nafxcw:filest.obj
 0001:000267a4       ?GetLocalTm@CTime@ATL@@QBEPAUtm@@PAU3@@Z 004277a4 f i nafxcw:filest.obj
 0001:000267cb       ?GetTime@CTime@ATL@@QBE_JXZ 004277cb f i nafxcw:filest.obj
 0001:000267d1       ?GetYear@CTime@ATL@@QBEHXZ 004277d1 f i nafxcw:filest.obj
 0001:000267e8       ?GetMonth@CTime@ATL@@QBEHXZ 004277e8 f i nafxcw:filest.obj
 0001:000267fb       ?GetDay@CTime@ATL@@QBEHXZ  004277fb f i nafxcw:filest.obj
 0001:0002680d       ?GetHour@CTime@ATL@@QBEHXZ 0042780d f i nafxcw:filest.obj
 0001:00026820       ?GetMinute@CTime@ATL@@QBEHXZ 00427820 f i nafxcw:filest.obj
 0001:00026833       ?GetSecond@CTime@ATL@@QBEHXZ 00427833 f i nafxcw:filest.obj
 0001:00026845       ??_9@$BBFA@AE              00427845 f i nafxcw:dlgcore.obj
 0001:0002684d       ?GetNextDlgTabItem@CWnd@@QBEPAV1@PAV1@H@Z 0042784d f i nafxcw:dlgcore.obj
 0001:0002686f       ??1CCommonDialog@@UAE@XZ   0042786f f i nafxcw:dlgfile.obj
 0001:00026874       ??0CCommonDialog@@QAE@PAVCWnd@@@Z 00427874 f i nafxcw:dlgfile.obj
 0001:000268b9       @__security_check_cookie@4 004278b9 f   libcmt:secchk.obj
 0001:000268c7       _atol                      004278c7 f   libcmt:atox.obj
 0001:0002694f       _atoi                      0042794f f   libcmt:atox.obj
 0001:00026954       __atoi64                   00427954 f   libcmt:atox.obj
 0001:000269fb       __mbscmp                   004279fb f   libcmt:mbscmp.obj
 0001:00026a90       _memmove                   00427a90 f   libcmt:memmove.obj
 0001:00026dcd       __time64                   00427dcd f   libcmt:time64.obj
 0001:00026e09       ?_JumpToContinuation@@YGXPAXPAUEHRegistrationNode@@@Z 00427e09 f   libcmt:trnsctrl.obj
 0001:00026e39       ?_CallMemberFunction0@@YGXPAX0@Z 00427e39 f   libcmt:trnsctrl.obj
 0001:00026e40       ?_CallMemberFunction1@@YGXPAX00@Z 00427e40 f   libcmt:trnsctrl.obj
 0001:00026e47       ?_CallMemberFunction2@@YGXPAX00H@Z 00427e47 f   libcmt:trnsctrl.obj
 0001:00026e4e       ?_UnwindNestedFrames@@YGXPAUEHRegistrationNode@@PAUEHExceptionRecord@@@Z 00427e4e f   libcmt:trnsctrl.obj
 0001:00026ea0       ___CxxFrameHandler         00427ea0 f   libcmt:trnsctrl.obj
 0001:00026ed6       ___CxxLongjmpUnwind@4      00427ed6 f   libcmt:trnsctrl.obj
 0001:00026f2b       ?_CallSETranslator@@YAHPAUEHExceptionRecord@@PAUEHRegistrationNode@@PAX2PBU_s_FuncInfo@@H1@Z 00427f2b f   libcmt:trnsctrl.obj
 0001:000270a4       ?_GetRangeOfTrysToCheck@@YAPBU_s_TryBlockMapEntry@@PBU_s_FuncInfo@@HHPAI1@Z 004280a4 f   libcmt:trnsctrl.obj
 0001:0002711e       ?_CreateFrameInfo@@YAPAUFrameInfo@@PAU1@PAX@Z 0042811e f   libcmt:trnsctrl.obj
 0001:00027146       ?IsExceptionObjectToBeDestroyed@@YAHPAX@Z 00428146 f   libcmt:trnsctrl.obj
 0001:00027167       ?_FindAndUnlinkFrame@@YAXPAUFrameInfo@@@Z 00428167 f   libcmt:trnsctrl.obj
 0001:000271b3       ?_CallCatchBlock2@@YAPAXPAUEHRegistrationNode@@PBU_s_FuncInfo@@PAXHK@Z 004281b3 f   libcmt:trnsctrl.obj
 0001:0002720c       __global_unwind2           0042820c f   libcmt:exsup.obj
 0001:0002724e       __local_unwind2            0042824e f   libcmt:exsup.obj
 0001:000272a6       __NLG_Return2              004282a6     libcmt:exsup.obj
 0001:000272b6       __abnormal_termination     004282b6 f   libcmt:exsup.obj
 0001:000272d9       __NLG_Notify1              004282d9 f   libcmt:exsup.obj
 0001:000272e2       __NLG_Notify               004282e2 f   libcmt:exsup.obj
 0001:000272f5       __NLG_Dispatch             004282f5     libcmt:exsup.obj
 0001:000272fa       __Getdays                  004282fa f   libcmt:strftime.obj
 0001:00027379       __Getmonths                00428379 f   libcmt:strftime.obj
 0001:0002740e       __Gettnames                0042840e f   libcmt:strftime.obj
 0001:00027e00       __Strftime_mt              00428e00 f   libcmt:strftime.obj
 0001:00027ec3       __Strftime                 00428ec3 f   libcmt:strftime.obj
 0001:00027ef5       _strftime                  00428ef5 f   libcmt:strftime.obj
 0001:00027f10       __localtime64              00428f10 f   libcmt:loctim64.obj
 0001:00028120       __chkstk                   00429120 f   libcmt:chkstk.obj
 0001:00028120       __alloca_probe             00429120     libcmt:chkstk.obj
 0001:0002815d       __CxxThrowException@8      0042915d f   libcmt:throw.obj
 0001:00028197       ??0exception@@QAE@XZ       00429197 f   libcmt:stdexcpt.obj
 0001:000281a8       ??0exception@@QAE@ABQBD@Z  004291a8 f   libcmt:stdexcpt.obj
 0001:000281f0       ??0exception@@QAE@ABV0@@Z  004291f0 f   libcmt:stdexcpt.obj
 0001:00028242       ??1exception@@UAE@XZ       00429242 f   libcmt:stdexcpt.obj
 0001:00028258       ?what@exception@@UBEPBDXZ  00429258 f   libcmt:stdexcpt.obj
 0001:00028265       ??0bad_cast@@QAE@PBD@Z     00429265 f   libcmt:stdexcpt.obj
 0001:0002827e       ??0bad_cast@@QAE@ABV0@@Z   0042927e f   libcmt:stdexcpt.obj
 0001:00028296       ??1bad_cast@@UAE@XZ        00429296 f   libcmt:stdexcpt.obj
 0001:000282a1       ??0bad_typeid@@QAE@PBD@Z   004292a1 f   libcmt:stdexcpt.obj
 0001:000282ba       ??0bad_typeid@@QAE@ABV0@@Z 004292ba f   libcmt:stdexcpt.obj
 0001:000282d2       ??1bad_typeid@@UAE@XZ      004292d2 f   libcmt:stdexcpt.obj
 0001:000282dd       ??0__non_rtti_object@@QAE@PBD@Z 004292dd f   libcmt:stdexcpt.obj
 0001:000282f5       ??0__non_rtti_object@@QAE@ABV0@@Z 004292f5 f   libcmt:stdexcpt.obj
 0001:0002830d       ??1__non_rtti_object@@UAE@XZ 0042930d f   libcmt:stdexcpt.obj
 0001:00028318       ??_Eexception@@UAEPAXI@Z   00429318 f i libcmt:stdexcpt.obj
 0001:00028318       ??_Gexception@@UAEPAXI@Z   00429318 f i libcmt:stdexcpt.obj
 0001:00028334       ??4exception@@QAEAAV0@ABV0@@Z 00429334 f   libcmt:stdexcpt.obj
 0001:00028353       ??_Gbad_cast@@UAEPAXI@Z    00429353 f i libcmt:stdexcpt.obj
 0001:00028353       ??_Ebad_cast@@UAEPAXI@Z    00429353 f i libcmt:stdexcpt.obj
 0001:0002836f       ??_Ebad_typeid@@UAEPAXI@Z  0042936f f i libcmt:stdexcpt.obj
 0001:0002836f       ??_Gbad_typeid@@UAEPAXI@Z  0042936f f i libcmt:stdexcpt.obj
 0001:0002838b       ??_G__non_rtti_object@@UAEPAXI@Z 0042938b f i libcmt:stdexcpt.obj
 0001:0002838b       ??_E__non_rtti_object@@UAEPAXI@Z 0042938b f i libcmt:stdexcpt.obj
 0001:000283a7       ??1type_info@@UAE@XZ       004293a7 f   libcmt:typinfo.obj
 0001:000283ed       ??_Etype_info@@UAEPAXI@Z   004293ed f i libcmt:typinfo.obj
 0001:000283ed       ??_Gtype_info@@UAEPAXI@Z   004293ed f i libcmt:typinfo.obj
 0001:00028409       ??8type_info@@QBEHABV0@@Z  00429409 f   libcmt:typinfo.obj
 0001:00028424       ??9type_info@@QBEHABV0@@Z  00429424 f   libcmt:typinfo.obj
 0001:00028440       ?before@type_info@@QBEHABV1@@Z 00429440 f   libcmt:typinfo.obj
 0001:0002845f       ?raw_name@type_info@@QBEPBDXZ 0042945f f   libcmt:typinfo.obj
 0001:00028463       ??0type_info@@AAE@ABV0@@Z  00429463 f   libcmt:typinfo.obj
 0001:0002846e       ??4type_info@@AAEAAV0@ABV0@@Z 0042946e f   libcmt:typinfo.obj
 0001:000284f3       ___onexitinit              004294f3 f   libcmt:onexit.obj
 0001:0002851b       __onexit                   0042951b f   libcmt:onexit.obj
 0001:00028553       _atexit                    00429553 f   libcmt:onexit.obj
 0001:00028565       __fpclear                  00429565 f   libcmt:fpinit.obj
 0001:00028566       __cfltcvt_init             00429566 f   libcmt:fpinit.obj
 0001:0002859e       ___setfflag                0042959e f   libcmt:fpinit.obj
 0001:000285ae       __fpmath                   004295ae f   libcmt:fpinit.obj
 0001:000285cc       __fclose_lk                004295cc f   libcmt:fclose.obj
 0001:00028618       _fclose                    00429618 f   libcmt:fclose.obj
 0001:00028669       _fprintf                   00429669 f   libcmt:fprintf.obj
 0001:000286c7       __fsopen                   004296c7 f   libcmt:fopen.obj
 0001:00028723       _fopen                     00429723 f   libcmt:fopen.obj
 0001:00028736       __heap_alloc               00429736 f   libcmt:malloc.obj
 0001:000287b1       __nh_malloc                004297b1 f   libcmt:malloc.obj
 0001:000287dd       _malloc                    004297dd f   libcmt:malloc.obj
 0001:000287ef       _free                      004297ef f   libcmt:free.obj
 0001:00028860       __resetstkoflw             00429860 f   libcmt:resetstk.obj
 0001:0002894c       __except_handler3          0042994c f   libcmt:exsup3.obj
 0001:00028a32       __seh_longjmp_unwind@4     00429a32 f   libcmt:exsup3.obj
 0001:00028a4d       _wcscat                    00429a4d f   libcmt:wcscat.obj
 0001:00028a77       _wcscpy                    00429a77 f   libcmt:wcscat.obj
 0001:00028a93       __mbsstr                   00429a93 f   libcmt:mbsstr.obj
 0001:00028b45       __mbsupr                   00429b45 f   libcmt:mbsupr.obj
 0001:00028bca       _sprintf                   00429bca f   libcmt:sprintf.obj
 0001:00028c22       __scprintf                 00429c22 f   libcmt:sprintf.obj
 0001:00028c53       __purecall                 00429c53 f   libcmt:purevirt.obj
 0001:00028c67       __set_purecall_handler     00429c67 f   libcmt:purevirt.obj
 0001:00028c77       __endthreadex              00429c77 f   libcmt:threadex.obj
 0001:00028d3d       __beginthreadex            00429d3d f   libcmt:threadex.obj
 0001:00028dc8       __vsnprintf                00429dc8 f   libcmt:vsnprint.obj
 0001:00028e20       __alldiv                   00429e20 f   libcmt:lldiv.obj
 0001:00028eca       __mbsnbcpy                 00429eca f   libcmt:mbsnbcpy.obj
 0001:00028f5d       __mbsrchr                  00429f5d f   libcmt:mbsrchr.obj
 0001:00028fd0       _strncpy                   00429fd0 f   libcmt:strncpy.obj
 0001:000290f4       __snprintf                 0042a0f4 f   libcmt:snprintf.obj
 0001:0002914b       _sscanf                    0042a14b f   libcmt:sscanf.obj
 0001:0002917f       __fread_lk                 0042a17f f   libcmt:fread.obj
 0001:00029268       _fread                     0042a268 f   libcmt:fread.obj
 0001:000292b4       __fseek_lk                 0042a2b4 f   libcmt:fseek.obj
 0001:00029343       _fseek                     0042a343 f   libcmt:fseek.obj
 0001:0002938c       __findclose                0042a38c f   libcmt:findfile.obj
 0001:000293ac       ___timet_from_ft           0042a3ac f   libcmt:findfile.obj
 0001:00029410       __findfirst                0042a410 f   libcmt:findfile.obj
 0001:000294f2       __findnext                 0042a4f2 f   libcmt:findfile.obj
 0001:000295cf       __fwrite_lk                0042a5cf f   libcmt:fwrite.obj
 0001:000296d6       _fwrite                    0042a6d6 f   libcmt:fwrite.obj
 0001:00029722       _wcslen                    0042a722 f   libcmt:wcslen.obj
 0001:00029750       _strchr                    0042a750 f   libcmt:strchr.obj
 0001:00029756       ___from_strstr_to_strchr   0042a756     libcmt:strchr.obj
 0001:0002980e       __mbslwr                   0042a80e f   libcmt:mbslwr.obj
 0001:00029893       __flush                    0042a893 f   libcmt:fflush.obj
 0001:000298f0       __fflush_lk                0042a8f0 f   libcmt:fflush.obj
 0001:000299f3       _fflush                    0042a9f3 f   libcmt:fflush.obj
 0001:00029a43       __flushall                 0042aa43 f   libcmt:fflush.obj
 0001:00029a4c       _fgetc                     0042aa4c f   libcmt:fgetc.obj
 0001:00029a9c       _getc                      0042aa9c f   libcmt:fgetc.obj
 0001:00029aec       __getwc_lk                 0042aaec f   libcmt:fgetwc.obj
 0001:00029be0       _fgetwc                    0042abe0 f   libcmt:fgetwc.obj
 0001:00029c22       _getwc                     0042ac22 f   libcmt:fgetwc.obj
 0001:00029c27       __ftell_lk                 0042ac27 f   libcmt:ftell.obj
 0001:00029d89       _ftell                     0042ad89 f   libcmt:ftell.obj
 0001:00029dca       _vsprintf                  0042adca f   libcmt:vsprintf.obj
 0001:00029e21       __vscprintf                0042ae21 f   libcmt:vsprintf.obj
 0001:00029e51       __filelength               0042ae51 f   libcmt:flength.obj
 0001:00029f25       _atof                      0042af25 f   libcmt:atof.obj
 0001:00029f60       __allshl                   0042af60 f   libcmt:llshl.obj
 0001:00029f7f       _isleadbyte                0042af7f f   libcmt:_wctype.obj
 0001:00029f94       _iswalpha                  0042af94 f   libcmt:_wctype.obj
 0001:00029fa5       _iswupper                  0042afa5 f   libcmt:_wctype.obj
 0001:00029fb3       _iswlower                  0042afb3 f   libcmt:_wctype.obj
 0001:00029fc1       _iswdigit                  0042afc1 f   libcmt:_wctype.obj
 0001:00029fcf       _iswxdigit                 0042afcf f   libcmt:_wctype.obj
 0001:00029fe0       _iswspace                  0042afe0 f   libcmt:_wctype.obj
 0001:00029fee       _iswpunct                  0042afee f   libcmt:_wctype.obj
 0001:00029ffc       _iswalnum                  0042affc f   libcmt:_wctype.obj
 0001:0002a00d       _iswprint                  0042b00d f   libcmt:_wctype.obj
 0001:0002a01e       _iswgraph                  0042b01e f   libcmt:_wctype.obj
 0001:0002a02f       _iswcntrl                  0042b02f f   libcmt:_wctype.obj
 0001:0002a03d       _iswascii                  0042b03d f   libcmt:_wctype.obj
 0001:0002a04c       __ftol2                    0042b04c f   libcmt:ftol2.obj
 0001:0002a0c1       _srand                     0042b0c1 f   libcmt:rand.obj
 0001:0002a0ce       _rand                      0042b0ce f   libcmt:rand.obj
 0001:0002a0f0       __mbsinc                   0042b0f0 f   libcmt:mbsinc.obj
 0001:0002a10c       __ismbcspace               0042b10c f   libcmt:ismbspc.obj
 0001:0002a190       __amsg_exit                0042b190 f   libcmt:wincrt0.obj
 0001:0002a22f       _WinMainCRTStartup         0042b22f f   libcmt:wincrt0.obj
 0001:0002a410       _memcpy                    0042b410 f   libcmt:memcpy.obj
 0001:0002a750       _strlen                    0042b750 f   libcmt:strlen.obj
 0001:0002a7dc       __EH_prolog                0042b7dc f   libcmt:ehprolog.obj
 0001:0002a7fb       _swprintf                  0042b7fb f   libcmt:swprintf.obj
 0001:0002a86a       __scwprintf                0042b86a f   libcmt:swprintf.obj
 0001:0002a89b       __mbschr                   0042b89b f   libcmt:mbschr.obj
 0001:0002a916       _realloc                   0042b916 f   libcmt:realloc.obj
 0001:0002aac8       __SEH_prolog               0042bac8 f   libcmt:sehprolg.obj
 0001:0002ab03       __SEH_epilog               0042bb03 f   libcmt:sehprolg.obj
 0001:0002ab20       _memset                    0042bb20 f   libcmt:memset.obj
 0001:0002ab92       ?__ArrayUnwind@@YGXPAXIHP6EX0@Z@Z 0042bb92 f   libcmt:ehvecdtr.obj
 0001:0002abf0       ??_M@YGXPAXIHP6EX0@Z@Z     0042bbf0 f   libcmt:ehvecdtr.obj
 0001:0002ac50       _memcmp                    0042bc50 f   libcmt:memcmp.obj
 0001:0002ad08       _labs                      0042bd08 f   libcmt:labs.obj
 0001:0002ad20       __allmul                   0042bd20 f   libcmt:llmul.obj
 0001:0002ad54       __expand                   0042bd54 f   libcmt:expand.obj
 0001:0002adfe       __msize                    0042bdfe f   libcmt:msize.obj
 0001:0002b0ad       ___updatetmbcinfo          0042c0ad f   libcmt:mbctype.obj
 0001:0002b2b0       __getmbcp                  0042c2b0 f   libcmt:mbctype.obj
 0001:0002b2c0       __setmbcp                  0042c2c0 f   libcmt:mbctype.obj
 0001:0002b410       ___initmbctable            0042c410 f   libcmt:mbctype.obj
 0001:0002b42e       ___crtExitProcess          0042c42e f   libcmt:crt0dat.obj
 0001:0002b45e       __lockexit                 0042c45e f   libcmt:crt0dat.obj
 0001:0002b467       __unlockexit               0042c467 f   libcmt:crt0dat.obj
 0001:0002b4a6       __cinit                    0042c4a6 f   libcmt:crt0dat.obj
 0001:0002b5d3       _exit                      0042c5d3 f   libcmt:crt0dat.obj
 0001:0002b5e4       __exit                     0042c5e4 f   libcmt:crt0dat.obj
 0001:0002b5f5       __cexit                    0042c5f5 f   libcmt:crt0dat.obj
 0001:0002b604       __c_exit                   0042c604 f   libcmt:crt0dat.obj
 0001:0002b613       __strdup                   0042c613 f   libcmt:strdup.obj
 0001:0002b63e       ??_L@YGXPAXIHP6EX0@Z1@Z    0042c63e f   libcmt:ehvecctr.obj
 0001:0002b6a0       __errno                    0042c6a0 f   libcmt:dosmap.obj
 0001:0002b6a9       ___doserrno                0042c6a9 f   libcmt:dosmap.obj
 0001:0002b6b2       __dosmaperr                0042c6b2 f   libcmt:dosmap.obj
 0001:0002b725       __mbsdec                   0042c725 f   libcmt:mbsdec.obj
 0001:0002b774       ___mbsspn_mt               0042c774 f   libcmt:mbsspn.obj
 0001:0002b7eb       __mbsspn                   0042c7eb f   libcmt:mbsspn.obj
 0001:0002b812       ___mbscspn_mt              0042c812 f   libcmt:mbscspn.obj
 0001:0002b889       __mbscspn                  0042c889 f   libcmt:mbscspn.obj
 0001:0002bb00       __mktime64                 0042cb00 f   libcmt:mktime64.obj
 0001:0002bb0d       __mkgmtime64               0042cb0d f   libcmt:mktime64.obj
 0001:0002bb1a       ___security_init_cookie    0042cb1a f   libcmt:seccinit.obj
 0001:0002bb80       ___security_error_handler  0042cb80 f   libcmt:secfail.obj
 0001:0002bccb       __set_security_error_handler 0042cccb f   libcmt:secfail.obj
 0001:0002bcdb       ___buffer_overrun          0042ccdb f   libcmt:secfail.obj
 0001:0002bce7       ___set_buffer_overrun_handler 0042cce7 f   libcmt:secfail.obj
 0001:0002bcf7       ___isctype_mt              0042ccf7 f   libcmt:isctype.obj
 0001:0002bd6e       __isctype                  0042cd6e f   libcmt:isctype.obj
 0001:0002bd95       ____setlc_active_func      0042cd95 f   libcmt:setlocal.obj
 0001:0002bd9b       ____unguarded_readlc_active_add_func 0042cd9b f   libcmt:setlocal.obj
 0001:0002bda1       ___freetlocinfo            0042cda1 f   libcmt:setlocal.obj
 0001:0002bf32       ___init_dummy              0042cf32 f   libcmt:setlocal.obj
 0001:0002bf35       __strcats                  0042cf35 f   libcmt:setlocal.obj
 0001:0002bf59       ___lc_strtolc              0042cf59 f   libcmt:setlocal.obj
 0001:0002c035       ___lc_lctostr              0042d035 f   libcmt:setlocal.obj
 0001:0002c083       ___updatetlocinfo          0042d083 f   libcmt:setlocal.obj
 0001:0002c198       __expandlocale             0042d198 f   libcmt:setlocal.obj
 0001:0002c769       _setlocale                 0042d769 f   libcmt:setlocal.obj
 0001:0002c8c3       ___crtTlsAlloc@4           0042d8c3 f   libcmt:tidtable.obj
 0001:0002c8cc       __mtterm                   0042d8cc f   libcmt:tidtable.obj
 0001:0002c8e9       __initptd                  0042d8e9 f   libcmt:tidtable.obj
 0001:0002c8fc       __getptd                   0042d8fc f   libcmt:tidtable.obj
 0001:0002c96d       __freefls@4                0042d96d f   libcmt:tidtable.obj
 0001:0002cab4       __freeptd                  0042dab4 f   libcmt:tidtable.obj
 0001:0002cae3       ___threadid                0042dae3 f   libcmt:tidtable.obj
 0001:0002cae9       ___threadhandle            0042dae9 f   libcmt:tidtable.obj
 0001:0002caef       __mtinit                   0042daef f   libcmt:tidtable.obj
 0001:0002cbe0       _strcmp                    0042dbe0 f   libcmt:strcmp.obj
 0001:0002cc70       __aulldiv                  0042dc70 f   libcmt:ulldiv.obj
 0001:0002cd45       ___FrameUnwindToState      0042dd45 f   libcmt:frame.obj
 0001:0002ce43       ___DestructExceptionObject 0042de43 f   libcmt:frame.obj
 0001:0002cea7       ?__uncaught_exception@@YA_NXZ 0042dea7 f   libcmt:frame.obj
 0001:0002ceba       ___CxxRegisterExceptionObject 0042deba f   libcmt:frame.obj
 0001:0002cf5d       ___CxxDetectRethrow        0042df5d f   libcmt:frame.obj
 0001:0002cf95       ___CxxUnregisterExceptionObject 0042df95 f   libcmt:frame.obj
 0001:0002d033       ___CxxQueryExceptionSize   0042e033 f   libcmt:frame.obj
 0001:0002d037       ___CxxCallUnwindDtor       0042e037 f   libcmt:frame.obj
 0001:0002d065       ___CxxCallUnwindVecDtor    0042e065 f   libcmt:frame.obj
 0001:0002d3dc       ___CxxExceptionFilter      0042e3dc f   libcmt:frame.obj
 0001:0002d82a       ___InternalCxxFrameHandler 0042e82a f   libcmt:frame.obj
 0001:0002d8cc       ?terminate@@YAXXZ          0042e8cc f   libcmt:hooks.obj
 0001:0002d901       ?unexpected@@YAXXZ         0042e901 f   libcmt:hooks.obj
 0001:0002d919       ?_inconsistency@@YAXXZ     0042e919 f   libcmt:hooks.obj
 0001:0002d950       __CallSettingFrame@12      0042e950 f   libcmt:lowhelpr.obj
 0001:0002d977       __NLG_Return               0042e977     libcmt:lowhelpr.obj
 0001:0002d9a0       _strcpy                    0042e9a0 f   libcmt:strcat.obj
 0001:0002d9b0       _strcat                    0042e9b0 f   libcmt:strcat.obj
 0001:0002e07f       ___tzset                   0042f07f f   libcmt:tzset.obj
 0001:0002e0cb       __tzset                    0042f0cb f   libcmt:tzset.obj
 0001:0002e100       __isindst                  0042f100 f   libcmt:tzset.obj
 0001:0002e140       ___ascii_stricmp           0042f140 f   libcmt:_stricmp.obj
 0001:0002e18e       __gmtime64                 0042f18e f   libcmt:gmtime64.obj
 0001:0002e3c0       __allrem                   0042f3c0 f   libcmt:llrem.obj
 0001:0002e472       ?__CxxUnhandledExceptionFilter@@YGJPAU_EXCEPTION_POINTERS@@@Z 0042f472 f   libcmt:unhandld.obj
 0001:0002e4c0       ?__CxxSetUnhandledExceptionFilter@@YAHXZ 0042f4c0 f   libcmt:unhandld.obj
 0001:0002e4d3       ?__CxxRestoreUnhandledExceptionFilter@@YAXXZ 0042f4d3 f   libcmt:unhandld.obj
 0001:0002e4e0       __mtinitlocks              0042f4e0 f   libcmt:mlock.obj
 0001:0002e529       __mtdeletelocks            0042f529 f   libcmt:mlock.obj
 0001:0002e57e       __unlock                   0042f57e f   libcmt:mlock.obj
 0001:0002e593       __lockerr_exit             0042f593 f   libcmt:mlock.obj
 0001:0002e5ab       __mtinitlocknum            0042f5ab f   libcmt:mlock.obj
 0001:0002e64b       __lock                     0042f64b f   libcmt:mlock.obj
 0001:0002e67c       __forcdecpt                0042f67c f   libcmt:cvt.obj
 0001:0002e6b8       __cropzeros                0042f6b8 f   libcmt:cvt.obj
 0001:0002e703       __positive                 0042f703 f   libcmt:cvt.obj
 0001:0002e71d       __fassign                  0042f71d f   libcmt:cvt.obj
 0001:0002e826       __cftoe                    0042f826 f   libcmt:cvt.obj
 0001:0002e932       __cftof                    0042f932 f   libcmt:cvt.obj
 0001:0002e999       __cftog                    0042f999 f   libcmt:cvt.obj
 0001:0002ea38       __cfltcvt                  0042fa38 f   libcmt:cvt.obj
 0001:0002ea89       __setdefaultprecision      0042fa89 f   libcmt:fp8.obj
 0001:0002ea9b       __ms_p5_test_fdiv          0042fa9b f   libcmt:testfdiv.obj
 0001:0002eadb       __ms_p5_mp_test_fdiv       0042fadb f   libcmt:testfdiv.obj
 0001:0002eb04       __close_lk                 0042fb04 f   libcmt:close.obj
 0001:0002eb87       __close                    0042fb87 f   libcmt:close.obj
 0001:0002ec22       __freebuf                  0042fc22 f   libcmt:_freebuf.obj
 0001:0002ec4d       ___iob_func                0042fc4d f   libcmt:_file.obj
 0001:0002ec53       ___initstdio               0042fc53 f   libcmt:_file.obj
 0001:0002ecfc       ___endstdio                0042fcfc f   libcmt:_file.obj
 0001:0002ed10       __lock_file                0042fd10 f   libcmt:_file.obj
 0001:0002ed3f       __lock_file2               0042fd3f f   libcmt:_file.obj
 0001:0002ed62       __unlock_file              0042fd62 f   libcmt:_file.obj
 0001:0002ed91       __unlock_file2             0042fd91 f   libcmt:_file.obj
 0001:0002edb4       __stbuf                    0042fdb4 f   libcmt:_sftbuf.obj
 0001:0002ee3c       __ftbuf                    0042fe3c f   libcmt:_sftbuf.obj
 0001:0002ef13       __output                   0042ff13 f   libcmt:output.obj
 0001:0002f6cf       __openfile                 004306cf f   libcmt:_open.obj
 0001:0002f837       __getstream                00430837 f   libcmt:stream.obj
 0001:0002f959       ___heap_select             00430959 f   libcmt:heapinit.obj
 0001:0002f973       __heap_init                00430973 f   libcmt:heapinit.obj
 0001:0002f9c4       __heap_term                004309c4 f   libcmt:heapinit.obj
 0001:0002fa43       __get_heap_handle          00430a43 f   libcmt:heapinit.obj
 0001:0002fa49       __get_sbh_threshold        00430a49 f   libcmt:sbheap.obj
 0001:0002fa5e       ___sbh_heap_init           00430a5e f   libcmt:sbheap.obj
 0001:0002faa6       ___sbh_find_block          00430aa6 f   libcmt:sbheap.obj
 0001:0002fad1       ___sbh_free_block          00430ad1 f   libcmt:sbheap.obj
 0001:0002fde9       ___sbh_alloc_new_region    00430de9 f   libcmt:sbheap.obj
 0001:0002fea0       ___sbh_alloc_new_group     00430ea0 f   libcmt:sbheap.obj
 0001:0002ffa6       ___sbh_resize_block        00430fa6 f   libcmt:sbheap.obj
 0001:00030285       ___sbh_heapmin             00431285 f   libcmt:sbheap.obj
 0001:00030356       ___sbh_heap_check          00431356 f   libcmt:sbheap.obj
 0001:0003066f       __set_sbh_threshold        0043166f f   libcmt:sbheap.obj
 0001:000306ca       ___sbh_alloc_block         004316ca f   libcmt:sbheap.obj
 0001:000309c6       ?_set_new_handler@@YAP6AHI@ZP6AHI@Z@Z 004319c6 f   libcmt:handler.obj
 0001:000309ea       ?_query_new_handler@@YAP6AHI@ZXZ 004319ea f   libcmt:handler.obj
 0001:000309f0       __callnewh                 004319f0 f   libcmt:handler.obj
 0001:00030a0b       __ValidateEH3RN            00431a0b f   libcmt:eh3valid.obj
 0001:00030c40       _strstr                    00431c40 f   libcmt:strstr.obj
 0001:00030ce2       ___crtLCMapStringA         00431ce2 f   libcmt:a_map.obj
 0001:000310b8       __flsbuf                   004320b8 f   libcmt:_flsbuf.obj
 0001:000311fd       __XcptFilter               004321fd f   libcmt:winxfltr.obj
 0001:00031361       ___CppXcptFilter           00432361 f   libcmt:winxfltr.obj
 0001:0003137c       _calloc                    0043237c f   libcmt:calloc.obj
 0001:00031460       _strrchr                   00432460 f   libcmt:strrchr.obj
 0001:000314e5       __input                    004324e5 f   libcmt:input.obj
 0001:00032310       __filbuf                   00433310 f   libcmt:_filbuf.obj
 0001:000323f1       __read_lk                  004333f1 f   libcmt:read.obj
 0001:000325ce       __read                     004335ce f   libcmt:read.obj
 0001:00032679       __lseek_lk                 00433679 f   libcmt:lseek.obj
 0001:000326ed       __lseek                    004336ed f   libcmt:lseek.obj
 0001:00032798       ___loctotime_t             00433798 f   libcmt:dtoxtime.obj
 0001:000328a6       __write_lk                 004338a6 f   libcmt:write.obj
 0001:00032a62       __write                    00433a62 f   libcmt:write.obj
 0001:00032b0d       __commit                   00433b0d f   libcmt:commit.obj
 0001:00032bc9       __filwbuf                  00433bc9 f   libcmt:_filwbuf.obj
 0001:00032cb5       ___mbtowc_mt               00433cb5 f   libcmt:mbtowc.obj
 0001:00032d75       _mbtowc                    00433d75 f   libcmt:mbtowc.obj
 0001:00032da0       __ungetc_lk                00433da0 f   libcmt:ungetc.obj
 0001:00032e0c       _ungetc                    00433e0c f   libcmt:ungetc.obj
 0001:00032e51       ___pwctype_func            00433e51 f   libcmt:ctype.obj
 0001:00032e57       ___pctype_func             00433e57 f   libcmt:ctype.obj
 0001:00032e5d       __ioinit                   00433e5d f   libcmt:ioinit.obj
 0001:0003305b       __ioterm                   0043405b f   libcmt:ioinit.obj
 0001:000330a7       __set_osfhnd               004340a7 f   libcmt:osfinfo.obj
 0001:00033123       __free_osfhnd              00434123 f   libcmt:osfinfo.obj
 0001:000331a2       __get_osfhandle            004341a2 f   libcmt:osfinfo.obj
 0001:000331e3       __lock_fhandle             004341e3 f   libcmt:osfinfo.obj
 0001:00033283       __unlock_fhandle           00434283 f   libcmt:osfinfo.obj
 0001:000332a5       __alloc_osfhnd             004342a5 f   libcmt:osfinfo.obj
 0001:00033421       __open_osfhandle           00434421 f   libcmt:osfinfo.obj
 0001:000334e8       __fltin2                   004344e8 f   libcmt:cfin.obj
 0001:00033589       _isalpha                   00434589 f   libcmt:_ctype.obj
 0001:000335c8       _isupper                   004345c8 f   libcmt:_ctype.obj
 0001:00033602       _islower                   00434602 f   libcmt:_ctype.obj
 0001:0003363c       _isdigit                   0043463c f   libcmt:_ctype.obj
 0001:00033676       _isxdigit                  00434676 f   libcmt:_ctype.obj
 0001:000336b5       _isspace                   004346b5 f   libcmt:_ctype.obj
 0001:000336ef       _ispunct                   004346ef f   libcmt:_ctype.obj
 0001:00033729       _isalnum                   00434729 f   libcmt:_ctype.obj
 0001:00033768       _isprint                   00434768 f   libcmt:_ctype.obj
 0001:000337a7       _isgraph                   004347a7 f   libcmt:_ctype.obj
 0001:000337e6       _iscntrl                   004347e6 f   libcmt:_ctype.obj
 0001:00033820       ___isascii                 00434820 f   libcmt:_ctype.obj
 0001:0003382d       ___toascii                 0043482d f   libcmt:_ctype.obj
 0001:00033835       ___iscsymf                 00434835 f   libcmt:_ctype.obj
 0001:0003384f       ___iscsym                  0043484f f   libcmt:_ctype.obj
 0001:00033869       ___iswctype_mt             00434869 f   libcmt:iswctype.obj
 0001:000338c0       _iswctype                  004348c0 f   libcmt:iswctype.obj
 0001:00033912       _is_wctype                 00434912 f   libcmt:iswctype.obj
 0001:00033917       ___crtGetStringTypeA       00434917 f   libcmt:a_str.obj
 0001:00033ad1       __NMSG_WRITE               00434ad1 f   libcmt:crt0msg.obj
 0001:00033c49       __GET_RTERRMSG             00434c49 f   libcmt:crt0msg.obj
 0001:00033c73       __FF_MSGBANNER             00434c73 f   libcmt:crt0msg.obj
 0001:00033cac       __wincmdln                 00434cac f   libcmt:wincmdln.obj
 0001:00033d09       __setenvp                  00434d09 f   libcmt:stdenvp.obj
 0001:00033f3c       __setargv                  00434f3c f   libcmt:stdargv.obj
 0001:00033fde       ___crtGetEnvironmentStringsA 00434fde f   libcmt:a_env.obj
 0001:00034100       __RTC_Initialize           00435100 f   libcmt:initsect.obj
 0001:00034144       __RTC_Terminate            00435144 f   libcmt:initsect.obj
 0001:00034224       __woutput                  00435224 f   libcmt:woutput.obj
 0001:00034a10       _strspn                    00435a10 f   libcmt:strspn.obj
 0001:00034a60       _strcspn                   00435a60 f   libcmt:strcspn.obj
 0001:00034aa6       ___crtMessageBoxA          00435aa6 f   libcmt:crtmbox.obj
 0001:00034b9f       _localeconv                00435b9f f   libcmt:lconv.obj
 0001:00034f0c       ___free_lc_time            00435f0c f   libcmt:inittime.obj
 0001:0003509c       ___init_time               0043609c f   libcmt:inittime.obj
 0001:0003512e       ___free_lconv_num          0043612e f   libcmt:initnum.obj
 0001:0003518d       ___init_numeric            0043618d f   libcmt:initnum.obj
 0001:0003538d       ___free_lconv_mon          0043638d f   libcmt:initmon.obj
 0001:00035466       ___init_monetary           00436466 f   libcmt:initmon.obj
 0001:000356a5       ___init_ctype              004366a5 f   libcmt:initctyp.obj
 0001:00035893       ____mb_cur_max_func        00436893 f   libcmt:initctyp.obj
 0001:00035899       ____lc_codepage_func       00436899 f   libcmt:initctyp.obj
 0001:000358b2       ____lc_collate_cp_func     004368b2 f   libcmt:initctyp.obj
 0001:000358cb       ____lc_handle_func         004368cb f   libcmt:initctyp.obj
 0001:000358e4       ___init_collate            004368e4 f   libcmt:initcoll.obj
 0001:0003603a       ___get_qualified_locale    0043703a f   libcmt:getqloc.obj
 0001:000361f0       _strncmp                   004371f0 f   libcmt:strncmp.obj
 0001:00036230       _strpbrk                   00437230 f   libcmt:strpbrk.obj
 0001:00036270       ?_ValidateRead@@YAHPBXI@Z  00437270 f   libcmt:validate.obj
 0001:0003628c       ?_ValidateWrite@@YAHPAXI@Z 0043728c f   libcmt:validate.obj
 0001:000362a8       ?_ValidateExecute@@YAHP6GHXZ@Z 004372a8 f   libcmt:validate.obj
 0001:000362c0       _abort                     004372c0 f   libcmt:abort.obj
 0001:000362d8       __getenv_lk                004372d8 f   libcmt:getenv.obj
 0001:00036359       _getenv                    00437359 f   libcmt:getenv.obj
 0001:000363a8       ___crtInitCritSecAndSpinCount 004373a8 f   libcmt:initcrit.obj
 0001:00036433       __tolower                  00437433 f   libcmt:tolower.obj
 0001:0003643b       ___tolower_mt              0043743b f   libcmt:tolower.obj
 0001:00036503       _tolower                   00437503 f   libcmt:tolower.obj
 0001:00036525       __ZeroTail                 00437525 f   libcmt:intrncvt.obj
 0001:00036557       __IncMan                   00437557 f   libcmt:intrncvt.obj
 0001:000365a4       __RoundMan                 004375a4 f   libcmt:intrncvt.obj
 0001:00036616       __CopyMan                  00437616 f   libcmt:intrncvt.obj
 0001:00036631       __FillZeroMan              00437631 f   libcmt:intrncvt.obj
 0001:0003663d       __IsZeroMan                0043763d f   libcmt:intrncvt.obj
 0001:00036656       __ShrMan                   00437656 f   libcmt:intrncvt.obj
 0001:000366d1       __ld12cvt                  004376d1 f   libcmt:intrncvt.obj
 0001:00036829       __ld12tod                  00437829 f   libcmt:intrncvt.obj
 0001:0003683f       __ld12tof                  0043783f f   libcmt:intrncvt.obj
 0001:00036855       __ld12told                 00437855 f   libcmt:intrncvt.obj
 0001:000368d1       __atodbl                   004378d1 f   libcmt:intrncvt.obj
 0001:00036916       __atoldbl                  00437916 f   libcmt:intrncvt.obj
 0001:0003695c       __atoflt                   0043795c f   libcmt:intrncvt.obj
 0001:000369a1       __fptostr                  004379a1 f   libcmt:_fptostr.obj
 0001:00036a18       ___dtold                   00437a18 f   libcmt:cfout.obj
 0001:00036ad2       __fltout2                  00437ad2 f   libcmt:cfout.obj
 0001:00036b4a       __fptrap                   00437b4a f   libcmt:crt0fp.obj
 0001:00036b53       __fpreset                  00437b53 f   libcmt:ieee87.obj
 0001:00036cd7       __statusfp                 00437cd7 f   libcmt:ieee87.obj
 0001:00036ce7       __clearfp                  00437ce7 f   libcmt:ieee87.obj
 0001:00036cf8       __control87                00437cf8 f   libcmt:ieee87.obj
 0001:00036d2a       __controlfp                00437d2a f   libcmt:ieee87.obj
 0001:00036d40       __fcloseall                00437d40 f   libcmt:closeall.obj
 0001:00036ddb       __isatty                   00437ddb f   libcmt:isatty.obj
 0001:00036e05       ___wctomb_mt               00437e05 f   libcmt:wctomb.obj
 0001:00036e65       _wctomb                    00437e65 f   libcmt:wctomb.obj
 0001:00036e90       __aulldvrm                 00437e90 f   libcmt:ulldvrm.obj
 0001:0003720c       __open                     0043820c f   libcmt:open.obj
 0001:00037261       __sopen                    00438261 f   libcmt:open.obj
 0001:000372b6       ___ansicp                  004382b6 f   libcmt:convrtcp.obj
 0001:000372fd       ___convertcp               004382fd f   libcmt:convrtcp.obj
 0001:000374d7       __getbuf                   004384d7 f   libcmt:_getbuf.obj
 0001:0003751b       __lseeki64_lk              0043851b f   libcmt:lseeki64.obj
 0001:0003759e       __lseeki64                 0043859e f   libcmt:lseeki64.obj
 0001:0003765c       ___strgtold12              0043865c f   libcmt:strgtold.obj
 0001:00037a9c       ___STRINGTOLD              00438a9c f   libcmt:strgtold.obj
 0001:00037af1       ___crtGetStringTypeW       00438af1 f   libcmt:w_str.obj
 0001:00037d49       __ismbbkalnum              00438d49 f   libcmt:ismbbyte.obj
 0001:00037d5a       __ismbbkprint              00438d5a f   libcmt:ismbbyte.obj
 0001:00037d6b       __ismbbkpunct              00438d6b f   libcmt:ismbbyte.obj
 0001:00037d7c       __ismbbalnum               00438d7c f   libcmt:ismbbyte.obj
 0001:00037d90       __ismbbalpha               00438d90 f   libcmt:ismbbyte.obj
 0001:00037da4       __ismbbgraph               00438da4 f   libcmt:ismbbyte.obj
 0001:00037db8       __ismbbprint               00438db8 f   libcmt:ismbbyte.obj
 0001:00037dcc       __ismbbpunct               00438dcc f   libcmt:ismbbyte.obj
 0001:00037ddd       __ismbblead                00438ddd f   libcmt:ismbbyte.obj
 0001:00037dee       __ismbbtrail               00438dee f   libcmt:ismbbyte.obj
 0001:00037dff       __ismbbkana                00438dff f   libcmt:ismbbyte.obj
 0001:00037e26       __putwc_lk                 00438e26 f   libcmt:fputwc.obj
 0001:00037f00       _fputwc                    00438f00 f   libcmt:fputwc.obj
 0001:00037f48       _putwc                     00438f48 f   libcmt:fputwc.obj
 0001:00037f4d       ___getlocaleinfo           00438f4d f   libcmt:inithelp.obj
 0001:0003807d       __stricmp                  0043907d f   libcmt:stricmp.obj
 0001:000380e6       __strnicmp                 004390e6 f   libcmt:strnicmp.obj
 0001:000381a3       __itoa                     004391a3 f   libcmt:xtoa.obj
 0001:000381cd       __ltoa                     004391cd f   libcmt:xtoa.obj
 0001:000381f4       __ultoa                    004391f4 f   libcmt:xtoa.obj
 0001:0003827b       __i64toa                   0043927b f   libcmt:xtoa.obj
 0001:000382ac       __ui64toa                  004392ac f   libcmt:xtoa.obj
 0001:00038384       ___fpecode                 00439384 f   libcmt:winsig.obj
 0001:0003838d       ___pxcptinfoptrs           0043938d f   libcmt:winsig.obj
 0001:00038396       _signal                    00439396 f   libcmt:winsig.obj
 0001:00038537       _raise                     00439537 f   libcmt:winsig.obj
 0001:000386b0       __mbsnbicoll               004396b0 f   libcmt:mbsnbico.obj
 0001:000386fe       ___wtomb_environ           004396fe f   libcmt:wtombenv.obj
 0001:0003878e       ___addl                    0043978e f   libcmt:mantold.obj
 0001:000387af       ___add_12                  004397af f   libcmt:mantold.obj
 0001:0003880d       ___shl_12                  0043980d f   libcmt:mantold.obj
 0001:0003883b       ___shr_12                  0043983b f   libcmt:mantold.obj
 0001:00038868       ___mtold12                 00439868 f   libcmt:mantold.obj
 0001:00038950       _$I10_OUTPUT               00439950 f   libcmt:x10fout.obj
 0001:00038bec       __chsize_lk                00439bec f   libcmt:chsize.obj
 0001:00038d31       __chsize                   00439d31 f   libcmt:chsize.obj
 0001:00038dc8       ___ld12mul                 00439dc8 f   libcmt:tenpow.obj
 0001:00038ffe       ___multtenpow12            00439ffe f   libcmt:tenpow.obj
 0001:0003908c       __flswbuf                  0043a08c f   libcmt:_flswbuf.obj
 0001:000391b4       ___crtGetLocaleInfoW       0043a1b4 f   libcmt:w_loc.obj
 0001:000392e4       ___crtGetLocaleInfoA       0043a2e4 f   libcmt:a_loc.obj
 0001:00039430       ___ascii_strnicmp          0043a430 f   libcmt:_strnicm.obj
 0001:000394ad       ___crtCompareStringA       0043a4ad f   libcmt:a_cmp.obj
 0001:000398e5       ___crtsetenv               0043a8e5 f   libcmt:setenv.obj
 0001:00039abb       __setmode_lk               0043aabb f   libcmt:setmode.obj
 0001:00039b27       __setmode                  0043ab27 f   libcmt:setmode.obj
 0001:00039bbe       _InitCommonControls@0      0043abbe f   comctl32:COMCTL32.dll
 0001:00039bc4       _PathFindExtensionA@4      0043abc4 f   shlwapi:SHLWAPI.dll
 0001:00039bca       _PathRemoveExtensionA@4    0043abca f   shlwapi:SHLWAPI.dll
 0001:00039bd0       _PathFindFileNameA@4       0043abd0 f   shlwapi:SHLWAPI.dll
 0001:00039bd6       _PathStripToRootA@4        0043abd6 f   shlwapi:SHLWAPI.dll
 0001:00039bdc       _PathIsUNCA@4              0043abdc f   shlwapi:SHLWAPI.dll
 0001:00039be2       ?_Xran@_String_base@std@@QBEXXZ 0043abe2 f   libcpmt:string.obj
 0001:00039c22       ?_Xlen@_String_base@std@@QBEXXZ 0043ac22 f   libcpmt:string.obj
 0001:00039c64       ?ffl_purecall_handler@?A0x3463d5ea@@$$FYAXXZ 0043ac64 f   ffl_dumpr:ffl_dump_unexception_filter.obj
 0001:00039c80       ?ffl_purecall_handler@?A0x3463d5ea@@YAXXZ 0043ac80 f   ffl_dumpr:ffl_dump_unexception_filter.obj
 0001:00039c88       ?make_file_name@?A0x3463d5ea@@$$FYAXPADIPBD1@Z 0043ac88 f   ffl_dumpr:ffl_dump_unexception_filter.obj
 0001:00039e30       ?make_file_name@?A0x3463d5ea@@YAXPADIPBD1@Z 0043ae30 f   ffl_dumpr:ffl_dump_unexception_filter.obj
 0001:00039e38       ?record@?A0x3463d5ea@@$$FYAXPAUffl_dump_param_t@@PBD@Z 0043ae38 f   ffl_dumpr:ffl_dump_unexception_filter.obj
 0001:00039ef0       ?record@?A0x3463d5ea@@YAXPAUffl_dump_param_t@@PBD@Z 0043aef0 f   ffl_dumpr:ffl_dump_unexception_filter.obj
 0001:00039ef8       ?ffl_dump_recod_function@?A0x3463d5ea@@$$FYGIPAX@Z 0043aef8 f   ffl_dumpr:ffl_dump_unexception_filter.obj
 0001:00039f20       ?ffl_dump_recod_function@?A0x3463d5ea@@YGIPAX@Z 0043af20 f   ffl_dumpr:ffl_dump_unexception_filter.obj
 0001:00039f28       ??1ffl_dump_unexception_filter@@$$FQAE@XZ 0043af28 f   ffl_dumpr:ffl_dump_unexception_filter.obj
 0001:00039f40       ??1ffl_dump_unexception_filter@@QAE@XZ 0043af40 f   ffl_dumpr:ffl_dump_unexception_filter.obj
 0001:00039f48       ?top_level_filter@ffl_dump_unexception_filter@@$$FCGJPAU_EXCEPTION_POINTERS@@@Z 0043af48 f   ffl_dumpr:ffl_dump_unexception_filter.obj
 0001:00039fd0       ?top_level_filter@ffl_dump_unexception_filter@@CGJPAU_EXCEPTION_POINTERS@@@Z 0043afd0 f   ffl_dumpr:ffl_dump_unexception_filter.obj
 0001:00039fd8       ?do_snapping@ffl_dump_unexception_filter@@$$FCAXHPAU_EXCEPTION_POINTERS@@@Z 0043afd8 f   ffl_dumpr:ffl_dump_unexception_filter.obj
 0001:0003a020       ?do_snapping@ffl_dump_unexception_filter@@CAXHPAU_EXCEPTION_POINTERS@@@Z 0043b020 f   ffl_dumpr:ffl_dump_unexception_filter.obj
 0001:0003a028       ?install@ffl_dump_unexception_filter@@$$FSAXH@Z 0043b028 f   ffl_dumpr:ffl_dump_unexception_filter.obj
 0001:0003a060       ?install@ffl_dump_unexception_filter@@SAXH@Z 0043b060 f   ffl_dumpr:ffl_dump_unexception_filter.obj
 0001:0003a068       ?snapping@ffl_dump_unexception_filter@@$$FSAXH@Z 0043b068 f   ffl_dumpr:ffl_dump_unexception_filter.obj
 0001:0003a0c0       ?snapping@ffl_dump_unexception_filter@@SAXH@Z 0043b0c0 f   ffl_dumpr:ffl_dump_unexception_filter.obj
 0001:0003a0c8       ??0ffl_dump_unexception_filter@@$$FQAE@H@Z 0043b0c8 f   ffl_dumpr:ffl_dump_unexception_filter.obj
 0001:0003a100       ??0ffl_dump_unexception_filter@@QAE@H@Z 0043b100 f   ffl_dumpr:ffl_dump_unexception_filter.obj
 0001:0003a108       ??1ffl_date_time@@$$FQAE@XZ 0043b108 f   ffl_dumpr:ffl_date_time.obj
 0001:0003a140       ??1ffl_date_time@@QAE@XZ   0043b140 f   ffl_dumpr:ffl_date_time.obj
 0001:0003a148       ?update@ffl_date_time@@$$FQAEXXZ 0043b148 f   ffl_dumpr:ffl_date_time.obj
 0001:0003a1b0       ?update@ffl_date_time@@QAEXXZ 0043b1b0 f   ffl_dumpr:ffl_date_time.obj
 0001:0003a1b8       ?year@ffl_date_time@@$$FQBEHXZ 0043b1b8 f   ffl_dumpr:ffl_date_time.obj
 0001:0003a1d0       ?year@ffl_date_time@@QBEHXZ 0043b1d0 f   ffl_dumpr:ffl_date_time.obj
 0001:0003a1d8       ?month@ffl_date_time@@$$FQBEHXZ 0043b1d8 f   ffl_dumpr:ffl_date_time.obj
 0001:0003a1f0       ?month@ffl_date_time@@QBEHXZ 0043b1f0 f   ffl_dumpr:ffl_date_time.obj
 0001:0003a1f8       ?day@ffl_date_time@@$$FQBEHXZ 0043b1f8 f   ffl_dumpr:ffl_date_time.obj
 0001:0003a210       ?day@ffl_date_time@@QBEHXZ 0043b210 f   ffl_dumpr:ffl_date_time.obj
 0001:0003a218       ?hour@ffl_date_time@@$$FQBEHXZ 0043b218 f   ffl_dumpr:ffl_date_time.obj
 0001:0003a230       ?hour@ffl_date_time@@QBEHXZ 0043b230 f   ffl_dumpr:ffl_date_time.obj
 0001:0003a238       ?minute@ffl_date_time@@$$FQBEHXZ 0043b238 f   ffl_dumpr:ffl_date_time.obj
 0001:0003a250       ?minute@ffl_date_time@@QBEHXZ 0043b250 f   ffl_dumpr:ffl_date_time.obj
 0001:0003a258       ?second@ffl_date_time@@$$FQBEHXZ 0043b258 f   ffl_dumpr:ffl_date_time.obj
 0001:0003a270       ?second@ffl_date_time@@QBEHXZ 0043b270 f   ffl_dumpr:ffl_date_time.obj
 0001:0003a278       ?millisecond@ffl_date_time@@$$FQBEHXZ 0043b278 f   ffl_dumpr:ffl_date_time.obj
 0001:0003a290       ?millisecond@ffl_date_time@@QBEHXZ 0043b290 f   ffl_dumpr:ffl_date_time.obj
 0001:0003a298       ?day_of_week@ffl_date_time@@$$FQBEHXZ 0043b298 f   ffl_dumpr:ffl_date_time.obj
 0001:0003a2b0       ?day_of_week@ffl_date_time@@QBEHXZ 0043b2b0 f   ffl_dumpr:ffl_date_time.obj
 0001:0003a2b8       ??0ffl_date_time@@$$FQAE@XZ 0043b2b8 f   ffl_dumpr:ffl_date_time.obj
 0001:0003a300       ??0ffl_date_time@@QAE@XZ   0043b300 f   ffl_dumpr:ffl_date_time.obj
 0001:0003a308       ?ffl_vsnprintf_a@@$$FYAHPADIPBD0@Z 0043b308 f   ffl_dumpr:ffl_c_string.obj
 0001:0003a330       ?ffl_vsnprintf_a@@YAHPADIPBD0@Z 0043b330 f   ffl_dumpr:ffl_c_string.obj
 0001:0003a340       ?ffl_snprintf_a@@YAHPADIPBDZZ 0043b340 f   ffl_dumpr:ffl_c_string.obj
 0001:0003a388       ?ffl_strncpy_a@@$$FYAHPADIPBDI@Z 0043b388 f   ffl_dumpr:ffl_c_string.obj
 0001:0003a3b0       ?ffl_strncpy_a@@YAHPADIPBDI@Z 0043b3b0 f   ffl_dumpr:ffl_c_string.obj
 0001:0003a3b8       ?ffl_splitpath_a@@$$FYAHPBDPADI1I1I1I@Z 0043b3b8 f   ffl_dumpr:ffl_c_string.obj
 0001:0003a3e0       ?ffl_splitpath_a@@YAHPBDPADI1I1I1I@Z 0043b3e0 f   ffl_dumpr:ffl_c_string.obj
 0001:0003a3e8       ?ffl_makepath_a@@$$FYAHPADIPBD111@Z 0043b3e8 f   ffl_dumpr:ffl_c_string.obj
 0001:0003a410       ?ffl_makepath_a@@YAHPADIPBD111@Z 0043b410 f   ffl_dumpr:ffl_c_string.obj
 0001:0003a418       ?ffl_vsnprintf_w@@$$FYAHPAGIPBGPAD@Z 0043b418 f   ffl_dumpr:ffl_c_string.obj
 0001:0003a440       ?ffl_vsnprintf_w@@YAHPAGIPBGPAD@Z 0043b440 f   ffl_dumpr:ffl_c_string.obj
 0001:0003a450       ?ffl_snprintf_w@@YAHPAGIPBGZZ 0043b450 f   ffl_dumpr:ffl_c_string.obj
 0001:0003a498       ?ffl_strncpy_w@@$$FYAHPAGIPBGI@Z 0043b498 f   ffl_dumpr:ffl_c_string.obj
 0001:0003a4c0       ?ffl_strncpy_w@@YAHPAGIPBGI@Z 0043b4c0 f   ffl_dumpr:ffl_c_string.obj
 0001:0003a4c8       ?ffl_splitpath_w@@$$FYAHPBGPAGI1I1I1I@Z 0043b4c8 f   ffl_dumpr:ffl_c_string.obj
 0001:0003a4f0       ?ffl_splitpath_w@@YAHPBGPAGI1I1I1I@Z 0043b4f0 f   ffl_dumpr:ffl_c_string.obj
 0001:0003a4f8       ?ffl_makepath_w@@$$FYAHPAGIPBG111@Z 0043b4f8 f   ffl_dumpr:ffl_c_string.obj
 0001:0003a520       ?ffl_makepath_w@@YAHPAGIPBG111@Z 0043b520 f   ffl_dumpr:ffl_c_string.obj
 0001:0003a528       ??0ffl_dump_report@@$$FQAE@XZ 0043b528 f   ffl_dumpr:ffl_dump_report.obj
 0001:0003a560       ??0ffl_dump_report@@QAE@XZ 0043b560 f   ffl_dumpr:ffl_dump_report.obj
 0001:0003a568       ??1ffl_dump_report@@$$FQAE@XZ 0043b568 f   ffl_dumpr:ffl_dump_report.obj
 0001:0003a580       ??1ffl_dump_report@@QAE@XZ 0043b580 f   ffl_dumpr:ffl_dump_report.obj
 0001:0003a588       ?get_logical_address@ffl_dump_report@@$$FAAE_NPAXPADKPAK2@Z 0043b588 f   ffl_dumpr:ffl_dump_report.obj
 0001:0003a640       ?get_logical_address@ffl_dump_report@@AAE_NPAXPADKPAK2@Z 0043b640 f   ffl_dumpr:ffl_dump_report.obj
 0001:0003a648       ?inti_imagehlp_func@ffl_dump_report@@$$FAAE_NPAUHINSTANCE__@@@Z 0043b648 f   ffl_dumpr:ffl_dump_report.obj
 0001:0003a700       ?inti_imagehlp_func@ffl_dump_report@@AAE_NPAUHINSTANCE__@@@Z 0043b700 f   ffl_dumpr:ffl_dump_report.obj
 0001:0003a708       ?intel_stack_walk@ffl_dump_report@@$$FAAEXPAVffl_text_file@@PAU_CONTEXT@@@Z 0043b708 f   ffl_dumpr:ffl_dump_report.obj
 0001:0003a7f0       ?intel_stack_walk@ffl_dump_report@@AAEXPAVffl_text_file@@PAU_CONTEXT@@@Z 0043b7f0 f   ffl_dumpr:ffl_dump_report.obj
 0001:0003a7f8       ?imagehlp_stack_walk@ffl_dump_report@@$$FAAEXPAVffl_text_file@@PAU_CONTEXT@@PAX@Z 0043b7f8 f   ffl_dumpr:ffl_dump_report.obj
 0001:0003a960       ?imagehlp_stack_walk@ffl_dump_report@@AAEXPAVffl_text_file@@PAU_CONTEXT@@PAX@Z 0043b960 f   ffl_dumpr:ffl_dump_report.obj
 0001:0003a968       ?generate_exception@ffl_dump_report@@$$FAAEXPAVffl_text_file@@PAUffl_dump_param_t@@@Z 0043b968 f   ffl_dumpr:ffl_dump_report.obj
 0001:0003ab00       ?generate_exception@ffl_dump_report@@AAEXPAVffl_text_file@@PAUffl_dump_param_t@@@Z 0043bb00 f   ffl_dumpr:ffl_dump_report.obj
 0001:0003ab08       ?report@ffl_dump_report@@$$FAAEXPAVffl_text_file@@PAUffl_dump_param_t@@@Z 0043bb08 f   ffl_dumpr:ffl_dump_report.obj
 0001:0003ab60       ?report@ffl_dump_report@@AAEXPAVffl_text_file@@PAUffl_dump_param_t@@@Z 0043bb60 f   ffl_dumpr:ffl_dump_report.obj
 0001:0003ab68       ?dump@ffl_dump_report@@$$FQAEXPBDPAUffl_dump_param_t@@@Z 0043bb68 f   ffl_dumpr:ffl_dump_report.obj
 0001:0003abe0       ?dump@ffl_dump_report@@QAEXPBDPAUffl_dump_param_t@@@Z 0043bbe0 f   ffl_dumpr:ffl_dump_report.obj
 0001:0003abe8       ?system_information_log@ffl_dump_log@@$$FAAEXPAVffl_text_file@@@Z 0043bbe8 f   ffl_dumpr:ffl_dump_log.obj
 0001:0003adc0       ?system_information_log@ffl_dump_log@@AAEXPAVffl_text_file@@@Z 0043bdc0 f   ffl_dumpr:ffl_dump_log.obj
 0001:0003adc8       ?register_log@ffl_dump_log@@$$FAAEXPAVffl_text_file@@PAU_CONTEXT@@@Z 0043bdc8 f   ffl_dumpr:ffl_dump_log.obj
 0001:0003ae90       ?register_log@ffl_dump_log@@AAEXPAVffl_text_file@@PAU_CONTEXT@@@Z 0043be90 f   ffl_dumpr:ffl_dump_log.obj
 0001:0003aea0       ?stack_log@ffl_dump_log@@AAEXPAVffl_text_file@@PAK@Z 0043bea0 f   ffl_dumpr:ffl_dump_log.obj
 0001:0003b070       ?print_module_info@ffl_dump_log@@$$FAAEXPAVffl_text_file@@PBD@Z 0043c070 f   ffl_dumpr:ffl_dump_log.obj
 0001:0003b130       ?print_module_info@ffl_dump_log@@AAEXPAVffl_text_file@@PBD@Z 0043c130 f   ffl_dumpr:ffl_dump_log.obj
 0001:0003b138       ?module_info_log@ffl_dump_log@@$$FAAE_NPAVffl_text_file@@PAUHINSTANCE__@@H@Z 0043c138 f   ffl_dumpr:ffl_dump_log.obj
 0001:0003b270       ?module_info_log@ffl_dump_log@@AAE_NPAVffl_text_file@@PAUHINSTANCE__@@H@Z 0043c270 f   ffl_dumpr:ffl_dump_log.obj
 0001:0003b278       ?module_list_log@ffl_dump_log@@$$FAAEXPAVffl_text_file@@@Z 0043c278 f   ffl_dumpr:ffl_dump_log.obj
 0001:0003b320       ?module_list_log@ffl_dump_log@@AAEXPAVffl_text_file@@@Z 0043c320 f   ffl_dumpr:ffl_dump_log.obj
 0001:0003b328       ?log@ffl_dump_log@@$$FAAEXPAVffl_text_file@@PAUffl_dump_param_t@@@Z 0043c328 f   ffl_dumpr:ffl_dump_log.obj
 0001:0003b4d0       ?log@ffl_dump_log@@AAEXPAVffl_text_file@@PAUffl_dump_param_t@@@Z 0043c4d0 f   ffl_dumpr:ffl_dump_log.obj
 0001:0003b4d8       ?dump@ffl_dump_log@@$$FQAEXPBDPAUffl_dump_param_t@@@Z 0043c4d8 f   ffl_dumpr:ffl_dump_log.obj
 0001:0003b550       ?dump@ffl_dump_log@@QAEXPBDPAUffl_dump_param_t@@@Z 0043c550 f   ffl_dumpr:ffl_dump_log.obj
 0001:0003b558       ?_tcsrchr@@$$J0YAPADPBDI@Z 0043c558 f i ffl_dumpr:ffl_dump_mini.obj
 0001:0003b56c       ?find_dll@ffl_dump_mini@@$$FAAEPAUHINSTANCE__@@XZ 0043c56c f   ffl_dumpr:ffl_dump_mini.obj
 0001:0003b5e0       ?find_dll@ffl_dump_mini@@AAEPAUHINSTANCE__@@XZ 0043c5e0 f   ffl_dumpr:ffl_dump_mini.obj
 0001:0003b5e8       ?write@ffl_dump_mini@@$$FAAEXPAXPAUffl_dump_param_t@@@Z 0043c5e8 f   ffl_dumpr:ffl_dump_mini.obj
 0001:0003b670       ?write@ffl_dump_mini@@AAEXPAXPAUffl_dump_param_t@@@Z 0043c670 f   ffl_dumpr:ffl_dump_mini.obj
 0001:0003b678       ?dump@ffl_dump_mini@@$$FQAEXPBDPAUffl_dump_param_t@@@Z 0043c678 f   ffl_dumpr:ffl_dump_mini.obj
 0001:0003b6c0       ?dump@ffl_dump_mini@@QAEXPBDPAUffl_dump_param_t@@@Z 0043c6c0 f   ffl_dumpr:ffl_dump_mini.obj
 0001:0003b6c8       ?ffl_get_win_version@@$$FYAXPADI0I@Z 0043c6c8 f   ffl_dumpr:ffl_dump_common.obj
 0001:0003b970       ?ffl_get_win_version@@YAXPADI0I@Z 0043c970 f   ffl_dumpr:ffl_dump_common.obj
 0001:0003b978       ?ffl_formating_time@@$$FYAXPADIPAU_FILETIME@@@Z 0043c978 f   ffl_dumpr:ffl_dump_common.obj
 0001:0003b9e0       ?ffl_formating_time@@YAXPADIPAU_FILETIME@@@Z 0043c9e0 f   ffl_dumpr:ffl_dump_common.obj
 0001:0003b9e8       ?ffl_get_exception_string@@$$FYAPBDK@Z 0043c9e8 f   ffl_dumpr:ffl_dump_common.obj
 0001:0003bf00       ?ffl_get_exception_string@@YAPBDK@Z 0043cf00 f   ffl_dumpr:ffl_dump_common.obj
 0001:0003bf10       ?ffl_dump_print@@YAXPAVffl_text_file@@PBDZZ 0043cf10 f   ffl_dumpr:ffl_dump_common.obj
 0001:0003bfc0       ??0ffl_text_file@@$$FQAE@XZ 0043cfc0 f   ffl_dumpr:ffl_text_file.obj
 0001:0003bfe0       ??0ffl_text_file@@QAE@XZ   0043cfe0 f   ffl_dumpr:ffl_text_file.obj
 0001:0003bfe8       ?create@ffl_text_file@@$$FQAE_NPBDII@Z 0043cfe8 f   ffl_dumpr:ffl_text_file.obj
 0001:0003c010       ?create@ffl_text_file@@QAE_NPBDII@Z 0043d010 f   ffl_dumpr:ffl_text_file.obj
 0001:0003c018       ?open@ffl_text_file@@$$FQAE_NPBDII@Z 0043d018 f   ffl_dumpr:ffl_text_file.obj
 0001:0003c040       ?open@ffl_text_file@@QAE_NPBDII@Z 0043d040 f   ffl_dumpr:ffl_text_file.obj
 0001:0003c048       ?close@ffl_text_file@@$$FQAEXXZ 0043d048 f   ffl_dumpr:ffl_text_file.obj
 0001:0003c060       ?close@ffl_text_file@@QAEXXZ 0043d060 f   ffl_dumpr:ffl_text_file.obj
 0001:0003c068       ?opened@ffl_text_file@@$$FQAE_NXZ 0043d068 f   ffl_dumpr:ffl_text_file.obj
 0001:0003c080       ?opened@ffl_text_file@@QAE_NXZ 0043d080 f   ffl_dumpr:ffl_text_file.obj
 0001:0003c088       ?write_text@ffl_text_file@@$$FQAEIPBDI@Z 0043d088 f   ffl_dumpr:ffl_text_file.obj
 0001:0003c0c0       ?write_text@ffl_text_file@@QAEIPBDI@Z 0043d0c0 f   ffl_dumpr:ffl_text_file.obj
 0001:0003c0c8       ?read_text@ffl_text_file@@$$FQAEIPADI@Z 0043d0c8 f   ffl_dumpr:ffl_text_file.obj
 0001:0003c100       ?read_text@ffl_text_file@@QAEIPADI@Z 0043d100 f   ffl_dumpr:ffl_text_file.obj
 0001:0003c108       ?read_line@ffl_text_file@@$$FQAEIPADI@Z 0043d108 f   ffl_dumpr:ffl_text_file.obj
 0001:0003c190       ?read_line@ffl_text_file@@QAEIPADI@Z 0043d190 f   ffl_dumpr:ffl_text_file.obj
 0001:0003c198       ?flush@ffl_text_file@@$$FQAE_NXZ 0043d198 f   ffl_dumpr:ffl_text_file.obj
 0001:0003c1b0       ?flush@ffl_text_file@@QAE_NXZ 0043d1b0 f   ffl_dumpr:ffl_text_file.obj
 0001:0003c1b8       ?size@ffl_text_file@@$$FQAE_KXZ 0043d1b8 f   ffl_dumpr:ffl_text_file.obj
 0001:0003c1d0       ?size@ffl_text_file@@QAE_KXZ 0043d1d0 f   ffl_dumpr:ffl_text_file.obj
 0001:0003c1d8       ??1ffl_text_file@@$$FQAE@XZ 0043d1d8 f   ffl_dumpr:ffl_text_file.obj
 0001:0003c220       ??1ffl_text_file@@QAE@XZ   0043d220 f   ffl_dumpr:ffl_text_file.obj
 0001:0003c228       ??0ffl_module_info@@$$FQAE@XZ 0043d228 f   ffl_dumpr:ffl_module_info.obj
 0001:0003c270       ??0ffl_module_info@@QAE@XZ 0043d270 f   ffl_dumpr:ffl_module_info.obj
 0001:0003c278       ?company_name@ffl_module_info@@$$FQBEPBDXZ 0043d278 f   ffl_dumpr:ffl_module_info.obj
 0001:0003c290       ?company_name@ffl_module_info@@QBEPBDXZ 0043d290 f   ffl_dumpr:ffl_module_info.obj
 0001:0003c298       ?product_name@ffl_module_info@@$$FQBEPBDXZ 0043d298 f   ffl_dumpr:ffl_module_info.obj
 0001:0003c2b0       ?product_name@ffl_module_info@@QBEPBDXZ 0043d2b0 f   ffl_dumpr:ffl_module_info.obj
 0001:0003c2b8       ?file_description@ffl_module_info@@$$FQBEPBDXZ 0043d2b8 f   ffl_dumpr:ffl_module_info.obj
 0001:0003c2d0       ?file_description@ffl_module_info@@QBEPBDXZ 0043d2d0 f   ffl_dumpr:ffl_module_info.obj
 0001:0003c2d8       ?file_version@ffl_module_info@@$$FQBEPBGXZ 0043d2d8 f   ffl_dumpr:ffl_module_info.obj
 0001:0003c2f0       ?file_version@ffl_module_info@@QBEPBGXZ 0043d2f0 f   ffl_dumpr:ffl_module_info.obj
 0001:0003c2f8       ?product_version@ffl_module_info@@$$FQBEPBGXZ 0043d2f8 f   ffl_dumpr:ffl_module_info.obj
 0001:0003c310       ?product_version@ffl_module_info@@QBEPBGXZ 0043d310 f   ffl_dumpr:ffl_module_info.obj
 0001:0003c318       ?query_fixed_info@ffl_module_info@@$$FAAE_NPAXPAUtagVS_FIXEDFILEINFO@@@Z 0043d318 f   ffl_dumpr:ffl_module_info.obj
 0001:0003c350       ?query_fixed_info@ffl_module_info@@AAE_NPAXPAUtagVS_FIXEDFILEINFO@@@Z 0043d350 f   ffl_dumpr:ffl_module_info.obj
 0001:0003c358       ?query_string_info@ffl_module_info@@$$FAAE_NPAXPBDPADI@Z 0043d358 f   ffl_dumpr:ffl_module_info.obj
 0001:0003c3f0       ?query_string_info@ffl_module_info@@AAE_NPAXPBDPADI@Z 0043d3f0 f   ffl_dumpr:ffl_module_info.obj
 0001:0003c3f8       ?load_info@ffl_module_info@@$$FQAE_NPBD@Z 0043d3f8 f   ffl_dumpr:ffl_module_info.obj
 0001:0003c510       ?load_info@ffl_module_info@@QAE_NPBD@Z 0043d510 f   ffl_dumpr:ffl_module_info.obj
 0001:0003c518       ??0ffl_file@@$$FQAE@XZ     0043d518 f   ffl_dumpr:ffl_file.obj
 0001:0003c530       ??0ffl_file@@QAE@XZ        0043d530 f   ffl_dumpr:ffl_file.obj
 0001:0003c538       ?create@ffl_file@@$$FQAE_NPBDII@Z 0043d538 f   ffl_dumpr:ffl_file.obj
 0001:0003c570       ?create@ffl_file@@QAE_NPBDII@Z 0043d570 f   ffl_dumpr:ffl_file.obj
 0001:0003c578       ?open@ffl_file@@$$FQAE_NPBDII@Z 0043d578 f   ffl_dumpr:ffl_file.obj
 0001:0003c5b0       ?open@ffl_file@@QAE_NPBDII@Z 0043d5b0 f   ffl_dumpr:ffl_file.obj
 0001:0003c5b8       ?close@ffl_file@@$$FQAEXXZ 0043d5b8 f   ffl_dumpr:ffl_file.obj
 0001:0003c5e0       ?close@ffl_file@@QAEXXZ    0043d5e0 f   ffl_dumpr:ffl_file.obj
 0001:0003c5e8       ?opened@ffl_file@@$$FQAE_NXZ 0043d5e8 f   ffl_dumpr:ffl_file.obj
 0001:0003c600       ?opened@ffl_file@@QAE_NXZ  0043d600 f   ffl_dumpr:ffl_file.obj
 0001:0003c608       ?read@ffl_file@@$$FQAEIPAXI@Z 0043d608 f   ffl_dumpr:ffl_file.obj
 0001:0003c640       ?read@ffl_file@@QAEIPAXI@Z 0043d640 f   ffl_dumpr:ffl_file.obj
 0001:0003c648       ?write@ffl_file@@$$FQAEIPBXI@Z 0043d648 f   ffl_dumpr:ffl_file.obj
 0001:0003c670       ?write@ffl_file@@QAEIPBXI@Z 0043d670 f   ffl_dumpr:ffl_file.obj
 0001:0003c678       ?seek@ffl_file@@$$FQAE_J_JH@Z 0043d678 f   ffl_dumpr:ffl_file.obj
 0001:0003c6d0       ?seek@ffl_file@@QAE_J_JH@Z 0043d6d0 f   ffl_dumpr:ffl_file.obj
 0001:0003c6d8       ?flush@ffl_file@@$$FQAE_NXZ 0043d6d8 f   ffl_dumpr:ffl_file.obj
 0001:0003c700       ?flush@ffl_file@@QAE_NXZ   0043d700 f   ffl_dumpr:ffl_file.obj
 0001:0003c708       ?size@ffl_file@@$$FQAE_KXZ 0043d708 f   ffl_dumpr:ffl_file.obj
 0001:0003c750       ?size@ffl_file@@QAE_KXZ    0043d750 f   ffl_dumpr:ffl_file.obj
 0001:0003c758       ??1ffl_file@@$$FQAE@XZ     0043d758 f   ffl_dumpr:ffl_file.obj
 0001:0003c780       ??1ffl_file@@QAE@XZ        0043d780 f   ffl_dumpr:ffl_file.obj
 0001:0003c786       ??0?$CSimpleArray@PAUHINSTANCE__@@V?$CSimpleArrayEqualHelper@PAUHINSTANCE__@@@ATL@@@ATL@@QAE@XZ 0043d786 f i atls:atlbase.obj
 0001:0003c793       ?GetSize@?$CSimpleArray@PAUHINSTANCE__@@V?$CSimpleArrayEqualHelper@PAUHINSTANCE__@@@ATL@@@ATL@@QBEHXZ 0043d793 f i atls:atlbase.obj
 0001:0003c797       ?RemoveAt@?$CSimpleArray@PAUHINSTANCE__@@V?$CSimpleArrayEqualHelper@PAUHINSTANCE__@@@ATL@@@ATL@@QAEHH@Z 0043d797 f i atls:atlbase.obj
 0001:0003c7da       ?RemoveAll@?$CSimpleArray@PAUHINSTANCE__@@V?$CSimpleArrayEqualHelper@PAUHINSTANCE__@@@ATL@@@ATL@@QAEXXZ 0043d7da f i atls:atlbase.obj
 0001:0003c7f7       ??0Wrapper@?$CSimpleArray@PAUHINSTANCE__@@V?$CSimpleArrayEqualHelper@PAUHINSTANCE__@@@ATL@@@ATL@@QAE@ABQAUHINSTANCE__@@@Z 0043d7f7 f i atls:atlbase.obj
 0001:0003c804       ??$?2PAUHINSTANCE__@@@Wrapper@?$CSimpleArray@PAUHINSTANCE__@@V?$CSimpleArrayEqualHelper@PAUHINSTANCE__@@@ATL@@@ATL@@SAPAXIPAPAUHINSTANCE__@@@Z 0043d804 f i atls:atlbase.obj
 0001:0003c809       ?Lock@CComCriticalSection@ATL@@QAEJXZ 0043d809 f i atls:atlbase.obj
 0001:0003c813       ?Unlock@CComCriticalSection@ATL@@QAEJXZ 0043d813 f i atls:atlbase.obj
 0001:0003c81d       ?Lock@?$CComCritSecLock@VCComCriticalSection@ATL@@@ATL@@QAEJXZ 0043d81d f i atls:atlbase.obj
 0001:0003c830       ??1?$CSimpleArray@PAUHINSTANCE__@@V?$CSimpleArrayEqualHelper@PAUHINSTANCE__@@@ATL@@@ATL@@QAE@XZ 0043d830 f i atls:atlbase.obj
 0001:0003c835       ??A?$CSimpleArray@PAUHINSTANCE__@@V?$CSimpleArrayEqualHelper@PAUHINSTANCE__@@@ATL@@@ATL@@QAEAAPAUHINSTANCE__@@H@Z 0043d835 f i atls:atlbase.obj
 0001:0003c85c       ?InternalSetAtIndex@?$CSimpleArray@PAUHINSTANCE__@@V?$CSimpleArrayEqualHelper@PAUHINSTANCE__@@@ATL@@@ATL@@QAEXHABQAUHINSTANCE__@@@Z 0043d85c f i atls:atlbase.obj
 0001:0003c874       ?Unlock@?$CComCritSecLock@VCComCriticalSection@ATL@@@ATL@@QAEXXZ 0043d874 f i atls:atlbase.obj
 0001:0003c885       ??0?$CComCritSecLock@VCComCriticalSection@ATL@@@ATL@@QAE@AAVCComCriticalSection@1@_N@Z 0043d885 f i atls:atlbase.obj
 0001:0003c8ae       ??1?$CComCritSecLock@VCComCriticalSection@ATL@@@ATL@@QAE@XZ 0043d8ae f i atls:atlbase.obj
 0001:0003c8c5       ??0_ATL_BASE_MODULE70@ATL@@QAE@XZ 0043d8c5 f i atls:atlbase.obj
 0001:0003c8df       ??1_ATL_BASE_MODULE70@ATL@@QAE@XZ 0043d8df f i atls:atlbase.obj
 0001:0003c8e7       ??1CAtlBaseModule@ATL@@QAE@XZ 0043d8e7 f   atls:atlbase.obj
 0001:0003c8fd       ?RemoveResourceInstance@CAtlBaseModule@ATL@@QAE_NPAUHINSTANCE__@@@Z 0043d8fd f   atls:atlbase.obj
 0001:0003c956       ?GetHInstanceAt@CAtlBaseModule@ATL@@QAEPAUHINSTANCE__@@H@Z 0043d956 f   atls:atlbase.obj
 0001:0003c9a4       ?Add@?$CSimpleArray@PAUHINSTANCE__@@V?$CSimpleArrayEqualHelper@PAUHINSTANCE__@@@ATL@@@ATL@@QAEHABQAUHINSTANCE__@@@Z 0043d9a4 f i atls:atlbase.obj
 0001:0003c9ef       ??0CAtlBaseModule@ATL@@QAE@XZ 0043d9ef f   atls:atlbase.obj
 0001:0003ca9e       ?AddResourceInstance@CAtlBaseModule@ATL@@QAE_NPAUHINSTANCE__@@@Z 0043da9e f   atls:atlbase.obj
 0001:0003cada       _CreateStdAccessibleObject@16 0043dada f   oleacc:OLEACC.dll
 0001:0003cae0       _AccessibleObjectFromWindow@16 0043dae0 f   oleacc:OLEACC.dll
 0001:0003cae6       _LresultFromObject@12      0043dae6 f   oleacc:OLEACC.dll
 0001:0003caec       _LocalFree@4               0043daec f   kernel32:KERNEL32.dll
 0001:0003caf2       _FormatMessageA@28         0043daf2 f   kernel32:KERNEL32.dll
 0001:0003caf8       _GlobalUnlock@4            0043daf8 f   kernel32:KERNEL32.dll
 0001:0003cafe       _GlobalLock@4              0043dafe f   kernel32:KERNEL32.dll
 0001:0003cb04       _GlobalAlloc@8             0043db04 f   kernel32:KERNEL32.dll
 0001:0003cb0a       _GlobalSize@4              0043db0a f   kernel32:KERNEL32.dll
 0001:0003cb10       _MulDiv@12                 0043db10 f   kernel32:KERNEL32.dll
 0001:0003cb16       _CopyFileA@12              0043db16 f   kernel32:KERNEL32.dll
 0001:0003cb1c       _GlobalFree@4              0043db1c f   kernel32:KERNEL32.dll
 0001:0003cb22       _SetLastError@4            0043db22 f   kernel32:KERNEL32.dll
 0001:0003cb28       _RaiseException@16         0043db28 f   kernel32:KERNEL32.dll
 0001:0003cb2e       _LocalAlloc@8              0043db2e f   kernel32:KERNEL32.dll
 0001:0003cb34       _GlobalReAlloc@12          0043db34 f   kernel32:KERNEL32.dll
 0001:0003cb3a       _GlobalHandle@4            0043db3a f   kernel32:KERNEL32.dll
 0001:0003cb40       _TlsGetValue@4             0043db40 f   kernel32:KERNEL32.dll
 0001:0003cb46       _TlsAlloc@0                0043db46 f   kernel32:KERNEL32.dll
 0001:0003cb4c       _TlsSetValue@8             0043db4c f   kernel32:KERNEL32.dll
 0001:0003cb52       _LocalReAlloc@12           0043db52 f   kernel32:KERNEL32.dll
 0001:0003cb58       _TlsFree@4                 0043db58 f   kernel32:KERNEL32.dll
 0001:0003cb5e       _FileTimeToSystemTime@8    0043db5e f   kernel32:KERNEL32.dll
 0001:0003cb64       _SystemTimeToFileTime@8    0043db64 f   kernel32:KERNEL32.dll
 0001:0003cb6a       _lstrcmpA@8                0043db6a f   kernel32:KERNEL32.dll
 0001:0003cb70       _GlobalFlags@4             0043db70 f   kernel32:KERNEL32.dll
 0001:0003cb76       _ResumeThread@4            0043db76 f   kernel32:KERNEL32.dll
 0001:0003cb7c       _GetCurrentThreadId@0      0043db7c f   kernel32:KERNEL32.dll
 0001:0003cb82       _SuspendThread@4           0043db82 f   kernel32:KERNEL32.dll
 0001:0003cb88       _GetModuleHandleA@4        0043db88 f   kernel32:KERNEL32.dll
 0001:0003cb8e       _lstrcmpW@8                0043db8e f   kernel32:KERNEL32.dll
 0001:0003cb94       _GlobalDeleteAtom@4        0043db94 f   kernel32:KERNEL32.dll
 0001:0003cb9a       _GlobalFindAtomA@4         0043db9a f   kernel32:KERNEL32.dll
 0001:0003cba0       _GlobalAddAtomA@4          0043dba0 f   kernel32:KERNEL32.dll
 0001:0003cba6       _GlobalGetAtomNameA@12     0043dba6 f   kernel32:KERNEL32.dll
 0001:0003cbac       _FreeResource@4            0043dbac f   kernel32:KERNEL32.dll
 0001:0003cbb2       _EnumResourceLanguagesA@20 0043dbb2 f   kernel32:KERNEL32.dll
 0001:0003cbb8       _ConvertDefaultLocale@4    0043dbb8 f   kernel32:KERNEL32.dll
 0001:0003cbbe       _GetCurrentThread@0        0043dbbe f   kernel32:KERNEL32.dll
 0001:0003cbc4       _GetCPInfo@8               0043dbc4 f   kernel32:KERNEL32.dll
 0001:0003cbca       _GetOEMCP@0                0043dbca f   kernel32:KERNEL32.dll
 0001:0003cbd0       _GetPrivateProfileIntA@16  0043dbd0 f   kernel32:KERNEL32.dll
 0001:0003cbd6       _WritePrivateProfileStringA@16 0043dbd6 f   kernel32:KERNEL32.dll
 0001:0003cbdc       _GetPrivateProfileStringA@24 0043dbdc f   kernel32:KERNEL32.dll
 0001:0003cbe2       _GetCurrentDirectoryA@8    0043dbe2 f   kernel32:KERNEL32.dll
 0001:0003cbe8       _MoveFileA@8               0043dbe8 f   kernel32:KERNEL32.dll
 0001:0003cbee       _DeleteFileA@4             0043dbee f   kernel32:KERNEL32.dll
 0001:0003cbf4       _ReadFile@20               0043dbf4 f   kernel32:KERNEL32.dll
 0001:0003cbfa       _WriteFile@20              0043dbfa f   kernel32:KERNEL32.dll
 0001:0003cc00       _SetFilePointer@16         0043dc00 f   kernel32:KERNEL32.dll
 0001:0003cc06       _FlushFileBuffers@4        0043dc06 f   kernel32:KERNEL32.dll
 0001:0003cc0c       _LockFile@20               0043dc0c f   kernel32:KERNEL32.dll
 0001:0003cc12       _UnlockFile@20             0043dc12 f   kernel32:KERNEL32.dll
 0001:0003cc18       _SetEndOfFile@4            0043dc18 f   kernel32:KERNEL32.dll
 0001:0003cc1e       _GetFileSize@8             0043dc1e f   kernel32:KERNEL32.dll
 0001:0003cc24       _DuplicateHandle@28        0043dc24 f   kernel32:KERNEL32.dll
 0001:0003cc2a       _GetCurrentProcess@0       0043dc2a f   kernel32:KERNEL32.dll
 0001:0003cc30       _FindClose@4               0043dc30 f   kernel32:KERNEL32.dll
 0001:0003cc36       _FindFirstFileA@8          0043dc36 f   kernel32:KERNEL32.dll
 0001:0003cc3c       _GetVolumeInformationA@32  0043dc3c f   kernel32:KERNEL32.dll
 0001:0003cc42       _GetShortPathNameA@12      0043dc42 f   kernel32:KERNEL32.dll
 0001:0003cc48       _FileTimeToLocalFileTime@8 0043dc48 f   kernel32:KERNEL32.dll
 0001:0003cc4e       _LocalFileTimeToFileTime@8 0043dc4e f   kernel32:KERNEL32.dll
 0001:0003cc54       _SetFileTime@16            0043dc54 f   kernel32:KERNEL32.dll
 0001:0003cc5a       _SetFileAttributesA@8      0043dc5a f   kernel32:KERNEL32.dll
 0001:0003cc60       _GetFileTime@16            0043dc60 f   kernel32:KERNEL32.dll
 0001:0003cc66       _ExitProcess@4             0043dc66 f   kernel32:KERNEL32.dll
 0001:0003cc6c       _GetSystemTimeAsFileTime@4 0043dc6c f   kernel32:KERNEL32.dll
 0001:0003cc72       _RtlUnwind@16              0043dc72 f   kernel32:KERNEL32.dll
 0001:0003cc78       _GetTimeFormatA@24         0043dc78 f   kernel32:KERNEL32.dll
 0001:0003cc7e       _GetDateFormatA@24         0043dc7e f   kernel32:KERNEL32.dll
 0001:0003cc84       _VirtualProtect@16         0043dc84 f   kernel32:KERNEL32.dll
 0001:0003cc8a       _VirtualQuery@12           0043dc8a f   kernel32:KERNEL32.dll
 0001:0003cc90       _ExitThread@4              0043dc90 f   kernel32:KERNEL32.dll
 0001:0003cc96       _CreateThread@24           0043dc96 f   kernel32:KERNEL32.dll
 0001:0003cc9c       _FindNextFileA@8           0043dc9c f   kernel32:KERNEL32.dll
 0001:0003cca2       _GetStartupInfoA@4         0043dca2 f   kernel32:KERNEL32.dll
 0001:0003cca8       _GetCommandLineA@0         0043dca8 f   kernel32:KERNEL32.dll
 0001:0003ccae       _HeapSize@12               0043dcae f   kernel32:KERNEL32.dll
 0001:0003ccb4       _GetCurrentProcessId@0     0043dcb4 f   kernel32:KERNEL32.dll
 0001:0003ccba       _GetTimeZoneInformation@4  0043dcba f   kernel32:KERNEL32.dll
 0001:0003ccc0       _FatalAppExitA@8           0043dcc0 f   kernel32:KERNEL32.dll
 0001:0003ccc6       _IsBadWritePtr@8           0043dcc6 f   kernel32:KERNEL32.dll
 0001:0003cccc       _LCMapStringA@24           0043dccc f   kernel32:KERNEL32.dll
 0001:0003ccd2       _LCMapStringW@24           0043dcd2 f   kernel32:KERNEL32.dll
 0001:0003ccd8       _UnhandledExceptionFilter@4 0043dcd8 f   kernel32:KERNEL32.dll
 0001:0003ccde       _SetHandleCount@4          0043dcde f   kernel32:KERNEL32.dll
 0001:0003cce4       _GetStdHandle@4            0043dce4 f   kernel32:KERNEL32.dll
 0001:0003ccea       _GetFileType@4             0043dcea f   kernel32:KERNEL32.dll
 0001:0003ccf0       _SetStdHandle@8            0043dcf0 f   kernel32:KERNEL32.dll
 0001:0003ccf6       _GetStringTypeA@20         0043dcf6 f   kernel32:KERNEL32.dll
 0001:0003ccfc       _GetStringTypeW@16         0043dcfc f   kernel32:KERNEL32.dll
 0001:0003cd02       _FreeEnvironmentStringsA@4 0043dd02 f   kernel32:KERNEL32.dll
 0001:0003cd08       _GetEnvironmentStrings@0   0043dd08 f   kernel32:KERNEL32.dll
 0001:0003cd0e       _FreeEnvironmentStringsW@4 0043dd0e f   kernel32:KERNEL32.dll
 0001:0003cd14       _GetEnvironmentStringsW@0  0043dd14 f   kernel32:KERNEL32.dll
 0001:0003cd1a       _GetUserDefaultLCID@0      0043dd1a f   kernel32:KERNEL32.dll
 0001:0003cd20       _EnumSystemLocalesA@8      0043dd20 f   kernel32:KERNEL32.dll
 0001:0003cd26       _IsValidLocale@8           0043dd26 f   kernel32:KERNEL32.dll
 0001:0003cd2c       _IsValidCodePage@4         0043dd2c f   kernel32:KERNEL32.dll
 0001:0003cd32       _IsBadReadPtr@8            0043dd32 f   kernel32:KERNEL32.dll
 0001:0003cd38       _IsBadCodePtr@4            0043dd38 f   kernel32:KERNEL32.dll
 0001:0003cd3e       _SetConsoleCtrlHandler@8   0043dd3e f   kernel32:KERNEL32.dll
 0001:0003cd44       _GetLocaleInfoW@16         0043dd44 f   kernel32:KERNEL32.dll
 0001:0003cd4a       _SetEnvironmentVariableA@8 0043dd4a f   kernel32:KERNEL32.dll
 0001:0003cd50       _RemoveMenu@12             0043dd50 f   user32:USER32.dll
 0001:0003cd56       _GetSubMenu@8              0043dd56 f   user32:USER32.dll
 0001:0003cd5c       _GetMenuItemCount@4        0043dd5c f   user32:USER32.dll
 0001:0003cd62       _InsertMenuA@20            0043dd62 f   user32:USER32.dll
 0001:0003cd68       _GetMenuItemID@8           0043dd68 f   user32:USER32.dll
 0001:0003cd6e       _AppendMenuA@16            0043dd6e f   user32:USER32.dll
 0001:0003cd74       _GetMenuStringA@20         0043dd74 f   user32:USER32.dll
 0001:0003cd7a       _GetMenuState@12           0043dd7a f   user32:USER32.dll
 0001:0003cd80       _UnregisterClassA@8        0043dd80 f   user32:USER32.dll
 0001:0003cd86       _GetSysColorBrush@4        0043dd86 f   user32:USER32.dll
 0001:0003cd8c       _GetSysColor@4             0043dd8c f   user32:USER32.dll
 0001:0003cd92       _ReleaseDC@8               0043dd92 f   user32:USER32.dll
 0001:0003cd98       _GetDC@4                   0043dd98 f   user32:USER32.dll
 0001:0003cd9e       _GetSystemMetrics@4        0043dd9e f   user32:USER32.dll
 0001:0003cda4       _UnhookWindowsHookEx@4     0043dda4 f   user32:USER32.dll
 0001:0003cdaa       _EnableWindow@8            0043ddaa f   user32:USER32.dll
 0001:0003cdb0       _IsWindowEnabled@4         0043ddb0 f   user32:USER32.dll
 0001:0003cdb6       _GetLastActivePopup@4      0043ddb6 f   user32:USER32.dll
 0001:0003cdbc       _GetWindowLongA@8          0043ddbc f   user32:USER32.dll
 0001:0003cdc2       _GetParent@4               0043ddc2 f   user32:USER32.dll
 0001:0003cdc8       _SendMessageA@16           0043ddc8 f   user32:USER32.dll
 0001:0003cdce       _GetWindowTextA@12         0043ddce f   user32:USER32.dll
 0001:0003cdd4       _GetWindowTextLengthA@4    0043ddd4 f   user32:USER32.dll
 0001:0003cdda       _GetClassNameA@12          0043ddda f   user32:USER32.dll
 0001:0003cde0       _SetWindowTextA@8          0043dde0 f   user32:USER32.dll
 0001:0003cde6       _GetDesktopWindow@0        0043dde6 f   user32:USER32.dll
 0001:0003cdec       _GetFocus@0                0043ddec f   user32:USER32.dll
 0001:0003cdf2       _PtInRect@12               0043ddf2 f   user32:USER32.dll
 0001:0003cdf8       _GetWindowRect@8           0043ddf8 f   user32:USER32.dll
 0001:0003cdfe       _GetDlgCtrlID@4            0043ddfe f   user32:USER32.dll
 0001:0003ce04       _GetWindow@8               0043de04 f   user32:USER32.dll
 0001:0003ce0a       _ClientToScreen@8          0043de0a f   user32:USER32.dll
 0001:0003ce10       _ValidateRect@8            0043de10 f   user32:USER32.dll
 0001:0003ce16       _GetCursorPos@4            0043de16 f   user32:USER32.dll
 0001:0003ce1c       _PeekMessageA@20           0043de1c f   user32:USER32.dll
 0001:0003ce22       _GetKeyState@4             0043de22 f   user32:USER32.dll
 0001:0003ce28       _IsWindowVisible@4         0043de28 f   user32:USER32.dll
 0001:0003ce2e       _GetActiveWindow@0         0043de2e f   user32:USER32.dll
 0001:0003ce34       _CallNextHookEx@16         0043de34 f   user32:USER32.dll
 0001:0003ce3a       _SetWindowsHookExA@16      0043de3a f   user32:USER32.dll
 0001:0003ce40       _SetFocus@4                0043de40 f   user32:USER32.dll
 0001:0003ce46       _SetScrollPos@16           0043de46 f   user32:USER32.dll
 0001:0003ce4c       _GetScrollPos@8            0043de4c f   user32:USER32.dll
 0001:0003ce52       _wsprintfA                 0043de52 f   user32:USER32.dll
 0001:0003ce58       _CheckDlgButton@12         0043de58 f   user32:USER32.dll
 0001:0003ce5e       _CheckRadioButton@16       0043de5e f   user32:USER32.dll
 0001:0003ce64       _GetDlgItem@8              0043de64 f   user32:USER32.dll
 0001:0003ce6a       _GetDlgItemInt@16          0043de6a f   user32:USER32.dll
 0001:0003ce70       _GetDlgItemTextA@16        0043de70 f   user32:USER32.dll
 0001:0003ce76       _SendDlgItemMessageA@20    0043de76 f   user32:USER32.dll
 0001:0003ce7c       _SetDlgItemInt@16          0043de7c f   user32:USER32.dll
 0001:0003ce82       _SetDlgItemTextA@12        0043de82 f   user32:USER32.dll
 0001:0003ce88       _IsDlgButtonChecked@8      0043de88 f   user32:USER32.dll
 0001:0003ce8e       _IsDialogMessageA@8        0043de8e f   user32:USER32.dll
 0001:0003ce94       _SetWindowLongA@12         0043de94 f   user32:USER32.dll
 0001:0003ce9a       _MoveWindow@24             0043de9a f   user32:USER32.dll
 0001:0003cea0       _ScrollWindowEx@32         0043dea0 f   user32:USER32.dll
 0001:0003cea6       _LoadBitmapA@8             0043dea6 f   user32:USER32.dll
 0001:0003ceac       _GetMenuCheckMarkDimensions@0 0043deac f   user32:USER32.dll
 0001:0003ceb2       _CheckMenuItem@12          0043deb2 f   user32:USER32.dll
 0001:0003ceb8       _EnableMenuItem@12         0043deb8 f   user32:USER32.dll
 0001:0003cebe       _ModifyMenuA@20            0043debe f   user32:USER32.dll
 0001:0003cec4       _SetMenuItemBitmaps@20     0043dec4 f   user32:USER32.dll
 0001:0003ceca       _CopyRect@8                0043deca f   user32:USER32.dll
 0001:0003ced0       _GetWindowPlacement@8      0043ded0 f   user32:USER32.dll
 0001:0003ced6       _IsIconic@4                0043ded6 f   user32:USER32.dll
 0001:0003cedc       _SystemParametersInfoA@16  0043dedc f   user32:USER32.dll
 0001:0003cee2       _IntersectRect@12          0043dee2 f   user32:USER32.dll
 0001:0003cee8       _OffsetRect@12             0043dee8 f   user32:USER32.dll
 0001:0003ceee       _CallWindowProcA@20        0043deee f   user32:USER32.dll
 0001:0003cef4       _SetWindowPlacement@8      0043def4 f   user32:USER32.dll
 0001:0003cefa       _RegisterClassA@4          0043defa f   user32:USER32.dll
 0001:0003cf00       _GetClassInfoA@12          0043df00 f   user32:USER32.dll
 0001:0003cf06       _SetScrollInfo@16          0043df06 f   user32:USER32.dll
 0001:0003cf0c       _GetScrollInfo@12          0043df0c f   user32:USER32.dll
 0001:0003cf12       _DeferWindowPos@32         0043df12 f   user32:USER32.dll
 0001:0003cf18       _EqualRect@8               0043df18 f   user32:USER32.dll
 0001:0003cf1e       _ScreenToClient@8          0043df1e f   user32:USER32.dll
 0001:0003cf24       _AdjustWindowRectEx@16     0043df24 f   user32:USER32.dll
 0001:0003cf2a       _PostMessageA@16           0043df2a f   user32:USER32.dll
 0001:0003cf30       _GetMenu@4                 0043df30 f   user32:USER32.dll
 0001:0003cf36       _GetClientRect@8           0043df36 f   user32:USER32.dll
 0001:0003cf3c       _ShowScrollBar@12          0043df3c f   user32:USER32.dll
 0001:0003cf42       _SetForegroundWindow@4     0043df42 f   user32:USER32.dll
 0001:0003cf48       _GetScrollRange@16         0043df48 f   user32:USER32.dll
 0001:0003cf4e       _SetScrollRange@20         0043df4e f   user32:USER32.dll
 0001:0003cf54       _TrackPopupMenu@28         0043df54 f   user32:USER32.dll
 0001:0003cf5a       _TrackPopupMenuEx@24       0043df5a f   user32:USER32.dll
 0001:0003cf60       _ScrollWindow@20           0043df60 f   user32:USER32.dll
 0001:0003cf66       _MapWindowPoints@16        0043df66 f   user32:USER32.dll
 0001:0003cf6c       _GetMessagePos@0           0043df6c f   user32:USER32.dll
 0001:0003cf72       _GetMessageTime@0          0043df72 f   user32:USER32.dll
 0001:0003cf78       _GetTopWindow@4            0043df78 f   user32:USER32.dll
 0001:0003cf7e       _EndDeferWindowPos@4       0043df7e f   user32:USER32.dll
 0001:0003cf84       _BeginDeferWindowPos@4     0043df84 f   user32:USER32.dll
 0001:0003cf8a       _SetActiveWindow@4         0043df8a f   user32:USER32.dll
 0001:0003cf90       _GetForegroundWindow@0     0043df90 f   user32:USER32.dll
 0001:0003cf96       _IsChild@8                 0043df96 f   user32:USER32.dll
 0001:0003cf9c       _IsWindow@4                0043df9c f   user32:USER32.dll
 0001:0003cfa2       _RemovePropA@8             0043dfa2 f   user32:USER32.dll
 0001:0003cfa8       _GetPropA@8                0043dfa8 f   user32:USER32.dll
 0001:0003cfae       _SetPropA@12               0043dfae f   user32:USER32.dll
 0001:0003cfb4       _GetClassInfoExA@12        0043dfb4 f   user32:USER32.dll
 0001:0003cfba       _GetClassLongA@8           0043dfba f   user32:USER32.dll
 0001:0003cfc0       _GetCapture@0              0043dfc0 f   user32:USER32.dll
 0001:0003cfc6       _WinHelpA@16               0043dfc6 f   user32:USER32.dll
 0001:0003cfcc       _RegisterWindowMessageA@4  0043dfcc f   user32:USER32.dll
 0001:0003cfd2       _FillRect@12               0043dfd2 f   user32:USER32.dll
 0001:0003cfd8       _TabbedTextOutA@32         0043dfd8 f   user32:USER32.dll
 0001:0003cfde       _DrawTextA@20              0043dfde f   user32:USER32.dll
 0001:0003cfe4       _DrawTextExA@24            0043dfe4 f   user32:USER32.dll
 0001:0003cfea       _GrayStringA@36            0043dfea f   user32:USER32.dll
 0001:0003cff0       _GetWindowDC@4             0043dff0 f   user32:USER32.dll
 0001:0003cff6       _InflateRect@12            0043dff6 f   user32:USER32.dll
 0001:0003cffc       _GetMenuItemInfoA@16       0043dffc f   user32:USER32.dll
 0001:0003d002       _DestroyMenu@4             0043e002 f   user32:USER32.dll
 0001:0003d008       _SetCursor@4               0043e008 f   user32:USER32.dll
 0001:0003d00e       _ShowOwnedPopups@8         0043e00e f   user32:USER32.dll
 0001:0003d014       _DeleteMenu@12             0043e014 f   user32:USER32.dll
 0001:0003d01a       _DestroyIcon@4             0043e01a f   user32:USER32.dll
 0001:0003d020       _EndDialog@8               0043e020 f   user32:USER32.dll
 0001:0003d026       _GetNextDlgTabItem@12      0043e026 f   user32:USER32.dll
 0001:0003d02c       _CreateDialogIndirectParamA@20 0043e02c f   user32:USER32.dll
 0001:0003d032       _GetDialogBaseUnits@0      0043e032 f   user32:USER32.dll
 0001:0003d038       _GetDeviceCaps@8           0043e038 f   gdi32:GDI32.dll
 0001:0003d03e       _CopyMetaFileA@8           0043e03e f   gdi32:GDI32.dll
 0001:0003d044       _CreateDCA@16              0043e044 f   gdi32:GDI32.dll
 0001:0003d04a       _CreateBitmap@20           0043e04a f   gdi32:GDI32.dll
 0001:0003d050       _GetDCOrgEx@8              0043e050 f   gdi32:GDI32.dll
 0001:0003d056       _GetClipBox@8              0043e056 f   gdi32:GDI32.dll
 0001:0003d05c       _GetObjectA@12             0043e05c f   gdi32:GDI32.dll
 0001:0003d062       _SaveDC@4                  0043e062 f   gdi32:GDI32.dll
 0001:0003d068       _RestoreDC@8               0043e068 f   gdi32:GDI32.dll
 0001:0003d06e       _SetPolyFillMode@8         0043e06e f   gdi32:GDI32.dll
 0001:0003d074       _SetROP2@8                 0043e074 f   gdi32:GDI32.dll
 0001:0003d07a       _SetStretchBltMode@8       0043e07a f   gdi32:GDI32.dll
 0001:0003d080       _SetMapMode@8              0043e080 f   gdi32:GDI32.dll
 0001:0003d086       _ExcludeClipRect@20        0043e086 f   gdi32:GDI32.dll
 0001:0003d08c       _IntersectClipRect@20      0043e08c f   gdi32:GDI32.dll
 0001:0003d092       _OffsetClipRgn@12          0043e092 f   gdi32:GDI32.dll
 0001:0003d098       _LineTo@12                 0043e098 f   gdi32:GDI32.dll
 0001:0003d09e       _MoveToEx@16               0043e09e f   gdi32:GDI32.dll
 0001:0003d0a4       _SetTextAlign@8            0043e0a4 f   gdi32:GDI32.dll
 0001:0003d0aa       _SetTextJustification@12   0043e0aa f   gdi32:GDI32.dll
 0001:0003d0b0       _SetTextCharacterExtra@8   0043e0b0 f   gdi32:GDI32.dll
 0001:0003d0b6       _SetMapperFlags@8          0043e0b6 f   gdi32:GDI32.dll
 0001:0003d0bc       _SetArcDirection@8         0043e0bc f   gdi32:GDI32.dll
 0001:0003d0c2       _SetColorAdjustment@8      0043e0c2 f   gdi32:GDI32.dll
 0001:0003d0c8       _SelectClipRgn@8           0043e0c8 f   gdi32:GDI32.dll
 0001:0003d0ce       _GetClipRgn@8              0043e0ce f   gdi32:GDI32.dll
 0001:0003d0d4       _CreateRectRgn@16          0043e0d4 f   gdi32:GDI32.dll
 0001:0003d0da       _SelectClipPath@8          0043e0da f   gdi32:GDI32.dll
 0001:0003d0e0       _GetViewportExtEx@8        0043e0e0 f   gdi32:GDI32.dll
 0001:0003d0e6       _GetWindowExtEx@8          0043e0e6 f   gdi32:GDI32.dll
 0001:0003d0ec       _BitBlt@36                 0043e0ec f   gdi32:GDI32.dll
 0001:0003d0f2       _GetPixel@12               0043e0f2 f   gdi32:GDI32.dll
 0001:0003d0f8       _StartDocA@8               0043e0f8 f   gdi32:GDI32.dll
 0001:0003d0fe       _PtVisible@12              0043e0fe f   gdi32:GDI32.dll
 0001:0003d104       _RectVisible@8             0043e104 f   gdi32:GDI32.dll
 0001:0003d10a       _ExtTextOutA@32            0043e10a f   gdi32:GDI32.dll
 0001:0003d110       _Escape@20                 0043e110 f   gdi32:GDI32.dll
 0001:0003d116       _SetViewportOrgEx@16       0043e116 f   gdi32:GDI32.dll
 0001:0003d11c       _OffsetViewportOrgEx@16    0043e11c f   gdi32:GDI32.dll
 0001:0003d122       _SetViewportExtEx@16       0043e122 f   gdi32:GDI32.dll
 0001:0003d128       _ScaleViewportExtEx@24     0043e128 f   gdi32:GDI32.dll
 0001:0003d12e       _SetWindowOrgEx@16         0043e12e f   gdi32:GDI32.dll
 0001:0003d134       _OffsetWindowOrgEx@16      0043e134 f   gdi32:GDI32.dll
 0001:0003d13a       _SetWindowExtEx@16         0043e13a f   gdi32:GDI32.dll
 0001:0003d140       _ScaleWindowExtEx@24       0043e140 f   gdi32:GDI32.dll
 0001:0003d146       _GetCurrentPositionEx@8    0043e146 f   gdi32:GDI32.dll
 0001:0003d14c       _ArcTo@36                  0043e14c f   gdi32:GDI32.dll
 0001:0003d152       _PolyDraw@16               0043e152 f   gdi32:GDI32.dll
 0001:0003d158       _PolylineTo@12             0043e158 f   gdi32:GDI32.dll
 0001:0003d15e       _PolyBezierTo@12           0043e15e f   gdi32:GDI32.dll
 0001:0003d164       _ExtSelectClipRgn@12       0043e164 f   gdi32:GDI32.dll
 0001:0003d16a       _DeleteDC@4                0043e16a f   gdi32:GDI32.dll
 0001:0003d170       _CreateDIBPatternBrushPt@8 0043e170 f   gdi32:GDI32.dll
 0001:0003d176       _CreatePatternBrush@4      0043e176 f   gdi32:GDI32.dll
 0001:0003d17c       _CreateCompatibleDC@4      0043e17c f   gdi32:GDI32.dll
 0001:0003d182       _GetStockObject@4          0043e182 f   gdi32:GDI32.dll
 0001:0003d188       _SelectPalette@12          0043e188 f   gdi32:GDI32.dll
 0001:0003d18e       _PlayMetaFileRecord@16     0043e18e f   gdi32:GDI32.dll
 0001:0003d194       _GetObjectType@4           0043e194 f   gdi32:GDI32.dll
 0001:0003d19a       _EnumMetaFile@16           0043e19a f   gdi32:GDI32.dll
 0001:0003d1a0       _PlayMetaFile@8            0043e1a0 f   gdi32:GDI32.dll
 0001:0003d1a6       _CreatePen@12              0043e1a6 f   gdi32:GDI32.dll
 0001:0003d1ac       _ExtCreatePen@20           0043e1ac f   gdi32:GDI32.dll
 0001:0003d1b2       _CreateSolidBrush@4        0043e1b2 f   gdi32:GDI32.dll
 0001:0003d1b8       _CreateHatchBrush@8        0043e1b8 f   gdi32:GDI32.dll
 0001:0003d1be       _CreateFontIndirectA@4     0043e1be f   gdi32:GDI32.dll
 0001:0003d1c4       _GetTextExtentPoint32A@16  0043e1c4 f   gdi32:GDI32.dll
 0001:0003d1ca       _CreateRectRgnIndirect@4   0043e1ca f   gdi32:GDI32.dll
 0001:0003d1d0       _SetRectRgn@20             0043e1d0 f   gdi32:GDI32.dll
 0001:0003d1d6       _CombineRgn@16             0043e1d6 f   gdi32:GDI32.dll
 0001:0003d1dc       _GetMapMode@4              0043e1dc f   gdi32:GDI32.dll
 0001:0003d1e2       _PatBlt@24                 0043e1e2 f   gdi32:GDI32.dll
 0001:0003d1e8       _DPtoLP@12                 0043e1e8 f   gdi32:GDI32.dll
 0001:0003d1ee       _GetTextMetricsA@8         0043e1ee f   gdi32:GDI32.dll
 0001:0003d1f4       _ClosePrinter@4            0043e1f4 f   winspool:WINSPOOL.DRV
 0001:0003d1fa       _DocumentPropertiesA@24    0043e1fa f   winspool:WINSPOOL.DRV
 0001:0003d200       _OpenPrinterA@12           0043e200 f   winspool:WINSPOOL.DRV
 0001:0003d206       _GetFileTitleA@12          0043e206 f   comdlg32:comdlg32.dll
 0001:0003d20c       _GetSaveFileNameA@4        0043e20c f   comdlg32:comdlg32.dll
 0001:0003d212       _GetOpenFileNameA@4        0043e212 f   comdlg32:comdlg32.dll
 0001:0003d218       _RegSetValueA@20           0043e218 f   advapi32:ADVAPI32.dll
 0001:0003d21e       _RegOpenKeyA@12            0043e21e f   advapi32:ADVAPI32.dll
 0001:0003d224       _RegCreateKeyExA@36        0043e224 f   advapi32:ADVAPI32.dll
 0001:0003d22a       _RegDeleteValueA@8         0043e22a f   advapi32:ADVAPI32.dll
 0001:0003d230       _RegDeleteKeyA@8           0043e230 f   advapi32:ADVAPI32.dll
 0001:0003d236       _RegEnumKeyA@16            0043e236 f   advapi32:ADVAPI32.dll
 0001:0003d23c       _RegQueryValueA@16         0043e23c f   advapi32:ADVAPI32.dll
 0001:0003d242       _RegCreateKeyA@12          0043e242 f   advapi32:ADVAPI32.dll
 0001:0003d248       _SHGetFileInfoA@20         0043e248 f   shell32:SHELL32.dll
 0001:0003d24e       _ExtractIconA@12           0043e24e f   shell32:SHELL32.dll
 0001:0003d254       _CoTaskMemFree@4           0043e254 f   ole32:ole32.dll
 0001:0003d25a       _SetConvertStg@8           0043e25a f   ole32:ole32.dll
 0001:0003d260       _WriteFmtUserTypeStg@12    0043e260 f   ole32:ole32.dll
 0001:0003d266       _WriteClassStg@8           0043e266 f   ole32:ole32.dll
 0001:0003d26c       _OleRegGetUserType@12      0043e26c f   ole32:ole32.dll
 0001:0003d272       _ReadFmtUserTypeStg@12     0043e272 f   ole32:ole32.dll
 0001:0003d278       _ReadClassStg@8            0043e278 f   ole32:ole32.dll
 0001:0003d27e       _StringFromCLSID@8         0043e27e f   ole32:ole32.dll
 0001:0003d284       _CoTreatAsClass@8          0043e284 f   ole32:ole32.dll
 0001:0003d28a       _CreateBindCtx@8           0043e28a f   ole32:ole32.dll
 0001:0003d290       _CoTaskMemAlloc@4          0043e290 f   ole32:ole32.dll
 0001:0003d296       _ReleaseStgMedium@4        0043e296 f   ole32:ole32.dll
 0001:0003d29c       _OleDuplicateData@12       0043e29c f   ole32:ole32.dll
 0001:0003d2a2       _CoDisconnectObject@8      0043e2a2 f   ole32:ole32.dll
 0001:0003d2a8       _CoCreateInstance@20       0043e2a8 f   ole32:ole32.dll
 0001:0003d2ae       _StringFromGUID2@12        0043e2ae f   ole32:ole32.dll
 0001:0003d2b4       _CLSIDFromString@8         0043e2b4 f   ole32:ole32.dll
 0001:0003d2ba       _SysFreeString@4           0043e2ba f   oleaut32:OLEAUT32.dll
 0001:0003d2c0       _SysStringLen@4            0043e2c0 f   oleaut32:OLEAUT32.dll
 0001:0003d2c6       _SysAllocStringByteLen@8   0043e2c6 f   oleaut32:OLEAUT32.dll
 0001:0003d2cc       _SysStringByteLen@4        0043e2cc f   oleaut32:OLEAUT32.dll
 0001:0003d2d2       _SafeArrayUnaccessData@4   0043e2d2 f   oleaut32:OLEAUT32.dll
 0001:0003d2d8       _SafeArrayAccessData@8     0043e2d8 f   oleaut32:OLEAUT32.dll
 0001:0003d2de       _SafeArrayGetUBound@12     0043e2de f   oleaut32:OLEAUT32.dll
 0001:0003d2e4       _SafeArrayGetLBound@12     0043e2e4 f   oleaut32:OLEAUT32.dll
 0001:0003d2ea       _SafeArrayGetElemsize@4    0043e2ea f   oleaut32:OLEAUT32.dll
 0001:0003d2f0       _SafeArrayGetDim@4         0043e2f0 f   oleaut32:OLEAUT32.dll
 0001:0003d2f6       _SafeArrayCreate@12        0043e2f6 f   oleaut32:OLEAUT32.dll
 0001:0003d2fc       _VariantClear@4            0043e2fc f   oleaut32:OLEAUT32.dll
 0001:0003d302       _SafeArrayRedim@8          0043e302 f   oleaut32:OLEAUT32.dll
 0001:0003d308       _VariantChangeType@16      0043e308 f   oleaut32:OLEAUT32.dll
 0001:0003d30e       _VariantCopy@8             0043e30e f   oleaut32:OLEAUT32.dll
 0001:0003d314       _SafeArrayAllocData@4      0043e314 f   oleaut32:OLEAUT32.dll
 0001:0003d31a       _SafeArrayAllocDescriptor@8 0043e31a f   oleaut32:OLEAUT32.dll
 0001:0003d320       _SafeArrayCopy@8           0043e320 f   oleaut32:OLEAUT32.dll
 0001:0003d326       _SafeArrayGetElement@12    0043e326 f   oleaut32:OLEAUT32.dll
 0001:0003d32c       _SafeArrayPtrOfIndex@12    0043e32c f   oleaut32:OLEAUT32.dll
 0001:0003d332       _SafeArrayPutElement@12    0043e332 f   oleaut32:OLEAUT32.dll
 0001:0003d338       _SafeArrayLock@4           0043e338 f   oleaut32:OLEAUT32.dll
 0001:0003d33e       _SafeArrayUnlock@4         0043e33e f   oleaut32:OLEAUT32.dll
 0001:0003d344       _SafeArrayDestroy@4        0043e344 f   oleaut32:OLEAUT32.dll
 0001:0003d34a       _SafeArrayDestroyData@4    0043e34a f   oleaut32:OLEAUT32.dll
 0001:0003d350       _SafeArrayDestroyDescriptor@4 0043e350 f   oleaut32:OLEAUT32.dll
 0001:0003d356       _SysAllocStringLen@8       0043e356 f   oleaut32:OLEAUT32.dll
 0001:0003d35c       _VariantTimeToSystemTime@12 0043e35c f   oleaut32:OLEAUT32.dll
 0001:0003d362       _SystemTimeToVariantTime@8 0043e362 f   oleaut32:OLEAUT32.dll
 0001:0003d368       _SysAllocString@4          0043e368 f   oleaut32:OLEAUT32.dll
 0001:0003d36e       _SysReAllocStringLen@12    0043e36e f   oleaut32:OLEAUT32.dll
 0001:0003d374       _VarDateFromStr@16         0043e374 f   oleaut32:OLEAUT32.dll
 0001:0003d37a       _VarBstrFromDec@16         0043e37a f   oleaut32:OLEAUT32.dll
 0001:0003d380       _VarDecFromStr@16          0043e380 f   oleaut32:OLEAUT32.dll
 0001:0003d386       _VarCyFromStr@16           0043e386 f   oleaut32:OLEAUT32.dll
 0001:0003d38c       _VarBstrFromCy@20          0043e38c f   oleaut32:OLEAUT32.dll
 0001:0003d392       _VarBstrFromDate@20        0043e392 f   oleaut32:OLEAUT32.dll
 0001:0003d398       _VariantInit@4             0043e398 f   oleaut32:OLEAUT32.dll
 0001:0003d39e       __check_commonlanguageruntime_version 0043e39e f   libcmt:checkclr.obj
 0001:0003d5ff       __strlwr                   0043e5ff f   libcmt:strlwr.obj
 0001:0003d5ff       _strlwr                    0043e5ff f   libcmt:strlwr.obj
 0001:0003d713       __fileno                   0043e713 f   libcmt:fileno.obj
 0001:0003d713       _fileno                    0043e713 f   libcmt:fileno.obj
 0001:0003d71c       __CorExeMain@0             0043e71c f   MSCOREE:mscoree.dll
 0001:0003d722       _VerQueryValueA@16         0043e722 f   VERSION:VERSION.dll
 0001:0003d728       _GetFileVersionInfoA@16    0043e728 f   VERSION:VERSION.dll
 0001:0003d72e       _GetFileVersionInfoSizeA@8 0043e72e f   VERSION:VERSION.dll
 0001:0003d734       _GlobalMemoryStatus@4      0043e734 f   kernel32:KERNEL32.dll
 0001:0003d73a       _FileTimeToDosDateTime@12  0043e73a f   kernel32:KERNEL32.dll
 0001:0003d740       _GetUserNameA@8            0043e740 f   advapi32:ADVAPI32.dll
 0001:0003d746       __splitpath                0043e746 f   libcmt:splitpat.obj
 0001:0003d88e       __makepath                 0043e88e f   libcmt:makepath.obj
 0001:0003d91e       __vsnwprintf               0043e91e f   libcmt:vsnwprnt.obj
 0001:0003d98d       _wcsncpy                   0043e98d f   libcmt:wcsncpy.obj
 0001:0003d9ca       __wsplitpath               0043e9ca f   libcmt:wsplitpa.obj
 0001:0003db25       __wmakepath                0043eb25 f   libcmt:wmakepat.obj
 0001:0003dbd6       ?InitString@CSimpleException@@QAEXXZ 0043ebd6 f   nafxcw:except.obj
 0001:0003dbff       ?GetErrorMessage@CSimpleException@@UAEHPADIPAI@Z 0043ebff f   nafxcw:except.obj
 0001:0003dc4f       ?AfxThrowMemoryException@@YGXXZ 0043ec4f f   nafxcw:except.obj
 0001:0003dc69       ?AfxThrowNotSupportedException@@YGXXZ 0043ec69 f   nafxcw:except.obj
 0001:0003dc83       ?AfxThrowInvalidArgException@@YGXXZ 0043ec83 f   nafxcw:except.obj
 0001:0003dc9d       ?GetOFN@CFileDialog@@QBEABUtagOFNA@@XZ 0043ec9d f   nafxcw:dlgfile.obj
 0001:0003dca1       ?GetOFN@CFileDialog@@QAEAAUtagOFNA@@XZ 0043eca1 f   nafxcw:dlgfile.obj
 0001:0003dca5       ?DoModal@CFileDialog@@UAEHXZ 0043eca5 f   nafxcw:dlgfile.obj
 0001:0003dd8f       ?SetTemplate@CFileDialog@@QAEXPBD0@Z 0043ed8f f   nafxcw:dlgfile.obj
 0001:0003ddad       ?OnShareViolation@CFileDialog@@MAEIPBD@Z 0043edad f   nafxcw:dlgfile.obj
 0001:0003ddb2       ?OnFileNameOK@CFileDialog@@MAEHXZ 0043edb2 f   nafxcw:dlgfile.obj
 0001:0003ddb5       ?OnLBSelChangedNotify@CFileDialog@@MAEXIII@Z 0043edb5 f   nafxcw:dlgfile.obj
 0001:0003ddb8       ?OnFileNameChange@CFileDialog@@MAEXXZ 0043edb8 f   nafxcw:dlgfile.obj
 0001:0003ddb9       ?OnFolderChange@CFileDialog@@MAEXXZ 0043edb9 f   nafxcw:dlgfile.obj
 0001:0003ddba       ?OnTypeChange@CFileDialog@@MAEXXZ 0043edba f   nafxcw:dlgfile.obj
 0001:0003ddbb       ?SetControlText@CFileDialog@@QAEXHPBD@Z 0043edbb f   nafxcw:dlgfile.obj
 0001:0003dde3       ?HideControl@CFileDialog@@QAEXH@Z 0043ede3 f   nafxcw:dlgfile.obj
 0001:0003de09       ?SetDefExt@CFileDialog@@QAEXPBD@Z 0043ee09 f   nafxcw:dlgfile.obj
 0001:0003de2f       ?OnInitDone@CFileDialog@@MAEXXZ 0043ee2f f   nafxcw:dlgfile.obj
 0001:0003de48       ?OnNotify@CFileDialog@@MAEHIJPAJ@Z 0043ee48 f   nafxcw:dlgfile.obj
 0001:0003df26       ??1CFileDialog@@UAE@XZ     0043ef26 f   nafxcw:dlgfile.obj
 0001:0003df4b       ??_ECFileDialog@@UAEPAXI@Z 0043ef4b f i nafxcw:dlgfile.obj
 0001:0003df4b       ??_GCFileDialog@@UAEPAXI@Z 0043ef4b f i nafxcw:dlgfile.obj
 0001:0003df67       ?GetFolderPath@CFileDialog@@QBE?AV?$CStringT@DV?$StrTraitMFC@DV?$ChTraitsCRT@D@ATL@@@@@ATL@@XZ 0043ef67 f   nafxcw:dlgfile.obj
 0001:0003e000       ??0CFileDialog@@QAE@HPBD0K0PAVCWnd@@K@Z 0043f000 f   nafxcw:dlgfile.obj
 0001:0003e1c3       ?GetPathName@CFileDialog@@QBE?AV?$CStringT@DV?$StrTraitMFC@DV?$ChTraitsCRT@D@ATL@@@@@ATL@@XZ 0043f1c3 f   nafxcw:dlgfile.obj
 0001:0003e2dc       ?GetFileName@CFileDialog@@QBE?AV?$CStringT@DV?$StrTraitMFC@DV?$ChTraitsCRT@D@ATL@@@@@ATL@@XZ 0043f2dc f   nafxcw:dlgfile.obj
 0001:0003e3a0       ?GetFileExt@CFileDialog@@QBE?AV?$CStringT@DV?$StrTraitMFC@DV?$ChTraitsCRT@D@ATL@@@@@ATL@@XZ 0043f3a0 f   nafxcw:dlgfile.obj
 0001:0003e4b0       ?GetFileTitle@CFileDialog@@QBE?AV?$CStringT@DV?$StrTraitMFC@DV?$ChTraitsCRT@D@ATL@@@@@ATL@@XZ 0043f4b0 f   nafxcw:dlgfile.obj
 0001:0003e50d       ?GetNextPathName@CFileDialog@@QBE?AV?$CStringT@DV?$StrTraitMFC@DV?$ChTraitsCRT@D@ATL@@@@@ATL@@AAPAU__POSITION@@@Z 0043f50d f   nafxcw:dlgfile.obj
 0001:0003e6fd       ?GetMessageMap@CCommonDialog@@MBEPBUAFX_MSGMAP@@XZ 0043f6fd f   nafxcw:dlgcomm.obj
 0001:0003e703       ?OnOK@CCommonDialog@@MAEXXZ 0043f703 f   nafxcw:dlgcomm.obj
 0001:0003e71b       ?OnCancel@CCommonDialog@@MAEXXZ 0043f71b f   nafxcw:dlgcomm.obj
 0001:0003e720       ?OnHelpInfo@CCommonDialog@@IAEHPAUtagHELPINFO@@@Z 0043f720 f   nafxcw:dlgcomm.obj
 0001:0003e72e       ?OnPaint@CCommonDialog@@IAEXXZ 0043f72e f   nafxcw:dlgcomm.obj
 0001:0003e733       ?_AfxCommDlgProc@@YGIPAUHWND__@@IIJ@Z 0043f733 f   nafxcw:dlgcomm.obj
 0001:0003e8ce       ?AddRef@CArchiveStream@@UAGKXZ 0043f8ce f   nafxcw:arcstrm.obj
 0001:0003e8d4       ?Release@CArchiveStream@@UAGKXZ 0043f8d4 f   nafxcw:arcstrm.obj
 0001:0003e8d9       ?Read@CArchiveStream@@UAGJPAXKPAK@Z 0043f8d9 f   nafxcw:arcstrm.obj
 0001:0003e931       ?Write@CArchiveStream@@UAGJPBXKPAK@Z 0043f931 f   nafxcw:arcstrm.obj
 0001:0003e98a       ?SetSize@CArchiveStream@@UAGJT_ULARGE_INTEGER@@@Z 0043f98a f   nafxcw:arcstrm.obj
 0001:0003e992       ?CopyTo@CArchiveStream@@UAGJPAUIStream@@T_ULARGE_INTEGER@@PAT3@2@Z 0043f992 f   nafxcw:arcstrm.obj
 0001:0003e99a       ?Commit@CArchiveStream@@UAGJK@Z 0043f99a f   nafxcw:arcstrm.obj
 0001:0003e9a2       ?Revert@CArchiveStream@@UAGJXZ 0043f9a2 f   nafxcw:arcstrm.obj
 0001:0003e9aa       ?LockRegion@CArchiveStream@@UAGJT_ULARGE_INTEGER@@0K@Z 0043f9aa f   nafxcw:arcstrm.obj
 0001:0003e9b2       ?UnlockRegion@CArchiveStream@@UAGJT_ULARGE_INTEGER@@0K@Z 0043f9b2 f   nafxcw:arcstrm.obj
 0001:0003e9ba       ?Stat@CArchiveStream@@UAGJPAUtagSTATSTG@@K@Z 0043f9ba f   nafxcw:arcstrm.obj
 0001:0003e9c2       ?Clone@CArchiveStream@@UAGJPAPAUIStream@@@Z 0043f9c2 f   nafxcw:arcstrm.obj
 0001:0003e9ca       ?QueryInterface@CArchiveStream@@UAGJABU_GUID@@PAPAX@Z 0043f9ca f   nafxcw:arcstrm.obj
 0001:0003ea13       ?Seek@CArchiveStream@@UAGJT_LARGE_INTEGER@@KPAT_ULARGE_INTEGER@@@Z 0043fa13 f   nafxcw:arcstrm.obj
 0001:0003ea85       ??0CArchiveStream@@QAE@PAVCArchive@@@Z 0043fa85 f   nafxcw:arcstrm.obj
 0001:0003ea97       ?data@CPlex@@QAEPAXXZ      0043fa97 f i nafxcw:map_pp.obj
 0001:0003ea9b       ?RemoveAll@CPtrList@@QAEXXZ 0043fa9b f   nafxcw:list_p.obj
 0001:0003eabb       ?FreeNode@CPtrList@@IAEXPAUCNode@1@@Z 0043fabb f   nafxcw:list_p.obj
 0001:0003eadd       ?RemoveHead@CPtrList@@QAEPAXXZ 0043fadd f   nafxcw:list_p.obj
 0001:0003eb01       ?RemoveTail@CPtrList@@QAEPAXXZ 0043fb01 f   nafxcw:list_p.obj
 0001:0003eb25       ?RemoveAt@CPtrList@@QAEXPAU__POSITION@@@Z 0043fb25 f   nafxcw:list_p.obj
 0001:0003eb65       ?FindIndex@CPtrList@@QBEPAU__POSITION@@H@Z 0043fb65 f   nafxcw:list_p.obj
 0001:0003eb83       ?Find@CPtrList@@QBEPAU__POSITION@@PAXPAU2@@Z 0043fb83 f   nafxcw:list_p.obj
 0001:0003eba2       ??0CPtrList@@QAE@H@Z       0043fba2 f   nafxcw:list_p.obj
 0001:0003ebc5       ??1CPtrList@@UAE@XZ        0043fbc5 f   nafxcw:list_p.obj
 0001:0003ebd0       ?NewNode@CPtrList@@IAEPAUCNode@1@PAU21@0@Z 0043fbd0 f   nafxcw:list_p.obj
 0001:0003ec26       ?AddHead@CPtrList@@QAEPAU__POSITION@@PAX@Z 0043fc26 f   nafxcw:list_p.obj
 0001:0003ec50       ?AddTail@CPtrList@@QAEPAU__POSITION@@PAX@Z 0043fc50 f   nafxcw:list_p.obj
 0001:0003ec79       ?AddHead@CPtrList@@QAEXPAV1@@Z 0043fc79 f   nafxcw:list_p.obj
 0001:0003ecb6       ?AddTail@CPtrList@@QAEXPAV1@@Z 0043fcb6 f   nafxcw:list_p.obj
 0001:0003ecf3       ?InsertBefore@CPtrList@@QAEPAU__POSITION@@PAU2@PAX@Z 0043fcf3 f   nafxcw:list_p.obj
 0001:0003ed30       ?InsertAfter@CPtrList@@QAEPAU__POSITION@@PAU2@PAX@Z 0043fd30 f   nafxcw:list_p.obj
 0001:0003ed6b       ??_ECPtrList@@UAEPAXI@Z    0043fd6b f i nafxcw:list_p.obj
 0001:0003ed6b       ??_GCPtrList@@UAEPAXI@Z    0043fd6b f i nafxcw:list_p.obj
 0001:0003ed87       ?SetSize@CByteArray@@QAEXHH@Z 0043fd87 f   nafxcw:array_b.obj
 0001:0003ee8c       ?Append@CByteArray@@QAEHABV1@@Z 0043fe8c f   nafxcw:array_b.obj
 0001:0003eecc       ?Copy@CByteArray@@QAEXABV1@@Z 0043fecc f   nafxcw:array_b.obj
 0001:0003eef8       ?FreeExtra@CByteArray@@QAEXXZ 0043fef8 f   nafxcw:array_b.obj
 0001:0003ef36       ?SetAtGrow@CByteArray@@QAEXHE@Z 0043ff36 f   nafxcw:array_b.obj
 0001:0003ef68       ?InsertAt@CByteArray@@QAEXHEH@Z 0043ff68 f   nafxcw:array_b.obj
 0001:0003efe1       ?RemoveAt@CByteArray@@QAEXHH@Z 0043ffe1 f   nafxcw:array_b.obj
 0001:0003f026       ??0CByteArray@@QAE@XZ      00440026 f   nafxcw:array_b.obj
 0001:0003f03d       ??1CByteArray@@UAE@XZ      0044003d f   nafxcw:array_b.obj
 0001:0003f04d       ?InsertAt@CByteArray@@QAEXHPAV1@@Z 0044004d f   nafxcw:array_b.obj
 0001:0003f0ae       ?Serialize@CByteArray@@UAEXAAVCArchive@@@Z 004400ae f   nafxcw:array_b.obj
 0001:0003f12b       ??_ECByteArray@@UAEPAXI@Z  0044012b f i nafxcw:array_b.obj
 0001:0003f12b       ??_GCByteArray@@UAEPAXI@Z  0044012b f i nafxcw:array_b.obj
 0001:0003f147       ?Create@CPlex@@SGPAU1@AAPAU1@II@Z 00440147 f   nafxcw:plex.obj
 0001:0003f178       ?FreeDataChain@CPlex@@QAEXXZ 00440178 f   nafxcw:plex.obj
 0001:0003f18e       ?SetSize@CPtrArray@@QAEXHH@Z 0044018e f   nafxcw:array_p.obj
 0001:0003f2a8       ?Append@CPtrArray@@QAEHABV1@@Z 004402a8 f   nafxcw:array_p.obj
 0001:0003f2ed       ?Copy@CPtrArray@@QAEXABV1@@Z 004402ed f   nafxcw:array_p.obj
 0001:0003f31d       ?FreeExtra@CPtrArray@@QAEXXZ 0044031d f   nafxcw:array_p.obj
 0001:0003f362       ?SetAtGrow@CPtrArray@@QAEXHPAX@Z 00440362 f   nafxcw:array_p.obj
 0001:0003f394       ?InsertAt@CPtrArray@@QAEXHPAXH@Z 00440394 f   nafxcw:array_p.obj
 0001:0003f424       ?RemoveAt@CPtrArray@@QAEXHH@Z 00440424 f   nafxcw:array_p.obj
 0001:0003f46f       ??0CPtrArray@@QAE@XZ       0044046f f   nafxcw:array_p.obj
 0001:0003f486       ??1CPtrArray@@UAE@XZ       00440486 f   nafxcw:array_p.obj
 0001:0003f496       ?InsertAt@CPtrArray@@QAEXHPAV1@@Z 00440496 f   nafxcw:array_p.obj
 0001:0003f4f5       ??_GCPtrArray@@UAEPAXI@Z   004404f5 f i nafxcw:array_p.obj
 0001:0003f4f5       ??_ECPtrArray@@UAEPAXI@Z   004404f5 f i nafxcw:array_p.obj
 0001:0003f511       ?HashKey@CMapPtrToPtr@@QBEIPAX@Z 00440511 f i nafxcw:map_pp.obj
 0001:0003f51b       ?InitHashTable@CMapPtrToPtr@@QAEXIH@Z 0044051b f   nafxcw:map_pp.obj
 0001:0003f567       ?RemoveAll@CMapPtrToPtr@@QAEXXZ 00440567 f   nafxcw:map_pp.obj
 0001:0003f592       ?FreeAssoc@CMapPtrToPtr@@IAEXPAUCAssoc@1@@Z 00440592 f   nafxcw:map_pp.obj
 0001:0003f5ab       ?GetAssocAt@CMapPtrToPtr@@IBEPAUCAssoc@1@PAXAAI1@Z 004405ab f   nafxcw:map_pp.obj
 0001:0003f5e3       ?GetValueAt@CMapPtrToPtr@@QBEPAXPAX@Z 004405e3 f   nafxcw:map_pp.obj
 0001:0003f61a       ?Lookup@CMapPtrToPtr@@QBEHPAXAAPAX@Z 0044061a f   nafxcw:map_pp.obj
 0001:0003f641       ?RemoveKey@CMapPtrToPtr@@QAEHPAX@Z 00440641 f   nafxcw:map_pp.obj
 0001:0003f684       ?GetNextAssoc@CMapPtrToPtr@@QBEXAAPAU__POSITION@@AAPAX1@Z 00440684 f   nafxcw:map_pp.obj
 0001:0003f6fe       ??0CMapPtrToPtr@@QAE@H@Z   004406fe f   nafxcw:map_pp.obj
 0001:0003f72c       ??1CMapPtrToPtr@@UAE@XZ    0044072c f   nafxcw:map_pp.obj
 0001:0003f737       ?NewAssoc@CMapPtrToPtr@@IAEPAUCAssoc@1@XZ 00440737 f   nafxcw:map_pp.obj
 0001:0003f782       ??ACMapPtrToPtr@@QAEAAPAXPAX@Z 00440782 f   nafxcw:map_pp.obj
 0001:0003f7d7       ??_ECMapPtrToPtr@@UAEPAXI@Z 004407d7 f i nafxcw:map_pp.obj
 0001:0003f7d7       ??_GCMapPtrToPtr@@UAEPAXI@Z 004407d7 f i nafxcw:map_pp.obj
 0001:0003f7f3       ?Delete@CException@@QAEXXZ 004407f3 f   nafxcw:except.obj
 0001:0003f801       ?GetErrorMessage@CException@@UAEHPADIPAI@Z 00440801 f   nafxcw:except.obj
 0001:0003f822       ?ReportError@CException@@UAEHII@Z 00440822 f   nafxcw:except.obj
 0001:0003f894       ??0CException@@QAE@XZ      00440894 f   nafxcw:except.obj
 0001:0003f89e       ??0CException@@QAE@H@Z     0044089e f   nafxcw:except.obj
 0001:0003f8aa       ?AfxGetExceptionContext@@YAPAUAFX_EXCEPTION_CONTEXT@@XZ 004408aa f i nafxcw:except.obj
 0001:0003f8d2       ??0AFX_EXCEPTION_LINK@@QAE@XZ 004408d2 f   nafxcw:except.obj
 0001:0003f8e8       ?AfxTryCleanup@@YGXXZ      004408e8 f   nafxcw:except.obj
 0001:0003f906       ?AfxThrowLastCleanup@@YGXXZ 00440906 f   nafxcw:except.obj
 0001:0003f916       ?AfxLoadString@@YGHIPADI@Z 00440916 f   nafxcw:winstr.obj
 0001:0003f961       ?AfxLoadString@@YGHIPA_WI@Z 00440961 f   nafxcw:winstr.obj
 0001:0003f9b7       ?AfxFindStringResourceHandle@@YGPAUHINSTANCE__@@I@Z 004409b7 f   nafxcw:winstr.obj
 0001:0003f9c2       ?AfxExtractSubString@@YGHAAV?$CStringT@DV?$StrTraitMFC@DV?$ChTraitsCRT@D@ATL@@@@@ATL@@PBDHD@Z 004409c2 f   nafxcw:winstr.obj
 0001:0003fa44       ??$HashKey@PB_W@@YGIPB_W@Z 00440a44 f   nafxcw:strcore.obj
 0001:0003fa63       ??$HashKey@PBD@@YGIPBD@Z   00440a63 f   nafxcw:strcore.obj
 0001:0003fa7d       ?AfxGetStringManager@@YGPAUIAtlStringMgr@ATL@@XZ 00440a7d f   nafxcw:strcore.obj
 0001:0003fa83       ?Allocate@CAfxStringMgr@@UAEPAUCStringData@ATL@@HH@Z 00440a83 f   nafxcw:strcore.obj
 0001:0003fabe       ?Free@CAfxStringMgr@@UAEXPAUCStringData@ATL@@@Z 00440abe f   nafxcw:strcore.obj
 0001:0003facb       ?Reallocate@CAfxStringMgr@@UAEPAUCStringData@ATL@@PAU23@HH@Z 00440acb f   nafxcw:strcore.obj
 0001:0003fafa       ?Clone@CAfxStringMgr@@UAEPAUIAtlStringMgr@ATL@@XZ 00440afa f   nafxcw:strcore.obj
 0001:0003fafd       ??B?$CSimpleStringT@_W$0A@@ATL@@QBEPB_WXZ 00440afd f i nafxcw:strcore.obj
 0001:0003fb00       ?GetData@?$CSimpleStringT@_W$0A@@ATL@@ABEPAUCStringData@2@XZ 00440b00 f i nafxcw:strcore.obj
 0001:0003fb06       ?StringLength@?$CSimpleStringT@_W$0A@@ATL@@SAHPB_W@Z 00440b06 f i nafxcw:strcore.obj
 0001:0003fb15       ?GetString@?$CSimpleStringT@_W$0A@@ATL@@QBEPB_WXZ 00440b15 f i nafxcw:strcore.obj
