 CacheServer

 Timestamp is 525db7e1 (Tue Oct 15 17:47:13 2013)

 Preferred load address is 00400000

 Start         Length     Name                   Class
 0001:00000000 0003dbd6H .text                   CODE
 0001:0003dbd6 00000cf8H .text$AFX_AUX           CODE
 0001:0003e8ce 000001c9H .text$AFX_CMNCTL        CODE
 0001:0003ea97 00000a7aH .text$AFX_COL1          CODE
 0001:0003f511 000002e2H .text$AFX_COL2          CODE
 0001:0003f7f3 0000abefH .text$AFX_CORE1         CODE
 0001:0004a3e2 000034f6H .text$AFX_CORE2         CODE
 0001:0004d8d8 00002355H .text$AFX_CORE3         CODE
 0001:0004fc2d 00000751H .text$AFX_CORE4         CODE
 0001:0005037e 00003e13H .text$AFX_INIT          CODE
 0001:00054191 000014d6H .text$AFX_OLE1          CODE
 0001:00055667 000000ecH .text$AFX_TERM          CODE
 0001:00055760 00002034H .text$x                 CODE
 0001:000577a0 00000338H .text$yc                CODE
 0001:00057ae0 00000078H .text$yd                CODE
 0002:00000000 00000890H .idata$5                DATA
 0002:00000890 0000ef70H .rdata                  DATA
 0002:0000f800 00000089H .rdata$debug            DATA
 0002:0000f88c 00000298H .rdata$ilfixup          DATA
 0002:0000fb24 0000132cH .rdata$r                DATA
 0002:00010e50 000004a0H .rdata$sxdata           DATA
 0002:000112f0 00000004H .rtc$IAA                DATA
 0002:000112f4 00000004H .rtc$IZZ                DATA
 0002:000112f8 00000004H .rtc$TAA                DATA
 0002:000112fc 00000004H .rtc$TZZ                DATA
 0002:00011300 00003758H .xdata$x                DATA
 0002:00014a58 00000004H ATL$__a                 DATA
 0002:00014a5c 00000004H ATL$__z                 DATA
 0002:00014a60 00000154H .idata$2                DATA
 0002:00014bb4 00000014H .idata$3                DATA
 0002:00014bc8 00000890H .idata$4                DATA
 0002:00015458 00002118H .idata$6                DATA
 0002:00017570 00000000H .edata                  DATA
 0003:00000000 00000004H .CRT$XCA                DATA
 0003:00000004 00000004H .CRT$XCA0               DATA
 0003:00000008 00000004H .CRT$XCAA               DATA
 0003:0000000c 0000000cH .CRT$XCC                DATA
 0003:00000018 00000008H .CRT$XCL                DATA
 0003:00000020 00000064H .CRT$XCU                DATA
 0003:00000084 00000004H .CRT$XCZ                DATA
 0003:00000088 00000004H .CRT$XIA                DATA
 0003:0000008c 0000000cH .CRT$XIC                DATA
 0003:00000098 00000004H .CRT$XIY                DATA
 0003:0000009c 00000004H .CRT$XIZ                DATA
 0003:000000a0 00000004H .CRT$XPA                DATA
 0003:000000a4 00000004H .CRT$XPX                DATA
 0003:000000a8 00000004H .CRT$XPZ                DATA
 0003:000000ac 00000004H .CRT$XTA                DATA
 0003:000000b0 00000004H .CRT$XTB                DATA
 0003:000000b4 00000004H .CRT$XTZ                DATA
 0003:000000c0 00002e7cH .data                   DATA
 0003:00002f40 00010d44H .bss                    DATA
 0004:00000000 000001a8H .rsrc$01                DATA
 0004:000001b0 00000600H .rsrc$02                DATA

  Address         Publics by Value              Rva+Base     Lib:Object

 0000:00000000       __except_list              00000000     <absolute>
 0000:00000128       ___safe_se_handler_count   00000128     <absolute>
 0000:00000000       ___ImageBase               00400000     <linker-defined>
 0001:00000000       ?InterlockedExchangePointer@@YGPAXPAPAXPAX@Z 00401000 f i CacheServer.obj
 0001:00000010       ?_AtlGetThreadACPFake@ATL@@YGIXZ 00401010 f i CacheServer.obj
 0001:00000090       ?_AtlGetThreadACPReal@ATL@@YGIXZ 00401090 f i CacheServer.obj
 0001:000000a0       ?_AtlGetThreadACPThunk@ATL@@YGIXZ 004010a0 f i CacheServer.obj
 0001:00000110       ?_AtlGetConversionACP@ATL@@YGIXZ 00401110 f i CacheServer.obj
 0001:00000120       ?StartServer@CDPMng@@QAEHGHK@Z 00401120 f i CacheServer.obj
 0001:00000170       ?ConnectToServer@CDPMng@@QAEHPBDGHKK@Z 00401170 f i CacheServer.obj
 0001:000001c0       ?Initialize@CMyTrace@@QAEXPAUHWND__@@PBDKK@Z 004011c0 f i CacheServer.obj
 0001:00000210       ?AtlThrow@ATL@@YGXJ@Z      00401210 f i CacheServer.obj
 0001:00000230       ?InitLanguageFromResource@@YAXPAUHINSTANCE__@@@Z 00401230 f   CacheServer.obj
 0001:000002c0       ?_AtlGetStringResourceImage@ATL@@YAPBUATLSTRINGRESOURCEIMAGE@1@PAUHINSTANCE__@@PAUHRSRC__@@I@Z 004012c0 f i CacheServer.obj
 0001:00000320       ?AtlGetStringResourceImage@ATL@@YAPBUATLSTRINGRESOURCEIMAGE@1@PAUHINSTANCE__@@I@Z 00401320 f i CacheServer.obj
 0001:00000360       ?ExitInstance@@YAXXZ       00401360 f   CacheServer.obj
 0001:00000390       ?WndProc@@YGJPAUHWND__@@IIJ@Z 00401390 f   CacheServer.obj
 0001:000004d0       ?data@CStringData@ATL@@QAEPAXXZ 004014d0 f i CacheServer.obj
 0001:000004e0       ?IsLocked@CStringData@ATL@@QBE_NXZ 004014e0 f i CacheServer.obj
 0001:000004f0       ?IsShared@CStringData@ATL@@QBE_NXZ 004014f0 f i CacheServer.obj
 0001:00000500       ?Release@CStringData@ATL@@QAEXXZ 00401500 f i CacheServer.obj
 0001:00000520       ?StringCompare@?$ChTraitsCRT@D@ATL@@SAHPBD0@Z 00401520 f i CacheServer.obj
 0001:00000530       ??0CTime@ATL@@QAE@_J@Z     00401530 f i CacheServer.obj
 0001:00000550       ??B?$CSimpleStringT@D$0A@@ATL@@QBEPBDXZ 00401550 f i CacheServer.obj
 0001:00000560       ?GetString@?$CSimpleStringT@D$0A@@ATL@@QBEPBDXZ 00401560 f i CacheServer.obj
 0001:00000570       ?StringLength@?$CSimpleStringT@D$0A@@ATL@@SAHPBD@Z 00401570 f i CacheServer.obj
 0001:00000590       ?GetData@?$CSimpleStringT@D$0A@@ATL@@ABEPAUCStringData@2@XZ 00401590 f i CacheServer.obj
 0001:000005a0       ?SetLength@?$CSimpleStringT@D$0A@@ATL@@AAEXH@Z 004015a0 f i CacheServer.obj
 0001:000005d0       ?FindStringResourceInstance@?$StrTraitMFC@DV?$ChTraitsCRT@D@ATL@@@@SAPAUHINSTANCE__@@I@Z 004015d0 f i CacheServer.obj
 0001:000005e0       ?GetDefaultManager@?$StrTraitMFC@DV?$ChTraitsCRT@D@ATL@@@@SAPAUIAtlStringMgr@ATL@@XZ 004015e0 f i CacheServer.obj
 0001:000005f0       ?Attach@?$CSimpleStringT@D$0A@@ATL@@AAEXPAUCStringData@2@@Z 004015f0 f i CacheServer.obj
 0001:00000600       ?GetBaseTypeLength@?$ChTraitsCRT@D@ATL@@SAHPBGH@Z 00401600 f i CacheServer.obj
 0001:00000630       ?ConvertToBaseType@?$ChTraitsCRT@D@ATL@@SAXPADHPBGH@Z 00401630 f i CacheServer.obj
 0001:00000660       ?CopyChars@?$CSimpleStringT@D$0A@@ATL@@SAXPADPBDH@Z 00401660 f i CacheServer.obj
 0001:00000680       ?CopyCharsOverlapped@?$CSimpleStringT@D$0A@@ATL@@SAXPADPBDH@Z 00401680 f i CacheServer.obj
 0001:00000690       ?ThrowMemoryException@?$CSimpleStringT@D$0A@@ATL@@KAXXZ 00401690 f i CacheServer.obj
 0001:000006a0       ?Fork@?$CSimpleStringT@D$0A@@ATL@@AAEXH@Z 004016a0 f i CacheServer.obj
 0001:00000720       ?Reallocate@?$CSimpleStringT@D$0A@@ATL@@AAEXH@Z 00401720 f i CacheServer.obj
 0001:00000750       ?MyRegisterClass@@YAGPAUHINSTANCE__@@@Z 00401750 f   CacheServer.obj
 0001:000007e0       ?Compare@?$CStringT@DV?$StrTraitMFC@DV?$ChTraitsCRT@D@ATL@@@@@ATL@@QBEHPBD@Z 004017e0 f i CacheServer.obj
 0001:00000800       ?GetTickCount@CTime@ATL@@SG?AV12@XZ 00401800 f i CacheServer.obj
 0001:00000820       ?GetLength@?$CSimpleStringT@D$0A@@ATL@@QBEHXZ 00401820 f i CacheServer.obj
 0001:00000830       ??0?$CSimpleStringT@D$0A@@ATL@@QAE@PAUIAtlStringMgr@1@@Z 00401830 f i CacheServer.obj
 0001:00000850       ??1?$CSimpleStringT@D$0A@@ATL@@QAE@XZ 00401850 f i CacheServer.obj
 0001:00000870       ?ReleaseBufferSetLength@?$CSimpleStringT@D$0A@@ATL@@QAEXH@Z 00401870 f i CacheServer.obj
 0001:000008a0       ?Empty@?$CSimpleStringT@D$0A@@ATL@@QAEXXZ 004018a0 f i CacheServer.obj
 0001:00000910       ?PrepareWrite2@?$CSimpleStringT@D$0A@@ATL@@AAEXH@Z 00401910 f i CacheServer.obj
 0001:00000960       ??8ATL@@YA_NABV?$CStringT@DV?$StrTraitMFC@DV?$ChTraitsCRT@D@ATL@@@@@0@PBD@Z 00401960 f i CacheServer.obj
 0001:00000980       ??1?$CStringT@DV?$StrTraitMFC@DV?$ChTraitsCRT@D@ATL@@@@@ATL@@QAE@XZ 00401980 f i CacheServer.obj
 0001:000009a0       ?PrepareWrite@?$CSimpleStringT@D$0A@@ATL@@AAEPADH@Z 004019a0 f i CacheServer.obj
 0001:000009d0       ?Script@@YAHPBD@Z          004019d0 f   CacheServer.obj
 0001:00000b20       ?GetBuffer@?$CSimpleStringT@D$0A@@ATL@@QAEPADH@Z 00401b20 f i CacheServer.obj
 0001:00000b50       ?LoadStringA@?$CStringT@DV?$StrTraitMFC@DV?$ChTraitsCRT@D@ATL@@@@@ATL@@QAEHPAUHINSTANCE__@@I@Z 00401b50 f i CacheServer.obj
 0001:00000c20       ?SetString@?$CSimpleStringT@D$0A@@ATL@@QAEXPBDH@Z 00401c20 f i CacheServer.obj
 0001:00000cc0       ?LoadStringA@?$CStringT@DV?$StrTraitMFC@DV?$ChTraitsCRT@D@ATL@@@@@ATL@@QAEHI@Z 00401cc0 f i CacheServer.obj
 0001:00000cf0       ?CheckImplicitLoad@?$CStringT@DV?$StrTraitMFC@DV?$ChTraitsCRT@D@ATL@@@@@ATL@@AAE_NPBX@Z 00401cf0 f i CacheServer.obj
 0001:00000d30       ?SetString@?$CSimpleStringT@D$0A@@ATL@@QAEXPBD@Z 00401d30 f i CacheServer.obj
 0001:00000d70       ??4?$CSimpleStringT@D$0A@@ATL@@QAEAAV01@PBD@Z 00401d70 f i CacheServer.obj
 0001:00000db0       ??4?$CStringT@DV?$StrTraitMFC@DV?$ChTraitsCRT@D@ATL@@@@@ATL@@QAEAAV01@PBD@Z 00401db0 f i CacheServer.obj
 0001:00000df0       ??0?$CStringT@DV?$StrTraitMFC@DV?$ChTraitsCRT@D@ATL@@@@@ATL@@QAE@PBD@Z 00401df0 f i CacheServer.obj
 0001:00000ea0       ?Format@CTime@ATL@@QBE?AV?$CStringT@DV?$StrTraitMFC@DV?$ChTraitsCRT@D@ATL@@@@@2@PBD@Z 00401ea0 f i CacheServer.obj
 0001:00000f30       ?InitInstance@@YAHPAUHINSTANCE__@@H@Z 00401f30 f   CacheServer.obj
 0001:00001170       _WinMain@16                00402170 f   CacheServer.obj
 0001:00001240       ??2@YAPAXIPAX@Z            00402240 f i DPCacheSrvr.obj
 0001:00001250       ??3@YAXPAX0@Z              00402250 f i DPCacheSrvr.obj
 0001:00001260       ??6CAr@@QAEAAV0@J@Z        00402260 f i DPCacheSrvr.obj
 0001:00001280       ??6CAr@@QAEAAV0@K@Z        00402280 f i DPCacheSrvr.obj
 0001:000012a0       ??5CAr@@QAEAAV0@AAK@Z      004022a0 f i DPCacheSrvr.obj
 0001:000012e0       ?GetClient@CPlayer@@QAEPAVCDPClient@@XZ 004022e0 f i DPCacheSrvr.obj
 0001:000012f0       ?SetAlive@CPlayer@@QAEXH@Z 004022f0 f i DPCacheSrvr.obj
 0001:00001300       ?GetNetworkId@CPlayer@@QAEKXZ 00402300 f i DPCacheSrvr.obj
 0001:00001310       ?GetPlayerId@CPlayer@@QAEKXZ 00402310 f i DPCacheSrvr.obj
 0001:00001320       ?GetAddr@CPlayer@@QAEPBDXZ 00402320 f i DPCacheSrvr.obj
 0001:00001330       ?SetAddr@CPlayer@@QAEXPAVCDPMng@@@Z 00402330 f i DPCacheSrvr.obj
 0001:00001350       ??0?$pair@$$CBKP8CDPCacheSrvr@@AEXAAVCAr@@KPAEK@Z@std@@QAE@ABKABQ8CDPCacheSrvr@@AEXAAVCAr@@KPAEK@Z@Z 00402350 f i DPCacheSrvr.obj
 0001:00001370       ??R?$less@K@std@@QBE_NABK0@Z 00402370 f i DPCacheSrvr.obj
 0001:00001390       ?_Isnil@?$_Tree@V?$_Tmap_traits@KP8CDPCacheSrvr@@AEXAAVCAr@@KPAEK@ZU?$less@K@std@@V?$allocator@U?$pair@$$CBKP8CDPCacheSrvr@@AEXAAVCAr@@KPAEK@Z@std@@@4@$0A@@std@@@std@@KAAADPAU_Node@?$_Tree_nod@V?$_Tmap_traits@KP8CDPCacheSrvr@@AEXAAVCAr@@KPAEK@ZU?$less@K@std@@V?$allocator@U?$pair@$$CBKP8CDPCacheSrvr@@AEXAAVCAr@@KPAEK@Z@std@@@4@$0A@@std@@@2@@Z 00402390 f i DPCacheSrvr.obj
 0001:000013a0       ?_Left@?$_Tree@V?$_Tmap_traits@KP8CDPCacheSrvr@@AEXAAVCAr@@KPAEK@ZU?$less@K@std@@V?$allocator@U?$pair@$$CBKP8CDPCacheSrvr@@AEXAAVCAr@@KPAEK@Z@std@@@4@$0A@@std@@@std@@KAAAPAU_Node@?$_Tree_nod@V?$_Tmap_traits@KP8CDPCacheSrvr@@AEXAAVCAr@@KPAEK@ZU?$less@K@std@@V?$allocator@U?$pair@$$CBKP8CDPCacheSrvr@@AEXAAVCAr@@KPAEK@Z@std@@@4@$0A@@std@@@2@PAU342@@Z 004023a0 f i DPCacheSrvr.obj
 0001:000013b0       ?_Right@?$_Tree@V?$_Tmap_traits@KP8CDPCacheSrvr@@AEXAAVCAr@@KPAEK@ZU?$less@K@std@@V?$allocator@U?$pair@$$CBKP8CDPCacheSrvr@@AEXAAVCAr@@KPAEK@Z@std@@@4@$0A@@std@@@std@@KAAAPAU_Node@?$_Tree_nod@V?$_Tmap_traits@KP8CDPCacheSrvr@@AEXAAVCAr@@KPAEK@ZU?$less@K@std@@V?$allocator@U?$pair@$$CBKP8CDPCacheSrvr@@AEXAAVCAr@@KPAEK@Z@std@@@4@$0A@@std@@@2@PAU342@@Z 004023b0 f i DPCacheSrvr.obj
 0001:000013c0       ?_Kfn@?$_Tmap_traits@KP8CDPCacheSrvr@@AEXAAVCAr@@KPAEK@ZU?$less@K@std@@V?$allocator@U?$pair@$$CBKP8CDPCacheSrvr@@AEXAAVCAr@@KPAEK@Z@std@@@4@$0A@@std@@SAABKABU?$pair@$$CBKP8CDPCacheSrvr@@AEXAAVCAr@@KPAEK@Z@2@@Z 004023c0 f i DPCacheSrvr.obj
 0001:000013d0       ??0?$allocator@U?$pair@$$CBKP8CDPCacheSrvr@@AEXAAVCAr@@KPAEK@Z@std@@@std@@QAE@XZ 004023d0 f i DPCacheSrvr.obj
 0001:000013e0       ??8const_iterator@?$_Tree@V?$_Tmap_traits@KP8CDPCacheSrvr@@AEXAAVCAr@@KPAEK@ZU?$less@K@std@@V?$allocator@U?$pair@$$CBKP8CDPCacheSrvr@@AEXAAVCAr@@KPAEK@Z@std@@@4@$0A@@std@@@std@@QBE_NABV012@@Z 004023e0 f i DPCacheSrvr.obj
 0001:000013f0       ?_Mynode@const_iterator@?$_Tree@V?$_Tmap_traits@KP8CDPCacheSrvr@@AEXAAVCAr@@KPAEK@ZU?$less@K@std@@V?$allocator@U?$pair@$$CBKP8CDPCacheSrvr@@AEXAAVCAr@@KPAEK@Z@std@@@4@$0A@@std@@@std@@QBEPAU_Node@?$_Tree_nod@V?$_Tmap_traits@KP8CDPCacheSrvr@@AEXAAVCAr@@KPAEK@ZU?$less@K@std@@V?$allocator@U?$pair@$$CBKP8CDPCacheSrvr@@AEXAAVCAr@@KPAEK@Z@std@@@4@$0A@@std@@@3@XZ 004023f0 f i DPCacheSrvr.obj
 0001:00001400       ??0?$pair@Viterator@?$_Tree@V?$_Tmap_traits@KP8CDPCacheSrvr@@AEXAAVCAr@@KPAEK@ZU?$less@K@std@@V?$allocator@U?$pair@$$CBKP8CDPCacheSrvr@@AEXAAVCAr@@KPAEK@Z@std@@@4@$0A@@std@@@std@@_N@std@@QAE@ABViterator@?$_Tree@V?$_Tmap_traits@KP8CDPCacheSrvr@@AEXAAVCAr@@KPAEK@ZU?$less@K@std@@V?$allocator@U?$pair@$$CBKP8CDPCacheSrvr@@AEXAAVCAr@@KPAEK@Z@std@@@4@$0A@@std@@@1@AB_N@Z 00402400 f i DPCacheSrvr.obj
 0001:00001420       ?_Color@?$_Tree@V?$_Tmap_traits@KP8CDPCacheSrvr@@AEXAAVCAr@@KPAEK@ZU?$less@K@std@@V?$allocator@U?$pair@$$CBKP8CDPCacheSrvr@@AEXAAVCAr@@KPAEK@Z@std@@@4@$0A@@std@@@std@@KAAADPAU_Node@?$_Tree_nod@V?$_Tmap_traits@KP8CDPCacheSrvr@@AEXAAVCAr@@KPAEK@ZU?$less@K@std@@V?$allocator@U?$pair@$$CBKP8CDPCacheSrvr@@AEXAAVCAr@@KPAEK@Z@std@@@4@$0A@@std@@@2@@Z 00402420 f i DPCacheSrvr.obj
 0001:00001430       ?_Parent@?$_Tree@V?$_Tmap_traits@KP8CDPCacheSrvr@@AEXAAVCAr@@KPAEK@ZU?$less@K@std@@V?$allocator@U?$pair@$$CBKP8CDPCacheSrvr@@AEXAAVCAr@@KPAEK@Z@std@@@4@$0A@@std@@@std@@KAAAPAU_Node@?$_Tree_nod@V?$_Tmap_traits@KP8CDPCacheSrvr@@AEXAAVCAr@@KPAEK@ZU?$less@K@std@@V?$allocator@U?$pair@$$CBKP8CDPCacheSrvr@@AEXAAVCAr@@KPAEK@Z@std@@@4@$0A@@std@@@2@PAU342@@Z 00402430 f i DPCacheSrvr.obj
 0001:00001440       ?_Myval@?$_Tree@V?$_Tmap_traits@KP8CDPCacheSrvr@@AEXAAVCAr@@KPAEK@ZU?$less@K@std@@V?$allocator@U?$pair@$$CBKP8CDPCacheSrvr@@AEXAAVCAr@@KPAEK@Z@std@@@4@$0A@@std@@@std@@KAAAU?$pair@$$CBKP8CDPCacheSrvr@@AEXAAVCAr@@KPAEK@Z@2@PAU_Node@?$_Tree_nod@V?$_Tmap_traits@KP8CDPCacheSrvr@@AEXAAVCAr@@KPAEK@ZU?$less@K@std@@V?$allocator@U?$pair@$$CBKP8CDPCacheSrvr@@AEXAAVCAr@@KPAEK@Z@std@@@4@$0A@@std@@@2@@Z 00402440 f i DPCacheSrvr.obj
 0001:00001450       ?_Lmost@?$_Tree@V?$_Tmap_traits@KP8CDPCacheSrvr@@AEXAAVCAr@@KPAEK@ZU?$less@K@std@@V?$allocator@U?$pair@$$CBKP8CDPCacheSrvr@@AEXAAVCAr@@KPAEK@Z@std@@@4@$0A@@std@@@std@@IAEAAPAU_Node@?$_Tree_nod@V?$_Tmap_traits@KP8CDPCacheSrvr@@AEXAAVCAr@@KPAEK@ZU?$less@K@std@@V?$allocator@U?$pair@$$CBKP8CDPCacheSrvr@@AEXAAVCAr@@KPAEK@Z@std@@@4@$0A@@std@@@2@XZ 00402450 f i DPCacheSrvr.obj
 0001:00001460       ?_Rmost@?$_Tree@V?$_Tmap_traits@KP8CDPCacheSrvr@@AEXAAVCAr@@KPAEK@ZU?$less@K@std@@V?$allocator@U?$pair@$$CBKP8CDPCacheSrvr@@AEXAAVCAr@@KPAEK@Z@std@@@4@$0A@@std@@@std@@IAEAAPAU_Node@?$_Tree_nod@V?$_Tmap_traits@KP8CDPCacheSrvr@@AEXAAVCAr@@KPAEK@ZU?$less@K@std@@V?$allocator@U?$pair@$$CBKP8CDPCacheSrvr@@AEXAAVCAr@@KPAEK@Z@std@@@4@$0A@@std@@@2@XZ 00402460 f i DPCacheSrvr.obj
 0001:00001470       ??0?$allocator@U?$pair@$$CBKP8CDPCacheSrvr@@AEXAAVCAr@@KPAEK@Z@std@@@std@@QAE@ABV01@@Z 00402470 f i DPCacheSrvr.obj
 0001:00001480       ?deallocate@?$allocator@U_Node@?$_Tree_nod@V?$_Tmap_traits@KP8CDPCacheSrvr@@AEXAAVCAr@@KPAEK@ZU?$less@K@std@@V?$allocator@U?$pair@$$CBKP8CDPCacheSrvr@@AEXAAVCAr@@KPAEK@Z@std@@@4@$0A@@std@@@std@@@std@@QAEXPAU_Node@?$_Tree_nod@V?$_Tmap_traits@KP8CDPCacheSrvr@@AEXAAVCAr@@KPAEK@ZU?$less@K@std@@V?$allocator@U?$pair@$$CBKP8CDPCacheSrvr@@AEXAAVCAr@@KPAEK@Z@std@@@4@$0A@@std@@@2@I@Z 00402480 f i DPCacheSrvr.obj
 0001:00001490       ??0const_iterator@?$_Tree@V?$_Tmap_traits@KP8CDPCacheSrvr@@AEXAAVCAr@@KPAEK@ZU?$less@K@std@@V?$allocator@U?$pair@$$CBKP8CDPCacheSrvr@@AEXAAVCAr@@KPAEK@Z@std@@@4@$0A@@std@@@std@@QAE@PAU_Node@?$_Tree_nod@V?$_Tmap_traits@KP8CDPCacheSrvr@@AEXAAVCAr@@KPAEK@ZU?$less@K@std@@V?$allocator@U?$pair@$$CBKP8CDPCacheSrvr@@AEXAAVCAr@@KPAEK@Z@std@@@4@$0A@@std@@@2@@Z 00402490 f i DPCacheSrvr.obj
 0001:000014a0       ??Dconst_iterator@?$_Tree@V?$_Tmap_traits@KP8CDPCacheSrvr@@AEXAAVCAr@@KPAEK@ZU?$less@K@std@@V?$allocator@U?$pair@$$CBKP8CDPCacheSrvr@@AEXAAVCAr@@KPAEK@Z@std@@@4@$0A@@std@@@std@@QBEABU?$pair@$$CBKP8CDPCacheSrvr@@AEXAAVCAr@@KPAEK@Z@2@XZ 004024a0 f i DPCacheSrvr.obj
 0001:000014b0       ??0?$allocator@D@std@@QAE@XZ 004024b0 f i DPCacheSrvr.obj
 0001:000014c0       ?_Root@?$_Tree@V?$_Tmap_traits@KP8CDPCacheSrvr@@AEXAAVCAr@@KPAEK@ZU?$less@K@std@@V?$allocator@U?$pair@$$CBKP8CDPCacheSrvr@@AEXAAVCAr@@KPAEK@Z@std@@@4@$0A@@std@@@std@@IBEAAPAU_Node@?$_Tree_nod@V?$_Tmap_traits@KP8CDPCacheSrvr@@AEXAAVCAr@@KPAEK@ZU?$less@K@std@@V?$allocator@U?$pair@$$CBKP8CDPCacheSrvr@@AEXAAVCAr@@KPAEK@Z@std@@@4@$0A@@std@@@2@XZ 004024c0 f i DPCacheSrvr.obj
 0001:000014d0       ?max_size@?$allocator@U?$pair@$$CBKP8CDPCacheSrvr@@AEXAAVCAr@@KPAEK@Z@std@@@std@@QBEIXZ 004024d0 f i DPCacheSrvr.obj
 0001:000014e0       ??0_Node@?$_Tree_nod@V?$_Tmap_traits@KP8CDPCacheSrvr@@AEXAAVCAr@@KPAEK@ZU?$less@K@std@@V?$allocator@U?$pair@$$CBKP8CDPCacheSrvr@@AEXAAVCAr@@KPAEK@Z@std@@@4@$0A@@std@@@std@@QAE@PAU012@00ABU?$pair@$$CBKP8CDPCacheSrvr@@AEXAAVCAr@@KPAEK@Z@2@D@Z 004024e0 f i DPCacheSrvr.obj
 0001:00001520       ?_Max@?$_Tree@V?$_Tmap_traits@KP8CDPCacheSrvr@@AEXAAVCAr@@KPAEK@ZU?$less@K@std@@V?$allocator@U?$pair@$$CBKP8CDPCacheSrvr@@AEXAAVCAr@@KPAEK@Z@std@@@4@$0A@@std@@@std@@KAPAU_Node@?$_Tree_nod@V?$_Tmap_traits@KP8CDPCacheSrvr@@AEXAAVCAr@@KPAEK@ZU?$less@K@std@@V?$allocator@U?$pair@$$CBKP8CDPCacheSrvr@@AEXAAVCAr@@KPAEK@Z@std@@@4@$0A@@std@@@2@PAU342@@Z 00402520 f i DPCacheSrvr.obj
 0001:00001540       ?_Min@?$_Tree@V?$_Tmap_traits@KP8CDPCacheSrvr@@AEXAAVCAr@@KPAEK@ZU?$less@K@std@@V?$allocator@U?$pair@$$CBKP8CDPCacheSrvr@@AEXAAVCAr@@KPAEK@Z@std@@@4@$0A@@std@@@std@@KAPAU_Node@?$_Tree_nod@V?$_Tmap_traits@KP8CDPCacheSrvr@@AEXAAVCAr@@KPAEK@ZU?$less@K@std@@V?$allocator@U?$pair@$$CBKP8CDPCacheSrvr@@AEXAAVCAr@@KPAEK@Z@std@@@4@$0A@@std@@@2@PAU342@@Z 00402540 f i DPCacheSrvr.obj
 0001:00001560       ??0?$_Tmap_traits@KP8CDPCacheSrvr@@AEXAAVCAr@@KPAEK@ZU?$less@K@std@@V?$allocator@U?$pair@$$CBKP8CDPCacheSrvr@@AEXAAVCAr@@KPAEK@Z@std@@@4@$0A@@std@@QAE@U?$less@K@1@@Z 00402560 f i DPCacheSrvr.obj
 0001:00001570       ?_Inc@const_iterator@?$_Tree@V?$_Tmap_traits@KP8CDPCacheSrvr@@AEXAAVCAr@@KPAEK@ZU?$less@K@std@@V?$allocator@U?$pair@$$CBKP8CDPCacheSrvr@@AEXAAVCAr@@KPAEK@Z@std@@@4@$0A@@std@@@std@@QAEXXZ 00402570 f i DPCacheSrvr.obj
 0001:000015d0       ??$swap@D@std@@YAXAAD0@Z   004025d0 f i DPCacheSrvr.obj
 0001:000015f0       ??$_Destroy@PAU_Node@?$_Tree_nod@V?$_Tmap_traits@KP8CDPCacheSrvr@@AEXAAVCAr@@KPAEK@ZU?$less@K@std@@V?$allocator@U?$pair@$$CBKP8CDPCacheSrvr@@AEXAAVCAr@@KPAEK@Z@std@@@4@$0A@@std@@@std@@@std@@YAXPAPAU_Node@?$_Tree_nod@V?$_Tmap_traits@KP8CDPCacheSrvr@@AEXAAVCAr@@KPAEK@ZU?$less@K@std@@V?$allocator@U?$pair@$$CBKP8CDPCacheSrvr@@AEXAAVCAr@@KPAEK@Z@std@@@4@$0A@@std@@@0@@Z 004025f0 f i DPCacheSrvr.obj
 0001:00001600       ??$?0U?$pair@$$CBKP8CDPCacheSrvr@@AEXAAVCAr@@KPAEK@Z@std@@@?$allocator@PAU_Node@?$_Tree_nod@V?$_Tmap_traits@KP8CDPCacheSrvr@@AEXAAVCAr@@KPAEK@ZU?$less@K@std@@V?$allocator@U?$pair@$$CBKP8CDPCacheSrvr@@AEXAAVCAr@@KPAEK@Z@std@@@4@$0A@@std@@@std@@@std@@QAE@ABV?$allocator@U?$pair@$$CBKP8CDPCacheSrvr@@AEXAAVCAr@@KPAEK@Z@std@@@1@@Z 00402600 f i DPCacheSrvr.obj
 0001:00001610       ??$_Allocate@U_Node@?$_Tree_nod@V?$_Tmap_traits@KP8CDPCacheSrvr@@AEXAAVCAr@@KPAEK@ZU?$less@K@std@@V?$allocator@U?$pair@$$CBKP8CDPCacheSrvr@@AEXAAVCAr@@KPAEK@Z@std@@@4@$0A@@std@@@std@@@std@@YAPAU_Node@?$_Tree_nod@V?$_Tmap_traits@KP8CDPCacheSrvr@@AEXAAVCAr@@KPAEK@ZU?$less@K@std@@V?$allocator@U?$pair@$$CBKP8CDPCacheSrvr@@AEXAAVCAr@@KPAEK@Z@std@@@4@$0A@@std@@@0@IPAU120@@Z 00402610 f i DPCacheSrvr.obj
 0001:00001630       ??$?0U?$pair@$$CBKP8CDPCacheSrvr@@AEXAAVCAr@@KPAEK@Z@std@@@?$allocator@U_Node@?$_Tree_nod@V?$_Tmap_traits@KP8CDPCacheSrvr@@AEXAAVCAr@@KPAEK@ZU?$less@K@std@@V?$allocator@U?$pair@$$CBKP8CDPCacheSrvr@@AEXAAVCAr@@KPAEK@Z@std@@@4@$0A@@std@@@std@@@std@@QAE@ABV?$allocator@U?$pair@$$CBKP8CDPCacheSrvr@@AEXAAVCAr@@KPAEK@Z@std@@@1@@Z 00402630 f i DPCacheSrvr.obj
 0001:00001640       ??$_Destroy@U_Node@?$_Tree_nod@V?$_Tmap_traits@KP8CDPCacheSrvr@@AEXAAVCAr@@KPAEK@ZU?$less@K@std@@V?$allocator@U?$pair@$$CBKP8CDPCacheSrvr@@AEXAAVCAr@@KPAEK@Z@std@@@4@$0A@@std@@@std@@@std@@YAXPAU_Node@?$_Tree_nod@V?$_Tmap_traits@KP8CDPCacheSrvr@@AEXAAVCAr@@KPAEK@ZU?$less@K@std@@V?$allocator@U?$pair@$$CBKP8CDPCacheSrvr@@AEXAAVCAr@@KPAEK@Z@std@@@4@$0A@@std@@@0@@Z 00402640 f i DPCacheSrvr.obj
 0001:00001650       ??$_Construct@PAU_Node@?$_Tree_nod@V?$_Tmap_traits@KP8CDPCacheSrvr@@AEXAAVCAr@@KPAEK@ZU?$less@K@std@@V?$allocator@U?$pair@$$CBKP8CDPCacheSrvr@@AEXAAVCAr@@KPAEK@Z@std@@@4@$0A@@std@@@std@@PAU123@@std@@YAXPAPAU_Node@?$_Tree_nod@V?$_Tmap_traits@KP8CDPCacheSrvr@@AEXAAVCAr@@KPAEK@ZU?$less@K@std@@V?$allocator@U?$pair@$$CBKP8CDPCacheSrvr@@AEXAAVCAr@@KPAEK@Z@std@@@4@$0A@@std@@@0@ABQAU120@@Z 00402650 f i DPCacheSrvr.obj
 0001:00001670       ?assign@?$char_traits@D@std@@SAXAADABD@Z 00402670 f i DPCacheSrvr.obj
 0001:00001680       ?length@?$char_traits@D@std@@SAIPBD@Z 00402680 f i DPCacheSrvr.obj
 0001:000016a0       ?copy@?$char_traits@D@std@@SAPADPADPBDI@Z 004026a0 f i DPCacheSrvr.obj
 0001:000016d0       ?move@?$char_traits@D@std@@SAPADPADPBDI@Z 004026d0 f i DPCacheSrvr.obj
 0001:000016e0       ?Enter@CMclCritSec@@QAEXXZ 004026e0 f i DPCacheSrvr.obj
 0001:000016f0       ?Leave@CMclCritSec@@QAEXXZ 004026f0 f i DPCacheSrvr.obj
 0001:00001700       ??0CMclAutoLock@@QAE@AAVCMclCritSec@@@Z 00402700 f i DPCacheSrvr.obj
 0001:00001720       ??1CMclAutoLock@@QAE@XZ    00402720 f i DPCacheSrvr.obj
 0001:00001730       ?size@?$basic_string@DU?$char_traits@D@std@@V?$allocator@D@2@@std@@QBEIXZ 00402730 f i DPCacheSrvr.obj
 0001:00001740       ?_Myptr@?$basic_string@DU?$char_traits@D@std@@V?$allocator@D@2@@std@@QBEPBDXZ 00402740 f i DPCacheSrvr.obj
 0001:00001750       ??0?$allocator@D@std@@QAE@ABV01@@Z 00402750 f i DPCacheSrvr.obj
 0001:00001760       ?_Myptr@?$basic_string@DU?$char_traits@D@std@@V?$allocator@D@2@@std@@QAEPADXZ 00402760 f i DPCacheSrvr.obj
 0001:00001770       ?deallocate@?$allocator@D@std@@QAEXPADI@Z 00402770 f i DPCacheSrvr.obj
 0001:00001780       ?_Inside@?$basic_string@DU?$char_traits@D@std@@V?$allocator@D@2@@std@@IAE_NPBD@Z 00402780 f i DPCacheSrvr.obj
 0001:000017c0       ?max_size@?$allocator@D@std@@QBEIXZ 004027c0 f i DPCacheSrvr.obj
 0001:000017d0       ??$_Allocate@D@std@@YAPADIPAD@Z 004027d0 f i DPCacheSrvr.obj
 0001:000017e0       ??6CAr@@QAEAAV0@I@Z        004027e0 f i DPCacheSrvr.obj
 0001:00001800       ?OnAddConnection@CDPCacheSrvr@@AAEXAAVCAr@@KPAEK@Z 00402800 f   DPCacheSrvr.obj
 0001:00001900       ?OnRemoveConnection@CDPCacheSrvr@@AAEXK@Z 00402900 f   DPCacheSrvr.obj
 0001:00001a70       ?OnKeepAlive@CDPCacheSrvr@@AAEXAAVCAr@@KPAEK@Z 00402a70 f   DPCacheSrvr.obj
 0001:00001ae0       ??9const_iterator@?$_Tree@V?$_Tmap_traits@KP8CDPCacheSrvr@@AEXAAVCAr@@KPAEK@ZU?$less@K@std@@V?$allocator@U?$pair@$$CBKP8CDPCacheSrvr@@AEXAAVCAr@@KPAEK@Z@std@@@4@$0A@@std@@@std@@QBE_NABV012@@Z 00402ae0 f i DPCacheSrvr.obj
 0001:00001b00       ?_Key@?$_Tree@V?$_Tmap_traits@KP8CDPCacheSrvr@@AEXAAVCAr@@KPAEK@ZU?$less@K@std@@V?$allocator@U?$pair@$$CBKP8CDPCacheSrvr@@AEXAAVCAr@@KPAEK@Z@std@@@4@$0A@@std@@@std@@KAABKPAU_Node@?$_Tree_nod@V?$_Tmap_traits@KP8CDPCacheSrvr@@AEXAAVCAr@@KPAEK@ZU?$less@K@std@@V?$allocator@U?$pair@$$CBKP8CDPCacheSrvr@@AEXAAVCAr@@KPAEK@Z@std@@@4@$0A@@std@@@2@@Z 00402b00 f i DPCacheSrvr.obj
 0001:00001b10       ?_Root@?$_Tree@V?$_Tmap_traits@KP8CDPCacheSrvr@@AEXAAVCAr@@KPAEK@ZU?$less@K@std@@V?$allocator@U?$pair@$$CBKP8CDPCacheSrvr@@AEXAAVCAr@@KPAEK@Z@std@@@4@$0A@@std@@@std@@IAEAAPAU_Node@?$_Tree_nod@V?$_Tmap_traits@KP8CDPCacheSrvr@@AEXAAVCAr@@KPAEK@ZU?$less@K@std@@V?$allocator@U?$pair@$$CBKP8CDPCacheSrvr@@AEXAAVCAr@@KPAEK@Z@std@@@4@$0A@@std@@@2@XZ 00402b10 f i DPCacheSrvr.obj
 0001:00001b20       ??0iterator@?$_Tree@V?$_Tmap_traits@KP8CDPCacheSrvr@@AEXAAVCAr@@KPAEK@ZU?$less@K@std@@V?$allocator@U?$pair@$$CBKP8CDPCacheSrvr@@AEXAAVCAr@@KPAEK@Z@std@@@4@$0A@@std@@@std@@QAE@PAU_Node@?$_Tree_nod@V?$_Tmap_traits@KP8CDPCacheSrvr@@AEXAAVCAr@@KPAEK@ZU?$less@K@std@@V?$allocator@U?$pair@$$CBKP8CDPCacheSrvr@@AEXAAVCAr@@KPAEK@Z@std@@@4@$0A@@std@@@2@@Z 00402b20 f i DPCacheSrvr.obj
 0001:00001b30       ??Diterator@?$_Tree@V?$_Tmap_traits@KP8CDPCacheSrvr@@AEXAAVCAr@@KPAEK@ZU?$less@K@std@@V?$allocator@U?$pair@$$CBKP8CDPCacheSrvr@@AEXAAVCAr@@KPAEK@Z@std@@@4@$0A@@std@@@std@@QBEAAU?$pair@$$CBKP8CDPCacheSrvr@@AEXAAVCAr@@KPAEK@Z@2@XZ 00402b30 f i DPCacheSrvr.obj
 0001:00001b40       ?max_size@?$_Tree@V?$_Tmap_traits@KP8CDPCacheSrvr@@AEXAAVCAr@@KPAEK@ZU?$less@K@std@@V?$allocator@U?$pair@$$CBKP8CDPCacheSrvr@@AEXAAVCAr@@KPAEK@Z@std@@@4@$0A@@std@@@std@@QBEIXZ 00402b40 f i DPCacheSrvr.obj
 0001:00001b50       ?_Lbound@?$_Tree@V?$_Tmap_traits@KP8CDPCacheSrvr@@AEXAAVCAr@@KPAEK@ZU?$less@K@std@@V?$allocator@U?$pair@$$CBKP8CDPCacheSrvr@@AEXAAVCAr@@KPAEK@Z@std@@@4@$0A@@std@@@std@@IBEPAU_Node@?$_Tree_nod@V?$_Tmap_traits@KP8CDPCacheSrvr@@AEXAAVCAr@@KPAEK@ZU?$less@K@std@@V?$allocator@U?$pair@$$CBKP8CDPCacheSrvr@@AEXAAVCAr@@KPAEK@Z@std@@@4@$0A@@std@@@2@ABK@Z 00402b50 f i DPCacheSrvr.obj
 0001:00001b80       ?_Lrotate@?$_Tree@V?$_Tmap_traits@KP8CDPCacheSrvr@@AEXAAVCAr@@KPAEK@ZU?$less@K@std@@V?$allocator@U?$pair@$$CBKP8CDPCacheSrvr@@AEXAAVCAr@@KPAEK@Z@std@@@4@$0A@@std@@@std@@IAEXPAU_Node@?$_Tree_nod@V?$_Tmap_traits@KP8CDPCacheSrvr@@AEXAAVCAr@@KPAEK@ZU?$less@K@std@@V?$allocator@U?$pair@$$CBKP8CDPCacheSrvr@@AEXAAVCAr@@KPAEK@Z@std@@@4@$0A@@std@@@2@@Z 00402b80 f i DPCacheSrvr.obj
 0001:00001be0       ?_Rrotate@?$_Tree@V?$_Tmap_traits@KP8CDPCacheSrvr@@AEXAAVCAr@@KPAEK@ZU?$less@K@std@@V?$allocator@U?$pair@$$CBKP8CDPCacheSrvr@@AEXAAVCAr@@KPAEK@Z@std@@@4@$0A@@std@@@std@@IAEXPAU_Node@?$_Tree_nod@V?$_Tmap_traits@KP8CDPCacheSrvr@@AEXAAVCAr@@KPAEK@ZU?$less@K@std@@V?$allocator@U?$pair@$$CBKP8CDPCacheSrvr@@AEXAAVCAr@@KPAEK@Z@std@@@4@$0A@@std@@@2@@Z 00402be0 f i DPCacheSrvr.obj
 0001:00001c40       ?destroy@?$allocator@PAU_Node@?$_Tree_nod@V?$_Tmap_traits@KP8CDPCacheSrvr@@AEXAAVCAr@@KPAEK@ZU?$less@K@std@@V?$allocator@U?$pair@$$CBKP8CDPCacheSrvr@@AEXAAVCAr@@KPAEK@Z@std@@@4@$0A@@std@@@std@@@std@@QAEXPAPAU_Node@?$_Tree_nod@V?$_Tmap_traits@KP8CDPCacheSrvr@@AEXAAVCAr@@KPAEK@ZU?$less@K@std@@V?$allocator@U?$pair@$$CBKP8CDPCacheSrvr@@AEXAAVCAr@@KPAEK@Z@std@@@4@$0A@@std@@@2@@Z 00402c40 f i DPCacheSrvr.obj
 0001:00001c50       ?allocate@?$allocator@U_Node@?$_Tree_nod@V?$_Tmap_traits@KP8CDPCacheSrvr@@AEXAAVCAr@@KPAEK@ZU?$less@K@std@@V?$allocator@U?$pair@$$CBKP8CDPCacheSrvr@@AEXAAVCAr@@KPAEK@Z@std@@@4@$0A@@std@@@std@@@std@@QAEPAU_Node@?$_Tree_nod@V?$_Tmap_traits@KP8CDPCacheSrvr@@AEXAAVCAr@@KPAEK@ZU?$less@K@std@@V?$allocator@U?$pair@$$CBKP8CDPCacheSrvr@@AEXAAVCAr@@KPAEK@Z@std@@@4@$0A@@std@@@2@I@Z 00402c50 f i DPCacheSrvr.obj
 0001:00001c70       ?_Dec@const_iterator@?$_Tree@V?$_Tmap_traits@KP8CDPCacheSrvr@@AEXAAVCAr@@KPAEK@ZU?$less@K@std@@V?$allocator@U?$pair@$$CBKP8CDPCacheSrvr@@AEXAAVCAr@@KPAEK@Z@std@@@4@$0A@@std@@@std@@QAEXXZ 00402c70 f i DPCacheSrvr.obj
 0001:00001cd0       ??0?$_Tree_nod@V?$_Tmap_traits@KP8CDPCacheSrvr@@AEXAAVCAr@@KPAEK@ZU?$less@K@std@@V?$allocator@U?$pair@$$CBKP8CDPCacheSrvr@@AEXAAVCAr@@KPAEK@Z@std@@@4@$0A@@std@@@std@@IAE@ABU?$less@K@1@V?$allocator@U?$pair@$$CBKP8CDPCacheSrvr@@AEXAAVCAr@@KPAEK@Z@std@@@1@@Z 00402cd0 f i DPCacheSrvr.obj
 0001:00001ce0       ?destroy@?$allocator@U_Node@?$_Tree_nod@V?$_Tmap_traits@KP8CDPCacheSrvr@@AEXAAVCAr@@KPAEK@ZU?$less@K@std@@V?$allocator@U?$pair@$$CBKP8CDPCacheSrvr@@AEXAAVCAr@@KPAEK@Z@std@@@4@$0A@@std@@@std@@@std@@QAEXPAU_Node@?$_Tree_nod@V?$_Tmap_traits@KP8CDPCacheSrvr@@AEXAAVCAr@@KPAEK@ZU?$less@K@std@@V?$allocator@U?$pair@$$CBKP8CDPCacheSrvr@@AEXAAVCAr@@KPAEK@Z@std@@@4@$0A@@std@@@2@@Z 00402ce0 f i DPCacheSrvr.obj
 0001:00001cf0       ?construct@?$allocator@PAU_Node@?$_Tree_nod@V?$_Tmap_traits@KP8CDPCacheSrvr@@AEXAAVCAr@@KPAEK@ZU?$less@K@std@@V?$allocator@U?$pair@$$CBKP8CDPCacheSrvr@@AEXAAVCAr@@KPAEK@Z@std@@@4@$0A@@std@@@std@@@std@@QAEXPAPAU_Node@?$_Tree_nod@V?$_Tmap_traits@KP8CDPCacheSrvr@@AEXAAVCAr@@KPAEK@ZU?$less@K@std@@V?$allocator@U?$pair@$$CBKP8CDPCacheSrvr@@AEXAAVCAr@@KPAEK@Z@std@@@4@$0A@@std@@@2@ABQAU342@@Z 00402cf0 f i DPCacheSrvr.obj
 0001:00001d10       ??Econst_iterator@?$_Tree@V?$_Tmap_traits@KP8CDPCacheSrvr@@AEXAAVCAr@@KPAEK@ZU?$less@K@std@@V?$allocator@U?$pair@$$CBKP8CDPCacheSrvr@@AEXAAVCAr@@KPAEK@Z@std@@@4@$0A@@std@@@std@@QAEAAV012@XZ 00402d10 f i DPCacheSrvr.obj
 0001:00001d20       ??0?$_String_val@DV?$allocator@D@std@@@std@@IAE@V?$allocator@D@1@@Z 00402d20 f i DPCacheSrvr.obj
 0001:00001d30       ?_Eos@?$basic_string@DU?$char_traits@D@std@@V?$allocator@D@2@@std@@IAEXI@Z 00402d30 f i DPCacheSrvr.obj
 0001:00001d50       ?max_size@?$basic_string@DU?$char_traits@D@std@@V?$allocator@D@2@@std@@QBEIXZ 00402d50 f i DPCacheSrvr.obj
 0001:00001d60       ?allocate@?$allocator@D@std@@QAEPADI@Z 00402d60 f i DPCacheSrvr.obj
 0001:00001d70       ?SysMessageHandler@CDPCacheSrvr@@UAEXPAUDPMSG_GENERIC@@KK@Z 00402d70 f   DPCacheSrvr.obj
 0001:00001e10       ?end@?$_Tree@V?$_Tmap_traits@KP8CDPCacheSrvr@@AEXAAVCAr@@KPAEK@ZU?$less@K@std@@V?$allocator@U?$pair@$$CBKP8CDPCacheSrvr@@AEXAAVCAr@@KPAEK@Z@std@@@4@$0A@@std@@@std@@QAE?AViterator@12@XZ 00402e10 f i DPCacheSrvr.obj
 0001:00001e20       ??Citerator@?$_Tree@V?$_Tmap_traits@KP8CDPCacheSrvr@@AEXAAVCAr@@KPAEK@ZU?$less@K@std@@V?$allocator@U?$pair@$$CBKP8CDPCacheSrvr@@AEXAAVCAr@@KPAEK@Z@std@@@4@$0A@@std@@@std@@QBEPAU?$pair@$$CBKP8CDPCacheSrvr@@AEXAAVCAr@@KPAEK@Z@2@XZ 00402e20 f i DPCacheSrvr.obj
 0001:00001e30       ?begin@?$_Tree@V?$_Tmap_traits@KP8CDPCacheSrvr@@AEXAAVCAr@@KPAEK@ZU?$less@K@std@@V?$allocator@U?$pair@$$CBKP8CDPCacheSrvr@@AEXAAVCAr@@KPAEK@Z@std@@@4@$0A@@std@@@std@@QAE?AViterator@12@XZ 00402e30 f i DPCacheSrvr.obj
 0001:00001e40       ?lower_bound@?$_Tree@V?$_Tmap_traits@KP8CDPCacheSrvr@@AEXAAVCAr@@KPAEK@ZU?$less@K@std@@V?$allocator@U?$pair@$$CBKP8CDPCacheSrvr@@AEXAAVCAr@@KPAEK@Z@std@@@4@$0A@@std@@@std@@QAE?AViterator@12@ABK@Z 00402e40 f i DPCacheSrvr.obj
 0001:00001e80       ?_Buynode@?$_Tree@V?$_Tmap_traits@KP8CDPCacheSrvr@@AEXAAVCAr@@KPAEK@ZU?$less@K@std@@V?$allocator@U?$pair@$$CBKP8CDPCacheSrvr@@AEXAAVCAr@@KPAEK@Z@std@@@4@$0A@@std@@@std@@IAEPAU_Node@?$_Tree_nod@V?$_Tmap_traits@KP8CDPCacheSrvr@@AEXAAVCAr@@KPAEK@ZU?$less@K@std@@V?$allocator@U?$pair@$$CBKP8CDPCacheSrvr@@AEXAAVCAr@@KPAEK@Z@std@@@4@$0A@@std@@@2@PAU342@00ABU?$pair@$$CBKP8CDPCacheSrvr@@AEXAAVCAr@@KPAEK@Z@2@D@Z 00402e80 f i DPCacheSrvr.obj
 0001:00001ec0       ??Fconst_iterator@?$_Tree@V?$_Tmap_traits@KP8CDPCacheSrvr@@AEXAAVCAr@@KPAEK@ZU?$less@K@std@@V?$allocator@U?$pair@$$CBKP8CDPCacheSrvr@@AEXAAVCAr@@KPAEK@Z@std@@@4@$0A@@std@@@std@@QAEAAV012@XZ 00402ec0 f i DPCacheSrvr.obj
 0001:00001ed0       ?_Buynode@?$_Tree@V?$_Tmap_traits@KP8CDPCacheSrvr@@AEXAAVCAr@@KPAEK@ZU?$less@K@std@@V?$allocator@U?$pair@$$CBKP8CDPCacheSrvr@@AEXAAVCAr@@KPAEK@Z@std@@@4@$0A@@std@@@std@@IAEPAU_Node@?$_Tree_nod@V?$_Tmap_traits@KP8CDPCacheSrvr@@AEXAAVCAr@@KPAEK@ZU?$less@K@std@@V?$allocator@U?$pair@$$CBKP8CDPCacheSrvr@@AEXAAVCAr@@KPAEK@Z@std@@@4@$0A@@std@@@2@XZ 00402ed0 f i DPCacheSrvr.obj
 0001:00001f10       ??0?$_Tree_ptr@V?$_Tmap_traits@KP8CDPCacheSrvr@@AEXAAVCAr@@KPAEK@ZU?$less@K@std@@V?$allocator@U?$pair@$$CBKP8CDPCacheSrvr@@AEXAAVCAr@@KPAEK@Z@std@@@4@$0A@@std@@@std@@IAE@ABU?$less@K@1@V?$allocator@U?$pair@$$CBKP8CDPCacheSrvr@@AEXAAVCAr@@KPAEK@Z@std@@@1@@Z 00402f10 f i DPCacheSrvr.obj
 0001:00001f20       ?_Erase@?$_Tree@V?$_Tmap_traits@KP8CDPCacheSrvr@@AEXAAVCAr@@KPAEK@ZU?$less@K@std@@V?$allocator@U?$pair@$$CBKP8CDPCacheSrvr@@AEXAAVCAr@@KPAEK@Z@std@@@4@$0A@@std@@@std@@IAEXPAU_Node@?$_Tree_nod@V?$_Tmap_traits@KP8CDPCacheSrvr@@AEXAAVCAr@@KPAEK@ZU?$less@K@std@@V?$allocator@U?$pair@$$CBKP8CDPCacheSrvr@@AEXAAVCAr@@KPAEK@Z@std@@@4@$0A@@std@@@2@@Z 00402f20 f i DPCacheSrvr.obj
 0001:00001f60       ??Eiterator@?$_Tree@V?$_Tmap_traits@KP8CDPCacheSrvr@@AEXAAVCAr@@KPAEK@ZU?$less@K@std@@V?$allocator@U?$pair@$$CBKP8CDPCacheSrvr@@AEXAAVCAr@@KPAEK@Z@std@@@4@$0A@@std@@@std@@QAEAAV012@XZ 00402f60 f i DPCacheSrvr.obj
 0001:00001f70       ?_Tidy@?$basic_string@DU?$char_traits@D@std@@V?$allocator@D@2@@std@@IAEX_NI@Z 00402f70 f i DPCacheSrvr.obj
 0001:00001fd0       ?erase@?$basic_string@DU?$char_traits@D@std@@V?$allocator@D@2@@std@@QAEAAV12@II@Z 00402fd0 f i DPCacheSrvr.obj
 0001:00002050       ?_Copy@?$basic_string@DU?$char_traits@D@std@@V?$allocator@D@2@@std@@IAEXII@Z 00403050 f i DPCacheSrvr.obj
 0001:00002190       ?find@?$_Tree@V?$_Tmap_traits@KP8CDPCacheSrvr@@AEXAAVCAr@@KPAEK@ZU?$less@K@std@@V?$allocator@U?$pair@$$CBKP8CDPCacheSrvr@@AEXAAVCAr@@KPAEK@Z@std@@@4@$0A@@std@@@std@@QAE?AViterator@12@ABK@Z 00403190 f i DPCacheSrvr.obj
 0001:00002200       ??Fiterator@?$_Tree@V?$_Tmap_traits@KP8CDPCacheSrvr@@AEXAAVCAr@@KPAEK@ZU?$less@K@std@@V?$allocator@U?$pair@$$CBKP8CDPCacheSrvr@@AEXAAVCAr@@KPAEK@Z@std@@@4@$0A@@std@@@std@@QAEAAV012@XZ 00403200 f i DPCacheSrvr.obj
 0001:00002210       ?_Init@?$_Tree@V?$_Tmap_traits@KP8CDPCacheSrvr@@AEXAAVCAr@@KPAEK@ZU?$less@K@std@@V?$allocator@U?$pair@$$CBKP8CDPCacheSrvr@@AEXAAVCAr@@KPAEK@Z@std@@@4@$0A@@std@@@std@@IAEXXZ 00403210 f i DPCacheSrvr.obj
 0001:00002240       ??0?$_Tree_val@V?$_Tmap_traits@KP8CDPCacheSrvr@@AEXAAVCAr@@KPAEK@ZU?$less@K@std@@V?$allocator@U?$pair@$$CBKP8CDPCacheSrvr@@AEXAAVCAr@@KPAEK@Z@std@@@4@$0A@@std@@@std@@IAE@ABU?$less@K@1@V?$allocator@U?$pair@$$CBKP8CDPCacheSrvr@@AEXAAVCAr@@KPAEK@Z@std@@@1@@Z 00403240 f i DPCacheSrvr.obj
 0001:00002250       ?clear@?$_Tree@V?$_Tmap_traits@KP8CDPCacheSrvr@@AEXAAVCAr@@KPAEK@ZU?$less@K@std@@V?$allocator@U?$pair@$$CBKP8CDPCacheSrvr@@AEXAAVCAr@@KPAEK@Z@std@@@4@$0A@@std@@@std@@QAEXXZ 00403250 f i DPCacheSrvr.obj
 0001:00002280       ??Eiterator@?$_Tree@V?$_Tmap_traits@KP8CDPCacheSrvr@@AEXAAVCAr@@KPAEK@ZU?$less@K@std@@V?$allocator@U?$pair@$$CBKP8CDPCacheSrvr@@AEXAAVCAr@@KPAEK@Z@std@@@4@$0A@@std@@@std@@QAE?AV012@H@Z 00403280 f i DPCacheSrvr.obj
 0001:000022a0       ??1?$basic_string@DU?$char_traits@D@std@@V?$allocator@D@2@@std@@QAE@XZ 004032a0 f i DPCacheSrvr.obj
 0001:000022d0       ?_Grow@?$basic_string@DU?$char_traits@D@std@@V?$allocator@D@2@@std@@IAE_NI_N@Z 004032d0 f i DPCacheSrvr.obj
 0001:000023a0       ?GetHandler@CDPCacheSrvr@@AAEP81@AEXAAVCAr@@KPAEK@ZK@Z 004033a0 f i DPCacheSrvr.obj
 0001:000023d0       ?UserMessageHandler@CDPCacheSrvr@@UAEXPAUDPMSG_GENERIC@@KK@Z 004033d0 f   DPCacheSrvr.obj
 0001:00002620       ??0?$_Tree@V?$_Tmap_traits@KP8CDPCacheSrvr@@AEXAAVCAr@@KPAEK@ZU?$less@K@std@@V?$allocator@U?$pair@$$CBKP8CDPCacheSrvr@@AEXAAVCAr@@KPAEK@Z@std@@@4@$0A@@std@@@std@@QAE@ABU?$less@K@1@ABV?$allocator@U?$pair@$$CBKP8CDPCacheSrvr@@AEXAAVCAr@@KPAEK@Z@std@@@1@@Z 00403620 f i DPCacheSrvr.obj
 0001:00002650       ??1logic_error@std@@UAE@XZ 00403650 f i DPCacheSrvr.obj
 0001:00002690       ?what@logic_error@std@@UBEPBDXZ 00403690 f i DPCacheSrvr.obj
 0001:000026a0       ??_Glogic_error@std@@UAEPAXI@Z 004036a0 f i DPCacheSrvr.obj
 0001:000026a0       ??_Elogic_error@std@@UAEPAXI@Z 004036a0 f i DPCacheSrvr.obj
 0001:000026c0       ?assign@?$basic_string@DU?$char_traits@D@std@@V?$allocator@D@2@@std@@QAEAAV12@ABV12@II@Z 004036c0 f i DPCacheSrvr.obj
 0001:000027b0       ?assign@?$basic_string@DU?$char_traits@D@std@@V?$allocator@D@2@@std@@QAEAAV12@PBDI@Z 004037b0 f i DPCacheSrvr.obj
 0001:000028a0       ??0?$basic_string@DU?$char_traits@D@std@@V?$allocator@D@2@@std@@QAE@ABV01@@Z 004038a0 f i DPCacheSrvr.obj
 0001:000028d0       ?assign@?$basic_string@DU?$char_traits@D@std@@V?$allocator@D@2@@std@@QAEAAV12@PBD@Z 004038d0 f i DPCacheSrvr.obj
 0001:00002900       ??0?$basic_string@DU?$char_traits@D@std@@V?$allocator@D@2@@std@@QAE@PBD@Z 00403900 f i DPCacheSrvr.obj
 0001:00002940       ??0logic_error@std@@QAE@ABV?$basic_string@DU?$char_traits@D@std@@V?$allocator@D@2@@1@@Z 00403940 f i DPCacheSrvr.obj
 0001:000029a0       ??0length_error@std@@QAE@ABV?$basic_string@DU?$char_traits@D@std@@V?$allocator@D@2@@1@@Z 004039a0 f i DPCacheSrvr.obj
 0001:000029c0       ??_Glength_error@std@@UAEPAXI@Z 004039c0 f i DPCacheSrvr.obj
 0001:000029c0       ??_Elength_error@std@@UAEPAXI@Z 004039c0 f i DPCacheSrvr.obj
 0001:000029e0       ??1length_error@std@@UAE@XZ 004039e0 f i DPCacheSrvr.obj
 0001:00002a20       ??0out_of_range@std@@QAE@ABV?$basic_string@DU?$char_traits@D@std@@V?$allocator@D@2@@1@@Z 00403a20 f i DPCacheSrvr.obj
 0001:00002a40       ??_Gout_of_range@std@@UAEPAXI@Z 00403a40 f i DPCacheSrvr.obj
 0001:00002a40       ??_Eout_of_range@std@@UAEPAXI@Z 00403a40 f i DPCacheSrvr.obj
 0001:00002a60       ??1out_of_range@std@@UAE@XZ 00403a60 f i DPCacheSrvr.obj
 0001:00002aa0       ?_Insert@?$_Tree@V?$_Tmap_traits@KP8CDPCacheSrvr@@AEXAAVCAr@@KPAEK@ZU?$less@K@std@@V?$allocator@U?$pair@$$CBKP8CDPCacheSrvr@@AEXAAVCAr@@KPAEK@Z@std@@@4@$0A@@std@@@std@@IAE?AViterator@12@_NPAU_Node@?$_Tree_nod@V?$_Tmap_traits@KP8CDPCacheSrvr@@AEXAAVCAr@@KPAEK@ZU?$less@K@std@@V?$allocator@U?$pair@$$CBKP8CDPCacheSrvr@@AEXAAVCAr@@KPAEK@Z@std@@@4@$0A@@std@@@2@ABU?$pair@$$CBKP8CDPCacheSrvr@@AEXAAVCAr@@KPAEK@Z@2@@Z 00403aa0 f i DPCacheSrvr.obj
 0001:00002c50       ??0logic_error@std@@QAE@ABV01@@Z 00403c50 f i DPCacheSrvr.obj
 0001:00002cc0       ??0length_error@std@@QAE@ABV01@@Z 00403cc0 f i DPCacheSrvr.obj
 0001:00002ce0       ?erase@?$_Tree@V?$_Tmap_traits@KP8CDPCacheSrvr@@AEXAAVCAr@@KPAEK@ZU?$less@K@std@@V?$allocator@U?$pair@$$CBKP8CDPCacheSrvr@@AEXAAVCAr@@KPAEK@Z@std@@@4@$0A@@std@@@std@@QAE?AViterator@12@V312@@Z 00403ce0 f i DPCacheSrvr.obj
 0001:00002fa0       ??0out_of_range@std@@QAE@ABV01@@Z 00403fa0 f i DPCacheSrvr.obj
 0001:00002fc0       ?insert@?$_Tree@V?$_Tmap_traits@KP8CDPCacheSrvr@@AEXAAVCAr@@KPAEK@ZU?$less@K@std@@V?$allocator@U?$pair@$$CBKP8CDPCacheSrvr@@AEXAAVCAr@@KPAEK@Z@std@@@4@$0A@@std@@@std@@QAE?AU?$pair@Viterator@?$_Tree@V?$_Tmap_traits@KP8CDPCacheSrvr@@AEXAAVCAr@@KPAEK@ZU?$less@K@std@@V?$allocator@U?$pair@$$CBKP8CDPCacheSrvr@@AEXAAVCAr@@KPAEK@Z@std@@@4@$0A@@std@@@std@@_N@2@ABU?$pair@$$CBKP8CDPCacheSrvr@@AEXAAVCAr@@KPAEK@Z@2@@Z 00403fc0 f i DPCacheSrvr.obj
 0001:00003080       ?erase@?$_Tree@V?$_Tmap_traits@KP8CDPCacheSrvr@@AEXAAVCAr@@KPAEK@ZU?$less@K@std@@V?$allocator@U?$pair@$$CBKP8CDPCacheSrvr@@AEXAAVCAr@@KPAEK@Z@std@@@4@$0A@@std@@@std@@QAE?AViterator@12@V312@0@Z 00404080 f i DPCacheSrvr.obj
 0001:00003140       ?_Tidy@?$_Tree@V?$_Tmap_traits@KP8CDPCacheSrvr@@AEXAAVCAr@@KPAEK@ZU?$less@K@std@@V?$allocator@U?$pair@$$CBKP8CDPCacheSrvr@@AEXAAVCAr@@KPAEK@Z@std@@@4@$0A@@std@@@std@@IAEXXZ 00404140 f i DPCacheSrvr.obj
 0001:00003170       ??1?$_Tree@V?$_Tmap_traits@KP8CDPCacheSrvr@@AEXAAVCAr@@KPAEK@ZU?$less@K@std@@V?$allocator@U?$pair@$$CBKP8CDPCacheSrvr@@AEXAAVCAr@@KPAEK@Z@std@@@4@$0A@@std@@@std@@QAE@XZ 00404170 f i DPCacheSrvr.obj
 0001:000031a0       ??1?$map@KP8CDPCacheSrvr@@AEXAAVCAr@@KPAEK@ZU?$less@K@std@@V?$allocator@U?$pair@$$CBKP8CDPCacheSrvr@@AEXAAVCAr@@KPAEK@Z@std@@@4@@std@@QAE@XZ 004041a0 f i DPCacheSrvr.obj
 0001:000031d0       ??1CDPCacheSrvr@@UAE@XZ    004041d0 f   DPCacheSrvr.obj
 0001:00003250       ??0?$map@KP8CDPCacheSrvr@@AEXAAVCAr@@KPAEK@ZU?$less@K@std@@V?$allocator@U?$pair@$$CBKP8CDPCacheSrvr@@AEXAAVCAr@@KPAEK@Z@std@@@4@@std@@QAE@XZ 00404250 f i DPCacheSrvr.obj
 0001:00003280       ??0CDPCacheSrvr@@QAE@XZ    00404280 f   DPCacheSrvr.obj
 0001:00003340       ??_ECDPCacheSrvr@@UAEPAXI@Z 00404340 f i DPCacheSrvr.obj
 0001:00003340       ??_GCDPCacheSrvr@@UAEPAXI@Z 00404340 f i DPCacheSrvr.obj
 0001:00003360       ??6CAr@@QAEAAV0@E@Z        00404360 f i DPClient.obj
 0001:00003380       ?Send@CDPMng@@QAEHPAXKK@Z  00404380 f i DPClient.obj
 0001:000033a0       ?GetKey@CServerDesc@@QAEKXZ 004043a0 f i DPClient.obj
 0001:000033b0       ?GetIdofMulti@CServerDesc@@QAEKXZ 004043b0 f i DPClient.obj
 0001:000033c0       ?SendToServer@CDPClient@@QAEXKPAXK@Z 004043c0 f i DPClient.obj
 0001:000033f0       ?GetAuthKey@CPlayer@@QAEKXZ 004043f0 f i DPClient.obj
 0001:00003400       ?GetAccount@CPlayer@@QAEPBDXZ 00404400 f i DPClient.obj
 0001:00003410       ?GetPass@CPlayer@@QAEPBDXZ 00404410 f i DPClient.obj
 0001:00003420       ?GetSerial@CPlayer@@QAEKXZ 00404420 f i DPClient.obj
 0001:00003430       ?GetSlot@CPlayer@@QAEEXZ   00404430 f i DPClient.obj
 0001:00003440       ?OnReplace@CDPClient@@AAEXAAVCAr@@KPAXK@Z 00404440 f   DPClient.obj
 0001:00003450       ?SendJoin@CDPClient@@QAEXPAVCPlayer@@@Z 00404450 f   DPClient.obj
 0001:000035e0       ?Add@CDPClientArray@@QAEXPAVCDPClient@@@Z 004045e0 f   DPClient.obj
 0001:000035f0       ??0?$pair@$$CBKP8CDPClient@@AEXAAVCAr@@KPAXK@Z@std@@QAE@ABKABQ8CDPClient@@AEXAAVCAr@@KPAXK@Z@Z 004045f0 f i DPClient.obj
 0001:00003610       ??8const_iterator@?$_Tree@V?$_Tmap_traits@KPAVCServerDesc@@U?$less@K@std@@V?$allocator@U?$pair@$$CBKPAVCServerDesc@@@std@@@3@$0A@@std@@@std@@QBE_NABV012@@Z 00404610 f i DPClient.obj
 0001:00003620       ??9const_iterator@?$_Tree@V?$_Tmap_traits@KPAVCServerDesc@@U?$less@K@std@@V?$allocator@U?$pair@$$CBKPAVCServerDesc@@@std@@@3@$0A@@std@@@std@@QBE_NABV012@@Z 00404620 f i DPClient.obj
 0001:00003640       ??0?$pair@$$CBKPAVCServerDesc@@@std@@QAE@ABKABQAVCServerDesc@@@Z 00404640 f i DPClient.obj
 0001:00003660       ?_Isnil@?$_Tree@V?$_Tmap_traits@KPAVCServerDesc@@U?$less@K@std@@V?$allocator@U?$pair@$$CBKPAVCServerDesc@@@std@@@3@$0A@@std@@@std@@KAAADPAU_Node@?$_Tree_nod@V?$_Tmap_traits@KPAVCServerDesc@@U?$less@K@std@@V?$allocator@U?$pair@$$CBKPAVCServerDesc@@@std@@@3@$0A@@std@@@2@@Z 00404660 f i DPClient.obj
 0001:00003670       ?_Left@?$_Tree@V?$_Tmap_traits@KPAVCServerDesc@@U?$less@K@std@@V?$allocator@U?$pair@$$CBKPAVCServerDesc@@@std@@@3@$0A@@std@@@std@@KAAAPAU_Node@?$_Tree_nod@V?$_Tmap_traits@KPAVCServerDesc@@U?$less@K@std@@V?$allocator@U?$pair@$$CBKPAVCServerDesc@@@std@@@3@$0A@@std@@@2@PAU342@@Z 00404670 f i DPClient.obj
 0001:00003680       ?_Right@?$_Tree@V?$_Tmap_traits@KPAVCServerDesc@@U?$less@K@std@@V?$allocator@U?$pair@$$CBKPAVCServerDesc@@@std@@@3@$0A@@std@@@std@@KAAAPAU_Node@?$_Tree_nod@V?$_Tmap_traits@KPAVCServerDesc@@U?$less@K@std@@V?$allocator@U?$pair@$$CBKPAVCServerDesc@@@std@@@3@$0A@@std@@@2@PAU342@@Z 00404680 f i DPClient.obj
 0001:00003690       ?_Kfn@?$_Tmap_traits@KPAVCServerDesc@@U?$less@K@std@@V?$allocator@U?$pair@$$CBKPAVCServerDesc@@@std@@@3@$0A@@std@@SAABKABU?$pair@$$CBKPAVCServerDesc@@@2@@Z 00404690 f i DPClient.obj
 0001:000036a0       ?_Isnil@?$_Tree@V?$_Tmap_traits@KP8CDPClient@@AEXAAVCAr@@KPAXK@ZU?$less@K@std@@V?$allocator@U?$pair@$$CBKP8CDPClient@@AEXAAVCAr@@KPAXK@Z@std@@@4@$0A@@std@@@std@@KAAADPAU_Node@?$_Tree_nod@V?$_Tmap_traits@KP8CDPClient@@AEXAAVCAr@@KPAXK@ZU?$less@K@std@@V?$allocator@U?$pair@$$CBKP8CDPClient@@AEXAAVCAr@@KPAXK@Z@std@@@4@$0A@@std@@@2@@Z 004046a0 f i DPClient.obj
 0001:000036b0       ?_Left@?$_Tree@V?$_Tmap_traits@KP8CDPClient@@AEXAAVCAr@@KPAXK@ZU?$less@K@std@@V?$allocator@U?$pair@$$CBKP8CDPClient@@AEXAAVCAr@@KPAXK@Z@std@@@4@$0A@@std@@@std@@KAAAPAU_Node@?$_Tree_nod@V?$_Tmap_traits@KP8CDPClient@@AEXAAVCAr@@KPAXK@ZU?$less@K@std@@V?$allocator@U?$pair@$$CBKP8CDPClient@@AEXAAVCAr@@KPAXK@Z@std@@@4@$0A@@std@@@2@PAU342@@Z 004046b0 f i DPClient.obj
 0001:000036c0       ?_Right@?$_Tree@V?$_Tmap_traits@KP8CDPClient@@AEXAAVCAr@@KPAXK@ZU?$less@K@std@@V?$allocator@U?$pair@$$CBKP8CDPClient@@AEXAAVCAr@@KPAXK@Z@std@@@4@$0A@@std@@@std@@KAAAPAU_Node@?$_Tree_nod@V?$_Tmap_traits@KP8CDPClient@@AEXAAVCAr@@KPAXK@ZU?$less@K@std@@V?$allocator@U?$pair@$$CBKP8CDPClient@@AEXAAVCAr@@KPAXK@Z@std@@@4@$0A@@std@@@2@PAU342@@Z 004046c0 f i DPClient.obj
 0001:000036d0       ?_Kfn@?$_Tmap_traits@KP8CDPClient@@AEXAAVCAr@@KPAXK@ZU?$less@K@std@@V?$allocator@U?$pair@$$CBKP8CDPClient@@AEXAAVCAr@@KPAXK@Z@std@@@4@$0A@@std@@SAABKABU?$pair@$$CBKP8CDPClient@@AEXAAVCAr@@KPAXK@Z@2@@Z 004046d0 f i DPClient.obj
 0001:000036e0       ??0?$allocator@U?$pair@$$CBKP8CDPClient@@AEXAAVCAr@@KPAXK@Z@std@@@std@@QAE@XZ 004046e0 f i DPClient.obj
 0001:000036f0       ??8const_iterator@?$_Tree@V?$_Tmap_traits@KP8CDPClient@@AEXAAVCAr@@KPAXK@ZU?$less@K@std@@V?$allocator@U?$pair@$$CBKP8CDPClient@@AEXAAVCAr@@KPAXK@Z@std@@@4@$0A@@std@@@std@@QBE_NABV012@@Z 004046f0 f i DPClient.obj
 0001:00003700       ?_Mynode@const_iterator@?$_Tree@V?$_Tmap_traits@KP8CDPClient@@AEXAAVCAr@@KPAXK@ZU?$less@K@std@@V?$allocator@U?$pair@$$CBKP8CDPClient@@AEXAAVCAr@@KPAXK@Z@std@@@4@$0A@@std@@@std@@QBEPAU_Node@?$_Tree_nod@V?$_Tmap_traits@KP8CDPClient@@AEXAAVCAr@@KPAXK@ZU?$less@K@std@@V?$allocator@U?$pair@$$CBKP8CDPClient@@AEXAAVCAr@@KPAXK@Z@std@@@4@$0A@@std@@@3@XZ 00404700 f i DPClient.obj
 0001:00003710       ??0?$pair@Viterator@?$_Tree@V?$_Tmap_traits@KP8CDPClient@@AEXAAVCAr@@KPAXK@ZU?$less@K@std@@V?$allocator@U?$pair@$$CBKP8CDPClient@@AEXAAVCAr@@KPAXK@Z@std@@@4@$0A@@std@@@std@@_N@std@@QAE@ABViterator@?$_Tree@V?$_Tmap_traits@KP8CDPClient@@AEXAAVCAr@@KPAXK@ZU?$less@K@std@@V?$allocator@U?$pair@$$CBKP8CDPClient@@AEXAAVCAr@@KPAXK@Z@std@@@4@$0A@@std@@@1@AB_N@Z 00404710 f i DPClient.obj
 0001:00003730       ?_Mynode@const_iterator@?$_Tree@V?$_Tmap_traits@KPAVCServerDesc@@U?$less@K@std@@V?$allocator@U?$pair@$$CBKPAVCServerDesc@@@std@@@3@$0A@@std@@@std@@QBEPAU_Node@?$_Tree_nod@V?$_Tmap_traits@KPAVCServerDesc@@U?$less@K@std@@V?$allocator@U?$pair@$$CBKPAVCServerDesc@@@std@@@3@$0A@@std@@@3@XZ 00404730 f i DPClient.obj
 0001:00003740       ??0?$pair@Viterator@?$_Tree@V?$_Tmap_traits@KPAVCServerDesc@@U?$less@K@std@@V?$allocator@U?$pair@$$CBKPAVCServerDesc@@@std@@@3@$0A@@std@@@std@@_N@std@@QAE@ABViterator@?$_Tree@V?$_Tmap_traits@KPAVCServerDesc@@U?$less@K@std@@V?$allocator@U?$pair@$$CBKPAVCServerDesc@@@std@@@3@$0A@@std@@@1@AB_N@Z 00404740 f i DPClient.obj
 0001:00003760       ?_Color@?$_Tree@V?$_Tmap_traits@KPAVCServerDesc@@U?$less@K@std@@V?$allocator@U?$pair@$$CBKPAVCServerDesc@@@std@@@3@$0A@@std@@@std@@KAAADPAU_Node@?$_Tree_nod@V?$_Tmap_traits@KPAVCServerDesc@@U?$less@K@std@@V?$allocator@U?$pair@$$CBKPAVCServerDesc@@@std@@@3@$0A@@std@@@2@@Z 00404760 f i DPClient.obj
 0001:00003770       ?_Parent@?$_Tree@V?$_Tmap_traits@KPAVCServerDesc@@U?$less@K@std@@V?$allocator@U?$pair@$$CBKPAVCServerDesc@@@std@@@3@$0A@@std@@@std@@KAAAPAU_Node@?$_Tree_nod@V?$_Tmap_traits@KPAVCServerDesc@@U?$less@K@std@@V?$allocator@U?$pair@$$CBKPAVCServerDesc@@@std@@@3@$0A@@std@@@2@PAU342@@Z 00404770 f i DPClient.obj
 0001:00003780       ?_Myval@?$_Tree@V?$_Tmap_traits@KPAVCServerDesc@@U?$less@K@std@@V?$allocator@U?$pair@$$CBKPAVCServerDesc@@@std@@@3@$0A@@std@@@std@@KAAAU?$pair@$$CBKPAVCServerDesc@@@2@PAU_Node@?$_Tree_nod@V?$_Tmap_traits@KPAVCServerDesc@@U?$less@K@std@@V?$allocator@U?$pair@$$CBKPAVCServerDesc@@@std@@@3@$0A@@std@@@2@@Z 00404780 f i DPClient.obj
 0001:00003790       ?_Lmost@?$_Tree@V?$_Tmap_traits@KPAVCServerDesc@@U?$less@K@std@@V?$allocator@U?$pair@$$CBKPAVCServerDesc@@@std@@@3@$0A@@std@@@std@@IAEAAPAU_Node@?$_Tree_nod@V?$_Tmap_traits@KPAVCServerDesc@@U?$less@K@std@@V?$allocator@U?$pair@$$CBKPAVCServerDesc@@@std@@@3@$0A@@std@@@2@XZ 00404790 f i DPClient.obj
 0001:000037a0       ?_Rmost@?$_Tree@V?$_Tmap_traits@KPAVCServerDesc@@U?$less@K@std@@V?$allocator@U?$pair@$$CBKPAVCServerDesc@@@std@@@3@$0A@@std@@@std@@IAEAAPAU_Node@?$_Tree_nod@V?$_Tmap_traits@KPAVCServerDesc@@U?$less@K@std@@V?$allocator@U?$pair@$$CBKPAVCServerDesc@@@std@@@3@$0A@@std@@@2@XZ 004047a0 f i DPClient.obj
 0001:000037b0       ?_Color@?$_Tree@V?$_Tmap_traits@KP8CDPClient@@AEXAAVCAr@@KPAXK@ZU?$less@K@std@@V?$allocator@U?$pair@$$CBKP8CDPClient@@AEXAAVCAr@@KPAXK@Z@std@@@4@$0A@@std@@@std@@KAAADPAU_Node@?$_Tree_nod@V?$_Tmap_traits@KP8CDPClient@@AEXAAVCAr@@KPAXK@ZU?$less@K@std@@V?$allocator@U?$pair@$$CBKP8CDPClient@@AEXAAVCAr@@KPAXK@Z@std@@@4@$0A@@std@@@2@@Z 004047b0 f i DPClient.obj
 0001:000037c0       ?_Parent@?$_Tree@V?$_Tmap_traits@KP8CDPClient@@AEXAAVCAr@@KPAXK@ZU?$less@K@std@@V?$allocator@U?$pair@$$CBKP8CDPClient@@AEXAAVCAr@@KPAXK@Z@std@@@4@$0A@@std@@@std@@KAAAPAU_Node@?$_Tree_nod@V?$_Tmap_traits@KP8CDPClient@@AEXAAVCAr@@KPAXK@ZU?$less@K@std@@V?$allocator@U?$pair@$$CBKP8CDPClient@@AEXAAVCAr@@KPAXK@Z@std@@@4@$0A@@std@@@2@PAU342@@Z 004047c0 f i DPClient.obj
 0001:000037d0       ?_Myval@?$_Tree@V?$_Tmap_traits@KP8CDPClient@@AEXAAVCAr@@KPAXK@ZU?$less@K@std@@V?$allocator@U?$pair@$$CBKP8CDPClient@@AEXAAVCAr@@KPAXK@Z@std@@@4@$0A@@std@@@std@@KAAAU?$pair@$$CBKP8CDPClient@@AEXAAVCAr@@KPAXK@Z@2@PAU_Node@?$_Tree_nod@V?$_Tmap_traits@KP8CDPClient@@AEXAAVCAr@@KPAXK@ZU?$less@K@std@@V?$allocator@U?$pair@$$CBKP8CDPClient@@AEXAAVCAr@@KPAXK@Z@std@@@4@$0A@@std@@@2@@Z 004047d0 f i DPClient.obj
 0001:000037e0       ?_Lmost@?$_Tree@V?$_Tmap_traits@KP8CDPClient@@AEXAAVCAr@@KPAXK@ZU?$less@K@std@@V?$allocator@U?$pair@$$CBKP8CDPClient@@AEXAAVCAr@@KPAXK@Z@std@@@4@$0A@@std@@@std@@IAEAAPAU_Node@?$_Tree_nod@V?$_Tmap_traits@KP8CDPClient@@AEXAAVCAr@@KPAXK@ZU?$less@K@std@@V?$allocator@U?$pair@$$CBKP8CDPClient@@AEXAAVCAr@@KPAXK@Z@std@@@4@$0A@@std@@@2@XZ 004047e0 f i DPClient.obj
 0001:000037f0       ?_Rmost@?$_Tree@V?$_Tmap_traits@KP8CDPClient@@AEXAAVCAr@@KPAXK@ZU?$less@K@std@@V?$allocator@U?$pair@$$CBKP8CDPClient@@AEXAAVCAr@@KPAXK@Z@std@@@4@$0A@@std@@@std@@IAEAAPAU_Node@?$_Tree_nod@V?$_Tmap_traits@KP8CDPClient@@AEXAAVCAr@@KPAXK@ZU?$less@K@std@@V?$allocator@U?$pair@$$CBKP8CDPClient@@AEXAAVCAr@@KPAXK@Z@std@@@4@$0A@@std@@@2@XZ 004047f0 f i DPClient.obj
 0001:00003800       ??0?$allocator@U?$pair@$$CBKP8CDPClient@@AEXAAVCAr@@KPAXK@Z@std@@@std@@QAE@ABV01@@Z 00404800 f i DPClient.obj
 0001:00003810       ?deallocate@?$allocator@U_Node@?$_Tree_nod@V?$_Tmap_traits@KP8CDPClient@@AEXAAVCAr@@KPAXK@ZU?$less@K@std@@V?$allocator@U?$pair@$$CBKP8CDPClient@@AEXAAVCAr@@KPAXK@Z@std@@@4@$0A@@std@@@std@@@std@@QAEXPAU_Node@?$_Tree_nod@V?$_Tmap_traits@KP8CDPClient@@AEXAAVCAr@@KPAXK@ZU?$less@K@std@@V?$allocator@U?$pair@$$CBKP8CDPClient@@AEXAAVCAr@@KPAXK@Z@std@@@4@$0A@@std@@@2@I@Z 00404810 f i DPClient.obj
 0001:00003820       ??0const_iterator@?$_Tree@V?$_Tmap_traits@KP8CDPClient@@AEXAAVCAr@@KPAXK@ZU?$less@K@std@@V?$allocator@U?$pair@$$CBKP8CDPClient@@AEXAAVCAr@@KPAXK@Z@std@@@4@$0A@@std@@@std@@QAE@PAU_Node@?$_Tree_nod@V?$_Tmap_traits@KP8CDPClient@@AEXAAVCAr@@KPAXK@ZU?$less@K@std@@V?$allocator@U?$pair@$$CBKP8CDPClient@@AEXAAVCAr@@KPAXK@Z@std@@@4@$0A@@std@@@2@@Z 00404820 f i DPClient.obj
 0001:00003830       ??Dconst_iterator@?$_Tree@V?$_Tmap_traits@KP8CDPClient@@AEXAAVCAr@@KPAXK@ZU?$less@K@std@@V?$allocator@U?$pair@$$CBKP8CDPClient@@AEXAAVCAr@@KPAXK@Z@std@@@4@$0A@@std@@@std@@QBEABU?$pair@$$CBKP8CDPClient@@AEXAAVCAr@@KPAXK@Z@2@XZ 00404830 f i DPClient.obj
 0001:00003840       ??0const_iterator@?$_Tree@V?$_Tmap_traits@KPAVCServerDesc@@U?$less@K@std@@V?$allocator@U?$pair@$$CBKPAVCServerDesc@@@std@@@3@$0A@@std@@@std@@QAE@PAU_Node@?$_Tree_nod@V?$_Tmap_traits@KPAVCServerDesc@@U?$less@K@std@@V?$allocator@U?$pair@$$CBKPAVCServerDesc@@@std@@@3@$0A@@std@@@2@@Z 00404840 f i DPClient.obj
 0001:00003850       ??0?$pair@Viterator@?$_Tree@V?$_Tmap_traits@KPAVCServerDesc@@U?$less@K@std@@V?$allocator@U?$pair@$$CBKPAVCServerDesc@@@std@@@3@$0A@@std@@@std@@V123@@std@@QAE@ABViterator@?$_Tree@V?$_Tmap_traits@KPAVCServerDesc@@U?$less@K@std@@V?$allocator@U?$pair@$$CBKPAVCServerDesc@@@std@@@3@$0A@@std@@@1@0@Z 00404850 f i DPClient.obj
 0001:00003870       ?_Max@?$_Tree@V?$_Tmap_traits@KPAVCServerDesc@@U?$less@K@std@@V?$allocator@U?$pair@$$CBKPAVCServerDesc@@@std@@@3@$0A@@std@@@std@@KAPAU_Node@?$_Tree_nod@V?$_Tmap_traits@KPAVCServerDesc@@U?$less@K@std@@V?$allocator@U?$pair@$$CBKPAVCServerDesc@@@std@@@3@$0A@@std@@@2@PAU342@@Z 00404870 f i DPClient.obj
 0001:00003890       ?_Min@?$_Tree@V?$_Tmap_traits@KPAVCServerDesc@@U?$less@K@std@@V?$allocator@U?$pair@$$CBKPAVCServerDesc@@@std@@@3@$0A@@std@@@std@@KAPAU_Node@?$_Tree_nod@V?$_Tmap_traits@KPAVCServerDesc@@U?$less@K@std@@V?$allocator@U?$pair@$$CBKPAVCServerDesc@@@std@@@3@$0A@@std@@@2@PAU342@@Z 00404890 f i DPClient.obj
 0001:000038b0       ?_Root@?$_Tree@V?$_Tmap_traits@KPAVCServerDesc@@U?$less@K@std@@V?$allocator@U?$pair@$$CBKPAVCServerDesc@@@std@@@3@$0A@@std@@@std@@IBEAAPAU_Node@?$_Tree_nod@V?$_Tmap_traits@KPAVCServerDesc@@U?$less@K@std@@V?$allocator@U?$pair@$$CBKPAVCServerDesc@@@std@@@3@$0A@@std@@@2@XZ 004048b0 f i DPClient.obj
 0001:000038c0       ?max_size@?$allocator@U?$pair@$$CBKPAVCServerDesc@@@std@@@std@@QBEIXZ 004048c0 f i DPClient.obj
 0001:000038d0       ?deallocate@?$allocator@U_Node@?$_Tree_nod@V?$_Tmap_traits@KPAVCServerDesc@@U?$less@K@std@@V?$allocator@U?$pair@$$CBKPAVCServerDesc@@@std@@@3@$0A@@std@@@std@@@std@@QAEXPAU_Node@?$_Tree_nod@V?$_Tmap_traits@KPAVCServerDesc@@U?$less@K@std@@V?$allocator@U?$pair@$$CBKPAVCServerDesc@@@std@@@3@$0A@@std@@@2@I@Z 004048d0 f i DPClient.obj
 0001:000038e0       ?_Root@?$_Tree@V?$_Tmap_traits@KP8CDPClient@@AEXAAVCAr@@KPAXK@ZU?$less@K@std@@V?$allocator@U?$pair@$$CBKP8CDPClient@@AEXAAVCAr@@KPAXK@Z@std@@@4@$0A@@std@@@std@@IBEAAPAU_Node@?$_Tree_nod@V?$_Tmap_traits@KP8CDPClient@@AEXAAVCAr@@KPAXK@ZU?$less@K@std@@V?$allocator@U?$pair@$$CBKP8CDPClient@@AEXAAVCAr@@KPAXK@Z@std@@@4@$0A@@std@@@2@XZ 004048e0 f i DPClient.obj
 0001:000038f0       ?max_size@?$allocator@U?$pair@$$CBKP8CDPClient@@AEXAAVCAr@@KPAXK@Z@std@@@std@@QBEIXZ 004048f0 f i DPClient.obj
 0001:00003900       ?_Dec@const_iterator@?$_Tree@V?$_Tmap_traits@KPAVCServerDesc@@U?$less@K@std@@V?$allocator@U?$pair@$$CBKPAVCServerDesc@@@std@@@3@$0A@@std@@@std@@QAEXXZ 00404900 f i DPClient.obj
 0001:00003960       ??0_Node@?$_Tree_nod@V?$_Tmap_traits@KPAVCServerDesc@@U?$less@K@std@@V?$allocator@U?$pair@$$CBKPAVCServerDesc@@@std@@@3@$0A@@std@@@std@@QAE@PAU012@00ABU?$pair@$$CBKPAVCServerDesc@@@2@D@Z 00404960 f i DPClient.obj
 0001:000039a0       ??0_Node@?$_Tree_nod@V?$_Tmap_traits@KP8CDPClient@@AEXAAVCAr@@KPAXK@ZU?$less@K@std@@V?$allocator@U?$pair@$$CBKP8CDPClient@@AEXAAVCAr@@KPAXK@Z@std@@@4@$0A@@std@@@std@@QAE@PAU012@00ABU?$pair@$$CBKP8CDPClient@@AEXAAVCAr@@KPAXK@Z@2@D@Z 004049a0 f i DPClient.obj
 0001:000039e0       ?_Max@?$_Tree@V?$_Tmap_traits@KP8CDPClient@@AEXAAVCAr@@KPAXK@ZU?$less@K@std@@V?$allocator@U?$pair@$$CBKP8CDPClient@@AEXAAVCAr@@KPAXK@Z@std@@@4@$0A@@std@@@std@@KAPAU_Node@?$_Tree_nod@V?$_Tmap_traits@KP8CDPClient@@AEXAAVCAr@@KPAXK@ZU?$less@K@std@@V?$allocator@U?$pair@$$CBKP8CDPClient@@AEXAAVCAr@@KPAXK@Z@std@@@4@$0A@@std@@@2@PAU342@@Z 004049e0 f i DPClient.obj
 0001:00003a00       ?_Min@?$_Tree@V?$_Tmap_traits@KP8CDPClient@@AEXAAVCAr@@KPAXK@ZU?$less@K@std@@V?$allocator@U?$pair@$$CBKP8CDPClient@@AEXAAVCAr@@KPAXK@Z@std@@@4@$0A@@std@@@std@@KAPAU_Node@?$_Tree_nod@V?$_Tmap_traits@KP8CDPClient@@AEXAAVCAr@@KPAXK@ZU?$less@K@std@@V?$allocator@U?$pair@$$CBKP8CDPClient@@AEXAAVCAr@@KPAXK@Z@std@@@4@$0A@@std@@@2@PAU342@@Z 00404a00 f i DPClient.obj
 0001:00003a20       ??0?$_Tmap_traits@KP8CDPClient@@AEXAAVCAr@@KPAXK@ZU?$less@K@std@@V?$allocator@U?$pair@$$CBKP8CDPClient@@AEXAAVCAr@@KPAXK@Z@std@@@4@$0A@@std@@QAE@U?$less@K@1@@Z 00404a20 f i DPClient.obj
 0001:00003a30       ?_Inc@const_iterator@?$_Tree@V?$_Tmap_traits@KPAVCServerDesc@@U?$less@K@std@@V?$allocator@U?$pair@$$CBKPAVCServerDesc@@@std@@@3@$0A@@std@@@std@@QAEXXZ 00404a30 f i DPClient.obj
 0001:00003a90       ?_Inc@const_iterator@?$_Tree@V?$_Tmap_traits@KP8CDPClient@@AEXAAVCAr@@KPAXK@ZU?$less@K@std@@V?$allocator@U?$pair@$$CBKP8CDPClient@@AEXAAVCAr@@KPAXK@Z@std@@@4@$0A@@std@@@std@@QAEXXZ 00404a90 f i DPClient.obj
 0001:00003af0       ??$_Destroy@PAU_Node@?$_Tree_nod@V?$_Tmap_traits@KP8CDPClient@@AEXAAVCAr@@KPAXK@ZU?$less@K@std@@V?$allocator@U?$pair@$$CBKP8CDPClient@@AEXAAVCAr@@KPAXK@Z@std@@@4@$0A@@std@@@std@@@std@@YAXPAPAU_Node@?$_Tree_nod@V?$_Tmap_traits@KP8CDPClient@@AEXAAVCAr@@KPAXK@ZU?$less@K@std@@V?$allocator@U?$pair@$$CBKP8CDPClient@@AEXAAVCAr@@KPAXK@Z@std@@@4@$0A@@std@@@0@@Z 00404af0 f i DPClient.obj
 0001:00003b00       ??$_Allocate@U_Node@?$_Tree_nod@V?$_Tmap_traits@KPAVCServerDesc@@U?$less@K@std@@V?$allocator@U?$pair@$$CBKPAVCServerDesc@@@std@@@3@$0A@@std@@@std@@@std@@YAPAU_Node@?$_Tree_nod@V?$_Tmap_traits@KPAVCServerDesc@@U?$less@K@std@@V?$allocator@U?$pair@$$CBKPAVCServerDesc@@@std@@@3@$0A@@std@@@0@IPAU120@@Z 00404b00 f i DPClient.obj
 0001:00003b20       ??$_Destroy@U_Node@?$_Tree_nod@V?$_Tmap_traits@KPAVCServerDesc@@U?$less@K@std@@V?$allocator@U?$pair@$$CBKPAVCServerDesc@@@std@@@3@$0A@@std@@@std@@@std@@YAXPAU_Node@?$_Tree_nod@V?$_Tmap_traits@KPAVCServerDesc@@U?$less@K@std@@V?$allocator@U?$pair@$$CBKPAVCServerDesc@@@std@@@3@$0A@@std@@@0@@Z 00404b20 f i DPClient.obj
 0001:00003b30       ??$?0U?$pair@$$CBKP8CDPClient@@AEXAAVCAr@@KPAXK@Z@std@@@?$allocator@PAU_Node@?$_Tree_nod@V?$_Tmap_traits@KP8CDPClient@@AEXAAVCAr@@KPAXK@ZU?$less@K@std@@V?$allocator@U?$pair@$$CBKP8CDPClient@@AEXAAVCAr@@KPAXK@Z@std@@@4@$0A@@std@@@std@@@std@@QAE@ABV?$allocator@U?$pair@$$CBKP8CDPClient@@AEXAAVCAr@@KPAXK@Z@std@@@1@@Z 00404b30 f i DPClient.obj
 0001:00003b40       ??$_Allocate@U_Node@?$_Tree_nod@V?$_Tmap_traits@KP8CDPClient@@AEXAAVCAr@@KPAXK@ZU?$less@K@std@@V?$allocator@U?$pair@$$CBKP8CDPClient@@AEXAAVCAr@@KPAXK@Z@std@@@4@$0A@@std@@@std@@@std@@YAPAU_Node@?$_Tree_nod@V?$_Tmap_traits@KP8CDPClient@@AEXAAVCAr@@KPAXK@ZU?$less@K@std@@V?$allocator@U?$pair@$$CBKP8CDPClient@@AEXAAVCAr@@KPAXK@Z@std@@@4@$0A@@std@@@0@IPAU120@@Z 00404b40 f i DPClient.obj
 0001:00003b60       ??$?0U?$pair@$$CBKP8CDPClient@@AEXAAVCAr@@KPAXK@Z@std@@@?$allocator@U_Node@?$_Tree_nod@V?$_Tmap_traits@KP8CDPClient@@AEXAAVCAr@@KPAXK@ZU?$less@K@std@@V?$allocator@U?$pair@$$CBKP8CDPClient@@AEXAAVCAr@@KPAXK@Z@std@@@4@$0A@@std@@@std@@@std@@QAE@ABV?$allocator@U?$pair@$$CBKP8CDPClient@@AEXAAVCAr@@KPAXK@Z@std@@@1@@Z 00404b60 f i DPClient.obj
 0001:00003b70       ??$_Destroy@U_Node@?$_Tree_nod@V?$_Tmap_traits@KP8CDPClient@@AEXAAVCAr@@KPAXK@ZU?$less@K@std@@V?$allocator@U?$pair@$$CBKP8CDPClient@@AEXAAVCAr@@KPAXK@Z@std@@@4@$0A@@std@@@std@@@std@@YAXPAU_Node@?$_Tree_nod@V?$_Tmap_traits@KP8CDPClient@@AEXAAVCAr@@KPAXK@ZU?$less@K@std@@V?$allocator@U?$pair@$$CBKP8CDPClient@@AEXAAVCAr@@KPAXK@Z@std@@@4@$0A@@std@@@0@@Z 00404b70 f i DPClient.obj
 0001:00003b80       ??$_Construct@PAU_Node@?$_Tree_nod@V?$_Tmap_traits@KP8CDPClient@@AEXAAVCAr@@KPAXK@ZU?$less@K@std@@V?$allocator@U?$pair@$$CBKP8CDPClient@@AEXAAVCAr@@KPAXK@Z@std@@@4@$0A@@std@@@std@@PAU123@@std@@YAXPAPAU_Node@?$_Tree_nod@V?$_Tmap_traits@KP8CDPClient@@AEXAAVCAr@@KPAXK@ZU?$less@K@std@@V?$allocator@U?$pair@$$CBKP8CDPClient@@AEXAAVCAr@@KPAXK@Z@std@@@4@$0A@@std@@@0@ABQAU120@@Z 00404b80 f i DPClient.obj
 0001:00003ba0       ??$_Iter_cat@Viterator@?$_Tree@V?$_Tmap_traits@KPAVCServerDesc@@U?$less@K@std@@V?$allocator@U?$pair@$$CBKPAVCServerDesc@@@std@@@3@$0A@@std@@@std@@@std@@YA?AUbidirectional_iterator_tag@0@ABViterator@?$_Tree@V?$_Tmap_traits@KPAVCServerDesc@@U?$less@K@std@@V?$allocator@U?$pair@$$CBKPAVCServerDesc@@@std@@@3@$0A@@std@@@0@@Z 00404ba0 f i DPClient.obj
 0001:00003bb0       ??0CMclCritSec@@QAE@XZ     00404bb0 f i DPClient.obj
 0001:00003bd0       ??1CMclCritSec@@UAE@XZ     00404bd0 f i DPClient.obj
 0001:00003bf0       ??_GCMclCritSec@@UAEPAXI@Z 00404bf0 f i DPClient.obj
 0001:00003bf0       ??_ECMclCritSec@@UAEPAXI@Z 00404bf0 f i DPClient.obj
 0001:00003c20       ??0CDPClientArray@@QAE@XZ  00404c20 f   DPClient.obj
 0001:00003c90       ?Free@CDPClientArray@@QAEXXZ 00404c90 f   DPClient.obj
 0001:00003d40       ?GetClient@CDPClientArray@@QAEPAVCDPClient@@KKABUD3DXVECTOR3@@@Z 00404d40 f   DPClient.obj
 0001:00003e00       ?SendToServer@CDPClientArray@@QAEXKPAXK@Z 00404e00 f   DPClient.obj
 0001:00003e90       ??9const_iterator@?$_Tree@V?$_Tmap_traits@KP8CDPClient@@AEXAAVCAr@@KPAXK@ZU?$less@K@std@@V?$allocator@U?$pair@$$CBKP8CDPClient@@AEXAAVCAr@@KPAXK@Z@std@@@4@$0A@@std@@@std@@QBE_NABV012@@Z 00404e90 f i DPClient.obj
 0001:00003eb0       ?_Key@?$_Tree@V?$_Tmap_traits@KPAVCServerDesc@@U?$less@K@std@@V?$allocator@U?$pair@$$CBKPAVCServerDesc@@@std@@@3@$0A@@std@@@std@@KAABKPAU_Node@?$_Tree_nod@V?$_Tmap_traits@KPAVCServerDesc@@U?$less@K@std@@V?$allocator@U?$pair@$$CBKPAVCServerDesc@@@std@@@3@$0A@@std@@@2@@Z 00404eb0 f i DPClient.obj
 0001:00003ec0       ?_Root@?$_Tree@V?$_Tmap_traits@KPAVCServerDesc@@U?$less@K@std@@V?$allocator@U?$pair@$$CBKPAVCServerDesc@@@std@@@3@$0A@@std@@@std@@IAEAAPAU_Node@?$_Tree_nod@V?$_Tmap_traits@KPAVCServerDesc@@U?$less@K@std@@V?$allocator@U?$pair@$$CBKPAVCServerDesc@@@std@@@3@$0A@@std@@@2@XZ 00404ec0 f i DPClient.obj
 0001:00003ed0       ?_Key@?$_Tree@V?$_Tmap_traits@KP8CDPClient@@AEXAAVCAr@@KPAXK@ZU?$less@K@std@@V?$allocator@U?$pair@$$CBKP8CDPClient@@AEXAAVCAr@@KPAXK@Z@std@@@4@$0A@@std@@@std@@KAABKPAU_Node@?$_Tree_nod@V?$_Tmap_traits@KP8CDPClient@@AEXAAVCAr@@KPAXK@ZU?$less@K@std@@V?$allocator@U?$pair@$$CBKP8CDPClient@@AEXAAVCAr@@KPAXK@Z@std@@@4@$0A@@std@@@2@@Z 00404ed0 f i DPClient.obj
 0001:00003ee0       ?_Root@?$_Tree@V?$_Tmap_traits@KP8CDPClient@@AEXAAVCAr@@KPAXK@ZU?$less@K@std@@V?$allocator@U?$pair@$$CBKP8CDPClient@@AEXAAVCAr@@KPAXK@Z@std@@@4@$0A@@std@@@std@@IAEAAPAU_Node@?$_Tree_nod@V?$_Tmap_traits@KP8CDPClient@@AEXAAVCAr@@KPAXK@ZU?$less@K@std@@V?$allocator@U?$pair@$$CBKP8CDPClient@@AEXAAVCAr@@KPAXK@Z@std@@@4@$0A@@std@@@2@XZ 00404ee0 f i DPClient.obj
 0001:00003ef0       ??0iterator@?$_Tree@V?$_Tmap_traits@KP8CDPClient@@AEXAAVCAr@@KPAXK@ZU?$less@K@std@@V?$allocator@U?$pair@$$CBKP8CDPClient@@AEXAAVCAr@@KPAXK@Z@std@@@4@$0A@@std@@@std@@QAE@PAU_Node@?$_Tree_nod@V?$_Tmap_traits@KP8CDPClient@@AEXAAVCAr@@KPAXK@ZU?$less@K@std@@V?$allocator@U?$pair@$$CBKP8CDPClient@@AEXAAVCAr@@KPAXK@Z@std@@@4@$0A@@std@@@2@@Z 00404ef0 f i DPClient.obj
 0001:00003f00       ??Diterator@?$_Tree@V?$_Tmap_traits@KP8CDPClient@@AEXAAVCAr@@KPAXK@ZU?$less@K@std@@V?$allocator@U?$pair@$$CBKP8CDPClient@@AEXAAVCAr@@KPAXK@Z@std@@@4@$0A@@std@@@std@@QBEAAU?$pair@$$CBKP8CDPClient@@AEXAAVCAr@@KPAXK@Z@2@XZ 00404f00 f i DPClient.obj
 0001:00003f10       ??0iterator@?$_Tree@V?$_Tmap_traits@KPAVCServerDesc@@U?$less@K@std@@V?$allocator@U?$pair@$$CBKPAVCServerDesc@@@std@@@3@$0A@@std@@@std@@QAE@PAU_Node@?$_Tree_nod@V?$_Tmap_traits@KPAVCServerDesc@@U?$less@K@std@@V?$allocator@U?$pair@$$CBKPAVCServerDesc@@@std@@@3@$0A@@std@@@2@@Z 00404f10 f i DPClient.obj
 0001:00003f20       ?max_size@?$_Tree@V?$_Tmap_traits@KPAVCServerDesc@@U?$less@K@std@@V?$allocator@U?$pair@$$CBKPAVCServerDesc@@@std@@@3@$0A@@std@@@std@@QBEIXZ 00404f20 f i DPClient.obj
 0001:00003f30       ?_Lbound@?$_Tree@V?$_Tmap_traits@KPAVCServerDesc@@U?$less@K@std@@V?$allocator@U?$pair@$$CBKPAVCServerDesc@@@std@@@3@$0A@@std@@@std@@IBEPAU_Node@?$_Tree_nod@V?$_Tmap_traits@KPAVCServerDesc@@U?$less@K@std@@V?$allocator@U?$pair@$$CBKPAVCServerDesc@@@std@@@3@$0A@@std@@@2@ABK@Z 00404f30 f i DPClient.obj
 0001:00003f60       ?_Lrotate@?$_Tree@V?$_Tmap_traits@KPAVCServerDesc@@U?$less@K@std@@V?$allocator@U?$pair@$$CBKPAVCServerDesc@@@std@@@3@$0A@@std@@@std@@IAEXPAU_Node@?$_Tree_nod@V?$_Tmap_traits@KPAVCServerDesc@@U?$less@K@std@@V?$allocator@U?$pair@$$CBKPAVCServerDesc@@@std@@@3@$0A@@std@@@2@@Z 00404f60 f i DPClient.obj
 0001:00003fc0       ?_Rrotate@?$_Tree@V?$_Tmap_traits@KPAVCServerDesc@@U?$less@K@std@@V?$allocator@U?$pair@$$CBKPAVCServerDesc@@@std@@@3@$0A@@std@@@std@@IAEXPAU_Node@?$_Tree_nod@V?$_Tmap_traits@KPAVCServerDesc@@U?$less@K@std@@V?$allocator@U?$pair@$$CBKPAVCServerDesc@@@std@@@3@$0A@@std@@@2@@Z 00404fc0 f i DPClient.obj
 0001:00004020       ?max_size@?$_Tree@V?$_Tmap_traits@KP8CDPClient@@AEXAAVCAr@@KPAXK@ZU?$less@K@std@@V?$allocator@U?$pair@$$CBKP8CDPClient@@AEXAAVCAr@@KPAXK@Z@std@@@4@$0A@@std@@@std@@QBEIXZ 00405020 f i DPClient.obj
 0001:00004030       ?_Lbound@?$_Tree@V?$_Tmap_traits@KP8CDPClient@@AEXAAVCAr@@KPAXK@ZU?$less@K@std@@V?$allocator@U?$pair@$$CBKP8CDPClient@@AEXAAVCAr@@KPAXK@Z@std@@@4@$0A@@std@@@std@@IBEPAU_Node@?$_Tree_nod@V?$_Tmap_traits@KP8CDPClient@@AEXAAVCAr@@KPAXK@ZU?$less@K@std@@V?$allocator@U?$pair@$$CBKP8CDPClient@@AEXAAVCAr@@KPAXK@Z@std@@@4@$0A@@std@@@2@ABK@Z 00405030 f i DPClient.obj
 0001:00004060       ?_Lrotate@?$_Tree@V?$_Tmap_traits@KP8CDPClient@@AEXAAVCAr@@KPAXK@ZU?$less@K@std@@V?$allocator@U?$pair@$$CBKP8CDPClient@@AEXAAVCAr@@KPAXK@Z@std@@@4@$0A@@std@@@std@@IAEXPAU_Node@?$_Tree_nod@V?$_Tmap_traits@KP8CDPClient@@AEXAAVCAr@@KPAXK@ZU?$less@K@std@@V?$allocator@U?$pair@$$CBKP8CDPClient@@AEXAAVCAr@@KPAXK@Z@std@@@4@$0A@@std@@@2@@Z 00405060 f i DPClient.obj
 0001:000040c0       ?_Rrotate@?$_Tree@V?$_Tmap_traits@KP8CDPClient@@AEXAAVCAr@@KPAXK@ZU?$less@K@std@@V?$allocator@U?$pair@$$CBKP8CDPClient@@AEXAAVCAr@@KPAXK@Z@std@@@4@$0A@@std@@@std@@IAEXPAU_Node@?$_Tree_nod@V?$_Tmap_traits@KP8CDPClient@@AEXAAVCAr@@KPAXK@ZU?$less@K@std@@V?$allocator@U?$pair@$$CBKP8CDPClient@@AEXAAVCAr@@KPAXK@Z@std@@@4@$0A@@std@@@2@@Z 004050c0 f i DPClient.obj
 0001:00004120       ?destroy@?$allocator@PAU_Node@?$_Tree_nod@V?$_Tmap_traits@KP8CDPClient@@AEXAAVCAr@@KPAXK@ZU?$less@K@std@@V?$allocator@U?$pair@$$CBKP8CDPClient@@AEXAAVCAr@@KPAXK@Z@std@@@4@$0A@@std@@@std@@@std@@QAEXPAPAU_Node@?$_Tree_nod@V?$_Tmap_traits@KP8CDPClient@@AEXAAVCAr@@KPAXK@ZU?$less@K@std@@V?$allocator@U?$pair@$$CBKP8CDPClient@@AEXAAVCAr@@KPAXK@Z@std@@@4@$0A@@std@@@2@@Z 00405120 f i DPClient.obj
 0001:00004130       ??Fconst_iterator@?$_Tree@V?$_Tmap_traits@KPAVCServerDesc@@U?$less@K@std@@V?$allocator@U?$pair@$$CBKPAVCServerDesc@@@std@@@3@$0A@@std@@@std@@QAEAAV012@XZ 00405130 f i DPClient.obj
 0001:00004140       ?_Ubound@?$_Tree@V?$_Tmap_traits@KPAVCServerDesc@@U?$less@K@std@@V?$allocator@U?$pair@$$CBKPAVCServerDesc@@@std@@@3@$0A@@std@@@std@@IBEPAU_Node@?$_Tree_nod@V?$_Tmap_traits@KPAVCServerDesc@@U?$less@K@std@@V?$allocator@U?$pair@$$CBKPAVCServerDesc@@@std@@@3@$0A@@std@@@2@ABK@Z 00405140 f i DPClient.obj
 0001:00004170       ?allocate@?$allocator@U_Node@?$_Tree_nod@V?$_Tmap_traits@KPAVCServerDesc@@U?$less@K@std@@V?$allocator@U?$pair@$$CBKPAVCServerDesc@@@std@@@3@$0A@@std@@@std@@@std@@QAEPAU_Node@?$_Tree_nod@V?$_Tmap_traits@KPAVCServerDesc@@U?$less@K@std@@V?$allocator@U?$pair@$$CBKPAVCServerDesc@@@std@@@3@$0A@@std@@@2@I@Z 00405170 f i DPClient.obj
 0001:00004190       ?destroy@?$allocator@U_Node@?$_Tree_nod@V?$_Tmap_traits@KPAVCServerDesc@@U?$less@K@std@@V?$allocator@U?$pair@$$CBKPAVCServerDesc@@@std@@@3@$0A@@std@@@std@@@std@@QAEXPAU_Node@?$_Tree_nod@V?$_Tmap_traits@KPAVCServerDesc@@U?$less@K@std@@V?$allocator@U?$pair@$$CBKPAVCServerDesc@@@std@@@3@$0A@@std@@@2@@Z 00405190 f i DPClient.obj
 0001:000041a0       ?allocate@?$allocator@U_Node@?$_Tree_nod@V?$_Tmap_traits@KP8CDPClient@@AEXAAVCAr@@KPAXK@ZU?$less@K@std@@V?$allocator@U?$pair@$$CBKP8CDPClient@@AEXAAVCAr@@KPAXK@Z@std@@@4@$0A@@std@@@std@@@std@@QAEPAU_Node@?$_Tree_nod@V?$_Tmap_traits@KP8CDPClient@@AEXAAVCAr@@KPAXK@ZU?$less@K@std@@V?$allocator@U?$pair@$$CBKP8CDPClient@@AEXAAVCAr@@KPAXK@Z@std@@@4@$0A@@std@@@2@I@Z 004051a0 f i DPClient.obj
 0001:000041c0       ?_Dec@const_iterator@?$_Tree@V?$_Tmap_traits@KP8CDPClient@@AEXAAVCAr@@KPAXK@ZU?$less@K@std@@V?$allocator@U?$pair@$$CBKP8CDPClient@@AEXAAVCAr@@KPAXK@Z@std@@@4@$0A@@std@@@std@@QAEXXZ 004051c0 f i DPClient.obj
 0001:00004220       ??0?$_Tree_nod@V?$_Tmap_traits@KP8CDPClient@@AEXAAVCAr@@KPAXK@ZU?$less@K@std@@V?$allocator@U?$pair@$$CBKP8CDPClient@@AEXAAVCAr@@KPAXK@Z@std@@@4@$0A@@std@@@std@@IAE@ABU?$less@K@1@V?$allocator@U?$pair@$$CBKP8CDPClient@@AEXAAVCAr@@KPAXK@Z@std@@@1@@Z 00405220 f i DPClient.obj
 0001:00004230       ?destroy@?$allocator@U_Node@?$_Tree_nod@V?$_Tmap_traits@KP8CDPClient@@AEXAAVCAr@@KPAXK@ZU?$less@K@std@@V?$allocator@U?$pair@$$CBKP8CDPClient@@AEXAAVCAr@@KPAXK@Z@std@@@4@$0A@@std@@@std@@@std@@QAEXPAU_Node@?$_Tree_nod@V?$_Tmap_traits@KP8CDPClient@@AEXAAVCAr@@KPAXK@ZU?$less@K@std@@V?$allocator@U?$pair@$$CBKP8CDPClient@@AEXAAVCAr@@KPAXK@Z@std@@@4@$0A@@std@@@2@@Z 00405230 f i DPClient.obj
 0001:00004240       ?construct@?$allocator@PAU_Node@?$_Tree_nod@V?$_Tmap_traits@KP8CDPClient@@AEXAAVCAr@@KPAXK@ZU?$less@K@std@@V?$allocator@U?$pair@$$CBKP8CDPClient@@AEXAAVCAr@@KPAXK@Z@std@@@4@$0A@@std@@@std@@@std@@QAEXPAPAU_Node@?$_Tree_nod@V?$_Tmap_traits@KP8CDPClient@@AEXAAVCAr@@KPAXK@ZU?$less@K@std@@V?$allocator@U?$pair@$$CBKP8CDPClient@@AEXAAVCAr@@KPAXK@Z@std@@@4@$0A@@std@@@2@ABQAU342@@Z 00405240 f i DPClient.obj
 0001:00004260       ??Econst_iterator@?$_Tree@V?$_Tmap_traits@KPAVCServerDesc@@U?$less@K@std@@V?$allocator@U?$pair@$$CBKPAVCServerDesc@@@std@@@3@$0A@@std@@@std@@QAEAAV012@XZ 00405260 f i DPClient.obj
 0001:00004270       ??Econst_iterator@?$_Tree@V?$_Tmap_traits@KP8CDPClient@@AEXAAVCAr@@KPAXK@ZU?$less@K@std@@V?$allocator@U?$pair@$$CBKP8CDPClient@@AEXAAVCAr@@KPAXK@Z@std@@@4@$0A@@std@@@std@@QAEAAV012@XZ 00405270 f i DPClient.obj
 0001:00004280       ?OnQueryDestroyPlayer@CDPClient@@AAEXAAVCAr@@KPAXK@Z 00405280 f   DPClient.obj
 0001:00004420       ??1CDPClientArray@@UAE@XZ  00405420 f   DPClient.obj
 0001:00004480       ?end@?$_Tree@V?$_Tmap_traits@KPAVCServerDesc@@U?$less@K@std@@V?$allocator@U?$pair@$$CBKPAVCServerDesc@@@std@@@3@$0A@@std@@@std@@QAE?AViterator@12@XZ 00405480 f i DPClient.obj
 0001:00004490       ?end@?$_Tree@V?$_Tmap_traits@KP8CDPClient@@AEXAAVCAr@@KPAXK@ZU?$less@K@std@@V?$allocator@U?$pair@$$CBKP8CDPClient@@AEXAAVCAr@@KPAXK@Z@std@@@4@$0A@@std@@@std@@QAE?AViterator@12@XZ 00405490 f i DPClient.obj
 0001:000044a0       ??Citerator@?$_Tree@V?$_Tmap_traits@KP8CDPClient@@AEXAAVCAr@@KPAXK@ZU?$less@K@std@@V?$allocator@U?$pair@$$CBKP8CDPClient@@AEXAAVCAr@@KPAXK@Z@std@@@4@$0A@@std@@@std@@QBEPAU?$pair@$$CBKP8CDPClient@@AEXAAVCAr@@KPAXK@Z@2@XZ 004054a0 f i DPClient.obj
 0001:000044b0       ?begin@?$_Tree@V?$_Tmap_traits@KPAVCServerDesc@@U?$less@K@std@@V?$allocator@U?$pair@$$CBKPAVCServerDesc@@@std@@@3@$0A@@std@@@std@@QAE?AViterator@12@XZ 004054b0 f i DPClient.obj
 0001:000044c0       ?lower_bound@?$_Tree@V?$_Tmap_traits@KPAVCServerDesc@@U?$less@K@std@@V?$allocator@U?$pair@$$CBKPAVCServerDesc@@@std@@@3@$0A@@std@@@std@@QAE?AViterator@12@ABK@Z 004054c0 f i DPClient.obj
 0001:00004500       ?begin@?$_Tree@V?$_Tmap_traits@KP8CDPClient@@AEXAAVCAr@@KPAXK@ZU?$less@K@std@@V?$allocator@U?$pair@$$CBKP8CDPClient@@AEXAAVCAr@@KPAXK@Z@std@@@4@$0A@@std@@@std@@QAE?AViterator@12@XZ 00405500 f i DPClient.obj
 0001:00004510       ?lower_bound@?$_Tree@V?$_Tmap_traits@KP8CDPClient@@AEXAAVCAr@@KPAXK@ZU?$less@K@std@@V?$allocator@U?$pair@$$CBKP8CDPClient@@AEXAAVCAr@@KPAXK@Z@std@@@4@$0A@@std@@@std@@QAE?AViterator@12@ABK@Z 00405510 f i DPClient.obj
 0001:00004550       ??Fiterator@?$_Tree@V?$_Tmap_traits@KPAVCServerDesc@@U?$less@K@std@@V?$allocator@U?$pair@$$CBKPAVCServerDesc@@@std@@@3@$0A@@std@@@std@@QAEAAV012@XZ 00405550 f i DPClient.obj
 0001:00004560       ?upper_bound@?$_Tree@V?$_Tmap_traits@KPAVCServerDesc@@U?$less@K@std@@V?$allocator@U?$pair@$$CBKPAVCServerDesc@@@std@@@3@$0A@@std@@@std@@QAE?AViterator@12@ABK@Z 00405560 f i DPClient.obj
 0001:000045a0       ?_Buynode@?$_Tree@V?$_Tmap_traits@KPAVCServerDesc@@U?$less@K@std@@V?$allocator@U?$pair@$$CBKPAVCServerDesc@@@std@@@3@$0A@@std@@@std@@IAEPAU_Node@?$_Tree_nod@V?$_Tmap_traits@KPAVCServerDesc@@U?$less@K@std@@V?$allocator@U?$pair@$$CBKPAVCServerDesc@@@std@@@3@$0A@@std@@@2@PAU342@00ABU?$pair@$$CBKPAVCServerDesc@@@2@D@Z 004055a0 f i DPClient.obj
 0001:000045e0       ?_Buynode@?$_Tree@V?$_Tmap_traits@KP8CDPClient@@AEXAAVCAr@@KPAXK@ZU?$less@K@std@@V?$allocator@U?$pair@$$CBKP8CDPClient@@AEXAAVCAr@@KPAXK@Z@std@@@4@$0A@@std@@@std@@IAEPAU_Node@?$_Tree_nod@V?$_Tmap_traits@KP8CDPClient@@AEXAAVCAr@@KPAXK@ZU?$less@K@std@@V?$allocator@U?$pair@$$CBKP8CDPClient@@AEXAAVCAr@@KPAXK@Z@std@@@4@$0A@@std@@@2@PAU342@00ABU?$pair@$$CBKP8CDPClient@@AEXAAVCAr@@KPAXK@Z@2@D@Z 004055e0 f i DPClient.obj
 0001:00004620       ??Fconst_iterator@?$_Tree@V?$_Tmap_traits@KP8CDPClient@@AEXAAVCAr@@KPAXK@ZU?$less@K@std@@V?$allocator@U?$pair@$$CBKP8CDPClient@@AEXAAVCAr@@KPAXK@Z@std@@@4@$0A@@std@@@std@@QAEAAV012@XZ 00405620 f i DPClient.obj
 0001:00004630       ?_Erase@?$_Tree@V?$_Tmap_traits@KPAVCServerDesc@@U?$less@K@std@@V?$allocator@U?$pair@$$CBKPAVCServerDesc@@@std@@@3@$0A@@std@@@std@@IAEXPAU_Node@?$_Tree_nod@V?$_Tmap_traits@KPAVCServerDesc@@U?$less@K@std@@V?$allocator@U?$pair@$$CBKPAVCServerDesc@@@std@@@3@$0A@@std@@@2@@Z 00405630 f i DPClient.obj
 0001:00004670       ?_Buynode@?$_Tree@V?$_Tmap_traits@KP8CDPClient@@AEXAAVCAr@@KPAXK@ZU?$less@K@std@@V?$allocator@U?$pair@$$CBKP8CDPClient@@AEXAAVCAr@@KPAXK@Z@std@@@4@$0A@@std@@@std@@IAEPAU_Node@?$_Tree_nod@V?$_Tmap_traits@KP8CDPClient@@AEXAAVCAr@@KPAXK@ZU?$less@K@std@@V?$allocator@U?$pair@$$CBKP8CDPClient@@AEXAAVCAr@@KPAXK@Z@std@@@4@$0A@@std@@@2@XZ 00405670 f i DPClient.obj
 0001:000046b0       ??0?$_Tree_ptr@V?$_Tmap_traits@KP8CDPClient@@AEXAAVCAr@@KPAXK@ZU?$less@K@std@@V?$allocator@U?$pair@$$CBKP8CDPClient@@AEXAAVCAr@@KPAXK@Z@std@@@4@$0A@@std@@@std@@IAE@ABU?$less@K@1@V?$allocator@U?$pair@$$CBKP8CDPClient@@AEXAAVCAr@@KPAXK@Z@std@@@1@@Z 004056b0 f i DPClient.obj
 0001:000046c0       ??Eiterator@?$_Tree@V?$_Tmap_traits@KPAVCServerDesc@@U?$less@K@std@@V?$allocator@U?$pair@$$CBKPAVCServerDesc@@@std@@@3@$0A@@std@@@std@@QAEAAV012@XZ 004056c0 f i DPClient.obj
 0001:000046d0       ?_Erase@?$_Tree@V?$_Tmap_traits@KP8CDPClient@@AEXAAVCAr@@KPAXK@ZU?$less@K@std@@V?$allocator@U?$pair@$$CBKP8CDPClient@@AEXAAVCAr@@KPAXK@Z@std@@@4@$0A@@std@@@std@@IAEXPAU_Node@?$_Tree_nod@V?$_Tmap_traits@KP8CDPClient@@AEXAAVCAr@@KPAXK@ZU?$less@K@std@@V?$allocator@U?$pair@$$CBKP8CDPClient@@AEXAAVCAr@@KPAXK@Z@std@@@4@$0A@@std@@@2@@Z 004056d0 f i DPClient.obj
 0001:00004710       ??Eiterator@?$_Tree@V?$_Tmap_traits@KP8CDPClient@@AEXAAVCAr@@KPAXK@ZU?$less@K@std@@V?$allocator@U?$pair@$$CBKP8CDPClient@@AEXAAVCAr@@KPAXK@Z@std@@@4@$0A@@std@@@std@@QAEAAV012@XZ 00405710 f i DPClient.obj
 0001:00004720       ??$_Distance2@Viterator@?$_Tree@V?$_Tmap_traits@KPAVCServerDesc@@U?$less@K@std@@V?$allocator@U?$pair@$$CBKPAVCServerDesc@@@std@@@3@$0A@@std@@@std@@I@std@@YAXViterator@?$_Tree@V?$_Tmap_traits@KPAVCServerDesc@@U?$less@K@std@@V?$allocator@U?$pair@$$CBKPAVCServerDesc@@@std@@@3@$0A@@std@@@0@0AAIUbidirectional_iterator_tag@0@@Z 00405720 f i DPClient.obj
 0001:00004750       ??_GCDPClientArray@@UAEPAXI@Z 00405750 f i DPClient.obj
 0001:00004750       ??_ECDPClientArray@@UAEPAXI@Z 00405750 f i DPClient.obj
 0001:00004770       ?find@?$_Tree@V?$_Tmap_traits@KPAVCServerDesc@@U?$less@K@std@@V?$allocator@U?$pair@$$CBKPAVCServerDesc@@@std@@@3@$0A@@std@@@std@@QAE?AViterator@12@ABK@Z 00405770 f i DPClient.obj
 0001:000047e0       ?find@?$_Tree@V?$_Tmap_traits@KP8CDPClient@@AEXAAVCAr@@KPAXK@ZU?$less@K@std@@V?$allocator@U?$pair@$$CBKP8CDPClient@@AEXAAVCAr@@KPAXK@Z@std@@@4@$0A@@std@@@std@@QAE?AViterator@12@ABK@Z 004057e0 f i DPClient.obj
 0001:00004850       ?equal_range@?$_Tree@V?$_Tmap_traits@KPAVCServerDesc@@U?$less@K@std@@V?$allocator@U?$pair@$$CBKPAVCServerDesc@@@std@@@3@$0A@@std@@@std@@QAE?AU?$pair@Viterator@?$_Tree@V?$_Tmap_traits@KPAVCServerDesc@@U?$less@K@std@@V?$allocator@U?$pair@$$CBKPAVCServerDesc@@@std@@@3@$0A@@std@@@std@@V123@@2@ABK@Z 00405850 f i DPClient.obj
 0001:000048c0       ??Fiterator@?$_Tree@V?$_Tmap_traits@KP8CDPClient@@AEXAAVCAr@@KPAXK@ZU?$less@K@std@@V?$allocator@U?$pair@$$CBKP8CDPClient@@AEXAAVCAr@@KPAXK@Z@std@@@4@$0A@@std@@@std@@QAEAAV012@XZ 004058c0 f i DPClient.obj
 0001:000048d0       ?clear@?$_Tree@V?$_Tmap_traits@KPAVCServerDesc@@U?$less@K@std@@V?$allocator@U?$pair@$$CBKPAVCServerDesc@@@std@@@3@$0A@@std@@@std@@QAEXXZ 004058d0 f i DPClient.obj
 0001:00004900       ?_Init@?$_Tree@V?$_Tmap_traits@KP8CDPClient@@AEXAAVCAr@@KPAXK@ZU?$less@K@std@@V?$allocator@U?$pair@$$CBKP8CDPClient@@AEXAAVCAr@@KPAXK@Z@std@@@4@$0A@@std@@@std@@IAEXXZ 00405900 f i DPClient.obj
 0001:00004930       ??0?$_Tree_val@V?$_Tmap_traits@KP8CDPClient@@AEXAAVCAr@@KPAXK@ZU?$less@K@std@@V?$allocator@U?$pair@$$CBKP8CDPClient@@AEXAAVCAr@@KPAXK@Z@std@@@4@$0A@@std@@@std@@IAE@ABU?$less@K@1@V?$allocator@U?$pair@$$CBKP8CDPClient@@AEXAAVCAr@@KPAXK@Z@std@@@1@@Z 00405930 f i DPClient.obj
 0001:00004940       ??Eiterator@?$_Tree@V?$_Tmap_traits@KPAVCServerDesc@@U?$less@K@std@@V?$allocator@U?$pair@$$CBKPAVCServerDesc@@@std@@@3@$0A@@std@@@std@@QAE?AV012@H@Z 00405940 f i DPClient.obj
 0001:00004960       ?clear@?$_Tree@V?$_Tmap_traits@KP8CDPClient@@AEXAAVCAr@@KPAXK@ZU?$less@K@std@@V?$allocator@U?$pair@$$CBKP8CDPClient@@AEXAAVCAr@@KPAXK@Z@std@@@4@$0A@@std@@@std@@QAEXXZ 00405960 f i DPClient.obj
 0001:00004990       ??Eiterator@?$_Tree@V?$_Tmap_traits@KP8CDPClient@@AEXAAVCAr@@KPAXK@ZU?$less@K@std@@V?$allocator@U?$pair@$$CBKP8CDPClient@@AEXAAVCAr@@KPAXK@Z@std@@@4@$0A@@std@@@std@@QAE?AV012@H@Z 00405990 f i DPClient.obj
 0001:000049b0       ??$_Distance@Viterator@?$_Tree@V?$_Tmap_traits@KPAVCServerDesc@@U?$less@K@std@@V?$allocator@U?$pair@$$CBKPAVCServerDesc@@@std@@@3@$0A@@std@@@std@@I@std@@YAXViterator@?$_Tree@V?$_Tmap_traits@KPAVCServerDesc@@U?$less@K@std@@V?$allocator@U?$pair@$$CBKPAVCServerDesc@@@std@@@3@$0A@@std@@@0@0AAI@Z 004059b0 f i DPClient.obj
 0001:000049f0       ?GetHandler@CDPClient@@AAEP81@AEXAAVCAr@@KPAXK@ZK@Z 004059f0 f i DPClient.obj
 0001:00004a20       ?UserMessageHandler@CDPClient@@UAEXPAUDPMSG_GENERIC@@KK@Z 00405a20 f   DPClient.obj
 0001:00004b40       ??0?$_Tree@V?$_Tmap_traits@KP8CDPClient@@AEXAAVCAr@@KPAXK@ZU?$less@K@std@@V?$allocator@U?$pair@$$CBKP8CDPClient@@AEXAAVCAr@@KPAXK@Z@std@@@4@$0A@@std@@@std@@QAE@ABU?$less@K@1@ABV?$allocator@U?$pair@$$CBKP8CDPClient@@AEXAAVCAr@@KPAXK@Z@std@@@1@@Z 00405b40 f i DPClient.obj
 0001:00004b70       ?_Insert@?$_Tree@V?$_Tmap_traits@KPAVCServerDesc@@U?$less@K@std@@V?$allocator@U?$pair@$$CBKPAVCServerDesc@@@std@@@3@$0A@@std@@@std@@IAE?AViterator@12@_NPAU_Node@?$_Tree_nod@V?$_Tmap_traits@KPAVCServerDesc@@U?$less@K@std@@V?$allocator@U?$pair@$$CBKPAVCServerDesc@@@std@@@3@$0A@@std@@@2@ABU?$pair@$$CBKPAVCServerDesc@@@2@@Z 00405b70 f i DPClient.obj
 0001:00004d20       ?_Insert@?$_Tree@V?$_Tmap_traits@KP8CDPClient@@AEXAAVCAr@@KPAXK@ZU?$less@K@std@@V?$allocator@U?$pair@$$CBKP8CDPClient@@AEXAAVCAr@@KPAXK@Z@std@@@4@$0A@@std@@@std@@IAE?AViterator@12@_NPAU_Node@?$_Tree_nod@V?$_Tmap_traits@KP8CDPClient@@AEXAAVCAr@@KPAXK@ZU?$less@K@std@@V?$allocator@U?$pair@$$CBKP8CDPClient@@AEXAAVCAr@@KPAXK@Z@std@@@4@$0A@@std@@@2@ABU?$pair@$$CBKP8CDPClient@@AEXAAVCAr@@KPAXK@Z@2@@Z 00405d20 f i DPClient.obj
 0001:00004ed0       ?erase@?$_Tree@V?$_Tmap_traits@KPAVCServerDesc@@U?$less@K@std@@V?$allocator@U?$pair@$$CBKPAVCServerDesc@@@std@@@3@$0A@@std@@@std@@QAE?AViterator@12@V312@@Z 00405ed0 f i DPClient.obj
 0001:00005190       ?erase@?$_Tree@V?$_Tmap_traits@KP8CDPClient@@AEXAAVCAr@@KPAXK@ZU?$less@K@std@@V?$allocator@U?$pair@$$CBKP8CDPClient@@AEXAAVCAr@@KPAXK@Z@std@@@4@$0A@@std@@@std@@QAE?AViterator@12@V312@@Z 00406190 f i DPClient.obj
 0001:00005450       ?insert@?$_Tree@V?$_Tmap_traits@KPAVCServerDesc@@U?$less@K@std@@V?$allocator@U?$pair@$$CBKPAVCServerDesc@@@std@@@3@$0A@@std@@@std@@QAE?AU?$pair@Viterator@?$_Tree@V?$_Tmap_traits@KPAVCServerDesc@@U?$less@K@std@@V?$allocator@U?$pair@$$CBKPAVCServerDesc@@@std@@@3@$0A@@std@@@std@@_N@2@ABU?$pair@$$CBKPAVCServerDesc@@@2@@Z 00406450 f i DPClient.obj
 0001:00005510       ?insert@?$_Tree@V?$_Tmap_traits@KP8CDPClient@@AEXAAVCAr@@KPAXK@ZU?$less@K@std@@V?$allocator@U?$pair@$$CBKP8CDPClient@@AEXAAVCAr@@KPAXK@Z@std@@@4@$0A@@std@@@std@@QAE?AU?$pair@Viterator@?$_Tree@V?$_Tmap_traits@KP8CDPClient@@AEXAAVCAr@@KPAXK@ZU?$less@K@std@@V?$allocator@U?$pair@$$CBKP8CDPClient@@AEXAAVCAr@@KPAXK@Z@std@@@4@$0A@@std@@@std@@_N@2@ABU?$pair@$$CBKP8CDPClient@@AEXAAVCAr@@KPAXK@Z@2@@Z 00406510 f i DPClient.obj
 0001:000055d0       ?erase@?$_Tree@V?$_Tmap_traits@KPAVCServerDesc@@U?$less@K@std@@V?$allocator@U?$pair@$$CBKPAVCServerDesc@@@std@@@3@$0A@@std@@@std@@QAE?AViterator@12@V312@0@Z 004065d0 f i DPClient.obj
 0001:00005690       ?erase@?$_Tree@V?$_Tmap_traits@KP8CDPClient@@AEXAAVCAr@@KPAXK@ZU?$less@K@std@@V?$allocator@U?$pair@$$CBKP8CDPClient@@AEXAAVCAr@@KPAXK@Z@std@@@4@$0A@@std@@@std@@QAE?AViterator@12@V312@0@Z 00406690 f i DPClient.obj
 0001:00005750       ?erase@?$_Tree@V?$_Tmap_traits@KPAVCServerDesc@@U?$less@K@std@@V?$allocator@U?$pair@$$CBKPAVCServerDesc@@@std@@@3@$0A@@std@@@std@@QAEIABK@Z 00406750 f i DPClient.obj
 0001:000057b0       ?_Tidy@?$_Tree@V?$_Tmap_traits@KP8CDPClient@@AEXAAVCAr@@KPAXK@ZU?$less@K@std@@V?$allocator@U?$pair@$$CBKP8CDPClient@@AEXAAVCAr@@KPAXK@Z@std@@@4@$0A@@std@@@std@@IAEXXZ 004067b0 f i DPClient.obj
 0001:000057e0       ?Remove@CDPClientArray@@QAEHPAVCDPClient@@@Z 004067e0 f   DPClient.obj
 0001:00005910       ??1?$_Tree@V?$_Tmap_traits@KP8CDPClient@@AEXAAVCAr@@KPAXK@ZU?$less@K@std@@V?$allocator@U?$pair@$$CBKP8CDPClient@@AEXAAVCAr@@KPAXK@Z@std@@@4@$0A@@std@@@std@@QAE@XZ 00406910 f i DPClient.obj
 0001:00005940       ??1?$map@KP8CDPClient@@AEXAAVCAr@@KPAXK@ZU?$less@K@std@@V?$allocator@U?$pair@$$CBKP8CDPClient@@AEXAAVCAr@@KPAXK@Z@std@@@4@@std@@QAE@XZ 00406940 f i DPClient.obj
 0001:00005970       ??1CDPClient@@UAE@XZ       00406970 f   DPClient.obj
 0001:000059f0       ?SysMessageHandler@CDPClient@@UAEXPAUDPMSG_GENERIC@@KK@Z 004069f0 f   DPClient.obj
 0001:00005a10       ??0?$map@KP8CDPClient@@AEXAAVCAr@@KPAXK@ZU?$less@K@std@@V?$allocator@U?$pair@$$CBKP8CDPClient@@AEXAAVCAr@@KPAXK@Z@std@@@4@@std@@QAE@XZ 00406a10 f i DPClient.obj
 0001:00005a40       ??0CDPClient@@QAE@XZ       00406a40 f   DPClient.obj
 0001:00005ae0       ??_ECDPClient@@UAEPAXI@Z   00406ae0 f i DPClient.obj
 0001:00005ae0       ??_GCDPClient@@UAEPAXI@Z   00406ae0 f i DPClient.obj
 0001:00005b00       ?Connect@CDPClientArray@@QAEHPAVCServerDesc@@@Z 00406b00 f   DPClient.obj
 0001:00005c80       ??5CAr@@QAEAAV0@AAE@Z      00406c80 f i DPCoreClient.obj
 0001:00005cb0       ??5CAr@@QAEAAV0@AAG@Z      00406cb0 f i DPCoreClient.obj
 0001:00005cf0       ?GetPlayer@CPlayer@@QAEPBDXZ 00406cf0 f i DPCoreClient.obj
 0001:00005d00       ?SetClient@CPlayer@@QAEXPAVCDPClient@@@Z 00406d00 f i DPCoreClient.obj
 0001:00005d10       ?GetWorld@CPlayer@@QAEKXZ  00406d10 f i DPCoreClient.obj
 0001:00005d20       ?GetChannel@CPlayer@@QAEKXZ 00406d20 f i DPCoreClient.obj
 0001:00005d30       ?GetParty@CPlayer@@QAEKXZ  00406d30 f i DPCoreClient.obj
 0001:00005d40       ?GetGuild@CPlayer@@QAEKXZ  00406d40 f i DPCoreClient.obj
 0001:00005d50       ?GetWar@CPlayer@@QAEKXZ    00406d50 f i DPCoreClient.obj
 0001:00005d60       ?SysMessageHandler@CDPCoreClient@@UAEXPAUDPMSG_GENERIC@@KK@Z 00406d60 f   DPCoreClient.obj
 0001:00005d90       ?SendDestroyPlayer@CDPCoreClient@@QAEXPAVCPlayer@@@Z 00406d90 f   DPCoreClient.obj
 0001:00005e80       ?SendAddPlayer@CDPCoreClient@@QAEXPAVCPlayer@@AAVCRTMessenger@@@Z 00406e80 f   DPCoreClient.obj
 0001:00006080       ?OnProcServer@CDPCoreClient@@IAEXAAVCAr@@K@Z 00407080 f   DPCoreClient.obj
 0001:00006100       ?OnDestroyAllPlayers@CDPCoreClient@@IAEXAAVCAr@@K@Z 00407100 f   DPCoreClient.obj
 0001:00006120       ?OnKillPlayer@CDPCoreClient@@IAEXAAVCAr@@K@Z 00407120 f   DPCoreClient.obj
 0001:00006140       ?SendToServer@CDPCoreClient@@QAEXKPAXK@Z 00407140 f   DPCoreClient.obj
 0001:00006180       ??0?$pair@$$CBKP8CDPCoreClient@@AEXAAVCAr@@K@Z@std@@QAE@ABKABQ8CDPCoreClient@@AEXAAVCAr@@K@Z@Z 00407180 f i DPCoreClient.obj
 0001:000061a0       ?_Isnil@?$_Tree@V?$_Tmap_traits@KP8CDPCoreClient@@AEXAAVCAr@@K@ZU?$less@K@std@@V?$allocator@U?$pair@$$CBKP8CDPCoreClient@@AEXAAVCAr@@K@Z@std@@@4@$0A@@std@@@std@@KAAADPAU_Node@?$_Tree_nod@V?$_Tmap_traits@KP8CDPCoreClient@@AEXAAVCAr@@K@ZU?$less@K@std@@V?$allocator@U?$pair@$$CBKP8CDPCoreClient@@AEXAAVCAr@@K@Z@std@@@4@$0A@@std@@@2@@Z 004071a0 f i DPCoreClient.obj
 0001:000061b0       ?_Left@?$_Tree@V?$_Tmap_traits@KP8CDPCoreClient@@AEXAAVCAr@@K@ZU?$less@K@std@@V?$allocator@U?$pair@$$CBKP8CDPCoreClient@@AEXAAVCAr@@K@Z@std@@@4@$0A@@std@@@std@@KAAAPAU_Node@?$_Tree_nod@V?$_Tmap_traits@KP8CDPCoreClient@@AEXAAVCAr@@K@ZU?$less@K@std@@V?$allocator@U?$pair@$$CBKP8CDPCoreClient@@AEXAAVCAr@@K@Z@std@@@4@$0A@@std@@@2@PAU342@@Z 004071b0 f i DPCoreClient.obj
 0001:000061c0       ?_Right@?$_Tree@V?$_Tmap_traits@KP8CDPCoreClient@@AEXAAVCAr@@K@ZU?$less@K@std@@V?$allocator@U?$pair@$$CBKP8CDPCoreClient@@AEXAAVCAr@@K@Z@std@@@4@$0A@@std@@@std@@KAAAPAU_Node@?$_Tree_nod@V?$_Tmap_traits@KP8CDPCoreClient@@AEXAAVCAr@@K@ZU?$less@K@std@@V?$allocator@U?$pair@$$CBKP8CDPCoreClient@@AEXAAVCAr@@K@Z@std@@@4@$0A@@std@@@2@PAU342@@Z 004071c0 f i DPCoreClient.obj
 0001:000061d0       ?_Kfn@?$_Tmap_traits@KP8CDPCoreClient@@AEXAAVCAr@@K@ZU?$less@K@std@@V?$allocator@U?$pair@$$CBKP8CDPCoreClient@@AEXAAVCAr@@K@Z@std@@@4@$0A@@std@@SAABKABU?$pair@$$CBKP8CDPCoreClient@@AEXAAVCAr@@K@Z@2@@Z 004071d0 f i DPCoreClient.obj
 0001:000061e0       ??0?$allocator@U?$pair@$$CBKP8CDPCoreClient@@AEXAAVCAr@@K@Z@std@@@std@@QAE@XZ 004071e0 f i DPCoreClient.obj
 0001:000061f0       ??8const_iterator@?$_Tree@V?$_Tmap_traits@KP8CDPCoreClient@@AEXAAVCAr@@K@ZU?$less@K@std@@V?$allocator@U?$pair@$$CBKP8CDPCoreClient@@AEXAAVCAr@@K@Z@std@@@4@$0A@@std@@@std@@QBE_NABV012@@Z 004071f0 f i DPCoreClient.obj
 0001:00006200       ?_Mynode@const_iterator@?$_Tree@V?$_Tmap_traits@KP8CDPCoreClient@@AEXAAVCAr@@K@ZU?$less@K@std@@V?$allocator@U?$pair@$$CBKP8CDPCoreClient@@AEXAAVCAr@@K@Z@std@@@4@$0A@@std@@@std@@QBEPAU_Node@?$_Tree_nod@V?$_Tmap_traits@KP8CDPCoreClient@@AEXAAVCAr@@K@ZU?$less@K@std@@V?$allocator@U?$pair@$$CBKP8CDPCoreClient@@AEXAAVCAr@@K@Z@std@@@4@$0A@@std@@@3@XZ 00407200 f i DPCoreClient.obj
 0001:00006210       ??0?$pair@Viterator@?$_Tree@V?$_Tmap_traits@KP8CDPCoreClient@@AEXAAVCAr@@K@ZU?$less@K@std@@V?$allocator@U?$pair@$$CBKP8CDPCoreClient@@AEXAAVCAr@@K@Z@std@@@4@$0A@@std@@@std@@_N@std@@QAE@ABViterator@?$_Tree@V?$_Tmap_traits@KP8CDPCoreClient@@AEXAAVCAr@@K@ZU?$less@K@std@@V?$allocator@U?$pair@$$CBKP8CDPCoreClient@@AEXAAVCAr@@K@Z@std@@@4@$0A@@std@@@1@AB_N@Z 00407210 f i DPCoreClient.obj
 0001:00006230       ?_Color@?$_Tree@V?$_Tmap_traits@KP8CDPCoreClient@@AEXAAVCAr@@K@ZU?$less@K@std@@V?$allocator@U?$pair@$$CBKP8CDPCoreClient@@AEXAAVCAr@@K@Z@std@@@4@$0A@@std@@@std@@KAAADPAU_Node@?$_Tree_nod@V?$_Tmap_traits@KP8CDPCoreClient@@AEXAAVCAr@@K@ZU?$less@K@std@@V?$allocator@U?$pair@$$CBKP8CDPCoreClient@@AEXAAVCAr@@K@Z@std@@@4@$0A@@std@@@2@@Z 00407230 f i DPCoreClient.obj
 0001:00006240       ?_Parent@?$_Tree@V?$_Tmap_traits@KP8CDPCoreClient@@AEXAAVCAr@@K@ZU?$less@K@std@@V?$allocator@U?$pair@$$CBKP8CDPCoreClient@@AEXAAVCAr@@K@Z@std@@@4@$0A@@std@@@std@@KAAAPAU_Node@?$_Tree_nod@V?$_Tmap_traits@KP8CDPCoreClient@@AEXAAVCAr@@K@ZU?$less@K@std@@V?$allocator@U?$pair@$$CBKP8CDPCoreClient@@AEXAAVCAr@@K@Z@std@@@4@$0A@@std@@@2@PAU342@@Z 00407240 f i DPCoreClient.obj
 0001:00006250       ?_Myval@?$_Tree@V?$_Tmap_traits@KP8CDPCoreClient@@AEXAAVCAr@@K@ZU?$less@K@std@@V?$allocator@U?$pair@$$CBKP8CDPCoreClient@@AEXAAVCAr@@K@Z@std@@@4@$0A@@std@@@std@@KAAAU?$pair@$$CBKP8CDPCoreClient@@AEXAAVCAr@@K@Z@2@PAU_Node@?$_Tree_nod@V?$_Tmap_traits@KP8CDPCoreClient@@AEXAAVCAr@@K@ZU?$less@K@std@@V?$allocator@U?$pair@$$CBKP8CDPCoreClient@@AEXAAVCAr@@K@Z@std@@@4@$0A@@std@@@2@@Z 00407250 f i DPCoreClient.obj
 0001:00006260       ?_Lmost@?$_Tree@V?$_Tmap_traits@KP8CDPCoreClient@@AEXAAVCAr@@K@ZU?$less@K@std@@V?$allocator@U?$pair@$$CBKP8CDPCoreClient@@AEXAAVCAr@@K@Z@std@@@4@$0A@@std@@@std@@IAEAAPAU_Node@?$_Tree_nod@V?$_Tmap_traits@KP8CDPCoreClient@@AEXAAVCAr@@K@ZU?$less@K@std@@V?$allocator@U?$pair@$$CBKP8CDPCoreClient@@AEXAAVCAr@@K@Z@std@@@4@$0A@@std@@@2@XZ 00407260 f i DPCoreClient.obj
 0001:00006270       ?_Rmost@?$_Tree@V?$_Tmap_traits@KP8CDPCoreClient@@AEXAAVCAr@@K@ZU?$less@K@std@@V?$allocator@U?$pair@$$CBKP8CDPCoreClient@@AEXAAVCAr@@K@Z@std@@@4@$0A@@std@@@std@@IAEAAPAU_Node@?$_Tree_nod@V?$_Tmap_traits@KP8CDPCoreClient@@AEXAAVCAr@@K@ZU?$less@K@std@@V?$allocator@U?$pair@$$CBKP8CDPCoreClient@@AEXAAVCAr@@K@Z@std@@@4@$0A@@std@@@2@XZ 00407270 f i DPCoreClient.obj
 0001:00006280       ??0?$allocator@U?$pair@$$CBKP8CDPCoreClient@@AEXAAVCAr@@K@Z@std@@@std@@QAE@ABV01@@Z 00407280 f i DPCoreClient.obj
 0001:00006290       ?deallocate@?$allocator@U_Node@?$_Tree_nod@V?$_Tmap_traits@KP8CDPCoreClient@@AEXAAVCAr@@K@ZU?$less@K@std@@V?$allocator@U?$pair@$$CBKP8CDPCoreClient@@AEXAAVCAr@@K@Z@std@@@4@$0A@@std@@@std@@@std@@QAEXPAU_Node@?$_Tree_nod@V?$_Tmap_traits@KP8CDPCoreClient@@AEXAAVCAr@@K@ZU?$less@K@std@@V?$allocator@U?$pair@$$CBKP8CDPCoreClient@@AEXAAVCAr@@K@Z@std@@@4@$0A@@std@@@2@I@Z 00407290 f i DPCoreClient.obj
 0001:000062a0       ??0const_iterator@?$_Tree@V?$_Tmap_traits@KP8CDPCoreClient@@AEXAAVCAr@@K@ZU?$less@K@std@@V?$allocator@U?$pair@$$CBKP8CDPCoreClient@@AEXAAVCAr@@K@Z@std@@@4@$0A@@std@@@std@@QAE@PAU_Node@?$_Tree_nod@V?$_Tmap_traits@KP8CDPCoreClient@@AEXAAVCAr@@K@ZU?$less@K@std@@V?$allocator@U?$pair@$$CBKP8CDPCoreClient@@AEXAAVCAr@@K@Z@std@@@4@$0A@@std@@@2@@Z 004072a0 f i DPCoreClient.obj
 0001:000062b0       ??Dconst_iterator@?$_Tree@V?$_Tmap_traits@KP8CDPCoreClient@@AEXAAVCAr@@K@ZU?$less@K@std@@V?$allocator@U?$pair@$$CBKP8CDPCoreClient@@AEXAAVCAr@@K@Z@std@@@4@$0A@@std@@@std@@QBEABU?$pair@$$CBKP8CDPCoreClient@@AEXAAVCAr@@K@Z@2@XZ 004072b0 f i DPCoreClient.obj
 0001:000062c0       ?_Root@?$_Tree@V?$_Tmap_traits@KP8CDPCoreClient@@AEXAAVCAr@@K@ZU?$less@K@std@@V?$allocator@U?$pair@$$CBKP8CDPCoreClient@@AEXAAVCAr@@K@Z@std@@@4@$0A@@std@@@std@@IBEAAPAU_Node@?$_Tree_nod@V?$_Tmap_traits@KP8CDPCoreClient@@AEXAAVCAr@@K@ZU?$less@K@std@@V?$allocator@U?$pair@$$CBKP8CDPCoreClient@@AEXAAVCAr@@K@Z@std@@@4@$0A@@std@@@2@XZ 004072c0 f i DPCoreClient.obj
 0001:000062d0       ?max_size@?$allocator@U?$pair@$$CBKP8CDPCoreClient@@AEXAAVCAr@@K@Z@std@@@std@@QBEIXZ 004072d0 f i DPCoreClient.obj
 0001:000062e0       ??0_Node@?$_Tree_nod@V?$_Tmap_traits@KP8CDPCoreClient@@AEXAAVCAr@@K@ZU?$less@K@std@@V?$allocator@U?$pair@$$CBKP8CDPCoreClient@@AEXAAVCAr@@K@Z@std@@@4@$0A@@std@@@std@@QAE@PAU012@00ABU?$pair@$$CBKP8CDPCoreClient@@AEXAAVCAr@@K@Z@2@D@Z 004072e0 f i DPCoreClient.obj
 0001:00006320       ?_Max@?$_Tree@V?$_Tmap_traits@KP8CDPCoreClient@@AEXAAVCAr@@K@ZU?$less@K@std@@V?$allocator@U?$pair@$$CBKP8CDPCoreClient@@AEXAAVCAr@@K@Z@std@@@4@$0A@@std@@@std@@KAPAU_Node@?$_Tree_nod@V?$_Tmap_traits@KP8CDPCoreClient@@AEXAAVCAr@@K@ZU?$less@K@std@@V?$allocator@U?$pair@$$CBKP8CDPCoreClient@@AEXAAVCAr@@K@Z@std@@@4@$0A@@std@@@2@PAU342@@Z 00407320 f i DPCoreClient.obj
 0001:00006340       ?_Min@?$_Tree@V?$_Tmap_traits@KP8CDPCoreClient@@AEXAAVCAr@@K@ZU?$less@K@std@@V?$allocator@U?$pair@$$CBKP8CDPCoreClient@@AEXAAVCAr@@K@Z@std@@@4@$0A@@std@@@std@@KAPAU_Node@?$_Tree_nod@V?$_Tmap_traits@KP8CDPCoreClient@@AEXAAVCAr@@K@ZU?$less@K@std@@V?$allocator@U?$pair@$$CBKP8CDPCoreClient@@AEXAAVCAr@@K@Z@std@@@4@$0A@@std@@@2@PAU342@@Z 00407340 f i DPCoreClient.obj
 0001:00006360       ??0?$_Tmap_traits@KP8CDPCoreClient@@AEXAAVCAr@@K@ZU?$less@K@std@@V?$allocator@U?$pair@$$CBKP8CDPCoreClient@@AEXAAVCAr@@K@Z@std@@@4@$0A@@std@@QAE@U?$less@K@1@@Z 00407360 f i DPCoreClient.obj
 0001:00006370       ?_Inc@const_iterator@?$_Tree@V?$_Tmap_traits@KP8CDPCoreClient@@AEXAAVCAr@@K@ZU?$less@K@std@@V?$allocator@U?$pair@$$CBKP8CDPCoreClient@@AEXAAVCAr@@K@Z@std@@@4@$0A@@std@@@std@@QAEXXZ 00407370 f i DPCoreClient.obj
 0001:000063d0       ??$_Destroy@PAU_Node@?$_Tree_nod@V?$_Tmap_traits@KP8CDPCoreClient@@AEXAAVCAr@@K@ZU?$less@K@std@@V?$allocator@U?$pair@$$CBKP8CDPCoreClient@@AEXAAVCAr@@K@Z@std@@@4@$0A@@std@@@std@@@std@@YAXPAPAU_Node@?$_Tree_nod@V?$_Tmap_traits@KP8CDPCoreClient@@AEXAAVCAr@@K@ZU?$less@K@std@@V?$allocator@U?$pair@$$CBKP8CDPCoreClient@@AEXAAVCAr@@K@Z@std@@@4@$0A@@std@@@0@@Z 004073d0 f i DPCoreClient.obj
 0001:000063e0       ??$?0U?$pair@$$CBKP8CDPCoreClient@@AEXAAVCAr@@K@Z@std@@@?$allocator@PAU_Node@?$_Tree_nod@V?$_Tmap_traits@KP8CDPCoreClient@@AEXAAVCAr@@K@ZU?$less@K@std@@V?$allocator@U?$pair@$$CBKP8CDPCoreClient@@AEXAAVCAr@@K@Z@std@@@4@$0A@@std@@@std@@@std@@QAE@ABV?$allocator@U?$pair@$$CBKP8CDPCoreClient@@AEXAAVCAr@@K@Z@std@@@1@@Z 004073e0 f i DPCoreClient.obj
 0001:000063f0       ??$_Allocate@U_Node@?$_Tree_nod@V?$_Tmap_traits@KP8CDPCoreClient@@AEXAAVCAr@@K@ZU?$less@K@std@@V?$allocator@U?$pair@$$CBKP8CDPCoreClient@@AEXAAVCAr@@K@Z@std@@@4@$0A@@std@@@std@@@std@@YAPAU_Node@?$_Tree_nod@V?$_Tmap_traits@KP8CDPCoreClient@@AEXAAVCAr@@K@ZU?$less@K@std@@V?$allocator@U?$pair@$$CBKP8CDPCoreClient@@AEXAAVCAr@@K@Z@std@@@4@$0A@@std@@@0@IPAU120@@Z 004073f0 f i DPCoreClient.obj
 0001:00006410       ??$?0U?$pair@$$CBKP8CDPCoreClient@@AEXAAVCAr@@K@Z@std@@@?$allocator@U_Node@?$_Tree_nod@V?$_Tmap_traits@KP8CDPCoreClient@@AEXAAVCAr@@K@ZU?$less@K@std@@V?$allocator@U?$pair@$$CBKP8CDPCoreClient@@AEXAAVCAr@@K@Z@std@@@4@$0A@@std@@@std@@@std@@QAE@ABV?$allocator@U?$pair@$$CBKP8CDPCoreClient@@AEXAAVCAr@@K@Z@std@@@1@@Z 00407410 f i DPCoreClient.obj
 0001:00006420       ??$_Destroy@U_Node@?$_Tree_nod@V?$_Tmap_traits@KP8CDPCoreClient@@AEXAAVCAr@@K@ZU?$less@K@std@@V?$allocator@U?$pair@$$CBKP8CDPCoreClient@@AEXAAVCAr@@K@Z@std@@@4@$0A@@std@@@std@@@std@@YAXPAU_Node@?$_Tree_nod@V?$_Tmap_traits@KP8CDPCoreClient@@AEXAAVCAr@@K@ZU?$less@K@std@@V?$allocator@U?$pair@$$CBKP8CDPCoreClient@@AEXAAVCAr@@K@Z@std@@@4@$0A@@std@@@0@@Z 00407420 f i DPCoreClient.obj
 0001:00006430       ??$_Construct@PAU_Node@?$_Tree_nod@V?$_Tmap_traits@KP8CDPCoreClient@@AEXAAVCAr@@K@ZU?$less@K@std@@V?$allocator@U?$pair@$$CBKP8CDPCoreClient@@AEXAAVCAr@@K@Z@std@@@4@$0A@@std@@@std@@PAU123@@std@@YAXPAPAU_Node@?$_Tree_nod@V?$_Tmap_traits@KP8CDPCoreClient@@AEXAAVCAr@@K@ZU?$less@K@std@@V?$allocator@U?$pair@$$CBKP8CDPCoreClient@@AEXAAVCAr@@K@Z@std@@@4@$0A@@std@@@0@ABQAU120@@Z 00407430 f i DPCoreClient.obj
 0001:00006450       ??0D3DXVECTOR3@@QAE@MMM@Z  00407450 f i DPCoreClient.obj
 0001:00006470       ??5CAr@@QAEAAV0@AAF@Z      00407470 f i DPCoreClient.obj
 0001:000064b0       ?OnProcServerList@CDPCoreClient@@IAEXAAVCAr@@K@Z 004074b0 f   DPCoreClient.obj
 0001:00006570       ?OnJoin@CDPCoreClient@@IAEXAAVCAr@@K@Z 00407570 f   DPCoreClient.obj
 0001:00006690       ?OnLeave@CDPCoreClient@@IAEXAAVCAr@@K@Z 00407690 f   DPCoreClient.obj
 0001:00006720       ??9const_iterator@?$_Tree@V?$_Tmap_traits@KP8CDPCoreClient@@AEXAAVCAr@@K@ZU?$less@K@std@@V?$allocator@U?$pair@$$CBKP8CDPCoreClient@@AEXAAVCAr@@K@Z@std@@@4@$0A@@std@@@std@@QBE_NABV012@@Z 00407720 f i DPCoreClient.obj
 0001:00006740       ?_Key@?$_Tree@V?$_Tmap_traits@KP8CDPCoreClient@@AEXAAVCAr@@K@ZU?$less@K@std@@V?$allocator@U?$pair@$$CBKP8CDPCoreClient@@AEXAAVCAr@@K@Z@std@@@4@$0A@@std@@@std@@KAABKPAU_Node@?$_Tree_nod@V?$_Tmap_traits@KP8CDPCoreClient@@AEXAAVCAr@@K@ZU?$less@K@std@@V?$allocator@U?$pair@$$CBKP8CDPCoreClient@@AEXAAVCAr@@K@Z@std@@@4@$0A@@std@@@2@@Z 00407740 f i DPCoreClient.obj
 0001:00006750       ?_Root@?$_Tree@V?$_Tmap_traits@KP8CDPCoreClient@@AEXAAVCAr@@K@ZU?$less@K@std@@V?$allocator@U?$pair@$$CBKP8CDPCoreClient@@AEXAAVCAr@@K@Z@std@@@4@$0A@@std@@@std@@IAEAAPAU_Node@?$_Tree_nod@V?$_Tmap_traits@KP8CDPCoreClient@@AEXAAVCAr@@K@ZU?$less@K@std@@V?$allocator@U?$pair@$$CBKP8CDPCoreClient@@AEXAAVCAr@@K@Z@std@@@4@$0A@@std@@@2@XZ 00407750 f i DPCoreClient.obj
 0001:00006760       ??0iterator@?$_Tree@V?$_Tmap_traits@KP8CDPCoreClient@@AEXAAVCAr@@K@ZU?$less@K@std@@V?$allocator@U?$pair@$$CBKP8CDPCoreClient@@AEXAAVCAr@@K@Z@std@@@4@$0A@@std@@@std@@QAE@PAU_Node@?$_Tree_nod@V?$_Tmap_traits@KP8CDPCoreClient@@AEXAAVCAr@@K@ZU?$less@K@std@@V?$allocator@U?$pair@$$CBKP8CDPCoreClient@@AEXAAVCAr@@K@Z@std@@@4@$0A@@std@@@2@@Z 00407760 f i DPCoreClient.obj
 0001:00006770       ??Diterator@?$_Tree@V?$_Tmap_traits@KP8CDPCoreClient@@AEXAAVCAr@@K@ZU?$less@K@std@@V?$allocator@U?$pair@$$CBKP8CDPCoreClient@@AEXAAVCAr@@K@Z@std@@@4@$0A@@std@@@std@@QBEAAU?$pair@$$CBKP8CDPCoreClient@@AEXAAVCAr@@K@Z@2@XZ 00407770 f i DPCoreClient.obj
 0001:00006780       ?max_size@?$_Tree@V?$_Tmap_traits@KP8CDPCoreClient@@AEXAAVCAr@@K@ZU?$less@K@std@@V?$allocator@U?$pair@$$CBKP8CDPCoreClient@@AEXAAVCAr@@K@Z@std@@@4@$0A@@std@@@std@@QBEIXZ 00407780 f i DPCoreClient.obj
 0001:00006790       ?_Lbound@?$_Tree@V?$_Tmap_traits@KP8CDPCoreClient@@AEXAAVCAr@@K@ZU?$less@K@std@@V?$allocator@U?$pair@$$CBKP8CDPCoreClient@@AEXAAVCAr@@K@Z@std@@@4@$0A@@std@@@std@@IBEPAU_Node@?$_Tree_nod@V?$_Tmap_traits@KP8CDPCoreClient@@AEXAAVCAr@@K@ZU?$less@K@std@@V?$allocator@U?$pair@$$CBKP8CDPCoreClient@@AEXAAVCAr@@K@Z@std@@@4@$0A@@std@@@2@ABK@Z 00407790 f i DPCoreClient.obj
 0001:000067c0       ?_Lrotate@?$_Tree@V?$_Tmap_traits@KP8CDPCoreClient@@AEXAAVCAr@@K@ZU?$less@K@std@@V?$allocator@U?$pair@$$CBKP8CDPCoreClient@@AEXAAVCAr@@K@Z@std@@@4@$0A@@std@@@std@@IAEXPAU_Node@?$_Tree_nod@V?$_Tmap_traits@KP8CDPCoreClient@@AEXAAVCAr@@K@ZU?$less@K@std@@V?$allocator@U?$pair@$$CBKP8CDPCoreClient@@AEXAAVCAr@@K@Z@std@@@4@$0A@@std@@@2@@Z 004077c0 f i DPCoreClient.obj
 0001:00006820       ?_Rrotate@?$_Tree@V?$_Tmap_traits@KP8CDPCoreClient@@AEXAAVCAr@@K@ZU?$less@K@std@@V?$allocator@U?$pair@$$CBKP8CDPCoreClient@@AEXAAVCAr@@K@Z@std@@@4@$0A@@std@@@std@@IAEXPAU_Node@?$_Tree_nod@V?$_Tmap_traits@KP8CDPCoreClient@@AEXAAVCAr@@K@ZU?$less@K@std@@V?$allocator@U?$pair@$$CBKP8CDPCoreClient@@AEXAAVCAr@@K@Z@std@@@4@$0A@@std@@@2@@Z 00407820 f i DPCoreClient.obj
 0001:00006880       ?destroy@?$allocator@PAU_Node@?$_Tree_nod@V?$_Tmap_traits@KP8CDPCoreClient@@AEXAAVCAr@@K@ZU?$less@K@std@@V?$allocator@U?$pair@$$CBKP8CDPCoreClient@@AEXAAVCAr@@K@Z@std@@@4@$0A@@std@@@std@@@std@@QAEXPAPAU_Node@?$_Tree_nod@V?$_Tmap_traits@KP8CDPCoreClient@@AEXAAVCAr@@K@ZU?$less@K@std@@V?$allocator@U?$pair@$$CBKP8CDPCoreClient@@AEXAAVCAr@@K@Z@std@@@4@$0A@@std@@@2@@Z 00407880 f i DPCoreClient.obj
 0001:00006890       ?allocate@?$allocator@U_Node@?$_Tree_nod@V?$_Tmap_traits@KP8CDPCoreClient@@AEXAAVCAr@@K@ZU?$less@K@std@@V?$allocator@U?$pair@$$CBKP8CDPCoreClient@@AEXAAVCAr@@K@Z@std@@@4@$0A@@std@@@std@@@std@@QAEPAU_Node@?$_Tree_nod@V?$_Tmap_traits@KP8CDPCoreClient@@AEXAAVCAr@@K@ZU?$less@K@std@@V?$allocator@U?$pair@$$CBKP8CDPCoreClient@@AEXAAVCAr@@K@Z@std@@@4@$0A@@std@@@2@I@Z 00407890 f i DPCoreClient.obj
 0001:000068b0       ?_Dec@const_iterator@?$_Tree@V?$_Tmap_traits@KP8CDPCoreClient@@AEXAAVCAr@@K@ZU?$less@K@std@@V?$allocator@U?$pair@$$CBKP8CDPCoreClient@@AEXAAVCAr@@K@Z@std@@@4@$0A@@std@@@std@@QAEXXZ 004078b0 f i DPCoreClient.obj
 0001:00006910       ??0?$_Tree_nod@V?$_Tmap_traits@KP8CDPCoreClient@@AEXAAVCAr@@K@ZU?$less@K@std@@V?$allocator@U?$pair@$$CBKP8CDPCoreClient@@AEXAAVCAr@@K@Z@std@@@4@$0A@@std@@@std@@IAE@ABU?$less@K@1@V?$allocator@U?$pair@$$CBKP8CDPCoreClient@@AEXAAVCAr@@K@Z@std@@@1@@Z 00407910 f i DPCoreClient.obj
 0001:00006920       ?destroy@?$allocator@U_Node@?$_Tree_nod@V?$_Tmap_traits@KP8CDPCoreClient@@AEXAAVCAr@@K@ZU?$less@K@std@@V?$allocator@U?$pair@$$CBKP8CDPCoreClient@@AEXAAVCAr@@K@Z@std@@@4@$0A@@std@@@std@@@std@@QAEXPAU_Node@?$_Tree_nod@V?$_Tmap_traits@KP8CDPCoreClient@@AEXAAVCAr@@K@ZU?$less@K@std@@V?$allocator@U?$pair@$$CBKP8CDPCoreClient@@AEXAAVCAr@@K@Z@std@@@4@$0A@@std@@@2@@Z 00407920 f i DPCoreClient.obj
 0001:00006930       ?construct@?$allocator@PAU_Node@?$_Tree_nod@V?$_Tmap_traits@KP8CDPCoreClient@@AEXAAVCAr@@K@ZU?$less@K@std@@V?$allocator@U?$pair@$$CBKP8CDPCoreClient@@AEXAAVCAr@@K@Z@std@@@4@$0A@@std@@@std@@@std@@QAEXPAPAU_Node@?$_Tree_nod@V?$_Tmap_traits@KP8CDPCoreClient@@AEXAAVCAr@@K@ZU?$less@K@std@@V?$allocator@U?$pair@$$CBKP8CDPCoreClient@@AEXAAVCAr@@K@Z@std@@@4@$0A@@std@@@2@ABQAU342@@Z 00407930 f i DPCoreClient.obj
 0001:00006950       ??Econst_iterator@?$_Tree@V?$_Tmap_traits@KP8CDPCoreClient@@AEXAAVCAr@@K@ZU?$less@K@std@@V?$allocator@U?$pair@$$CBKP8CDPCoreClient@@AEXAAVCAr@@K@Z@std@@@4@$0A@@std@@@std@@QAEAAV012@XZ 00407950 f i DPCoreClient.obj
 0001:00006960       ?end@?$_Tree@V?$_Tmap_traits@KP8CDPCoreClient@@AEXAAVCAr@@K@ZU?$less@K@std@@V?$allocator@U?$pair@$$CBKP8CDPCoreClient@@AEXAAVCAr@@K@Z@std@@@4@$0A@@std@@@std@@QAE?AViterator@12@XZ 00407960 f i DPCoreClient.obj
 0001:00006970       ??Citerator@?$_Tree@V?$_Tmap_traits@KP8CDPCoreClient@@AEXAAVCAr@@K@ZU?$less@K@std@@V?$allocator@U?$pair@$$CBKP8CDPCoreClient@@AEXAAVCAr@@K@Z@std@@@4@$0A@@std@@@std@@QBEPAU?$pair@$$CBKP8CDPCoreClient@@AEXAAVCAr@@K@Z@2@XZ 00407970 f i DPCoreClient.obj
 0001:00006980       ?begin@?$_Tree@V?$_Tmap_traits@KP8CDPCoreClient@@AEXAAVCAr@@K@ZU?$less@K@std@@V?$allocator@U?$pair@$$CBKP8CDPCoreClient@@AEXAAVCAr@@K@Z@std@@@4@$0A@@std@@@std@@QAE?AViterator@12@XZ 00407980 f i DPCoreClient.obj
 0001:00006990       ?lower_bound@?$_Tree@V?$_Tmap_traits@KP8CDPCoreClient@@AEXAAVCAr@@K@ZU?$less@K@std@@V?$allocator@U?$pair@$$CBKP8CDPCoreClient@@AEXAAVCAr@@K@Z@std@@@4@$0A@@std@@@std@@QAE?AViterator@12@ABK@Z 00407990 f i DPCoreClient.obj
 0001:000069d0       ?_Buynode@?$_Tree@V?$_Tmap_traits@KP8CDPCoreClient@@AEXAAVCAr@@K@ZU?$less@K@std@@V?$allocator@U?$pair@$$CBKP8CDPCoreClient@@AEXAAVCAr@@K@Z@std@@@4@$0A@@std@@@std@@IAEPAU_Node@?$_Tree_nod@V?$_Tmap_traits@KP8CDPCoreClient@@AEXAAVCAr@@K@ZU?$less@K@std@@V?$allocator@U?$pair@$$CBKP8CDPCoreClient@@AEXAAVCAr@@K@Z@std@@@4@$0A@@std@@@2@PAU342@00ABU?$pair@$$CBKP8CDPCoreClient@@AEXAAVCAr@@K@Z@2@D@Z 004079d0 f i DPCoreClient.obj
 0001:00006a10       ??Fconst_iterator@?$_Tree@V?$_Tmap_traits@KP8CDPCoreClient@@AEXAAVCAr@@K@ZU?$less@K@std@@V?$allocator@U?$pair@$$CBKP8CDPCoreClient@@AEXAAVCAr@@K@Z@std@@@4@$0A@@std@@@std@@QAEAAV012@XZ 00407a10 f i DPCoreClient.obj
 0001:00006a20       ?_Buynode@?$_Tree@V?$_Tmap_traits@KP8CDPCoreClient@@AEXAAVCAr@@K@ZU?$less@K@std@@V?$allocator@U?$pair@$$CBKP8CDPCoreClient@@AEXAAVCAr@@K@Z@std@@@4@$0A@@std@@@std@@IAEPAU_Node@?$_Tree_nod@V?$_Tmap_traits@KP8CDPCoreClient@@AEXAAVCAr@@K@ZU?$less@K@std@@V?$allocator@U?$pair@$$CBKP8CDPCoreClient@@AEXAAVCAr@@K@Z@std@@@4@$0A@@std@@@2@XZ 00407a20 f i DPCoreClient.obj
 0001:00006a60       ??0?$_Tree_ptr@V?$_Tmap_traits@KP8CDPCoreClient@@AEXAAVCAr@@K@ZU?$less@K@std@@V?$allocator@U?$pair@$$CBKP8CDPCoreClient@@AEXAAVCAr@@K@Z@std@@@4@$0A@@std@@@std@@IAE@ABU?$less@K@1@V?$allocator@U?$pair@$$CBKP8CDPCoreClient@@AEXAAVCAr@@K@Z@std@@@1@@Z 00407a60 f i DPCoreClient.obj
 0001:00006a70       ?_Erase@?$_Tree@V?$_Tmap_traits@KP8CDPCoreClient@@AEXAAVCAr@@K@ZU?$less@K@std@@V?$allocator@U?$pair@$$CBKP8CDPCoreClient@@AEXAAVCAr@@K@Z@std@@@4@$0A@@std@@@std@@IAEXPAU_Node@?$_Tree_nod@V?$_Tmap_traits@KP8CDPCoreClient@@AEXAAVCAr@@K@ZU?$less@K@std@@V?$allocator@U?$pair@$$CBKP8CDPCoreClient@@AEXAAVCAr@@K@Z@std@@@4@$0A@@std@@@2@@Z 00407a70 f i DPCoreClient.obj
 0001:00006ab0       ??Eiterator@?$_Tree@V?$_Tmap_traits@KP8CDPCoreClient@@AEXAAVCAr@@K@ZU?$less@K@std@@V?$allocator@U?$pair@$$CBKP8CDPCoreClient@@AEXAAVCAr@@K@Z@std@@@4@$0A@@std@@@std@@QAEAAV012@XZ 00407ab0 f i DPCoreClient.obj
 0001:00006ac0       ?find@?$_Tree@V?$_Tmap_traits@KP8CDPCoreClient@@AEXAAVCAr@@K@ZU?$less@K@std@@V?$allocator@U?$pair@$$CBKP8CDPCoreClient@@AEXAAVCAr@@K@Z@std@@@4@$0A@@std@@@std@@QAE?AViterator@12@ABK@Z 00407ac0 f i DPCoreClient.obj
 0001:00006b30       ??Fiterator@?$_Tree@V?$_Tmap_traits@KP8CDPCoreClient@@AEXAAVCAr@@K@ZU?$less@K@std@@V?$allocator@U?$pair@$$CBKP8CDPCoreClient@@AEXAAVCAr@@K@Z@std@@@4@$0A@@std@@@std@@QAEAAV012@XZ 00407b30 f i DPCoreClient.obj
 0001:00006b40       ?_Init@?$_Tree@V?$_Tmap_traits@KP8CDPCoreClient@@AEXAAVCAr@@K@ZU?$less@K@std@@V?$allocator@U?$pair@$$CBKP8CDPCoreClient@@AEXAAVCAr@@K@Z@std@@@4@$0A@@std@@@std@@IAEXXZ 00407b40 f i DPCoreClient.obj
 0001:00006b70       ??0?$_Tree_val@V?$_Tmap_traits@KP8CDPCoreClient@@AEXAAVCAr@@K@ZU?$less@K@std@@V?$allocator@U?$pair@$$CBKP8CDPCoreClient@@AEXAAVCAr@@K@Z@std@@@4@$0A@@std@@@std@@IAE@ABU?$less@K@1@V?$allocator@U?$pair@$$CBKP8CDPCoreClient@@AEXAAVCAr@@K@Z@std@@@1@@Z 00407b70 f i DPCoreClient.obj
 0001:00006b80       ?clear@?$_Tree@V?$_Tmap_traits@KP8CDPCoreClient@@AEXAAVCAr@@K@ZU?$less@K@std@@V?$allocator@U?$pair@$$CBKP8CDPCoreClient@@AEXAAVCAr@@K@Z@std@@@4@$0A@@std@@@std@@QAEXXZ 00407b80 f i DPCoreClient.obj
 0001:00006bb0       ??Eiterator@?$_Tree@V?$_Tmap_traits@KP8CDPCoreClient@@AEXAAVCAr@@K@ZU?$less@K@std@@V?$allocator@U?$pair@$$CBKP8CDPCoreClient@@AEXAAVCAr@@K@Z@std@@@4@$0A@@std@@@std@@QAE?AV012@H@Z 00407bb0 f i DPCoreClient.obj
 0001:00006bd0       ?GetHandler@CDPCoreClient@@AAEP81@AEXAAVCAr@@K@ZK@Z 00407bd0 f i DPCoreClient.obj
 0001:00006c00       ?UserMessageHandler@CDPCoreClient@@UAEXPAUDPMSG_GENERIC@@KK@Z 00407c00 f   DPCoreClient.obj
 0001:00006d90       ??0?$_Tree@V?$_Tmap_traits@KP8CDPCoreClient@@AEXAAVCAr@@K@ZU?$less@K@std@@V?$allocator@U?$pair@$$CBKP8CDPCoreClient@@AEXAAVCAr@@K@Z@std@@@4@$0A@@std@@@std@@QAE@ABU?$less@K@1@ABV?$allocator@U?$pair@$$CBKP8CDPCoreClient@@AEXAAVCAr@@K@Z@std@@@1@@Z 00407d90 f i DPCoreClient.obj
 0001:00006dc0       ?_Insert@?$_Tree@V?$_Tmap_traits@KP8CDPCoreClient@@AEXAAVCAr@@K@ZU?$less@K@std@@V?$allocator@U?$pair@$$CBKP8CDPCoreClient@@AEXAAVCAr@@K@Z@std@@@4@$0A@@std@@@std@@IAE?AViterator@12@_NPAU_Node@?$_Tree_nod@V?$_Tmap_traits@KP8CDPCoreClient@@AEXAAVCAr@@K@ZU?$less@K@std@@V?$allocator@U?$pair@$$CBKP8CDPCoreClient@@AEXAAVCAr@@K@Z@std@@@4@$0A@@std@@@2@ABU?$pair@$$CBKP8CDPCoreClient@@AEXAAVCAr@@K@Z@2@@Z 00407dc0 f i DPCoreClient.obj
 0001:00006f70       ?erase@?$_Tree@V?$_Tmap_traits@KP8CDPCoreClient@@AEXAAVCAr@@K@ZU?$less@K@std@@V?$allocator@U?$pair@$$CBKP8CDPCoreClient@@AEXAAVCAr@@K@Z@std@@@4@$0A@@std@@@std@@QAE?AViterator@12@V312@@Z 00407f70 f i DPCoreClient.obj
 0001:00007230       ?insert@?$_Tree@V?$_Tmap_traits@KP8CDPCoreClient@@AEXAAVCAr@@K@ZU?$less@K@std@@V?$allocator@U?$pair@$$CBKP8CDPCoreClient@@AEXAAVCAr@@K@Z@std@@@4@$0A@@std@@@std@@QAE?AU?$pair@Viterator@?$_Tree@V?$_Tmap_traits@KP8CDPCoreClient@@AEXAAVCAr@@K@ZU?$less@K@std@@V?$allocator@U?$pair@$$CBKP8CDPCoreClient@@AEXAAVCAr@@K@Z@std@@@4@$0A@@std@@@std@@_N@2@ABU?$pair@$$CBKP8CDPCoreClient@@AEXAAVCAr@@K@Z@2@@Z 00408230 f i DPCoreClient.obj
 0001:000072f0       ?erase@?$_Tree@V?$_Tmap_traits@KP8CDPCoreClient@@AEXAAVCAr@@K@ZU?$less@K@std@@V?$allocator@U?$pair@$$CBKP8CDPCoreClient@@AEXAAVCAr@@K@Z@std@@@4@$0A@@std@@@std@@QAE?AViterator@12@V312@0@Z 004082f0 f i DPCoreClient.obj
 0001:000073b0       ?_Tidy@?$_Tree@V?$_Tmap_traits@KP8CDPCoreClient@@AEXAAVCAr@@K@ZU?$less@K@std@@V?$allocator@U?$pair@$$CBKP8CDPCoreClient@@AEXAAVCAr@@K@Z@std@@@4@$0A@@std@@@std@@IAEXXZ 004083b0 f i DPCoreClient.obj
 0001:000073e0       ??1?$_Tree@V?$_Tmap_traits@KP8CDPCoreClient@@AEXAAVCAr@@K@ZU?$less@K@std@@V?$allocator@U?$pair@$$CBKP8CDPCoreClient@@AEXAAVCAr@@K@Z@std@@@4@$0A@@std@@@std@@QAE@XZ 004083e0 f i DPCoreClient.obj
 0001:00007410       ??1?$map@KP8CDPCoreClient@@AEXAAVCAr@@K@ZU?$less@K@std@@V?$allocator@U?$pair@$$CBKP8CDPCoreClient@@AEXAAVCAr@@K@Z@std@@@4@@std@@QAE@XZ 00408410 f i DPCoreClient.obj
 0001:00007440       ??1CDPCoreClient@@UAE@XZ   00408440 f   DPCoreClient.obj
 0001:000074c0       ??0?$map@KP8CDPCoreClient@@AEXAAVCAr@@K@ZU?$less@K@std@@V?$allocator@U?$pair@$$CBKP8CDPCoreClient@@AEXAAVCAr@@K@Z@std@@@4@@std@@QAE@XZ 004084c0 f i DPCoreClient.obj
 0001:000074f0       ??0CDPCoreClient@@QAE@XZ   004084f0 f   DPCoreClient.obj
 0001:00007630       ??_ECDPCoreClient@@UAEPAXI@Z 00408630 f i DPCoreClient.obj
 0001:00007630       ??_GCDPCoreClient@@UAEPAXI@Z 00408630 f i DPCoreClient.obj
 0001:00007650       ??0_PacketRecvd@@QAE@KK@Z  00408650 f i packetlog.obj
 0001:00007670       ?pllpr1@@YA_NAAU_PlayerRecvd@@0@Z 00408670 f   packetlog.obj
 0001:00007690       ?pllpr2@@YA_NAAU_PacketRecvd@@0@Z 00408690 f   packetlog.obj
 0001:000076b0       ??8const_iterator@?$_Tree@V?$_Tmap_traits@KU_PlayerRecvd@@U?$less@K@std@@V?$allocator@U?$pair@$$CBKU_PlayerRecvd@@@std@@@3@$0A@@std@@@std@@QBE_NABV012@@Z 004086b0 f i packetlog.obj
 0001:000076c0       ??9const_iterator@?$_Tree@V?$_Tmap_traits@KU_PlayerRecvd@@U?$less@K@std@@V?$allocator@U?$pair@$$CBKU_PlayerRecvd@@@std@@@3@$0A@@std@@@std@@QBE_NABV012@@Z 004086c0 f i packetlog.obj
 0001:000076e0       ??0?$pair@$$CBKU_PacketRecvd@@@std@@QAE@ABKABU_PacketRecvd@@@Z 004086e0 f i packetlog.obj
 0001:00007710       ??8const_iterator@?$_Tree@V?$_Tmap_traits@KU_PacketRecvd@@U?$less@K@std@@V?$allocator@U?$pair@$$CBKU_PacketRecvd@@@std@@@3@$0A@@std@@@std@@QBE_NABV012@@Z 00408710 f i packetlog.obj
 0001:00007720       ??9const_iterator@?$_Tree@V?$_Tmap_traits@KU_PacketRecvd@@U?$less@K@std@@V?$allocator@U?$pair@$$CBKU_PacketRecvd@@@std@@@3@$0A@@std@@@std@@QBE_NABV012@@Z 00408720 f i packetlog.obj
 0001:00007740       ??Eiterator@?$vector@U_PlayerRecvd@@V?$allocator@U_PlayerRecvd@@@std@@@std@@QAEAAV012@XZ 00408740 f i packetlog.obj
 0001:00007750       ??Eiterator@?$vector@U_PacketRecvd@@V?$allocator@U_PacketRecvd@@@std@@@std@@QAEAAV012@XZ 00408750 f i packetlog.obj
 0001:00007760       ?_Isnil@?$_Tree@V?$_Tmap_traits@KU_PacketRecvd@@U?$less@K@std@@V?$allocator@U?$pair@$$CBKU_PacketRecvd@@@std@@@3@$0A@@std@@@std@@KAAADPAU_Node@?$_Tree_nod@V?$_Tmap_traits@KU_PacketRecvd@@U?$less@K@std@@V?$allocator@U?$pair@$$CBKU_PacketRecvd@@@std@@@3@$0A@@std@@@2@@Z 00408760 f i packetlog.obj
 0001:00007770       ?_Left@?$_Tree@V?$_Tmap_traits@KU_PacketRecvd@@U?$less@K@std@@V?$allocator@U?$pair@$$CBKU_PacketRecvd@@@std@@@3@$0A@@std@@@std@@KAAAPAU_Node@?$_Tree_nod@V?$_Tmap_traits@KU_PacketRecvd@@U?$less@K@std@@V?$allocator@U?$pair@$$CBKU_PacketRecvd@@@std@@@3@$0A@@std@@@2@PAU342@@Z 00408770 f i packetlog.obj
 0001:00007780       ?_Right@?$_Tree@V?$_Tmap_traits@KU_PacketRecvd@@U?$less@K@std@@V?$allocator@U?$pair@$$CBKU_PacketRecvd@@@std@@@3@$0A@@std@@@std@@KAAAPAU_Node@?$_Tree_nod@V?$_Tmap_traits@KU_PacketRecvd@@U?$less@K@std@@V?$allocator@U?$pair@$$CBKU_PacketRecvd@@@std@@@3@$0A@@std@@@2@PAU342@@Z 00408780 f i packetlog.obj
 0001:00007790       ?key_comp@?$_Tree@V?$_Tmap_traits@KU_PacketRecvd@@U?$less@K@std@@V?$allocator@U?$pair@$$CBKU_PacketRecvd@@@std@@@3@$0A@@std@@@std@@QBE?AU?$less@K@2@XZ 00408790 f i packetlog.obj
 0001:000077a0       ?_Lmost@?$_Tree@V?$_Tmap_traits@KU_PacketRecvd@@U?$less@K@std@@V?$allocator@U?$pair@$$CBKU_PacketRecvd@@@std@@@3@$0A@@std@@@std@@IAEAAPAU_Node@?$_Tree_nod@V?$_Tmap_traits@KU_PacketRecvd@@U?$less@K@std@@V?$allocator@U?$pair@$$CBKU_PacketRecvd@@@std@@@3@$0A@@std@@@2@XZ 004087a0 f i packetlog.obj
 0001:000077b0       ?_Kfn@?$_Tmap_traits@KU_PacketRecvd@@U?$less@K@std@@V?$allocator@U?$pair@$$CBKU_PacketRecvd@@@std@@@3@$0A@@std@@SAABKABU?$pair@$$CBKU_PacketRecvd@@@2@@Z 004087b0 f i packetlog.obj
 0001:000077c0       ??0?$allocator@U?$pair@$$CBKU_PacketRecvd@@@std@@@std@@QAE@XZ 004087c0 f i packetlog.obj
 0001:000077d0       ?_Isnil@?$_Tree@V?$_Tmap_traits@KU_PlayerRecvd@@U?$less@K@std@@V?$allocator@U?$pair@$$CBKU_PlayerRecvd@@@std@@@3@$0A@@std@@@std@@KAAADPAU_Node@?$_Tree_nod@V?$_Tmap_traits@KU_PlayerRecvd@@U?$less@K@std@@V?$allocator@U?$pair@$$CBKU_PlayerRecvd@@@std@@@3@$0A@@std@@@2@@Z 004087d0 f i packetlog.obj
 0001:000077e0       ?_Left@?$_Tree@V?$_Tmap_traits@KU_PlayerRecvd@@U?$less@K@std@@V?$allocator@U?$pair@$$CBKU_PlayerRecvd@@@std@@@3@$0A@@std@@@std@@KAAAPAU_Node@?$_Tree_nod@V?$_Tmap_traits@KU_PlayerRecvd@@U?$less@K@std@@V?$allocator@U?$pair@$$CBKU_PlayerRecvd@@@std@@@3@$0A@@std@@@2@PAU342@@Z 004087e0 f i packetlog.obj
 0001:000077f0       ?_Right@?$_Tree@V?$_Tmap_traits@KU_PlayerRecvd@@U?$less@K@std@@V?$allocator@U?$pair@$$CBKU_PlayerRecvd@@@std@@@3@$0A@@std@@@std@@KAAAPAU_Node@?$_Tree_nod@V?$_Tmap_traits@KU_PlayerRecvd@@U?$less@K@std@@V?$allocator@U?$pair@$$CBKU_PlayerRecvd@@@std@@@3@$0A@@std@@@2@PAU342@@Z 004087f0 f i packetlog.obj
 0001:00007800       ?_Lmost@?$_Tree@V?$_Tmap_traits@KU_PlayerRecvd@@U?$less@K@std@@V?$allocator@U?$pair@$$CBKU_PlayerRecvd@@@std@@@3@$0A@@std@@@std@@IAEAAPAU_Node@?$_Tree_nod@V?$_Tmap_traits@KU_PlayerRecvd@@U?$less@K@std@@V?$allocator@U?$pair@$$CBKU_PlayerRecvd@@@std@@@3@$0A@@std@@@2@XZ 00408800 f i packetlog.obj
 0001:00007810       ?_Rmost@?$_Tree@V?$_Tmap_traits@KU_PlayerRecvd@@U?$less@K@std@@V?$allocator@U?$pair@$$CBKU_PlayerRecvd@@@std@@@3@$0A@@std@@@std@@IAEAAPAU_Node@?$_Tree_nod@V?$_Tmap_traits@KU_PlayerRecvd@@U?$less@K@std@@V?$allocator@U?$pair@$$CBKU_PlayerRecvd@@@std@@@3@$0A@@std@@@2@XZ 00408810 f i packetlog.obj
 0001:00007820       ?_Kfn@?$_Tmap_traits@KU_PlayerRecvd@@U?$less@K@std@@V?$allocator@U?$pair@$$CBKU_PlayerRecvd@@@std@@@3@$0A@@std@@SAABKABU?$pair@$$CBKU_PlayerRecvd@@@2@@Z 00408820 f i packetlog.obj
 0001:00007830       ??0?$allocator@U?$pair@$$CBKU_PlayerRecvd@@@std@@@std@@QAE@XZ 00408830 f i packetlog.obj
 0001:00007840       ?_Mynode@const_iterator@?$_Tree@V?$_Tmap_traits@KU_PlayerRecvd@@U?$less@K@std@@V?$allocator@U?$pair@$$CBKU_PlayerRecvd@@@std@@@3@$0A@@std@@@std@@QBEPAU_Node@?$_Tree_nod@V?$_Tmap_traits@KU_PlayerRecvd@@U?$less@K@std@@V?$allocator@U?$pair@$$CBKU_PlayerRecvd@@@std@@@3@$0A@@std@@@3@XZ 00408840 f i packetlog.obj
 0001:00007850       ??0?$pair@Viterator@?$_Tree@V?$_Tmap_traits@KU_PacketRecvd@@U?$less@K@std@@V?$allocator@U?$pair@$$CBKU_PacketRecvd@@@std@@@3@$0A@@std@@@std@@_N@std@@QAE@ABViterator@?$_Tree@V?$_Tmap_traits@KU_PacketRecvd@@U?$less@K@std@@V?$allocator@U?$pair@$$CBKU_PacketRecvd@@@std@@@3@$0A@@std@@@1@AB_N@Z 00408850 f i packetlog.obj
 0001:00007870       ?_Mynode@const_iterator@?$_Tree@V?$_Tmap_traits@KU_PacketRecvd@@U?$less@K@std@@V?$allocator@U?$pair@$$CBKU_PacketRecvd@@@std@@@3@$0A@@std@@@std@@QBEPAU_Node@?$_Tree_nod@V?$_Tmap_traits@KU_PacketRecvd@@U?$less@K@std@@V?$allocator@U?$pair@$$CBKU_PacketRecvd@@@std@@@3@$0A@@std@@@3@XZ 00408870 f i packetlog.obj
 0001:00007880       ??0?$pair@Viterator@?$_Tree@V?$_Tmap_traits@KU_PlayerRecvd@@U?$less@K@std@@V?$allocator@U?$pair@$$CBKU_PlayerRecvd@@@std@@@3@$0A@@std@@@std@@_N@std@@QAE@ABViterator@?$_Tree@V?$_Tmap_traits@KU_PlayerRecvd@@U?$less@K@std@@V?$allocator@U?$pair@$$CBKU_PlayerRecvd@@@std@@@3@$0A@@std@@@1@AB_N@Z 00408880 f i packetlog.obj
 0001:000078a0       ?capacity@?$vector@U_PlayerRecvd@@V?$allocator@U_PlayerRecvd@@@std@@@std@@QBEIXZ 004088a0 f i packetlog.obj
 0001:000078c0       ?size@?$vector@U_PlayerRecvd@@V?$allocator@U_PlayerRecvd@@@std@@@std@@QBEIXZ 004088c0 f i packetlog.obj
 0001:000078e0       ??0?$allocator@U_PlayerRecvd@@@std@@QAE@XZ 004088e0 f i packetlog.obj
 0001:000078f0       ??8const_iterator@?$vector@U_PlayerRecvd@@V?$allocator@U_PlayerRecvd@@@std@@@std@@QBE_NABV012@@Z 004088f0 f i packetlog.obj
 0001:00007900       ?capacity@?$vector@U_PacketRecvd@@V?$allocator@U_PacketRecvd@@@std@@@std@@QBEIXZ 00408900 f i packetlog.obj
 0001:00007920       ?size@?$vector@U_PacketRecvd@@V?$allocator@U_PacketRecvd@@@std@@@std@@QBEIXZ 00408920 f i packetlog.obj
 0001:00007940       ??0?$allocator@U_PacketRecvd@@@std@@QAE@XZ 00408940 f i packetlog.obj
 0001:00007950       ??8const_iterator@?$vector@U_PacketRecvd@@V?$allocator@U_PacketRecvd@@@std@@@std@@QBE_NABV012@@Z 00408950 f i packetlog.obj
 0001:00007960       ?_Color@?$_Tree@V?$_Tmap_traits@KU_PacketRecvd@@U?$less@K@std@@V?$allocator@U?$pair@$$CBKU_PacketRecvd@@@std@@@3@$0A@@std@@@std@@KAAADPAU_Node@?$_Tree_nod@V?$_Tmap_traits@KU_PacketRecvd@@U?$less@K@std@@V?$allocator@U?$pair@$$CBKU_PacketRecvd@@@std@@@3@$0A@@std@@@2@@Z 00408960 f i packetlog.obj
 0001:00007970       ?_Parent@?$_Tree@V?$_Tmap_traits@KU_PacketRecvd@@U?$less@K@std@@V?$allocator@U?$pair@$$CBKU_PacketRecvd@@@std@@@3@$0A@@std@@@std@@KAAAPAU_Node@?$_Tree_nod@V?$_Tmap_traits@KU_PacketRecvd@@U?$less@K@std@@V?$allocator@U?$pair@$$CBKU_PacketRecvd@@@std@@@3@$0A@@std@@@2@PAU342@@Z 00408970 f i packetlog.obj
 0001:00007980       ?_Myval@?$_Tree@V?$_Tmap_traits@KU_PacketRecvd@@U?$less@K@std@@V?$allocator@U?$pair@$$CBKU_PacketRecvd@@@std@@@3@$0A@@std@@@std@@KAAAU?$pair@$$CBKU_PacketRecvd@@@2@PAU_Node@?$_Tree_nod@V?$_Tmap_traits@KU_PacketRecvd@@U?$less@K@std@@V?$allocator@U?$pair@$$CBKU_PacketRecvd@@@std@@@3@$0A@@std@@@2@@Z 00408980 f i packetlog.obj
 0001:00007990       ?size@?$_Tree@V?$_Tmap_traits@KU_PacketRecvd@@U?$less@K@std@@V?$allocator@U?$pair@$$CBKU_PacketRecvd@@@std@@@3@$0A@@std@@@std@@QBEIXZ 00408990 f i packetlog.obj
 0001:000079a0       ?_Max@?$_Tree@V?$_Tmap_traits@KU_PacketRecvd@@U?$less@K@std@@V?$allocator@U?$pair@$$CBKU_PacketRecvd@@@std@@@3@$0A@@std@@@std@@KAPAU_Node@?$_Tree_nod@V?$_Tmap_traits@KU_PacketRecvd@@U?$less@K@std@@V?$allocator@U?$pair@$$CBKU_PacketRecvd@@@std@@@3@$0A@@std@@@2@PAU342@@Z 004089a0 f i packetlog.obj
 0001:000079c0       ?_Min@?$_Tree@V?$_Tmap_traits@KU_PacketRecvd@@U?$less@K@std@@V?$allocator@U?$pair@$$CBKU_PacketRecvd@@@std@@@3@$0A@@std@@@std@@KAPAU_Node@?$_Tree_nod@V?$_Tmap_traits@KU_PacketRecvd@@U?$less@K@std@@V?$allocator@U?$pair@$$CBKU_PacketRecvd@@@std@@@3@$0A@@std@@@2@PAU342@@Z 004089c0 f i packetlog.obj
 0001:000079e0       ?_Rmost@?$_Tree@V?$_Tmap_traits@KU_PacketRecvd@@U?$less@K@std@@V?$allocator@U?$pair@$$CBKU_PacketRecvd@@@std@@@3@$0A@@std@@@std@@IAEAAPAU_Node@?$_Tree_nod@V?$_Tmap_traits@KU_PacketRecvd@@U?$less@K@std@@V?$allocator@U?$pair@$$CBKU_PacketRecvd@@@std@@@3@$0A@@std@@@2@XZ 004089e0 f i packetlog.obj
 0001:000079f0       ?_Root@?$_Tree@V?$_Tmap_traits@KU_PacketRecvd@@U?$less@K@std@@V?$allocator@U?$pair@$$CBKU_PacketRecvd@@@std@@@3@$0A@@std@@@std@@IBEAAPAU_Node@?$_Tree_nod@V?$_Tmap_traits@KU_PacketRecvd@@U?$less@K@std@@V?$allocator@U?$pair@$$CBKU_PacketRecvd@@@std@@@3@$0A@@std@@@2@XZ 004089f0 f i packetlog.obj
 0001:00007a00       ??0?$allocator@U?$pair@$$CBKU_PacketRecvd@@@std@@@std@@QAE@ABV01@@Z 00408a00 f i packetlog.obj
 0001:00007a10       ?deallocate@?$allocator@U_Node@?$_Tree_nod@V?$_Tmap_traits@KU_PacketRecvd@@U?$less@K@std@@V?$allocator@U?$pair@$$CBKU_PacketRecvd@@@std@@@3@$0A@@std@@@std@@@std@@QAEXPAU_Node@?$_Tree_nod@V?$_Tmap_traits@KU_PacketRecvd@@U?$less@K@std@@V?$allocator@U?$pair@$$CBKU_PacketRecvd@@@std@@@3@$0A@@std@@@2@I@Z 00408a10 f i packetlog.obj
 0001:00007a20       ?_Color@?$_Tree@V?$_Tmap_traits@KU_PlayerRecvd@@U?$less@K@std@@V?$allocator@U?$pair@$$CBKU_PlayerRecvd@@@std@@@3@$0A@@std@@@std@@KAAADPAU_Node@?$_Tree_nod@V?$_Tmap_traits@KU_PlayerRecvd@@U?$less@K@std@@V?$allocator@U?$pair@$$CBKU_PlayerRecvd@@@std@@@3@$0A@@std@@@2@@Z 00408a20 f i packetlog.obj
 0001:00007a30       ?_Parent@?$_Tree@V?$_Tmap_traits@KU_PlayerRecvd@@U?$less@K@std@@V?$allocator@U?$pair@$$CBKU_PlayerRecvd@@@std@@@3@$0A@@std@@@std@@KAAAPAU_Node@?$_Tree_nod@V?$_Tmap_traits@KU_PlayerRecvd@@U?$less@K@std@@V?$allocator@U?$pair@$$CBKU_PlayerRecvd@@@std@@@3@$0A@@std@@@2@PAU342@@Z 00408a30 f i packetlog.obj
 0001:00007a40       ?_Myval@?$_Tree@V?$_Tmap_traits@KU_PlayerRecvd@@U?$less@K@std@@V?$allocator@U?$pair@$$CBKU_PlayerRecvd@@@std@@@3@$0A@@std@@@std@@KAAAU?$pair@$$CBKU_PlayerRecvd@@@2@PAU_Node@?$_Tree_nod@V?$_Tmap_traits@KU_PlayerRecvd@@U?$less@K@std@@V?$allocator@U?$pair@$$CBKU_PlayerRecvd@@@std@@@3@$0A@@std@@@2@@Z 00408a40 f i packetlog.obj
 0001:00007a50       ??0?$allocator@U?$pair@$$CBKU_PlayerRecvd@@@std@@@std@@QAE@ABV01@@Z 00408a50 f i packetlog.obj
 0001:00007a60       ?deallocate@?$allocator@U_Node@?$_Tree_nod@V?$_Tmap_traits@KU_PlayerRecvd@@U?$less@K@std@@V?$allocator@U?$pair@$$CBKU_PlayerRecvd@@@std@@@3@$0A@@std@@@std@@@std@@QAEXPAU_Node@?$_Tree_nod@V?$_Tmap_traits@KU_PlayerRecvd@@U?$less@K@std@@V?$allocator@U?$pair@$$CBKU_PlayerRecvd@@@std@@@3@$0A@@std@@@2@I@Z 00408a60 f i packetlog.obj
 0001:00007a70       ??0const_iterator@?$_Tree@V?$_Tmap_traits@KU_PlayerRecvd@@U?$less@K@std@@V?$allocator@U?$pair@$$CBKU_PlayerRecvd@@@std@@@3@$0A@@std@@@std@@QAE@PAU_Node@?$_Tree_nod@V?$_Tmap_traits@KU_PlayerRecvd@@U?$less@K@std@@V?$allocator@U?$pair@$$CBKU_PlayerRecvd@@@std@@@3@$0A@@std@@@2@@Z 00408a70 f i packetlog.obj
 0001:00007a80       ??Dconst_iterator@?$_Tree@V?$_Tmap_traits@KU_PlayerRecvd@@U?$less@K@std@@V?$allocator@U?$pair@$$CBKU_PlayerRecvd@@@std@@@3@$0A@@std@@@std@@QBEABU?$pair@$$CBKU_PlayerRecvd@@@2@XZ 00408a80 f i packetlog.obj
 0001:00007a90       ??0const_iterator@?$_Tree@V?$_Tmap_traits@KU_PacketRecvd@@U?$less@K@std@@V?$allocator@U?$pair@$$CBKU_PacketRecvd@@@std@@@3@$0A@@std@@@std@@QAE@PAU_Node@?$_Tree_nod@V?$_Tmap_traits@KU_PacketRecvd@@U?$less@K@std@@V?$allocator@U?$pair@$$CBKU_PacketRecvd@@@std@@@3@$0A@@std@@@2@@Z 00408a90 f i packetlog.obj
 0001:00007aa0       ??Dconst_iterator@?$_Tree@V?$_Tmap_traits@KU_PacketRecvd@@U?$less@K@std@@V?$allocator@U?$pair@$$CBKU_PacketRecvd@@@std@@@3@$0A@@std@@@std@@QBEABU?$pair@$$CBKU_PacketRecvd@@@2@XZ 00408aa0 f i packetlog.obj
 0001:00007ab0       ?_Inc@const_iterator@?$_Tree@V?$_Tmap_traits@KU_PacketRecvd@@U?$less@K@std@@V?$allocator@U?$pair@$$CBKU_PacketRecvd@@@std@@@3@$0A@@std@@@std@@QAEXXZ 00408ab0 f i packetlog.obj
 0001:00007b10       ??0?$allocator@U_PlayerRecvd@@@std@@QAE@ABV01@@Z 00408b10 f i packetlog.obj
 0001:00007b20       ?deallocate@?$allocator@U_PlayerRecvd@@@std@@QAEXPAU_PlayerRecvd@@I@Z 00408b20 f i packetlog.obj
 0001:00007b30       ??0const_iterator@?$vector@U_PlayerRecvd@@V?$allocator@U_PlayerRecvd@@@std@@@std@@QAE@PAU_PlayerRecvd@@@Z 00408b30 f i packetlog.obj
 0001:00007b40       ??Dconst_iterator@?$vector@U_PlayerRecvd@@V?$allocator@U_PlayerRecvd@@@std@@@std@@QBEABU_PlayerRecvd@@XZ 00408b40 f i packetlog.obj
 0001:00007b50       ??0?$allocator@U_PacketRecvd@@@std@@QAE@ABV01@@Z 00408b50 f i packetlog.obj
 0001:00007b60       ?deallocate@?$allocator@U_PacketRecvd@@@std@@QAEXPAU_PacketRecvd@@I@Z 00408b60 f i packetlog.obj
 0001:00007b70       ??0const_iterator@?$vector@U_PacketRecvd@@V?$allocator@U_PacketRecvd@@@std@@@std@@QAE@PAU_PacketRecvd@@@Z 00408b70 f i packetlog.obj
 0001:00007b80       ??Dconst_iterator@?$vector@U_PacketRecvd@@V?$allocator@U_PacketRecvd@@@std@@@std@@QBEABU_PacketRecvd@@XZ 00408b80 f i packetlog.obj
 0001:00007b90       ?max_size@?$allocator@U?$pair@$$CBKU_PacketRecvd@@@std@@@std@@QBEIXZ 00408b90 f i packetlog.obj
 0001:00007ba0       ?_Min@?$_Tree@V?$_Tmap_traits@KU_PlayerRecvd@@U?$less@K@std@@V?$allocator@U?$pair@$$CBKU_PlayerRecvd@@@std@@@3@$0A@@std@@@std@@KAPAU_Node@?$_Tree_nod@V?$_Tmap_traits@KU_PlayerRecvd@@U?$less@K@std@@V?$allocator@U?$pair@$$CBKU_PlayerRecvd@@@std@@@3@$0A@@std@@@2@PAU342@@Z 00408ba0 f i packetlog.obj
 0001:00007bc0       ?_Root@?$_Tree@V?$_Tmap_traits@KU_PlayerRecvd@@U?$less@K@std@@V?$allocator@U?$pair@$$CBKU_PlayerRecvd@@@std@@@3@$0A@@std@@@std@@IBEAAPAU_Node@?$_Tree_nod@V?$_Tmap_traits@KU_PlayerRecvd@@U?$less@K@std@@V?$allocator@U?$pair@$$CBKU_PlayerRecvd@@@std@@@3@$0A@@std@@@2@XZ 00408bc0 f i packetlog.obj
 0001:00007bd0       ?max_size@?$allocator@U?$pair@$$CBKU_PlayerRecvd@@@std@@@std@@QBEIXZ 00408bd0 f i packetlog.obj
 0001:00007be0       ?_Dec@const_iterator@?$_Tree@V?$_Tmap_traits@KU_PacketRecvd@@U?$less@K@std@@V?$allocator@U?$pair@$$CBKU_PacketRecvd@@@std@@@3@$0A@@std@@@std@@QAEXXZ 00408be0 f i packetlog.obj
 0001:00007c40       ?max_size@?$allocator@U_PlayerRecvd@@@std@@QBEIXZ 00408c40 f i packetlog.obj
 0001:00007c50       ??Yiterator@?$vector@U_PlayerRecvd@@V?$allocator@U_PlayerRecvd@@@std@@@std@@QAEAAV012@H@Z 00408c50 f i packetlog.obj
 0001:00007c70       ??Gconst_iterator@?$vector@U_PlayerRecvd@@V?$allocator@U_PlayerRecvd@@@std@@@std@@QBEHABV012@@Z 00408c70 f i packetlog.obj
 0001:00007c90       ?max_size@?$allocator@U_PacketRecvd@@@std@@QBEIXZ 00408c90 f i packetlog.obj
 0001:00007ca0       ??Yiterator@?$vector@U_PacketRecvd@@V?$allocator@U_PacketRecvd@@@std@@@std@@QAEAAV012@H@Z 00408ca0 f i packetlog.obj
 0001:00007cc0       ??Gconst_iterator@?$vector@U_PacketRecvd@@V?$allocator@U_PacketRecvd@@@std@@@std@@QBEHABV012@@Z 00408cc0 f i packetlog.obj
 0001:00007ce0       ??0_Node@?$_Tree_nod@V?$_Tmap_traits@KU_PacketRecvd@@U?$less@K@std@@V?$allocator@U?$pair@$$CBKU_PacketRecvd@@@std@@@3@$0A@@std@@@std@@QAE@PAU012@00ABU?$pair@$$CBKU_PacketRecvd@@@2@D@Z 00408ce0 f i packetlog.obj
 0001:00007d30       ??0?$_Tmap_traits@KU_PacketRecvd@@U?$less@K@std@@V?$allocator@U?$pair@$$CBKU_PacketRecvd@@@std@@@3@$0A@@std@@QAE@U?$less@K@1@@Z 00408d30 f i packetlog.obj
 0001:00007d40       ?_Max@?$_Tree@V?$_Tmap_traits@KU_PlayerRecvd@@U?$less@K@std@@V?$allocator@U?$pair@$$CBKU_PlayerRecvd@@@std@@@3@$0A@@std@@@std@@KAPAU_Node@?$_Tree_nod@V?$_Tmap_traits@KU_PlayerRecvd@@U?$less@K@std@@V?$allocator@U?$pair@$$CBKU_PlayerRecvd@@@std@@@3@$0A@@std@@@2@PAU342@@Z 00408d40 f i packetlog.obj
 0001:00007d60       ??0?$_Tmap_traits@KU_PlayerRecvd@@U?$less@K@std@@V?$allocator@U?$pair@$$CBKU_PlayerRecvd@@@std@@@3@$0A@@std@@QAE@U?$less@K@1@@Z 00408d60 f i packetlog.obj
 0001:00007d70       ??$?0U?$pair@$$CBKU_PacketRecvd@@@std@@@?$allocator@PAU_Node@?$_Tree_nod@V?$_Tmap_traits@KU_PacketRecvd@@U?$less@K@std@@V?$allocator@U?$pair@$$CBKU_PacketRecvd@@@std@@@3@$0A@@std@@@std@@@std@@QAE@ABV?$allocator@U?$pair@$$CBKU_PacketRecvd@@@std@@@1@@Z 00408d70 f i packetlog.obj
 0001:00007d80       ??$_Destroy@PAU_Node@?$_Tree_nod@V?$_Tmap_traits@KU_PacketRecvd@@U?$less@K@std@@V?$allocator@U?$pair@$$CBKU_PacketRecvd@@@std@@@3@$0A@@std@@@std@@@std@@YAXPAPAU_Node@?$_Tree_nod@V?$_Tmap_traits@KU_PacketRecvd@@U?$less@K@std@@V?$allocator@U?$pair@$$CBKU_PacketRecvd@@@std@@@3@$0A@@std@@@0@@Z 00408d80 f i packetlog.obj
 0001:00007d90       ??$_Destroy@PAU_Node@?$_Tree_nod@V?$_Tmap_traits@KU_PlayerRecvd@@U?$less@K@std@@V?$allocator@U?$pair@$$CBKU_PlayerRecvd@@@std@@@3@$0A@@std@@@std@@@std@@YAXPAPAU_Node@?$_Tree_nod@V?$_Tmap_traits@KU_PlayerRecvd@@U?$less@K@std@@V?$allocator@U?$pair@$$CBKU_PlayerRecvd@@@std@@@3@$0A@@std@@@0@@Z 00408d90 f i packetlog.obj
 0001:00007da0       ??$_Allocate@U_PlayerRecvd@@@std@@YAPAU_PlayerRecvd@@IPAU1@@Z 00408da0 f i packetlog.obj
 0001:00007dc0       ??$fill@PAU_PacketRecvd@@U1@@std@@YAXPAU_PacketRecvd@@0ABU1@@Z 00408dc0 f i packetlog.obj
 0001:00007e00       ??$_Allocate@U_PacketRecvd@@@std@@YAPAU_PacketRecvd@@IPAU1@@Z 00408e00 f i packetlog.obj
 0001:00007e20       ??$?0U?$pair@$$CBKU_PacketRecvd@@@std@@@?$allocator@U_Node@?$_Tree_nod@V?$_Tmap_traits@KU_PacketRecvd@@U?$less@K@std@@V?$allocator@U?$pair@$$CBKU_PacketRecvd@@@std@@@3@$0A@@std@@@std@@@std@@QAE@ABV?$allocator@U?$pair@$$CBKU_PacketRecvd@@@std@@@1@@Z 00408e20 f i packetlog.obj
 0001:00007e30       ??$_Allocate@U_Node@?$_Tree_nod@V?$_Tmap_traits@KU_PacketRecvd@@U?$less@K@std@@V?$allocator@U?$pair@$$CBKU_PacketRecvd@@@std@@@3@$0A@@std@@@std@@@std@@YAPAU_Node@?$_Tree_nod@V?$_Tmap_traits@KU_PacketRecvd@@U?$less@K@std@@V?$allocator@U?$pair@$$CBKU_PacketRecvd@@@std@@@3@$0A@@std@@@0@IPAU120@@Z 00408e30 f i packetlog.obj
 0001:00007e50       ??$_Construct@PAU_Node@?$_Tree_nod@V?$_Tmap_traits@KU_PacketRecvd@@U?$less@K@std@@V?$allocator@U?$pair@$$CBKU_PacketRecvd@@@std@@@3@$0A@@std@@@std@@PAU123@@std@@YAXPAPAU_Node@?$_Tree_nod@V?$_Tmap_traits@KU_PacketRecvd@@U?$less@K@std@@V?$allocator@U?$pair@$$CBKU_PacketRecvd@@@std@@@3@$0A@@std@@@0@ABQAU120@@Z 00408e50 f i packetlog.obj
 0001:00007e70       ??$?0U?$pair@$$CBKU_PlayerRecvd@@@std@@@?$allocator@PAU_Node@?$_Tree_nod@V?$_Tmap_traits@KU_PlayerRecvd@@U?$less@K@std@@V?$allocator@U?$pair@$$CBKU_PlayerRecvd@@@std@@@3@$0A@@std@@@std@@@std@@QAE@ABV?$allocator@U?$pair@$$CBKU_PlayerRecvd@@@std@@@1@@Z 00408e70 f i packetlog.obj
 0001:00007e80       ??$_Allocate@U_Node@?$_Tree_nod@V?$_Tmap_traits@KU_PlayerRecvd@@U?$less@K@std@@V?$allocator@U?$pair@$$CBKU_PlayerRecvd@@@std@@@3@$0A@@std@@@std@@@std@@YAPAU_Node@?$_Tree_nod@V?$_Tmap_traits@KU_PlayerRecvd@@U?$less@K@std@@V?$allocator@U?$pair@$$CBKU_PlayerRecvd@@@std@@@3@$0A@@std@@@0@IPAU120@@Z 00408e80 f i packetlog.obj
 0001:00007ea0       ??$_Destroy@U_Node@?$_Tree_nod@V?$_Tmap_traits@KU_PacketRecvd@@U?$less@K@std@@V?$allocator@U?$pair@$$CBKU_PacketRecvd@@@std@@@3@$0A@@std@@@std@@@std@@YAXPAU_Node@?$_Tree_nod@V?$_Tmap_traits@KU_PacketRecvd@@U?$less@K@std@@V?$allocator@U?$pair@$$CBKU_PacketRecvd@@@std@@@3@$0A@@std@@@0@@Z 00408ea0 f i packetlog.obj
 0001:00007eb0       ??$?0U?$pair@$$CBKU_PlayerRecvd@@@std@@@?$allocator@U_Node@?$_Tree_nod@V?$_Tmap_traits@KU_PlayerRecvd@@U?$less@K@std@@V?$allocator@U?$pair@$$CBKU_PlayerRecvd@@@std@@@3@$0A@@std@@@std@@@std@@QAE@ABV?$allocator@U?$pair@$$CBKU_PlayerRecvd@@@std@@@1@@Z 00408eb0 f i packetlog.obj
 0001:00007ec0       ??$_Construct@PAU_Node@?$_Tree_nod@V?$_Tmap_traits@KU_PlayerRecvd@@U?$less@K@std@@V?$allocator@U?$pair@$$CBKU_PlayerRecvd@@@std@@@3@$0A@@std@@@std@@PAU123@@std@@YAXPAPAU_Node@?$_Tree_nod@V?$_Tmap_traits@KU_PlayerRecvd@@U?$less@K@std@@V?$allocator@U?$pair@$$CBKU_PlayerRecvd@@@std@@@3@$0A@@std@@@0@ABQAU120@@Z 00408ec0 f i packetlog.obj
 0001:00007ee0       ??$_Ptr_cat@PAU_PlayerRecvd@@PAU1@@std@@YA?AU_Nonscalar_ptr_iterator_tag@0@AAPAU_PlayerRecvd@@0@Z 00408ee0 f i packetlog.obj
 0001:00007ef0       ??$_Ptr_cat@PAU_PacketRecvd@@PAU1@@std@@YA?AU_Nonscalar_ptr_iterator_tag@0@AAPAU_PacketRecvd@@0@Z 00408ef0 f i packetlog.obj
 0001:00007f00       ??$_Copy_backward_opt@PAU_PacketRecvd@@PAU1@@std@@YAPAU_PacketRecvd@@PAU1@00U_Nonscalar_ptr_iterator_tag@0@@Z 00408f00 f i packetlog.obj
 0001:00007f40       ??$_Construct@U_PacketRecvd@@U1@@std@@YAXPAU_PacketRecvd@@ABU1@@Z 00408f40 f i packetlog.obj
 0001:00007f60       ??$_Destroy@U_PacketRecvd@@@std@@YAXPAU_PacketRecvd@@@Z 00408f60 f i packetlog.obj
 0001:00007f70       ??Eiterator@?$vector@U_PlayerRecvd@@V?$allocator@U_PlayerRecvd@@@std@@@std@@QAE?AV012@H@Z 00408f70 f i packetlog.obj
 0001:00007f80       ??Fiterator@?$vector@U_PlayerRecvd@@V?$allocator@U_PlayerRecvd@@@std@@@std@@QAEAAV012@XZ 00408f80 f i packetlog.obj
 0001:00007f90       ??Mconst_iterator@?$vector@U_PlayerRecvd@@V?$allocator@U_PlayerRecvd@@@std@@@std@@QBE_NABV012@@Z 00408f90 f i packetlog.obj
 0001:00007fa0       ??Eiterator@?$vector@U_PacketRecvd@@V?$allocator@U_PacketRecvd@@@std@@@std@@QAE?AV012@H@Z 00408fa0 f i packetlog.obj
 0001:00007fb0       ??Fiterator@?$vector@U_PacketRecvd@@V?$allocator@U_PacketRecvd@@@std@@@std@@QAEAAV012@XZ 00408fb0 f i packetlog.obj
 0001:00007fc0       ??Mconst_iterator@?$vector@U_PacketRecvd@@V?$allocator@U_PacketRecvd@@@std@@@std@@QBE_NABV012@@Z 00408fc0 f i packetlog.obj
 0001:00007fd0       ??0?$pair@Viterator@?$vector@U_PlayerRecvd@@V?$allocator@U_PlayerRecvd@@@std@@@std@@V123@@std@@QAE@ABViterator@?$vector@U_PlayerRecvd@@V?$allocator@U_PlayerRecvd@@@std@@@1@0@Z 00408fd0 f i packetlog.obj
 0001:00007ff0       ??0?$pair@Viterator@?$vector@U_PacketRecvd@@V?$allocator@U_PacketRecvd@@@std@@@std@@V123@@std@@QAE@ABViterator@?$vector@U_PacketRecvd@@V?$allocator@U_PacketRecvd@@@std@@@1@0@Z 00408ff0 f i packetlog.obj
 0001:00008010       ??Ziterator@?$vector@U_PlayerRecvd@@V?$allocator@U_PlayerRecvd@@@std@@@std@@QAEAAV012@H@Z 00409010 f i packetlog.obj
 0001:00008030       ??Ziterator@?$vector@U_PacketRecvd@@V?$allocator@U_PacketRecvd@@@std@@@std@@QAEAAV012@H@Z 00409030 f i packetlog.obj
 0001:00008050       ??$_Dist_type@Viterator@?$vector@U_PlayerRecvd@@V?$allocator@U_PlayerRecvd@@@std@@@std@@@std@@YAPAHViterator@?$vector@U_PlayerRecvd@@V?$allocator@U_PlayerRecvd@@@std@@@0@@Z 00409050 f i packetlog.obj
 0001:00008060       ??$_Val_type@Viterator@?$vector@U_PlayerRecvd@@V?$allocator@U_PlayerRecvd@@@std@@@std@@@std@@YAPAU_PlayerRecvd@@Viterator@?$vector@U_PlayerRecvd@@V?$allocator@U_PlayerRecvd@@@std@@@0@@Z 00409060 f i packetlog.obj
 0001:00008070       ??$_Dist_type@Viterator@?$vector@U_PacketRecvd@@V?$allocator@U_PacketRecvd@@@std@@@std@@@std@@YAPAHViterator@?$vector@U_PacketRecvd@@V?$allocator@U_PacketRecvd@@@std@@@0@@Z 00409070 f i packetlog.obj
 0001:00008080       ??$_Val_type@Viterator@?$vector@U_PacketRecvd@@V?$allocator@U_PacketRecvd@@@std@@@std@@@std@@YAPAU_PacketRecvd@@Viterator@?$vector@U_PacketRecvd@@V?$allocator@U_PacketRecvd@@@std@@@0@@Z 00409080 f i packetlog.obj
 0001:00008090       ??$_Iter_cat@Viterator@?$vector@U_PlayerRecvd@@V?$allocator@U_PlayerRecvd@@@std@@@std@@@std@@YA?AUrandom_access_iterator_tag@0@ABViterator@?$vector@U_PlayerRecvd@@V?$allocator@U_PlayerRecvd@@@std@@@0@@Z 00409090 f i packetlog.obj
 0001:000080a0       ??$swap@U_PacketRecvd@@@std@@YAXAAU_PacketRecvd@@0@Z 004090a0 f i packetlog.obj
 0001:000080e0       ??$_Iter_cat@Viterator@?$vector@U_PacketRecvd@@V?$allocator@U_PacketRecvd@@@std@@@std@@@std@@YA?AUrandom_access_iterator_tag@0@ABViterator@?$vector@U_PacketRecvd@@V?$allocator@U_PacketRecvd@@@std@@@0@@Z 004090e0 f i packetlog.obj
 0001:000080f0       ??9const_iterator@?$vector@U_PlayerRecvd@@V?$allocator@U_PlayerRecvd@@@std@@@std@@QBE_NABV012@@Z 004090f0 f i packetlog.obj
 0001:00008110       ??9const_iterator@?$vector@U_PacketRecvd@@V?$allocator@U_PacketRecvd@@@std@@@std@@QBE_NABV012@@Z 00409110 f i packetlog.obj
 0001:00008130       ?_Key@?$_Tree@V?$_Tmap_traits@KU_PacketRecvd@@U?$less@K@std@@V?$allocator@U?$pair@$$CBKU_PacketRecvd@@@std@@@3@$0A@@std@@@std@@KAABKPAU_Node@?$_Tree_nod@V?$_Tmap_traits@KU_PacketRecvd@@U?$less@K@std@@V?$allocator@U?$pair@$$CBKU_PacketRecvd@@@std@@@3@$0A@@std@@@2@@Z 00409130 f i packetlog.obj
 0001:00008140       ?get_allocator@?$_Tree@V?$_Tmap_traits@KU_PacketRecvd@@U?$less@K@std@@V?$allocator@U?$pair@$$CBKU_PacketRecvd@@@std@@@3@$0A@@std@@@std@@QBE?AV?$allocator@U?$pair@$$CBKU_PacketRecvd@@@std@@@2@XZ 00409140 f i packetlog.obj
 0001:00008150       ?_Root@?$_Tree@V?$_Tmap_traits@KU_PacketRecvd@@U?$less@K@std@@V?$allocator@U?$pair@$$CBKU_PacketRecvd@@@std@@@3@$0A@@std@@@std@@IAEAAPAU_Node@?$_Tree_nod@V?$_Tmap_traits@KU_PacketRecvd@@U?$less@K@std@@V?$allocator@U?$pair@$$CBKU_PacketRecvd@@@std@@@3@$0A@@std@@@2@XZ 00409150 f i packetlog.obj
 0001:00008160       ?_Key@?$_Tree@V?$_Tmap_traits@KU_PlayerRecvd@@U?$less@K@std@@V?$allocator@U?$pair@$$CBKU_PlayerRecvd@@@std@@@3@$0A@@std@@@std@@KAABKPAU_Node@?$_Tree_nod@V?$_Tmap_traits@KU_PlayerRecvd@@U?$less@K@std@@V?$allocator@U?$pair@$$CBKU_PlayerRecvd@@@std@@@3@$0A@@std@@@2@@Z 00409160 f i packetlog.obj
 0001:00008170       ?_Root@?$_Tree@V?$_Tmap_traits@KU_PlayerRecvd@@U?$less@K@std@@V?$allocator@U?$pair@$$CBKU_PlayerRecvd@@@std@@@3@$0A@@std@@@std@@IAEAAPAU_Node@?$_Tree_nod@V?$_Tmap_traits@KU_PlayerRecvd@@U?$less@K@std@@V?$allocator@U?$pair@$$CBKU_PlayerRecvd@@@std@@@3@$0A@@std@@@2@XZ 00409170 f i packetlog.obj
 0001:00008180       ??0iterator@?$_Tree@V?$_Tmap_traits@KU_PlayerRecvd@@U?$less@K@std@@V?$allocator@U?$pair@$$CBKU_PlayerRecvd@@@std@@@3@$0A@@std@@@std@@QAE@PAU_Node@?$_Tree_nod@V?$_Tmap_traits@KU_PlayerRecvd@@U?$less@K@std@@V?$allocator@U?$pair@$$CBKU_PlayerRecvd@@@std@@@3@$0A@@std@@@2@@Z 00409180 f i packetlog.obj
 0001:00008190       ??Diterator@?$_Tree@V?$_Tmap_traits@KU_PlayerRecvd@@U?$less@K@std@@V?$allocator@U?$pair@$$CBKU_PlayerRecvd@@@std@@@3@$0A@@std@@@std@@QBEAAU?$pair@$$CBKU_PlayerRecvd@@@2@XZ 00409190 f i packetlog.obj
 0001:000081a0       ??0iterator@?$_Tree@V?$_Tmap_traits@KU_PacketRecvd@@U?$less@K@std@@V?$allocator@U?$pair@$$CBKU_PacketRecvd@@@std@@@3@$0A@@std@@@std@@QAE@PAU_Node@?$_Tree_nod@V?$_Tmap_traits@KU_PacketRecvd@@U?$less@K@std@@V?$allocator@U?$pair@$$CBKU_PacketRecvd@@@std@@@3@$0A@@std@@@2@@Z 004091a0 f i packetlog.obj
 0001:000081b0       ??Diterator@?$_Tree@V?$_Tmap_traits@KU_PacketRecvd@@U?$less@K@std@@V?$allocator@U?$pair@$$CBKU_PacketRecvd@@@std@@@3@$0A@@std@@@std@@QBEAAU?$pair@$$CBKU_PacketRecvd@@@2@XZ 004091b0 f i packetlog.obj
 0001:000081c0       ??Econst_iterator@?$_Tree@V?$_Tmap_traits@KU_PacketRecvd@@U?$less@K@std@@V?$allocator@U?$pair@$$CBKU_PacketRecvd@@@std@@@3@$0A@@std@@@std@@QAEAAV012@XZ 004091c0 f i packetlog.obj
 0001:000081d0       ??0?$_Vector_val@U_PlayerRecvd@@V?$allocator@U_PlayerRecvd@@@std@@@std@@IAE@V?$allocator@U_PlayerRecvd@@@1@@Z 004091d0 f i packetlog.obj
 0001:000081e0       ??0iterator@?$vector@U_PlayerRecvd@@V?$allocator@U_PlayerRecvd@@@std@@@std@@QAE@PAU_PlayerRecvd@@@Z 004091e0 f i packetlog.obj
 0001:000081f0       ??Diterator@?$vector@U_PlayerRecvd@@V?$allocator@U_PlayerRecvd@@@std@@@std@@QBEAAU_PlayerRecvd@@XZ 004091f0 f i packetlog.obj
 0001:00008200       ??0?$_Vector_val@U_PacketRecvd@@V?$allocator@U_PacketRecvd@@@std@@@std@@IAE@V?$allocator@U_PacketRecvd@@@1@@Z 00409200 f i packetlog.obj
 0001:00008210       ??0iterator@?$vector@U_PacketRecvd@@V?$allocator@U_PacketRecvd@@@std@@@std@@QAE@PAU_PacketRecvd@@@Z 00409210 f i packetlog.obj
 0001:00008220       ??Diterator@?$vector@U_PacketRecvd@@V?$allocator@U_PacketRecvd@@@std@@@std@@QBEAAU_PacketRecvd@@XZ 00409220 f i packetlog.obj
 0001:00008230       ?max_size@?$_Tree@V?$_Tmap_traits@KU_PacketRecvd@@U?$less@K@std@@V?$allocator@U?$pair@$$CBKU_PacketRecvd@@@std@@@3@$0A@@std@@@std@@QBEIXZ 00409230 f i packetlog.obj
 0001:00008240       ?_Lbound@?$_Tree@V?$_Tmap_traits@KU_PacketRecvd@@U?$less@K@std@@V?$allocator@U?$pair@$$CBKU_PacketRecvd@@@std@@@3@$0A@@std@@@std@@IBEPAU_Node@?$_Tree_nod@V?$_Tmap_traits@KU_PacketRecvd@@U?$less@K@std@@V?$allocator@U?$pair@$$CBKU_PacketRecvd@@@std@@@3@$0A@@std@@@2@ABK@Z 00409240 f i packetlog.obj
 0001:00008270       ?_Lrotate@?$_Tree@V?$_Tmap_traits@KU_PacketRecvd@@U?$less@K@std@@V?$allocator@U?$pair@$$CBKU_PacketRecvd@@@std@@@3@$0A@@std@@@std@@IAEXPAU_Node@?$_Tree_nod@V?$_Tmap_traits@KU_PacketRecvd@@U?$less@K@std@@V?$allocator@U?$pair@$$CBKU_PacketRecvd@@@std@@@3@$0A@@std@@@2@@Z 00409270 f i packetlog.obj
 0001:000082d0       ?_Rrotate@?$_Tree@V?$_Tmap_traits@KU_PacketRecvd@@U?$less@K@std@@V?$allocator@U?$pair@$$CBKU_PacketRecvd@@@std@@@3@$0A@@std@@@std@@IAEXPAU_Node@?$_Tree_nod@V?$_Tmap_traits@KU_PacketRecvd@@U?$less@K@std@@V?$allocator@U?$pair@$$CBKU_PacketRecvd@@@std@@@3@$0A@@std@@@2@@Z 004092d0 f i packetlog.obj
 0001:00008330       ?destroy@?$allocator@PAU_Node@?$_Tree_nod@V?$_Tmap_traits@KU_PacketRecvd@@U?$less@K@std@@V?$allocator@U?$pair@$$CBKU_PacketRecvd@@@std@@@3@$0A@@std@@@std@@@std@@QAEXPAPAU_Node@?$_Tree_nod@V?$_Tmap_traits@KU_PacketRecvd@@U?$less@K@std@@V?$allocator@U?$pair@$$CBKU_PacketRecvd@@@std@@@3@$0A@@std@@@2@@Z 00409330 f i packetlog.obj
 0001:00008340       ?max_size@?$_Tree@V?$_Tmap_traits@KU_PlayerRecvd@@U?$less@K@std@@V?$allocator@U?$pair@$$CBKU_PlayerRecvd@@@std@@@3@$0A@@std@@@std@@QBEIXZ 00409340 f i packetlog.obj
 0001:00008350       ?_Lbound@?$_Tree@V?$_Tmap_traits@KU_PlayerRecvd@@U?$less@K@std@@V?$allocator@U?$pair@$$CBKU_PlayerRecvd@@@std@@@3@$0A@@std@@@std@@IBEPAU_Node@?$_Tree_nod@V?$_Tmap_traits@KU_PlayerRecvd@@U?$less@K@std@@V?$allocator@U?$pair@$$CBKU_PlayerRecvd@@@std@@@3@$0A@@std@@@2@ABK@Z 00409350 f i packetlog.obj
 0001:00008380       ?_Lrotate@?$_Tree@V?$_Tmap_traits@KU_PlayerRecvd@@U?$less@K@std@@V?$allocator@U?$pair@$$CBKU_PlayerRecvd@@@std@@@3@$0A@@std@@@std@@IAEXPAU_Node@?$_Tree_nod@V?$_Tmap_traits@KU_PlayerRecvd@@U?$less@K@std@@V?$allocator@U?$pair@$$CBKU_PlayerRecvd@@@std@@@3@$0A@@std@@@2@@Z 00409380 f i packetlog.obj
 0001:000083e0       ?_Rrotate@?$_Tree@V?$_Tmap_traits@KU_PlayerRecvd@@U?$less@K@std@@V?$allocator@U?$pair@$$CBKU_PlayerRecvd@@@std@@@3@$0A@@std@@@std@@IAEXPAU_Node@?$_Tree_nod@V?$_Tmap_traits@KU_PlayerRecvd@@U?$less@K@std@@V?$allocator@U?$pair@$$CBKU_PlayerRecvd@@@std@@@3@$0A@@std@@@2@@Z 004093e0 f i packetlog.obj
 0001:00008440       ?destroy@?$allocator@PAU_Node@?$_Tree_nod@V?$_Tmap_traits@KU_PlayerRecvd@@U?$less@K@std@@V?$allocator@U?$pair@$$CBKU_PlayerRecvd@@@std@@@3@$0A@@std@@@std@@@std@@QAEXPAPAU_Node@?$_Tree_nod@V?$_Tmap_traits@KU_PlayerRecvd@@U?$less@K@std@@V?$allocator@U?$pair@$$CBKU_PlayerRecvd@@@std@@@3@$0A@@std@@@2@@Z 00409440 f i packetlog.obj
 0001:00008450       ?_Inc@const_iterator@?$_Tree@V?$_Tmap_traits@KU_PlayerRecvd@@U?$less@K@std@@V?$allocator@U?$pair@$$CBKU_PlayerRecvd@@@std@@@3@$0A@@std@@@std@@QAEXXZ 00409450 f i packetlog.obj
 0001:000084b0       ??Fconst_iterator@?$_Tree@V?$_Tmap_traits@KU_PacketRecvd@@U?$less@K@std@@V?$allocator@U?$pair@$$CBKU_PacketRecvd@@@std@@@3@$0A@@std@@@std@@QAEAAV012@XZ 004094b0 f i packetlog.obj
 0001:000084c0       ?max_size@?$vector@U_PlayerRecvd@@V?$allocator@U_PlayerRecvd@@@std@@@std@@QBEIXZ 004094c0 f i packetlog.obj
 0001:000084d0       ?allocate@?$allocator@U_PlayerRecvd@@@std@@QAEPAU_PlayerRecvd@@I@Z 004094d0 f i packetlog.obj
 0001:000084f0       ??Hiterator@?$vector@U_PlayerRecvd@@V?$allocator@U_PlayerRecvd@@@std@@@std@@QBE?AV012@H@Z 004094f0 f i packetlog.obj
 0001:00008510       ??Giterator@?$vector@U_PlayerRecvd@@V?$allocator@U_PlayerRecvd@@@std@@@std@@QBEHABVconst_iterator@12@@Z 00409510 f i packetlog.obj
 0001:00008530       ?max_size@?$vector@U_PacketRecvd@@V?$allocator@U_PacketRecvd@@@std@@@std@@QBEIXZ 00409530 f i packetlog.obj
 0001:00008540       ?allocate@?$allocator@U_PacketRecvd@@@std@@QAEPAU_PacketRecvd@@I@Z 00409540 f i packetlog.obj
 0001:00008560       ??Hiterator@?$vector@U_PacketRecvd@@V?$allocator@U_PacketRecvd@@@std@@@std@@QBE?AV012@H@Z 00409560 f i packetlog.obj
 0001:00008580       ??Giterator@?$vector@U_PacketRecvd@@V?$allocator@U_PacketRecvd@@@std@@@std@@QBEHABVconst_iterator@12@@Z 00409580 f i packetlog.obj
 0001:000085a0       ??0?$_Tree_nod@V?$_Tmap_traits@KU_PacketRecvd@@U?$less@K@std@@V?$allocator@U?$pair@$$CBKU_PacketRecvd@@@std@@@3@$0A@@std@@@std@@IAE@ABU?$less@K@1@V?$allocator@U?$pair@$$CBKU_PacketRecvd@@@std@@@1@@Z 004095a0 f i packetlog.obj
 0001:000085b0       ?allocate@?$allocator@U_Node@?$_Tree_nod@V?$_Tmap_traits@KU_PacketRecvd@@U?$less@K@std@@V?$allocator@U?$pair@$$CBKU_PacketRecvd@@@std@@@3@$0A@@std@@@std@@@std@@QAEPAU_Node@?$_Tree_nod@V?$_Tmap_traits@KU_PacketRecvd@@U?$less@K@std@@V?$allocator@U?$pair@$$CBKU_PacketRecvd@@@std@@@3@$0A@@std@@@2@I@Z 004095b0 f i packetlog.obj
 0001:000085d0       ?construct@?$allocator@PAU_Node@?$_Tree_nod@V?$_Tmap_traits@KU_PacketRecvd@@U?$less@K@std@@V?$allocator@U?$pair@$$CBKU_PacketRecvd@@@std@@@3@$0A@@std@@@std@@@std@@QAEXPAPAU_Node@?$_Tree_nod@V?$_Tmap_traits@KU_PacketRecvd@@U?$less@K@std@@V?$allocator@U?$pair@$$CBKU_PacketRecvd@@@std@@@3@$0A@@std@@@2@ABQAU342@@Z 004095d0 f i packetlog.obj
 0001:000085f0       ?allocate@?$allocator@U_Node@?$_Tree_nod@V?$_Tmap_traits@KU_PlayerRecvd@@U?$less@K@std@@V?$allocator@U?$pair@$$CBKU_PlayerRecvd@@@std@@@3@$0A@@std@@@std@@@std@@QAEPAU_Node@?$_Tree_nod@V?$_Tmap_traits@KU_PlayerRecvd@@U?$less@K@std@@V?$allocator@U?$pair@$$CBKU_PlayerRecvd@@@std@@@3@$0A@@std@@@2@I@Z 004095f0 f i packetlog.obj
 0001:00008610       ?_Dec@const_iterator@?$_Tree@V?$_Tmap_traits@KU_PlayerRecvd@@U?$less@K@std@@V?$allocator@U?$pair@$$CBKU_PlayerRecvd@@@std@@@3@$0A@@std@@@std@@QAEXXZ 00409610 f i packetlog.obj
 0001:00008670       ?destroy@?$allocator@U_Node@?$_Tree_nod@V?$_Tmap_traits@KU_PacketRecvd@@U?$less@K@std@@V?$allocator@U?$pair@$$CBKU_PacketRecvd@@@std@@@3@$0A@@std@@@std@@@std@@QAEXPAU_Node@?$_Tree_nod@V?$_Tmap_traits@KU_PacketRecvd@@U?$less@K@std@@V?$allocator@U?$pair@$$CBKU_PacketRecvd@@@std@@@3@$0A@@std@@@2@@Z 00409670 f i packetlog.obj
 0001:00008680       ??0?$_Tree_nod@V?$_Tmap_traits@KU_PlayerRecvd@@U?$less@K@std@@V?$allocator@U?$pair@$$CBKU_PlayerRecvd@@@std@@@3@$0A@@std@@@std@@IAE@ABU?$less@K@1@V?$allocator@U?$pair@$$CBKU_PlayerRecvd@@@std@@@1@@Z 00409680 f i packetlog.obj
 0001:00008690       ?construct@?$allocator@PAU_Node@?$_Tree_nod@V?$_Tmap_traits@KU_PlayerRecvd@@U?$less@K@std@@V?$allocator@U?$pair@$$CBKU_PlayerRecvd@@@std@@@3@$0A@@std@@@std@@@std@@QAEXPAPAU_Node@?$_Tree_nod@V?$_Tmap_traits@KU_PlayerRecvd@@U?$less@K@std@@V?$allocator@U?$pair@$$CBKU_PlayerRecvd@@@std@@@3@$0A@@std@@@2@ABQAU342@@Z 00409690 f i packetlog.obj
 0001:000086b0       ??$copy_backward@PAU_PacketRecvd@@PAU1@@std@@YAPAU_PacketRecvd@@PAU1@00@Z 004096b0 f i packetlog.obj
 0001:000086d0       ?construct@?$allocator@U_PacketRecvd@@@std@@QAEXPAU_PacketRecvd@@ABU3@@Z 004096d0 f i packetlog.obj
 0001:000086f0       ?destroy@?$allocator@U_PacketRecvd@@@std@@QAEXPAU_PacketRecvd@@@Z 004096f0 f i packetlog.obj
 0001:00008700       ??$_Uninit_copy@PAU_PacketRecvd@@PAU1@V?$allocator@U_PacketRecvd@@@std@@@std@@YAPAU_PacketRecvd@@PAU1@00AAV?$allocator@U_PacketRecvd@@@0@U_Nonscalar_ptr_iterator_tag@0@@Z 00409700 f i packetlog.obj
 0001:00008740       ??Giterator@?$vector@U_PlayerRecvd@@V?$allocator@U_PlayerRecvd@@@std@@@std@@QBE?AV012@H@Z 00409740 f i packetlog.obj
 0001:00008760       ??Giterator@?$vector@U_PacketRecvd@@V?$allocator@U_PacketRecvd@@@std@@@std@@QBE?AV012@H@Z 00409760 f i packetlog.obj
 0001:00008780       ??$iter_swap@Viterator@?$vector@U_PacketRecvd@@V?$allocator@U_PacketRecvd@@@std@@@std@@V123@@std@@YAXViterator@?$vector@U_PacketRecvd@@V?$allocator@U_PacketRecvd@@@std@@@0@0@Z 00409780 f i packetlog.obj
 0001:000087c0       ??$_Med3@Viterator@?$vector@U_PacketRecvd@@V?$allocator@U_PacketRecvd@@@std@@@std@@P6A_NAAU_PacketRecvd@@0@Z@std@@YAXViterator@?$vector@U_PacketRecvd@@V?$allocator@U_PacketRecvd@@@std@@@0@00P6A_NAAU_PacketRecvd@@1@Z@Z 004097c0 f i packetlog.obj
 0001:00008890       ??$_Push_heap@Viterator@?$vector@U_PacketRecvd@@V?$allocator@U_PacketRecvd@@@std@@@std@@HU_PacketRecvd@@P6A_NAAU4@0@Z@std@@YAXViterator@?$vector@U_PacketRecvd@@V?$allocator@U_PacketRecvd@@@std@@@0@HHU_PacketRecvd@@P6A_NAAU3@2@Z@Z 00409890 f i packetlog.obj
 0001:00008920       ??$_Rotate@Viterator@?$vector@U_PacketRecvd@@V?$allocator@U_PacketRecvd@@@std@@@std@@HU_PacketRecvd@@@std@@YAXViterator@?$vector@U_PacketRecvd@@V?$allocator@U_PacketRecvd@@@std@@@0@00PAHPAU_PacketRecvd@@@Z 00409920 f i packetlog.obj
 0001:00008a50       ?begin@?$_Tree@V?$_Tmap_traits@KU_PacketRecvd@@U?$less@K@std@@V?$allocator@U?$pair@$$CBKU_PacketRecvd@@@std@@@3@$0A@@std@@@std@@QAE?AViterator@12@XZ 00409a50 f i packetlog.obj
 0001:00008a60       ?end@?$_Tree@V?$_Tmap_traits@KU_PacketRecvd@@U?$less@K@std@@V?$allocator@U?$pair@$$CBKU_PacketRecvd@@@std@@@3@$0A@@std@@@std@@QAE?AViterator@12@XZ 00409a60 f i packetlog.obj
 0001:00008a70       ?begin@?$_Tree@V?$_Tmap_traits@KU_PlayerRecvd@@U?$less@K@std@@V?$allocator@U?$pair@$$CBKU_PlayerRecvd@@@std@@@3@$0A@@std@@@std@@QAE?AViterator@12@XZ 00409a70 f i packetlog.obj
 0001:00008a80       ?end@?$_Tree@V?$_Tmap_traits@KU_PlayerRecvd@@U?$less@K@std@@V?$allocator@U?$pair@$$CBKU_PlayerRecvd@@@std@@@3@$0A@@std@@@std@@QAE?AViterator@12@XZ 00409a80 f i packetlog.obj
 0001:00008a90       ??Citerator@?$_Tree@V?$_Tmap_traits@KU_PlayerRecvd@@U?$less@K@std@@V?$allocator@U?$pair@$$CBKU_PlayerRecvd@@@std@@@3@$0A@@std@@@std@@QBEPAU?$pair@$$CBKU_PlayerRecvd@@@2@XZ 00409a90 f i packetlog.obj
 0001:00008aa0       ??Citerator@?$_Tree@V?$_Tmap_traits@KU_PacketRecvd@@U?$less@K@std@@V?$allocator@U?$pair@$$CBKU_PacketRecvd@@@std@@@3@$0A@@std@@@std@@QBEPAU?$pair@$$CBKU_PacketRecvd@@@2@XZ 00409aa0 f i packetlog.obj
 0001:00008ab0       ??Eiterator@?$_Tree@V?$_Tmap_traits@KU_PacketRecvd@@U?$less@K@std@@V?$allocator@U?$pair@$$CBKU_PacketRecvd@@@std@@@3@$0A@@std@@@std@@QAEAAV012@XZ 00409ab0 f i packetlog.obj
 0001:00008ac0       ?begin@?$vector@U_PlayerRecvd@@V?$allocator@U_PlayerRecvd@@@std@@@std@@QAE?AViterator@12@XZ 00409ac0 f i packetlog.obj
 0001:00008ad0       ?end@?$vector@U_PlayerRecvd@@V?$allocator@U_PlayerRecvd@@@std@@@std@@QAE?AViterator@12@XZ 00409ad0 f i packetlog.obj
 0001:00008ae0       ??Citerator@?$vector@U_PlayerRecvd@@V?$allocator@U_PlayerRecvd@@@std@@@std@@QBEPAU_PlayerRecvd@@XZ 00409ae0 f i packetlog.obj
 0001:00008af0       ?begin@?$vector@U_PacketRecvd@@V?$allocator@U_PacketRecvd@@@std@@@std@@QAE?AViterator@12@XZ 00409af0 f i packetlog.obj
 0001:00008b00       ?end@?$vector@U_PacketRecvd@@V?$allocator@U_PacketRecvd@@@std@@@std@@QAE?AViterator@12@XZ 00409b00 f i packetlog.obj
 0001:00008b10       ??Citerator@?$vector@U_PacketRecvd@@V?$allocator@U_PacketRecvd@@@std@@@std@@QBEPAU_PacketRecvd@@XZ 00409b10 f i packetlog.obj
 0001:00008b20       ?lower_bound@?$_Tree@V?$_Tmap_traits@KU_PacketRecvd@@U?$less@K@std@@V?$allocator@U?$pair@$$CBKU_PacketRecvd@@@std@@@3@$0A@@std@@@std@@QAE?AViterator@12@ABK@Z 00409b20 f i packetlog.obj
 0001:00008b60       ?lower_bound@?$_Tree@V?$_Tmap_traits@KU_PlayerRecvd@@U?$less@K@std@@V?$allocator@U?$pair@$$CBKU_PlayerRecvd@@@std@@@3@$0A@@std@@@std@@QAE?AViterator@12@ABK@Z 00409b60 f i packetlog.obj
 0001:00008ba0       ??Econst_iterator@?$_Tree@V?$_Tmap_traits@KU_PlayerRecvd@@U?$less@K@std@@V?$allocator@U?$pair@$$CBKU_PlayerRecvd@@@std@@@3@$0A@@std@@@std@@QAEAAV012@XZ 00409ba0 f i packetlog.obj
 0001:00008bb0       ??Fiterator@?$_Tree@V?$_Tmap_traits@KU_PacketRecvd@@U?$less@K@std@@V?$allocator@U?$pair@$$CBKU_PacketRecvd@@@std@@@3@$0A@@std@@@std@@QAEAAV012@XZ 00409bb0 f i packetlog.obj
 0001:00008bc0       ?_Buynode@?$_Tree@V?$_Tmap_traits@KU_PacketRecvd@@U?$less@K@std@@V?$allocator@U?$pair@$$CBKU_PacketRecvd@@@std@@@3@$0A@@std@@@std@@IAEPAU_Node@?$_Tree_nod@V?$_Tmap_traits@KU_PacketRecvd@@U?$less@K@std@@V?$allocator@U?$pair@$$CBKU_PacketRecvd@@@std@@@3@$0A@@std@@@2@XZ 00409bc0 f i packetlog.obj
 0001:00008c00       ?_Buynode@?$_Tree@V?$_Tmap_traits@KU_PacketRecvd@@U?$less@K@std@@V?$allocator@U?$pair@$$CBKU_PacketRecvd@@@std@@@3@$0A@@std@@@std@@IAEPAU_Node@?$_Tree_nod@V?$_Tmap_traits@KU_PacketRecvd@@U?$less@K@std@@V?$allocator@U?$pair@$$CBKU_PacketRecvd@@@std@@@3@$0A@@std@@@2@PAU342@00ABU?$pair@$$CBKU_PacketRecvd@@@2@D@Z 00409c00 f i packetlog.obj
 0001:00008c50       ??0?$_Tree_ptr@V?$_Tmap_traits@KU_PacketRecvd@@U?$less@K@std@@V?$allocator@U?$pair@$$CBKU_PacketRecvd@@@std@@@3@$0A@@std@@@std@@IAE@ABU?$less@K@1@V?$allocator@U?$pair@$$CBKU_PacketRecvd@@@std@@@1@@Z 00409c50 f i packetlog.obj
 0001:00008c60       ??Fconst_iterator@?$_Tree@V?$_Tmap_traits@KU_PlayerRecvd@@U?$less@K@std@@V?$allocator@U?$pair@$$CBKU_PlayerRecvd@@@std@@@3@$0A@@std@@@std@@QAEAAV012@XZ 00409c60 f i packetlog.obj
 0001:00008c70       ?_Erase@?$_Tree@V?$_Tmap_traits@KU_PacketRecvd@@U?$less@K@std@@V?$allocator@U?$pair@$$CBKU_PacketRecvd@@@std@@@3@$0A@@std@@@std@@IAEXPAU_Node@?$_Tree_nod@V?$_Tmap_traits@KU_PacketRecvd@@U?$less@K@std@@V?$allocator@U?$pair@$$CBKU_PacketRecvd@@@std@@@3@$0A@@std@@@2@@Z 00409c70 f i packetlog.obj
 0001:00008cb0       ?_Buynode@?$_Tree@V?$_Tmap_traits@KU_PlayerRecvd@@U?$less@K@std@@V?$allocator@U?$pair@$$CBKU_PlayerRecvd@@@std@@@3@$0A@@std@@@std@@IAEPAU_Node@?$_Tree_nod@V?$_Tmap_traits@KU_PlayerRecvd@@U?$less@K@std@@V?$allocator@U?$pair@$$CBKU_PlayerRecvd@@@std@@@3@$0A@@std@@@2@XZ 00409cb0 f i packetlog.obj
 0001:00008cf0       ??0?$_Tree_ptr@V?$_Tmap_traits@KU_PlayerRecvd@@U?$less@K@std@@V?$allocator@U?$pair@$$CBKU_PlayerRecvd@@@std@@@3@$0A@@std@@@std@@IAE@ABU?$less@K@1@V?$allocator@U?$pair@$$CBKU_PlayerRecvd@@@std@@@1@@Z 00409cf0 f i packetlog.obj
 0001:00008d00       ??Eiterator@?$_Tree@V?$_Tmap_traits@KU_PacketRecvd@@U?$less@K@std@@V?$allocator@U?$pair@$$CBKU_PacketRecvd@@@std@@@3@$0A@@std@@@std@@QAE?AV012@H@Z 00409d00 f i packetlog.obj
 0001:00008d20       ??$_Uninit_fill_n@PAU_PacketRecvd@@IU1@V?$allocator@U_PacketRecvd@@@std@@@std@@YAXPAU_PacketRecvd@@IABU1@AAV?$allocator@U_PacketRecvd@@@0@U_Nonscalar_ptr_iterator_tag@0@@Z 00409d20 f i packetlog.obj
 0001:00008d60       ??$_Destroy_range@U_PacketRecvd@@V?$allocator@U_PacketRecvd@@@std@@@std@@YAXPAU_PacketRecvd@@0AAV?$allocator@U_PacketRecvd@@@0@U_Nonscalar_ptr_iterator_tag@0@@Z 00409d60 f i packetlog.obj
 0001:00008d70       ??$_Uninitialized_copy@PAU_PacketRecvd@@PAU1@V?$allocator@U_PacketRecvd@@@std@@@std@@YAPAU_PacketRecvd@@PAU1@00AAV?$allocator@U_PacketRecvd@@@0@@Z 00409d70 f i packetlog.obj
 0001:00008da0       ??$_Median@Viterator@?$vector@U_PacketRecvd@@V?$allocator@U_PacketRecvd@@@std@@@std@@P6A_NAAU_PacketRecvd@@0@Z@std@@YAXViterator@?$vector@U_PacketRecvd@@V?$allocator@U_PacketRecvd@@@std@@@0@00P6A_NAAU_PacketRecvd@@1@Z@Z 00409da0 f i packetlog.obj
 0001:00008e50       ??$_Adjust_heap@Viterator@?$vector@U_PacketRecvd@@V?$allocator@U_PacketRecvd@@@std@@@std@@HU_PacketRecvd@@P6A_NAAU4@0@Z@std@@YAXViterator@?$vector@U_PacketRecvd@@V?$allocator@U_PacketRecvd@@@std@@@0@HHU_PacketRecvd@@P6A_NAAU3@2@Z@Z 00409e50 f i packetlog.obj
 0001:00008f10       ??$_Rotate@Viterator@?$vector@U_PacketRecvd@@V?$allocator@U_PacketRecvd@@@std@@@std@@@std@@YAXViterator@?$vector@U_PacketRecvd@@V?$allocator@U_PacketRecvd@@@std@@@0@00Urandom_access_iterator_tag@0@@Z 00409f10 f i packetlog.obj
 0001:00008f30       ??$_Pop_heap@Viterator@?$vector@U_PacketRecvd@@V?$allocator@U_PacketRecvd@@@std@@@std@@HU_PacketRecvd@@P6A_NAAU4@0@Z@std@@YAXViterator@?$vector@U_PacketRecvd@@V?$allocator@U_PacketRecvd@@@std@@@0@00U_PacketRecvd@@P6A_NAAU3@2@ZPAH@Z 00409f30 f i packetlog.obj
 0001:00008f90       ?find@?$_Tree@V?$_Tmap_traits@KU_PacketRecvd@@U?$less@K@std@@V?$allocator@U?$pair@$$CBKU_PacketRecvd@@@std@@@3@$0A@@std@@@std@@QAE?AViterator@12@ABK@Z 00409f90 f i packetlog.obj
 0001:00009000       ?find@?$_Tree@V?$_Tmap_traits@KU_PlayerRecvd@@U?$less@K@std@@V?$allocator@U?$pair@$$CBKU_PlayerRecvd@@@std@@@3@$0A@@std@@@std@@QAE?AViterator@12@ABK@Z 0040a000 f i packetlog.obj
 0001:00009070       ??Eiterator@?$_Tree@V?$_Tmap_traits@KU_PlayerRecvd@@U?$less@K@std@@V?$allocator@U?$pair@$$CBKU_PlayerRecvd@@@std@@@3@$0A@@std@@@std@@QAEAAV012@XZ 0040a070 f i packetlog.obj
 0001:00009080       ?_Init@?$_Tree@V?$_Tmap_traits@KU_PacketRecvd@@U?$less@K@std@@V?$allocator@U?$pair@$$CBKU_PacketRecvd@@@std@@@3@$0A@@std@@@std@@IAEXXZ 0040a080 f i packetlog.obj
 0001:000090b0       ??0?$_Tree_val@V?$_Tmap_traits@KU_PacketRecvd@@U?$less@K@std@@V?$allocator@U?$pair@$$CBKU_PacketRecvd@@@std@@@3@$0A@@std@@@std@@IAE@ABU?$less@K@1@V?$allocator@U?$pair@$$CBKU_PacketRecvd@@@std@@@1@@Z 0040a0b0 f i packetlog.obj
 0001:000090c0       ??Fiterator@?$_Tree@V?$_Tmap_traits@KU_PlayerRecvd@@U?$less@K@std@@V?$allocator@U?$pair@$$CBKU_PlayerRecvd@@@std@@@3@$0A@@std@@@std@@QAEAAV012@XZ 0040a0c0 f i packetlog.obj
 0001:000090d0       ?_Copy@?$_Tree@V?$_Tmap_traits@KU_PacketRecvd@@U?$less@K@std@@V?$allocator@U?$pair@$$CBKU_PacketRecvd@@@std@@@3@$0A@@std@@@std@@IAEPAU_Node@?$_Tree_nod@V?$_Tmap_traits@KU_PacketRecvd@@U?$less@K@std@@V?$allocator@U?$pair@$$CBKU_PacketRecvd@@@std@@@3@$0A@@std@@@2@PAU342@0@Z 0040a0d0 f i packetlog.obj
 0001:00009180       ?_Init@?$_Tree@V?$_Tmap_traits@KU_PlayerRecvd@@U?$less@K@std@@V?$allocator@U?$pair@$$CBKU_PlayerRecvd@@@std@@@3@$0A@@std@@@std@@IAEXXZ 0040a180 f i packetlog.obj
 0001:000091b0       ??0?$_Tree_val@V?$_Tmap_traits@KU_PlayerRecvd@@U?$less@K@std@@V?$allocator@U?$pair@$$CBKU_PlayerRecvd@@@std@@@3@$0A@@std@@@std@@IAE@ABU?$less@K@1@V?$allocator@U?$pair@$$CBKU_PlayerRecvd@@@std@@@1@@Z 0040a1b0 f i packetlog.obj
 0001:000091c0       ?clear@?$_Tree@V?$_Tmap_traits@KU_PacketRecvd@@U?$less@K@std@@V?$allocator@U?$pair@$$CBKU_PacketRecvd@@@std@@@3@$0A@@std@@@std@@QAEXXZ 0040a1c0 f i packetlog.obj
 0001:000091f0       ??Eiterator@?$_Tree@V?$_Tmap_traits@KU_PlayerRecvd@@U?$less@K@std@@V?$allocator@U?$pair@$$CBKU_PlayerRecvd@@@std@@@3@$0A@@std@@@std@@QAE?AV012@H@Z 0040a1f0 f i packetlog.obj
 0001:00009210       ??$_Uninitialized_fill_n@PAU_PacketRecvd@@IU1@V?$allocator@U_PacketRecvd@@@std@@@std@@YAXPAU_PacketRecvd@@IABU1@AAV?$allocator@U_PacketRecvd@@@0@@Z 0040a210 f i packetlog.obj
 0001:00009240       ??$_Destroy_range@U_PacketRecvd@@V?$allocator@U_PacketRecvd@@@std@@@std@@YAXPAU_PacketRecvd@@0AAV?$allocator@U_PacketRecvd@@@0@@Z 0040a240 f i packetlog.obj
 0001:00009250       ??$_Ucopy@PAU_PacketRecvd@@@?$vector@U_PacketRecvd@@V?$allocator@U_PacketRecvd@@@std@@@std@@IAEPAU_PacketRecvd@@PAU2@00@Z 0040a250 f i packetlog.obj
 0001:00009270       ??$_Unguarded_partition@Viterator@?$vector@U_PacketRecvd@@V?$allocator@U_PacketRecvd@@@std@@@std@@P6A_NAAU_PacketRecvd@@0@Z@std@@YA?AU?$pair@Viterator@?$vector@U_PacketRecvd@@V?$allocator@U_PacketRecvd@@@std@@@std@@V123@@0@Viterator@?$vector@U_PacketRecvd@@V?$allocator@U_PacketRecvd@@@std@@@0@0P6A_NAAU_PacketRecvd@@1@Z@Z 0040a270 f i packetlog.obj
 0001:000095b0       ??$_Make_heap@Viterator@?$vector@U_PacketRecvd@@V?$allocator@U_PacketRecvd@@@std@@@std@@HU_PacketRecvd@@P6A_NAAU4@0@Z@std@@YAXViterator@?$vector@U_PacketRecvd@@V?$allocator@U_PacketRecvd@@@std@@@0@0P6A_NAAU_PacketRecvd@@1@ZPAHPAU3@@Z 0040a5b0 f i packetlog.obj
 0001:00009620       ??$rotate@Viterator@?$vector@U_PacketRecvd@@V?$allocator@U_PacketRecvd@@@std@@@std@@@std@@YAXViterator@?$vector@U_PacketRecvd@@V?$allocator@U_PacketRecvd@@@std@@@0@00@Z 0040a620 f i packetlog.obj
 0001:00009650       ??$_Pop_heap_0@Viterator@?$vector@U_PacketRecvd@@V?$allocator@U_PacketRecvd@@@std@@@std@@U_PacketRecvd@@P6A_NAAU4@0@Z@std@@YAXViterator@?$vector@U_PacketRecvd@@V?$allocator@U_PacketRecvd@@@std@@@0@0P6A_NAAU_PacketRecvd@@1@ZPAU3@@Z 0040a650 f i packetlog.obj
 0001:00009690       ??0?$_Tree@V?$_Tmap_traits@KU_PacketRecvd@@U?$less@K@std@@V?$allocator@U?$pair@$$CBKU_PacketRecvd@@@std@@@3@$0A@@std@@@std@@QAE@ABU?$less@K@1@ABV?$allocator@U?$pair@$$CBKU_PacketRecvd@@@std@@@1@@Z 0040a690 f i packetlog.obj
 0001:000096c0       ?_Copy@?$_Tree@V?$_Tmap_traits@KU_PacketRecvd@@U?$less@K@std@@V?$allocator@U?$pair@$$CBKU_PacketRecvd@@@std@@@3@$0A@@std@@@std@@IAEXABV12@@Z 0040a6c0 f i packetlog.obj
 0001:00009750       ??0?$_Tree@V?$_Tmap_traits@KU_PlayerRecvd@@U?$less@K@std@@V?$allocator@U?$pair@$$CBKU_PlayerRecvd@@@std@@@3@$0A@@std@@@std@@QAE@ABU?$less@K@1@ABV?$allocator@U?$pair@$$CBKU_PlayerRecvd@@@std@@@1@@Z 0040a750 f i packetlog.obj
 0001:00009780       ?_Ufill@?$vector@U_PacketRecvd@@V?$allocator@U_PacketRecvd@@@std@@@std@@IAEPAU_PacketRecvd@@PAU3@IABU3@@Z 0040a780 f i packetlog.obj
 0001:000097b0       ?_Destroy@?$vector@U_PacketRecvd@@V?$allocator@U_PacketRecvd@@@std@@@std@@IAEXPAU_PacketRecvd@@0@Z 0040a7b0 f i packetlog.obj
 0001:000097c0       ??$make_heap@Viterator@?$vector@U_PacketRecvd@@V?$allocator@U_PacketRecvd@@@std@@@std@@P6A_NAAU_PacketRecvd@@0@Z@std@@YAXViterator@?$vector@U_PacketRecvd@@V?$allocator@U_PacketRecvd@@@std@@@0@0P6A_NAAU_PacketRecvd@@1@Z@Z 0040a7c0 f i packetlog.obj
 0001:00009800       ??$_Insertion_sort@Viterator@?$vector@U_PacketRecvd@@V?$allocator@U_PacketRecvd@@@std@@@std@@P6A_NAAU_PacketRecvd@@0@Z@std@@YAXViterator@?$vector@U_PacketRecvd@@V?$allocator@U_PacketRecvd@@@std@@@0@0P6A_NAAU_PacketRecvd@@1@Z@Z 0040a800 f i packetlog.obj
 0001:000098a0       ??$pop_heap@Viterator@?$vector@U_PacketRecvd@@V?$allocator@U_PacketRecvd@@@std@@@std@@P6A_NAAU_PacketRecvd@@0@Z@std@@YAXViterator@?$vector@U_PacketRecvd@@V?$allocator@U_PacketRecvd@@@std@@@0@0P6A_NAAU_PacketRecvd@@1@Z@Z 0040a8a0 f i packetlog.obj
 0001:00009900       ?_Tidy@?$vector@U_PacketRecvd@@V?$allocator@U_PacketRecvd@@@std@@@std@@IAEXXZ 0040a900 f i packetlog.obj
 0001:00009930       ??$sort_heap@Viterator@?$vector@U_PacketRecvd@@V?$allocator@U_PacketRecvd@@@std@@@std@@P6A_NAAU_PacketRecvd@@0@Z@std@@YAXViterator@?$vector@U_PacketRecvd@@V?$allocator@U_PacketRecvd@@@std@@@0@0P6A_NAAU_PacketRecvd@@1@Z@Z 0040a930 f i packetlog.obj
 0001:000099d0       ??1?$vector@U_PacketRecvd@@V?$allocator@U_PacketRecvd@@@std@@@std@@QAE@XZ 0040a9d0 f i packetlog.obj
 0001:00009a00       ??$_Sort@Viterator@?$vector@U_PacketRecvd@@V?$allocator@U_PacketRecvd@@@std@@@std@@HP6A_NAAU_PacketRecvd@@0@Z@std@@YAXViterator@?$vector@U_PacketRecvd@@V?$allocator@U_PacketRecvd@@@std@@@0@0HP6A_NAAU_PacketRecvd@@1@Z@Z 0040aa00 f i packetlog.obj
 0001:00009b40       ?_Insert@?$_Tree@V?$_Tmap_traits@KU_PacketRecvd@@U?$less@K@std@@V?$allocator@U?$pair@$$CBKU_PacketRecvd@@@std@@@3@$0A@@std@@@std@@IAE?AViterator@12@_NPAU_Node@?$_Tree_nod@V?$_Tmap_traits@KU_PacketRecvd@@U?$less@K@std@@V?$allocator@U?$pair@$$CBKU_PacketRecvd@@@std@@@3@$0A@@std@@@2@ABU?$pair@$$CBKU_PacketRecvd@@@2@@Z 0040ab40 f i packetlog.obj
 0001:00009cf0       ?_Xlen@?$vector@U_PlayerRecvd@@V?$allocator@U_PlayerRecvd@@@std@@@std@@IBEXXZ 0040acf0 f i packetlog.obj
 0001:00009d60       ?_Xlen@?$vector@U_PacketRecvd@@V?$allocator@U_PacketRecvd@@@std@@@std@@IBEXXZ 0040ad60 f i packetlog.obj
 0001:00009dd0       ?erase@?$_Tree@V?$_Tmap_traits@KU_PacketRecvd@@U?$less@K@std@@V?$allocator@U?$pair@$$CBKU_PacketRecvd@@@std@@@3@$0A@@std@@@std@@QAE?AViterator@12@V312@@Z 0040add0 f i packetlog.obj
 0001:0000a090       ??$sort@Viterator@?$vector@U_PacketRecvd@@V?$allocator@U_PacketRecvd@@@std@@@std@@P6A_NAAU_PacketRecvd@@0@Z@std@@YAXViterator@?$vector@U_PacketRecvd@@V?$allocator@U_PacketRecvd@@@std@@@0@0P6A_NAAU_PacketRecvd@@1@Z@Z 0040b090 f i packetlog.obj
 0001:0000a0d0       ?insert@?$_Tree@V?$_Tmap_traits@KU_PacketRecvd@@U?$less@K@std@@V?$allocator@U?$pair@$$CBKU_PacketRecvd@@@std@@@3@$0A@@std@@@std@@QAE?AU?$pair@Viterator@?$_Tree@V?$_Tmap_traits@KU_PacketRecvd@@U?$less@K@std@@V?$allocator@U?$pair@$$CBKU_PacketRecvd@@@std@@@3@$0A@@std@@@std@@_N@2@ABU?$pair@$$CBKU_PacketRecvd@@@2@@Z 0040b0d0 f i packetlog.obj
 0001:0000a190       ?_Buy@?$vector@U_PlayerRecvd@@V?$allocator@U_PlayerRecvd@@@std@@@std@@IAE_NI@Z 0040b190 f i packetlog.obj
 0001:0000a1e0       ?_Buy@?$vector@U_PacketRecvd@@V?$allocator@U_PacketRecvd@@@std@@@std@@IAE_NI@Z 0040b1e0 f i packetlog.obj
 0001:0000a230       ?erase@?$_Tree@V?$_Tmap_traits@KU_PacketRecvd@@U?$less@K@std@@V?$allocator@U?$pair@$$CBKU_PacketRecvd@@@std@@@3@$0A@@std@@@std@@QAE?AViterator@12@V312@0@Z 0040b230 f i packetlog.obj
 0001:0000a2f0       ?_Insert_n@?$vector@U_PacketRecvd@@V?$allocator@U_PacketRecvd@@@std@@@std@@IAEXViterator@12@IABU_PacketRecvd@@@Z 0040b2f0 f i packetlog.obj
 0001:0000a5b0       ??4?$_Tree@V?$_Tmap_traits@KU_PacketRecvd@@U?$less@K@std@@V?$allocator@U?$pair@$$CBKU_PacketRecvd@@@std@@@3@$0A@@std@@@std@@QAEAAV01@ABV01@@Z 0040b5b0 f i packetlog.obj
 0001:0000a5e0       ??0?$vector@U_PlayerRecvd@@V?$allocator@U_PlayerRecvd@@@std@@@std@@QAE@XZ 0040b5e0 f i packetlog.obj
 0001:0000a5f0       ??0?$vector@U_PacketRecvd@@V?$allocator@U_PacketRecvd@@@std@@@std@@QAE@XZ 0040b5f0 f i packetlog.obj
 0001:0000a600       ?_Tidy@?$_Tree@V?$_Tmap_traits@KU_PacketRecvd@@U?$less@K@std@@V?$allocator@U?$pair@$$CBKU_PacketRecvd@@@std@@@3@$0A@@std@@@std@@IAEXXZ 0040b600 f i packetlog.obj
 0001:0000a630       ?insert@?$vector@U_PacketRecvd@@V?$allocator@U_PacketRecvd@@@std@@@std@@QAE?AViterator@12@V312@ABU_PacketRecvd@@@Z 0040b630 f i packetlog.obj
 0001:0000a6a0       ??4?$map@KU_PacketRecvd@@U?$less@K@std@@V?$allocator@U?$pair@$$CBKU_PacketRecvd@@@std@@@3@@std@@QAEAAV01@ABV01@@Z 0040b6a0 f i packetlog.obj
 0001:0000a6d0       ??0?$_Tree@V?$_Tmap_traits@KU_PacketRecvd@@U?$less@K@std@@V?$allocator@U?$pair@$$CBKU_PacketRecvd@@@std@@@3@$0A@@std@@@std@@QAE@ABV01@@Z 0040b6d0 f i packetlog.obj
 0001:0000a760       ??1?$_Tree@V?$_Tmap_traits@KU_PacketRecvd@@U?$less@K@std@@V?$allocator@U?$pair@$$CBKU_PacketRecvd@@@std@@@3@$0A@@std@@@std@@QAE@XZ 0040b760 f i packetlog.obj
 0001:0000a790       ?push_back@?$vector@U_PacketRecvd@@V?$allocator@U_PacketRecvd@@@std@@@std@@QAEXABU_PacketRecvd@@@Z 0040b790 f i packetlog.obj
 0001:0000a810       ??4_PlayerRecvd@@QAEAAU0@ABU0@@Z 0040b810 f i packetlog.obj
 0001:0000a860       ??$_Copy_backward_opt@PAU_PlayerRecvd@@PAU1@@std@@YAPAU_PlayerRecvd@@PAU1@00U_Nonscalar_ptr_iterator_tag@0@@Z 0040b860 f i packetlog.obj
 0001:0000a8e0       ??0?$map@KU_PacketRecvd@@U?$less@K@std@@V?$allocator@U?$pair@$$CBKU_PacketRecvd@@@std@@@3@@std@@QAE@ABV01@@Z 0040b8e0 f i packetlog.obj
 0001:0000a900       ??1?$map@KU_PacketRecvd@@U?$less@K@std@@V?$allocator@U?$pair@$$CBKU_PacketRecvd@@@std@@@3@@std@@QAE@XZ 0040b900 f i packetlog.obj
 0001:0000a930       ??1_PlayerRecvd@@QAE@XZ    0040b930 f i packetlog.obj
 0001:0000a960       ??1?$pair@$$CBKU_PlayerRecvd@@@std@@QAE@XZ 0040b960 f i packetlog.obj
 0001:0000a990       ??0?$map@KU_PacketRecvd@@U?$less@K@std@@V?$allocator@U?$pair@$$CBKU_PacketRecvd@@@std@@@3@@std@@QAE@XZ 0040b990 f i packetlog.obj
 0001:0000a9c0       ??0_PlayerRecvd@@QAE@ABU0@@Z 0040b9c0 f i packetlog.obj
 0001:0000a9f0       ??0?$pair@$$CBKU_PlayerRecvd@@@std@@QAE@ABU01@@Z 0040b9f0 f i packetlog.obj
 0001:0000aa20       ??$fill@PAU_PlayerRecvd@@U1@@std@@YAXPAU_PlayerRecvd@@0ABU1@@Z 0040ba20 f i packetlog.obj
 0001:0000aa90       ??$copy_backward@PAU_PlayerRecvd@@PAU1@@std@@YAPAU_PlayerRecvd@@PAU1@00@Z 0040ba90 f i packetlog.obj
 0001:0000aab0       ??1_Node@?$_Tree_nod@V?$_Tmap_traits@KU_PlayerRecvd@@U?$less@K@std@@V?$allocator@U?$pair@$$CBKU_PlayerRecvd@@@std@@@3@$0A@@std@@@std@@QAE@XZ 0040bab0 f i packetlog.obj
 0001:0000aae0       ??$_Construct@U_PlayerRecvd@@U1@@std@@YAXPAU_PlayerRecvd@@ABU1@@Z 0040bae0 f i packetlog.obj
 0001:0000ab40       ??_G_PlayerRecvd@@QAEPAXI@Z 0040bb40 f i packetlog.obj
 0001:0000ab60       ??$swap@U_PlayerRecvd@@@std@@YAXAAU_PlayerRecvd@@0@Z 0040bb60 f i packetlog.obj
 0001:0000ac60       ??$_Push_heap@Viterator@?$vector@U_PlayerRecvd@@V?$allocator@U_PlayerRecvd@@@std@@@std@@HU_PlayerRecvd@@P6A_NAAU4@0@Z@std@@YAXViterator@?$vector@U_PlayerRecvd@@V?$allocator@U_PlayerRecvd@@@std@@@0@HHU_PlayerRecvd@@P6A_NAAU3@2@Z@Z 0040bc60 f i packetlog.obj
 0001:0000ad90       ??$_Rotate@Viterator@?$vector@U_PlayerRecvd@@V?$allocator@U_PlayerRecvd@@@std@@@std@@HU_PlayerRecvd@@@std@@YAXViterator@?$vector@U_PlayerRecvd@@V?$allocator@U_PlayerRecvd@@@std@@@0@00PAHPAU_PlayerRecvd@@@Z 0040bd90 f i packetlog.obj
 0001:0000afa0       ??0_PlayerRecvd@@QAE@KKAAV?$map@KU_PacketRecvd@@U?$less@K@std@@V?$allocator@U?$pair@$$CBKU_PacketRecvd@@@std@@@3@@std@@@Z 0040bfa0 f i packetlog.obj
 0001:0000afd0       ??0?$pair@$$CBKU_PlayerRecvd@@@std@@QAE@ABKABU_PlayerRecvd@@@Z 0040bfd0 f i packetlog.obj
 0001:0000b010       ??0_Node@?$_Tree_nod@V?$_Tmap_traits@KU_PlayerRecvd@@U?$less@K@std@@V?$allocator@U?$pair@$$CBKU_PlayerRecvd@@@std@@@3@$0A@@std@@@std@@QAE@PAU012@00ABU?$pair@$$CBKU_PlayerRecvd@@@2@D@Z 0040c010 f i packetlog.obj
 0001:0000b060       ??_G_Node@?$_Tree_nod@V?$_Tmap_traits@KU_PlayerRecvd@@U?$less@K@std@@V?$allocator@U?$pair@$$CBKU_PlayerRecvd@@@std@@@3@$0A@@std@@@std@@QAEPAXI@Z 0040c060 f i packetlog.obj
 0001:0000b080       ?construct@?$allocator@U_PlayerRecvd@@@std@@QAEXPAU_PlayerRecvd@@ABU3@@Z 0040c080 f i packetlog.obj
 0001:0000b0a0       ??$_Destroy@U_PlayerRecvd@@@std@@YAXPAU_PlayerRecvd@@@Z 0040c0a0 f i packetlog.obj
 0001:0000b0b0       ??$iter_swap@Viterator@?$vector@U_PlayerRecvd@@V?$allocator@U_PlayerRecvd@@@std@@@std@@V123@@std@@YAXViterator@?$vector@U_PlayerRecvd@@V?$allocator@U_PlayerRecvd@@@std@@@0@0@Z 0040c0b0 f i packetlog.obj
 0001:0000b0c0       ??$_Med3@Viterator@?$vector@U_PlayerRecvd@@V?$allocator@U_PlayerRecvd@@@std@@@std@@P6A_NAAU_PlayerRecvd@@0@Z@std@@YAXViterator@?$vector@U_PlayerRecvd@@V?$allocator@U_PlayerRecvd@@@std@@@0@00P6A_NAAU_PlayerRecvd@@1@Z@Z 0040c0c0 f i packetlog.obj
 0001:0000b120       ??$_Adjust_heap@Viterator@?$vector@U_PlayerRecvd@@V?$allocator@U_PlayerRecvd@@@std@@@std@@HU_PlayerRecvd@@P6A_NAAU4@0@Z@std@@YAXViterator@?$vector@U_PlayerRecvd@@V?$allocator@U_PlayerRecvd@@@std@@@0@HHU_PlayerRecvd@@P6A_NAAU3@2@Z@Z 0040c120 f i packetlog.obj
 0001:0000b290       ??$_Rotate@Viterator@?$vector@U_PlayerRecvd@@V?$allocator@U_PlayerRecvd@@@std@@@std@@@std@@YAXViterator@?$vector@U_PlayerRecvd@@V?$allocator@U_PlayerRecvd@@@std@@@0@00Urandom_access_iterator_tag@0@@Z 0040c290 f i packetlog.obj
 0001:0000b2b0       ??$_Pop_heap@Viterator@?$vector@U_PlayerRecvd@@V?$allocator@U_PlayerRecvd@@@std@@@std@@HU_PlayerRecvd@@P6A_NAAU4@0@Z@std@@YAXViterator@?$vector@U_PlayerRecvd@@V?$allocator@U_PlayerRecvd@@@std@@@0@00U_PlayerRecvd@@P6A_NAAU3@2@ZPAH@Z 0040c2b0 f i packetlog.obj
 0001:0000b3a0       ?_Buynode@?$_Tree@V?$_Tmap_traits@KU_PlayerRecvd@@U?$less@K@std@@V?$allocator@U?$pair@$$CBKU_PlayerRecvd@@@std@@@3@$0A@@std@@@std@@IAEPAU_Node@?$_Tree_nod@V?$_Tmap_traits@KU_PlayerRecvd@@U?$less@K@std@@V?$allocator@U?$pair@$$CBKU_PlayerRecvd@@@std@@@3@$0A@@std@@@2@PAU342@00ABU?$pair@$$CBKU_PlayerRecvd@@@2@D@Z 0040c3a0 f i packetlog.obj
 0001:0000b430       ??$_Destroy@U_Node@?$_Tree_nod@V?$_Tmap_traits@KU_PlayerRecvd@@U?$less@K@std@@V?$allocator@U?$pair@$$CBKU_PlayerRecvd@@@std@@@3@$0A@@std@@@std@@@std@@YAXPAU_Node@?$_Tree_nod@V?$_Tmap_traits@KU_PlayerRecvd@@U?$less@K@std@@V?$allocator@U?$pair@$$CBKU_PlayerRecvd@@@std@@@3@$0A@@std@@@0@@Z 0040c430 f i packetlog.obj
 0001:0000b440       ?destroy@?$allocator@U_PlayerRecvd@@@std@@QAEXPAU_PlayerRecvd@@@Z 0040c440 f i packetlog.obj
 0001:0000b450       ??$_Uninit_copy@PAU_PlayerRecvd@@PAU1@V?$allocator@U_PlayerRecvd@@@std@@@std@@YAPAU_PlayerRecvd@@PAU1@00AAV?$allocator@U_PlayerRecvd@@@0@U_Nonscalar_ptr_iterator_tag@0@@Z 0040c450 f i packetlog.obj
 0001:0000b520       ??$_Median@Viterator@?$vector@U_PlayerRecvd@@V?$allocator@U_PlayerRecvd@@@std@@@std@@P6A_NAAU_PlayerRecvd@@0@Z@std@@YAXViterator@?$vector@U_PlayerRecvd@@V?$allocator@U_PlayerRecvd@@@std@@@0@00P6A_NAAU_PlayerRecvd@@1@Z@Z 0040c520 f i packetlog.obj
 0001:0000b5d0       ??$_Make_heap@Viterator@?$vector@U_PlayerRecvd@@V?$allocator@U_PlayerRecvd@@@std@@@std@@HU_PlayerRecvd@@P6A_NAAU4@0@Z@std@@YAXViterator@?$vector@U_PlayerRecvd@@V?$allocator@U_PlayerRecvd@@@std@@@0@0P6A_NAAU_PlayerRecvd@@1@ZPAHPAU3@@Z 0040c5d0 f i packetlog.obj
 0001:0000b650       ??$rotate@Viterator@?$vector@U_PlayerRecvd@@V?$allocator@U_PlayerRecvd@@@std@@@std@@@std@@YAXViterator@?$vector@U_PlayerRecvd@@V?$allocator@U_PlayerRecvd@@@std@@@0@00@Z 0040c650 f i packetlog.obj
 0001:0000b680       ??$_Pop_heap_0@Viterator@?$vector@U_PlayerRecvd@@V?$allocator@U_PlayerRecvd@@@std@@@std@@U_PlayerRecvd@@P6A_NAAU4@0@Z@std@@YAXViterator@?$vector@U_PlayerRecvd@@V?$allocator@U_PlayerRecvd@@@std@@@0@0P6A_NAAU_PlayerRecvd@@1@ZPAU3@@Z 0040c680 f i packetlog.obj
 0001:0000b6d0       ?_Insert@?$_Tree@V?$_Tmap_traits@KU_PlayerRecvd@@U?$less@K@std@@V?$allocator@U?$pair@$$CBKU_PlayerRecvd@@@std@@@3@$0A@@std@@@std@@IAE?AViterator@12@_NPAU_Node@?$_Tree_nod@V?$_Tmap_traits@KU_PlayerRecvd@@U?$less@K@std@@V?$allocator@U?$pair@$$CBKU_PlayerRecvd@@@std@@@3@$0A@@std@@@2@ABU?$pair@$$CBKU_PlayerRecvd@@@2@@Z 0040c6d0 f i packetlog.obj
 0001:0000b880       ?destroy@?$allocator@U_Node@?$_Tree_nod@V?$_Tmap_traits@KU_PlayerRecvd@@U?$less@K@std@@V?$allocator@U?$pair@$$CBKU_PlayerRecvd@@@std@@@3@$0A@@std@@@std@@@std@@QAEXPAU_Node@?$_Tree_nod@V?$_Tmap_traits@KU_PlayerRecvd@@U?$less@K@std@@V?$allocator@U?$pair@$$CBKU_PlayerRecvd@@@std@@@3@$0A@@std@@@2@@Z 0040c880 f i packetlog.obj
 0001:0000b890       ?erase@?$_Tree@V?$_Tmap_traits@KU_PlayerRecvd@@U?$less@K@std@@V?$allocator@U?$pair@$$CBKU_PlayerRecvd@@@std@@@3@$0A@@std@@@std@@QAE?AViterator@12@V312@@Z 0040c890 f i packetlog.obj
 0001:0000bb80       ??$_Uninit_fill_n@PAU_PlayerRecvd@@IU1@V?$allocator@U_PlayerRecvd@@@std@@@std@@YAXPAU_PlayerRecvd@@IABU1@AAV?$allocator@U_PlayerRecvd@@@0@U_Nonscalar_ptr_iterator_tag@0@@Z 0040cb80 f i packetlog.obj
 0001:0000bc50       ??$_Destroy_range@U_PlayerRecvd@@V?$allocator@U_PlayerRecvd@@@std@@@std@@YAXPAU_PlayerRecvd@@0AAV?$allocator@U_PlayerRecvd@@@0@U_Nonscalar_ptr_iterator_tag@0@@Z 0040cc50 f i packetlog.obj
 0001:0000bc80       ??$_Uninitialized_copy@PAU_PlayerRecvd@@PAU1@V?$allocator@U_PlayerRecvd@@@std@@@std@@YAPAU_PlayerRecvd@@PAU1@00AAV?$allocator@U_PlayerRecvd@@@0@@Z 0040cc80 f i packetlog.obj
 0001:0000bcb0       ??$_Unguarded_partition@Viterator@?$vector@U_PlayerRecvd@@V?$allocator@U_PlayerRecvd@@@std@@@std@@P6A_NAAU_PlayerRecvd@@0@Z@std@@YA?AU?$pair@Viterator@?$vector@U_PlayerRecvd@@V?$allocator@U_PlayerRecvd@@@std@@@std@@V123@@0@Viterator@?$vector@U_PlayerRecvd@@V?$allocator@U_PlayerRecvd@@@std@@@0@0P6A_NAAU_PlayerRecvd@@1@Z@Z 0040ccb0 f i packetlog.obj
 0001:0000be70       ??$make_heap@Viterator@?$vector@U_PlayerRecvd@@V?$allocator@U_PlayerRecvd@@@std@@@std@@P6A_NAAU_PlayerRecvd@@0@Z@std@@YAXViterator@?$vector@U_PlayerRecvd@@V?$allocator@U_PlayerRecvd@@@std@@@0@0P6A_NAAU_PlayerRecvd@@1@Z@Z 0040ce70 f i packetlog.obj
 0001:0000beb0       ??$_Insertion_sort@Viterator@?$vector@U_PlayerRecvd@@V?$allocator@U_PlayerRecvd@@@std@@@std@@P6A_NAAU_PlayerRecvd@@0@Z@std@@YAXViterator@?$vector@U_PlayerRecvd@@V?$allocator@U_PlayerRecvd@@@std@@@0@0P6A_NAAU_PlayerRecvd@@1@Z@Z 0040ceb0 f i packetlog.obj
 0001:0000bf50       ??$pop_heap@Viterator@?$vector@U_PlayerRecvd@@V?$allocator@U_PlayerRecvd@@@std@@@std@@P6A_NAAU_PlayerRecvd@@0@Z@std@@YAXViterator@?$vector@U_PlayerRecvd@@V?$allocator@U_PlayerRecvd@@@std@@@0@0P6A_NAAU_PlayerRecvd@@1@Z@Z 0040cf50 f i packetlog.obj
 0001:0000bf90       ?insert@?$_Tree@V?$_Tmap_traits@KU_PlayerRecvd@@U?$less@K@std@@V?$allocator@U?$pair@$$CBKU_PlayerRecvd@@@std@@@3@$0A@@std@@@std@@QAE?AU?$pair@Viterator@?$_Tree@V?$_Tmap_traits@KU_PlayerRecvd@@U?$less@K@std@@V?$allocator@U?$pair@$$CBKU_PlayerRecvd@@@std@@@3@$0A@@std@@@std@@_N@2@ABU?$pair@$$CBKU_PlayerRecvd@@@2@@Z 0040cf90 f i packetlog.obj
 0001:0000c050       ?_Erase@?$_Tree@V?$_Tmap_traits@KU_PlayerRecvd@@U?$less@K@std@@V?$allocator@U?$pair@$$CBKU_PlayerRecvd@@@std@@@3@$0A@@std@@@std@@IAEXPAU_Node@?$_Tree_nod@V?$_Tmap_traits@KU_PlayerRecvd@@U?$less@K@std@@V?$allocator@U?$pair@$$CBKU_PlayerRecvd@@@std@@@3@$0A@@std@@@2@@Z 0040d050 f i packetlog.obj
 0001:0000c090       ??$_Uninitialized_fill_n@PAU_PlayerRecvd@@IU1@V?$allocator@U_PlayerRecvd@@@std@@@std@@YAXPAU_PlayerRecvd@@IABU1@AAV?$allocator@U_PlayerRecvd@@@0@@Z 0040d090 f i packetlog.obj
 0001:0000c0c0       ??$_Destroy_range@U_PlayerRecvd@@V?$allocator@U_PlayerRecvd@@@std@@@std@@YAXPAU_PlayerRecvd@@0AAV?$allocator@U_PlayerRecvd@@@0@@Z 0040d0c0 f i packetlog.obj
 0001:0000c0f0       ??$_Ucopy@PAU_PlayerRecvd@@@?$vector@U_PlayerRecvd@@V?$allocator@U_PlayerRecvd@@@std@@@std@@IAEPAU_PlayerRecvd@@PAU2@00@Z 0040d0f0 f i packetlog.obj
 0001:0000c110       ??$sort_heap@Viterator@?$vector@U_PlayerRecvd@@V?$allocator@U_PlayerRecvd@@@std@@@std@@P6A_NAAU_PlayerRecvd@@0@Z@std@@YAXViterator@?$vector@U_PlayerRecvd@@V?$allocator@U_PlayerRecvd@@@std@@@0@0P6A_NAAU_PlayerRecvd@@1@Z@Z 0040d110 f i packetlog.obj
 0001:0000c170       ?Add@CPacketLog@@QAEXKKK@Z 0040d170 f   packetlog.obj
 0001:0000c3a0       ?clear@?$_Tree@V?$_Tmap_traits@KU_PlayerRecvd@@U?$less@K@std@@V?$allocator@U?$pair@$$CBKU_PlayerRecvd@@@std@@@3@$0A@@std@@@std@@QAEXXZ 0040d3a0 f i packetlog.obj
 0001:0000c3d0       ?_Ufill@?$vector@U_PlayerRecvd@@V?$allocator@U_PlayerRecvd@@@std@@@std@@IAEPAU_PlayerRecvd@@PAU3@IABU3@@Z 0040d3d0 f i packetlog.obj
 0001:0000c400       ?erase@?$_Tree@V?$_Tmap_traits@KU_PlayerRecvd@@U?$less@K@std@@V?$allocator@U?$pair@$$CBKU_PlayerRecvd@@@std@@@3@$0A@@std@@@std@@QAE?AViterator@12@V312@0@Z 0040d400 f i packetlog.obj
 0001:0000c4c0       ?_Destroy@?$vector@U_PlayerRecvd@@V?$allocator@U_PlayerRecvd@@@std@@@std@@IAEXPAU_PlayerRecvd@@0@Z 0040d4c0 f i packetlog.obj
 0001:0000c4f0       ?_Insert_n@?$vector@U_PlayerRecvd@@V?$allocator@U_PlayerRecvd@@@std@@@std@@IAEXViterator@12@IABU_PlayerRecvd@@@Z 0040d4f0 f i packetlog.obj
 0001:0000c820       ??$_Sort@Viterator@?$vector@U_PlayerRecvd@@V?$allocator@U_PlayerRecvd@@@std@@@std@@HP6A_NAAU_PlayerRecvd@@0@Z@std@@YAXViterator@?$vector@U_PlayerRecvd@@V?$allocator@U_PlayerRecvd@@@std@@@0@0HP6A_NAAU_PlayerRecvd@@1@Z@Z 0040d820 f i packetlog.obj
 0001:0000c970       ?Reset@CPacketLog@@QAEXXZ  0040d970 f   packetlog.obj
 0001:0000ca00       ?_Tidy@?$_Tree@V?$_Tmap_traits@KU_PlayerRecvd@@U?$less@K@std@@V?$allocator@U?$pair@$$CBKU_PlayerRecvd@@@std@@@3@$0A@@std@@@std@@IAEXXZ 0040da00 f i packetlog.obj
 0001:0000ca30       ?insert@?$vector@U_PlayerRecvd@@V?$allocator@U_PlayerRecvd@@@std@@@std@@QAE?AViterator@12@V312@ABU_PlayerRecvd@@@Z 0040da30 f i packetlog.obj
 0001:0000caa0       ?_Tidy@?$vector@U_PlayerRecvd@@V?$allocator@U_PlayerRecvd@@@std@@@std@@IAEXXZ 0040daa0 f i packetlog.obj
 0001:0000caf0       ??$sort@Viterator@?$vector@U_PlayerRecvd@@V?$allocator@U_PlayerRecvd@@@std@@@std@@P6A_NAAU_PlayerRecvd@@0@Z@std@@YAXViterator@?$vector@U_PlayerRecvd@@V?$allocator@U_PlayerRecvd@@@std@@@0@0P6A_NAAU_PlayerRecvd@@1@Z@Z 0040daf0 f i packetlog.obj
 0001:0000cb30       ??1?$_Tree@V?$_Tmap_traits@KU_PlayerRecvd@@U?$less@K@std@@V?$allocator@U?$pair@$$CBKU_PlayerRecvd@@@std@@@3@$0A@@std@@@std@@QAE@XZ 0040db30 f i packetlog.obj
 0001:0000cb60       ??1?$vector@U_PlayerRecvd@@V?$allocator@U_PlayerRecvd@@@std@@@std@@QAE@XZ 0040db60 f i packetlog.obj
 0001:0000cb70       ?push_back@?$vector@U_PlayerRecvd@@V?$allocator@U_PlayerRecvd@@@std@@@std@@QAEXABU_PlayerRecvd@@@Z 0040db70 f i packetlog.obj
 0001:0000cc00       ??1?$map@KU_PlayerRecvd@@U?$less@K@std@@V?$allocator@U?$pair@$$CBKU_PlayerRecvd@@@std@@@3@@std@@QAE@XZ 0040dc00 f i packetlog.obj
 0001:0000cc30       ??1CPacketLog@@UAE@XZ      0040dc30 f   packetlog.obj
 0001:0000cc80       ?Print@CPacketLog@@QAEXXZ  0040dc80 f   packetlog.obj
 0001:0000cfb0       ??0?$map@KU_PlayerRecvd@@U?$less@K@std@@V?$allocator@U?$pair@$$CBKU_PlayerRecvd@@@std@@@3@@std@@QAE@XZ 0040dfb0 f i packetlog.obj
 0001:0000cfe0       ??0CPacketLog@@AAE@XZ      0040dfe0 f   packetlog.obj
 0001:0000d030       ??_GCPacketLog@@UAEPAXI@Z  0040e030 f i packetlog.obj
 0001:0000d030       ??_ECPacketLog@@UAEPAXI@Z  0040e030 f i packetlog.obj
 0001:0000d050       ?Instance@CPacketLog@@SAPAV1@XZ 0040e050 f   packetlog.obj
 0001:0000d0b0       ?IsAlive@CPlayer@@QAEHXZ   0040e0b0 f i Player.obj
 0001:0000d0c0       ?IsTimeover@CPlayer@@QAEHK@Z 0040e0c0 f i Player.obj
 0001:0000d0f0       ??0CPlayer@@QAE@KK@Z       0040e0f0 f   Player.obj
 0001:0000d170       ??1CPlayer@@UAE@XZ         0040e170 f   Player.obj
 0001:0000d180       ?Join@CPlayer@@QAEXAAVCAr@@@Z 0040e180 f   Player.obj
 0001:0000d2f0       ?DestroyGarbagePlayer@CPlayerMng@@AAEXPAVCPlayer@@@Z 0040e2f0 f   Player.obj
 0001:0000d310       ?SendKeepAlive@CPlayerMng@@AAEXPAVCPlayer@@@Z 0040e310 f   Player.obj
 0001:0000d3f0       ??0?$pair@$$CBKPAVCPlayer@@@std@@QAE@ABKABQAVCPlayer@@@Z 0040e3f0 f i Player.obj
 0001:0000d410       ?_Color@?$_Tree@V?$_Tmap_traits@KPAVCPlayer@@U?$less@K@std@@V?$allocator@U?$pair@$$CBKPAVCPlayer@@@std@@@3@$0A@@std@@@std@@KAAADPAU_Node@?$_Tree_nod@V?$_Tmap_traits@KPAVCPlayer@@U?$less@K@std@@V?$allocator@U?$pair@$$CBKPAVCPlayer@@@std@@@3@$0A@@std@@@2@@Z 0040e410 f i Player.obj
 0001:0000d420       ?_Isnil@?$_Tree@V?$_Tmap_traits@KPAVCPlayer@@U?$less@K@std@@V?$allocator@U?$pair@$$CBKPAVCPlayer@@@std@@@3@$0A@@std@@@std@@KAAADPAU_Node@?$_Tree_nod@V?$_Tmap_traits@KPAVCPlayer@@U?$less@K@std@@V?$allocator@U?$pair@$$CBKPAVCPlayer@@@std@@@3@$0A@@std@@@2@@Z 0040e420 f i Player.obj
 0001:0000d430       ?_Left@?$_Tree@V?$_Tmap_traits@KPAVCPlayer@@U?$less@K@std@@V?$allocator@U?$pair@$$CBKPAVCPlayer@@@std@@@3@$0A@@std@@@std@@KAAAPAU_Node@?$_Tree_nod@V?$_Tmap_traits@KPAVCPlayer@@U?$less@K@std@@V?$allocator@U?$pair@$$CBKPAVCPlayer@@@std@@@3@$0A@@std@@@2@PAU342@@Z 0040e430 f i Player.obj
 0001:0000d440       ?_Parent@?$_Tree@V?$_Tmap_traits@KPAVCPlayer@@U?$less@K@std@@V?$allocator@U?$pair@$$CBKPAVCPlayer@@@std@@@3@$0A@@std@@@std@@KAAAPAU_Node@?$_Tree_nod@V?$_Tmap_traits@KPAVCPlayer@@U?$less@K@std@@V?$allocator@U?$pair@$$CBKPAVCPlayer@@@std@@@3@$0A@@std@@@2@PAU342@@Z 0040e440 f i Player.obj
 0001:0000d450       ?_Right@?$_Tree@V?$_Tmap_traits@KPAVCPlayer@@U?$less@K@std@@V?$allocator@U?$pair@$$CBKPAVCPlayer@@@std@@@3@$0A@@std@@@std@@KAAAPAU_Node@?$_Tree_nod@V?$_Tmap_traits@KPAVCPlayer@@U?$less@K@std@@V?$allocator@U?$pair@$$CBKPAVCPlayer@@@std@@@3@$0A@@std@@@2@PAU342@@Z 0040e450 f i Player.obj
 0001:0000d460       ?_Lmost@?$_Tree@V?$_Tmap_traits@KPAVCPlayer@@U?$less@K@std@@V?$allocator@U?$pair@$$CBKPAVCPlayer@@@std@@@3@$0A@@std@@@std@@IAEAAPAU_Node@?$_Tree_nod@V?$_Tmap_traits@KPAVCPlayer@@U?$less@K@std@@V?$allocator@U?$pair@$$CBKPAVCPlayer@@@std@@@3@$0A@@std@@@2@XZ 0040e460 f i Player.obj
 0001:0000d470       ?_Max@?$_Tree@V?$_Tmap_traits@KPAVCPlayer@@U?$less@K@std@@V?$allocator@U?$pair@$$CBKPAVCPlayer@@@std@@@3@$0A@@std@@@std@@KAPAU_Node@?$_Tree_nod@V?$_Tmap_traits@KPAVCPlayer@@U?$less@K@std@@V?$allocator@U?$pair@$$CBKPAVCPlayer@@@std@@@3@$0A@@std@@@2@PAU342@@Z 0040e470 f i Player.obj
 0001:0000d490       ?_Min@?$_Tree@V?$_Tmap_traits@KPAVCPlayer@@U?$less@K@std@@V?$allocator@U?$pair@$$CBKPAVCPlayer@@@std@@@3@$0A@@std@@@std@@KAPAU_Node@?$_Tree_nod@V?$_Tmap_traits@KPAVCPlayer@@U?$less@K@std@@V?$allocator@U?$pair@$$CBKPAVCPlayer@@@std@@@3@$0A@@std@@@2@PAU342@@Z 0040e490 f i Player.obj
 0001:0000d4b0       ?_Rmost@?$_Tree@V?$_Tmap_traits@KPAVCPlayer@@U?$less@K@std@@V?$allocator@U?$pair@$$CBKPAVCPlayer@@@std@@@3@$0A@@std@@@std@@IAEAAPAU_Node@?$_Tree_nod@V?$_Tmap_traits@KPAVCPlayer@@U?$less@K@std@@V?$allocator@U?$pair@$$CBKPAVCPlayer@@@std@@@3@$0A@@std@@@2@XZ 0040e4b0 f i Player.obj
 0001:0000d4c0       ?_Root@?$_Tree@V?$_Tmap_traits@KPAVCPlayer@@U?$less@K@std@@V?$allocator@U?$pair@$$CBKPAVCPlayer@@@std@@@3@$0A@@std@@@std@@IAEAAPAU_Node@?$_Tree_nod@V?$_Tmap_traits@KPAVCPlayer@@U?$less@K@std@@V?$allocator@U?$pair@$$CBKPAVCPlayer@@@std@@@3@$0A@@std@@@2@XZ 0040e4c0 f i Player.obj
 0001:0000d4d0       ?_Rrotate@?$_Tree@V?$_Tmap_traits@KPAVCPlayer@@U?$less@K@std@@V?$allocator@U?$pair@$$CBKPAVCPlayer@@@std@@@3@$0A@@std@@@std@@IAEXPAU_Node@?$_Tree_nod@V?$_Tmap_traits@KPAVCPlayer@@U?$less@K@std@@V?$allocator@U?$pair@$$CBKPAVCPlayer@@@std@@@3@$0A@@std@@@2@@Z 0040e4d0 f i Player.obj
 0001:0000d530       ?_Kfn@?$_Tmap_traits@KPAVCPlayer@@U?$less@K@std@@V?$allocator@U?$pair@$$CBKPAVCPlayer@@@std@@@3@$0A@@std@@SAABKABU?$pair@$$CBKPAVCPlayer@@@2@@Z 0040e530 f i Player.obj
 0001:0000d540       ??0?$allocator@U?$pair@$$CBKPAVCPlayer@@@std@@@std@@QAE@XZ 0040e540 f i Player.obj
 0001:0000d550       ?deallocate@?$allocator@U_Node@?$_Tree_nod@V?$_Tmap_traits@KPAVCPlayer@@U?$less@K@std@@V?$allocator@U?$pair@$$CBKPAVCPlayer@@@std@@@3@$0A@@std@@@std@@@std@@QAEXPAU_Node@?$_Tree_nod@V?$_Tmap_traits@KPAVCPlayer@@U?$less@K@std@@V?$allocator@U?$pair@$$CBKPAVCPlayer@@@std@@@3@$0A@@std@@@2@I@Z 0040e550 f i Player.obj
 0001:0000d560       ??8const_iterator@?$_Tree@V?$_Tmap_traits@KPAVCPlayer@@U?$less@K@std@@V?$allocator@U?$pair@$$CBKPAVCPlayer@@@std@@@3@$0A@@std@@@std@@QBE_NABV012@@Z 0040e560 f i Player.obj
 0001:0000d570       ?_Mynode@const_iterator@?$_Tree@V?$_Tmap_traits@KPAVCPlayer@@U?$less@K@std@@V?$allocator@U?$pair@$$CBKPAVCPlayer@@@std@@@3@$0A@@std@@@std@@QBEPAU_Node@?$_Tree_nod@V?$_Tmap_traits@KPAVCPlayer@@U?$less@K@std@@V?$allocator@U?$pair@$$CBKPAVCPlayer@@@std@@@3@$0A@@std@@@3@XZ 0040e570 f i Player.obj
 0001:0000d580       ??0?$pair@Viterator@?$_Tree@V?$_Tmap_traits@KPAVCPlayer@@U?$less@K@std@@V?$allocator@U?$pair@$$CBKPAVCPlayer@@@std@@@3@$0A@@std@@@std@@_N@std@@QAE@ABViterator@?$_Tree@V?$_Tmap_traits@KPAVCPlayer@@U?$less@K@std@@V?$allocator@U?$pair@$$CBKPAVCPlayer@@@std@@@3@$0A@@std@@@1@AB_N@Z 0040e580 f i Player.obj
 0001:0000d5a0       ?_Myval@?$_Tree@V?$_Tmap_traits@KPAVCPlayer@@U?$less@K@std@@V?$allocator@U?$pair@$$CBKPAVCPlayer@@@std@@@3@$0A@@std@@@std@@KAAAU?$pair@$$CBKPAVCPlayer@@@2@PAU_Node@?$_Tree_nod@V?$_Tmap_traits@KPAVCPlayer@@U?$less@K@std@@V?$allocator@U?$pair@$$CBKPAVCPlayer@@@std@@@3@$0A@@std@@@2@@Z 0040e5a0 f i Player.obj
 0001:0000d5b0       ??0?$allocator@U?$pair@$$CBKPAVCPlayer@@@std@@@std@@QAE@ABV01@@Z 0040e5b0 f i Player.obj
 0001:0000d5c0       ??0const_iterator@?$_Tree@V?$_Tmap_traits@KPAVCPlayer@@U?$less@K@std@@V?$allocator@U?$pair@$$CBKPAVCPlayer@@@std@@@3@$0A@@std@@@std@@QAE@PAU_Node@?$_Tree_nod@V?$_Tmap_traits@KPAVCPlayer@@U?$less@K@std@@V?$allocator@U?$pair@$$CBKPAVCPlayer@@@std@@@3@$0A@@std@@@2@@Z 0040e5c0 f i Player.obj
 0001:0000d5d0       ??Dconst_iterator@?$_Tree@V?$_Tmap_traits@KPAVCPlayer@@U?$less@K@std@@V?$allocator@U?$pair@$$CBKPAVCPlayer@@@std@@@3@$0A@@std@@@std@@QBEABU?$pair@$$CBKPAVCPlayer@@@2@XZ 0040e5d0 f i Player.obj
 0001:0000d5e0       ?_Inc@const_iterator@?$_Tree@V?$_Tmap_traits@KPAVCPlayer@@U?$less@K@std@@V?$allocator@U?$pair@$$CBKPAVCPlayer@@@std@@@3@$0A@@std@@@std@@QAEXXZ 0040e5e0 f i Player.obj
 0001:0000d640       ?_Root@?$_Tree@V?$_Tmap_traits@KPAVCPlayer@@U?$less@K@std@@V?$allocator@U?$pair@$$CBKPAVCPlayer@@@std@@@3@$0A@@std@@@std@@IBEAAPAU_Node@?$_Tree_nod@V?$_Tmap_traits@KPAVCPlayer@@U?$less@K@std@@V?$allocator@U?$pair@$$CBKPAVCPlayer@@@std@@@3@$0A@@std@@@2@XZ 0040e640 f i Player.obj
 0001:0000d650       ?max_size@?$allocator@U?$pair@$$CBKPAVCPlayer@@@std@@@std@@QBEIXZ 0040e650 f i Player.obj
 0001:0000d660       ?_Dec@const_iterator@?$_Tree@V?$_Tmap_traits@KPAVCPlayer@@U?$less@K@std@@V?$allocator@U?$pair@$$CBKPAVCPlayer@@@std@@@3@$0A@@std@@@std@@QAEXXZ 0040e660 f i Player.obj
 0001:0000d6c0       ??0_Node@?$_Tree_nod@V?$_Tmap_traits@KPAVCPlayer@@U?$less@K@std@@V?$allocator@U?$pair@$$CBKPAVCPlayer@@@std@@@3@$0A@@std@@@std@@QAE@PAU012@00ABU?$pair@$$CBKPAVCPlayer@@@2@D@Z 0040e6c0 f i Player.obj
 0001:0000d700       ??0?$_Tmap_traits@KPAVCPlayer@@U?$less@K@std@@V?$allocator@U?$pair@$$CBKPAVCPlayer@@@std@@@3@$0A@@std@@QAE@U?$less@K@1@@Z 0040e700 f i Player.obj
 0001:0000d710       ??$_Destroy@U_Node@?$_Tree_nod@V?$_Tmap_traits@KPAVCPlayer@@U?$less@K@std@@V?$allocator@U?$pair@$$CBKPAVCPlayer@@@std@@@3@$0A@@std@@@std@@@std@@YAXPAU_Node@?$_Tree_nod@V?$_Tmap_traits@KPAVCPlayer@@U?$less@K@std@@V?$allocator@U?$pair@$$CBKPAVCPlayer@@@std@@@3@$0A@@std@@@0@@Z 0040e710 f i Player.obj
 0001:0000d720       ??$_Destroy@PAU_Node@?$_Tree_nod@V?$_Tmap_traits@KPAVCPlayer@@U?$less@K@std@@V?$allocator@U?$pair@$$CBKPAVCPlayer@@@std@@@3@$0A@@std@@@std@@@std@@YAXPAPAU_Node@?$_Tree_nod@V?$_Tmap_traits@KPAVCPlayer@@U?$less@K@std@@V?$allocator@U?$pair@$$CBKPAVCPlayer@@@std@@@3@$0A@@std@@@0@@Z 0040e720 f i Player.obj
 0001:0000d730       ??$?0U?$pair@$$CBKPAVCPlayer@@@std@@@?$allocator@PAU_Node@?$_Tree_nod@V?$_Tmap_traits@KPAVCPlayer@@U?$less@K@std@@V?$allocator@U?$pair@$$CBKPAVCPlayer@@@std@@@3@$0A@@std@@@std@@@std@@QAE@ABV?$allocator@U?$pair@$$CBKPAVCPlayer@@@std@@@1@@Z 0040e730 f i Player.obj
 0001:0000d740       ??$_Allocate@U_Node@?$_Tree_nod@V?$_Tmap_traits@KPAVCPlayer@@U?$less@K@std@@V?$allocator@U?$pair@$$CBKPAVCPlayer@@@std@@@3@$0A@@std@@@std@@@std@@YAPAU_Node@?$_Tree_nod@V?$_Tmap_traits@KPAVCPlayer@@U?$less@K@std@@V?$allocator@U?$pair@$$CBKPAVCPlayer@@@std@@@3@$0A@@std@@@0@IPAU120@@Z 0040e740 f i Player.obj
 0001:0000d760       ??$?0U?$pair@$$CBKPAVCPlayer@@@std@@@?$allocator@U_Node@?$_Tree_nod@V?$_Tmap_traits@KPAVCPlayer@@U?$less@K@std@@V?$allocator@U?$pair@$$CBKPAVCPlayer@@@std@@@3@$0A@@std@@@std@@@std@@QAE@ABV?$allocator@U?$pair@$$CBKPAVCPlayer@@@std@@@1@@Z 0040e760 f i Player.obj
 0001:0000d770       ??$_Construct@PAU_Node@?$_Tree_nod@V?$_Tmap_traits@KPAVCPlayer@@U?$less@K@std@@V?$allocator@U?$pair@$$CBKPAVCPlayer@@@std@@@3@$0A@@std@@@std@@PAU123@@std@@YAXPAPAU_Node@?$_Tree_nod@V?$_Tmap_traits@KPAVCPlayer@@U?$less@K@std@@V?$allocator@U?$pair@$$CBKPAVCPlayer@@@std@@@3@$0A@@std@@@0@ABQAU120@@Z 0040e770 f i Player.obj
 0001:0000d790       ??_GCPlayer@@UAEPAXI@Z     0040e790 f i Player.obj
 0001:0000d790       ??_ECPlayer@@UAEPAXI@Z     0040e790 f i Player.obj
 0001:0000d7b0       ??9const_iterator@?$_Tree@V?$_Tmap_traits@KPAVCPlayer@@U?$less@K@std@@V?$allocator@U?$pair@$$CBKPAVCPlayer@@@std@@@3@$0A@@std@@@std@@QBE_NABV012@@Z 0040e7b0 f i Player.obj
 0001:0000d7d0       ?_Key@?$_Tree@V?$_Tmap_traits@KPAVCPlayer@@U?$less@K@std@@V?$allocator@U?$pair@$$CBKPAVCPlayer@@@std@@@3@$0A@@std@@@std@@KAABKPAU_Node@?$_Tree_nod@V?$_Tmap_traits@KPAVCPlayer@@U?$less@K@std@@V?$allocator@U?$pair@$$CBKPAVCPlayer@@@std@@@3@$0A@@std@@@2@@Z 0040e7d0 f i Player.obj
 0001:0000d7e0       ?_Lrotate@?$_Tree@V?$_Tmap_traits@KPAVCPlayer@@U?$less@K@std@@V?$allocator@U?$pair@$$CBKPAVCPlayer@@@std@@@3@$0A@@std@@@std@@IAEXPAU_Node@?$_Tree_nod@V?$_Tmap_traits@KPAVCPlayer@@U?$less@K@std@@V?$allocator@U?$pair@$$CBKPAVCPlayer@@@std@@@3@$0A@@std@@@2@@Z 0040e7e0 f i Player.obj
 0001:0000d840       ?destroy@?$allocator@U_Node@?$_Tree_nod@V?$_Tmap_traits@KPAVCPlayer@@U?$less@K@std@@V?$allocator@U?$pair@$$CBKPAVCPlayer@@@std@@@3@$0A@@std@@@std@@@std@@QAEXPAU_Node@?$_Tree_nod@V?$_Tmap_traits@KPAVCPlayer@@U?$less@K@std@@V?$allocator@U?$pair@$$CBKPAVCPlayer@@@std@@@3@$0A@@std@@@2@@Z 0040e840 f i Player.obj
 0001:0000d850       ??0iterator@?$_Tree@V?$_Tmap_traits@KPAVCPlayer@@U?$less@K@std@@V?$allocator@U?$pair@$$CBKPAVCPlayer@@@std@@@3@$0A@@std@@@std@@QAE@PAU_Node@?$_Tree_nod@V?$_Tmap_traits@KPAVCPlayer@@U?$less@K@std@@V?$allocator@U?$pair@$$CBKPAVCPlayer@@@std@@@3@$0A@@std@@@2@@Z 0040e850 f i Player.obj
 0001:0000d860       ??Diterator@?$_Tree@V?$_Tmap_traits@KPAVCPlayer@@U?$less@K@std@@V?$allocator@U?$pair@$$CBKPAVCPlayer@@@std@@@3@$0A@@std@@@std@@QBEAAU?$pair@$$CBKPAVCPlayer@@@2@XZ 0040e860 f i Player.obj
 0001:0000d870       ??Econst_iterator@?$_Tree@V?$_Tmap_traits@KPAVCPlayer@@U?$less@K@std@@V?$allocator@U?$pair@$$CBKPAVCPlayer@@@std@@@3@$0A@@std@@@std@@QAEAAV012@XZ 0040e870 f i Player.obj
 0001:0000d880       ?max_size@?$_Tree@V?$_Tmap_traits@KPAVCPlayer@@U?$less@K@std@@V?$allocator@U?$pair@$$CBKPAVCPlayer@@@std@@@3@$0A@@std@@@std@@QBEIXZ 0040e880 f i Player.obj
 0001:0000d890       ?_Lbound@?$_Tree@V?$_Tmap_traits@KPAVCPlayer@@U?$less@K@std@@V?$allocator@U?$pair@$$CBKPAVCPlayer@@@std@@@3@$0A@@std@@@std@@IBEPAU_Node@?$_Tree_nod@V?$_Tmap_traits@KPAVCPlayer@@U?$less@K@std@@V?$allocator@U?$pair@$$CBKPAVCPlayer@@@std@@@3@$0A@@std@@@2@ABK@Z 0040e890 f i Player.obj
 0001:0000d8c0       ?destroy@?$allocator@PAU_Node@?$_Tree_nod@V?$_Tmap_traits@KPAVCPlayer@@U?$less@K@std@@V?$allocator@U?$pair@$$CBKPAVCPlayer@@@std@@@3@$0A@@std@@@std@@@std@@QAEXPAPAU_Node@?$_Tree_nod@V?$_Tmap_traits@KPAVCPlayer@@U?$less@K@std@@V?$allocator@U?$pair@$$CBKPAVCPlayer@@@std@@@3@$0A@@std@@@2@@Z 0040e8c0 f i Player.obj
 0001:0000d8d0       ??Fconst_iterator@?$_Tree@V?$_Tmap_traits@KPAVCPlayer@@U?$less@K@std@@V?$allocator@U?$pair@$$CBKPAVCPlayer@@@std@@@3@$0A@@std@@@std@@QAEAAV012@XZ 0040e8d0 f i Player.obj
 0001:0000d8e0       ?allocate@?$allocator@U_Node@?$_Tree_nod@V?$_Tmap_traits@KPAVCPlayer@@U?$less@K@std@@V?$allocator@U?$pair@$$CBKPAVCPlayer@@@std@@@3@$0A@@std@@@std@@@std@@QAEPAU_Node@?$_Tree_nod@V?$_Tmap_traits@KPAVCPlayer@@U?$less@K@std@@V?$allocator@U?$pair@$$CBKPAVCPlayer@@@std@@@3@$0A@@std@@@2@I@Z 0040e8e0 f i Player.obj
 0001:0000d900       ??0?$_Tree_nod@V?$_Tmap_traits@KPAVCPlayer@@U?$less@K@std@@V?$allocator@U?$pair@$$CBKPAVCPlayer@@@std@@@3@$0A@@std@@@std@@IAE@ABU?$less@K@1@V?$allocator@U?$pair@$$CBKPAVCPlayer@@@std@@@1@@Z 0040e900 f i Player.obj
 0001:0000d910       ?construct@?$allocator@PAU_Node@?$_Tree_nod@V?$_Tmap_traits@KPAVCPlayer@@U?$less@K@std@@V?$allocator@U?$pair@$$CBKPAVCPlayer@@@std@@@3@$0A@@std@@@std@@@std@@QAEXPAPAU_Node@?$_Tree_nod@V?$_Tmap_traits@KPAVCPlayer@@U?$less@K@std@@V?$allocator@U?$pair@$$CBKPAVCPlayer@@@std@@@3@$0A@@std@@@2@ABQAU342@@Z 0040e910 f i Player.obj
 0001:0000d930       ?begin@?$_Tree@V?$_Tmap_traits@KPAVCPlayer@@U?$less@K@std@@V?$allocator@U?$pair@$$CBKPAVCPlayer@@@std@@@3@$0A@@std@@@std@@QAE?AViterator@12@XZ 0040e930 f i Player.obj
 0001:0000d940       ?end@?$_Tree@V?$_Tmap_traits@KPAVCPlayer@@U?$less@K@std@@V?$allocator@U?$pair@$$CBKPAVCPlayer@@@std@@@3@$0A@@std@@@std@@QAE?AViterator@12@XZ 0040e940 f i Player.obj
 0001:0000d950       ??Citerator@?$_Tree@V?$_Tmap_traits@KPAVCPlayer@@U?$less@K@std@@V?$allocator@U?$pair@$$CBKPAVCPlayer@@@std@@@3@$0A@@std@@@std@@QBEPAU?$pair@$$CBKPAVCPlayer@@@2@XZ 0040e950 f i Player.obj
 0001:0000d960       ??Eiterator@?$_Tree@V?$_Tmap_traits@KPAVCPlayer@@U?$less@K@std@@V?$allocator@U?$pair@$$CBKPAVCPlayer@@@std@@@3@$0A@@std@@@std@@QAEAAV012@XZ 0040e960 f i Player.obj
 0001:0000d970       ?lower_bound@?$_Tree@V?$_Tmap_traits@KPAVCPlayer@@U?$less@K@std@@V?$allocator@U?$pair@$$CBKPAVCPlayer@@@std@@@3@$0A@@std@@@std@@QAE?AViterator@12@ABK@Z 0040e970 f i Player.obj
 0001:0000d9b0       ?_Erase@?$_Tree@V?$_Tmap_traits@KPAVCPlayer@@U?$less@K@std@@V?$allocator@U?$pair@$$CBKPAVCPlayer@@@std@@@3@$0A@@std@@@std@@IAEXPAU_Node@?$_Tree_nod@V?$_Tmap_traits@KPAVCPlayer@@U?$less@K@std@@V?$allocator@U?$pair@$$CBKPAVCPlayer@@@std@@@3@$0A@@std@@@2@@Z 0040e9b0 f i Player.obj
 0001:0000d9f0       ??Fiterator@?$_Tree@V?$_Tmap_traits@KPAVCPlayer@@U?$less@K@std@@V?$allocator@U?$pair@$$CBKPAVCPlayer@@@std@@@3@$0A@@std@@@std@@QAEAAV012@XZ 0040e9f0 f i Player.obj
 0001:0000da00       ?_Buynode@?$_Tree@V?$_Tmap_traits@KPAVCPlayer@@U?$less@K@std@@V?$allocator@U?$pair@$$CBKPAVCPlayer@@@std@@@3@$0A@@std@@@std@@IAEPAU_Node@?$_Tree_nod@V?$_Tmap_traits@KPAVCPlayer@@U?$less@K@std@@V?$allocator@U?$pair@$$CBKPAVCPlayer@@@std@@@3@$0A@@std@@@2@PAU342@00ABU?$pair@$$CBKPAVCPlayer@@@2@D@Z 0040ea00 f i Player.obj
 0001:0000da40       ?_Buynode@?$_Tree@V?$_Tmap_traits@KPAVCPlayer@@U?$less@K@std@@V?$allocator@U?$pair@$$CBKPAVCPlayer@@@std@@@3@$0A@@std@@@std@@IAEPAU_Node@?$_Tree_nod@V?$_Tmap_traits@KPAVCPlayer@@U?$less@K@std@@V?$allocator@U?$pair@$$CBKPAVCPlayer@@@std@@@3@$0A@@std@@@2@XZ 0040ea40 f i Player.obj
 0001:0000da80       ??0?$_Tree_ptr@V?$_Tmap_traits@KPAVCPlayer@@U?$less@K@std@@V?$allocator@U?$pair@$$CBKPAVCPlayer@@@std@@@3@$0A@@std@@@std@@IAE@ABU?$less@K@1@V?$allocator@U?$pair@$$CBKPAVCPlayer@@@std@@@1@@Z 0040ea80 f i Player.obj
 0001:0000da90       ??Eiterator@?$_Tree@V?$_Tmap_traits@KPAVCPlayer@@U?$less@K@std@@V?$allocator@U?$pair@$$CBKPAVCPlayer@@@std@@@3@$0A@@std@@@std@@QAE?AV012@H@Z 0040ea90 f i Player.obj
 0001:0000dab0       ?DestroyPlayersOnChannel@CPlayerMng@@AAEXPAVCDPClient@@@Z 0040eab0 f   Player.obj
 0001:0000db10       ?DestroyAllPlayers@CPlayerMng@@AAEXXZ 0040eb10 f   Player.obj
 0001:0000db50       ?GetPlayerBySerial@CPlayerMng@@QAEPAVCPlayer@@K@Z 0040eb50 f   Player.obj
 0001:0000dbb0       ?DestroyGarbage@CPlayerMng@@QAEXXZ 0040ebb0 f   Player.obj
 0001:0000dc80       ?clear@?$_Tree@V?$_Tmap_traits@KPAVCPlayer@@U?$less@K@std@@V?$allocator@U?$pair@$$CBKPAVCPlayer@@@std@@@3@$0A@@std@@@std@@QAEXXZ 0040ec80 f i Player.obj
 0001:0000dcb0       ?find@?$_Tree@V?$_Tmap_traits@KPAVCPlayer@@U?$less@K@std@@V?$allocator@U?$pair@$$CBKPAVCPlayer@@@std@@@3@$0A@@std@@@std@@QAE?AViterator@12@ABK@Z 0040ecb0 f i Player.obj
 0001:0000dd20       ?_Init@?$_Tree@V?$_Tmap_traits@KPAVCPlayer@@U?$less@K@std@@V?$allocator@U?$pair@$$CBKPAVCPlayer@@@std@@@3@$0A@@std@@@std@@IAEXXZ 0040ed20 f i Player.obj
 0001:0000dd50       ??0?$_Tree_val@V?$_Tmap_traits@KPAVCPlayer@@U?$less@K@std@@V?$allocator@U?$pair@$$CBKPAVCPlayer@@@std@@@3@$0A@@std@@@std@@IAE@ABU?$less@K@1@V?$allocator@U?$pair@$$CBKPAVCPlayer@@@std@@@1@@Z 0040ed50 f i Player.obj
 0001:0000dd60       ?Clear@CPlayerMng@@QAEXXZ  0040ed60 f   Player.obj
 0001:0000de30       ?GetPlayer@CPlayerMng@@QAEPAVCPlayer@@K@Z 0040ee30 f   Player.obj
 0001:0000de60       ?DestroyPlayer@CPlayerMng@@QAEXPAVCDPClient@@@Z 0040ee60 f   Player.obj
 0001:0000ded0       ??0?$_Tree@V?$_Tmap_traits@KPAVCPlayer@@U?$less@K@std@@V?$allocator@U?$pair@$$CBKPAVCPlayer@@@std@@@3@$0A@@std@@@std@@QAE@ABU?$less@K@1@ABV?$allocator@U?$pair@$$CBKPAVCPlayer@@@std@@@1@@Z 0040eed0 f i Player.obj
 0001:0000df00       ?erase@?$_Tree@V?$_Tmap_traits@KPAVCPlayer@@U?$less@K@std@@V?$allocator@U?$pair@$$CBKPAVCPlayer@@@std@@@3@$0A@@std@@@std@@QAE?AViterator@12@V312@@Z 0040ef00 f i Player.obj
 0001:0000e1c0       ?_Insert@?$_Tree@V?$_Tmap_traits@KPAVCPlayer@@U?$less@K@std@@V?$allocator@U?$pair@$$CBKPAVCPlayer@@@std@@@3@$0A@@std@@@std@@IAE?AViterator@12@_NPAU_Node@?$_Tree_nod@V?$_Tmap_traits@KPAVCPlayer@@U?$less@K@std@@V?$allocator@U?$pair@$$CBKPAVCPlayer@@@std@@@3@$0A@@std@@@2@ABU?$pair@$$CBKPAVCPlayer@@@2@@Z 0040f1c0 f i Player.obj
 0001:0000e370       ?erase@?$_Tree@V?$_Tmap_traits@KPAVCPlayer@@U?$less@K@std@@V?$allocator@U?$pair@$$CBKPAVCPlayer@@@std@@@3@$0A@@std@@@std@@QAE?AViterator@12@V312@0@Z 0040f370 f i Player.obj
 0001:0000e430       ?RemovePlayer@CPlayerMng@@QAEHK@Z 0040f430 f   Player.obj
 0001:0000e4e0       ?insert@?$_Tree@V?$_Tmap_traits@KPAVCPlayer@@U?$less@K@std@@V?$allocator@U?$pair@$$CBKPAVCPlayer@@@std@@@3@$0A@@std@@@std@@QAE?AU?$pair@Viterator@?$_Tree@V?$_Tmap_traits@KPAVCPlayer@@U?$less@K@std@@V?$allocator@U?$pair@$$CBKPAVCPlayer@@@std@@@3@$0A@@std@@@std@@_N@2@ABU?$pair@$$CBKPAVCPlayer@@@2@@Z 0040f4e0 f i Player.obj
 0001:0000e5a0       ?_Tidy@?$_Tree@V?$_Tmap_traits@KPAVCPlayer@@U?$less@K@std@@V?$allocator@U?$pair@$$CBKPAVCPlayer@@@std@@@3@$0A@@std@@@std@@IAEXXZ 0040f5a0 f i Player.obj
 0001:0000e5d0       ?AddPlayer@CPlayerMng@@QAEHK@Z 0040f5d0 f   Player.obj
 0001:0000e690       ??1?$_Tree@V?$_Tmap_traits@KPAVCPlayer@@U?$less@K@std@@V?$allocator@U?$pair@$$CBKPAVCPlayer@@@std@@@3@$0A@@std@@@std@@QAE@XZ 0040f690 f i Player.obj
 0001:0000e6c0       ??1?$map@KPAVCPlayer@@U?$less@K@std@@V?$allocator@U?$pair@$$CBKPAVCPlayer@@@std@@@3@@std@@QAE@XZ 0040f6c0 f i Player.obj
 0001:0000e6f0       ??1CPlayerMng@@UAE@XZ      0040f6f0 f   Player.obj
 0001:0000e780       ??0?$map@KPAVCPlayer@@U?$less@K@std@@V?$allocator@U?$pair@$$CBKPAVCPlayer@@@std@@@3@@std@@QAE@XZ 0040f780 f i Player.obj
 0001:0000e7b0       ??0CPlayerMng@@QAE@XZ      0040f7b0 f   Player.obj
 0001:0000e830       ??_ECPlayerMng@@UAEPAXI@Z  0040f830 f i Player.obj
 0001:0000e830       ??_GCPlayerMng@@UAEPAXI@Z  0040f830 f i Player.obj
 0001:0000e850       ?Instance@CPlayerMng@@SAPAV1@XZ 0040f850 f   Player.obj
 0001:0000e8b0       ?IsStoring@CAr@@QBEHXZ     0040f8b0 f i rtmessenger.obj
 0001:0000e8c0       ??5CAr@@QAEAAV0@AAJ@Z      0040f8c0 f i rtmessenger.obj
 0001:0000e900       ??0_Friend@@QAE@XZ         0040f900 f i rtmessenger.obj
 0001:0000e910       ?GetState@CRTMessenger@@QAEKXZ 0040f910 f i rtmessenger.obj
 0001:0000e920       ?size@?$_Tree@V?$_Tmap_traits@KU_Friend@@U?$less@K@std@@V?$allocator@U?$pair@$$CBKU_Friend@@@std@@@3@$0A@@std@@@std@@QBEIXZ 0040f920 f i rtmessenger.obj
 0001:0000e930       ??0?$pair@$$CBKU_Friend@@@std@@QAE@ABKABU_Friend@@@Z 0040f930 f i rtmessenger.obj
 0001:0000e950       ?_Isnil@?$_Tree@V?$_Tmap_traits@KU_Friend@@U?$less@K@std@@V?$allocator@U?$pair@$$CBKU_Friend@@@std@@@3@$0A@@std@@@std@@KAAADPAU_Node@?$_Tree_nod@V?$_Tmap_traits@KU_Friend@@U?$less@K@std@@V?$allocator@U?$pair@$$CBKU_Friend@@@std@@@3@$0A@@std@@@2@@Z 0040f950 f i rtmessenger.obj
 0001:0000e960       ?_Left@?$_Tree@V?$_Tmap_traits@KU_Friend@@U?$less@K@std@@V?$allocator@U?$pair@$$CBKU_Friend@@@std@@@3@$0A@@std@@@std@@KAAAPAU_Node@?$_Tree_nod@V?$_Tmap_traits@KU_Friend@@U?$less@K@std@@V?$allocator@U?$pair@$$CBKU_Friend@@@std@@@3@$0A@@std@@@2@PAU342@@Z 0040f960 f i rtmessenger.obj
 0001:0000e970       ?_Right@?$_Tree@V?$_Tmap_traits@KU_Friend@@U?$less@K@std@@V?$allocator@U?$pair@$$CBKU_Friend@@@std@@@3@$0A@@std@@@std@@KAAAPAU_Node@?$_Tree_nod@V?$_Tmap_traits@KU_Friend@@U?$less@K@std@@V?$allocator@U?$pair@$$CBKU_Friend@@@std@@@3@$0A@@std@@@2@PAU342@@Z 0040f970 f i rtmessenger.obj
 0001:0000e980       ?_Lmost@?$_Tree@V?$_Tmap_traits@KU_Friend@@U?$less@K@std@@V?$allocator@U?$pair@$$CBKU_Friend@@@std@@@3@$0A@@std@@@std@@IAEAAPAU_Node@?$_Tree_nod@V?$_Tmap_traits@KU_Friend@@U?$less@K@std@@V?$allocator@U?$pair@$$CBKU_Friend@@@std@@@3@$0A@@std@@@2@XZ 0040f980 f i rtmessenger.obj
 0001:0000e990       ?_Rmost@?$_Tree@V?$_Tmap_traits@KU_Friend@@U?$less@K@std@@V?$allocator@U?$pair@$$CBKU_Friend@@@std@@@3@$0A@@std@@@std@@IAEAAPAU_Node@?$_Tree_nod@V?$_Tmap_traits@KU_Friend@@U?$less@K@std@@V?$allocator@U?$pair@$$CBKU_Friend@@@std@@@3@$0A@@std@@@2@XZ 0040f990 f i rtmessenger.obj
 0001:0000e9a0       ?_Kfn@?$_Tmap_traits@KU_Friend@@U?$less@K@std@@V?$allocator@U?$pair@$$CBKU_Friend@@@std@@@3@$0A@@std@@SAABKABU?$pair@$$CBKU_Friend@@@2@@Z 0040f9a0 f i rtmessenger.obj
 0001:0000e9b0       ??0?$allocator@U?$pair@$$CBKU_Friend@@@std@@@std@@QAE@XZ 0040f9b0 f i rtmessenger.obj
 0001:0000e9c0       ??8const_iterator@?$_Tree@V?$_Tmap_traits@KU_Friend@@U?$less@K@std@@V?$allocator@U?$pair@$$CBKU_Friend@@@std@@@3@$0A@@std@@@std@@QBE_NABV012@@Z 0040f9c0 f i rtmessenger.obj
 0001:0000e9d0       ?_Mynode@const_iterator@?$_Tree@V?$_Tmap_traits@KU_Friend@@U?$less@K@std@@V?$allocator@U?$pair@$$CBKU_Friend@@@std@@@3@$0A@@std@@@std@@QBEPAU_Node@?$_Tree_nod@V?$_Tmap_traits@KU_Friend@@U?$less@K@std@@V?$allocator@U?$pair@$$CBKU_Friend@@@std@@@3@$0A@@std@@@3@XZ 0040f9d0 f i rtmessenger.obj
 0001:0000e9e0       ??0?$pair@Viterator@?$_Tree@V?$_Tmap_traits@KU_Friend@@U?$less@K@std@@V?$allocator@U?$pair@$$CBKU_Friend@@@std@@@3@$0A@@std@@@std@@_N@std@@QAE@ABViterator@?$_Tree@V?$_Tmap_traits@KU_Friend@@U?$less@K@std@@V?$allocator@U?$pair@$$CBKU_Friend@@@std@@@3@$0A@@std@@@1@AB_N@Z 0040f9e0 f i rtmessenger.obj
 0001:0000ea00       ?_Color@?$_Tree@V?$_Tmap_traits@KU_Friend@@U?$less@K@std@@V?$allocator@U?$pair@$$CBKU_Friend@@@std@@@3@$0A@@std@@@std@@KAAADPAU_Node@?$_Tree_nod@V?$_Tmap_traits@KU_Friend@@U?$less@K@std@@V?$allocator@U?$pair@$$CBKU_Friend@@@std@@@3@$0A@@std@@@2@@Z 0040fa00 f i rtmessenger.obj
 0001:0000ea10       ?_Parent@?$_Tree@V?$_Tmap_traits@KU_Friend@@U?$less@K@std@@V?$allocator@U?$pair@$$CBKU_Friend@@@std@@@3@$0A@@std@@@std@@KAAAPAU_Node@?$_Tree_nod@V?$_Tmap_traits@KU_Friend@@U?$less@K@std@@V?$allocator@U?$pair@$$CBKU_Friend@@@std@@@3@$0A@@std@@@2@PAU342@@Z 0040fa10 f i rtmessenger.obj
 0001:0000ea20       ?_Myval@?$_Tree@V?$_Tmap_traits@KU_Friend@@U?$less@K@std@@V?$allocator@U?$pair@$$CBKU_Friend@@@std@@@3@$0A@@std@@@std@@KAAAU?$pair@$$CBKU_Friend@@@2@PAU_Node@?$_Tree_nod@V?$_Tmap_traits@KU_Friend@@U?$less@K@std@@V?$allocator@U?$pair@$$CBKU_Friend@@@std@@@3@$0A@@std@@@2@@Z 0040fa20 f i rtmessenger.obj
 0001:0000ea30       ??0?$allocator@U?$pair@$$CBKU_Friend@@@std@@@std@@QAE@ABV01@@Z 0040fa30 f i rtmessenger.obj
 0001:0000ea40       ?deallocate@?$allocator@U_Node@?$_Tree_nod@V?$_Tmap_traits@KU_Friend@@U?$less@K@std@@V?$allocator@U?$pair@$$CBKU_Friend@@@std@@@3@$0A@@std@@@std@@@std@@QAEXPAU_Node@?$_Tree_nod@V?$_Tmap_traits@KU_Friend@@U?$less@K@std@@V?$allocator@U?$pair@$$CBKU_Friend@@@std@@@3@$0A@@std@@@2@I@Z 0040fa40 f i rtmessenger.obj
 0001:0000ea50       ??0const_iterator@?$_Tree@V?$_Tmap_traits@KU_Friend@@U?$less@K@std@@V?$allocator@U?$pair@$$CBKU_Friend@@@std@@@3@$0A@@std@@@std@@QAE@PAU_Node@?$_Tree_nod@V?$_Tmap_traits@KU_Friend@@U?$less@K@std@@V?$allocator@U?$pair@$$CBKU_Friend@@@std@@@3@$0A@@std@@@2@@Z 0040fa50 f i rtmessenger.obj
 0001:0000ea60       ??Dconst_iterator@?$_Tree@V?$_Tmap_traits@KU_Friend@@U?$less@K@std@@V?$allocator@U?$pair@$$CBKU_Friend@@@std@@@3@$0A@@std@@@std@@QBEABU?$pair@$$CBKU_Friend@@@2@XZ 0040fa60 f i rtmessenger.obj
 0001:0000ea70       ?_Max@?$_Tree@V?$_Tmap_traits@KU_Friend@@U?$less@K@std@@V?$allocator@U?$pair@$$CBKU_Friend@@@std@@@3@$0A@@std@@@std@@KAPAU_Node@?$_Tree_nod@V?$_Tmap_traits@KU_Friend@@U?$less@K@std@@V?$allocator@U?$pair@$$CBKU_Friend@@@std@@@3@$0A@@std@@@2@PAU342@@Z 0040fa70 f i rtmessenger.obj
 0001:0000ea90       ?_Min@?$_Tree@V?$_Tmap_traits@KU_Friend@@U?$less@K@std@@V?$allocator@U?$pair@$$CBKU_Friend@@@std@@@3@$0A@@std@@@std@@KAPAU_Node@?$_Tree_nod@V?$_Tmap_traits@KU_Friend@@U?$less@K@std@@V?$allocator@U?$pair@$$CBKU_Friend@@@std@@@3@$0A@@std@@@2@PAU342@@Z 0040fa90 f i rtmessenger.obj
 0001:0000eab0       ?_Root@?$_Tree@V?$_Tmap_traits@KU_Friend@@U?$less@K@std@@V?$allocator@U?$pair@$$CBKU_Friend@@@std@@@3@$0A@@std@@@std@@IBEAAPAU_Node@?$_Tree_nod@V?$_Tmap_traits@KU_Friend@@U?$less@K@std@@V?$allocator@U?$pair@$$CBKU_Friend@@@std@@@3@$0A@@std@@@2@XZ 0040fab0 f i rtmessenger.obj
 0001:0000eac0       ?max_size@?$allocator@U?$pair@$$CBKU_Friend@@@std@@@std@@QBEIXZ 0040fac0 f i rtmessenger.obj
 0001:0000ead0       ?_Dec@const_iterator@?$_Tree@V?$_Tmap_traits@KU_Friend@@U?$less@K@std@@V?$allocator@U?$pair@$$CBKU_Friend@@@std@@@3@$0A@@std@@@std@@QAEXXZ 0040fad0 f i rtmessenger.obj
 0001:0000eb30       ??0_Node@?$_Tree_nod@V?$_Tmap_traits@KU_Friend@@U?$less@K@std@@V?$allocator@U?$pair@$$CBKU_Friend@@@std@@@3@$0A@@std@@@std@@QAE@PAU012@00ABU?$pair@$$CBKU_Friend@@@2@D@Z 0040fb30 f i rtmessenger.obj
 0001:0000eb70       ??0?$_Tmap_traits@KU_Friend@@U?$less@K@std@@V?$allocator@U?$pair@$$CBKU_Friend@@@std@@@3@$0A@@std@@QAE@U?$less@K@1@@Z 0040fb70 f i rtmessenger.obj
 0001:0000eb80       ??$_Destroy@U_Node@?$_Tree_nod@V?$_Tmap_traits@KU_Friend@@U?$less@K@std@@V?$allocator@U?$pair@$$CBKU_Friend@@@std@@@3@$0A@@std@@@std@@@std@@YAXPAU_Node@?$_Tree_nod@V?$_Tmap_traits@KU_Friend@@U?$less@K@std@@V?$allocator@U?$pair@$$CBKU_Friend@@@std@@@3@$0A@@std@@@0@@Z 0040fb80 f i rtmessenger.obj
 0001:0000eb90       ??$_Destroy@PAU_Node@?$_Tree_nod@V?$_Tmap_traits@KU_Friend@@U?$less@K@std@@V?$allocator@U?$pair@$$CBKU_Friend@@@std@@@3@$0A@@std@@@std@@@std@@YAXPAPAU_Node@?$_Tree_nod@V?$_Tmap_traits@KU_Friend@@U?$less@K@std@@V?$allocator@U?$pair@$$CBKU_Friend@@@std@@@3@$0A@@std@@@0@@Z 0040fb90 f i rtmessenger.obj
 0001:0000eba0       ??$?0U?$pair@$$CBKU_Friend@@@std@@@?$allocator@PAU_Node@?$_Tree_nod@V?$_Tmap_traits@KU_Friend@@U?$less@K@std@@V?$allocator@U?$pair@$$CBKU_Friend@@@std@@@3@$0A@@std@@@std@@@std@@QAE@ABV?$allocator@U?$pair@$$CBKU_Friend@@@std@@@1@@Z 0040fba0 f i rtmessenger.obj
 0001:0000ebb0       ??$_Allocate@U_Node@?$_Tree_nod@V?$_Tmap_traits@KU_Friend@@U?$less@K@std@@V?$allocator@U?$pair@$$CBKU_Friend@@@std@@@3@$0A@@std@@@std@@@std@@YAPAU_Node@?$_Tree_nod@V?$_Tmap_traits@KU_Friend@@U?$less@K@std@@V?$allocator@U?$pair@$$CBKU_Friend@@@std@@@3@$0A@@std@@@0@IPAU120@@Z 0040fbb0 f i rtmessenger.obj
 0001:0000ebd0       ??$?0U?$pair@$$CBKU_Friend@@@std@@@?$allocator@U_Node@?$_Tree_nod@V?$_Tmap_traits@KU_Friend@@U?$less@K@std@@V?$allocator@U?$pair@$$CBKU_Friend@@@std@@@3@$0A@@std@@@std@@@std@@QAE@ABV?$allocator@U?$pair@$$CBKU_Friend@@@std@@@1@@Z 0040fbd0 f i rtmessenger.obj
 0001:0000ebe0       ??$_Construct@PAU_Node@?$_Tree_nod@V?$_Tmap_traits@KU_Friend@@U?$less@K@std@@V?$allocator@U?$pair@$$CBKU_Friend@@@std@@@3@$0A@@std@@@std@@PAU123@@std@@YAXPAPAU_Node@?$_Tree_nod@V?$_Tmap_traits@KU_Friend@@U?$less@K@std@@V?$allocator@U?$pair@$$CBKU_Friend@@@std@@@3@$0A@@std@@@0@ABQAU120@@Z 0040fbe0 f i rtmessenger.obj
 0001:0000ec00       ??6CAr@@QAEAAV0@H@Z        0040fc00 f i rtmessenger.obj
 0001:0000ec20       ??5CAr@@QAEAAV0@AAH@Z      0040fc20 f i rtmessenger.obj
 0001:0000ec60       ??9const_iterator@?$_Tree@V?$_Tmap_traits@KU_Friend@@U?$less@K@std@@V?$allocator@U?$pair@$$CBKU_Friend@@@std@@@3@$0A@@std@@@std@@QBE_NABV012@@Z 0040fc60 f i rtmessenger.obj
 0001:0000ec80       ?_Key@?$_Tree@V?$_Tmap_traits@KU_Friend@@U?$less@K@std@@V?$allocator@U?$pair@$$CBKU_Friend@@@std@@@3@$0A@@std@@@std@@KAABKPAU_Node@?$_Tree_nod@V?$_Tmap_traits@KU_Friend@@U?$less@K@std@@V?$allocator@U?$pair@$$CBKU_Friend@@@std@@@3@$0A@@std@@@2@@Z 0040fc80 f i rtmessenger.obj
 0001:0000ec90       ?_Root@?$_Tree@V?$_Tmap_traits@KU_Friend@@U?$less@K@std@@V?$allocator@U?$pair@$$CBKU_Friend@@@std@@@3@$0A@@std@@@std@@IAEAAPAU_Node@?$_Tree_nod@V?$_Tmap_traits@KU_Friend@@U?$less@K@std@@V?$allocator@U?$pair@$$CBKU_Friend@@@std@@@3@$0A@@std@@@2@XZ 0040fc90 f i rtmessenger.obj
 0001:0000eca0       ??0iterator@?$_Tree@V?$_Tmap_traits@KU_Friend@@U?$less@K@std@@V?$allocator@U?$pair@$$CBKU_Friend@@@std@@@3@$0A@@std@@@std@@QAE@PAU_Node@?$_Tree_nod@V?$_Tmap_traits@KU_Friend@@U?$less@K@std@@V?$allocator@U?$pair@$$CBKU_Friend@@@std@@@3@$0A@@std@@@2@@Z 0040fca0 f i rtmessenger.obj
 0001:0000ecb0       ??Diterator@?$_Tree@V?$_Tmap_traits@KU_Friend@@U?$less@K@std@@V?$allocator@U?$pair@$$CBKU_Friend@@@std@@@3@$0A@@std@@@std@@QBEAAU?$pair@$$CBKU_Friend@@@2@XZ 0040fcb0 f i rtmessenger.obj
 0001:0000ecc0       ?max_size@?$_Tree@V?$_Tmap_traits@KU_Friend@@U?$less@K@std@@V?$allocator@U?$pair@$$CBKU_Friend@@@std@@@3@$0A@@std@@@std@@QBEIXZ 0040fcc0 f i rtmessenger.obj
 0001:0000ecd0       ?_Lbound@?$_Tree@V?$_Tmap_traits@KU_Friend@@U?$less@K@std@@V?$allocator@U?$pair@$$CBKU_Friend@@@std@@@3@$0A@@std@@@std@@IBEPAU_Node@?$_Tree_nod@V?$_Tmap_traits@KU_Friend@@U?$less@K@std@@V?$allocator@U?$pair@$$CBKU_Friend@@@std@@@3@$0A@@std@@@2@ABK@Z 0040fcd0 f i rtmessenger.obj
 0001:0000ed00       ?_Lrotate@?$_Tree@V?$_Tmap_traits@KU_Friend@@U?$less@K@std@@V?$allocator@U?$pair@$$CBKU_Friend@@@std@@@3@$0A@@std@@@std@@IAEXPAU_Node@?$_Tree_nod@V?$_Tmap_traits@KU_Friend@@U?$less@K@std@@V?$allocator@U?$pair@$$CBKU_Friend@@@std@@@3@$0A@@std@@@2@@Z 0040fd00 f i rtmessenger.obj
 0001:0000ed60       ?_Rrotate@?$_Tree@V?$_Tmap_traits@KU_Friend@@U?$less@K@std@@V?$allocator@U?$pair@$$CBKU_Friend@@@std@@@3@$0A@@std@@@std@@IAEXPAU_Node@?$_Tree_nod@V?$_Tmap_traits@KU_Friend@@U?$less@K@std@@V?$allocator@U?$pair@$$CBKU_Friend@@@std@@@3@$0A@@std@@@2@@Z 0040fd60 f i rtmessenger.obj
 0001:0000edc0       ?destroy@?$allocator@U_Node@?$_Tree_nod@V?$_Tmap_traits@KU_Friend@@U?$less@K@std@@V?$allocator@U?$pair@$$CBKU_Friend@@@std@@@3@$0A@@std@@@std@@@std@@QAEXPAU_Node@?$_Tree_nod@V?$_Tmap_traits@KU_Friend@@U?$less@K@std@@V?$allocator@U?$pair@$$CBKU_Friend@@@std@@@3@$0A@@std@@@2@@Z 0040fdc0 f i rtmessenger.obj
 0001:0000edd0       ?destroy@?$allocator@PAU_Node@?$_Tree_nod@V?$_Tmap_traits@KU_Friend@@U?$less@K@std@@V?$allocator@U?$pair@$$CBKU_Friend@@@std@@@3@$0A@@std@@@std@@@std@@QAEXPAPAU_Node@?$_Tree_nod@V?$_Tmap_traits@KU_Friend@@U?$less@K@std@@V?$allocator@U?$pair@$$CBKU_Friend@@@std@@@3@$0A@@std@@@2@@Z 0040fdd0 f i rtmessenger.obj
 0001:0000ede0       ??Fconst_iterator@?$_Tree@V?$_Tmap_traits@KU_Friend@@U?$less@K@std@@V?$allocator@U?$pair@$$CBKU_Friend@@@std@@@3@$0A@@std@@@std@@QAEAAV012@XZ 0040fde0 f i rtmessenger.obj
 0001:0000edf0       ?_Inc@const_iterator@?$_Tree@V?$_Tmap_traits@KU_Friend@@U?$less@K@std@@V?$allocator@U?$pair@$$CBKU_Friend@@@std@@@3@$0A@@std@@@std@@QAEXXZ 0040fdf0 f i rtmessenger.obj
 0001:0000ee50       ?allocate@?$allocator@U_Node@?$_Tree_nod@V?$_Tmap_traits@KU_Friend@@U?$less@K@std@@V?$allocator@U?$pair@$$CBKU_Friend@@@std@@@3@$0A@@std@@@std@@@std@@QAEPAU_Node@?$_Tree_nod@V?$_Tmap_traits@KU_Friend@@U?$less@K@std@@V?$allocator@U?$pair@$$CBKU_Friend@@@std@@@3@$0A@@std@@@2@I@Z 0040fe50 f i rtmessenger.obj
 0001:0000ee70       ??0?$_Tree_nod@V?$_Tmap_traits@KU_Friend@@U?$less@K@std@@V?$allocator@U?$pair@$$CBKU_Friend@@@std@@@3@$0A@@std@@@std@@IAE@ABU?$less@K@1@V?$allocator@U?$pair@$$CBKU_Friend@@@std@@@1@@Z 0040fe70 f i rtmessenger.obj
 0001:0000ee80       ?construct@?$allocator@PAU_Node@?$_Tree_nod@V?$_Tmap_traits@KU_Friend@@U?$less@K@std@@V?$allocator@U?$pair@$$CBKU_Friend@@@std@@@3@$0A@@std@@@std@@@std@@QAEXPAPAU_Node@?$_Tree_nod@V?$_Tmap_traits@KU_Friend@@U?$less@K@std@@V?$allocator@U?$pair@$$CBKU_Friend@@@std@@@3@$0A@@std@@@2@ABQAU342@@Z 0040fe80 f i rtmessenger.obj
 0001:0000eea0       ?begin@?$_Tree@V?$_Tmap_traits@KU_Friend@@U?$less@K@std@@V?$allocator@U?$pair@$$CBKU_Friend@@@std@@@3@$0A@@std@@@std@@QAE?AViterator@12@XZ 0040fea0 f i rtmessenger.obj
 0001:0000eeb0       ?end@?$_Tree@V?$_Tmap_traits@KU_Friend@@U?$less@K@std@@V?$allocator@U?$pair@$$CBKU_Friend@@@std@@@3@$0A@@std@@@std@@QAE?AViterator@12@XZ 0040feb0 f i rtmessenger.obj
 0001:0000eec0       ??Citerator@?$_Tree@V?$_Tmap_traits@KU_Friend@@U?$less@K@std@@V?$allocator@U?$pair@$$CBKU_Friend@@@std@@@3@$0A@@std@@@std@@QBEPAU?$pair@$$CBKU_Friend@@@2@XZ 0040fec0 f i rtmessenger.obj
 0001:0000eed0       ?lower_bound@?$_Tree@V?$_Tmap_traits@KU_Friend@@U?$less@K@std@@V?$allocator@U?$pair@$$CBKU_Friend@@@std@@@3@$0A@@std@@@std@@QAE?AViterator@12@ABK@Z 0040fed0 f i rtmessenger.obj
 0001:0000ef10       ?_Erase@?$_Tree@V?$_Tmap_traits@KU_Friend@@U?$less@K@std@@V?$allocator@U?$pair@$$CBKU_Friend@@@std@@@3@$0A@@std@@@std@@IAEXPAU_Node@?$_Tree_nod@V?$_Tmap_traits@KU_Friend@@U?$less@K@std@@V?$allocator@U?$pair@$$CBKU_Friend@@@std@@@3@$0A@@std@@@2@@Z 0040ff10 f i rtmessenger.obj
 0001:0000ef50       ??Fiterator@?$_Tree@V?$_Tmap_traits@KU_Friend@@U?$less@K@std@@V?$allocator@U?$pair@$$CBKU_Friend@@@std@@@3@$0A@@std@@@std@@QAEAAV012@XZ 0040ff50 f i rtmessenger.obj
 0001:0000ef60       ??Econst_iterator@?$_Tree@V?$_Tmap_traits@KU_Friend@@U?$less@K@std@@V?$allocator@U?$pair@$$CBKU_Friend@@@std@@@3@$0A@@std@@@std@@QAEAAV012@XZ 0040ff60 f i rtmessenger.obj
 0001:0000ef70       ?_Buynode@?$_Tree@V?$_Tmap_traits@KU_Friend@@U?$less@K@std@@V?$allocator@U?$pair@$$CBKU_Friend@@@std@@@3@$0A@@std@@@std@@IAEPAU_Node@?$_Tree_nod@V?$_Tmap_traits@KU_Friend@@U?$less@K@std@@V?$allocator@U?$pair@$$CBKU_Friend@@@std@@@3@$0A@@std@@@2@PAU342@00ABU?$pair@$$CBKU_Friend@@@2@D@Z 0040ff70 f i rtmessenger.obj
 0001:0000efc0       ?_Buynode@?$_Tree@V?$_Tmap_traits@KU_Friend@@U?$less@K@std@@V?$allocator@U?$pair@$$CBKU_Friend@@@std@@@3@$0A@@std@@@std@@IAEPAU_Node@?$_Tree_nod@V?$_Tmap_traits@KU_Friend@@U?$less@K@std@@V?$allocator@U?$pair@$$CBKU_Friend@@@std@@@3@$0A@@std@@@2@XZ 0040ffc0 f i rtmessenger.obj
 0001:0000f000       ??0?$_Tree_ptr@V?$_Tmap_traits@KU_Friend@@U?$less@K@std@@V?$allocator@U?$pair@$$CBKU_Friend@@@std@@@3@$0A@@std@@@std@@IAE@ABU?$less@K@1@V?$allocator@U?$pair@$$CBKU_Friend@@@std@@@1@@Z 00410000 f i rtmessenger.obj
 0001:0000f010       ?clear@?$_Tree@V?$_Tmap_traits@KU_Friend@@U?$less@K@std@@V?$allocator@U?$pair@$$CBKU_Friend@@@std@@@3@$0A@@std@@@std@@QAEXXZ 00410010 f i rtmessenger.obj
 0001:0000f040       ?find@?$_Tree@V?$_Tmap_traits@KU_Friend@@U?$less@K@std@@V?$allocator@U?$pair@$$CBKU_Friend@@@std@@@3@$0A@@std@@@std@@QAE?AViterator@12@ABK@Z 00410040 f i rtmessenger.obj
 0001:0000f0b0       ??Eiterator@?$_Tree@V?$_Tmap_traits@KU_Friend@@U?$less@K@std@@V?$allocator@U?$pair@$$CBKU_Friend@@@std@@@3@$0A@@std@@@std@@QAEAAV012@XZ 004100b0 f i rtmessenger.obj
 0001:0000f0c0       ?_Init@?$_Tree@V?$_Tmap_traits@KU_Friend@@U?$less@K@std@@V?$allocator@U?$pair@$$CBKU_Friend@@@std@@@3@$0A@@std@@@std@@IAEXXZ 004100c0 f i rtmessenger.obj
 0001:0000f0f0       ??0?$_Tree_val@V?$_Tmap_traits@KU_Friend@@U?$less@K@std@@V?$allocator@U?$pair@$$CBKU_Friend@@@std@@@3@$0A@@std@@@std@@IAE@ABU?$less@K@1@V?$allocator@U?$pair@$$CBKU_Friend@@@std@@@1@@Z 004100f0 f i rtmessenger.obj
 0001:0000f100       ??Eiterator@?$_Tree@V?$_Tmap_traits@KU_Friend@@U?$less@K@std@@V?$allocator@U?$pair@$$CBKU_Friend@@@std@@@3@$0A@@std@@@std@@QAE?AV012@H@Z 00410100 f i rtmessenger.obj
 0001:0000f120       ?GetFriend@CRTMessenger@@QAEPAU_Friend@@K@Z 00410120 f   rtmessenger.obj
 0001:0000f150       ?SetBlock@CRTMessenger@@QAEXKH@Z 00410150 f   rtmessenger.obj
 0001:0000f190       ?IsBlock@CRTMessenger@@QAEHK@Z 00410190 f   rtmessenger.obj
 0001:0000f1d0       ??0?$_Tree@V?$_Tmap_traits@KU_Friend@@U?$less@K@std@@V?$allocator@U?$pair@$$CBKU_Friend@@@std@@@3@$0A@@std@@@std@@QAE@ABU?$less@K@1@ABV?$allocator@U?$pair@$$CBKU_Friend@@@std@@@1@@Z 004101d0 f i rtmessenger.obj
 0001:0000f200       ?_Insert@?$_Tree@V?$_Tmap_traits@KU_Friend@@U?$less@K@std@@V?$allocator@U?$pair@$$CBKU_Friend@@@std@@@3@$0A@@std@@@std@@IAE?AViterator@12@_NPAU_Node@?$_Tree_nod@V?$_Tmap_traits@KU_Friend@@U?$less@K@std@@V?$allocator@U?$pair@$$CBKU_Friend@@@std@@@3@$0A@@std@@@2@ABU?$pair@$$CBKU_Friend@@@2@@Z 00410200 f i rtmessenger.obj
 0001:0000f3b0       ?erase@?$_Tree@V?$_Tmap_traits@KU_Friend@@U?$less@K@std@@V?$allocator@U?$pair@$$CBKU_Friend@@@std@@@3@$0A@@std@@@std@@QAE?AViterator@12@V312@@Z 004103b0 f i rtmessenger.obj
 0001:0000f670       ?insert@?$_Tree@V?$_Tmap_traits@KU_Friend@@U?$less@K@std@@V?$allocator@U?$pair@$$CBKU_Friend@@@std@@@3@$0A@@std@@@std@@QAE?AU?$pair@Viterator@?$_Tree@V?$_Tmap_traits@KU_Friend@@U?$less@K@std@@V?$allocator@U?$pair@$$CBKU_Friend@@@std@@@3@$0A@@std@@@std@@_N@2@ABU?$pair@$$CBKU_Friend@@@2@@Z 00410670 f i rtmessenger.obj
 0001:0000f730       ?erase@?$_Tree@V?$_Tmap_traits@KU_Friend@@U?$less@K@std@@V?$allocator@U?$pair@$$CBKU_Friend@@@std@@@3@$0A@@std@@@std@@QAE?AViterator@12@V312@0@Z 00410730 f i rtmessenger.obj
 0001:0000f7f0       ?_Tidy@?$_Tree@V?$_Tmap_traits@KU_Friend@@U?$less@K@std@@V?$allocator@U?$pair@$$CBKU_Friend@@@std@@@3@$0A@@std@@@std@@IAEXXZ 004107f0 f i rtmessenger.obj
 0001:0000f820       ?SetFriend@CRTMessenger@@QAEXKPAU_Friend@@@Z 00410820 f   rtmessenger.obj
 0001:0000f8b0       ?Serialize@CRTMessenger@@QAEHAAVCAr@@@Z 004108b0 f   rtmessenger.obj
 0001:0000fa20       ??4CRTMessenger@@UAEAAV0@AAV0@@Z 00410a20 f   rtmessenger.obj
 0001:0000fa90       ??1?$_Tree@V?$_Tmap_traits@KU_Friend@@U?$less@K@std@@V?$allocator@U?$pair@$$CBKU_Friend@@@std@@@3@$0A@@std@@@std@@QAE@XZ 00410a90 f i rtmessenger.obj
 0001:0000fac0       ??1?$map@KU_Friend@@U?$less@K@std@@V?$allocator@U?$pair@$$CBKU_Friend@@@std@@@3@@std@@QAE@XZ 00410ac0 f i rtmessenger.obj
 0001:0000faf0       ??1CRTMessenger@@UAE@XZ    00410af0 f   rtmessenger.obj
 0001:0000fb80       ??0?$map@KU_Friend@@U?$less@K@std@@V?$allocator@U?$pair@$$CBKU_Friend@@@std@@@3@@std@@QAE@XZ 00410b80 f i rtmessenger.obj
 0001:0000fbb0       ??0CRTMessenger@@QAE@XZ    00410bb0 f   rtmessenger.obj
 0001:0000fbf0       ??_GCRTMessenger@@UAEPAXI@Z 00410bf0 f i rtmessenger.obj
 0001:0000fbf0       ??_ECRTMessenger@@UAEPAXI@Z 00410bf0 f i rtmessenger.obj
 0001:0000fc10       ??0CSpeedHackChecker@@QAE@XZ 00410c10 f   speedhackchecker.obj
 0001:0000fc20       ??1CSpeedHackChecker@@QAE@XZ 00410c20 f   speedhackchecker.obj
 0001:0000fc30       ?sETbaseOfServer@CSpeedHackChecker@@QAEXPAVCDPMng@@K@Z 00410c30 f   speedhackchecker.obj
 0001:0000fd30       ?sETbaseOfClient@CSpeedHackChecker@@QAEXK@Z 00410d30 f   speedhackchecker.obj
 0001:0000fd40       ?rEQoffsetOfClient@CSpeedHackChecker@@QAEXPAVCDPMng@@K@Z 00410d40 f   speedhackchecker.obj
 0001:0000fe30       ?CheckClock@CSpeedHackChecker@@QAEHKPAVCDPMng@@K@Z 00410e30 f   speedhackchecker.obj
 0001:0000ff70       ?Allocate@CCRTAllocator@ATL@@SAPAXI@Z 00410f70 f i StdAfx.obj
 0001:0000ff80       ?Free@CCRTAllocator@ATL@@SAXPAX@Z 00410f80 f i StdAfx.obj
 0001:0000ff90       ?_AtlVerifyStackAvailable@_ATL_SAFE_ALLOCA_IMPL@ATL@@YA_NK@Z 00410f90 f i StdAfx.obj
 0001:00010020       ?AtlA2WHelper@@YGPAGPAGPBDHI@Z 00411020 f i StdAfx.obj
 0001:00010060       ?AtlW2AHelper@@YGPADPADPBGHI@Z 00411060 f i StdAfx.obj
 0001:000100a0       ?AtlThrowLastWin32@ATL@@YGXXZ 004110a0 f i StdAfx.obj
 0001:000100c0       ?_AtlInstallStringThunk@ATL@@YAXPAPAXPAX1@Z 004110c0 f i StdAfx.obj
 0001:00010100       ?lstrcmpiWFake@ATL@@YGHPBG0@Z 00411100 f i StdAfx.obj
 0001:000101d0       ?lstrcmpiWThunk@ATL@@YGHPBG0@Z 004111d0 f i StdAfx.obj
 0001:00010220       ?CharLowerWFake@ATL@@YGPAGPAG@Z 00411220 f i StdAfx.obj
 0001:000102e0       ?CharLowerWThunk@ATL@@YGPAGPAG@Z 004112e0 f i StdAfx.obj
 0001:00010330       ?CharUpperWFake@ATL@@YGPAGPAG@Z 00411330 f i StdAfx.obj
 0001:000103f0       ?CharUpperWThunk@ATL@@YGPAGPAG@Z 004113f0 f i StdAfx.obj
 0001:00010440       ??0?$CAtlSafeAllocBufferManager@VCCRTAllocator@ATL@@@_ATL_SAFE_ALLOCA_IMPL@ATL@@QAE@XZ 00411440 f i StdAfx.obj
 0001:00010450       ??1?$CAtlSafeAllocBufferManager@VCCRTAllocator@ATL@@@_ATL_SAFE_ALLOCA_IMPL@ATL@@QAE@XZ 00411450 f i StdAfx.obj
 0001:00010470       ??0?$CTempBuffer@D$0IA@VCCRTAllocator@ATL@@@ATL@@QAE@XZ 00411470 f i StdAfx.obj
 0001:00010480       ??B?$CTempBuffer@D$0IA@VCCRTAllocator@ATL@@@ATL@@QBEPADXZ 00411480 f i StdAfx.obj
 0001:00010490       ??1?$CW2AEX@$0IA@@ATL@@QAE@XZ 00411490 f i StdAfx.obj
 0001:000104b0       ??B?$CW2AEX@$0IA@@ATL@@QBEPADXZ 004114b0 f i StdAfx.obj
 0001:000104c0       ?FreeHeap@?$CTempBuffer@D$0IA@VCCRTAllocator@ATL@@@ATL@@AAEXXZ 004114c0 f i StdAfx.obj
 0001:000104d0       ?Init@?$CW2AEX@$0IA@@ATL@@AAEXPBGI@Z 004114d0 f i StdAfx.obj
 0001:00010540       ?StringFindString@?$ChTraitsCRT@D@ATL@@SAPBDPBD0@Z 00411540 f i StdAfx.obj
 0001:00010550       ?StringUppercase@?$ChTraitsCRT@D@ATL@@SAPADPAD@Z 00411550 f i StdAfx.obj
 0001:00010560       ?GetData@CAtlSafeAllocBufferNode@?$CAtlSafeAllocBufferManager@VCCRTAllocator@ATL@@@_ATL_SAFE_ALLOCA_IMPL@ATL@@QAEPAXXZ 00411560 f i StdAfx.obj
 0001:00010570       ?AllocateHeap@?$CTempBuffer@D$0IA@VCCRTAllocator@ATL@@@ATL@@AAEXI@Z 00411570 f i StdAfx.obj
 0001:000105a0       ?Allocate@?$CAtlSafeAllocBufferManager@VCCRTAllocator@ATL@@@_ATL_SAFE_ALLOCA_IMPL@ATL@@QAEPAXK@Z 004115a0 f i StdAfx.obj
 0001:000105d0       ??1?$CTempBuffer@D$0IA@VCCRTAllocator@ATL@@@ATL@@QAE@XZ 004115d0 f i StdAfx.obj
 0001:000105e0       ??0?$CW2AEX@$0IA@@ATL@@QAE@PBG@Z 004115e0 f i StdAfx.obj
 0001:00010610       ?AllocateBytes@?$CTempBuffer@D$0IA@VCCRTAllocator@ATL@@@ATL@@QAEPADI@Z 00411610 f i StdAfx.obj
 0001:00010640       ?CompareStringWFake@ATL@@YGHKKPBGH0H@Z 00411640 f i StdAfx.obj
 0001:000107a0       ?CompareStringWThunk@ATL@@YGHKKPBGH0H@Z 004117a0 f i StdAfx.obj
 0001:000107f0       ?Allocate@?$CTempBuffer@D$0IA@VCCRTAllocator@ATL@@@ATL@@QAEPADI@Z 004117f0 f i StdAfx.obj
 0001:00010820       ??0?$CStringT@DV?$StrTraitMFC@DV?$ChTraitsCRT@D@ATL@@@@@ATL@@QAE@XZ 00411820 f i StdAfx.obj
 0001:00010840       ?Find@?$CStringT@DV?$StrTraitMFC@DV?$ChTraitsCRT@D@ATL@@@@@ATL@@QBEHPBDH@Z 00411840 f i StdAfx.obj
 0001:00010880       ?GetEnvironmentVariableWFake@ATL@@YGKPBGPAGK@Z 00411880 f i StdAfx.obj
 0001:00010a10       ?GetEnvironmentVariableWThunk@ATL@@YGKPBGPAGK@Z 00411a10 f i StdAfx.obj
 0001:00010a60       ?GetStringTypeExWFake@ATL@@YGHKKPBGHPAG@Z 00411a60 f i StdAfx.obj
 0001:00010b70       ?GetStringTypeExWThunk@ATL@@YGHKKPBGHPAG@Z 00411b70 f i StdAfx.obj
 0001:00010bc0       ?MakeUpper@?$CStringT@DV?$StrTraitMFC@DV?$ChTraitsCRT@D@ATL@@@@@ATL@@QAEAAV12@XZ 00411bc0 f i StdAfx.obj
 0001:00010c20       ?KillProcess@@YAHV?$CStringT@DV?$StrTraitMFC@DV?$ChTraitsCRT@D@ATL@@@@@ATL@@@Z 00411c20 f   StdAfx.obj
 0001:00010ec0       ?GetCharLen@@YAHPBD@Z      00411ec0 f   vutil.obj
 0001:00010ed0       ?GetStrCut@@YAHPBDPADH@Z   00411ed0 f   vutil.obj
 0001:00010f20       ?GetStrLen@@YAHPBD@Z       00411f20 f   vutil.obj
 0001:00010f60       ?CopyChar@@YAHPBDPAD@Z     00411f60 f   vutil.obj
 0001:00010fa0       ?IsMultiByte@@YAHPBD@Z     00411fa0 f   vutil.obj
 0001:00010fd0       ?IsHangul@@YAHG@Z          00411fd0 f   vutil.obj
 0001:00011020       ?SetStrNull@@YAXPADH@Z     00412020 f   vutil.obj
 0001:00011080       ?AddRef@CStringData@ATL@@QAEXXZ 00412080 f i vutil.obj
 0001:00011090       ?isdigit2@@YAHD@Z          00412090 f i vutil.obj
 0001:000110b0       ?IsNative@@YAHPBD@Z        004120b0 f   vutil.obj
 0001:00011170       ?GetManager@?$CSimpleStringT@D$0A@@ATL@@QBEPAUIAtlStringMgr@2@XZ 00412170 f i vutil.obj
 0001:00011180       ??0?$CSimpleStringT@D$0A@@ATL@@QAE@PBDHPAUIAtlStringMgr@1@@Z 00412180 f i vutil.obj
 0001:000111f0       ?CloneData@?$CSimpleStringT@D$0A@@ATL@@CAPAUCStringData@2@PAU32@@Z 004121f0 f i vutil.obj
 0001:00011250       ??A?$CSimpleStringT@D$0A@@ATL@@QBEDH@Z 00412250 f i vutil.obj
 0001:00011270       ??0?$CStringT@DV?$StrTraitMFC@DV?$ChTraitsCRT@D@ATL@@@@@ATL@@QAE@PBDHPAUIAtlStringMgr@1@@Z 00412270 f i vutil.obj
 0001:00011290       ??0?$CSimpleStringT@D$0A@@ATL@@QAE@ABV01@@Z 00412290 f i vutil.obj
 0001:000112b0       ??0?$CStringT@DV?$StrTraitMFC@DV?$ChTraitsCRT@D@ATL@@@@@ATL@@QAE@ABV01@@Z 004122b0 f i vutil.obj
 0001:000112d0       ?Left@?$CStringT@DV?$StrTraitMFC@DV?$ChTraitsCRT@D@ATL@@@@@ATL@@QBE?AV12@H@Z 004122d0 f i vutil.obj
 0001:00011330       ??4?$CSimpleStringT@D$0A@@ATL@@QAEAAV01@ABV01@@Z 00412330 f i vutil.obj
 0001:000113a0       ??4?$CStringT@DV?$StrTraitMFC@DV?$ChTraitsCRT@D@ATL@@@@@ATL@@QAEAAV01@ABV01@@Z 004123a0 f i vutil.obj
 0001:000113c0       ?SetStrNull@@YAXAAV?$CStringT@DV?$StrTraitMFC@DV?$ChTraitsCRT@D@ATL@@@@@ATL@@H@Z 004123c0 f   vutil.obj
 0001:000114b0       ?GetCrcByte@CRC32@@QBEEI@Z 004124b0 f i crc.obj
 0001:000114c0       ?Reset@CRC32@@AAEXXZ       004124c0 f i crc.obj
 0001:000114d0       ??0CRC32@@QAE@XZ           004124d0 f   crc.obj
 0001:000114e0       ?ThrowIfInvalidTruncatedSize@CRC32@@ABEXI@Z 004124e0 f   crc.obj
 0001:000114f0       ?TruncatedFinal@CRC32@@QAEXPAEI@Z 004124f0 f   crc.obj
 0001:00011530       ??$IsPowerOf2@I@@YA_NI@Z   00412530 f i crc.obj
 0001:00011550       ??$ModPowerOf2@II@@YAIII@Z 00412550 f i crc.obj
 0001:00011560       ??$GetAlignment@I@@YAIPAI@Z 00412560 f i crc.obj
 0001:00011570       ?IsAlignedOn@@YA_NPBXI@Z   00412570 f i crc.obj
 0001:000115a0       ??$IsAligned@I@@YA_NPBXPAI@Z 004125a0 f i crc.obj
 0001:000115b0       ?Update@CRC32@@QAEXPBEI@Z  004125b0 f   crc.obj
 0001:000116c0       ?Restart@CRC32@@QAEXXZ     004126c0 f i buffer.obj
 0001:000116d0       ?DigestSize@CRC32@@QBEIXZ  004126d0 f i buffer.obj
 0001:000116e0       ?GetWritableBuffer@CBuffer@@QAEPAEPAH@Z 004126e0 f i buffer.obj
 0001:00011700       ?GetWritableBufferSize@CBuffer@@QAEHXZ 00412700 f i buffer.obj
 0001:00011710       ?GetReadableBuffer@CBuffer@@QAEPAEPAH@Z 00412710 f i buffer.obj
 0001:00011730       ?GetReadableBufferSize@CBuffer@@QAEHXZ 00412730 f i buffer.obj
 0001:00011740       ?GetHead@CBufferQueue@@QAEPAVCBuffer@@XZ 00412740 f i buffer.obj
 0001:00011750       ?GetTail@CBufferQueue@@QAEPAVCBuffer@@XZ 00412750 f i buffer.obj
 0001:00011760       ?IsEmpty@CBufferQueue@@QAEHXZ 00412760 f i buffer.obj
 0001:00011770       ?RemoveHead@CBufferQueue@@QAEXXZ 00412770 f i buffer.obj
 0001:000117b0       ??0CBuffer@@QAE@K@Z        004127b0 f   buffer.obj
 0001:00011820       ?GetPacketSize@CBuffer@@UAEKPAE@Z 00412820 f i buffer.obj
 0001:00011830       ?SetHeader@CBuffer@@UAEXK@Z 00412830 f i buffer.obj
 0001:00011860       ??1CBuffer@@UAE@XZ         00412860 f   buffer.obj
 0001:00011890       ?RemoveData@CBufferQueue@@QAEXK@Z 00412890 f   buffer.obj
 0001:00011910       ?GetData@CBufferQueue@@QAEXPAU_WSABUF@@PAK@Z 00412910 f   buffer.obj
 0001:00011960       ??0CBufferFactory@@AAE@XZ  00412960 f   buffer.obj
 0001:00011970       ?GetInstance@CBufferFactory@@SAAAV1@XZ 00412970 f   buffer.obj
 0001:00011990       ?Free@?$MemPooler@VCBuffer@@@@QAEHPAVCBuffer@@@Z 00412990 f i buffer.obj
 0001:000119e0       ?Free@?$MemPooler@VCBuffer2@@@@QAEHPAVCBuffer2@@@Z 004129e0 f i buffer.obj
 0001:00011a30       ??0?$allocator@PAX@std@@QAE@XZ 00412a30 f i buffer.obj
 0001:00011a40       ??0?$allocator@PAX@std@@QAE@ABV01@@Z 00412a40 f i buffer.obj
 0001:00011a50       ?_Nextnode@?$list@PAXV?$allocator@PAX@std@@@std@@KAAAPAU_Node@?$_List_nod@PAXV?$allocator@PAX@std@@@2@PAU342@@Z 00412a50 f i buffer.obj
 0001:00011a60       ?_Prevnode@?$list@PAXV?$allocator@PAX@std@@@std@@KAAAPAU_Node@?$_List_nod@PAXV?$allocator@PAX@std@@@2@PAU342@@Z 00412a60 f i buffer.obj
 0001:00011a70       ?deallocate@?$allocator@U_Node@?$_List_nod@PAXV?$allocator@PAX@std@@@std@@@std@@QAEXPAU_Node@?$_List_nod@PAXV?$allocator@PAX@std@@@2@I@Z 00412a70 f i buffer.obj
 0001:00011a80       ?_Mynode@const_iterator@?$list@PAXV?$allocator@PAX@std@@@std@@QBEPAU_Node@?$_List_nod@PAXV?$allocator@PAX@std@@@3@XZ 00412a80 f i buffer.obj
 0001:00011a90       ??0const_iterator@?$list@PAXV?$allocator@PAX@std@@@std@@QAE@PAU_Node@?$_List_nod@PAXV?$allocator@PAX@std@@@2@@Z 00412a90 f i buffer.obj
 0001:00011aa0       ??0_Node@?$_List_nod@PAXV?$allocator@PAX@std@@@std@@QAE@PAU012@0ABQAX@Z 00412aa0 f i buffer.obj
 0001:00011ac0       ?max_size@?$allocator@PAX@std@@QBEIXZ 00412ac0 f i buffer.obj
 0001:00011ad0       ??$?0PAX@?$allocator@PAU_Node@?$_List_nod@PAXV?$allocator@PAX@std@@@std@@@std@@QAE@ABV?$allocator@PAX@1@@Z 00412ad0 f i buffer.obj
 0001:00011ae0       ??$_Allocate@U_Node@?$_List_nod@PAXV?$allocator@PAX@std@@@std@@@std@@YAPAU_Node@?$_List_nod@PAXV?$allocator@PAX@std@@@0@IPAU120@@Z 00412ae0 f i buffer.obj
 0001:00011b00       ??$_Construct@PAU_Node@?$_List_nod@PAXV?$allocator@PAX@std@@@std@@PAU123@@std@@YAXPAPAU_Node@?$_List_nod@PAXV?$allocator@PAX@std@@@0@ABQAU120@@Z 00412b00 f i buffer.obj
 0001:00011b20       ??$_Destroy@PAU_Node@?$_List_nod@PAXV?$allocator@PAX@std@@@std@@@std@@YAXPAPAU_Node@?$_List_nod@PAXV?$allocator@PAX@std@@@0@@Z 00412b20 f i buffer.obj
 0001:00011b30       ??$?0PAX@?$allocator@U_Node@?$_List_nod@PAXV?$allocator@PAX@std@@@std@@@std@@QAE@ABV?$allocator@PAX@1@@Z 00412b30 f i buffer.obj
 0001:00011b40       ??$_Destroy@U_Node@?$_List_nod@PAXV?$allocator@PAX@std@@@std@@@std@@YAXPAU_Node@?$_List_nod@PAXV?$allocator@PAX@std@@@0@@Z 00412b40 f i buffer.obj
 0001:00011b50       ?Final@CRC32@@QAEXPAE@Z    00412b50 f i buffer.obj
 0001:00011b60       ??3CBuffer@@SAXPAX@Z       00412b60 f i buffer.obj
 0001:00011ba0       ??0CBuffer2@@QAE@K@Z       00412ba0 f i buffer.obj
 0001:00011bd0       ?GetPacketSize@CBuffer2@@UAEKPAE@Z 00412bd0 f i buffer.obj
 0001:00011bf0       ?SetHeader@CBuffer2@@UAEXK@Z 00412bf0 f i buffer.obj
 0001:00011c20       ??3CBuffer2@@SAXPAX@Z      00412c20 f i buffer.obj
 0001:00011c60       ?AddTail@CBufferQueue@@QAEXPAVCBuffer@@@Z 00412c60 f i buffer.obj
 0001:00011cc0       ??_GCBuffer@@UAEPAXI@Z     00412cc0 f i buffer.obj
 0001:00011cc0       ??_ECBuffer@@UAEPAXI@Z     00412cc0 f i buffer.obj
 0001:00011d40       ??0CBufferQueue@@QAE@XZ    00412d40 f   buffer.obj
 0001:00011d80       ?Clear@CBufferQueue@@QAEXH@Z 00412d80 f   buffer.obj
 0001:00011e00       ?allocate@?$allocator@U_Node@?$_List_nod@PAXV?$allocator@PAX@std@@@std@@@std@@QAEPAU_Node@?$_List_nod@PAXV?$allocator@PAX@std@@@2@I@Z 00412e00 f i buffer.obj
 0001:00011e20       ?construct@?$allocator@PAU_Node@?$_List_nod@PAXV?$allocator@PAX@std@@@std@@@std@@QAEXPAPAU_Node@?$_List_nod@PAXV?$allocator@PAX@std@@@2@ABQAU342@@Z 00412e20 f i buffer.obj
 0001:00011e40       ?destroy@?$allocator@PAU_Node@?$_List_nod@PAXV?$allocator@PAX@std@@@std@@@std@@QAEXPAPAU_Node@?$_List_nod@PAXV?$allocator@PAX@std@@@2@@Z 00412e40 f i buffer.obj
 0001:00011e50       ?_Buynode@?$list@PAXV?$allocator@PAX@std@@@std@@IAEPAU_Node@?$_List_nod@PAXV?$allocator@PAX@std@@@2@PAU342@0ABQAX@Z 00412e50 f i buffer.obj
 0001:00011e80       ??0?$_List_nod@PAXV?$allocator@PAX@std@@@std@@IAE@V?$allocator@PAX@1@@Z 00412e80 f i buffer.obj
 0001:00011e90       ?destroy@?$allocator@U_Node@?$_List_nod@PAXV?$allocator@PAX@std@@@std@@@std@@QAEXPAU_Node@?$_List_nod@PAXV?$allocator@PAX@std@@@2@@Z 00412e90 f i buffer.obj
 0001:00011ea0       ??0iterator@?$list@PAXV?$allocator@PAX@std@@@std@@QAE@PAU_Node@?$_List_nod@PAXV?$allocator@PAX@std@@@2@@Z 00412ea0 f i buffer.obj
 0001:00011eb0       ?max_size@?$list@PAXV?$allocator@PAX@std@@@std@@QBEIXZ 00412eb0 f i buffer.obj
 0001:00011ec0       ??_ECBuffer2@@UAEPAXI@Z    00412ec0 f i buffer.obj
 0001:00011ec0       ??_GCBuffer2@@UAEPAXI@Z    00412ec0 f i buffer.obj
 0001:00011f10       ??1CBuffer2@@UAE@XZ        00412f10 f i buffer.obj
 0001:00011f40       ??1CBufferQueue@@UAE@XZ    00412f40 f   buffer.obj
 0001:00011fa0       ?_Buynode@?$list@PAXV?$allocator@PAX@std@@@std@@IAEPAU_Node@?$_List_nod@PAXV?$allocator@PAX@std@@@2@XZ 00412fa0 f i buffer.obj
 0001:00011fc0       ?end@?$list@PAXV?$allocator@PAX@std@@@std@@QAE?AViterator@12@XZ 00412fc0 f i buffer.obj
 0001:00011fd0       ?clear@?$list@PAXV?$allocator@PAX@std@@@std@@QAEXXZ 00412fd0 f i buffer.obj
 0001:00012010       ??0?$_List_ptr@PAXV?$allocator@PAX@std@@@std@@IAE@V?$allocator@PAX@1@@Z 00413010 f i buffer.obj
 0001:00012020       ??_GCBufferQueue@@UAEPAXI@Z 00413020 f i buffer.obj
 0001:00012020       ??_ECBufferQueue@@UAEPAXI@Z 00413020 f i buffer.obj
 0001:00012040       ?_Tidy@?$list@PAXV?$allocator@PAX@std@@@std@@IAEXXZ 00413040 f i buffer.obj
 0001:00012060       ??0?$_List_val@PAXV?$allocator@PAX@std@@@std@@IAE@V?$allocator@PAX@1@@Z 00413060 f i buffer.obj
 0001:00012070       ??0?$list@PAXV?$allocator@PAX@std@@@std@@QAE@XZ 00413070 f i buffer.obj
 0001:00012090       ??1?$list@PAXV?$allocator@PAX@std@@@std@@QAE@XZ 00413090 f i buffer.obj
 0001:000120b0       ?_Incsize@?$list@PAXV?$allocator@PAX@std@@@std@@IAEXI@Z 004130b0 f i buffer.obj
 0001:00012150       ?_Insert@?$list@PAXV?$allocator@PAX@std@@@std@@QAEXViterator@12@ABQAX@Z 00413150 f i buffer.obj
 0001:00012190       ?push_back@?$list@PAXV?$allocator@PAX@std@@@std@@QAEXABQAX@Z 00413190 f i buffer.obj
 0001:000121d0       ?Create@?$MemPooler@VCBuffer@@@@IAEXXZ 004131d0 f i buffer.obj
 0001:00012260       ?Create@?$MemPooler@VCBuffer2@@@@IAEXXZ 00413260 f i buffer.obj
 0001:000122f0       ??0?$MemPooler@VCBuffer@@@@QAE@H@Z 004132f0 f i buffer.obj
 0001:00012370       ?Alloc@?$MemPooler@VCBuffer@@@@QAEPAVCBuffer@@XZ 00413370 f i buffer.obj
 0001:000123b0       ??0?$MemPooler@VCBuffer2@@@@QAE@H@Z 004133b0 f i buffer.obj
 0001:00012430       ?Alloc@?$MemPooler@VCBuffer2@@@@QAEPAVCBuffer2@@XZ 00413430 f i buffer.obj
 0001:00012470       ??2CBuffer@@SAPAXI@Z       00413470 f i buffer.obj
 0001:000124b0       ??2CBuffer2@@SAPAXI@Z      004134b0 f i buffer.obj
 0001:000124f0       ?CreateBuffer@CBufferFactory@@QAEPAVCBuffer@@W4BUFFER_TYPE@@K@Z 004134f0 f   buffer.obj
 0001:00012610       ?AddData@CBufferQueue@@QAEXPAEKW4BUFFER_TYPE@@@Z 00413610 f   buffer.obj
 0001:000127c0       ?GetHandle@CSock@@QAEIXZ   004137c0 f i clientsock.obj
 0001:000127d0       ?GetSize@CBuffer@@QAEHXZ   004137d0 f i clientsock.obj
 0001:000127e0       ?crc@CBufferQueue@@QAEXPAVCRC32@@PAK@Z 004137e0 f i clientsock.obj
 0001:00012800       ?Close@CClientSock@@UAEXXZ 00413800 f   clientsock.obj
 0001:00012840       ?CloseConnection@CClientSock@@UAEHI@Z 00413840 f   clientsock.obj
 0001:00012850       ?Shutdown@CClientSock@@UAEHI@Z 00413850 f   clientsock.obj
 0001:00012860       ?Connect@CClientSock@@QAEHPADG@Z 00413860 f   clientsock.obj
 0001:00012940       ?Recv@CClientSock@@QAEHXZ  00413940 f   clientsock.obj
 0001:000129c0       ?GetPeerAddr@CClientSock@@UAEJKPAXPAK@Z 004139c0 f   clientsock.obj
 0001:00012a60       ?CreateBuffer@CClientSock@@QAEPAVCBuffer@@XZ 00413a60 f   clientsock.obj
 0001:00012a80       ?SendProtocolId@CClientSock@@QAEXXZ 00413a80 f   clientsock.obj
 0001:00012af0       ??0CClientSock@@QAE@K@Z    00413af0 f   clientsock.obj
 0001:00012bd0       ?Get@CSock@@UAEPAV1@I@Z    00413bd0 f i clientsock.obj
 0001:00012bf0       ?SetProtocolId@CClientSock@@UAEXK@Z 00413bf0 f i clientsock.obj
 0001:00012c00       ?GetPeerAddr@CClientSock@@UAEKK@Z 00413c00 f i clientsock.obj
 0001:00012c10       ??1CClientSock@@UAE@XZ     00413c10 f   clientsock.obj
 0001:00012cb0       ?Send@CClientSock@@UAEXPADKK@Z 00413cb0 f   clientsock.obj
 0001:00012de0       ?SendRemnant@CClientSock@@QAEHK@Z 00413de0 f   clientsock.obj
 0001:00012ef0       ?Fetch@CClientSock@@QAEPAVCBuffer@@K@Z 00413ef0 f   clientsock.obj
 0001:00013230       ??_GCClientSock@@UAEPAXI@Z 00414230 f i clientsock.obj
 0001:00013230       ??_ECClientSock@@UAEPAXI@Z 00414230 f i clientsock.obj
 0001:00013260       ?Free@?$MemPooler@VCClientSock@@@@QAEHPAVCClientSock@@@Z 00414260 f i clientsock.obj
 0001:000132b0       ?Create@?$MemPooler@VCClientSock@@@@IAEXXZ 004142b0 f i clientsock.obj
 0001:00013340       ??0?$MemPooler@VCClientSock@@@@QAE@H@Z 00414340 f i clientsock.obj
 0001:000133c0       ??0CClientSockE@@QAE@K@Z   004143c0 f   clientsocke.obj
 0001:00013480       ?GetPeerAddr@CSock@@UAEKK@Z 00414480 f i clientsocke.obj
 0001:00013490       ?SetProtocolId@CClientSockE@@UAEXK@Z 00414490 f i clientsocke.obj
 0001:000134a0       ?Close@CClientSockE@@UAEXXZ 004144a0 f   clientsocke.obj
 0001:00013500       ?CloseConnection@CClientSockE@@UAEHI@Z 00414500 f   clientsocke.obj
 0001:00013510       ?Shutdown@CClientSockE@@UAEHI@Z 00414510 f   clientsocke.obj
 0001:00013520       ?Create@CClientSockE@@UAEHGH@Z 00414520 f   clientsocke.obj
 0001:00013560       ?Attach@CClientSockE@@UAEXI@Z 00414560 f   clientsocke.obj
 0001:000135a0       ?Connect@CClientSockE@@QAEHPADG@Z 004145a0 f   clientsocke.obj
 0001:00013680       ?Recv@CClientSockE@@QAEHXZ 00414680 f   clientsocke.obj
 0001:00013720       ?GetPeerAddr@CClientSockE@@UAEJKPAXPAK@Z 00414720 f   clientsocke.obj
 0001:000137c0       ?CreateBuffer@CClientSockE@@QAEPAVCBuffer@@XZ 004147c0 f   clientsocke.obj
 0001:000137e0       ?SendProtocolId@CClientSockE@@QAEXXZ 004147e0 f   clientsocke.obj
 0001:00013830       ??1CClientSockE@@UAE@XZ    00414830 f   clientsocke.obj
 0001:00013890       ?Send@CClientSockE@@UAEXPADKK@Z 00414890 f   clientsocke.obj
 0001:00013990       ?SendRemnant@CClientSockE@@QAEHK@Z 00414990 f   clientsocke.obj
 0001:00013ab0       ?Fetch@CClientSockE@@QAEPAVCBuffer@@K@Z 00414ab0 f   clientsocke.obj
 0001:00013cc0       ??_GCClientSockE@@UAEPAXI@Z 00414cc0 f i clientsocke.obj
 0001:00013cc0       ??_ECClientSockE@@UAEPAXI@Z 00414cc0 f i clientsocke.obj
 0001:00013cf0       ?Free@?$MemPooler@VCClientSockE@@@@QAEHPAVCClientSockE@@@Z 00414cf0 f i clientsocke.obj
 0001:00013d40       ?Create@?$MemPooler@VCClientSockE@@@@IAEXXZ 00414d40 f i clientsocke.obj
 0001:00013dd0       ??0?$MemPooler@VCClientSockE@@@@QAE@H@Z 00414dd0 f i clientsocke.obj
 0001:00013e50       ?GetRecvHandle@CDPSock@@QAEPAXXZ 00414e50 f i dpmng.obj
 0001:00013e60       ?GetHostAddr@CDPSock@@QAEJPAXPAK@Z 00414e60 f i dpmng.obj
 0001:00013e80       ?GetPlayerAddr@CDPSock@@QAEJKPAXPAK@Z 00414e80 f i dpmng.obj
 0001:00013e90       ?GetPlayerAddr@CDPSock@@QAEKK@Z 00414e90 f i dpmng.obj
 0001:00013ea0       ?GetRecvHandle@CDPMng@@QAEPAXXZ 00414ea0 f i dpmng.obj
 0001:00013eb0       ?GetCloseHandle@CDPMng@@QAEPAXXZ 00414eb0 f i dpmng.obj
 0001:00013ec0       ??0CDPMng@@QAE@XZ          00414ec0 f   dpmng.obj
 0001:00013ee0       ??1CDPMng@@UAE@XZ          00414ee0 f   dpmng.obj
 0001:00013ef0       ?DeleteDPObject@CDPMng@@QAEHXZ 00414ef0 f   dpmng.obj
 0001:00013f60       ?InitConnection@CDPMng@@QAEHPAXG@Z 00414f60 f   dpmng.obj
 0001:00013f80       ?GetHostAddr@CDPMng@@QAEXPAD@Z 00414f80 f   dpmng.obj
 0001:00013fb0       ?GetPlayerAddr@CDPMng@@QAEXKPAD@Z 00414fb0 f   dpmng.obj
 0001:00013fe0       ?GetPlayerAddr@CDPMng@@QAEKK@Z 00414fe0 f   dpmng.obj
 0001:00014000       ?ReceiveMessage@CDPMng@@QAEHXZ 00415000 f   dpmng.obj
 0001:000140a0       ?DestroyPlayer@CDPMng@@QAEHK@Z 004150a0 f   dpmng.obj
 0001:000140c0       ?ReceiveThread@@YGIPAX@Z   004150c0 f   dpmng.obj
 0001:00014120       ?InitializeNetLib@@YAHXZ   00415120 f   dpmng.obj
 0001:00014170       ?TestNetLib@@YAXPBDG@Z     00415170 f   dpmng.obj
 0001:00014210       ??Econst_iterator@?$list@PAXV?$allocator@PAX@std@@@std@@QAEAAV012@XZ 00415210 f i dpmng.obj
 0001:00014220       ??8const_iterator@?$list@PAXV?$allocator@PAX@std@@@std@@QBE_NABV012@@Z 00415220 f i dpmng.obj
 0001:00014230       ?_Myval@?$list@PAXV?$allocator@PAX@std@@@std@@KAAAPAXPAU_Node@?$_List_nod@PAXV?$allocator@PAX@std@@@2@@Z 00415230 f i dpmng.obj
 0001:00014240       ?chWindows9x@@YAHXZ        00415240 f i dpmng.obj
 0001:000142a0       ??_ECDPMng@@UAEPAXI@Z      004152a0 f i dpmng.obj
 0001:000142a0       ??_GCDPMng@@UAEPAXI@Z      004152a0 f i dpmng.obj
 0001:000142c0       ?CreateDPObject@CDPMng@@QAEHH@Z 004152c0 f   dpmng.obj
 0001:00014380       ?CreateSession@CDPMng@@QAEHPBDK@Z 00415380 f   dpmng.obj
 0001:000143c0       ?JoinSession@CDPMng@@QAEHPBDKK@Z 004153c0 f   dpmng.obj
 0001:00014410       ??Eiterator@?$list@PAXV?$allocator@PAX@std@@@std@@QAEAAV012@XZ 00415410 f i dpmng.obj
 0001:00014420       ??9const_iterator@?$list@PAXV?$allocator@PAX@std@@@std@@QBE_NABV012@@Z 00415420 f i dpmng.obj
 0001:00014440       ??Dconst_iterator@?$list@PAXV?$allocator@PAX@std@@@std@@QBEABQAXXZ 00415440 f i dpmng.obj
 0001:00014450       ?begin@?$list@PAXV?$allocator@PAX@std@@@std@@QAE?AViterator@12@XZ 00415450 f i dpmng.obj
 0001:00014460       ??Diterator@?$list@PAXV?$allocator@PAX@std@@@std@@QBEAAPAXXZ 00415460 f i dpmng.obj
 0001:00014470       ?Destroy@?$MemPooler@VCBuffer@@@@IAEXXZ 00415470 f i dpmng.obj
 0001:000144e0       ?Destroy@?$MemPooler@VCBuffer2@@@@IAEXXZ 004154e0 f i dpmng.obj
 0001:00014550       ?Destroy@?$MemPooler@VCClientSock@@@@IAEXXZ 00415550 f i dpmng.obj
 0001:000145c0       ?Destroy@?$MemPooler@VCClientSockE@@@@IAEXXZ 004155c0 f i dpmng.obj
 0001:00014630       ??1?$MemPooler@VCBuffer@@@@QAE@XZ 00415630 f i dpmng.obj
 0001:00014660       ??1?$MemPooler@VCBuffer2@@@@QAE@XZ 00415660 f i dpmng.obj
 0001:00014690       ??1?$MemPooler@VCClientSock@@@@QAE@XZ 00415690 f i dpmng.obj
 0001:000146c0       ??1?$MemPooler@VCClientSockE@@@@QAE@XZ 004156c0 f i dpmng.obj
 0001:000146f0       ??_G?$MemPooler@VCClientSock@@@@QAEPAXI@Z 004156f0 f i dpmng.obj
 0001:00014710       ??_G?$MemPooler@VCClientSockE@@@@QAEPAXI@Z 00415710 f i dpmng.obj
 0001:00014730       ??_G?$MemPooler@VCBuffer@@@@QAEPAXI@Z 00415730 f i dpmng.obj
 0001:00014750       ??_G?$MemPooler@VCBuffer2@@@@QAEPAXI@Z 00415750 f i dpmng.obj
 0001:00014770       ?UninitializeNetLib@@YAXXZ 00415770 f   dpmng.obj
 0001:00014830       ?SetID@CSock@@QAEXK@Z      00415830 f i dpsock.obj
 0001:00014840       ?GetID@CSock@@QAEKXZ       00415840 f i dpsock.obj
 0001:00014850       ?SetPeerID@CSock@@QAEXK@Z  00415850 f i dpsock.obj
 0001:00014860       ?IsCrcWrite@CClientSock@@QAEHXZ 00415860 f i dpsock.obj
 0001:00014870       ?IsCrcWrite@CClientSockE@@QAEHXZ 00415870 f i dpsock.obj
 0001:00014880       ?GetRecvEvent@CClientSockE@@QAEPAXXZ 00415880 f i dpsock.obj
 0001:00014890       ?GetSendEvent@CClientSockE@@QAEPAXXZ 00415890 f i dpsock.obj
 0001:000148a0       ?GetServerSock@CDPSock@@QAEPAVCSock@@XZ 004158a0 f i dpsock.obj
 0001:000148c0       ?GetCompletionPort@CDPSock@@QAEPAXH@Z 004158c0 f i dpsock.obj
 0001:000148d0       ?GetCloseHandle@CDPSock@@QAEPAXXZ 004158d0 f i dpsock.obj
 0001:000148e0       ?GetIoWorkerCount@CDPSock@@QAEHXZ 004158e0 f i dpsock.obj
 0001:000148f0       ?GetSockThreaded@CDPSock@@QAEPAVCSock@@XZ 004158f0 f i dpsock.obj
 0001:00014900       ?Get@CDPSock@@QAEPAVCClientSock@@I@Z 00415900 f i dpsock.obj
 0001:00014920       ?InitializeConnection@CDPSock@@QAEHPAXK@Z 00415920 f   dpsock.obj
 0001:00014960       ?Send@CDPSock@@QAEHPADKK@Z 00415960 f   dpsock.obj
 0001:00014990       ?Shutdown@CDPSock@@QAEHK@Z 00415990 f   dpsock.obj
 0001:000149b0       ?SetProtocolId@CDPSock@@QAEXK@Z 004159b0 f   dpsock.obj
 0001:000149e0       ?size@?$list@PAXV?$allocator@PAX@std@@@std@@QBEIXZ 004159e0 f i dpsock.obj
 0001:000149f0       ??0CSystemInfo@@QAE@XZ     004159f0 f i dpsock.obj
 0001:00014a00       ??3CClientSock@@SAXPAX@Z   00415a00 f i dpsock.obj
 0001:00014a40       ??3CClientSockE@@SAXPAX@Z  00415a40 f i dpsock.obj
 0001:00014a80       ?Receive@CDPSock@@QAEPAVCBuffer@@XZ 00415a80 f   dpsock.obj
 0001:00014af0       ?AddCreatePlayerOrGroupMsg@CDPSock@@QAEXKPAVCBuffer@@@Z 00415af0 f   dpsock.obj
 0001:00014bd0       ?AddDestroyPlayerOrGroupMsg@CDPSock@@QAEXKPAVCBuffer@@@Z 00415bd0 f   dpsock.obj
 0001:00014cb0       ??Eiterator@?$list@PAXV?$allocator@PAX@std@@@std@@QAE?AV012@H@Z 00415cb0 f i dpsock.obj
 0001:00014cc0       ?CloseConnection@CDPSock@@QAEXK@Z 00415cc0 f   dpsock.obj
 0001:00014d20       ?IoWorkerThread@@YGIPAX@Z  00415d20 f   dpsock.obj
 0001:000150a0       ?erase@?$list@PAXV?$allocator@PAX@std@@@std@@QAE?AViterator@12@V312@@Z 004160a0 f i dpsock.obj
 0001:000150e0       ?RemoveThread@CDPSock@@QAEXPAX@Z 004160e0 f   dpsock.obj
 0001:00015150       ?EventWorkerThread@@YGIPAX@Z 00416150 f   dpsock.obj
 0001:00015320       ?front@?$list@PAXV?$allocator@PAX@std@@@std@@QAEAAPAXXZ 00416320 f i dpsock.obj
 0001:00015330       ?pop_front@?$list@PAXV?$allocator@PAX@std@@@std@@QAEXXZ 00416330 f i dpsock.obj
 0001:00015360       ?CloseIoWorker@CDPSock@@AAEHXZ 00416360 f   dpsock.obj
 0001:00015530       ??0CDPSock@@QAE@XZ         00416530 f   dpsock.obj
 0001:000155f0       ?Close@CDPSock@@QAEHXZ     004165f0 f   dpsock.obj
 0001:00015650       ?CreateServerE@CDPSock@@QAEHK@Z 00416650 f   dpsock.obj
 0001:00015760       ??1CDPSock@@UAE@XZ         00416760 f   dpsock.obj
 0001:00015810       ??_GCDPSock@@UAEPAXI@Z     00416810 f i dpsock.obj
 0001:00015810       ??_ECDPSock@@UAEPAXI@Z     00416810 f i dpsock.obj
 0001:00015830       ?CreateIoWorker@CDPSock@@AAEHK@Z 00416830 f   dpsock.obj
 0001:00015910       ?CreateEventWorker@CDPSock@@QAEHPAVCSock@@@Z 00416910 f   dpsock.obj
 0001:000159b0       ?CreateServer@CDPSock@@QAEHK@Z 004169b0 f   dpsock.obj
 0001:00015ad0       ?Alloc@?$MemPooler@VCClientSock@@@@QAEPAVCClientSock@@XZ 00416ad0 f i dpsock.obj
 0001:00015b10       ?Alloc@?$MemPooler@VCClientSockE@@@@QAEPAVCClientSockE@@XZ 00416b10 f i dpsock.obj
 0001:00015b50       ??2CClientSock@@SAPAXI@Z   00416b50 f i dpsock.obj
 0001:00015b90       ??2CClientSockE@@SAPAXI@Z  00416b90 f i dpsock.obj
 0001:00015bd0       ?JoinToServer@CDPSock@@QAEHKK@Z 00416bd0 f   dpsock.obj
 0001:00015df0       ?JoinToServerE@CDPSock@@QAEHKK@Z 00416df0 f   dpsock.obj
 0001:00016000       ?GetListenHandle@CServerSock@@QAEPAXXZ 00417000 f i serversock.obj
 0001:00016010       ?GetCloseHandle@CServerSock@@QAEPAXXZ 00417010 f i serversock.obj
 0001:00016020       ?GetCompletionPort@CServerSock@@QAEPAXH@Z 00417020 f i serversock.obj
 0001:00016030       ?GetIoWorkerCount@CServerSock@@QAEHXZ 00417030 f i serversock.obj
 0001:00016040       ?Listen@CServerSock@@QAEHXZ 00417040 f   serversock.obj
 0001:00016080       ?GetPeerAddr@CServerSock@@QAEJIPAK@Z 00417080 f   serversock.obj
 0001:00016100       ?ListenThread@@YGIPAX@Z    00417100 f   serversock.obj
 0001:00016230       ??0?$pair@$$CBKPAVCClientSock@@@std@@QAE@ABKABQAVCClientSock@@@Z 00417230 f i serversock.obj
 0001:00016250       ?_Color@?$_Tree@V?$_Tmap_traits@KPAVCClientSock@@U?$less@K@std@@V?$allocator@U?$pair@$$CBKPAVCClientSock@@@std@@@3@$0A@@std@@@std@@KAAADPAU_Node@?$_Tree_nod@V?$_Tmap_traits@KPAVCClientSock@@U?$less@K@std@@V?$allocator@U?$pair@$$CBKPAVCClientSock@@@std@@@3@$0A@@std@@@2@@Z 00417250 f i serversock.obj
 0001:00016260       ?_Isnil@?$_Tree@V?$_Tmap_traits@KPAVCClientSock@@U?$less@K@std@@V?$allocator@U?$pair@$$CBKPAVCClientSock@@@std@@@3@$0A@@std@@@std@@KAAADPAU_Node@?$_Tree_nod@V?$_Tmap_traits@KPAVCClientSock@@U?$less@K@std@@V?$allocator@U?$pair@$$CBKPAVCClientSock@@@std@@@3@$0A@@std@@@2@@Z 00417260 f i serversock.obj
 0001:00016270       ?_Left@?$_Tree@V?$_Tmap_traits@KPAVCClientSock@@U?$less@K@std@@V?$allocator@U?$pair@$$CBKPAVCClientSock@@@std@@@3@$0A@@std@@@std@@KAAAPAU_Node@?$_Tree_nod@V?$_Tmap_traits@KPAVCClientSock@@U?$less@K@std@@V?$allocator@U?$pair@$$CBKPAVCClientSock@@@std@@@3@$0A@@std@@@2@PAU342@@Z 00417270 f i serversock.obj
 0001:00016280       ?_Parent@?$_Tree@V?$_Tmap_traits@KPAVCClientSock@@U?$less@K@std@@V?$allocator@U?$pair@$$CBKPAVCClientSock@@@std@@@3@$0A@@std@@@std@@KAAAPAU_Node@?$_Tree_nod@V?$_Tmap_traits@KPAVCClientSock@@U?$less@K@std@@V?$allocator@U?$pair@$$CBKPAVCClientSock@@@std@@@3@$0A@@std@@@2@PAU342@@Z 00417280 f i serversock.obj
 0001:00016290       ?_Right@?$_Tree@V?$_Tmap_traits@KPAVCClientSock@@U?$less@K@std@@V?$allocator@U?$pair@$$CBKPAVCClientSock@@@std@@@3@$0A@@std@@@std@@KAAAPAU_Node@?$_Tree_nod@V?$_Tmap_traits@KPAVCClientSock@@U?$less@K@std@@V?$allocator@U?$pair@$$CBKPAVCClientSock@@@std@@@3@$0A@@std@@@2@PAU342@@Z 00417290 f i serversock.obj
 0001:000162a0       ?_Lmost@?$_Tree@V?$_Tmap_traits@KPAVCClientSock@@U?$less@K@std@@V?$allocator@U?$pair@$$CBKPAVCClientSock@@@std@@@3@$0A@@std@@@std@@IAEAAPAU_Node@?$_Tree_nod@V?$_Tmap_traits@KPAVCClientSock@@U?$less@K@std@@V?$allocator@U?$pair@$$CBKPAVCClientSock@@@std@@@3@$0A@@std@@@2@XZ 004172a0 f i serversock.obj
 0001:000162b0       ?_Max@?$_Tree@V?$_Tmap_traits@KPAVCClientSock@@U?$less@K@std@@V?$allocator@U?$pair@$$CBKPAVCClientSock@@@std@@@3@$0A@@std@@@std@@KAPAU_Node@?$_Tree_nod@V?$_Tmap_traits@KPAVCClientSock@@U?$less@K@std@@V?$allocator@U?$pair@$$CBKPAVCClientSock@@@std@@@3@$0A@@std@@@2@PAU342@@Z 004172b0 f i serversock.obj
 0001:000162d0       ?_Min@?$_Tree@V?$_Tmap_traits@KPAVCClientSock@@U?$less@K@std@@V?$allocator@U?$pair@$$CBKPAVCClientSock@@@std@@@3@$0A@@std@@@std@@KAPAU_Node@?$_Tree_nod@V?$_Tmap_traits@KPAVCClientSock@@U?$less@K@std@@V?$allocator@U?$pair@$$CBKPAVCClientSock@@@std@@@3@$0A@@std@@@2@PAU342@@Z 004172d0 f i serversock.obj
 0001:000162f0       ?_Rmost@?$_Tree@V?$_Tmap_traits@KPAVCClientSock@@U?$less@K@std@@V?$allocator@U?$pair@$$CBKPAVCClientSock@@@std@@@3@$0A@@std@@@std@@IAEAAPAU_Node@?$_Tree_nod@V?$_Tmap_traits@KPAVCClientSock@@U?$less@K@std@@V?$allocator@U?$pair@$$CBKPAVCClientSock@@@std@@@3@$0A@@std@@@2@XZ 004172f0 f i serversock.obj
 0001:00016300       ?_Root@?$_Tree@V?$_Tmap_traits@KPAVCClientSock@@U?$less@K@std@@V?$allocator@U?$pair@$$CBKPAVCClientSock@@@std@@@3@$0A@@std@@@std@@IAEAAPAU_Node@?$_Tree_nod@V?$_Tmap_traits@KPAVCClientSock@@U?$less@K@std@@V?$allocator@U?$pair@$$CBKPAVCClientSock@@@std@@@3@$0A@@std@@@2@XZ 00417300 f i serversock.obj
 0001:00016310       ?_Rrotate@?$_Tree@V?$_Tmap_traits@KPAVCClientSock@@U?$less@K@std@@V?$allocator@U?$pair@$$CBKPAVCClientSock@@@std@@@3@$0A@@std@@@std@@IAEXPAU_Node@?$_Tree_nod@V?$_Tmap_traits@KPAVCClientSock@@U?$less@K@std@@V?$allocator@U?$pair@$$CBKPAVCClientSock@@@std@@@3@$0A@@std@@@2@@Z 00417310 f i serversock.obj
 0001:00016370       ?_Kfn@?$_Tmap_traits@KPAVCClientSock@@U?$less@K@std@@V?$allocator@U?$pair@$$CBKPAVCClientSock@@@std@@@3@$0A@@std@@SAABKABU?$pair@$$CBKPAVCClientSock@@@2@@Z 00417370 f i serversock.obj
 0001:00016380       ??0?$allocator@U?$pair@$$CBKPAVCClientSock@@@std@@@std@@QAE@XZ 00417380 f i serversock.obj
 0001:00016390       ?deallocate@?$allocator@U_Node@?$_Tree_nod@V?$_Tmap_traits@KPAVCClientSock@@U?$less@K@std@@V?$allocator@U?$pair@$$CBKPAVCClientSock@@@std@@@3@$0A@@std@@@std@@@std@@QAEXPAU_Node@?$_Tree_nod@V?$_Tmap_traits@KPAVCClientSock@@U?$less@K@std@@V?$allocator@U?$pair@$$CBKPAVCClientSock@@@std@@@3@$0A@@std@@@2@I@Z 00417390 f i serversock.obj
 0001:000163a0       ??8const_iterator@?$_Tree@V?$_Tmap_traits@KPAVCClientSock@@U?$less@K@std@@V?$allocator@U?$pair@$$CBKPAVCClientSock@@@std@@@3@$0A@@std@@@std@@QBE_NABV012@@Z 004173a0 f i serversock.obj
 0001:000163b0       ?_Mynode@const_iterator@?$_Tree@V?$_Tmap_traits@KPAVCClientSock@@U?$less@K@std@@V?$allocator@U?$pair@$$CBKPAVCClientSock@@@std@@@3@$0A@@std@@@std@@QBEPAU_Node@?$_Tree_nod@V?$_Tmap_traits@KPAVCClientSock@@U?$less@K@std@@V?$allocator@U?$pair@$$CBKPAVCClientSock@@@std@@@3@$0A@@std@@@3@XZ 004173b0 f i serversock.obj
 0001:000163c0       ??0?$pair@Viterator@?$_Tree@V?$_Tmap_traits@KPAVCClientSock@@U?$less@K@std@@V?$allocator@U?$pair@$$CBKPAVCClientSock@@@std@@@3@$0A@@std@@@std@@_N@std@@QAE@ABViterator@?$_Tree@V?$_Tmap_traits@KPAVCClientSock@@U?$less@K@std@@V?$allocator@U?$pair@$$CBKPAVCClientSock@@@std@@@3@$0A@@std@@@1@AB_N@Z 004173c0 f i serversock.obj
 0001:000163e0       ?_Myval@?$_Tree@V?$_Tmap_traits@KPAVCClientSock@@U?$less@K@std@@V?$allocator@U?$pair@$$CBKPAVCClientSock@@@std@@@3@$0A@@std@@@std@@KAAAU?$pair@$$CBKPAVCClientSock@@@2@PAU_Node@?$_Tree_nod@V?$_Tmap_traits@KPAVCClientSock@@U?$less@K@std@@V?$allocator@U?$pair@$$CBKPAVCClientSock@@@std@@@3@$0A@@std@@@2@@Z 004173e0 f i serversock.obj
 0001:000163f0       ??0?$allocator@U?$pair@$$CBKPAVCClientSock@@@std@@@std@@QAE@ABV01@@Z 004173f0 f i serversock.obj
 0001:00016400       ??0const_iterator@?$_Tree@V?$_Tmap_traits@KPAVCClientSock@@U?$less@K@std@@V?$allocator@U?$pair@$$CBKPAVCClientSock@@@std@@@3@$0A@@std@@@std@@QAE@PAU_Node@?$_Tree_nod@V?$_Tmap_traits@KPAVCClientSock@@U?$less@K@std@@V?$allocator@U?$pair@$$CBKPAVCClientSock@@@std@@@3@$0A@@std@@@2@@Z 00417400 f i serversock.obj
 0001:00016410       ??Dconst_iterator@?$_Tree@V?$_Tmap_traits@KPAVCClientSock@@U?$less@K@std@@V?$allocator@U?$pair@$$CBKPAVCClientSock@@@std@@@3@$0A@@std@@@std@@QBEABU?$pair@$$CBKPAVCClientSock@@@2@XZ 00417410 f i serversock.obj
 0001:00016420       ?_Inc@const_iterator@?$_Tree@V?$_Tmap_traits@KPAVCClientSock@@U?$less@K@std@@V?$allocator@U?$pair@$$CBKPAVCClientSock@@@std@@@3@$0A@@std@@@std@@QAEXXZ 00417420 f i serversock.obj
 0001:00016480       ?_Root@?$_Tree@V?$_Tmap_traits@KPAVCClientSock@@U?$less@K@std@@V?$allocator@U?$pair@$$CBKPAVCClientSock@@@std@@@3@$0A@@std@@@std@@IBEAAPAU_Node@?$_Tree_nod@V?$_Tmap_traits@KPAVCClientSock@@U?$less@K@std@@V?$allocator@U?$pair@$$CBKPAVCClientSock@@@std@@@3@$0A@@std@@@2@XZ 00417480 f i serversock.obj
 0001:00016490       ?max_size@?$allocator@U?$pair@$$CBKPAVCClientSock@@@std@@@std@@QBEIXZ 00417490 f i serversock.obj
 0001:000164a0       ?_Dec@const_iterator@?$_Tree@V?$_Tmap_traits@KPAVCClientSock@@U?$less@K@std@@V?$allocator@U?$pair@$$CBKPAVCClientSock@@@std@@@3@$0A@@std@@@std@@QAEXXZ 004174a0 f i serversock.obj
 0001:00016500       ??0_Node@?$_Tree_nod@V?$_Tmap_traits@KPAVCClientSock@@U?$less@K@std@@V?$allocator@U?$pair@$$CBKPAVCClientSock@@@std@@@3@$0A@@std@@@std@@QAE@PAU012@00ABU?$pair@$$CBKPAVCClientSock@@@2@D@Z 00417500 f i serversock.obj
 0001:00016540       ??0?$_Tmap_traits@KPAVCClientSock@@U?$less@K@std@@V?$allocator@U?$pair@$$CBKPAVCClientSock@@@std@@@3@$0A@@std@@QAE@U?$less@K@1@@Z 00417540 f i serversock.obj
 0001:00016550       ??$_Destroy@U_Node@?$_Tree_nod@V?$_Tmap_traits@KPAVCClientSock@@U?$less@K@std@@V?$allocator@U?$pair@$$CBKPAVCClientSock@@@std@@@3@$0A@@std@@@std@@@std@@YAXPAU_Node@?$_Tree_nod@V?$_Tmap_traits@KPAVCClientSock@@U?$less@K@std@@V?$allocator@U?$pair@$$CBKPAVCClientSock@@@std@@@3@$0A@@std@@@0@@Z 00417550 f i serversock.obj
 0001:00016560       ??$_Destroy@PAU_Node@?$_Tree_nod@V?$_Tmap_traits@KPAVCClientSock@@U?$less@K@std@@V?$allocator@U?$pair@$$CBKPAVCClientSock@@@std@@@3@$0A@@std@@@std@@@std@@YAXPAPAU_Node@?$_Tree_nod@V?$_Tmap_traits@KPAVCClientSock@@U?$less@K@std@@V?$allocator@U?$pair@$$CBKPAVCClientSock@@@std@@@3@$0A@@std@@@0@@Z 00417560 f i serversock.obj
 0001:00016570       ??$?0U?$pair@$$CBKPAVCClientSock@@@std@@@?$allocator@PAU_Node@?$_Tree_nod@V?$_Tmap_traits@KPAVCClientSock@@U?$less@K@std@@V?$allocator@U?$pair@$$CBKPAVCClientSock@@@std@@@3@$0A@@std@@@std@@@std@@QAE@ABV?$allocator@U?$pair@$$CBKPAVCClientSock@@@std@@@1@@Z 00417570 f i serversock.obj
 0001:00016580       ??$_Allocate@U_Node@?$_Tree_nod@V?$_Tmap_traits@KPAVCClientSock@@U?$less@K@std@@V?$allocator@U?$pair@$$CBKPAVCClientSock@@@std@@@3@$0A@@std@@@std@@@std@@YAPAU_Node@?$_Tree_nod@V?$_Tmap_traits@KPAVCClientSock@@U?$less@K@std@@V?$allocator@U?$pair@$$CBKPAVCClientSock@@@std@@@3@$0A@@std@@@0@IPAU120@@Z 00417580 f i serversock.obj
 0001:000165a0       ??$?0U?$pair@$$CBKPAVCClientSock@@@std@@@?$allocator@U_Node@?$_Tree_nod@V?$_Tmap_traits@KPAVCClientSock@@U?$less@K@std@@V?$allocator@U?$pair@$$CBKPAVCClientSock@@@std@@@3@$0A@@std@@@std@@@std@@QAE@ABV?$allocator@U?$pair@$$CBKPAVCClientSock@@@std@@@1@@Z 004175a0 f i serversock.obj
 0001:000165b0       ??$_Construct@PAU_Node@?$_Tree_nod@V?$_Tmap_traits@KPAVCClientSock@@U?$less@K@std@@V?$allocator@U?$pair@$$CBKPAVCClientSock@@@std@@@3@$0A@@std@@@std@@PAU123@@std@@YAXPAPAU_Node@?$_Tree_nod@V?$_Tmap_traits@KPAVCClientSock@@U?$less@K@std@@V?$allocator@U?$pair@$$CBKPAVCClientSock@@@std@@@3@$0A@@std@@@0@ABQAU120@@Z 004175b0 f i serversock.obj
 0001:000165d0       ?Lock@CMapChild@@QAEXXZ    004175d0 f i serversock.obj
 0001:000165e0       ?Unlock@CMapChild@@QAEXXZ  004175e0 f i serversock.obj
 0001:000165f0       ?StartServer@CServerSock@@QAEHPAPAXK@Z 004175f0 f   serversock.obj
 0001:00016680       ?Shutdown@CServerSock@@UAEHI@Z 00417680 f   serversock.obj
 0001:00016710       ?GetPeerAddr@CServerSock@@UAEJKPAXPAK@Z 00417710 f   serversock.obj
 0001:00016810       ?GetPeerAddr@CServerSock@@UAEKK@Z 00417810 f   serversock.obj
 0001:000168a0       ??9const_iterator@?$_Tree@V?$_Tmap_traits@KPAVCClientSock@@U?$less@K@std@@V?$allocator@U?$pair@$$CBKPAVCClientSock@@@std@@@3@$0A@@std@@@std@@QBE_NABV012@@Z 004178a0 f i serversock.obj
 0001:000168c0       ?_Key@?$_Tree@V?$_Tmap_traits@KPAVCClientSock@@U?$less@K@std@@V?$allocator@U?$pair@$$CBKPAVCClientSock@@@std@@@3@$0A@@std@@@std@@KAABKPAU_Node@?$_Tree_nod@V?$_Tmap_traits@KPAVCClientSock@@U?$less@K@std@@V?$allocator@U?$pair@$$CBKPAVCClientSock@@@std@@@3@$0A@@std@@@2@@Z 004178c0 f i serversock.obj
 0001:000168d0       ?_Lrotate@?$_Tree@V?$_Tmap_traits@KPAVCClientSock@@U?$less@K@std@@V?$allocator@U?$pair@$$CBKPAVCClientSock@@@std@@@3@$0A@@std@@@std@@IAEXPAU_Node@?$_Tree_nod@V?$_Tmap_traits@KPAVCClientSock@@U?$less@K@std@@V?$allocator@U?$pair@$$CBKPAVCClientSock@@@std@@@3@$0A@@std@@@2@@Z 004178d0 f i serversock.obj
 0001:00016930       ?destroy@?$allocator@U_Node@?$_Tree_nod@V?$_Tmap_traits@KPAVCClientSock@@U?$less@K@std@@V?$allocator@U?$pair@$$CBKPAVCClientSock@@@std@@@3@$0A@@std@@@std@@@std@@QAEXPAU_Node@?$_Tree_nod@V?$_Tmap_traits@KPAVCClientSock@@U?$less@K@std@@V?$allocator@U?$pair@$$CBKPAVCClientSock@@@std@@@3@$0A@@std@@@2@@Z 00417930 f i serversock.obj
 0001:00016940       ??0iterator@?$_Tree@V?$_Tmap_traits@KPAVCClientSock@@U?$less@K@std@@V?$allocator@U?$pair@$$CBKPAVCClientSock@@@std@@@3@$0A@@std@@@std@@QAE@PAU_Node@?$_Tree_nod@V?$_Tmap_traits@KPAVCClientSock@@U?$less@K@std@@V?$allocator@U?$pair@$$CBKPAVCClientSock@@@std@@@3@$0A@@std@@@2@@Z 00417940 f i serversock.obj
 0001:00016950       ??Diterator@?$_Tree@V?$_Tmap_traits@KPAVCClientSock@@U?$less@K@std@@V?$allocator@U?$pair@$$CBKPAVCClientSock@@@std@@@3@$0A@@std@@@std@@QBEAAU?$pair@$$CBKPAVCClientSock@@@2@XZ 00417950 f i serversock.obj
 0001:00016960       ??Econst_iterator@?$_Tree@V?$_Tmap_traits@KPAVCClientSock@@U?$less@K@std@@V?$allocator@U?$pair@$$CBKPAVCClientSock@@@std@@@3@$0A@@std@@@std@@QAEAAV012@XZ 00417960 f i serversock.obj
 0001:00016970       ?max_size@?$_Tree@V?$_Tmap_traits@KPAVCClientSock@@U?$less@K@std@@V?$allocator@U?$pair@$$CBKPAVCClientSock@@@std@@@3@$0A@@std@@@std@@QBEIXZ 00417970 f i serversock.obj
 0001:00016980       ?_Lbound@?$_Tree@V?$_Tmap_traits@KPAVCClientSock@@U?$less@K@std@@V?$allocator@U?$pair@$$CBKPAVCClientSock@@@std@@@3@$0A@@std@@@std@@IBEPAU_Node@?$_Tree_nod@V?$_Tmap_traits@KPAVCClientSock@@U?$less@K@std@@V?$allocator@U?$pair@$$CBKPAVCClientSock@@@std@@@3@$0A@@std@@@2@ABK@Z 00417980 f i serversock.obj
 0001:000169b0       ?destroy@?$allocator@PAU_Node@?$_Tree_nod@V?$_Tmap_traits@KPAVCClientSock@@U?$less@K@std@@V?$allocator@U?$pair@$$CBKPAVCClientSock@@@std@@@3@$0A@@std@@@std@@@std@@QAEXPAPAU_Node@?$_Tree_nod@V?$_Tmap_traits@KPAVCClientSock@@U?$less@K@std@@V?$allocator@U?$pair@$$CBKPAVCClientSock@@@std@@@3@$0A@@std@@@2@@Z 004179b0 f i serversock.obj
 0001:000169c0       ??Fconst_iterator@?$_Tree@V?$_Tmap_traits@KPAVCClientSock@@U?$less@K@std@@V?$allocator@U?$pair@$$CBKPAVCClientSock@@@std@@@3@$0A@@std@@@std@@QAEAAV012@XZ 004179c0 f i serversock.obj
 0001:000169d0       ?allocate@?$allocator@U_Node@?$_Tree_nod@V?$_Tmap_traits@KPAVCClientSock@@U?$less@K@std@@V?$allocator@U?$pair@$$CBKPAVCClientSock@@@std@@@3@$0A@@std@@@std@@@std@@QAEPAU_Node@?$_Tree_nod@V?$_Tmap_traits@KPAVCClientSock@@U?$less@K@std@@V?$allocator@U?$pair@$$CBKPAVCClientSock@@@std@@@3@$0A@@std@@@2@I@Z 004179d0 f i serversock.obj
 0001:000169f0       ??0?$_Tree_nod@V?$_Tmap_traits@KPAVCClientSock@@U?$less@K@std@@V?$allocator@U?$pair@$$CBKPAVCClientSock@@@std@@@3@$0A@@std@@@std@@IAE@ABU?$less@K@1@V?$allocator@U?$pair@$$CBKPAVCClientSock@@@std@@@1@@Z 004179f0 f i serversock.obj
 0001:00016a00       ?construct@?$allocator@PAU_Node@?$_Tree_nod@V?$_Tmap_traits@KPAVCClientSock@@U?$less@K@std@@V?$allocator@U?$pair@$$CBKPAVCClientSock@@@std@@@3@$0A@@std@@@std@@@std@@QAEXPAPAU_Node@?$_Tree_nod@V?$_Tmap_traits@KPAVCClientSock@@U?$less@K@std@@V?$allocator@U?$pair@$$CBKPAVCClientSock@@@std@@@3@$0A@@std@@@2@ABQAU342@@Z 00417a00 f i serversock.obj
 0001:00016a20       ?begin@?$_Tree@V?$_Tmap_traits@KPAVCClientSock@@U?$less@K@std@@V?$allocator@U?$pair@$$CBKPAVCClientSock@@@std@@@3@$0A@@std@@@std@@QAE?AViterator@12@XZ 00417a20 f i serversock.obj
 0001:00016a30       ?end@?$_Tree@V?$_Tmap_traits@KPAVCClientSock@@U?$less@K@std@@V?$allocator@U?$pair@$$CBKPAVCClientSock@@@std@@@3@$0A@@std@@@std@@QAE?AViterator@12@XZ 00417a30 f i serversock.obj
 0001:00016a40       ??Citerator@?$_Tree@V?$_Tmap_traits@KPAVCClientSock@@U?$less@K@std@@V?$allocator@U?$pair@$$CBKPAVCClientSock@@@std@@@3@$0A@@std@@@std@@QBEPAU?$pair@$$CBKPAVCClientSock@@@2@XZ 00417a40 f i serversock.obj
 0001:00016a50       ??Eiterator@?$_Tree@V?$_Tmap_traits@KPAVCClientSock@@U?$less@K@std@@V?$allocator@U?$pair@$$CBKPAVCClientSock@@@std@@@3@$0A@@std@@@std@@QAEAAV012@XZ 00417a50 f i serversock.obj
 0001:00016a60       ?lower_bound@?$_Tree@V?$_Tmap_traits@KPAVCClientSock@@U?$less@K@std@@V?$allocator@U?$pair@$$CBKPAVCClientSock@@@std@@@3@$0A@@std@@@std@@QAE?AViterator@12@ABK@Z 00417a60 f i serversock.obj
 0001:00016aa0       ?_Erase@?$_Tree@V?$_Tmap_traits@KPAVCClientSock@@U?$less@K@std@@V?$allocator@U?$pair@$$CBKPAVCClientSock@@@std@@@3@$0A@@std@@@std@@IAEXPAU_Node@?$_Tree_nod@V?$_Tmap_traits@KPAVCClientSock@@U?$less@K@std@@V?$allocator@U?$pair@$$CBKPAVCClientSock@@@std@@@3@$0A@@std@@@2@@Z 00417aa0 f i serversock.obj
 0001:00016ae0       ??Fiterator@?$_Tree@V?$_Tmap_traits@KPAVCClientSock@@U?$less@K@std@@V?$allocator@U?$pair@$$CBKPAVCClientSock@@@std@@@3@$0A@@std@@@std@@QAEAAV012@XZ 00417ae0 f i serversock.obj
 0001:00016af0       ?_Buynode@?$_Tree@V?$_Tmap_traits@KPAVCClientSock@@U?$less@K@std@@V?$allocator@U?$pair@$$CBKPAVCClientSock@@@std@@@3@$0A@@std@@@std@@IAEPAU_Node@?$_Tree_nod@V?$_Tmap_traits@KPAVCClientSock@@U?$less@K@std@@V?$allocator@U?$pair@$$CBKPAVCClientSock@@@std@@@3@$0A@@std@@@2@PAU342@00ABU?$pair@$$CBKPAVCClientSock@@@2@D@Z 00417af0 f i serversock.obj
 0001:00016b30       ?_Buynode@?$_Tree@V?$_Tmap_traits@KPAVCClientSock@@U?$less@K@std@@V?$allocator@U?$pair@$$CBKPAVCClientSock@@@std@@@3@$0A@@std@@@std@@IAEPAU_Node@?$_Tree_nod@V?$_Tmap_traits@KPAVCClientSock@@U?$less@K@std@@V?$allocator@U?$pair@$$CBKPAVCClientSock@@@std@@@3@$0A@@std@@@2@XZ 00417b30 f i serversock.obj
 0001:00016b70       ??0?$_Tree_ptr@V?$_Tmap_traits@KPAVCClientSock@@U?$less@K@std@@V?$allocator@U?$pair@$$CBKPAVCClientSock@@@std@@@3@$0A@@std@@@std@@IAE@ABU?$less@K@1@V?$allocator@U?$pair@$$CBKPAVCClientSock@@@std@@@1@@Z 00417b70 f i serversock.obj
 0001:00016b80       ??Eiterator@?$_Tree@V?$_Tmap_traits@KPAVCClientSock@@U?$less@K@std@@V?$allocator@U?$pair@$$CBKPAVCClientSock@@@std@@@3@$0A@@std@@@std@@QAE?AV012@H@Z 00417b80 f i serversock.obj
 0001:00016ba0       ?Send@CServerSock@@UAEXPADKK@Z 00417ba0 f   serversock.obj
 0001:00016c80       ?clear@?$_Tree@V?$_Tmap_traits@KPAVCClientSock@@U?$less@K@std@@V?$allocator@U?$pair@$$CBKPAVCClientSock@@@std@@@3@$0A@@std@@@std@@QAEXXZ 00417c80 f i serversock.obj
 0001:00016cb0       ?find@?$_Tree@V?$_Tmap_traits@KPAVCClientSock@@U?$less@K@std@@V?$allocator@U?$pair@$$CBKPAVCClientSock@@@std@@@3@$0A@@std@@@std@@QAE?AViterator@12@ABK@Z 00417cb0 f i serversock.obj
 0001:00016d20       ?_Init@?$_Tree@V?$_Tmap_traits@KPAVCClientSock@@U?$less@K@std@@V?$allocator@U?$pair@$$CBKPAVCClientSock@@@std@@@3@$0A@@std@@@std@@IAEXXZ 00417d20 f i serversock.obj
 0001:00016d50       ??0?$_Tree_val@V?$_Tmap_traits@KPAVCClientSock@@U?$less@K@std@@V?$allocator@U?$pair@$$CBKPAVCClientSock@@@std@@@3@$0A@@std@@@std@@IAE@ABU?$less@K@1@V?$allocator@U?$pair@$$CBKPAVCClientSock@@@std@@@1@@Z 00417d50 f i serversock.obj
 0001:00016d60       ?CloseAllChild@CServerSock@@QAEXXZ 00417d60 f   serversock.obj
 0001:00016e40       ??0?$_Tree@V?$_Tmap_traits@KPAVCClientSock@@U?$less@K@std@@V?$allocator@U?$pair@$$CBKPAVCClientSock@@@std@@@3@$0A@@std@@@std@@QAE@ABU?$less@K@1@ABV?$allocator@U?$pair@$$CBKPAVCClientSock@@@std@@@1@@Z 00417e40 f i serversock.obj
 0001:00016e70       ?Close@CServerSock@@UAEXXZ 00417e70 f   serversock.obj
 0001:00016ed0       ?erase@?$_Tree@V?$_Tmap_traits@KPAVCClientSock@@U?$less@K@std@@V?$allocator@U?$pair@$$CBKPAVCClientSock@@@std@@@3@$0A@@std@@@std@@QAE?AViterator@12@V312@@Z 00417ed0 f i serversock.obj
 0001:00017190       ?_Insert@?$_Tree@V?$_Tmap_traits@KPAVCClientSock@@U?$less@K@std@@V?$allocator@U?$pair@$$CBKPAVCClientSock@@@std@@@3@$0A@@std@@@std@@IAE?AViterator@12@_NPAU_Node@?$_Tree_nod@V?$_Tmap_traits@KPAVCClientSock@@U?$less@K@std@@V?$allocator@U?$pair@$$CBKPAVCClientSock@@@std@@@3@$0A@@std@@@2@ABU?$pair@$$CBKPAVCClientSock@@@2@@Z 00418190 f i serversock.obj
 0001:00017340       ?erase@?$_Tree@V?$_Tmap_traits@KPAVCClientSock@@U?$less@K@std@@V?$allocator@U?$pair@$$CBKPAVCClientSock@@@std@@@3@$0A@@std@@@std@@QAE?AViterator@12@V312@0@Z 00418340 f i serversock.obj
 0001:00017400       ?CloseChild@CServerSock@@QAEHI@Z 00418400 f   serversock.obj
 0001:000174c0       ?CloseConnection@CServerSock@@UAEHI@Z 004184c0 f   serversock.obj
 0001:000174d0       ?insert@?$_Tree@V?$_Tmap_traits@KPAVCClientSock@@U?$less@K@std@@V?$allocator@U?$pair@$$CBKPAVCClientSock@@@std@@@3@$0A@@std@@@std@@QAE?AU?$pair@Viterator@?$_Tree@V?$_Tmap_traits@KPAVCClientSock@@U?$less@K@std@@V?$allocator@U?$pair@$$CBKPAVCClientSock@@@std@@@3@$0A@@std@@@std@@_N@2@ABU?$pair@$$CBKPAVCClientSock@@@2@@Z 004184d0 f i serversock.obj
 0001:00017590       ?_Tidy@?$_Tree@V?$_Tmap_traits@KPAVCClientSock@@U?$less@K@std@@V?$allocator@U?$pair@$$CBKPAVCClientSock@@@std@@@3@$0A@@std@@@std@@IAEXXZ 00418590 f i serversock.obj
 0001:000175c0       ??1?$_Tree@V?$_Tmap_traits@KPAVCClientSock@@U?$less@K@std@@V?$allocator@U?$pair@$$CBKPAVCClientSock@@@std@@@3@$0A@@std@@@std@@QAE@XZ 004185c0 f i serversock.obj
 0001:000175f0       ??1?$map@KPAVCClientSock@@U?$less@K@std@@V?$allocator@U?$pair@$$CBKPAVCClientSock@@@std@@@3@@std@@QAE@XZ 004185f0 f i serversock.obj
 0001:00017620       ??0?$map@KPAVCClientSock@@U?$less@K@std@@V?$allocator@U?$pair@$$CBKPAVCClientSock@@@std@@@3@@std@@QAE@XZ 00418620 f i serversock.obj
 0001:00017650       ??0CMapChild@@QAE@XZ       00418650 f i serversock.obj
 0001:000176a0       ??1CMapChild@@UAE@XZ       004186a0 f i serversock.obj
 0001:000176f0       ??_ECMapChild@@UAEPAXI@Z   004186f0 f i serversock.obj
 0001:000176f0       ??_GCMapChild@@UAEPAXI@Z   004186f0 f i serversock.obj
 0001:00017710       ??0CServerSock@@QAE@K@Z    00418710 f   serversock.obj
 0001:000177b0       ?SetProtocolId@CSock@@UAEXK@Z 004187b0 f i serversock.obj
 0001:000177c0       ?Get@CServerSock@@UAEPAVCSock@@I@Z 004187c0 f i serversock.obj
 0001:00017800       ??1CServerSock@@UAE@XZ     00418800 f   serversock.obj
 0001:000178a0       ??_GCServerSock@@UAEPAXI@Z 004188a0 f i serversock.obj
 0001:000178a0       ??_ECServerSock@@UAEPAXI@Z 004188a0 f i serversock.obj
 0001:000178c0       ?AddChild@CServerSock@@QAEPAVCClientSock@@I@Z 004188c0 f   serversock.obj
 0001:00017990       ?AllocAndAssoc@CServerSock@@QAEHIK@Z 00418990 f   serversock.obj
 0001:00017a00       ?GetListenHandle@CServerSockE@@QAEPAXXZ 00418a00 f i serversocke.obj
 0001:00017a10       ?GetCloseHandle@CServerSockE@@QAEPAXXZ 00418a10 f i serversocke.obj
 0001:00017a20       ?Listen@CServerSockE@@QAEHXZ 00418a20 f   serversocke.obj
 0001:00017a60       ?Shutdown@CServerSockE@@UAEHI@Z 00418a60 f   serversocke.obj
 0001:00017a70       ?GetPeerAddr@CServerSockE@@UAEJKPAXPAK@Z 00418a70 f   serversocke.obj
 0001:00017b30       ??0?$pair@$$CBKPAVCClientSockE@@@std@@QAE@ABKABQAVCClientSockE@@@Z 00418b30 f i serversocke.obj
 0001:00017b50       ?_Color@?$_Tree@V?$_Tmap_traits@KPAVCClientSockE@@U?$less@K@std@@V?$allocator@U?$pair@$$CBKPAVCClientSockE@@@std@@@3@$0A@@std@@@std@@KAAADPAU_Node@?$_Tree_nod@V?$_Tmap_traits@KPAVCClientSockE@@U?$less@K@std@@V?$allocator@U?$pair@$$CBKPAVCClientSockE@@@std@@@3@$0A@@std@@@2@@Z 00418b50 f i serversocke.obj
 0001:00017b60       ?_Isnil@?$_Tree@V?$_Tmap_traits@KPAVCClientSockE@@U?$less@K@std@@V?$allocator@U?$pair@$$CBKPAVCClientSockE@@@std@@@3@$0A@@std@@@std@@KAAADPAU_Node@?$_Tree_nod@V?$_Tmap_traits@KPAVCClientSockE@@U?$less@K@std@@V?$allocator@U?$pair@$$CBKPAVCClientSockE@@@std@@@3@$0A@@std@@@2@@Z 00418b60 f i serversocke.obj
 0001:00017b70       ?_Left@?$_Tree@V?$_Tmap_traits@KPAVCClientSockE@@U?$less@K@std@@V?$allocator@U?$pair@$$CBKPAVCClientSockE@@@std@@@3@$0A@@std@@@std@@KAAAPAU_Node@?$_Tree_nod@V?$_Tmap_traits@KPAVCClientSockE@@U?$less@K@std@@V?$allocator@U?$pair@$$CBKPAVCClientSockE@@@std@@@3@$0A@@std@@@2@PAU342@@Z 00418b70 f i serversocke.obj
 0001:00017b80       ?_Parent@?$_Tree@V?$_Tmap_traits@KPAVCClientSockE@@U?$less@K@std@@V?$allocator@U?$pair@$$CBKPAVCClientSockE@@@std@@@3@$0A@@std@@@std@@KAAAPAU_Node@?$_Tree_nod@V?$_Tmap_traits@KPAVCClientSockE@@U?$less@K@std@@V?$allocator@U?$pair@$$CBKPAVCClientSockE@@@std@@@3@$0A@@std@@@2@PAU342@@Z 00418b80 f i serversocke.obj
 0001:00017b90       ?_Right@?$_Tree@V?$_Tmap_traits@KPAVCClientSockE@@U?$less@K@std@@V?$allocator@U?$pair@$$CBKPAVCClientSockE@@@std@@@3@$0A@@std@@@std@@KAAAPAU_Node@?$_Tree_nod@V?$_Tmap_traits@KPAVCClientSockE@@U?$less@K@std@@V?$allocator@U?$pair@$$CBKPAVCClientSockE@@@std@@@3@$0A@@std@@@2@PAU342@@Z 00418b90 f i serversocke.obj
 0001:00017ba0       ?_Lmost@?$_Tree@V?$_Tmap_traits@KPAVCClientSockE@@U?$less@K@std@@V?$allocator@U?$pair@$$CBKPAVCClientSockE@@@std@@@3@$0A@@std@@@std@@IAEAAPAU_Node@?$_Tree_nod@V?$_Tmap_traits@KPAVCClientSockE@@U?$less@K@std@@V?$allocator@U?$pair@$$CBKPAVCClientSockE@@@std@@@3@$0A@@std@@@2@XZ 00418ba0 f i serversocke.obj
 0001:00017bb0       ?_Max@?$_Tree@V?$_Tmap_traits@KPAVCClientSockE@@U?$less@K@std@@V?$allocator@U?$pair@$$CBKPAVCClientSockE@@@std@@@3@$0A@@std@@@std@@KAPAU_Node@?$_Tree_nod@V?$_Tmap_traits@KPAVCClientSockE@@U?$less@K@std@@V?$allocator@U?$pair@$$CBKPAVCClientSockE@@@std@@@3@$0A@@std@@@2@PAU342@@Z 00418bb0 f i serversocke.obj
 0001:00017bd0       ?_Min@?$_Tree@V?$_Tmap_traits@KPAVCClientSockE@@U?$less@K@std@@V?$allocator@U?$pair@$$CBKPAVCClientSockE@@@std@@@3@$0A@@std@@@std@@KAPAU_Node@?$_Tree_nod@V?$_Tmap_traits@KPAVCClientSockE@@U?$less@K@std@@V?$allocator@U?$pair@$$CBKPAVCClientSockE@@@std@@@3@$0A@@std@@@2@PAU342@@Z 00418bd0 f i serversocke.obj
 0001:00017bf0       ?_Rmost@?$_Tree@V?$_Tmap_traits@KPAVCClientSockE@@U?$less@K@std@@V?$allocator@U?$pair@$$CBKPAVCClientSockE@@@std@@@3@$0A@@std@@@std@@IAEAAPAU_Node@?$_Tree_nod@V?$_Tmap_traits@KPAVCClientSockE@@U?$less@K@std@@V?$allocator@U?$pair@$$CBKPAVCClientSockE@@@std@@@3@$0A@@std@@@2@XZ 00418bf0 f i serversocke.obj
 0001:00017c00       ?_Root@?$_Tree@V?$_Tmap_traits@KPAVCClientSockE@@U?$less@K@std@@V?$allocator@U?$pair@$$CBKPAVCClientSockE@@@std@@@3@$0A@@std@@@std@@IAEAAPAU_Node@?$_Tree_nod@V?$_Tmap_traits@KPAVCClientSockE@@U?$less@K@std@@V?$allocator@U?$pair@$$CBKPAVCClientSockE@@@std@@@3@$0A@@std@@@2@XZ 00418c00 f i serversocke.obj
 0001:00017c10       ?_Rrotate@?$_Tree@V?$_Tmap_traits@KPAVCClientSockE@@U?$less@K@std@@V?$allocator@U?$pair@$$CBKPAVCClientSockE@@@std@@@3@$0A@@std@@@std@@IAEXPAU_Node@?$_Tree_nod@V?$_Tmap_traits@KPAVCClientSockE@@U?$less@K@std@@V?$allocator@U?$pair@$$CBKPAVCClientSockE@@@std@@@3@$0A@@std@@@2@@Z 00418c10 f i serversocke.obj
 0001:00017c70       ?_Kfn@?$_Tmap_traits@KPAVCClientSockE@@U?$less@K@std@@V?$allocator@U?$pair@$$CBKPAVCClientSockE@@@std@@@3@$0A@@std@@SAABKABU?$pair@$$CBKPAVCClientSockE@@@2@@Z 00418c70 f i serversocke.obj
 0001:00017c80       ??0?$allocator@U?$pair@$$CBKPAVCClientSockE@@@std@@@std@@QAE@XZ 00418c80 f i serversocke.obj
 0001:00017c90       ?deallocate@?$allocator@U_Node@?$_Tree_nod@V?$_Tmap_traits@KPAVCClientSockE@@U?$less@K@std@@V?$allocator@U?$pair@$$CBKPAVCClientSockE@@@std@@@3@$0A@@std@@@std@@@std@@QAEXPAU_Node@?$_Tree_nod@V?$_Tmap_traits@KPAVCClientSockE@@U?$less@K@std@@V?$allocator@U?$pair@$$CBKPAVCClientSockE@@@std@@@3@$0A@@std@@@2@I@Z 00418c90 f i serversocke.obj
 0001:00017ca0       ??8const_iterator@?$_Tree@V?$_Tmap_traits@KPAVCClientSockE@@U?$less@K@std@@V?$allocator@U?$pair@$$CBKPAVCClientSockE@@@std@@@3@$0A@@std@@@std@@QBE_NABV012@@Z 00418ca0 f i serversocke.obj
 0001:00017cb0       ?_Mynode@const_iterator@?$_Tree@V?$_Tmap_traits@KPAVCClientSockE@@U?$less@K@std@@V?$allocator@U?$pair@$$CBKPAVCClientSockE@@@std@@@3@$0A@@std@@@std@@QBEPAU_Node@?$_Tree_nod@V?$_Tmap_traits@KPAVCClientSockE@@U?$less@K@std@@V?$allocator@U?$pair@$$CBKPAVCClientSockE@@@std@@@3@$0A@@std@@@3@XZ 00418cb0 f i serversocke.obj
 0001:00017cc0       ??0?$pair@Viterator@?$_Tree@V?$_Tmap_traits@KPAVCClientSockE@@U?$less@K@std@@V?$allocator@U?$pair@$$CBKPAVCClientSockE@@@std@@@3@$0A@@std@@@std@@_N@std@@QAE@ABViterator@?$_Tree@V?$_Tmap_traits@KPAVCClientSockE@@U?$less@K@std@@V?$allocator@U?$pair@$$CBKPAVCClientSockE@@@std@@@3@$0A@@std@@@1@AB_N@Z 00418cc0 f i serversocke.obj
 0001:00017ce0       ?_Myval@?$_Tree@V?$_Tmap_traits@KPAVCClientSockE@@U?$less@K@std@@V?$allocator@U?$pair@$$CBKPAVCClientSockE@@@std@@@3@$0A@@std@@@std@@KAAAU?$pair@$$CBKPAVCClientSockE@@@2@PAU_Node@?$_Tree_nod@V?$_Tmap_traits@KPAVCClientSockE@@U?$less@K@std@@V?$allocator@U?$pair@$$CBKPAVCClientSockE@@@std@@@3@$0A@@std@@@2@@Z 00418ce0 f i serversocke.obj
 0001:00017cf0       ??0?$allocator@U?$pair@$$CBKPAVCClientSockE@@@std@@@std@@QAE@ABV01@@Z 00418cf0 f i serversocke.obj
 0001:00017d00       ??0const_iterator@?$_Tree@V?$_Tmap_traits@KPAVCClientSockE@@U?$less@K@std@@V?$allocator@U?$pair@$$CBKPAVCClientSockE@@@std@@@3@$0A@@std@@@std@@QAE@PAU_Node@?$_Tree_nod@V?$_Tmap_traits@KPAVCClientSockE@@U?$less@K@std@@V?$allocator@U?$pair@$$CBKPAVCClientSockE@@@std@@@3@$0A@@std@@@2@@Z 00418d00 f i serversocke.obj
 0001:00017d10       ??Dconst_iterator@?$_Tree@V?$_Tmap_traits@KPAVCClientSockE@@U?$less@K@std@@V?$allocator@U?$pair@$$CBKPAVCClientSockE@@@std@@@3@$0A@@std@@@std@@QBEABU?$pair@$$CBKPAVCClientSockE@@@2@XZ 00418d10 f i serversocke.obj
 0001:00017d20       ?_Inc@const_iterator@?$_Tree@V?$_Tmap_traits@KPAVCClientSockE@@U?$less@K@std@@V?$allocator@U?$pair@$$CBKPAVCClientSockE@@@std@@@3@$0A@@std@@@std@@QAEXXZ 00418d20 f i serversocke.obj
 0001:00017d80       ?_Root@?$_Tree@V?$_Tmap_traits@KPAVCClientSockE@@U?$less@K@std@@V?$allocator@U?$pair@$$CBKPAVCClientSockE@@@std@@@3@$0A@@std@@@std@@IBEAAPAU_Node@?$_Tree_nod@V?$_Tmap_traits@KPAVCClientSockE@@U?$less@K@std@@V?$allocator@U?$pair@$$CBKPAVCClientSockE@@@std@@@3@$0A@@std@@@2@XZ 00418d80 f i serversocke.obj
 0001:00017d90       ?max_size@?$allocator@U?$pair@$$CBKPAVCClientSockE@@@std@@@std@@QBEIXZ 00418d90 f i serversocke.obj
 0001:00017da0       ?_Dec@const_iterator@?$_Tree@V?$_Tmap_traits@KPAVCClientSockE@@U?$less@K@std@@V?$allocator@U?$pair@$$CBKPAVCClientSockE@@@std@@@3@$0A@@std@@@std@@QAEXXZ 00418da0 f i serversocke.obj
 0001:00017e00       ??0_Node@?$_Tree_nod@V?$_Tmap_traits@KPAVCClientSockE@@U?$less@K@std@@V?$allocator@U?$pair@$$CBKPAVCClientSockE@@@std@@@3@$0A@@std@@@std@@QAE@PAU012@00ABU?$pair@$$CBKPAVCClientSockE@@@2@D@Z 00418e00 f i serversocke.obj
 0001:00017e40       ??0?$_Tmap_traits@KPAVCClientSockE@@U?$less@K@std@@V?$allocator@U?$pair@$$CBKPAVCClientSockE@@@std@@@3@$0A@@std@@QAE@U?$less@K@1@@Z 00418e40 f i serversocke.obj
 0001:00017e50       ??$_Destroy@U_Node@?$_Tree_nod@V?$_Tmap_traits@KPAVCClientSockE@@U?$less@K@std@@V?$allocator@U?$pair@$$CBKPAVCClientSockE@@@std@@@3@$0A@@std@@@std@@@std@@YAXPAU_Node@?$_Tree_nod@V?$_Tmap_traits@KPAVCClientSockE@@U?$less@K@std@@V?$allocator@U?$pair@$$CBKPAVCClientSockE@@@std@@@3@$0A@@std@@@0@@Z 00418e50 f i serversocke.obj
 0001:00017e60       ??$_Destroy@PAU_Node@?$_Tree_nod@V?$_Tmap_traits@KPAVCClientSockE@@U?$less@K@std@@V?$allocator@U?$pair@$$CBKPAVCClientSockE@@@std@@@3@$0A@@std@@@std@@@std@@YAXPAPAU_Node@?$_Tree_nod@V?$_Tmap_traits@KPAVCClientSockE@@U?$less@K@std@@V?$allocator@U?$pair@$$CBKPAVCClientSockE@@@std@@@3@$0A@@std@@@0@@Z 00418e60 f i serversocke.obj
 0001:00017e70       ??$?0U?$pair@$$CBKPAVCClientSockE@@@std@@@?$allocator@PAU_Node@?$_Tree_nod@V?$_Tmap_traits@KPAVCClientSockE@@U?$less@K@std@@V?$allocator@U?$pair@$$CBKPAVCClientSockE@@@std@@@3@$0A@@std@@@std@@@std@@QAE@ABV?$allocator@U?$pair@$$CBKPAVCClientSockE@@@std@@@1@@Z 00418e70 f i serversocke.obj
 0001:00017e80       ??$_Allocate@U_Node@?$_Tree_nod@V?$_Tmap_traits@KPAVCClientSockE@@U?$less@K@std@@V?$allocator@U?$pair@$$CBKPAVCClientSockE@@@std@@@3@$0A@@std@@@std@@@std@@YAPAU_Node@?$_Tree_nod@V?$_Tmap_traits@KPAVCClientSockE@@U?$less@K@std@@V?$allocator@U?$pair@$$CBKPAVCClientSockE@@@std@@@3@$0A@@std@@@0@IPAU120@@Z 00418e80 f i serversocke.obj
 0001:00017ea0       ??$?0U?$pair@$$CBKPAVCClientSockE@@@std@@@?$allocator@U_Node@?$_Tree_nod@V?$_Tmap_traits@KPAVCClientSockE@@U?$less@K@std@@V?$allocator@U?$pair@$$CBKPAVCClientSockE@@@std@@@3@$0A@@std@@@std@@@std@@QAE@ABV?$allocator@U?$pair@$$CBKPAVCClientSockE@@@std@@@1@@Z 00418ea0 f i serversocke.obj
 0001:00017eb0       ??$_Construct@PAU_Node@?$_Tree_nod@V?$_Tmap_traits@KPAVCClientSockE@@U?$less@K@std@@V?$allocator@U?$pair@$$CBKPAVCClientSockE@@@std@@@3@$0A@@std@@@std@@PAU123@@std@@YAXPAPAU_Node@?$_Tree_nod@V?$_Tmap_traits@KPAVCClientSockE@@U?$less@K@std@@V?$allocator@U?$pair@$$CBKPAVCClientSockE@@@std@@@3@$0A@@std@@@0@ABQAU120@@Z 00418eb0 f i serversocke.obj
 0001:00017ed0       ?Lock@CMapChildE@@QAEXXZ   00418ed0 f i serversocke.obj
 0001:00017ee0       ?Unlock@CMapChildE@@QAEXXZ 00418ee0 f i serversocke.obj
 0001:00017ef0       ??9const_iterator@?$_Tree@V?$_Tmap_traits@KPAVCClientSockE@@U?$less@K@std@@V?$allocator@U?$pair@$$CBKPAVCClientSockE@@@std@@@3@$0A@@std@@@std@@QBE_NABV012@@Z 00418ef0 f i serversocke.obj
 0001:00017f10       ?_Key@?$_Tree@V?$_Tmap_traits@KPAVCClientSockE@@U?$less@K@std@@V?$allocator@U?$pair@$$CBKPAVCClientSockE@@@std@@@3@$0A@@std@@@std@@KAABKPAU_Node@?$_Tree_nod@V?$_Tmap_traits@KPAVCClientSockE@@U?$less@K@std@@V?$allocator@U?$pair@$$CBKPAVCClientSockE@@@std@@@3@$0A@@std@@@2@@Z 00418f10 f i serversocke.obj
 0001:00017f20       ?_Lrotate@?$_Tree@V?$_Tmap_traits@KPAVCClientSockE@@U?$less@K@std@@V?$allocator@U?$pair@$$CBKPAVCClientSockE@@@std@@@3@$0A@@std@@@std@@IAEXPAU_Node@?$_Tree_nod@V?$_Tmap_traits@KPAVCClientSockE@@U?$less@K@std@@V?$allocator@U?$pair@$$CBKPAVCClientSockE@@@std@@@3@$0A@@std@@@2@@Z 00418f20 f i serversocke.obj
 0001:00017f80       ?destroy@?$allocator@U_Node@?$_Tree_nod@V?$_Tmap_traits@KPAVCClientSockE@@U?$less@K@std@@V?$allocator@U?$pair@$$CBKPAVCClientSockE@@@std@@@3@$0A@@std@@@std@@@std@@QAEXPAU_Node@?$_Tree_nod@V?$_Tmap_traits@KPAVCClientSockE@@U?$less@K@std@@V?$allocator@U?$pair@$$CBKPAVCClientSockE@@@std@@@3@$0A@@std@@@2@@Z 00418f80 f i serversocke.obj
 0001:00017f90       ??0iterator@?$_Tree@V?$_Tmap_traits@KPAVCClientSockE@@U?$less@K@std@@V?$allocator@U?$pair@$$CBKPAVCClientSockE@@@std@@@3@$0A@@std@@@std@@QAE@PAU_Node@?$_Tree_nod@V?$_Tmap_traits@KPAVCClientSockE@@U?$less@K@std@@V?$allocator@U?$pair@$$CBKPAVCClientSockE@@@std@@@3@$0A@@std@@@2@@Z 00418f90 f i serversocke.obj
 0001:00017fa0       ??Diterator@?$_Tree@V?$_Tmap_traits@KPAVCClientSockE@@U?$less@K@std@@V?$allocator@U?$pair@$$CBKPAVCClientSockE@@@std@@@3@$0A@@std@@@std@@QBEAAU?$pair@$$CBKPAVCClientSockE@@@2@XZ 00418fa0 f i serversocke.obj
 0001:00017fb0       ??Econst_iterator@?$_Tree@V?$_Tmap_traits@KPAVCClientSockE@@U?$less@K@std@@V?$allocator@U?$pair@$$CBKPAVCClientSockE@@@std@@@3@$0A@@std@@@std@@QAEAAV012@XZ 00418fb0 f i serversocke.obj
 0001:00017fc0       ?max_size@?$_Tree@V?$_Tmap_traits@KPAVCClientSockE@@U?$less@K@std@@V?$allocator@U?$pair@$$CBKPAVCClientSockE@@@std@@@3@$0A@@std@@@std@@QBEIXZ 00418fc0 f i serversocke.obj
 0001:00017fd0       ?_Lbound@?$_Tree@V?$_Tmap_traits@KPAVCClientSockE@@U?$less@K@std@@V?$allocator@U?$pair@$$CBKPAVCClientSockE@@@std@@@3@$0A@@std@@@std@@IBEPAU_Node@?$_Tree_nod@V?$_Tmap_traits@KPAVCClientSockE@@U?$less@K@std@@V?$allocator@U?$pair@$$CBKPAVCClientSockE@@@std@@@3@$0A@@std@@@2@ABK@Z 00418fd0 f i serversocke.obj
 0001:00018000       ?destroy@?$allocator@PAU_Node@?$_Tree_nod@V?$_Tmap_traits@KPAVCClientSockE@@U?$less@K@std@@V?$allocator@U?$pair@$$CBKPAVCClientSockE@@@std@@@3@$0A@@std@@@std@@@std@@QAEXPAPAU_Node@?$_Tree_nod@V?$_Tmap_traits@KPAVCClientSockE@@U?$less@K@std@@V?$allocator@U?$pair@$$CBKPAVCClientSockE@@@std@@@3@$0A@@std@@@2@@Z 00419000 f i serversocke.obj
 0001:00018010       ??Fconst_iterator@?$_Tree@V?$_Tmap_traits@KPAVCClientSockE@@U?$less@K@std@@V?$allocator@U?$pair@$$CBKPAVCClientSockE@@@std@@@3@$0A@@std@@@std@@QAEAAV012@XZ 00419010 f i serversocke.obj
 0001:00018020       ?allocate@?$allocator@U_Node@?$_Tree_nod@V?$_Tmap_traits@KPAVCClientSockE@@U?$less@K@std@@V?$allocator@U?$pair@$$CBKPAVCClientSockE@@@std@@@3@$0A@@std@@@std@@@std@@QAEPAU_Node@?$_Tree_nod@V?$_Tmap_traits@KPAVCClientSockE@@U?$less@K@std@@V?$allocator@U?$pair@$$CBKPAVCClientSockE@@@std@@@3@$0A@@std@@@2@I@Z 00419020 f i serversocke.obj
 0001:00018040       ??0?$_Tree_nod@V?$_Tmap_traits@KPAVCClientSockE@@U?$less@K@std@@V?$allocator@U?$pair@$$CBKPAVCClientSockE@@@std@@@3@$0A@@std@@@std@@IAE@ABU?$less@K@1@V?$allocator@U?$pair@$$CBKPAVCClientSockE@@@std@@@1@@Z 00419040 f i serversocke.obj
 0001:00018050       ?construct@?$allocator@PAU_Node@?$_Tree_nod@V?$_Tmap_traits@KPAVCClientSockE@@U?$less@K@std@@V?$allocator@U?$pair@$$CBKPAVCClientSockE@@@std@@@3@$0A@@std@@@std@@@std@@QAEXPAPAU_Node@?$_Tree_nod@V?$_Tmap_traits@KPAVCClientSockE@@U?$less@K@std@@V?$allocator@U?$pair@$$CBKPAVCClientSockE@@@std@@@3@$0A@@std@@@2@ABQAU342@@Z 00419050 f i serversocke.obj
 0001:00018070       ?begin@?$_Tree@V?$_Tmap_traits@KPAVCClientSockE@@U?$less@K@std@@V?$allocator@U?$pair@$$CBKPAVCClientSockE@@@std@@@3@$0A@@std@@@std@@QAE?AViterator@12@XZ 00419070 f i serversocke.obj
 0001:00018080       ?end@?$_Tree@V?$_Tmap_traits@KPAVCClientSockE@@U?$less@K@std@@V?$allocator@U?$pair@$$CBKPAVCClientSockE@@@std@@@3@$0A@@std@@@std@@QAE?AViterator@12@XZ 00419080 f i serversocke.obj
 0001:00018090       ??Citerator@?$_Tree@V?$_Tmap_traits@KPAVCClientSockE@@U?$less@K@std@@V?$allocator@U?$pair@$$CBKPAVCClientSockE@@@std@@@3@$0A@@std@@@std@@QBEPAU?$pair@$$CBKPAVCClientSockE@@@2@XZ 00419090 f i serversocke.obj
 0001:000180a0       ??Eiterator@?$_Tree@V?$_Tmap_traits@KPAVCClientSockE@@U?$less@K@std@@V?$allocator@U?$pair@$$CBKPAVCClientSockE@@@std@@@3@$0A@@std@@@std@@QAEAAV012@XZ 004190a0 f i serversocke.obj
 0001:000180b0       ?lower_bound@?$_Tree@V?$_Tmap_traits@KPAVCClientSockE@@U?$less@K@std@@V?$allocator@U?$pair@$$CBKPAVCClientSockE@@@std@@@3@$0A@@std@@@std@@QAE?AViterator@12@ABK@Z 004190b0 f i serversocke.obj
 0001:000180f0       ?_Erase@?$_Tree@V?$_Tmap_traits@KPAVCClientSockE@@U?$less@K@std@@V?$allocator@U?$pair@$$CBKPAVCClientSockE@@@std@@@3@$0A@@std@@@std@@IAEXPAU_Node@?$_Tree_nod@V?$_Tmap_traits@KPAVCClientSockE@@U?$less@K@std@@V?$allocator@U?$pair@$$CBKPAVCClientSockE@@@std@@@3@$0A@@std@@@2@@Z 004190f0 f i serversocke.obj
 0001:00018130       ??Fiterator@?$_Tree@V?$_Tmap_traits@KPAVCClientSockE@@U?$less@K@std@@V?$allocator@U?$pair@$$CBKPAVCClientSockE@@@std@@@3@$0A@@std@@@std@@QAEAAV012@XZ 00419130 f i serversocke.obj
 0001:00018140       ?_Buynode@?$_Tree@V?$_Tmap_traits@KPAVCClientSockE@@U?$less@K@std@@V?$allocator@U?$pair@$$CBKPAVCClientSockE@@@std@@@3@$0A@@std@@@std@@IAEPAU_Node@?$_Tree_nod@V?$_Tmap_traits@KPAVCClientSockE@@U?$less@K@std@@V?$allocator@U?$pair@$$CBKPAVCClientSockE@@@std@@@3@$0A@@std@@@2@PAU342@00ABU?$pair@$$CBKPAVCClientSockE@@@2@D@Z 00419140 f i serversocke.obj
 0001:00018180       ?_Buynode@?$_Tree@V?$_Tmap_traits@KPAVCClientSockE@@U?$less@K@std@@V?$allocator@U?$pair@$$CBKPAVCClientSockE@@@std@@@3@$0A@@std@@@std@@IAEPAU_Node@?$_Tree_nod@V?$_Tmap_traits@KPAVCClientSockE@@U?$less@K@std@@V?$allocator@U?$pair@$$CBKPAVCClientSockE@@@std@@@3@$0A@@std@@@2@XZ 00419180 f i serversocke.obj
 0001:000181c0       ??0?$_Tree_ptr@V?$_Tmap_traits@KPAVCClientSockE@@U?$less@K@std@@V?$allocator@U?$pair@$$CBKPAVCClientSockE@@@std@@@3@$0A@@std@@@std@@IAE@ABU?$less@K@1@V?$allocator@U?$pair@$$CBKPAVCClientSockE@@@std@@@1@@Z 004191c0 f i serversocke.obj
 0001:000181d0       ??Eiterator@?$_Tree@V?$_Tmap_traits@KPAVCClientSockE@@U?$less@K@std@@V?$allocator@U?$pair@$$CBKPAVCClientSockE@@@std@@@3@$0A@@std@@@std@@QAE?AV012@H@Z 004191d0 f i serversocke.obj
 0001:000181f0       ?Send@CServerSockE@@UAEXPADKK@Z 004191f0 f   serversocke.obj
 0001:000182d0       ?clear@?$_Tree@V?$_Tmap_traits@KPAVCClientSockE@@U?$less@K@std@@V?$allocator@U?$pair@$$CBKPAVCClientSockE@@@std@@@3@$0A@@std@@@std@@QAEXXZ 004192d0 f i serversocke.obj
 0001:00018300       ?find@?$_Tree@V?$_Tmap_traits@KPAVCClientSockE@@U?$less@K@std@@V?$allocator@U?$pair@$$CBKPAVCClientSockE@@@std@@@3@$0A@@std@@@std@@QAE?AViterator@12@ABK@Z 00419300 f i serversocke.obj
 0001:00018370       ?_Init@?$_Tree@V?$_Tmap_traits@KPAVCClientSockE@@U?$less@K@std@@V?$allocator@U?$pair@$$CBKPAVCClientSockE@@@std@@@3@$0A@@std@@@std@@IAEXXZ 00419370 f i serversocke.obj
 0001:000183a0       ??0?$_Tree_val@V?$_Tmap_traits@KPAVCClientSockE@@U?$less@K@std@@V?$allocator@U?$pair@$$CBKPAVCClientSockE@@@std@@@3@$0A@@std@@@std@@IAE@ABU?$less@K@1@V?$allocator@U?$pair@$$CBKPAVCClientSockE@@@std@@@1@@Z 004193a0 f i serversocke.obj
 0001:000183b0       ?CloseAllChild@CServerSockE@@QAEXXZ 004193b0 f   serversocke.obj
 0001:00018480       ??0?$_Tree@V?$_Tmap_traits@KPAVCClientSockE@@U?$less@K@std@@V?$allocator@U?$pair@$$CBKPAVCClientSockE@@@std@@@3@$0A@@std@@@std@@QAE@ABU?$less@K@1@ABV?$allocator@U?$pair@$$CBKPAVCClientSockE@@@std@@@1@@Z 00419480 f i serversocke.obj
 0001:000184b0       ?Close@CServerSockE@@UAEXXZ 004194b0 f   serversocke.obj
 0001:00018510       ?erase@?$_Tree@V?$_Tmap_traits@KPAVCClientSockE@@U?$less@K@std@@V?$allocator@U?$pair@$$CBKPAVCClientSockE@@@std@@@3@$0A@@std@@@std@@QAE?AViterator@12@V312@@Z 00419510 f i serversocke.obj
 0001:000187d0       ?_Insert@?$_Tree@V?$_Tmap_traits@KPAVCClientSockE@@U?$less@K@std@@V?$allocator@U?$pair@$$CBKPAVCClientSockE@@@std@@@3@$0A@@std@@@std@@IAE?AViterator@12@_NPAU_Node@?$_Tree_nod@V?$_Tmap_traits@KPAVCClientSockE@@U?$less@K@std@@V?$allocator@U?$pair@$$CBKPAVCClientSockE@@@std@@@3@$0A@@std@@@2@ABU?$pair@$$CBKPAVCClientSockE@@@2@@Z 004197d0 f i serversocke.obj
 0001:00018980       ?erase@?$_Tree@V?$_Tmap_traits@KPAVCClientSockE@@U?$less@K@std@@V?$allocator@U?$pair@$$CBKPAVCClientSockE@@@std@@@3@$0A@@std@@@std@@QAE?AViterator@12@V312@0@Z 00419980 f i serversocke.obj
 0001:00018a40       ?CloseChild@CServerSockE@@QAEHI@Z 00419a40 f   serversocke.obj
 0001:00018b00       ?CloseConnection@CServerSockE@@UAEHI@Z 00419b00 f   serversocke.obj
 0001:00018b10       ?insert@?$_Tree@V?$_Tmap_traits@KPAVCClientSockE@@U?$less@K@std@@V?$allocator@U?$pair@$$CBKPAVCClientSockE@@@std@@@3@$0A@@std@@@std@@QAE?AU?$pair@Viterator@?$_Tree@V?$_Tmap_traits@KPAVCClientSockE@@U?$less@K@std@@V?$allocator@U?$pair@$$CBKPAVCClientSockE@@@std@@@3@$0A@@std@@@std@@_N@2@ABU?$pair@$$CBKPAVCClientSockE@@@2@@Z 00419b10 f i serversocke.obj
 0001:00018bd0       ?_Tidy@?$_Tree@V?$_Tmap_traits@KPAVCClientSockE@@U?$less@K@std@@V?$allocator@U?$pair@$$CBKPAVCClientSockE@@@std@@@3@$0A@@std@@@std@@IAEXXZ 00419bd0 f i serversocke.obj
 0001:00018c00       ??1?$_Tree@V?$_Tmap_traits@KPAVCClientSockE@@U?$less@K@std@@V?$allocator@U?$pair@$$CBKPAVCClientSockE@@@std@@@3@$0A@@std@@@std@@QAE@XZ 00419c00 f i serversocke.obj
 0001:00018c30       ??1?$map@KPAVCClientSockE@@U?$less@K@std@@V?$allocator@U?$pair@$$CBKPAVCClientSockE@@@std@@@3@@std@@QAE@XZ 00419c30 f i serversocke.obj
 0001:00018c60       ??0?$map@KPAVCClientSockE@@U?$less@K@std@@V?$allocator@U?$pair@$$CBKPAVCClientSockE@@@std@@@3@@std@@QAE@XZ 00419c60 f i serversocke.obj
 0001:00018c90       ??0CMapChildE@@QAE@XZ      00419c90 f i serversocke.obj
 0001:00018ce0       ??1CMapChildE@@UAE@XZ      00419ce0 f i serversocke.obj
 0001:00018d30       ??_ECMapChildE@@UAEPAXI@Z  00419d30 f i serversocke.obj
 0001:00018d30       ??_GCMapChildE@@UAEPAXI@Z  00419d30 f i serversocke.obj
 0001:00018d50       ??0CServerSockE@@QAE@K@Z   00419d50 f   serversocke.obj
 0001:00018df0       ?Get@CServerSockE@@UAEPAVCSock@@I@Z 00419df0 f i serversocke.obj
 0001:00018e30       ??1CServerSockE@@UAE@XZ    00419e30 f   serversocke.obj
 0001:00018ed0       ??_ECServerSockE@@UAEPAXI@Z 00419ed0 f i serversocke.obj
 0001:00018ed0       ??_GCServerSockE@@UAEPAXI@Z 00419ed0 f i serversocke.obj
 0001:00018ef0       ?AddChild@CServerSockE@@QAEPAVCClientSockE@@I@Z 00419ef0 f   serversocke.obj
 0001:00018fc0       ?ListenThreadE@@YGIPAX@Z   00419fc0 f   serversocke.obj
 0001:000190f0       ?StartServer@CServerSockE@@QAEHPAVCDPSock@@@Z 0041a0f0 f   serversocke.obj
 0001:00019150       ??0CSock@@QAE@XZ           0041a150 f   sock.obj
 0001:00019170       ?Clear@CSock@@QAEXXZ       0041a170 f   sock.obj
 0001:000191a0       ?Attach@CSock@@UAEXI@Z     0041a1a0 f   sock.obj
 0001:000191e0       ?Detach@CSock@@UAEXXZ      0041a1e0 f   sock.obj
 0001:000191f0       ?GetHostAddr@CSock@@UAEJPAXPAK@Z 0041a1f0 f   sock.obj
 0001:000192a0       ??1CSock@@UAE@XZ           0041a2a0 f   sock.obj
 0001:000192e0       ?Create@CSock@@UAEHGH@Z    0041a2e0 f   sock.obj
 0001:000193f0       ??_GCSock@@UAEPAXI@Z       0041a3f0 f i sock.obj
 0001:000193f0       ??_ECSock@@UAEPAXI@Z       0041a3f0 f i sock.obj
 0001:00019440       ??0CAr@@QAE@PAXI@Z         0041a440 f   ar.obj
 0001:00019490       ??1CAr@@QAE@XZ             0041a490 f   ar.obj
 0001:000194c0       ?Read@CAr@@QAEXPAXI@Z      0041a4c0 f   ar.obj
 0001:00019520       ?Reserve@CAr@@QAEXI@Z      0041a520 f   ar.obj
 0001:00019550       ?CheckBuf@CAr@@QAEXI@Z     0041a550 f   ar.obj
 0001:000195e0       ?GetBuffer@CAr@@QAEPAEPAH@Z 0041a5e0 f   ar.obj
 0001:00019600       ?Flush@CAr@@QAEXXZ         0041a600 f   ar.obj
 0001:00019610       ?ReelIn@CAr@@QAEXI@Z       0041a610 f   ar.obj
 0001:00019650       ?Write@CAr@@QAEXPBXI@Z     0041a650 f   ar.obj
 0001:00019690       ?ReadString@CAr@@QAEPADPAD@Z 0041a690 f   ar.obj
 0001:000196d0       ?ReadString@CAr@@QAEPADPADH@Z 0041a6d0 f   ar.obj
 0001:00019740       ?WriteString@CAr@@QAEXPBD@Z 0041a740 f   ar.obj
 0001:000197a0       ?Free@?$MemPooler@U_CONNECTIONREQUEST2@@@@QAEHPAU_CONNECTIONREQUEST2@@@Z 0041a7a0 f i dos2.obj
 0001:000197f0       ??0?$pair@$$CBKPAU_CONNECTIONREQUEST2@@@std@@QAE@ABKABQAU_CONNECTIONREQUEST2@@@Z 0041a7f0 f i dos2.obj
 0001:00019810       ?_Isnil@?$_Tree@V?$_Tmap_traits@KPAU_CONNECTIONREQUEST2@@U?$less@K@std@@V?$allocator@U?$pair@$$CBKPAU_CONNECTIONREQUEST2@@@std@@@3@$0A@@std@@@std@@KAAADPAU_Node@?$_Tree_nod@V?$_Tmap_traits@KPAU_CONNECTIONREQUEST2@@U?$less@K@std@@V?$allocator@U?$pair@$$CBKPAU_CONNECTIONREQUEST2@@@std@@@3@$0A@@std@@@2@@Z 0041a810 f i dos2.obj
 0001:00019820       ?_Left@?$_Tree@V?$_Tmap_traits@KPAU_CONNECTIONREQUEST2@@U?$less@K@std@@V?$allocator@U?$pair@$$CBKPAU_CONNECTIONREQUEST2@@@std@@@3@$0A@@std@@@std@@KAAAPAU_Node@?$_Tree_nod@V?$_Tmap_traits@KPAU_CONNECTIONREQUEST2@@U?$less@K@std@@V?$allocator@U?$pair@$$CBKPAU_CONNECTIONREQUEST2@@@std@@@3@$0A@@std@@@2@PAU342@@Z 0041a820 f i dos2.obj
 0001:00019830       ?_Right@?$_Tree@V?$_Tmap_traits@KPAU_CONNECTIONREQUEST2@@U?$less@K@std@@V?$allocator@U?$pair@$$CBKPAU_CONNECTIONREQUEST2@@@std@@@3@$0A@@std@@@std@@KAAAPAU_Node@?$_Tree_nod@V?$_Tmap_traits@KPAU_CONNECTIONREQUEST2@@U?$less@K@std@@V?$allocator@U?$pair@$$CBKPAU_CONNECTIONREQUEST2@@@std@@@3@$0A@@std@@@2@PAU342@@Z 0041a830 f i dos2.obj
 0001:00019840       ?_Lmost@?$_Tree@V?$_Tmap_traits@KPAU_CONNECTIONREQUEST2@@U?$less@K@std@@V?$allocator@U?$pair@$$CBKPAU_CONNECTIONREQUEST2@@@std@@@3@$0A@@std@@@std@@IAEAAPAU_Node@?$_Tree_nod@V?$_Tmap_traits@KPAU_CONNECTIONREQUEST2@@U?$less@K@std@@V?$allocator@U?$pair@$$CBKPAU_CONNECTIONREQUEST2@@@std@@@3@$0A@@std@@@2@XZ 0041a840 f i dos2.obj
 0001:00019850       ?_Rmost@?$_Tree@V?$_Tmap_traits@KPAU_CONNECTIONREQUEST2@@U?$less@K@std@@V?$allocator@U?$pair@$$CBKPAU_CONNECTIONREQUEST2@@@std@@@3@$0A@@std@@@std@@IAEAAPAU_Node@?$_Tree_nod@V?$_Tmap_traits@KPAU_CONNECTIONREQUEST2@@U?$less@K@std@@V?$allocator@U?$pair@$$CBKPAU_CONNECTIONREQUEST2@@@std@@@3@$0A@@std@@@2@XZ 0041a850 f i dos2.obj
 0001:00019860       ?_Kfn@?$_Tmap_traits@KPAU_CONNECTIONREQUEST2@@U?$less@K@std@@V?$allocator@U?$pair@$$CBKPAU_CONNECTIONREQUEST2@@@std@@@3@$0A@@std@@SAABKABU?$pair@$$CBKPAU_CONNECTIONREQUEST2@@@2@@Z 0041a860 f i dos2.obj
 0001:00019870       ??0?$allocator@U?$pair@$$CBKPAU_CONNECTIONREQUEST2@@@std@@@std@@QAE@XZ 0041a870 f i dos2.obj
 0001:00019880       ??8const_iterator@?$_Tree@V?$_Tmap_traits@KPAU_CONNECTIONREQUEST2@@U?$less@K@std@@V?$allocator@U?$pair@$$CBKPAU_CONNECTIONREQUEST2@@@std@@@3@$0A@@std@@@std@@QBE_NABV012@@Z 0041a880 f i dos2.obj
 0001:00019890       ?_Mynode@const_iterator@?$_Tree@V?$_Tmap_traits@KPAU_CONNECTIONREQUEST2@@U?$less@K@std@@V?$allocator@U?$pair@$$CBKPAU_CONNECTIONREQUEST2@@@std@@@3@$0A@@std@@@std@@QBEPAU_Node@?$_Tree_nod@V?$_Tmap_traits@KPAU_CONNECTIONREQUEST2@@U?$less@K@std@@V?$allocator@U?$pair@$$CBKPAU_CONNECTIONREQUEST2@@@std@@@3@$0A@@std@@@3@XZ 0041a890 f i dos2.obj
 0001:000198a0       ??0?$pair@Viterator@?$_Tree@V?$_Tmap_traits@KPAU_CONNECTIONREQUEST2@@U?$less@K@std@@V?$allocator@U?$pair@$$CBKPAU_CONNECTIONREQUEST2@@@std@@@3@$0A@@std@@@std@@_N@std@@QAE@ABViterator@?$_Tree@V?$_Tmap_traits@KPAU_CONNECTIONREQUEST2@@U?$less@K@std@@V?$allocator@U?$pair@$$CBKPAU_CONNECTIONREQUEST2@@@std@@@3@$0A@@std@@@1@AB_N@Z 0041a8a0 f i dos2.obj
 0001:000198c0       ?_Color@?$_Tree@V?$_Tmap_traits@KPAU_CONNECTIONREQUEST2@@U?$less@K@std@@V?$allocator@U?$pair@$$CBKPAU_CONNECTIONREQUEST2@@@std@@@3@$0A@@std@@@std@@KAAADPAU_Node@?$_Tree_nod@V?$_Tmap_traits@KPAU_CONNECTIONREQUEST2@@U?$less@K@std@@V?$allocator@U?$pair@$$CBKPAU_CONNECTIONREQUEST2@@@std@@@3@$0A@@std@@@2@@Z 0041a8c0 f i dos2.obj
 0001:000198d0       ?_Parent@?$_Tree@V?$_Tmap_traits@KPAU_CONNECTIONREQUEST2@@U?$less@K@std@@V?$allocator@U?$pair@$$CBKPAU_CONNECTIONREQUEST2@@@std@@@3@$0A@@std@@@std@@KAAAPAU_Node@?$_Tree_nod@V?$_Tmap_traits@KPAU_CONNECTIONREQUEST2@@U?$less@K@std@@V?$allocator@U?$pair@$$CBKPAU_CONNECTIONREQUEST2@@@std@@@3@$0A@@std@@@2@PAU342@@Z 0041a8d0 f i dos2.obj
 0001:000198e0       ?_Myval@?$_Tree@V?$_Tmap_traits@KPAU_CONNECTIONREQUEST2@@U?$less@K@std@@V?$allocator@U?$pair@$$CBKPAU_CONNECTIONREQUEST2@@@std@@@3@$0A@@std@@@std@@KAAAU?$pair@$$CBKPAU_CONNECTIONREQUEST2@@@2@PAU_Node@?$_Tree_nod@V?$_Tmap_traits@KPAU_CONNECTIONREQUEST2@@U?$less@K@std@@V?$allocator@U?$pair@$$CBKPAU_CONNECTIONREQUEST2@@@std@@@3@$0A@@std@@@2@@Z 0041a8e0 f i dos2.obj
 0001:000198f0       ??0?$allocator@U?$pair@$$CBKPAU_CONNECTIONREQUEST2@@@std@@@std@@QAE@ABV01@@Z 0041a8f0 f i dos2.obj
 0001:00019900       ?deallocate@?$allocator@U_Node@?$_Tree_nod@V?$_Tmap_traits@KPAU_CONNECTIONREQUEST2@@U?$less@K@std@@V?$allocator@U?$pair@$$CBKPAU_CONNECTIONREQUEST2@@@std@@@3@$0A@@std@@@std@@@std@@QAEXPAU_Node@?$_Tree_nod@V?$_Tmap_traits@KPAU_CONNECTIONREQUEST2@@U?$less@K@std@@V?$allocator@U?$pair@$$CBKPAU_CONNECTIONREQUEST2@@@std@@@3@$0A@@std@@@2@I@Z 0041a900 f i dos2.obj
 0001:00019910       ??0const_iterator@?$_Tree@V?$_Tmap_traits@KPAU_CONNECTIONREQUEST2@@U?$less@K@std@@V?$allocator@U?$pair@$$CBKPAU_CONNECTIONREQUEST2@@@std@@@3@$0A@@std@@@std@@QAE@PAU_Node@?$_Tree_nod@V?$_Tmap_traits@KPAU_CONNECTIONREQUEST2@@U?$less@K@std@@V?$allocator@U?$pair@$$CBKPAU_CONNECTIONREQUEST2@@@std@@@3@$0A@@std@@@2@@Z 0041a910 f i dos2.obj
 0001:00019920       ??Dconst_iterator@?$_Tree@V?$_Tmap_traits@KPAU_CONNECTIONREQUEST2@@U?$less@K@std@@V?$allocator@U?$pair@$$CBKPAU_CONNECTIONREQUEST2@@@std@@@3@$0A@@std@@@std@@QBEABU?$pair@$$CBKPAU_CONNECTIONREQUEST2@@@2@XZ 0041a920 f i dos2.obj
 0001:00019930       ?_Min@?$_Tree@V?$_Tmap_traits@KPAU_CONNECTIONREQUEST2@@U?$less@K@std@@V?$allocator@U?$pair@$$CBKPAU_CONNECTIONREQUEST2@@@std@@@3@$0A@@std@@@std@@KAPAU_Node@?$_Tree_nod@V?$_Tmap_traits@KPAU_CONNECTIONREQUEST2@@U?$less@K@std@@V?$allocator@U?$pair@$$CBKPAU_CONNECTIONREQUEST2@@@std@@@3@$0A@@std@@@2@PAU342@@Z 0041a930 f i dos2.obj
 0001:00019950       ?_Root@?$_Tree@V?$_Tmap_traits@KPAU_CONNECTIONREQUEST2@@U?$less@K@std@@V?$allocator@U?$pair@$$CBKPAU_CONNECTIONREQUEST2@@@std@@@3@$0A@@std@@@std@@IBEAAPAU_Node@?$_Tree_nod@V?$_Tmap_traits@KPAU_CONNECTIONREQUEST2@@U?$less@K@std@@V?$allocator@U?$pair@$$CBKPAU_CONNECTIONREQUEST2@@@std@@@3@$0A@@std@@@2@XZ 0041a950 f i dos2.obj
 0001:00019960       ?max_size@?$allocator@U?$pair@$$CBKPAU_CONNECTIONREQUEST2@@@std@@@std@@QBEIXZ 0041a960 f i dos2.obj
 0001:00019970       ??0_Node@?$_Tree_nod@V?$_Tmap_traits@KPAU_CONNECTIONREQUEST2@@U?$less@K@std@@V?$allocator@U?$pair@$$CBKPAU_CONNECTIONREQUEST2@@@std@@@3@$0A@@std@@@std@@QAE@PAU012@00ABU?$pair@$$CBKPAU_CONNECTIONREQUEST2@@@2@D@Z 0041a970 f i dos2.obj
 0001:000199b0       ?_Max@?$_Tree@V?$_Tmap_traits@KPAU_CONNECTIONREQUEST2@@U?$less@K@std@@V?$allocator@U?$pair@$$CBKPAU_CONNECTIONREQUEST2@@@std@@@3@$0A@@std@@@std@@KAPAU_Node@?$_Tree_nod@V?$_Tmap_traits@KPAU_CONNECTIONREQUEST2@@U?$less@K@std@@V?$allocator@U?$pair@$$CBKPAU_CONNECTIONREQUEST2@@@std@@@3@$0A@@std@@@2@PAU342@@Z 0041a9b0 f i dos2.obj
 0001:000199d0       ??0?$_Tmap_traits@KPAU_CONNECTIONREQUEST2@@U?$less@K@std@@V?$allocator@U?$pair@$$CBKPAU_CONNECTIONREQUEST2@@@std@@@3@$0A@@std@@QAE@U?$less@K@1@@Z 0041a9d0 f i dos2.obj
 0001:000199e0       ??$_Destroy@U_Node@?$_Tree_nod@V?$_Tmap_traits@KPAU_CONNECTIONREQUEST2@@U?$less@K@std@@V?$allocator@U?$pair@$$CBKPAU_CONNECTIONREQUEST2@@@std@@@3@$0A@@std@@@std@@@std@@YAXPAU_Node@?$_Tree_nod@V?$_Tmap_traits@KPAU_CONNECTIONREQUEST2@@U?$less@K@std@@V?$allocator@U?$pair@$$CBKPAU_CONNECTIONREQUEST2@@@std@@@3@$0A@@std@@@0@@Z 0041a9e0 f i dos2.obj
 0001:000199f0       ??$_Destroy@PAU_Node@?$_Tree_nod@V?$_Tmap_traits@KPAU_CONNECTIONREQUEST2@@U?$less@K@std@@V?$allocator@U?$pair@$$CBKPAU_CONNECTIONREQUEST2@@@std@@@3@$0A@@std@@@std@@@std@@YAXPAPAU_Node@?$_Tree_nod@V?$_Tmap_traits@KPAU_CONNECTIONREQUEST2@@U?$less@K@std@@V?$allocator@U?$pair@$$CBKPAU_CONNECTIONREQUEST2@@@std@@@3@$0A@@std@@@0@@Z 0041a9f0 f i dos2.obj
 0001:00019a00       ??$?0U?$pair@$$CBKPAU_CONNECTIONREQUEST2@@@std@@@?$allocator@PAU_Node@?$_Tree_nod@V?$_Tmap_traits@KPAU_CONNECTIONREQUEST2@@U?$less@K@std@@V?$allocator@U?$pair@$$CBKPAU_CONNECTIONREQUEST2@@@std@@@3@$0A@@std@@@std@@@std@@QAE@ABV?$allocator@U?$pair@$$CBKPAU_CONNECTIONREQUEST2@@@std@@@1@@Z 0041aa00 f i dos2.obj
 0001:00019a10       ??$_Allocate@U_Node@?$_Tree_nod@V?$_Tmap_traits@KPAU_CONNECTIONREQUEST2@@U?$less@K@std@@V?$allocator@U?$pair@$$CBKPAU_CONNECTIONREQUEST2@@@std@@@3@$0A@@std@@@std@@@std@@YAPAU_Node@?$_Tree_nod@V?$_Tmap_traits@KPAU_CONNECTIONREQUEST2@@U?$less@K@std@@V?$allocator@U?$pair@$$CBKPAU_CONNECTIONREQUEST2@@@std@@@3@$0A@@std@@@0@IPAU120@@Z 0041aa10 f i dos2.obj
 0001:00019a30       ??$?0U?$pair@$$CBKPAU_CONNECTIONREQUEST2@@@std@@@?$allocator@U_Node@?$_Tree_nod@V?$_Tmap_traits@KPAU_CONNECTIONREQUEST2@@U?$less@K@std@@V?$allocator@U?$pair@$$CBKPAU_CONNECTIONREQUEST2@@@std@@@3@$0A@@std@@@std@@@std@@QAE@ABV?$allocator@U?$pair@$$CBKPAU_CONNECTIONREQUEST2@@@std@@@1@@Z 0041aa30 f i dos2.obj
 0001:00019a40       ??$_Construct@PAU_Node@?$_Tree_nod@V?$_Tmap_traits@KPAU_CONNECTIONREQUEST2@@U?$less@K@std@@V?$allocator@U?$pair@$$CBKPAU_CONNECTIONREQUEST2@@@std@@@3@$0A@@std@@@std@@PAU123@@std@@YAXPAPAU_Node@?$_Tree_nod@V?$_Tmap_traits@KPAU_CONNECTIONREQUEST2@@U?$less@K@std@@V?$allocator@U?$pair@$$CBKPAU_CONNECTIONREQUEST2@@@std@@@3@$0A@@std@@@0@ABQAU120@@Z 0041aa40 f i dos2.obj
 0001:00019a60       ??1CTimer@@UAE@XZ          0041aa60 f i dos2.obj
 0001:00019a70       ?IsTimeOut@CTimer@@QAEHXZ  0041aa70 f i dos2.obj
 0001:00019a80       ??_GCTimer@@UAEPAXI@Z      0041aa80 f i dos2.obj
 0001:00019a80       ??_ECTimer@@UAEPAXI@Z      0041aa80 f i dos2.obj
 0001:00019aa0       ??9const_iterator@?$_Tree@V?$_Tmap_traits@KPAU_CONNECTIONREQUEST2@@U?$less@K@std@@V?$allocator@U?$pair@$$CBKPAU_CONNECTIONREQUEST2@@@std@@@3@$0A@@std@@@std@@QBE_NABV012@@Z 0041aaa0 f i dos2.obj
 0001:00019ac0       ?_Key@?$_Tree@V?$_Tmap_traits@KPAU_CONNECTIONREQUEST2@@U?$less@K@std@@V?$allocator@U?$pair@$$CBKPAU_CONNECTIONREQUEST2@@@std@@@3@$0A@@std@@@std@@KAABKPAU_Node@?$_Tree_nod@V?$_Tmap_traits@KPAU_CONNECTIONREQUEST2@@U?$less@K@std@@V?$allocator@U?$pair@$$CBKPAU_CONNECTIONREQUEST2@@@std@@@3@$0A@@std@@@2@@Z 0041aac0 f i dos2.obj
 0001:00019ad0       ?_Root@?$_Tree@V?$_Tmap_traits@KPAU_CONNECTIONREQUEST2@@U?$less@K@std@@V?$allocator@U?$pair@$$CBKPAU_CONNECTIONREQUEST2@@@std@@@3@$0A@@std@@@std@@IAEAAPAU_Node@?$_Tree_nod@V?$_Tmap_traits@KPAU_CONNECTIONREQUEST2@@U?$less@K@std@@V?$allocator@U?$pair@$$CBKPAU_CONNECTIONREQUEST2@@@std@@@3@$0A@@std@@@2@XZ 0041aad0 f i dos2.obj
 0001:00019ae0       ??0iterator@?$_Tree@V?$_Tmap_traits@KPAU_CONNECTIONREQUEST2@@U?$less@K@std@@V?$allocator@U?$pair@$$CBKPAU_CONNECTIONREQUEST2@@@std@@@3@$0A@@std@@@std@@QAE@PAU_Node@?$_Tree_nod@V?$_Tmap_traits@KPAU_CONNECTIONREQUEST2@@U?$less@K@std@@V?$allocator@U?$pair@$$CBKPAU_CONNECTIONREQUEST2@@@std@@@3@$0A@@std@@@2@@Z 0041aae0 f i dos2.obj
 0001:00019af0       ??Diterator@?$_Tree@V?$_Tmap_traits@KPAU_CONNECTIONREQUEST2@@U?$less@K@std@@V?$allocator@U?$pair@$$CBKPAU_CONNECTIONREQUEST2@@@std@@@3@$0A@@std@@@std@@QBEAAU?$pair@$$CBKPAU_CONNECTIONREQUEST2@@@2@XZ 0041aaf0 f i dos2.obj
 0001:00019b00       ?max_size@?$_Tree@V?$_Tmap_traits@KPAU_CONNECTIONREQUEST2@@U?$less@K@std@@V?$allocator@U?$pair@$$CBKPAU_CONNECTIONREQUEST2@@@std@@@3@$0A@@std@@@std@@QBEIXZ 0041ab00 f i dos2.obj
 0001:00019b10       ?_Lbound@?$_Tree@V?$_Tmap_traits@KPAU_CONNECTIONREQUEST2@@U?$less@K@std@@V?$allocator@U?$pair@$$CBKPAU_CONNECTIONREQUEST2@@@std@@@3@$0A@@std@@@std@@IBEPAU_Node@?$_Tree_nod@V?$_Tmap_traits@KPAU_CONNECTIONREQUEST2@@U?$less@K@std@@V?$allocator@U?$pair@$$CBKPAU_CONNECTIONREQUEST2@@@std@@@3@$0A@@std@@@2@ABK@Z 0041ab10 f i dos2.obj
 0001:00019b40       ?_Lrotate@?$_Tree@V?$_Tmap_traits@KPAU_CONNECTIONREQUEST2@@U?$less@K@std@@V?$allocator@U?$pair@$$CBKPAU_CONNECTIONREQUEST2@@@std@@@3@$0A@@std@@@std@@IAEXPAU_Node@?$_Tree_nod@V?$_Tmap_traits@KPAU_CONNECTIONREQUEST2@@U?$less@K@std@@V?$allocator@U?$pair@$$CBKPAU_CONNECTIONREQUEST2@@@std@@@3@$0A@@std@@@2@@Z 0041ab40 f i dos2.obj
 0001:00019ba0       ?_Rrotate@?$_Tree@V?$_Tmap_traits@KPAU_CONNECTIONREQUEST2@@U?$less@K@std@@V?$allocator@U?$pair@$$CBKPAU_CONNECTIONREQUEST2@@@std@@@3@$0A@@std@@@std@@IAEXPAU_Node@?$_Tree_nod@V?$_Tmap_traits@KPAU_CONNECTIONREQUEST2@@U?$less@K@std@@V?$allocator@U?$pair@$$CBKPAU_CONNECTIONREQUEST2@@@std@@@3@$0A@@std@@@2@@Z 0041aba0 f i dos2.obj
 0001:00019c00       ?destroy@?$allocator@U_Node@?$_Tree_nod@V?$_Tmap_traits@KPAU_CONNECTIONREQUEST2@@U?$less@K@std@@V?$allocator@U?$pair@$$CBKPAU_CONNECTIONREQUEST2@@@std@@@3@$0A@@std@@@std@@@std@@QAEXPAU_Node@?$_Tree_nod@V?$_Tmap_traits@KPAU_CONNECTIONREQUEST2@@U?$less@K@std@@V?$allocator@U?$pair@$$CBKPAU_CONNECTIONREQUEST2@@@std@@@3@$0A@@std@@@2@@Z 0041ac00 f i dos2.obj
 0001:00019c10       ?destroy@?$allocator@PAU_Node@?$_Tree_nod@V?$_Tmap_traits@KPAU_CONNECTIONREQUEST2@@U?$less@K@std@@V?$allocator@U?$pair@$$CBKPAU_CONNECTIONREQUEST2@@@std@@@3@$0A@@std@@@std@@@std@@QAEXPAPAU_Node@?$_Tree_nod@V?$_Tmap_traits@KPAU_CONNECTIONREQUEST2@@U?$less@K@std@@V?$allocator@U?$pair@$$CBKPAU_CONNECTIONREQUEST2@@@std@@@3@$0A@@std@@@2@@Z 0041ac10 f i dos2.obj
 0001:00019c20       ?_Inc@const_iterator@?$_Tree@V?$_Tmap_traits@KPAU_CONNECTIONREQUEST2@@U?$less@K@std@@V?$allocator@U?$pair@$$CBKPAU_CONNECTIONREQUEST2@@@std@@@3@$0A@@std@@@std@@QAEXXZ 0041ac20 f i dos2.obj
 0001:00019c80       ?allocate@?$allocator@U_Node@?$_Tree_nod@V?$_Tmap_traits@KPAU_CONNECTIONREQUEST2@@U?$less@K@std@@V?$allocator@U?$pair@$$CBKPAU_CONNECTIONREQUEST2@@@std@@@3@$0A@@std@@@std@@@std@@QAEPAU_Node@?$_Tree_nod@V?$_Tmap_traits@KPAU_CONNECTIONREQUEST2@@U?$less@K@std@@V?$allocator@U?$pair@$$CBKPAU_CONNECTIONREQUEST2@@@std@@@3@$0A@@std@@@2@I@Z 0041ac80 f i dos2.obj
 0001:00019ca0       ?_Dec@const_iterator@?$_Tree@V?$_Tmap_traits@KPAU_CONNECTIONREQUEST2@@U?$less@K@std@@V?$allocator@U?$pair@$$CBKPAU_CONNECTIONREQUEST2@@@std@@@3@$0A@@std@@@std@@QAEXXZ 0041aca0 f i dos2.obj
 0001:00019d00       ??0?$_Tree_nod@V?$_Tmap_traits@KPAU_CONNECTIONREQUEST2@@U?$less@K@std@@V?$allocator@U?$pair@$$CBKPAU_CONNECTIONREQUEST2@@@std@@@3@$0A@@std@@@std@@IAE@ABU?$less@K@1@V?$allocator@U?$pair@$$CBKPAU_CONNECTIONREQUEST2@@@std@@@1@@Z 0041ad00 f i dos2.obj
 0001:00019d10       ?construct@?$allocator@PAU_Node@?$_Tree_nod@V?$_Tmap_traits@KPAU_CONNECTIONREQUEST2@@U?$less@K@std@@V?$allocator@U?$pair@$$CBKPAU_CONNECTIONREQUEST2@@@std@@@3@$0A@@std@@@std@@@std@@QAEXPAPAU_Node@?$_Tree_nod@V?$_Tmap_traits@KPAU_CONNECTIONREQUEST2@@U?$less@K@std@@V?$allocator@U?$pair@$$CBKPAU_CONNECTIONREQUEST2@@@std@@@3@$0A@@std@@@2@ABQAU342@@Z 0041ad10 f i dos2.obj
 0001:00019d30       ?begin@?$_Tree@V?$_Tmap_traits@KPAU_CONNECTIONREQUEST2@@U?$less@K@std@@V?$allocator@U?$pair@$$CBKPAU_CONNECTIONREQUEST2@@@std@@@3@$0A@@std@@@std@@QAE?AViterator@12@XZ 0041ad30 f i dos2.obj
 0001:00019d40       ?end@?$_Tree@V?$_Tmap_traits@KPAU_CONNECTIONREQUEST2@@U?$less@K@std@@V?$allocator@U?$pair@$$CBKPAU_CONNECTIONREQUEST2@@@std@@@3@$0A@@std@@@std@@QAE?AViterator@12@XZ 0041ad40 f i dos2.obj
 0001:00019d50       ??Citerator@?$_Tree@V?$_Tmap_traits@KPAU_CONNECTIONREQUEST2@@U?$less@K@std@@V?$allocator@U?$pair@$$CBKPAU_CONNECTIONREQUEST2@@@std@@@3@$0A@@std@@@std@@QBEPAU?$pair@$$CBKPAU_CONNECTIONREQUEST2@@@2@XZ 0041ad50 f i dos2.obj
 0001:00019d60       ?lower_bound@?$_Tree@V?$_Tmap_traits@KPAU_CONNECTIONREQUEST2@@U?$less@K@std@@V?$allocator@U?$pair@$$CBKPAU_CONNECTIONREQUEST2@@@std@@@3@$0A@@std@@@std@@QAE?AViterator@12@ABK@Z 0041ad60 f i dos2.obj
 0001:00019da0       ?_Erase@?$_Tree@V?$_Tmap_traits@KPAU_CONNECTIONREQUEST2@@U?$less@K@std@@V?$allocator@U?$pair@$$CBKPAU_CONNECTIONREQUEST2@@@std@@@3@$0A@@std@@@std@@IAEXPAU_Node@?$_Tree_nod@V?$_Tmap_traits@KPAU_CONNECTIONREQUEST2@@U?$less@K@std@@V?$allocator@U?$pair@$$CBKPAU_CONNECTIONREQUEST2@@@std@@@3@$0A@@std@@@2@@Z 0041ada0 f i dos2.obj
 0001:00019de0       ??Econst_iterator@?$_Tree@V?$_Tmap_traits@KPAU_CONNECTIONREQUEST2@@U?$less@K@std@@V?$allocator@U?$pair@$$CBKPAU_CONNECTIONREQUEST2@@@std@@@3@$0A@@std@@@std@@QAEAAV012@XZ 0041ade0 f i dos2.obj
 0001:00019df0       ?_Buynode@?$_Tree@V?$_Tmap_traits@KPAU_CONNECTIONREQUEST2@@U?$less@K@std@@V?$allocator@U?$pair@$$CBKPAU_CONNECTIONREQUEST2@@@std@@@3@$0A@@std@@@std@@IAEPAU_Node@?$_Tree_nod@V?$_Tmap_traits@KPAU_CONNECTIONREQUEST2@@U?$less@K@std@@V?$allocator@U?$pair@$$CBKPAU_CONNECTIONREQUEST2@@@std@@@3@$0A@@std@@@2@PAU342@00ABU?$pair@$$CBKPAU_CONNECTIONREQUEST2@@@2@D@Z 0041adf0 f i dos2.obj
 0001:00019e30       ??Fconst_iterator@?$_Tree@V?$_Tmap_traits@KPAU_CONNECTIONREQUEST2@@U?$less@K@std@@V?$allocator@U?$pair@$$CBKPAU_CONNECTIONREQUEST2@@@std@@@3@$0A@@std@@@std@@QAEAAV012@XZ 0041ae30 f i dos2.obj
 0001:00019e40       ?_Buynode@?$_Tree@V?$_Tmap_traits@KPAU_CONNECTIONREQUEST2@@U?$less@K@std@@V?$allocator@U?$pair@$$CBKPAU_CONNECTIONREQUEST2@@@std@@@3@$0A@@std@@@std@@IAEPAU_Node@?$_Tree_nod@V?$_Tmap_traits@KPAU_CONNECTIONREQUEST2@@U?$less@K@std@@V?$allocator@U?$pair@$$CBKPAU_CONNECTIONREQUEST2@@@std@@@3@$0A@@std@@@2@XZ 0041ae40 f i dos2.obj
 0001:00019e80       ??0?$_Tree_ptr@V?$_Tmap_traits@KPAU_CONNECTIONREQUEST2@@U?$less@K@std@@V?$allocator@U?$pair@$$CBKPAU_CONNECTIONREQUEST2@@@std@@@3@$0A@@std@@@std@@IAE@ABU?$less@K@1@V?$allocator@U?$pair@$$CBKPAU_CONNECTIONREQUEST2@@@std@@@1@@Z 0041ae80 f i dos2.obj
 0001:00019e90       ?clear@?$_Tree@V?$_Tmap_traits@KPAU_CONNECTIONREQUEST2@@U?$less@K@std@@V?$allocator@U?$pair@$$CBKPAU_CONNECTIONREQUEST2@@@std@@@3@$0A@@std@@@std@@QAEXXZ 0041ae90 f i dos2.obj
 0001:00019ec0       ?find@?$_Tree@V?$_Tmap_traits@KPAU_CONNECTIONREQUEST2@@U?$less@K@std@@V?$allocator@U?$pair@$$CBKPAU_CONNECTIONREQUEST2@@@std@@@3@$0A@@std@@@std@@QAE?AViterator@12@ABK@Z 0041aec0 f i dos2.obj
 0001:00019f30       ??Eiterator@?$_Tree@V?$_Tmap_traits@KPAU_CONNECTIONREQUEST2@@U?$less@K@std@@V?$allocator@U?$pair@$$CBKPAU_CONNECTIONREQUEST2@@@std@@@3@$0A@@std@@@std@@QAEAAV012@XZ 0041af30 f i dos2.obj
 0001:00019f40       ?Destroy@?$MemPooler@U_CONNECTIONREQUEST2@@@@IAEXXZ 0041af40 f i dos2.obj
 0001:00019fb0       ??Fiterator@?$_Tree@V?$_Tmap_traits@KPAU_CONNECTIONREQUEST2@@U?$less@K@std@@V?$allocator@U?$pair@$$CBKPAU_CONNECTIONREQUEST2@@@std@@@3@$0A@@std@@@std@@QAEAAV012@XZ 0041afb0 f i dos2.obj
 0001:00019fc0       ?_Init@?$_Tree@V?$_Tmap_traits@KPAU_CONNECTIONREQUEST2@@U?$less@K@std@@V?$allocator@U?$pair@$$CBKPAU_CONNECTIONREQUEST2@@@std@@@3@$0A@@std@@@std@@IAEXXZ 0041afc0 f i dos2.obj
 0001:00019ff0       ??0?$_Tree_val@V?$_Tmap_traits@KPAU_CONNECTIONREQUEST2@@U?$less@K@std@@V?$allocator@U?$pair@$$CBKPAU_CONNECTIONREQUEST2@@@std@@@3@$0A@@std@@@std@@IAE@ABU?$less@K@1@V?$allocator@U?$pair@$$CBKPAU_CONNECTIONREQUEST2@@@std@@@1@@Z 0041aff0 f i dos2.obj
 0001:0001a000       ??Eiterator@?$_Tree@V?$_Tmap_traits@KPAU_CONNECTIONREQUEST2@@U?$less@K@std@@V?$allocator@U?$pair@$$CBKPAU_CONNECTIONREQUEST2@@@std@@@3@$0A@@std@@@std@@QAE?AV012@H@Z 0041b000 f i dos2.obj
 0001:0001a020       ?Get@CDos2@@AAEPAU_CONNECTIONREQUEST2@@K@Z 0041b020 f   dos2.obj
 0001:0001a050       ?Release@CDos2@@AAEXXZ     0041b050 f   dos2.obj
 0001:0001a0d0       ??1?$MemPooler@U_CONNECTIONREQUEST2@@@@QAE@XZ 0041b0d0 f i dos2.obj
 0001:0001a100       ??0?$_Tree@V?$_Tmap_traits@KPAU_CONNECTIONREQUEST2@@U?$less@K@std@@V?$allocator@U?$pair@$$CBKPAU_CONNECTIONREQUEST2@@@std@@@3@$0A@@std@@@std@@QAE@ABU?$less@K@1@ABV?$allocator@U?$pair@$$CBKPAU_CONNECTIONREQUEST2@@@std@@@1@@Z 0041b100 f i dos2.obj
 0001:0001a130       ??_G?$MemPooler@U_CONNECTIONREQUEST2@@@@QAEPAXI@Z 0041b130 f i dos2.obj
 0001:0001a150       ?_Insert@?$_Tree@V?$_Tmap_traits@KPAU_CONNECTIONREQUEST2@@U?$less@K@std@@V?$allocator@U?$pair@$$CBKPAU_CONNECTIONREQUEST2@@@std@@@3@$0A@@std@@@std@@IAE?AViterator@12@_NPAU_Node@?$_Tree_nod@V?$_Tmap_traits@KPAU_CONNECTIONREQUEST2@@U?$less@K@std@@V?$allocator@U?$pair@$$CBKPAU_CONNECTIONREQUEST2@@@std@@@3@$0A@@std@@@2@ABU?$pair@$$CBKPAU_CONNECTIONREQUEST2@@@2@@Z 0041b150 f i dos2.obj
 0001:0001a300       ?erase@?$_Tree@V?$_Tmap_traits@KPAU_CONNECTIONREQUEST2@@U?$less@K@std@@V?$allocator@U?$pair@$$CBKPAU_CONNECTIONREQUEST2@@@std@@@3@$0A@@std@@@std@@QAE?AViterator@12@V312@@Z 0041b300 f i dos2.obj
 0001:0001a5c0       ?insert@?$_Tree@V?$_Tmap_traits@KPAU_CONNECTIONREQUEST2@@U?$less@K@std@@V?$allocator@U?$pair@$$CBKPAU_CONNECTIONREQUEST2@@@std@@@3@$0A@@std@@@std@@QAE?AU?$pair@Viterator@?$_Tree@V?$_Tmap_traits@KPAU_CONNECTIONREQUEST2@@U?$less@K@std@@V?$allocator@U?$pair@$$CBKPAU_CONNECTIONREQUEST2@@@std@@@3@$0A@@std@@@std@@_N@2@ABU?$pair@$$CBKPAU_CONNECTIONREQUEST2@@@2@@Z 0041b5c0 f i dos2.obj
 0001:0001a680       ?erase@?$_Tree@V?$_Tmap_traits@KPAU_CONNECTIONREQUEST2@@U?$less@K@std@@V?$allocator@U?$pair@$$CBKPAU_CONNECTIONREQUEST2@@@std@@@3@$0A@@std@@@std@@QAE?AViterator@12@V312@0@Z 0041b680 f i dos2.obj
 0001:0001a740       ?_Tidy@?$_Tree@V?$_Tmap_traits@KPAU_CONNECTIONREQUEST2@@U?$less@K@std@@V?$allocator@U?$pair@$$CBKPAU_CONNECTIONREQUEST2@@@std@@@3@$0A@@std@@@std@@IAEXXZ 0041b740 f i dos2.obj
 0001:0001a770       ??1?$_Tree@V?$_Tmap_traits@KPAU_CONNECTIONREQUEST2@@U?$less@K@std@@V?$allocator@U?$pair@$$CBKPAU_CONNECTIONREQUEST2@@@std@@@3@$0A@@std@@@std@@QAE@XZ 0041b770 f i dos2.obj
 0001:0001a7a0       ?Create@?$MemPooler@U_CONNECTIONREQUEST2@@@@IAEXXZ 0041b7a0 f i dos2.obj
 0001:0001a830       ??1?$map@KPAU_CONNECTIONREQUEST2@@U?$less@K@std@@V?$allocator@U?$pair@$$CBKPAU_CONNECTIONREQUEST2@@@std@@@3@@std@@QAE@XZ 0041b830 f i dos2.obj
 0001:0001a860       ??1CDos2@@UAE@XZ           0041b860 f   dos2.obj
 0001:0001a9e0       ??0?$map@KPAU_CONNECTIONREQUEST2@@U?$less@K@std@@V?$allocator@U?$pair@$$CBKPAU_CONNECTIONREQUEST2@@@std@@@3@@std@@QAE@XZ 0041b9e0 f i dos2.obj
 0001:0001aa10       ??0?$MemPooler@U_CONNECTIONREQUEST2@@@@QAE@H@Z 0041ba10 f i dos2.obj
 0001:0001aa90       ?Alloc@?$MemPooler@U_CONNECTIONREQUEST2@@@@QAEPAU_CONNECTIONREQUEST2@@XZ 0041ba90 f i dos2.obj
 0001:0001aad0       ??0CDos2@@QAE@XZ           0041bad0 f   dos2.obj
 0001:0001aba0       ??_ECDos2@@UAEPAXI@Z       0041bba0 f i dos2.obj
 0001:0001aba0       ??_GCDos2@@UAEPAXI@Z       0041bba0 f i dos2.obj
 0001:0001abc0       ?Add@CDos2@@AAEXK@Z        0041bbc0 f   dos2.obj
 0001:0001ac40       ?IsOver@CDos2@@QAEHK@Z     0041bc40 f   dos2.obj
 0001:0001acf0       ??1CHeapMng@@UAE@XZ        0041bcf0 f   heapmng.obj
 0001:0001ad10       ?Malloc@CHeapMng@@QAEPAXI@Z 0041bd10 f   heapmng.obj
 0001:0001ad30       ?Free@CHeapMng@@QAEXPAX@Z  0041bd30 f   heapmng.obj
 0001:0001ad50       ?Realloc@CHeapMng@@QAEPAXPAXI@Z 0041bd50 f   heapmng.obj
 0001:0001ad70       ??0CHeapMng@@QAE@XZ        0041bd70 f   heapmng.obj
 0001:0001ada0       ??_GCHeapMng@@UAEPAXI@Z    0041bda0 f i heapmng.obj
 0001:0001ada0       ??_ECHeapMng@@UAEPAXI@Z    0041bda0 f i heapmng.obj
 0001:0001add0       ?FindKey@CMyTrace@@AAEHK@Z 0041bdd0 f   MyTrace.obj
 0001:0001ae70       ?Key@CMyTrace@@SAKPBD@Z    0041be70 f   MyTrace.obj
 0001:0001aef0       ?TextOutA@CMyTrace@@AAEXPAUHDC__@@HHPBDH@Z 0041bef0 f   MyTrace.obj
 0001:0001af60       ?GetText@CMyTrace@@QAEXKPAD@Z 0041bf60 f   MyTrace.obj
 0001:0001af90       ??0CMyTrace@@QAE@XZ        0041bf90 f   MyTrace.obj
 0001:0001afe0       ??1CMyTrace@@UAE@XZ        0041bfe0 f   MyTrace.obj
 0001:0001b020       ?Add@CMyTrace@@QAAXKHPBDZZ 0041c020 f   MyTrace.obj
 0001:0001b1f0       ?AddLine@CMyTrace@@QAEXD@Z 0041c1f0 f   MyTrace.obj
 0001:0001b260       ?Paint@CMyTrace@@QAEXPAUHDC__@@@Z 0041c260 f   MyTrace.obj
 0001:0001b4f0       ??_ECMyTrace@@UAEPAXI@Z    0041c4f0 f i MyTrace.obj
 0001:0001b4f0       ??_GCMyTrace@@UAEPAXI@Z    0041c4f0 f i MyTrace.obj
 0001:0001b510       ??6CAr@@QAEAAV0@G@Z        0041c510 f i ServerDesc.obj
 0001:0001b530       ??6@YAAAVCAr@@AAV0@UtagRECT@@@Z 0041c530 f i ServerDesc.obj
 0001:0001b550       ??5@YAAAVCAr@@AAV0@AAUtagRECT@@@Z 0041c550 f i ServerDesc.obj
 0001:0001b570       ?SetKey@CServerDesc@@QAEXK@Z 0041c570 f i ServerDesc.obj
 0001:0001b590       ?size@?$list@PAVCJurisdiction@@V?$allocator@PAVCJurisdiction@@@std@@@std@@QBEIXZ 0041c590 f i ServerDesc.obj
 0001:0001b5a0       ?_Nextnode@?$list@PAVCJurisdiction@@V?$allocator@PAVCJurisdiction@@@std@@@std@@KAAAPAU_Node@?$_List_nod@PAVCJurisdiction@@V?$allocator@PAVCJurisdiction@@@std@@@2@PAU342@@Z 0041c5a0 f i ServerDesc.obj
 0001:0001b5b0       ??0?$allocator@PAVCJurisdiction@@@std@@QAE@XZ 0041c5b0 f i ServerDesc.obj
 0001:0001b5c0       ??0?$allocator@U?$pair@$$CBKPAVCServerDesc@@@std@@@std@@QAE@XZ 0041c5c0 f i ServerDesc.obj
 0001:0001b5d0       ??Econst_iterator@?$list@PAVCJurisdiction@@V?$allocator@PAVCJurisdiction@@@std@@@std@@QAEAAV012@XZ 0041c5d0 f i ServerDesc.obj
 0001:0001b5e0       ??8const_iterator@?$list@PAVCJurisdiction@@V?$allocator@PAVCJurisdiction@@@std@@@std@@QBE_NABV012@@Z 0041c5e0 f i ServerDesc.obj
 0001:0001b5f0       ?_Prevnode@?$list@PAVCJurisdiction@@V?$allocator@PAVCJurisdiction@@@std@@@std@@KAAAPAU_Node@?$_List_nod@PAVCJurisdiction@@V?$allocator@PAVCJurisdiction@@@std@@@2@PAU342@@Z 0041c5f0 f i ServerDesc.obj
 0001:0001b600       ?_Myval@?$list@PAVCJurisdiction@@V?$allocator@PAVCJurisdiction@@@std@@@std@@KAAAPAVCJurisdiction@@PAU_Node@?$_List_nod@PAVCJurisdiction@@V?$allocator@PAVCJurisdiction@@@std@@@2@@Z 0041c600 f i ServerDesc.obj
 0001:0001b610       ??0?$allocator@PAVCJurisdiction@@@std@@QAE@ABV01@@Z 0041c610 f i ServerDesc.obj
 0001:0001b620       ?deallocate@?$allocator@U_Node@?$_List_nod@PAVCJurisdiction@@V?$allocator@PAVCJurisdiction@@@std@@@std@@@std@@QAEXPAU_Node@?$_List_nod@PAVCJurisdiction@@V?$allocator@PAVCJurisdiction@@@std@@@2@I@Z 0041c620 f i ServerDesc.obj
 0001:0001b630       ??0?$allocator@U?$pair@$$CBKPAVCServerDesc@@@std@@@std@@QAE@ABV01@@Z 0041c630 f i ServerDesc.obj
 0001:0001b640       ??0const_iterator@?$list@PAVCJurisdiction@@V?$allocator@PAVCJurisdiction@@@std@@@std@@QAE@PAU_Node@?$_List_nod@PAVCJurisdiction@@V?$allocator@PAVCJurisdiction@@@std@@@2@@Z 0041c640 f i ServerDesc.obj
 0001:0001b650       ?_Mynode@const_iterator@?$list@PAVCJurisdiction@@V?$allocator@PAVCJurisdiction@@@std@@@std@@QBEPAU_Node@?$_List_nod@PAVCJurisdiction@@V?$allocator@PAVCJurisdiction@@@std@@@3@XZ 0041c650 f i ServerDesc.obj
 0001:0001b660       ??Dconst_iterator@?$_Tree@V?$_Tmap_traits@KPAVCServerDesc@@U?$less@K@std@@V?$allocator@U?$pair@$$CBKPAVCServerDesc@@@std@@@3@$0A@@std@@@std@@QBEABU?$pair@$$CBKPAVCServerDesc@@@2@XZ 0041c660 f i ServerDesc.obj
 0001:0001b670       ??0_Node@?$_List_nod@PAVCJurisdiction@@V?$allocator@PAVCJurisdiction@@@std@@@std@@QAE@PAU012@0ABQAVCJurisdiction@@@Z 0041c670 f i ServerDesc.obj
 0001:0001b690       ?max_size@?$allocator@PAVCJurisdiction@@@std@@QBEIXZ 0041c690 f i ServerDesc.obj
 0001:0001b6a0       ??0?$_Tmap_traits@KPAVCServerDesc@@U?$less@K@std@@V?$allocator@U?$pair@$$CBKPAVCServerDesc@@@std@@@3@$0A@@std@@QAE@U?$less@K@1@@Z 0041c6a0 f i ServerDesc.obj
 0001:0001b6b0       ??$?0PAVCJurisdiction@@@?$allocator@PAU_Node@?$_List_nod@PAVCJurisdiction@@V?$allocator@PAVCJurisdiction@@@std@@@std@@@std@@QAE@ABV?$allocator@PAVCJurisdiction@@@1@@Z 0041c6b0 f i ServerDesc.obj
 0001:0001b6c0       ??$_Allocate@U_Node@?$_List_nod@PAVCJurisdiction@@V?$allocator@PAVCJurisdiction@@@std@@@std@@@std@@YAPAU_Node@?$_List_nod@PAVCJurisdiction@@V?$allocator@PAVCJurisdiction@@@std@@@0@IPAU120@@Z 0041c6c0 f i ServerDesc.obj
 0001:0001b6e0       ??$_Destroy@U_Node@?$_List_nod@PAVCJurisdiction@@V?$allocator@PAVCJurisdiction@@@std@@@std@@@std@@YAXPAU_Node@?$_List_nod@PAVCJurisdiction@@V?$allocator@PAVCJurisdiction@@@std@@@0@@Z 0041c6e0 f i ServerDesc.obj
 0001:0001b6f0       ??$_Construct@PAU_Node@?$_List_nod@PAVCJurisdiction@@V?$allocator@PAVCJurisdiction@@@std@@@std@@PAU123@@std@@YAXPAPAU_Node@?$_List_nod@PAVCJurisdiction@@V?$allocator@PAVCJurisdiction@@@std@@@0@ABQAU120@@Z 0041c6f0 f i ServerDesc.obj
 0001:0001b710       ??$_Destroy@PAU_Node@?$_List_nod@PAVCJurisdiction@@V?$allocator@PAVCJurisdiction@@@std@@@std@@@std@@YAXPAPAU_Node@?$_List_nod@PAVCJurisdiction@@V?$allocator@PAVCJurisdiction@@@std@@@0@@Z 0041c710 f i ServerDesc.obj
 0001:0001b720       ??$_Destroy@PAU_Node@?$_Tree_nod@V?$_Tmap_traits@KPAVCServerDesc@@U?$less@K@std@@V?$allocator@U?$pair@$$CBKPAVCServerDesc@@@std@@@3@$0A@@std@@@std@@@std@@YAXPAPAU_Node@?$_Tree_nod@V?$_Tmap_traits@KPAVCServerDesc@@U?$less@K@std@@V?$allocator@U?$pair@$$CBKPAVCServerDesc@@@std@@@3@$0A@@std@@@0@@Z 0041c720 f i ServerDesc.obj
 0001:0001b730       ??$?0PAVCJurisdiction@@@?$allocator@U_Node@?$_List_nod@PAVCJurisdiction@@V?$allocator@PAVCJurisdiction@@@std@@@std@@@std@@QAE@ABV?$allocator@PAVCJurisdiction@@@1@@Z 0041c730 f i ServerDesc.obj
 0001:0001b740       ??$?0U?$pair@$$CBKPAVCServerDesc@@@std@@@?$allocator@PAU_Node@?$_Tree_nod@V?$_Tmap_traits@KPAVCServerDesc@@U?$less@K@std@@V?$allocator@U?$pair@$$CBKPAVCServerDesc@@@std@@@3@$0A@@std@@@std@@@std@@QAE@ABV?$allocator@U?$pair@$$CBKPAVCServerDesc@@@std@@@1@@Z 0041c740 f i ServerDesc.obj
 0001:0001b750       ??$?0U?$pair@$$CBKPAVCServerDesc@@@std@@@?$allocator@U_Node@?$_Tree_nod@V?$_Tmap_traits@KPAVCServerDesc@@U?$less@K@std@@V?$allocator@U?$pair@$$CBKPAVCServerDesc@@@std@@@3@$0A@@std@@@std@@@std@@QAE@ABV?$allocator@U?$pair@$$CBKPAVCServerDesc@@@std@@@1@@Z 0041c750 f i ServerDesc.obj
 0001:0001b760       ??$_Construct@PAU_Node@?$_Tree_nod@V?$_Tmap_traits@KPAVCServerDesc@@U?$less@K@std@@V?$allocator@U?$pair@$$CBKPAVCServerDesc@@@std@@@3@$0A@@std@@@std@@PAU123@@std@@YAXPAPAU_Node@?$_Tree_nod@V?$_Tmap_traits@KPAVCServerDesc@@U?$less@K@std@@V?$allocator@U?$pair@$$CBKPAVCServerDesc@@@std@@@3@$0A@@std@@@0@ABQAU120@@Z 0041c760 f i ServerDesc.obj
 0001:0001b780       ??0CRect@@QAE@XZ           0041c780 f i ServerDesc.obj
 0001:0001b790       ?SetRect@CRect@@QAEXHHHH@Z 0041c790 f i ServerDesc.obj
 0001:0001b7b0       ??6CAr@@QAEAAV0@F@Z        0041c7b0 f i ServerDesc.obj
 0001:0001b7d0       ??0CJurisdiction@@QAE@XZ   0041c7d0 f i ServerDesc.obj
 0001:0001b810       ??_ECJurisdiction@@UAEPAXI@Z 0041c810 f i ServerDesc.obj
 0001:0001b810       ??_GCJurisdiction@@UAEPAXI@Z 0041c810 f i ServerDesc.obj
 0001:0001b830       ??Eiterator@?$list@PAVCJurisdiction@@V?$allocator@PAVCJurisdiction@@@std@@@std@@QAEAAV012@XZ 0041c830 f i ServerDesc.obj
 0001:0001b840       ??9const_iterator@?$list@PAVCJurisdiction@@V?$allocator@PAVCJurisdiction@@@std@@@std@@QBE_NABV012@@Z 0041c840 f i ServerDesc.obj
 0001:0001b860       ??0iterator@?$list@PAVCJurisdiction@@V?$allocator@PAVCJurisdiction@@@std@@@std@@QAE@PAU_Node@?$_List_nod@PAVCJurisdiction@@V?$allocator@PAVCJurisdiction@@@std@@@2@@Z 0041c860 f i ServerDesc.obj
 0001:0001b870       ??Dconst_iterator@?$list@PAVCJurisdiction@@V?$allocator@PAVCJurisdiction@@@std@@@std@@QBEABQAVCJurisdiction@@XZ 0041c870 f i ServerDesc.obj
 0001:0001b880       ??Diterator@?$_Tree@V?$_Tmap_traits@KPAVCServerDesc@@U?$less@K@std@@V?$allocator@U?$pair@$$CBKPAVCServerDesc@@@std@@@3@$0A@@std@@@std@@QBEAAU?$pair@$$CBKPAVCServerDesc@@@2@XZ 0041c880 f i ServerDesc.obj
 0001:0001b890       ?allocate@?$allocator@U_Node@?$_List_nod@PAVCJurisdiction@@V?$allocator@PAVCJurisdiction@@@std@@@std@@@std@@QAEPAU_Node@?$_List_nod@PAVCJurisdiction@@V?$allocator@PAVCJurisdiction@@@std@@@2@I@Z 0041c890 f i ServerDesc.obj
 0001:0001b8b0       ?destroy@?$allocator@U_Node@?$_List_nod@PAVCJurisdiction@@V?$allocator@PAVCJurisdiction@@@std@@@std@@@std@@QAEXPAU_Node@?$_List_nod@PAVCJurisdiction@@V?$allocator@PAVCJurisdiction@@@std@@@2@@Z 0041c8b0 f i ServerDesc.obj
 0001:0001b8c0       ?construct@?$allocator@PAU_Node@?$_List_nod@PAVCJurisdiction@@V?$allocator@PAVCJurisdiction@@@std@@@std@@@std@@QAEXPAPAU_Node@?$_List_nod@PAVCJurisdiction@@V?$allocator@PAVCJurisdiction@@@std@@@2@ABQAU342@@Z 0041c8c0 f i ServerDesc.obj
 0001:0001b8e0       ?destroy@?$allocator@PAU_Node@?$_List_nod@PAVCJurisdiction@@V?$allocator@PAVCJurisdiction@@@std@@@std@@@std@@QAEXPAPAU_Node@?$_List_nod@PAVCJurisdiction@@V?$allocator@PAVCJurisdiction@@@std@@@2@@Z 0041c8e0 f i ServerDesc.obj
 0001:0001b8f0       ?destroy@?$allocator@PAU_Node@?$_Tree_nod@V?$_Tmap_traits@KPAVCServerDesc@@U?$less@K@std@@V?$allocator@U?$pair@$$CBKPAVCServerDesc@@@std@@@3@$0A@@std@@@std@@@std@@QAEXPAPAU_Node@?$_Tree_nod@V?$_Tmap_traits@KPAVCServerDesc@@U?$less@K@std@@V?$allocator@U?$pair@$$CBKPAVCServerDesc@@@std@@@3@$0A@@std@@@2@@Z 0041c8f0 f i ServerDesc.obj
 0001:0001b900       ??Eiterator@?$list@PAVCJurisdiction@@V?$allocator@PAVCJurisdiction@@@std@@@std@@QAE?AV012@H@Z 0041c900 f i ServerDesc.obj
 0001:0001b910       ?max_size@?$list@PAVCJurisdiction@@V?$allocator@PAVCJurisdiction@@@std@@@std@@QBEIXZ 0041c910 f i ServerDesc.obj
 0001:0001b920       ??0?$_List_nod@PAVCJurisdiction@@V?$allocator@PAVCJurisdiction@@@std@@@std@@IAE@V?$allocator@PAVCJurisdiction@@@1@@Z 0041c920 f i ServerDesc.obj
 0001:0001b930       ??0?$_Tree_nod@V?$_Tmap_traits@KPAVCServerDesc@@U?$less@K@std@@V?$allocator@U?$pair@$$CBKPAVCServerDesc@@@std@@@3@$0A@@std@@@std@@IAE@ABU?$less@K@1@V?$allocator@U?$pair@$$CBKPAVCServerDesc@@@std@@@1@@Z 0041c930 f i ServerDesc.obj
 0001:0001b940       ?construct@?$allocator@PAU_Node@?$_Tree_nod@V?$_Tmap_traits@KPAVCServerDesc@@U?$less@K@std@@V?$allocator@U?$pair@$$CBKPAVCServerDesc@@@std@@@3@$0A@@std@@@std@@@std@@QAEXPAPAU_Node@?$_Tree_nod@V?$_Tmap_traits@KPAVCServerDesc@@U?$less@K@std@@V?$allocator@U?$pair@$$CBKPAVCServerDesc@@@std@@@3@$0A@@std@@@2@ABQAU342@@Z 0041c940 f i ServerDesc.obj
 0001:0001b960       ?begin@?$list@PAVCJurisdiction@@V?$allocator@PAVCJurisdiction@@@std@@@std@@QAE?AViterator@12@XZ 0041c960 f i ServerDesc.obj
 0001:0001b970       ?end@?$list@PAVCJurisdiction@@V?$allocator@PAVCJurisdiction@@@std@@@std@@QAE?AViterator@12@XZ 0041c970 f i ServerDesc.obj
 0001:0001b980       ??Diterator@?$list@PAVCJurisdiction@@V?$allocator@PAVCJurisdiction@@@std@@@std@@QBEAAPAVCJurisdiction@@XZ 0041c980 f i ServerDesc.obj
 0001:0001b990       ??Citerator@?$_Tree@V?$_Tmap_traits@KPAVCServerDesc@@U?$less@K@std@@V?$allocator@U?$pair@$$CBKPAVCServerDesc@@@std@@@3@$0A@@std@@@std@@QBEPAU?$pair@$$CBKPAVCServerDesc@@@2@XZ 0041c990 f i ServerDesc.obj
 0001:0001b9a0       ?erase@?$list@PAVCJurisdiction@@V?$allocator@PAVCJurisdiction@@@std@@@std@@QAE?AViterator@12@V312@@Z 0041c9a0 f i ServerDesc.obj
 0001:0001b9e0       ?_Buynode@?$list@PAVCJurisdiction@@V?$allocator@PAVCJurisdiction@@@std@@@std@@IAEPAU_Node@?$_List_nod@PAVCJurisdiction@@V?$allocator@PAVCJurisdiction@@@std@@@2@XZ 0041c9e0 f i ServerDesc.obj
 0001:0001ba00       ?clear@?$list@PAVCJurisdiction@@V?$allocator@PAVCJurisdiction@@@std@@@std@@QAEXXZ 0041ca00 f i ServerDesc.obj
 0001:0001ba40       ?_Buynode@?$list@PAVCJurisdiction@@V?$allocator@PAVCJurisdiction@@@std@@@std@@IAEPAU_Node@?$_List_nod@PAVCJurisdiction@@V?$allocator@PAVCJurisdiction@@@std@@@2@PAU342@0ABQAVCJurisdiction@@@Z 0041ca40 f i ServerDesc.obj
 0001:0001ba70       ??0?$_List_ptr@PAVCJurisdiction@@V?$allocator@PAVCJurisdiction@@@std@@@std@@IAE@V?$allocator@PAVCJurisdiction@@@1@@Z 0041ca70 f i ServerDesc.obj
 0001:0001ba80       ?_Buynode@?$_Tree@V?$_Tmap_traits@KPAVCServerDesc@@U?$less@K@std@@V?$allocator@U?$pair@$$CBKPAVCServerDesc@@@std@@@3@$0A@@std@@@std@@IAEPAU_Node@?$_Tree_nod@V?$_Tmap_traits@KPAVCServerDesc@@U?$less@K@std@@V?$allocator@U?$pair@$$CBKPAVCServerDesc@@@std@@@3@$0A@@std@@@2@XZ 0041ca80 f i ServerDesc.obj
 0001:0001bac0       ??0?$_Tree_ptr@V?$_Tmap_traits@KPAVCServerDesc@@U?$less@K@std@@V?$allocator@U?$pair@$$CBKPAVCServerDesc@@@std@@@3@$0A@@std@@@std@@IAE@ABU?$less@K@1@V?$allocator@U?$pair@$$CBKPAVCServerDesc@@@std@@@1@@Z 0041cac0 f i ServerDesc.obj
 0001:0001bad0       ?IsUnderJurisdiction@CServerDesc@@QAEHKABU_D3DVECTOR@@@Z 0041cad0 f   ServerDesc.obj
 0001:0001bb00       ?IsIntersected@CServerDesc@@QAEHK@Z 0041cb00 f   ServerDesc.obj
 0001:0001bb30       ?front@?$list@PAVCJurisdiction@@V?$allocator@PAVCJurisdiction@@@std@@@std@@QAEAAPAVCJurisdiction@@XZ 0041cb30 f i ServerDesc.obj
 0001:0001bb40       ?pop_front@?$list@PAVCJurisdiction@@V?$allocator@PAVCJurisdiction@@@std@@@std@@QAEXXZ 0041cb40 f i ServerDesc.obj
 0001:0001bb70       ?_Tidy@?$list@PAVCJurisdiction@@V?$allocator@PAVCJurisdiction@@@std@@@std@@IAEXXZ 0041cb70 f i ServerDesc.obj
 0001:0001bb90       ??0?$_List_val@PAVCJurisdiction@@V?$allocator@PAVCJurisdiction@@@std@@@std@@IAE@V?$allocator@PAVCJurisdiction@@@1@@Z 0041cb90 f i ServerDesc.obj
 0001:0001bba0       ?_Init@?$_Tree@V?$_Tmap_traits@KPAVCServerDesc@@U?$less@K@std@@V?$allocator@U?$pair@$$CBKPAVCServerDesc@@@std@@@3@$0A@@std@@@std@@IAEXXZ 0041cba0 f i ServerDesc.obj
 0001:0001bbd0       ??0?$_Tree_val@V?$_Tmap_traits@KPAVCServerDesc@@U?$less@K@std@@V?$allocator@U?$pair@$$CBKPAVCServerDesc@@@std@@@3@$0A@@std@@@std@@IAE@ABU?$less@K@1@V?$allocator@U?$pair@$$CBKPAVCServerDesc@@@std@@@1@@Z 0041cbd0 f i ServerDesc.obj
 0001:0001bbe0       ?Free@CServerDescArray@@QAEXXZ 0041cbe0 f   ServerDesc.obj
 0001:0001bcb0       ?GetAt@CServerDescArray@@QAEPAVCServerDesc@@K@Z 0041ccb0 f   ServerDesc.obj
 0001:0001bce0       ??0?$list@PAVCJurisdiction@@V?$allocator@PAVCJurisdiction@@@std@@@std@@QAE@XZ 0041cce0 f i ServerDesc.obj
 0001:0001bd00       ??1?$list@PAVCJurisdiction@@V?$allocator@PAVCJurisdiction@@@std@@@std@@QAE@XZ 0041cd00 f i ServerDesc.obj
 0001:0001bd20       ??0?$_Tree@V?$_Tmap_traits@KPAVCServerDesc@@U?$less@K@std@@V?$allocator@U?$pair@$$CBKPAVCServerDesc@@@std@@@3@$0A@@std@@@std@@QAE@ABU?$less@K@1@ABV?$allocator@U?$pair@$$CBKPAVCServerDesc@@@std@@@1@@Z 0041cd20 f i ServerDesc.obj
 0001:0001bd50       ??0CServerDesc@@QAE@XZ     0041cd50 f   ServerDesc.obj
 0001:0001bd80       ??1CServerDesc@@UAE@XZ     0041cd80 f   ServerDesc.obj
 0001:0001be30       ??_ECServerDesc@@UAEPAXI@Z 0041ce30 f i ServerDesc.obj
 0001:0001be30       ??_GCServerDesc@@UAEPAXI@Z 0041ce30 f i ServerDesc.obj
 0001:0001be50       ?_Incsize@?$list@PAVCJurisdiction@@V?$allocator@PAVCJurisdiction@@@std@@@std@@IAEXI@Z 0041ce50 f i ServerDesc.obj
 0001:0001bef0       ?_Insert@?$list@PAVCJurisdiction@@V?$allocator@PAVCJurisdiction@@@std@@@std@@QAEXViterator@12@ABQAVCJurisdiction@@@Z 0041cef0 f i ServerDesc.obj
 0001:0001bf30       ?push_back@?$list@PAVCJurisdiction@@V?$allocator@PAVCJurisdiction@@@std@@@std@@QAEXABQAVCJurisdiction@@@Z 0041cf30 f i ServerDesc.obj
 0001:0001bf70       ?_Tidy@?$_Tree@V?$_Tmap_traits@KPAVCServerDesc@@U?$less@K@std@@V?$allocator@U?$pair@$$CBKPAVCServerDesc@@@std@@@3@$0A@@std@@@std@@IAEXXZ 0041cf70 f i ServerDesc.obj
 0001:0001bfa0       ?Serialize@CServerDesc@@QAEXAAVCAr@@@Z 0041cfa0 f   ServerDesc.obj
 0001:0001c1f0       ??1?$_Tree@V?$_Tmap_traits@KPAVCServerDesc@@U?$less@K@std@@V?$allocator@U?$pair@$$CBKPAVCServerDesc@@@std@@@3@$0A@@std@@@std@@QAE@XZ 0041d1f0 f i ServerDesc.obj
 0001:0001c220       ??1?$map@KPAVCServerDesc@@U?$less@K@std@@V?$allocator@U?$pair@$$CBKPAVCServerDesc@@@std@@@3@@std@@QAE@XZ 0041d220 f i ServerDesc.obj
 0001:0001c250       ??1CServerDescArray@@UAE@XZ 0041d250 f   ServerDesc.obj
 0001:0001c2e0       ??0?$map@KPAVCServerDesc@@U?$less@K@std@@V?$allocator@U?$pair@$$CBKPAVCServerDesc@@@std@@@3@@std@@QAE@XZ 0041d2e0 f i ServerDesc.obj
 0001:0001c310       ??0CServerDescArray@@QAE@XZ 0041d310 f   ServerDesc.obj
 0001:0001c360       ??_ECServerDescArray@@UAEPAXI@Z 0041d360 f i ServerDesc.obj
 0001:0001c360       ??_GCServerDescArray@@UAEPAXI@Z 0041d360 f i ServerDesc.obj
 0001:0001c380       ?DXUtil_GetDXSDKMediaPathCch@@YAJPADH@Z 0041d380 f   dxutil.obj
 0001:0001c470       ?DXUtil_WriteStringRegKey@@YAJPAUHKEY__@@PAD1@Z 0041d470 f   dxutil.obj
 0001:0001c4b0       ?DXUtil_ReadIntRegKey@@YAJPAUHKEY__@@PADPAKK@Z 0041d4b0 f   dxutil.obj
 0001:0001c510       ?DXUtil_WriteIntRegKey@@YAJPAUHKEY__@@PADK@Z 0041d510 f   dxutil.obj
 0001:0001c540       ?DXUtil_ReadBoolRegKey@@YAJPAUHKEY__@@PADPAHH@Z 0041d540 f   dxutil.obj
 0001:0001c5a0       ?DXUtil_WriteBoolRegKey@@YAJPAUHKEY__@@PADH@Z 0041d5a0 f   dxutil.obj
 0001:0001c5d0       ?DXUtil_ReadGuidRegKey@@YAJPAUHKEY__@@PADPAU_GUID@@AAU2@@Z 0041d5d0 f   dxutil.obj
 0001:0001c640       ?DXUtil_WriteGuidRegKey@@YAJPAUHKEY__@@PADU_GUID@@@Z 0041d640 f   dxutil.obj
 0001:0001c6a0       ?DXUtil_Timer@@YGMW4TIMER_COMMAND@@@Z 0041d6a0 f   dxutil.obj
 0001:0001ca70       __tcsncpy                  0041da70 f i dxutil.obj
 0001:0001ca80       __tcsrchr                  0041da80 f i dxutil.obj
 0001:0001ca90       ?DXUtil_ConvertAnsiStringToWideCch@@YAJPAGPBDH@Z 0041da90 f   dxutil.obj
 0001:0001cae0       ?DXUtil_ConvertWideStringToAnsiCch@@YAJPADPBGH@Z 0041dae0 f   dxutil.obj
 0001:0001cb30       ?DXUtil_ConvertGenericStringToAnsiCch@@YAJPADPBDH@Z 0041db30 f   dxutil.obj
 0001:0001cb70       ?DXUtil_ConvertGenericStringToWideCch@@YAJPAGPBDH@Z 0041db70 f   dxutil.obj
 0001:0001cba0       ?DXUtil_ConvertAnsiStringToGenericCch@@YAJPADPBDH@Z 0041dba0 f   dxutil.obj
 0001:0001cbe0       ?DXUtil_ConvertWideStringToGenericCch@@YAJPADPBGH@Z 0041dbe0 f   dxutil.obj
 0001:0001cc10       ?DXUtil_LaunchReadme@@YAXPAUHWND__@@PAD@Z 0041dc10 f   dxutil.obj
 0001:0001cf90       ?DXUtil_Trace@@YAXPADZZ    0041df90 f   dxutil.obj
 0001:0001cfa0       ?DXUtil_ConvertStringToGUID@@YAJPBDPAU_GUID@@@Z 0041dfa0 f   dxutil.obj
 0001:0001d060       ?DXUtil_ConvertGUIDToStringCch@@YAJPBU_GUID@@PADH@Z 0041e060 f   dxutil.obj
 0001:0001d0d0       ??0CArrayList@@QAE@W4ArrayListType@@I@Z 0041e0d0 f   dxutil.obj
 0001:0001d100       ??1CArrayList@@QAE@XZ      0041e100 f   dxutil.obj
 0001:0001d110       ?Add@CArrayList@@QAEJPAX@Z 0041e110 f   dxutil.obj
 0001:0001d200       ?Remove@CArrayList@@QAEXI@Z 0041e200 f   dxutil.obj
 0001:0001d240       ?GetPtr@CArrayList@@QAEPAXI@Z 0041e240 f   dxutil.obj
 0001:0001d260       ?Contains@CArrayList@@QAE_NPAX@Z 0041e260 f   dxutil.obj
 0001:0001d2b0       ?DXUtil_ConvertAnsiStringToWideCb@@YAJPAGPBDH@Z 0041e2b0 f   dxutil.obj
 0001:0001d300       ?DXUtil_ConvertWideStringToAnsiCb@@YAJPADPBGH@Z 0041e300 f   dxutil.obj
 0001:0001d350       ?DXUtil_ConvertGenericStringToAnsiCb@@YAJPADPBDH@Z 0041e350 f   dxutil.obj
 0001:0001d390       ?DXUtil_ConvertGenericStringToWideCb@@YAJPAGPBDH@Z 0041e390 f   dxutil.obj
 0001:0001d3d0       ?DXUtil_ConvertAnsiStringToGenericCb@@YAJPADPBDH@Z 0041e3d0 f   dxutil.obj
 0001:0001d410       ?DXUtil_ConvertWideStringToGenericCb@@YAJPADPBGH@Z 0041e410 f   dxutil.obj
 0001:0001d440       ?DXUtil_ConvertGUIDToStringCb@@YAJPBU_GUID@@PADH@Z 0041e440 f   dxutil.obj
 0001:0001d450       ?DXUtil_GetDXSDKMediaPathCb@@YAJPADH@Z 0041e450 f   dxutil.obj
 0001:0001d460       ?DXUtil_FindMediaFileCch@@YAJPADH0@Z 0041e460 f   dxutil.obj
 0001:0001d620       ?DXUtil_ReadStringRegKeyCch@@YAJPAUHKEY__@@PAD1K1@Z 0041e620 f   dxutil.obj
 0001:0001d680       ?DXUtil_ReadStringRegKeyCb@@YAJPAUHKEY__@@PAD1K1@Z 0041e680 f   dxutil.obj
 0001:0001d690       ?DXUtil_FindMediaFileCb@@YAJPADH0@Z 0041e690 f   dxutil.obj
 0001:0001d6a0       ?OUTPUTDEBUGSTRING@@YAXPBDZZ 0041e6a0 f   debug.obj
 0001:0001d710       ?MakeFileNameDate@@YAPBDPBD@Z 0041e710 f   debug.obj
 0001:0001d970       ?DEBUGOUT2@@YAXPBD0@Z      0041e970 f   debug.obj
 0001:0001d9d0       ?FILEOUT@@YAXPBD0ZZ        0041e9d0 f   debug.obj
 0001:0001d9f0       ?WriteLog@@YAXPBDZZ        0041e9f0 f   debug.obj
 0001:0001da10       ?WriteError@@YAXPBDZZ      0041ea10 f   debug.obj
 0001:0001da30       ?Close@CFileIO@@UAEHXZ     0041ea30 f   file.obj
 0001:0001da60       ?Open@CFileIO@@UAEHPBDPAD@Z 0041ea60 f   file.obj
 0001:0001da90       ?Read@CFileIO@@UAEPAXXZ    0041ea90 f   file.obj
 0001:0001daf0       ??0CFileFinder@@QAE@XZ     0041eaf0 f   file.obj
 0001:0001db00       ??1CFileFinder@@QAE@XZ     0041eb00 f   file.obj
 0001:0001db10       ?WildCmp@CFileFinder@@QAEHPBD0@Z 0041eb10 f   file.obj
 0001:0001dbb0       ?FindFirst@CFileFinder@@QAEHPBDPAU_finddata_t@@@Z 0041ebb0 f   file.obj
 0001:0001dbe0       ?FindNext@CFileFinder@@QAEHPAU_finddata_t@@@Z 0041ebe0 f   file.obj
 0001:0001dc00       ?FindClose@CFileFinder@@QAEXXZ 0041ec00 f   file.obj
 0001:0001dc20       ?_mbstowcsz@ATL@@YAHPAGPBDK@Z 0041ec20 f i file.obj
 0001:0001dc70       ?Write@CFileIO@@QAEIPAXII@Z 0041ec70 f i file.obj
 0001:0001dc90       ?PutWideString@CFileIO@@QAEHPBD@Z 0041ec90 f   file.obj
 0001:0001dd30       ?iswhite@@YAHG@Z           0041ed30 f i scanner.obj
 0001:0001dd50       ?isdelim@@YAHG@Z           0041ed50 f i scanner.obj
 0001:0001dd90       ?IsComposibleTh@@YA_NEEH@Z 0041ed90 f   scanner.obj
 0001:0001ddd0       ?CharNextTh@@YAPBDPBD@Z    0041edd0 f   scanner.obj
 0001:0001de40       ?CharNextVt@@YAPBDPBD@Z    0041ee40 f   scanner.obj
 0001:0001dea0       ?CharNextEx@@YAPBDPBDG@Z   0041eea0 f   scanner.obj
 0001:0001def0       ?IsTone@@YAHG@Z            0041eef0 f   scanner.obj
 0001:0001df20       ?ComposeTone@@YAGGH@Z      0041ef20 f   scanner.obj
 0001:0001df60       ?GetTone@@YA_NGPAH0@Z      0041ef60 f   scanner.obj
 0001:0001dfc0       ?ComposeString@@YAXPAG0H@Z 0041efc0 f   scanner.obj
 0001:0001e040       ?DecomposeString@@YAXPAG0H@Z 0041f040 f   scanner.obj
 0001:0001e0c0       ?IsCyrillic@@YAHD@Z        0041f0c0 f   scanner.obj
 0001:0001e0e0       ?WideCharToMultiByteEx@@YAHIKPBGHPADHPBDPAH@Z 0041f0e0 f   scanner.obj
 0001:0001e1e0       ?MultiByteToWideCharEx@@YAHIKPBDHPAGH@Z 0041f1e0 f   scanner.obj
 0001:0001e280       ?Free@CScanner@@QAEXXZ     0041f280 f   scanner.obj
 0001:0001e2b0       ?Read@CScanner@@IAEHPAVCFileIO@@H@Z 0041f2b0 f   scanner.obj
 0001:0001e370       ?SetProg@CScanner@@QAEXPAX@Z 0041f370 f   scanner.obj
 0001:0001e390       ?GetLineNum@CScanner@@UAEHPAX@Z 0041f390 f   scanner.obj
 0001:0001e3c0       ?PutBack@CScanner@@UAEXXZ  0041f3c0 f   scanner.obj
 0001:0001e3f0       ?StringLowercase@?$ChTraitsCRT@D@ATL@@SAPADPAD@Z 0041f3f0 f i scanner.obj
 0001:0001e400       ??0CFileIO@@QAE@XZ         0041f400 f i scanner.obj
 0001:0001e410       ??1CFileIO@@UAE@XZ         0041f410 f i scanner.obj
 0001:0001e420       ?Flush@CFileIO@@UAEHXZ     0041f420 f i scanner.obj
 0001:0001e430       ?GetC@CFileIO@@UAEDXZ      0041f430 f i scanner.obj
 0001:0001e440       ?GetW@CFileIO@@UAEGXZ      0041f440 f i scanner.obj
 0001:0001e450       ?GetDW@CFileIO@@UAEKXZ     0041f450 f i scanner.obj
 0001:0001e470       ?Tell@CFileIO@@UAEJXZ      0041f470 f i scanner.obj
 0001:0001e480       ?Seek@CFileIO@@UAEHJH@Z    0041f480 f i scanner.obj
 0001:0001e4a0       ?Read@CFileIO@@UAEIPAXII@Z 0041f4a0 f i scanner.obj
 0001:0001e4c0       ??_GCFileIO@@UAEPAXI@Z     0041f4c0 f i scanner.obj
 0001:0001e4c0       ??_ECFileIO@@UAEPAXI@Z     0041f4c0 f i scanner.obj
 0001:0001e4f0       ?GetFormattedLength@?$ChTraitsCRT@D@ATL@@SAHPBDPAD@Z 0041f4f0 f i scanner.obj
 0001:0001e500       ?Format@?$ChTraitsCRT@D@ATL@@SAHPADPBD0@Z 0041f500 f i scanner.obj
 0001:0001e510       ?GetLength@CFileIO@@UAEJXZ 0041f510 f i scanner.obj
 0001:0001e530       ?IsEmpty@?$CSimpleStringT@D$0A@@ATL@@QBE_NXZ 0041f530 f i scanner.obj
 0001:0001e540       ??0CScanner@@QAE@H@Z       0041f540 f   scanner.obj
 0001:0001e5b0       ?SetMark@CScanner@@UAEXXZ  0041f5b0 f i scanner.obj
 0001:0001e5c0       ?GoMark@CScanner@@UAEXXZ   0041f5c0 f i scanner.obj
 0001:0001e5d0       ??0CScanner@@QAE@PAXH@Z    0041f5d0 f   scanner.obj
 0001:0001e640       ??1CScanner@@UAE@XZ        0041f640 f   scanner.obj
 0001:0001e6b0       ?GetInt64@CScanner@@QAE_JH@Z 0041f6b0 f   scanner.obj
 0001:0001e780       ?GetFloat@CScanner@@QAEMH@Z 0041f780 f   scanner.obj
 0001:0001e820       ??_GCScanner@@UAEPAXI@Z    0041f820 f i scanner.obj
 0001:0001e820       ??_ECScanner@@UAEPAXI@Z    0041f820 f i scanner.obj
 0001:0001e840       ?MakeLower@?$CStringT@DV?$StrTraitMFC@DV?$ChTraitsCRT@D@ATL@@@@@ATL@@QAEAAV12@XZ 0041f840 f i scanner.obj
 0001:0001e8a0       ?FormatV@?$CStringT@DV?$StrTraitMFC@DV?$ChTraitsCRT@D@ATL@@@@@ATL@@QAEXPBDPAD@Z 0041f8a0 f i scanner.obj
 0001:0001e920       ?GetNumber@CScanner@@QAEHH@Z 0041f920 f   scanner.obj
 0001:0001ea70       ?GetHex@CScanner@@QAEKH@Z  0041fa70 f   scanner.obj
 0001:0001eb20       ?GetSerialNumber@CScanner@@QAEKH@Z 0041fb20 f   scanner.obj
 0001:0001eb30       ?Format@?$CStringT@DV?$StrTraitMFC@DV?$ChTraitsCRT@D@ATL@@@@@ATL@@QAAXPBDZZ 0041fb30 f i scanner.obj
 0001:0001eb50       ?GetLastFull@CScanner@@QAEXXZ 0041fb50 f   scanner.obj
 0001:0001ec00       ?GetToken@CScanner@@UAEHH@Z 0041fc00 f   scanner.obj
 0001:0001f300       ?Load@CScanner@@QAEHPBDH@Z 00420300 f   scanner.obj
 0001:0001f440       ?Load_FileIO@CScanner@@QAEHPBDH@Z 00420440 f   scanner.obj
 0001:0001f580       ?GetTime@CTimer@@QAENXZ    00420580 f   timer.obj
 0001:0001f5a0       ?Set@CTimer@@QAEXMH@Z      004205a0 f   timer.obj
 0001:0001f5e0       ?Reset@CTimer@@UAEXXZ      004205e0 f   timer.obj
 0001:0001f620       ?Over@CTimer@@UAEHXZ       00420620 f   timer.obj
 0001:0001f680       ?GetLeftTime@CTimer@@QAENXZ 00420680 f   timer.obj
 0001:0001f6b0       ?GetInterval@CTimer@@QAEMXZ 004206b0 f   timer.obj
 0001:0001f6c0       ??RCTimer@@QAEXXZ          004206c0 f   timer.obj
 0001:0001f6d0       ??RCTimer@@QAEXN@Z         004206d0 f   timer.obj
 0001:0001f720       ?GetSunPercent@CGameTimer@@QAEHXZ 00420720 f   timer.obj
 0001:0001f7a0       ?GetMoonPercent@CGameTimer@@QAEHXZ 004207a0 f   timer.obj
 0001:0001f7b0       ??1CGameTimer@@QAE@XZ      004207b0 f   timer.obj
 0001:0001f7c0       ?SetCurrentTime@CGameTimer@@QAEXN@Z 004207c0 f   timer.obj
 0001:0001f7f0       ?GetTickCount@CGameTimer@@QAENXZ 004207f0 f   timer.obj
 0001:0001f820       ?SetCurrentTime@CGameTimer@@QAEXHH@Z 00420820 f   timer.obj
 0001:0001f860       ?Compute@CGameTimer@@QAEXXZ 00420860 f   timer.obj
 0001:0001f8d0       ?SetTime@CGameTimer@@QAEXHHHH@Z 004208d0 f   timer.obj
 0001:0001f8f0       ?Set@CSkipTimer@@QAEXM@Z   004208f0 f   timer.obj
 0001:0001f930       ?Over@CSkipTimer@@UAEHXZ   00420930 f   timer.obj
 0001:0001f9a0       ?IsNeedSkip@CSkipTimer@@QAEHXZ 004209a0 f   timer.obj
 0001:0001f9e0       ?Skip@CSkipTimer@@QAEXXZ   004209e0 f   timer.obj
 0001:0001f9f0       ?IsMaxSkip@CSkipTimer@@QAEHXZ 004209f0 f   timer.obj
 0001:0001fa50       ?IsNight@CDate@@QAEHXZ     00420a50 f   timer.obj
 0001:0001fa70       ?GetDay@CDate@@QAEHXZ      00420a70 f   timer.obj
 0001:0001fa90       ?ComputeShade@CDate@@QAEHH@Z 00420a90 f   timer.obj
 0001:0001faf0       ?GetTimeColor@CDate@@QAEXPAUtagTIMECOLOR@@@Z 00420af0 f   timer.obj
 0001:0001fba0       ?Process@CDate@@QAEXXZ     00420ba0 f   timer.obj
 0001:0001fc20       ?InitFST@@YAXXZ            00420c20 f   timer.obj
 0001:0001fc40       ?SetFrameSkip@@YAXH@Z      00420c40 f   timer.obj
 0001:0001fc70       ?GetFrameSkip@@YAHXZ       00420c70 f   timer.obj
 0001:0001fcc0       ?IsDrawTiming@@YAHXZ       00420cc0 f   timer.obj
 0001:0001fd20       ?SetFST@@YAXXZ             00420d20 f   timer.obj
 0001:0001fdb0       ??1CSkipTimer@@UAE@XZ      00420db0 f i timer.obj
 0001:0001fdc0       ??0CTimer@@QAE@XZ          00420dc0 f   timer.obj
 0001:0001fe00       ??0CTimer@@QAE@M@Z         00420e00 f   timer.obj
 0001:0001fe40       ??0CTimer@@QAE@MH@Z        00420e40 f   timer.obj
 0001:0001fe90       ??0CGameTimer@@QAE@XZ      00420e90 f   timer.obj
 0001:0001fee0       ??0CGameTimer@@QAE@N@Z     00420ee0 f   timer.obj
 0001:0001ff30       ??1CDate@@QAE@XZ           00420f30 f   timer.obj
 0001:0001ff40       ??0CSkipTimer@@QAE@XZ      00420f40 f i timer.obj
 0001:0001ff80       ??_ECSkipTimer@@UAEPAXI@Z  00420f80 f i timer.obj
 0001:0001ff80       ??_GCSkipTimer@@UAEPAXI@Z  00420f80 f i timer.obj
 0001:0001ffa0       ??0CDate@@QAE@XZ           00420fa0 f   timer.obj
 0001:00020000       ??0CDate@@QAE@HHHHHHH@Z    00421000 f   timer.obj
 0001:000200a0       ?xRandomF@@YAMM@Z          004210a0 f   xutil.obj
 0001:000200c0       ?xSRand@@YAXK@Z            004210c0 f   xutil.obj
 0001:000200d0       ?Error@@YAPBDPBDZZ         004210d0 f   xutil.obj
 0001:00020190       ?GetFileName@@YAXPBDPAD@Z  00421190 f   xutil.obj
 0001:000201e0       ?GetFileTitle@@YAXPBDPAD@Z 004211e0 f   xutil.obj
 0001:00020220       ?GetFileExt@@YAXPBDPAD@Z   00421220 f   xutil.obj
 0001:00020260       ?GetFilePath@@YAXPBDPAD@Z  00421260 f   xutil.obj
 0001:000202b0       ?StringFind@@YAHPBDH@Z     004212b0 f   xutil.obj
 0001:000202d0       ?MakeEven@@YAXAAJ@Z        004212d0 f   xutil.obj
 0001:000202e0       ?SetLanguageInfo@@YAXHH@Z  004212e0 f   xutil.obj
 0001:00020300       ?GetLanguage@@YAHXZ        00421300 f   xutil.obj
 0001:00020310       ?GetSubLanguage@@YAHXZ     00421310 f   xutil.obj
 0001:00020320       ?SetUse2ndPassWord@@YAXH@Z 00421320 f   xutil.obj
 0001:00020330       ?IsUse2ndPassWord@@YAHXZ   00421330 f   xutil.obj
 0001:00020340       __tcsinc                   00421340 f i xutil.obj
 0001:00020350       ?xRand@@YAKXZ              00421350 f i xutil.obj
 0001:00020370       ?xRandom@@YAKK@Z           00421370 f i xutil.obj
 0001:00020390       ?xRandom@@YAKKK@Z          00421390 f   xutil.obj
 0001:000203d0       ?StringTrimRight@@YAXPAD@Z 004213d0 f   xutil.obj
 0001:00020420       ?Insert@?$CStringT@DV?$StrTraitMFC@DV?$ChTraitsCRT@D@ATL@@@@@ATL@@QAEHHD@Z 00421420 f i xutil.obj
 0001:000204a0       ?GetNumberFormatEx@@YA?AV?$CStringT@DV?$StrTraitMFC@DV?$ChTraitsCRT@D@ATL@@@@@ATL@@PBD@Z 004214a0 f   xutil.obj
 0001:000206a0       ?_AddErrorMsg@@YAXPBD0@Z   004216a0 f   exceptionhandler.obj
 0001:00020750       ?CrashHandlerExceptionFilter@@YGJPAU_EXCEPTION_POINTERS@@@Z 00421750 f   exceptionhandler.obj
 0001:000209b0       ?InitEH@@YAXXZ             004219b0 f   exceptionhandler.obj
 0001:000209e4       _ntohs@4                   004219e4 f   ws2_32:WS2_32.dll
 0001:000209ea       _htons@4                   004219ea f   ws2_32:WS2_32.dll
 0001:000209f0       _closesocket@4             004219f0 f   ws2_32:WS2_32.dll
 0001:000209f6       _shutdown@8                004219f6 f   ws2_32:WS2_32.dll
 0001:000209fc       _WSASetLastError@4         004219fc f   ws2_32:WS2_32.dll
 0001:00020a02       _WSAGetLastError@0         00421a02 f   ws2_32:WS2_32.dll
 0001:00020a08       _connect@12                00421a08 f   ws2_32:WS2_32.dll
 0001:00020a0e       _gethostbyname@4           00421a0e f   ws2_32:WS2_32.dll
 0001:00020a14       _inet_addr@4               00421a14 f   ws2_32:WS2_32.dll
 0001:00020a1a       _WSARecv@28                00421a1a f   ws2_32:WS2_32.dll
 0001:00020a20       _getpeername@12            00421a20 f   ws2_32:WS2_32.dll
 0001:00020a26       _WSASend@28                00421a26 f   ws2_32:WS2_32.dll
 0001:00020a2c       _WSACloseEvent@4           00421a2c f   ws2_32:WS2_32.dll
 0001:00020a32       _WSACreateEvent@0          00421a32 f   ws2_32:WS2_32.dll
 0001:00020a38       _WSAStartup@8              00421a38 f   ws2_32:WS2_32.dll
 0001:00020a3e       _socket@12                 00421a3e f   ws2_32:WS2_32.dll
 0001:00020a44       _WSACleanup@0              00421a44 f   ws2_32:WS2_32.dll
 0001:00020a4a       _WSAResetEvent@4           00421a4a f   ws2_32:WS2_32.dll
 0001:00020a50       _WSAWaitForMultipleEvents@20 00421a50 f   ws2_32:WS2_32.dll
 0001:00020a56       _WSASetEvent@4             00421a56 f   ws2_32:WS2_32.dll
 0001:00020a5c       _setsockopt@20             00421a5c f   ws2_32:WS2_32.dll
 0001:00020a62       _listen@8                  00421a62 f   ws2_32:WS2_32.dll
 0001:00020a68       _WSAEventSelect@12         00421a68 f   ws2_32:WS2_32.dll
 0001:00020a6e       _WSAAccept@20              00421a6e f   ws2_32:WS2_32.dll
 0001:00020a74       _WSAEnumNetworkEvents@12   00421a74 f   ws2_32:WS2_32.dll
 0001:00020a7a       _gethostname@8             00421a7a f   ws2_32:WS2_32.dll
 0001:00020a80       _bind@12                   00421a80 f   ws2_32:WS2_32.dll
 0001:00020a86       _htonl@4                   00421a86 f   ws2_32:WS2_32.dll
 0001:00020a8c       _WSASocketA@24             00421a8c f   ws2_32:WS2_32.dll
 0001:00020a92       _timeGetTime@0             00421a92 f   winmm:WINMM.dll
 0001:00020a98       _InterlockedExchange@8     00421a98 f   kernel32:KERNEL32.dll
 0001:00020a9e       _GetACP@0                  00421a9e f   kernel32:KERNEL32.dll
 0001:00020aa4       _GetLocaleInfoA@16         00421aa4 f   kernel32:KERNEL32.dll
 0001:00020aaa       _GetThreadLocale@0         00421aaa f   kernel32:KERNEL32.dll
 0001:00020ab0       _GetVersionExA@4           00421ab0 f   kernel32:KERNEL32.dll
 0001:00020ab6       _SizeofResource@8          00421ab6 f   kernel32:KERNEL32.dll
 0001:00020abc       _LockResource@4            00421abc f   kernel32:KERNEL32.dll
 0001:00020ac2       _LoadResource@8            00421ac2 f   kernel32:KERNEL32.dll
 0001:00020ac8       _FindResourceA@12          00421ac8 f   kernel32:KERNEL32.dll
 0001:00020ace       _WideCharToMultiByte@32    00421ace f   kernel32:KERNEL32.dll
 0001:00020ad4       _EnterCriticalSection@4    00421ad4 f   kernel32:KERNEL32.dll
 0001:00020ada       _LeaveCriticalSection@4    00421ada f   kernel32:KERNEL32.dll
 0001:00020ae0       _InitializeCriticalSection@4 00421ae0 f   kernel32:KERNEL32.dll
 0001:00020ae6       _DeleteCriticalSection@4   00421ae6 f   kernel32:KERNEL32.dll
 0001:00020aec       _GetTickCount@0            00421aec f   kernel32:KERNEL32.dll
 0001:00020af2       _InterlockedIncrement@4    00421af2 f   kernel32:KERNEL32.dll
 0001:00020af8       _MultiByteToWideChar@24    00421af8 f   kernel32:KERNEL32.dll
 0001:00020afe       _GetLastError@0            00421afe f   kernel32:KERNEL32.dll
 0001:00020b04       _GetVersion@0              00421b04 f   kernel32:KERNEL32.dll
 0001:00020b0a       _lstrcmpiA@8               00421b0a f   kernel32:KERNEL32.dll
 0001:00020b10       _lstrlenW@4                00421b10 f   kernel32:KERNEL32.dll
 0001:00020b16       _lstrcmpiW@8               00421b16 f   kernel32:KERNEL32.dll
 0001:00020b1c       _lstrlenA@4                00421b1c f   kernel32:KERNEL32.dll
 0001:00020b22       _CompareStringA@24         00421b22 f   kernel32:KERNEL32.dll
 0001:00020b28       _CompareStringW@24         00421b28 f   kernel32:KERNEL32.dll
 0001:00020b2e       _GetEnvironmentVariableA@12 00421b2e f   kernel32:KERNEL32.dll
 0001:00020b34       _GetEnvironmentVariableW@12 00421b34 f   kernel32:KERNEL32.dll
 0001:00020b3a       _GetStringTypeExA@20       00421b3a f   kernel32:KERNEL32.dll
 0001:00020b40       _GetStringTypeExW@20       00421b40 f   kernel32:KERNEL32.dll
 0001:00020b46       _CloseHandle@4             00421b46 f   kernel32:KERNEL32.dll
 0001:00020b4c       _WaitForSingleObject@8     00421b4c f   kernel32:KERNEL32.dll
 0001:00020b52       _TerminateProcess@8        00421b52 f   kernel32:KERNEL32.dll
 0001:00020b58       _GetExitCodeProcess@8      00421b58 f   kernel32:KERNEL32.dll
 0001:00020b5e       _OpenProcess@12            00421b5e f   kernel32:KERNEL32.dll
 0001:00020b64       _Process32Next@8           00421b64 f   kernel32:KERNEL32.dll
 0001:00020b6a       _Process32First@8          00421b6a f   kernel32:KERNEL32.dll
 0001:00020b70       _CreateToolhelp32Snapshot@8 00421b70 f   kernel32:KERNEL32.dll
 0001:00020b76       _IsDBCSLeadByte@4          00421b76 f   kernel32:KERNEL32.dll
 0001:00020b7c       _VirtualAlloc@16           00421b7c f   kernel32:KERNEL32.dll
 0001:00020b82       _InitializeCriticalSectionAndSpinCount@8 00421b82 f   kernel32:KERNEL32.dll
 0001:00020b88       _InterlockedDecrement@4    00421b88 f   kernel32:KERNEL32.dll
 0001:00020b8e       _SetEvent@4                00421b8e f   kernel32:KERNEL32.dll
 0001:00020b94       _WaitForMultipleObjects@16 00421b94 f   kernel32:KERNEL32.dll
 0001:00020b9a       _SetThreadPriority@8       00421b9a f   kernel32:KERNEL32.dll
 0001:00020ba0       _CreateEventA@16           00421ba0 f   kernel32:KERNEL32.dll
 0001:00020ba6       _VirtualFree@12            00421ba6 f   kernel32:KERNEL32.dll
 0001:00020bac       _GetSystemInfo@4           00421bac f   kernel32:KERNEL32.dll
 0001:00020bb2       _GetQueuedCompletionStatus@20 00421bb2 f   kernel32:KERNEL32.dll
 0001:00020bb8       _GetOverlappedResult@16    00421bb8 f   kernel32:KERNEL32.dll
 0001:00020bbe       _PostQueuedCompletionStatus@16 00421bbe f   kernel32:KERNEL32.dll
 0001:00020bc4       _CreateIoCompletionPort@16 00421bc4 f   kernel32:KERNEL32.dll
 0001:00020bca       _HeapDestroy@4             00421bca f   kernel32:KERNEL32.dll
 0001:00020bd0       _HeapAlloc@12              00421bd0 f   kernel32:KERNEL32.dll
 0001:00020bd6       _HeapFree@12               00421bd6 f   kernel32:KERNEL32.dll
 0001:00020bdc       _HeapReAlloc@16            00421bdc f   kernel32:KERNEL32.dll
 0001:00020be2       _HeapCreate@12             00421be2 f   kernel32:KERNEL32.dll
 0001:00020be8       _lstrcpyA@8                00421be8 f   kernel32:KERNEL32.dll
 0001:00020bee       _QueryPerformanceCounter@4 00421bee f   kernel32:KERNEL32.dll
 0001:00020bf4       _QueryPerformanceFrequency@4 00421bf4 f   kernel32:KERNEL32.dll
 0001:00020bfa       _FreeLibrary@4             00421bfa f   kernel32:KERNEL32.dll
 0001:00020c00       _GetProcAddress@8          00421c00 f   kernel32:KERNEL32.dll
 0001:00020c06       _LoadLibraryA@4            00421c06 f   kernel32:KERNEL32.dll
 0001:00020c0c       _lstrcatA@8                00421c0c f   kernel32:KERNEL32.dll
 0001:00020c12       _GetModuleFileNameA@12     00421c12 f   kernel32:KERNEL32.dll
 0001:00020c18       _GetFileAttributesA@4      00421c18 f   kernel32:KERNEL32.dll
 0001:00020c1e       _CreateFileA@28            00421c1e f   kernel32:KERNEL32.dll
 0001:00020c24       _lstrcpynA@12              00421c24 f   kernel32:KERNEL32.dll
 0001:00020c2a       _GetFullPathNameA@16       00421c2a f   kernel32:KERNEL32.dll
 0001:00020c30       _OutputDebugStringA@4      00421c30 f   kernel32:KERNEL32.dll
 0001:00020c36       _GetLocalTime@4            00421c36 f   kernel32:KERNEL32.dll
 0001:00020c3c       _SetUnhandledExceptionFilter@4 00421c3c f   kernel32:KERNEL32.dll
 0001:00020c42       _SetErrorMode@4            00421c42 f   kernel32:KERNEL32.dll
 0001:00020c48       _LoadStringA@16            00421c48 f   user32:USER32.dll
 0001:00020c4e       _DestroyWindow@4           00421c4e f   user32:USER32.dll
 0001:00020c54       _DefWindowProcA@16         00421c54 f   user32:USER32.dll
 0001:00020c5a       _PostQuitMessage@4         00421c5a f   user32:USER32.dll
 0001:00020c60       _KillTimer@8               00421c60 f   user32:USER32.dll
 0001:00020c66       _EndPaint@8                00421c66 f   user32:USER32.dll
 0001:00020c6c       _BeginPaint@8              00421c6c f   user32:USER32.dll
 0001:00020c72       _RegisterClassExA@4        00421c72 f   user32:USER32.dll
 0001:00020c78       _LoadCursorA@8             00421c78 f   user32:USER32.dll
 0001:00020c7e       _LoadIconA@8               00421c7e f   user32:USER32.dll
 0001:00020c84       _UpdateWindow@4            00421c84 f   user32:USER32.dll
 0001:00020c8a       _ShowWindow@8              00421c8a f   user32:USER32.dll
 0001:00020c90       _SetWindowPos@28           00421c90 f   user32:USER32.dll
 0001:00020c96       _SetTimer@16               00421c96 f   user32:USER32.dll
 0001:00020c9c       _CreateWindowExA@48        00421c9c f   user32:USER32.dll
 0001:00020ca2       _DispatchMessageA@4        00421ca2 f   user32:USER32.dll
 0001:00020ca8       _TranslateMessage@4        00421ca8 f   user32:USER32.dll
 0001:00020cae       _GetMessageA@16            00421cae f   user32:USER32.dll
 0001:00020cb4       _CharLowerA@4              00421cb4 f   user32:USER32.dll
 0001:00020cba       _CharLowerW@4              00421cba f   user32:USER32.dll
 0001:00020cc0       _CharUpperA@4              00421cc0 f   user32:USER32.dll
 0001:00020cc6       _CharUpperW@4              00421cc6 f   user32:USER32.dll
 0001:00020ccc       _CharNextA@4               00421ccc f   user32:USER32.dll
 0001:00020cd2       _InvalidateRect@12         00421cd2 f   user32:USER32.dll
 0001:00020cd8       _SetRect@20                00421cd8 f   user32:USER32.dll
 0001:00020cde       _MessageBoxA@16            00421cde f   user32:USER32.dll
 0001:00020ce4       _CharNextExA@12            00421ce4 f   user32:USER32.dll
 0001:00020cea       _CreateFontA@56            00421cea f   gdi32:GDI32.dll
 0001:00020cf0       _TextOutA@20               00421cf0 f   gdi32:GDI32.dll
 0001:00020cf6       _SetTextColor@8            00421cf6 f   gdi32:GDI32.dll
 0001:00020cfc       _SetBkMode@8               00421cfc f   gdi32:GDI32.dll
 0001:00020d02       _DeleteObject@4            00421d02 f   gdi32:GDI32.dll
 0001:00020d08       _SetBkColor@8              00421d08 f   gdi32:GDI32.dll
 0001:00020d0e       _SelectObject@8            00421d0e f   gdi32:GDI32.dll
 0001:00020d14       _RegCloseKey@4             00421d14 f   advapi32:ADVAPI32.dll
 0001:00020d1a       _RegQueryValueExA@24       00421d1a f   advapi32:ADVAPI32.dll
 0001:00020d20       _RegOpenKeyExA@20          00421d20 f   advapi32:ADVAPI32.dll
 0001:00020d26       _RegSetValueExA@24         00421d26 f   advapi32:ADVAPI32.dll
 0001:00020d2c       _GetNextStackTraceString@8 00421d2c f   neuzd:NeuzD.dll
 0001:00020d32       _GetFirstStackTraceString@8 00421d32 f   neuzd:NeuzD.dll
 0001:00020d38       _GetRegisterString@4       00421d38 f   neuzd:NeuzD.dll
 0001:00020d3e       _GetFaultReason@4          00421d3e f   neuzd:NeuzD.dll
 0001:00020d44       ?AtlA2WHelper@@YGPA_WPA_WPBDHI@Z 00421d44 f i nafxcw:olemisc.obj
 0001:00020d7b       ?AtlW2AHelper@@YGPADPADPB_WHI@Z 00421d7b f i nafxcw:olemisc.obj
 0001:00020db3       ?ocslen@@YAHPB_W@Z         00421db3 f i nafxcw:olemisc.obj
 0001:00020dbe       ?ocscpy@@YAPA_WPA_WPB_W@Z  00421dbe f i nafxcw:olemisc.obj
 0001:00020dde       ??1CObject@@UAE@XZ         00421dde f i nafxcw:olemisc.obj
 0001:00020ddf       ??3CObject@@SGXPAX@Z       00421ddf f i nafxcw:olemisc.obj
 0001:00020dec       ??2CObject@@SGPAXI@Z       00421dec f i nafxcw:olemisc.obj
 0001:00020df9       ??1CException@@UAE@XZ      00421df9 f i nafxcw:olemisc.obj
 0001:00020dfa       ?AfxGetAppName@@YGPBDXZ    00421dfa f i nafxcw:olemisc.obj
 0001:00020e03       ??0COleException@@QAE@XZ   00421e03 f i nafxcw:olemisc.obj
 0001:00020e19       ?Serialize@CObject@@UAEXAAVCArchive@@@Z 00421e19 f i nafxcw:olemisc.obj
 0001:00020e1c       ?GetBaseTypeLength@?$ChTraitsCRT@D@ATL@@SAHPB_WH@Z 00421e1c f i nafxcw:olemisc.obj
 0001:00020e39       ?ConvertToBaseType@?$ChTraitsCRT@D@ATL@@SAXPADHPB_WH@Z 00421e39 f i nafxcw:olemisc.obj
 0001:00020e5c       ?AtlDevModeA2W@@YAPAU_devicemodeW@@PAU1@PBU_devicemodeA@@@Z 00421e5c f i nafxcw:olemisc.obj
 0001:00020efa       ?AtlDevModeW2A@@YGPAU_devicemodeA@@PAU1@PBU_devicemodeW@@@Z 00421efa f i nafxcw:olemisc.obj
 0001:00020f9a       ??_GCOleException@@UAEPAXI@Z 00421f9a f i nafxcw:olemisc.obj
 0001:00020f9a       ??_ECOleException@@UAEPAXI@Z 00421f9a f i nafxcw:olemisc.obj
 0001:00020fb6       ??1COleException@@UAE@XZ   00421fb6 f i nafxcw:olemisc.obj
 0001:00020fbd       ?AppendChar@?$CSimpleStringT@D$0A@@ATL@@QAEXD@Z 00421fbd f i nafxcw:olemisc.obj
 0001:00020fe5       ?Append@?$CSimpleStringT@D$0A@@ATL@@QAEXPBDH@Z 00421fe5 f i nafxcw:olemisc.obj
 0001:00021031       ??Y?$CSimpleStringT@D$0A@@ATL@@QAEAAV01@D@Z 00422031 f i nafxcw:olemisc.obj
 0001:00021043       ??Y?$CStringT@DV?$StrTraitMFC@DV?$ChTraitsCRT@D@ATL@@@@@ATL@@QAEAAV01@D@Z 00422043 f i nafxcw:olemisc.obj
 0001:00021055       ??0CObject@@IAE@XZ         00422055 f i nafxcw:except.obj
 0001:00021058       ??1CSimpleException@@UAE@XZ 00422058 f i nafxcw:except.obj
 0001:00021059       ??1CMemoryException@@UAE@XZ 00422059 f i nafxcw:except.obj
 0001:00021060       ??1CNotSupportedException@@UAE@XZ 00422060 f i nafxcw:except.obj
 0001:00021067       ??1CInvalidArgException@@UAE@XZ 00422067 f i nafxcw:except.obj
 0001:0002106e       ??0CSimpleException@@QAE@H@Z 0042206e f i nafxcw:except.obj
 0001:00021086       ??_GCMemoryException@@UAEPAXI@Z 00422086 f i nafxcw:except.obj
 0001:00021086       ??_ECMemoryException@@UAEPAXI@Z 00422086 f i nafxcw:except.obj
 0001:000210a2       ??0CMemoryException@@QAE@HI@Z 004220a2 f i nafxcw:except.obj
 0001:000210c4       ??_ECNotSupportedException@@UAEPAXI@Z 004220c4 f i nafxcw:except.obj
 0001:000210c4       ??_GCNotSupportedException@@UAEPAXI@Z 004220c4 f i nafxcw:except.obj
 0001:000210e0       ??0CNotSupportedException@@QAE@HI@Z 004220e0 f i nafxcw:except.obj
 0001:00021102       ??_ECInvalidArgException@@UAEPAXI@Z 00422102 f i nafxcw:except.obj
 0001:00021102       ??_GCInvalidArgException@@UAEPAXI@Z 00422102 f i nafxcw:except.obj
 0001:0002111e       ??0CInvalidArgException@@QAE@HI@Z 0042211e f i nafxcw:except.obj
 0001:00021140       __tcschr                   00422140 f i nafxcw:winstr.obj
 0001:00021145       ?AfxGetResourceHandle@@YGPAUHINSTANCE__@@XZ 00422145 f i nafxcw:winstr.obj
 0001:0002114e       ?ReleaseBuffer@?$CSimpleStringT@D$0A@@ATL@@QAEXH@Z 0042214e f i nafxcw:winstr.obj
 0001:00021173       ?GetBufferSetLength@?$CSimpleStringT@D$0A@@ATL@@QAEPADH@Z 00422173 f i nafxcw:winstr.obj
 0001:00021194       ??0CNilStringData@ATL@@QAE@XZ 00422194 f i nafxcw:strcore.obj
 0001:000211b0       ?SetManager@CNilStringData@ATL@@QAEXPAUIAtlStringMgr@2@@Z 004221b0 f i nafxcw:strcore.obj
 0001:000211b9       ?GetBaseTypeLength@?$ChTraitsCRT@_W@ATL@@SAHPBD@Z 004221b9 f i nafxcw:strcore.obj
 0001:000211d3       ?ConvertToBaseType@?$ChTraitsCRT@_W@ATL@@SAXPA_WHPBDH@Z 004221d3 f i nafxcw:strcore.obj
 0001:000211f3       ?IsStoring@CArchive@@QBEHXZ 004221f3 f i nafxcw:strcore.obj
 0001:000211fc       ??1CComBSTR@ATL@@QAE@XZ    004221fc f i nafxcw:strcore.obj
 0001:00021205       ?Length@CComBSTR@ATL@@QBEIXZ 00422205 f i nafxcw:strcore.obj
 0001:00021214       ?Copy@CComBSTR@ATL@@QBEPA_WXZ 00422214 f i nafxcw:strcore.obj
 0001:00021231       ??7CComBSTR@ATL@@QBE_NXZ   00422231 f i nafxcw:strcore.obj
 0001:00021239       ??B?$CTempBuffer@_W$0IA@VCCRTAllocator@ATL@@@ATL@@QBEPA_WXZ 00422239 f i nafxcw:strcore.obj
 0001:0002123c       ?GetBaseTypeLength@?$ChTraitsCRT@D@ATL@@SAHPB_W@Z 0042223c f i nafxcw:strcore.obj
 0001:00021258       ?FreeHeap@?$CTempBuffer@_W$0IA@VCCRTAllocator@ATL@@@ATL@@AAEXXZ 00422258 f i nafxcw:strcore.obj
 0001:00021261       ?AllocateHeap@?$CTempBuffer@_W$0IA@VCCRTAllocator@ATL@@@ATL@@AAEXI@Z 00422261 f i nafxcw:strcore.obj
 0001:00021282       ??0CComBSTR@ATL@@QAE@ABV01@@Z 00422282 f i nafxcw:strcore.obj
 0001:000212ad       ??1?$CTempBuffer@_W$0IA@VCCRTAllocator@ATL@@@ATL@@QAE@XZ 004222ad f i nafxcw:strcore.obj
 0001:000212ba       ?AllocateBytes@?$CTempBuffer@_W$0IA@VCCRTAllocator@ATL@@@ATL@@QAEPA_WI@Z 004222ba f i nafxcw:strcore.obj
 0001:000212dd       ?Allocate@?$CTempBuffer@_W$0IA@VCCRTAllocator@ATL@@@ATL@@QAEPA_WI@Z 004222dd f i nafxcw:strcore.obj
 0001:000212ec       ??4?$CStringT@DV?$StrTraitMFC@DV?$ChTraitsCRT@D@ATL@@@@@ATL@@QAEAAV01@PB_W@Z 004222ec f i nafxcw:strcore.obj
 0001:00021336       ?_AtlRaiseException@ATL@@YAXKK@Z 00422336 f i nafxcw:objcore.obj
 0001:00021349       ??0CComCriticalSection@ATL@@QAE@XZ 00422349 f i nafxcw:objcore.obj
 0001:0002135d       ?Init@CComCriticalSection@ATL@@QAEJXZ 0042235d f i nafxcw:objcore.obj
 0001:000213ad       ?Term@CComCriticalSection@ATL@@QAEJXZ 004223ad f i nafxcw:objcore.obj
 0001:000213b7       ?GetModuleInstance@CAtlBaseModule@ATL@@QAEPAUHINSTANCE__@@XZ 004223b7 f i nafxcw:objcore.obj
 0001:000213bb       ?lstrcmpiWFake@ATL@@YGHPB_W0@Z 004223bb f i nafxcw:objcore.obj
 0001:00021437       ?lstrcmpiWThunk@ATL@@YGHPB_W0@Z 00422437 f i nafxcw:objcore.obj
 0001:00021455       ?CharLowerWFake@ATL@@YGPA_WPA_W@Z 00422455 f i nafxcw:objcore.obj
 0001:000214dd       ?CharLowerWThunk@ATL@@YGPA_WPA_W@Z 004224dd f i nafxcw:objcore.obj
 0001:000214fb       ?CharUpperWFake@ATL@@YGPA_WPA_W@Z 004224fb f i nafxcw:objcore.obj
 0001:00021583       ?CharUpperWThunk@ATL@@YGPA_WPA_W@Z 00422583 f i nafxcw:objcore.obj
 0001:000215a1       ?AtlWinModuleInit@ATL@@YGJPAU_ATL_WIN_MODULE70@1@@Z 004225a1 f i nafxcw:objcore.obj
 0001:000215c4       ??1stringdispid@CComTypeInfoHolder@ATL@@QAE@XZ 004225c4 f i nafxcw:objcore.obj
 0001:000215cd       ??0?$CSimpleArray@GV?$CSimpleArrayEqualHelper@G@ATL@@@ATL@@QAE@XZ 004225cd f i nafxcw:objcore.obj
 0001:000215da       ?GetSize@?$CSimpleArray@GV?$CSimpleArrayEqualHelper@G@ATL@@@ATL@@QBEHXZ 004225da f i nafxcw:objcore.obj
 0001:000215de       ?RemoveAll@?$CSimpleArray@GV?$CSimpleArrayEqualHelper@G@ATL@@@ATL@@QAEXXZ 004225de f i nafxcw:objcore.obj
 0001:000215fb       ??A?$CSimpleArray@GV?$CSimpleArrayEqualHelper@G@ATL@@@ATL@@QAEAAGH@Z 004225fb f i nafxcw:objcore.obj
 0001:00021622       ?Init@?$CW2AEX@$0IA@@ATL@@AAEXPB_WI@Z 00422622 f i nafxcw:objcore.obj
 0001:00021688       ?AtlWinModuleTerm@ATL@@YGJPAU_ATL_WIN_MODULE70@1@PAUHINSTANCE__@@@Z 00422688 f i nafxcw:objcore.obj
 0001:000216e8       ??_Estringdispid@CComTypeInfoHolder@ATL@@QAEPAXI@Z 004226e8 f i nafxcw:objcore.obj
 0001:00021733       ??0?$CW2AEX@$0IA@@ATL@@QAE@PB_W@Z 00422733 f i nafxcw:objcore.obj
 0001:00021753       ??1?$CSimpleArray@GV?$CSimpleArrayEqualHelper@G@ATL@@@ATL@@QAE@XZ 00422753 f i nafxcw:objcore.obj
 0001:00021758       ?CompareStringWFake@ATL@@YGHKKPB_WH0H@Z 00422758 f i nafxcw:objcore.obj
 0001:0002185c       ?CompareStringWThunk@ATL@@YGHKKPB_WH0H@Z 0042285c f i nafxcw:objcore.obj
 0001:0002187e       ?Term@CAtlWinModule@ATL@@QAEXXZ 0042287e f i nafxcw:objcore.obj
 0001:0002188b       ??0_ATL_WIN_MODULE70@ATL@@QAE@XZ 0042288b f i nafxcw:objcore.obj
 0001:000218a5       ??1_ATL_WIN_MODULE70@ATL@@QAE@XZ 004228a5 f i nafxcw:objcore.obj
 0001:000218ad       ?GetEnvironmentVariableWFake@ATL@@YGKPB_WPA_WK@Z 004228ad f i nafxcw:objcore.obj
 0001:000219e9       ?GetEnvironmentVariableWThunk@ATL@@YGKPB_WPA_WK@Z 004229e9 f i nafxcw:objcore.obj
 0001:00021a07       ?GetStringTypeExWFake@ATL@@YGHKKPB_WHPAG@Z 00422a07 f i nafxcw:objcore.obj
 0001:00021ae4       ?GetStringTypeExWThunk@ATL@@YGHKKPB_WHPAG@Z 00422ae4 f i nafxcw:objcore.obj
 0001:00021b06       ??0CAtlWinModule@ATL@@QAE@XZ 00422b06 f i nafxcw:objcore.obj
 0001:00021b29       ??1CAtlWinModule@ATL@@QAE@XZ 00422b29 f i nafxcw:objcore.obj
 0001:00021b41       ?AtlAllocTaskWideString@ATL@@YAPA_WPBD@Z 00422b41 f i nafxcw:olecnvrt.obj
 0001:00021b8c       ?AtlAllocTaskAnsiString@ATL@@YAPADPB_W@Z 00422b8c f i nafxcw:olecnvrt.obj
 0001:00021bd9       _IsEqualGUID               00422bd9 f i nafxcw:oleunk.obj
 0001:00021bf1       _==                        00422bf1 f i nafxcw:oleunk.obj
 0001:00021bf6       ??0IUnknown@@QAE@XZ        00422bf6 f i nafxcw:oleunk.obj
 0001:00021bf9       ?InternalAddRef@CCmdTarget@@QAEKXZ 00422bf9 f i nafxcw:oleunk.obj
 0001:00021c04       ??0CPoint@@QAE@XZ          00422c04 f i nafxcw:afxstate.obj
 0001:00021c07       ??0CPoint@@QAE@HH@Z        00422c07 f i nafxcw:afxstate.obj
 0001:00021c19       ??0CSimpleList@@QAE@H@Z    00422c19 f i nafxcw:afxstate.obj
 0001:00021c28       ?Construct@CSimpleList@@QAEXH@Z 00422c28 f i nafxcw:afxstate.obj
 0001:00021c32       ??1CNoTrackObject@@UAE@XZ  00422c32 f i nafxcw:afxstate.obj
 0001:00021c33       ??0CTypeLibCache@@QAE@XZ   00422c33 f i nafxcw:afxstate.obj
 0001:00021c45       ?IsEmpty@CPtrList@@QBEHXZ  00422c45 f i nafxcw:afxstate.obj
 0001:00021c4e       ?GetStartPosition@CMapPtrToPtr@@QBEPAU__POSITION@@XZ 00422c4e f i nafxcw:afxstate.obj
 0001:00021c56       ?AfxGetApp@@YGPAVCWinApp@@XZ 00422c56 f i nafxcw:appui1.obj
 0001:00021c5f       ?AfxGetMainWnd@@YGPAVCWnd@@XZ 00422c5f f i nafxcw:appui1.obj
 0001:00021c72       ?GetSafeHwnd@CWnd@@QBEPAUHWND__@@XZ 00422c72 f i nafxcw:appui1.obj
 0001:00021c7d       ?GetNextPtr@CSimpleList@@QBEPAPAXPAX@Z 00422c7d f i nafxcw:afxtls.obj
 0001:00021c87       ?GetHead@CSimpleList@@QBEPAXXZ 00422c87 f i nafxcw:afxtls.obj
 0001:00021c8a       ??2CThreadSlotData@@SGPAXIPAX@Z 00422c8a f i nafxcw:afxtls.obj
 0001:00021c91       ?AfxCheckError@@YGXJ@Z     00422c91 f   nafxcw:olevar.obj
 0001:00021cae       ?_AfxCompareSafeArrays@@YGHPAUtagSAFEARRAY@@0@Z 00422cae f   nafxcw:olevar.obj
 0001:00021f1a       ?_AfxCreateOneDimArray@@YGXAAUtagVARIANT@@K@Z 00422f1a f   nafxcw:olevar.obj
 0001:00021fc5       ?_AfxCopyBinaryData@@YGXPAUtagSAFEARRAY@@PBXK@Z 00422fc5 f   nafxcw:olevar.obj
 0001:00022000       ??0COleVariant@@QAE@FG@Z   00423000 f   nafxcw:olevar.obj
 0001:00022027       ??0COleVariant@@QAE@JG@Z   00423027 f   nafxcw:olevar.obj
 0001:0002208c       ?ChangeType@COleVariant@@QAEXGPAUtagVARIANT@@@Z 0042308c f   nafxcw:olevar.obj
 0001:000220b7       ?Detach@COleVariant@@QAE?AUtagVARIANT@@XZ 004230b7 f   nafxcw:olevar.obj
 0001:000220de       ??8COleVariant@@QBEHABUtagVARIANT@@@Z 004230de f   nafxcw:olevar.obj
 0001:00022222       ??4COleVariant@@QAEABV0@ABUtagVARIANT@@@Z 00423222 f   nafxcw:olevar.obj
 0001:0002223c       ??4COleVariant@@QAEABV0@PBUtagVARIANT@@@Z 0042323c f   nafxcw:olevar.obj
 0001:00022256       ??4COleVariant@@QAEABV0@ABV0@@Z 00423256 f   nafxcw:olevar.obj
 0001:00022270       ??4COleVariant@@QAEABV0@ABVCLongBinary@@@Z 00423270 f   nafxcw:olevar.obj
 0001:000222b3       ?AfxVariantInit@@YGXPAUtagVARIANT@@@Z 004232b3 f   nafxcw:olevar.obj
 0001:000222c6       ??$CopyElements@VCOleVariant@@@@YGXPAVCOleVariant@@PBV0@H@Z 004232c6 f   nafxcw:olevar.obj
 0001:000222ec       ??4COleCurrency@@QAEABV0@ABV0@@Z 004232ec f   nafxcw:olevar.obj
 0001:00022305       ??MCOleCurrency@@QBEHABV0@@Z 00423305 f   nafxcw:olevar.obj
 0001:00022323       ??OCOleCurrency@@QBEHABV0@@Z 00423323 f   nafxcw:olevar.obj
 0001:00022341       ??NCOleCurrency@@QBEHABV0@@Z 00423341 f   nafxcw:olevar.obj
 0001:0002235f       ??PCOleCurrency@@QBEHABV0@@Z 0042335f f   nafxcw:olevar.obj
 0001:0002237d       ?Detach@COleSafeArray@@QAE?AUtagVARIANT@@XZ 0042337d f   nafxcw:olevar.obj
 0001:000223a4       ??4COleSafeArray@@QAEAAV0@ABV0@@Z 004233a4 f   nafxcw:olevar.obj
 0001:000223ca       ??4COleSafeArray@@QAEAAV0@ABUtagVARIANT@@@Z 004233ca f   nafxcw:olevar.obj
 0001:000223f0       ??4COleSafeArray@@QAEAAV0@PBUtagVARIANT@@@Z 004233f0 f   nafxcw:olevar.obj
 0001:00022416       ??4COleSafeArray@@QAEAAV0@ABVCOleVariant@@@Z 00423416 f   nafxcw:olevar.obj
 0001:0002243c       ??8COleSafeArray@@QBEHABUtagSAFEARRAY@@@Z 0042343c f   nafxcw:olevar.obj
 0001:0002244b       ??8COleSafeArray@@QBEHPBUtagSAFEARRAY@@@Z 0042344b f   nafxcw:olevar.obj
 0001:0002245a       ??8COleSafeArray@@QBEHABV0@@Z 0042345a f   nafxcw:olevar.obj
 0001:00022478       ??8COleSafeArray@@QBEHABUtagVARIANT@@@Z 00423478 f   nafxcw:olevar.obj
 0001:00022496       ??8COleSafeArray@@QBEHPBUtagVARIANT@@@Z 00423496 f   nafxcw:olevar.obj
 0001:000224b4       ??8COleSafeArray@@QBEHABVCOleVariant@@@Z 004234b4 f   nafxcw:olevar.obj
 0001:000224d2       ?AccessData@COleSafeArray@@QAEXPAPAX@Z 004234d2 f   nafxcw:olevar.obj
 0001:000224e8       ?UnaccessData@COleSafeArray@@QAEXXZ 004234e8 f   nafxcw:olevar.obj
 0001:000224f8       ?AllocData@COleSafeArray@@QAEXXZ 004234f8 f   nafxcw:olevar.obj
 0001:00022508       ?AllocDescriptor@COleSafeArray@@QAEXK@Z 00423508 f   nafxcw:olevar.obj
 0001:0002251f       ?Copy@COleSafeArray@@QAEXPAPAUtagSAFEARRAY@@@Z 0042351f f   nafxcw:olevar.obj
 0001:00022535       ?GetLBound@COleSafeArray@@QAEXKPAJ@Z 00423535 f   nafxcw:olevar.obj
 0001:0002254f       ?GetUBound@COleSafeArray@@QAEXKPAJ@Z 0042354f f   nafxcw:olevar.obj
 0001:00022569       ?GetElement@COleSafeArray@@QAEXPAJPAX@Z 00423569 f   nafxcw:olevar.obj
 0001:00022583       ?PtrOfIndex@COleSafeArray@@QAEXPAJPAPAX@Z 00423583 f   nafxcw:olevar.obj
 0001:0002259d       ?PutElement@COleSafeArray@@QAEXPAJPAX@Z 0042359d f   nafxcw:olevar.obj
 0001:000225b7       ?Redim@COleSafeArray@@QAEXPAUtagSAFEARRAYBOUND@@@Z 004235b7 f   nafxcw:olevar.obj
 0001:000225cd       ?Lock@COleSafeArray@@QAEXXZ 004235cd f   nafxcw:olevar.obj
 0001:000225dd       ?Unlock@COleSafeArray@@QAEXXZ 004235dd f   nafxcw:olevar.obj
 0001:000225ed       ?Destroy@COleSafeArray@@QAEXXZ 004235ed f   nafxcw:olevar.obj
 0001:000225fd       ?DestroyData@COleSafeArray@@QAEXXZ 004235fd f   nafxcw:olevar.obj
 0001:0002260d       ?DestroyDescriptor@COleSafeArray@@QAEXXZ 0042360d f   nafxcw:olevar.obj
 0001:0002261d       ?AfxSafeArrayInit@@YGXPAVCOleSafeArray@@@Z 0042361d f   nafxcw:olevar.obj
 0001:00022637       ?AllocSysString@?$ChTraitsCRT@D@ATL@@SAPA_WPBDH@Z 00423637 f i nafxcw:olevar.obj
 0001:00022682       ??$HashKey@K@@YGIK@Z       00423682 f i nafxcw:olevar.obj
 0001:0002268c       ?GetSize@CByteArray@@QBEHXZ 0042368c f i nafxcw:olevar.obj
 0001:00022690       ?GetData@CByteArray@@QBEPBEXZ 00423690 f i nafxcw:olevar.obj
 0001:00022694       ?GetData@CByteArray@@QAEPAEXZ 00423694 f i nafxcw:olevar.obj
 0001:00022698       ?IsLoading@CArchive@@QBEHXZ 00423698 f i nafxcw:olevar.obj
 0001:0002269f       ??0CComBSTR@ATL@@QAE@XZ    0042369f f i nafxcw:olevar.obj
 0001:000226a5       ??BCComBSTR@ATL@@QBEPA_WXZ 004236a5 f i nafxcw:olevar.obj
 0001:000226a8       ??ICComBSTR@ATL@@QAEPAPA_WXZ 004236a8 f i nafxcw:olevar.obj
 0001:000226ab       ?Attach@CComBSTR@ATL@@QAEXPA_W@Z 004236ab f i nafxcw:olevar.obj
 0001:000226c7       ?Detach@CComBSTR@ATL@@QAEPA_WXZ 004236c7 f i nafxcw:olevar.obj
 0001:000226cd       ?Empty@CComBSTR@ATL@@QAEXXZ 004236cd f i nafxcw:olevar.obj
 0001:000226dd       ??0COleDateTime@ATL@@QAE@XZ 004236dd f i nafxcw:olevar.obj
 0001:000226e8       ?GetStatus@COleDateTime@ATL@@QBE?AW4DateTimeStatus@12@XZ 004236e8 f i nafxcw:olevar.obj
 0001:000226ec       ?GetAsSystemTime@COleDateTime@ATL@@QBE_NAAU_SYSTEMTIME@@@Z 004236ec f i nafxcw:olevar.obj
 0001:00022711       ??BCOleDateTime@ATL@@QBENXZ 00423711 f i nafxcw:olevar.obj
 0001:00022714       ?SetDateTime@COleDateTime@ATL@@QAEHHHHHHH@Z 00423714 f i nafxcw:olevar.obj
 0001:000227d5       ??0COleVariant@@QAE@XZ     004237d5 f i nafxcw:olevar.obj
 0001:000227e2       ??1COleVariant@@QAE@XZ     004237e2 f i nafxcw:olevar.obj
 0001:000227ea       ?Clear@COleVariant@@QAEXXZ 004237ea f i nafxcw:olevar.obj
 0001:000227f2       ??BCOleVariant@@QAEPAUtagVARIANT@@XZ 004237f2 f i nafxcw:olevar.obj
 0001:000227f5       ??0COleCurrency@@QAE@ABV0@@Z 004237f5 f i nafxcw:olevar.obj
 0001:0002280e       ?GetStatus@COleCurrency@@QBE?AW4CurrencyStatus@1@XZ 0042380e f i nafxcw:olevar.obj
 0001:00022812       ?SetStatus@COleCurrency@@QAEXW4CurrencyStatus@1@@Z 00423812 f i nafxcw:olevar.obj
 0001:0002281c       ?Clear@COleSafeArray@@QAEXXZ 0042381c f i nafxcw:olevar.obj
 0001:00022824       ?GetDim@COleSafeArray@@QAEKXZ 00423824 f i nafxcw:olevar.obj
 0001:0002282e       ?GetElemSize@COleSafeArray@@QAEKXZ 0042382e f i nafxcw:olevar.obj
 0001:00022838       ??0COleVariant@@QAE@ABUtagVARIANT@@@Z 00423838 f   nafxcw:olevar.obj
 0001:00022858       ??0COleVariant@@QAE@PBUtagVARIANT@@@Z 00423858 f   nafxcw:olevar.obj
 0001:00022878       ??0COleVariant@@QAE@ABV0@@Z 00423878 f   nafxcw:olevar.obj
 0001:00022898       ??0COleVariant@@QAE@PBDG@Z 00423898 f   nafxcw:olevar.obj
 0001:0002290f       ?SetString@COleVariant@@QAEXPBDG@Z 0042390f f   nafxcw:olevar.obj
 0001:0002298b       ?Attach@COleVariant@@QAEXAAUtagVARIANT@@@Z 0042398b f   nafxcw:olevar.obj
 0001:000229af       ?GetByteArrayFromVariantArray@COleVariant@@QAEXAAVCByteArray@@@Z 004239af f   nafxcw:olevar.obj
 0001:00022a48       ??4COleVariant@@QAEABV0@QBD@Z 00423a48 f   nafxcw:olevar.obj
 0001:00022ab5       ??4COleVariant@@QAEABV0@ABV?$CStringT@DV?$StrTraitMFC@DV?$ChTraitsCRT@D@ATL@@@@@ATL@@@Z 00423ab5 f   nafxcw:olevar.obj
 0001:00022b24       ??4COleVariant@@QAEABV0@E@Z 00423b24 f   nafxcw:olevar.obj
 0001:00022b46       ??4COleVariant@@QAEABV0@F@Z 00423b46 f   nafxcw:olevar.obj
 0001:00022b7f       ??4COleVariant@@QAEABV0@J@Z 00423b7f f   nafxcw:olevar.obj
 0001:00022bbe       ??4COleVariant@@QAEABV0@ABVCOleCurrency@@@Z 00423bbe f   nafxcw:olevar.obj
 0001:00022be8       ??4COleVariant@@QAEABV0@M@Z 00423be8 f   nafxcw:olevar.obj
 0001:00022c0a       ??4COleVariant@@QAEABV0@N@Z 00423c0a f   nafxcw:olevar.obj
 0001:00022c2c       ??4COleVariant@@QAEABV0@ABVCOleDateTime@ATL@@@Z 00423c2c f   nafxcw:olevar.obj
 0001:00022c50       ??4COleVariant@@QAEABV0@ABVCByteArray@@@Z 00423c50 f   nafxcw:olevar.obj
 0001:00022c84       ??$HashKey@ABUtagVARIANT@@@@YGIABUtagVARIANT@@@Z 00423c84 f   nafxcw:olevar.obj
 0001:00022d0c       ??4COleCurrency@@QAEABV0@TtagCY@@@Z 00423d0c f   nafxcw:olevar.obj
 0001:00022d22       ??4COleCurrency@@QAEABV0@ABUtagVARIANT@@@Z 00423d22 f   nafxcw:olevar.obj
 0001:00022dc0       ??0COleSafeArray@@QAE@ABUtagSAFEARRAY@@G@Z 00423dc0 f   nafxcw:olevar.obj
 0001:00022e06       ??0COleSafeArray@@QAE@PBUtagSAFEARRAY@@G@Z 00423e06 f   nafxcw:olevar.obj
 0001:00022e4c       ??0COleSafeArray@@QAE@ABV0@@Z 00423e4c f   nafxcw:olevar.obj
 0001:00022e7e       ??0COleSafeArray@@QAE@ABUtagVARIANT@@@Z 00423e7e f   nafxcw:olevar.obj
 0001:00022eb0       ??0COleSafeArray@@QAE@ABVCOleVariant@@@Z 00423eb0 f   nafxcw:olevar.obj
 0001:00022ee2       ??0COleSafeArray@@QAE@PBUtagVARIANT@@@Z 00423ee2 f   nafxcw:olevar.obj
 0001:00022f14       ?Attach@COleSafeArray@@QAEXAAUtagVARIANT@@@Z 00423f14 f   nafxcw:olevar.obj
 0001:00022f43       ?GetByteArray@COleSafeArray@@QAEXAAVCByteArray@@@Z 00423f43 f   nafxcw:olevar.obj
 0001:00022fdc       ?GetOneDimSize@COleSafeArray@@QAEKXZ 00423fdc f   nafxcw:olevar.obj
 0001:00023006       ?ResizeOneDim@COleSafeArray@@QAEXK@Z 00424006 f   nafxcw:olevar.obj
 0001:0002303b       ?Create@COleSafeArray@@QAEXGKPAUtagSAFEARRAYBOUND@@@Z 0042403b f   nafxcw:olevar.obj
 0001:000230a5       ??6CArchive@@QAEAAV0@E@Z   004240a5 f i nafxcw:olevar.obj
 0001:000230dd       ??6CArchive@@QAEAAV0@_J@Z  004240dd f i nafxcw:olevar.obj
 0001:0002311f       ??6CArchive@@QAEAAV0@_K@Z  0042411f f i nafxcw:olevar.obj
 0001:00023161       ??6CArchive@@QAEAAV0@G@Z   00424161 f i nafxcw:olevar.obj
 0001:0002319d       ??6CArchive@@QAEAAV0@J@Z   0042419d f i nafxcw:olevar.obj
 0001:000231d8       ??6CArchive@@QAEAAV0@K@Z   004241d8 f i nafxcw:olevar.obj
 0001:00023213       ??6CArchive@@QAEAAV0@M@Z   00424213 f i nafxcw:olevar.obj
 0001:0002324e       ??6CArchive@@QAEAAV0@N@Z   0042424e f i nafxcw:olevar.obj
 0001:00023289       ??5CArchive@@QAEAAV0@AAE@Z 00424289 f i nafxcw:olevar.obj
 0001:000232c8       ??5CArchive@@QAEAAV0@AA_J@Z 004242c8 f i nafxcw:olevar.obj
 0001:00023310       ??5CArchive@@QAEAAV0@AA_K@Z 00424310 f i nafxcw:olevar.obj
 0001:00023358       ??5CArchive@@QAEAAV0@AAG@Z 00424358 f i nafxcw:olevar.obj
 0001:0002339b       ??5CArchive@@QAEAAV0@AAK@Z 0042439b f i nafxcw:olevar.obj
 0001:000233dd       ??5CArchive@@QAEAAV0@AAM@Z 004243dd f i nafxcw:olevar.obj
 0001:0002341f       ??5CArchive@@QAEAAV0@AAN@Z 0042441f f i nafxcw:olevar.obj
 0001:00023461       ??5CArchive@@QAEAAV0@AAJ@Z 00424461 f i nafxcw:olevar.obj
 0001:000234a3       ??0COleCurrency@@QAE@XZ    004244a3 f i nafxcw:olevar.obj
 0001:000234b0       ??0COleCurrency@@QAE@TtagCY@@@Z 004244b0 f i nafxcw:olevar.obj
 0001:000234c6       ??6@YGAAVCArchive@@AAV0@VCComBSTR@ATL@@@Z 004244c6 f   nafxcw:olevar.obj
 0001:00023527       ??5@YGAAVCArchive@@AAV0@AAVCComBSTR@ATL@@@Z 00424527 f   nafxcw:olevar.obj
 0001:00023587       ??HCOleCurrency@@QBE?AV0@ABV0@@Z 00424587 f   nafxcw:olevar.obj
 0001:0002360c       ??GCOleCurrency@@QBE?AV0@ABV0@@Z 0042460c f   nafxcw:olevar.obj
 0001:00023691       ??GCOleCurrency@@QBE?AV0@XZ 00424691 f   nafxcw:olevar.obj
 0001:000236d7       ??DCOleCurrency@@QBE?AV0@J@Z 004246d7 f   nafxcw:olevar.obj
 0001:000237f5       ??KCOleCurrency@@QBE?AV0@J@Z 004247f5 f   nafxcw:olevar.obj
 0001:00023871       ?SetCurrency@COleCurrency@@QAEXJJ@Z 00424871 f   nafxcw:olevar.obj
 0001:00023929       ??6@YGAAVCArchive@@AAV0@VCOleCurrency@@@Z 00424929 f   nafxcw:olevar.obj
 0001:00023951       ??5@YGAAVCArchive@@AAV0@AAVCOleCurrency@@@Z 00424951 f   nafxcw:olevar.obj
 0001:0002397e       ??6@YGAAVCArchive@@AAV0@VCOleDateTime@ATL@@@Z 0042497e f   nafxcw:olevar.obj
 0001:000239a0       ??5@YGAAVCArchive@@AAV0@AAVCOleDateTime@ATL@@@Z 004249a0 f   nafxcw:olevar.obj
 0001:000239c0       ??6@YGAAVCArchive@@AAV0@VCOleDateTimeSpan@ATL@@@Z 004249c0 f   nafxcw:olevar.obj
 0001:000239e2       ??5@YGAAVCArchive@@AAV0@AAVCOleDateTimeSpan@ATL@@@Z 004249e2 f   nafxcw:olevar.obj
 0001:00023a02       ?CreateOneDim@COleSafeArray@@QAEXGKPBXJ@Z 00424a02 f   nafxcw:olevar.obj
 0001:00023a69       ?Create@COleSafeArray@@QAEXGKPAK@Z 00424a69 f   nafxcw:olevar.obj
 0001:00023af5       ?AllocSysString@?$CStringT@DV?$StrTraitMFC@DV?$ChTraitsCRT@D@ATL@@@@@ATL@@QBEPA_WXZ 00424af5 f i nafxcw:olevar.obj
 0001:00023b0c       ??6CArchive@@QAEAAV0@F@Z   00424b0c f i nafxcw:olevar.obj
 0001:00023b11       ??6CArchive@@QAEAAV0@D@Z   00424b11 f i nafxcw:olevar.obj
 0001:00023b16       ??5CArchive@@QAEAAV0@AAF@Z 00424b16 f i nafxcw:olevar.obj
 0001:00023b1b       ??5CArchive@@QAEAAV0@AAD@Z 00424b1b f i nafxcw:olevar.obj
 0001:00023b20       ?ParseDateTime@COleDateTime@ATL@@QAE_NPBDKK@Z 00424b20 f i nafxcw:olevar.obj
 0001:00023bea       ??6@YGAAVCArchive@@AAV0@VCOleVariant@@@Z 00424bea f   nafxcw:olevar.obj
 0001:00023e0e       ??5@YGAAVCArchive@@AAV0@AAVCOleVariant@@@Z 00424e0e f   nafxcw:olevar.obj
 0001:0002409a       ??$SerializeElements@VCOleVariant@@@@YGXAAVCArchive@@PAVCOleVariant@@H@Z 0042509a f   nafxcw:olevar.obj
 0001:000240eb       ??0COleCurrency@@QAE@JJ@Z  004250eb f   nafxcw:olevar.obj
 0001:00024105       ?DDX_Text@@YGXPAVCDataExchange@@HAAUtagDEC@@@Z 00425105 f   nafxcw:olevar.obj
 0001:0002423d       ?DDX_Text@@YGXPAVCDataExchange@@HAAU_GUID@@@Z 0042523d f   nafxcw:olevar.obj
 0001:000243bf       ??0?$CStringT@DV?$StrTraitMFC@DV?$ChTraitsCRT@D@ATL@@@@@ATL@@QAE@PB_W@Z 004253bf f i nafxcw:olevar.obj
 0001:0002440a       ?ParseCurrency@COleCurrency@@QAEHPBDKK@Z 0042540a f   nafxcw:olevar.obj
 0001:000244e2       ?Format@COleCurrency@@QBE?AV?$CStringT@DV?$StrTraitMFC@DV?$ChTraitsCRT@D@ATL@@@@@ATL@@KK@Z 004254e2 f   nafxcw:olevar.obj
 0001:000245e6       ?DDX_Text@@YGXPAVCDataExchange@@HAAVCOleCurrency@@@Z 004255e6 f   nafxcw:olevar.obj
 0001:000246ca       ?Format@COleDateTime@ATL@@QBE?AV?$CStringT@DV?$StrTraitMFC@DV?$ChTraitsCRT@D@ATL@@@@@2@KK@Z 004256ca f i nafxcw:olevar.obj
 0001:000247ef       ?DDX_Text@@YGXPAVCDataExchange@@HAAVCOleDateTime@ATL@@@Z 004257ef f   nafxcw:olevar.obj
 0001:000248d3       ?DDX_Text@@YGXPAVCDataExchange@@HAAU_FILETIME@@@Z 004258d3 f   nafxcw:olevar.obj
 0001:00024a12       ??0CArchiveException@@QAE@HPBD@Z 00425a12 f i nafxcw:arcex.obj
 0001:00024a5f       ??_GCArchiveException@@UAEPAXI@Z 00425a5f f i nafxcw:arcex.obj
 0001:00024a5f       ??_ECArchiveException@@UAEPAXI@Z 00425a5f f i nafxcw:arcex.obj
 0001:00024a7b       ??1CArchiveException@@UAE@XZ 00425a7b f i nafxcw:arcex.obj
 0001:00024a8c       ??BCRect@@QAEPAUtagRECT@@XZ 00425a8c f i nafxcw:winutil.obj
 0001:00024a8f       ?PtInRect@CRect@@QBEHUtagPOINT@@@Z 00425a8f f i nafxcw:winutil.obj
 0001:00024aa1       ?GetHeadPosition@CPtrList@@QBEPAU__POSITION@@XZ 00425aa1 f i nafxcw:list_p.obj
 0001:00024aa5       ?GetTailPosition@CPtrList@@QBEPAU__POSITION@@XZ 00425aa5 f i nafxcw:list_p.obj
 0001:00024aa9       ?GetNext@CPtrList@@QAEAAPAXAAPAU__POSITION@@@Z 00425aa9 f i nafxcw:list_p.obj
 0001:00024ac2       ?GetPrev@CPtrList@@QAEAAPAXAAPAU__POSITION@@@Z 00425ac2 f i nafxcw:list_p.obj
 0001:00024adc       ??0CPoint@@QAE@UtagPOINT@@@Z 00425adc f i nafxcw:thrdcore.obj
 0001:00024aee       ??8CPoint@@QBEHUtagPOINT@@@Z 00425aee f i nafxcw:thrdcore.obj
 0001:00024b09       ?SendMessageA@CWnd@@QAEJIIJ@Z 00425b09 f i nafxcw:thrdcore.obj
 0001:00024b21       ?IsWindowVisible@CWnd@@QBEHXZ 00425b21 f i nafxcw:thrdcore.obj
 0001:00024b2b       ?SendMessageToDescendants@CWnd@@QAEXIIJHH@Z 00425b2b f i nafxcw:thrdcore.obj
 0001:00024b49       ?GetActiveWindow@CWnd@@SGPAV1@XZ 00425b49 f i nafxcw:thrdcore.obj
 0001:00024b56       ?SetThreadPriority@CWinThread@@QAEHH@Z 00425b56 f i nafxcw:thrdcore.obj
 0001:00024b66       ?ResumeThread@CWinThread@@QAEKXZ 00425b66 f i nafxcw:thrdcore.obj
 0001:00024b70       ??0AFX_CLASSINIT@@QAE@PAUCRuntimeClass@@@Z 00425b70 f i nafxcw:array_b.obj
 0001:00024b82       ?GetAt@CByteArray@@QBEEH@Z 00425b82 f i nafxcw:array_b.obj
 0001:00024b9e       ?SetAt@CByteArray@@QAEXHE@Z 00425b9e f i nafxcw:array_b.obj
 0001:00024bbe       ?GetFile@CArchive@@QBEPAVCFile@@XZ 00425bbe f i nafxcw:arcstrm.obj
 0001:00024bc2       ??0ISequentialStream@@QAE@XZ 00425bc2 f i nafxcw:arcstrm.obj
 0001:00024bc5       ??0IStream@@QAE@XZ         00425bc5 f i nafxcw:arcstrm.obj
 0001:00024bc8       ?GetNextWindow@@YAPAUHWND__@@PAU1@I@Z 00425bc8 f i nafxcw:winocc.obj
 0001:00024bd7       ?GetNext@CPtrList@@QBEAAPBXAAPAU__POSITION@@@Z 00425bd7 f i nafxcw:winocc.obj
 0001:00024bf0       ?GetPrev@CPtrList@@QBEAAPBXAAPAU__POSITION@@@Z 00425bf0 f i nafxcw:winocc.obj
 0001:00024c0a       ?GetAt@CPtrList@@QBEAAPBXPAU__POSITION@@@Z 00425c0a f i nafxcw:winocc.obj
 0001:00024c1d       ?GetSafeHandle@CGdiObject@@QBEPAXXZ 00425c1d f i nafxcw:winocc.obj
 0001:00024c28       ?GetNextWindow@CWnd@@QBEPAV1@I@Z 00425c28 f i nafxcw:winocc.obj
 0001:00024c3f       ?GetWindow@CWnd@@QBEPAV1@I@Z 00425c3f f i nafxcw:winocc.obj
 0001:00024c55       ?LookupPermanent@CHandleMap@@QAEPAVCObject@@PAX@Z 00425c55 f i nafxcw:winocc.obj
 0001:00024c5d       ??0CSize@@QAE@K@Z          00425c5d f i nafxcw:cmdtarg.obj
 0001:00024c74       ?CheckMenuItem@CMenu@@QAEIII@Z 00425c74 f i nafxcw:cmdtarg.obj
 0001:00024c88       ?EnableMenuItem@CMenu@@QAEIII@Z 00425c88 f i nafxcw:cmdtarg.obj
 0001:00024c9c       ?GetMenuState@CMenu@@QBEIII@Z 00425c9c f i nafxcw:cmdtarg.obj
 0001:00024cb0       ?ModifyMenuA@CMenu@@QAEHIIIPBD@Z 00425cb0 f i nafxcw:cmdtarg.obj
 0001:00024ccc       ?GetParent@CWnd@@QBEPAV1@XZ 00425ccc f i nafxcw:cmdtarg.obj
 0001:00024cdc       ?SetAt@CMapPtrToPtr@@QAEXPAX0@Z 00425cdc f i nafxcw:winhand.obj
 0001:00024cee       ?LookupTemporary@CHandleMap@@QAEPAVCObject@@PAX@Z 00425cee f i nafxcw:winhand.obj
 0001:00024cf6       ??_ECHandleMap@@UAEPAXI@Z  00425cf6 f i nafxcw:winhand.obj
 0001:00024cf6       ??_GCHandleMap@@UAEPAXI@Z  00425cf6 f i nafxcw:winhand.obj
 0001:00024d12       ??1CHandleMap@@UAE@XZ      00425d12 f i nafxcw:winhand.obj
 0001:00024d66       __tcscmp                   00425d66 f i nafxcw:wincore.obj
 0001:00024d6b       ?UnlockResource@@YGHPAX@Z  00425d6b f i nafxcw:wincore.obj
 0001:00024d70       ?A2T@@YAPADPAD@Z           00425d70 f i nafxcw:wincore.obj
 0001:00024d75       ??0CPoint@@QAE@J@Z         00425d75 f i nafxcw:wincore.obj
 0001:00024d8c       ?Width@CRect@@QBEHXZ       00425d8c f i nafxcw:wincore.obj
 0001:00024d92       ?Height@CRect@@QBEHXZ      00425d92 f i nafxcw:wincore.obj
 0001:00024d99       ?TopLeft@CRect@@QAEAAVCPoint@@XZ 00425d99 f i nafxcw:wincore.obj
 0001:00024d9c       ?BottomRight@CRect@@QAEAAVCPoint@@XZ 00425d9c f i nafxcw:wincore.obj
 0001:00024da0       ??4CRect@@QAEXABUtagRECT@@@Z 00425da0 f i nafxcw:wincore.obj
 0001:00024dae       ??2CObject@@SGPAXIPAX@Z    00425dae f i nafxcw:wincore.obj
 0001:00024db5       ??3CObject@@SGXPAX0@Z      00425db5 f i nafxcw:wincore.obj
 0001:00024dc2       _IsPlatformNT              00425dc2 f   nafxcw:wincore.obj
 0001:00024e13       _InitMultipleMonitorStubs  00425e13 f   nafxcw:wincore.obj
 0001:00024f0d       _xGetSystemMetrics@4       00425f0d f   nafxcw:wincore.obj
 0001:00024f55       _xMonitorFromPoint@12      00425f55 f   nafxcw:wincore.obj
 0001:00024fab       _xMonitorFromRect@8        00425fab f   nafxcw:wincore.obj
 0001:00024ff7       _xMonitorFromWindow@8      00425ff7 f   nafxcw:wincore.obj
 0001:00025062       _xGetMonitorInfo@8         00426062 f   nafxcw:wincore.obj
 0001:000250f7       _xEnumDisplayMonitors@16   004260f7 f   nafxcw:wincore.obj
 0001:000251e2       _xEnumDisplayDevices@16    004261e2 f   nafxcw:wincore.obj
 0001:0002524f       ??1CAccessibleProxy@ATL@@UAE@XZ 0042624f f i nafxcw:wincore.obj
 0001:00025250       ?AtlIAccessibleInvokeHelper@ATL@@YGJPAUIAccessible@@JABU_GUID@@KGPAUtagDISPPARAMS@@PAUtagVARIANT@@PAUtagEXCEPINFO@@PAI@Z 00426250 f   nafxcw:wincore.obj
 0001:00025838       ?AtlIAccessibleGetIDsOfNamesHelper@ATL@@YGJABU_GUID@@PAPA_WIKPAJ@Z 00426838 f   nafxcw:wincore.obj
 0001:00025898       ?AfxGetInstanceHandle@@YGPAUHINSTANCE__@@XZ 00426898 f i nafxcw:wincore.obj
 0001:000258a1       ?GetMenuItemCount@CMenu@@QBEIXZ 004268a1 f i nafxcw:wincore.obj
 0001:000258ab       ?GetMenuItemID@CMenu@@QBEIH@Z 004268ab f i nafxcw:wincore.obj
 0001:000258bb       ?GetSubMenu@CMenu@@QBEPAV1@H@Z 004268bb f i nafxcw:wincore.obj
 0001:000258d1       ?PostMessageA@CWnd@@QAEHIIJ@Z 004268d1 f i nafxcw:wincore.obj
 0001:000258e9       ?GetMenu@CWnd@@QBEPAVCMenu@@XZ 004268e9 f i nafxcw:wincore.obj
 0001:000258f9       ?GetWindowRect@CWnd@@QBEXPAUtagRECT@@@Z 004268f9 f i nafxcw:wincore.obj
 0001:00025909       ?GetClientRect@CWnd@@QBEXPAUtagRECT@@@Z 00426909 f i nafxcw:wincore.obj
 0001:00025919       ?ScreenToClient@CWnd@@QBEXPAUtagPOINT@@@Z 00426919 f i nafxcw:wincore.obj
 0001:00025929       ?UpdateWindow@CWnd@@QAEXXZ 00426929 f i nafxcw:wincore.obj
 0001:00025933       ?ShowScrollBar@CWnd@@QAEXIH@Z 00426933 f i nafxcw:wincore.obj
 0001:00025947       ?SetForegroundWindow@CWnd@@QAEHXZ 00426947 f i nafxcw:wincore.obj
 0001:00025951       ?DoDataExchange@CWnd@@MAEXPAVCDataExchange@@@Z 00426951 f i nafxcw:wincore.obj
 0001:00025954       ?BeginModalState@CWnd@@UAEXXZ 00426954 f i nafxcw:wincore.obj
 0001:00025960       ?EndModalState@CWnd@@UAEXXZ 00426960 f i nafxcw:wincore.obj
 0001:0002596c       ?GetScrollPos@CScrollBar@@QBEHXZ 0042696c f i nafxcw:wincore.obj
 0001:00025978       ?SetScrollPos@CScrollBar@@QAEHHH@Z 00426978 f i nafxcw:wincore.obj
 0001:0002598e       ?GetScrollRange@CScrollBar@@QBEXPAH0@Z 0042698e f i nafxcw:wincore.obj
 0001:000259a4       ?SetScrollRange@CScrollBar@@QAEXHHH@Z 004269a4 f i nafxcw:wincore.obj
 0001:000259be       ??0CWaitCursor@@QAE@XZ     004269be f i nafxcw:wincore.obj
 0001:000259d2       ??1CWaitCursor@@QAE@XZ     004269d2 f i nafxcw:wincore.obj
 0001:000259df       ?SetWindowLongPtrA@@YAJPAUHWND__@@HJ@Z 004269df f i nafxcw:wincore.obj
 0001:000259f2       ?GetWindowLongPtrA@@YAJPAUHWND__@@H@Z 004269f2 f i nafxcw:wincore.obj
 0001:00025a01       ?SetPermanent@CHandleMap@@QAEXPAXPAVCObject@@@Z 00426a01 f i nafxcw:wincore.obj
 0001:00025a16       ?RemoveHandle@CHandleMap@@QAEXPAX@Z 00426a16 f i nafxcw:wincore.obj
 0001:00025a1e       ??0CComObjectRootBase@ATL@@QAE@XZ 00426a1e f i nafxcw:wincore.obj
 0001:00025a24       ?FinalConstruct@CComObjectRootBase@ATL@@QAEJXZ 00426a24 f i nafxcw:wincore.obj
 0001:00025a27       ?_AtlFinalConstruct@CComObjectRootBase@ATL@@QAEJXZ 00426a27 f i nafxcw:wincore.obj
 0001:00025a2a       ?SetVoid@CComObjectRootBase@ATL@@QAEXPAX@Z 00426a2a f i nafxcw:wincore.obj
 0001:00025a2d       ?InternalFinalConstructAddRef@CComObjectRootBase@ATL@@QAEXXZ 00426a2d f i nafxcw:wincore.obj
 0001:00025a2e       ?InternalFinalConstructRelease@CComObjectRootBase@ATL@@QAEXXZ 00426a2e f i nafxcw:wincore.obj
 0001:00025a2f       ??0?$CComObjectRootEx@VCComSingleThreadModel@ATL@@@ATL@@QAE@XZ 00426a2f f i nafxcw:wincore.obj
 0001:00025a35       ??0IOleWindow@@QAE@XZ      00426a35 f i nafxcw:wincore.obj
 0001:00025a38       ?GetDescendantWindow@CWnd@@QBEPAV1@HH@Z 00426a38 f i nafxcw:wincore.obj
 0001:00025a4b       ?SetActiveWindow@CWnd@@QAEPAV1@XZ 00426a4b f i nafxcw:wincore.obj
 0001:00025a5b       ?GetLastActivePopup@CWnd@@QBEPAV1@XZ 00426a5b f i nafxcw:wincore.obj
 0001:00025a6b       ?GetForegroundWindow@CWnd@@SGPAV1@XZ 00426a6b f i nafxcw:wincore.obj
 0001:00025a78       ??0CAccessibleProxy@ATL@@QAE@XZ 00426a78 f i nafxcw:wincore.obj
 0001:00025a93       ?GetWindow@CAccessibleProxy@ATL@@UAGJPAPAUHWND__@@@Z 00426a93 f i nafxcw:wincore.obj
 0001:00025a98       ?ContextSensitiveHelp@CAccessibleProxy@ATL@@UAGJH@Z 00426a98 f i nafxcw:wincore.obj
 0001:00025aa0       ?FinalRelease@CAccessibleProxy@ATL@@QAEJXZ 00426aa0 f i nafxcw:wincore.obj
 0001:00025ab5       ?AtlInternalQueryInterface@ATL@@YGJPAXPBU_ATL_INTMAP_ENTRY@1@ABU_GUID@@PAPAX@Z 00426ab5 f i nafxcw:wincore.obj
 0001:00025b83       ?GetOwner@CWnd@@QBEPAV1@XZ 00426b83 f i nafxcw:wincore.obj
 0001:00025b9a       ?GetUpperBound@CPtrArray@@QBEHXZ 00426b9a f i nafxcw:arcobj.obj
 0001:00025b9f       ?GetAt@CPtrArray@@QBEPAXH@Z 00426b9f f i nafxcw:arcobj.obj
 0001:00025bbb       ?SetAt@CPtrArray@@QAEXHPAX@Z 00426bbb f i nafxcw:arcobj.obj
 0001:00025bdb       ??0CSize@@QAE@XZ           00426bdb f i nafxcw:wingdi.obj
 0001:00025bde       ??0CSize@@QAE@UtagSIZE@@@Z 00426bde f i nafxcw:wingdi.obj
 0001:00025bf0       ??0CRect@@QAE@HHHH@Z       00426bf0 f i nafxcw:wingdi.obj
 0001:00025c10       ?SwapLeftRight@CRect@@SGXPAUtagRECT@@@Z 00426c10 f i nafxcw:wingdi.obj
 0001:00025c21       ??0CResourceException@@QAE@HI@Z 00426c21 f i nafxcw:wingdi.obj
 0001:00025c43       ??1CResourceException@@UAE@XZ 00426c43 f i nafxcw:wingdi.obj
 0001:00025c4a       ??0CUserException@@QAE@HI@Z 00426c4a f i nafxcw:wingdi.obj
 0001:00025c6c       ??1CUserException@@UAE@XZ  00426c6c f i nafxcw:wingdi.obj
 0001:00025c73       ??0CGdiObject@@QAE@XZ      00426c73 f i nafxcw:wingdi.obj
 0001:00025c80       ?GetBitmap@CBitmap@@QAEHPAUtagBITMAP@@@Z 00426c80 f i nafxcw:wingdi.obj
 0001:00025c92       ?GetSafeHdc@CDC@@QBEPAUHDC__@@XZ 00426c92 f i nafxcw:wingdi.obj
 0001:00025c9d       ?GetViewportExt@CDC@@QBE?AVCSize@@XZ 00426c9d f i nafxcw:wingdi.obj
 0001:00025cc1       ?GetWindowExt@CDC@@QBE?AVCSize@@XZ 00426cc1 f i nafxcw:wingdi.obj
 0001:00025ce5       ?FillRect@CDC@@QAEXPBUtagRECT@@PAVCBrush@@@Z 00426ce5 f i nafxcw:wingdi.obj
 0001:00025d01       ?BitBlt@CDC@@QAEHHHHHPAV1@HHK@Z 00426d01 f i nafxcw:wingdi.obj
 0001:00025d31       ?GetPixel@CDC@@QBEKHH@Z    00426d31 f i nafxcw:wingdi.obj
 0001:00025d45       ?StartDocA@CDC@@QAEHPAU_DOCINFOA@@@Z 00426d45 f i nafxcw:wingdi.obj
 0001:00025d55       ?abs@@YAJJ@Z               00426d55 f i nafxcw:wingdi.obj
 0001:00025d5a       ?PtVisible@CDC@@UBEHHH@Z   00426d5a f i nafxcw:wingdi.obj
 0001:00025d6e       ?RectVisible@CDC@@UBEHPBUtagRECT@@@Z 00426d6e f i nafxcw:wingdi.obj
 0001:00025d7e       ?TextOutA@CDC@@UAEHHHPBDH@Z 00426d7e f i nafxcw:wingdi.obj
 0001:00025d9a       ?ExtTextOutA@CDC@@UAEHHHIPBUtagRECT@@PBDIPAH@Z 00426d9a f i nafxcw:wingdi.obj
 0001:00025dbf       ?TabbedTextOutA@CDC@@UAE?AVCSize@@HHPBDHHPAHH@Z 00426dbf f i nafxcw:wingdi.obj
 0001:00025df7       ?DrawTextA@CDC@@UAEHPBDHPAUtagRECT@@I@Z 00426df7 f i nafxcw:wingdi.obj
 0001:00025e13       ?DrawTextExA@CDC@@UAEHPADHPAUtagRECT@@IPAUtagDRAWTEXTPARAMS@@@Z 00426e13 f i nafxcw:wingdi.obj
 0001:00025e32       ?GrayStringA@CDC@@UAEHPAVCBrush@@P6GHPAUHDC__@@JH@ZJHHHHH@Z 00426e32 f i nafxcw:wingdi.obj
 0001:00025e62       ?Escape@CDC@@UAEHHHPBDPAX@Z 00426e62 f i nafxcw:wingdi.obj
 0001:00025e7e       ??_ECResourceException@@UAEPAXI@Z 00426e7e f i nafxcw:wingdi.obj
 0001:00025e7e       ??_GCResourceException@@UAEPAXI@Z 00426e7e f i nafxcw:wingdi.obj
 0001:00025e9a       ??_GCUserException@@UAEPAXI@Z 00426e9a f i nafxcw:wingdi.obj
 0001:00025e9a       ??_ECUserException@@UAEPAXI@Z 00426e9a f i nafxcw:wingdi.obj
 0001:00025eb6       ??1CGdiObject@@UAE@XZ      00426eb6 f i nafxcw:wingdi.obj
 0001:00025ec1       ??0CBrush@@QAE@XZ          00426ec1 f i nafxcw:wingdi.obj
 0001:00025ece       ??1CBrush@@UAE@XZ          00426ece f i nafxcw:wingdi.obj
 0001:00025ed9       ?CreatePatternBrush@CBrush@@QAEHPAVCBitmap@@@Z 00426ed9 f i nafxcw:wingdi.obj
 0001:00025efa       ?FromHandle@CFont@@SGPAV1@PAUHFONT__@@@Z 00426efa f i nafxcw:wingdi.obj
 0001:00025eff       ??0CBitmap@@QAE@XZ         00426eff f i nafxcw:wingdi.obj
 0001:00025f0c       ??1CBitmap@@UAE@XZ         00426f0c f i nafxcw:wingdi.obj
 0001:00025f17       ?CreateBitmap@CBitmap@@QAEHHHIIPBX@Z 00426f17 f i nafxcw:wingdi.obj
 0001:00025f3f       ?CreateCompatibleDC@CDC@@QAEHPAV1@@Z 00426f3f f i nafxcw:wingdi.obj
 0001:00025f60       ??_GCGdiObject@@UAEPAXI@Z  00426f60 f i nafxcw:wingdi.obj
 0001:00025f60       ??_ECGdiObject@@UAEPAXI@Z  00426f60 f i nafxcw:wingdi.obj
 0001:00025f7c       ??_ECPen@@UAEPAXI@Z        00426f7c f i nafxcw:wingdi.obj
 0001:00025f7c       ??_GCPen@@UAEPAXI@Z        00426f7c f i nafxcw:wingdi.obj
 0001:00025f98       ??1CPen@@UAE@XZ            00426f98 f i nafxcw:wingdi.obj
 0001:00025fa3       ??_GCBrush@@UAEPAXI@Z      00426fa3 f i nafxcw:wingdi.obj
 0001:00025fa3       ??_ECBrush@@UAEPAXI@Z      00426fa3 f i nafxcw:wingdi.obj
 0001:00025fbf       ??_ECBitmap@@UAEPAXI@Z     00426fbf f i nafxcw:wingdi.obj
 0001:00025fbf       ??_GCBitmap@@UAEPAXI@Z     00426fbf f i nafxcw:wingdi.obj
 0001:00025fdb       ?SelectObject@CDC@@QAEPAVCBitmap@@PAV2@@Z 00426fdb f i nafxcw:wingdi.obj
 0001:00025ff2       ??0CFixedAllocNoSync@@QAE@II@Z 00426ff2 f   nafxcw:fixalloc.obj
 0001:0002601c       ?FreeAll@CFixedAllocNoSync@@QAEXXZ 0042701c f   nafxcw:fixalloc.obj
 0001:00026031       ?Free@CFixedAllocNoSync@@QAEXPAX@Z 00427031 f   nafxcw:fixalloc.obj
 0001:00026044       ??1CFixedAllocNoSync@@QAE@XZ 00427044 f   nafxcw:fixalloc.obj
 0001:00026049       ?Alloc@CFixedAllocNoSync@@QAEPAXXZ 00427049 f   nafxcw:fixalloc.obj
 0001:0002608a       ??0CFixedAlloc@@QAE@II@Z   0042708a f   nafxcw:fixalloc.obj
 0001:000260aa       ??1CFixedAlloc@@QAE@XZ     004270aa f   nafxcw:fixalloc.obj
 0001:000260bf       ?FreeAll@CFixedAlloc@@QAEXXZ 004270bf f   nafxcw:fixalloc.obj
 0001:0002612c       ?Alloc@CFixedAlloc@@QAEPAXXZ 0042712c f   nafxcw:fixalloc.obj
 0001:0002618a       ?Free@CFixedAlloc@@QAEXPAX@Z 0042718a f   nafxcw:fixalloc.obj
 0001:00026201       ??0CRect@@QAE@ABUtagRECT@@@Z 00427201 f i nafxcw:winmenu.obj
 0001:00026215       ?InflateRect@CRect@@QAEXHH@Z 00427215 f i nafxcw:winmenu.obj
 0001:00026227       ?GetObjectA@CGdiObject@@QBEHHPAX@Z 00427227 f i nafxcw:winmenu.obj
 0001:0002623b       ??0CFont@@QAE@XZ           0042723b f i nafxcw:winmenu.obj
 0001:00026248       ??1CFont@@UAE@XZ           00427248 f i nafxcw:winmenu.obj
 0001:00026253       ?CreateFontIndirectA@CFont@@QAEHPBUtagLOGFONTA@@@Z 00427253 f i nafxcw:winmenu.obj
 0001:0002626c       ??0CMenu@@QAE@XZ           0042726c f i nafxcw:winmenu.obj
 0001:00026279       ?GetMenuItemInfoA@CMenu@@QAEHIPAUtagMENUITEMINFOA@@H@Z 00427279 f i nafxcw:winmenu.obj
 0001:00026291       ??_ECFont@@UAEPAXI@Z       00427291 f i nafxcw:winmenu.obj
 0001:00026291       ??_GCFont@@UAEPAXI@Z       00427291 f i nafxcw:winmenu.obj
 0001:000262ad       ?ExtTextOutA@CDC@@QAEHHHIPBUtagRECT@@ABV?$CStringT@DV?$StrTraitMFC@DV?$ChTraitsCRT@D@ATL@@@@@ATL@@PAH@Z 004272ad f i nafxcw:winmenu.obj
 0001:000262d6       ?GetTextExtent@CDC@@QBE?AVCSize@@ABV?$CStringT@DV?$StrTraitMFC@DV?$ChTraitsCRT@D@ATL@@@@@ATL@@@Z 004272d6 f i nafxcw:winmenu.obj
 0001:00026303       ??1CMenu@@UAE@XZ           00427303 f i nafxcw:winmenu.obj
 0001:0002630e       ??_GCMenu@@UAEPAXI@Z       0042730e f i nafxcw:winmenu.obj
 0001:0002630e       ??_ECMenu@@UAEPAXI@Z       0042730e f i nafxcw:winmenu.obj
 0001:0002632a       ?T2CA@@YAPBDPBD@Z          0042732a f i nafxcw:appcore.obj
 0001:0002632f       ?SetResourceInstance@CAtlBaseModule@ATL@@QAEPAUHINSTANCE__@@PAU3@@Z 0042732f f i nafxcw:appcore.obj
 0001:00026340       ?AfxSetResourceHandle@@YGXPAUHINSTANCE__@@@Z 00427340 f i nafxcw:appcore.obj
 0001:0002634f       ?GetSize@CPtrArray@@QBEHXZ 0042734f f i nafxcw:array_p.obj
 0001:00026353       ?IntersectRect@CRect@@QAEHPBUtagRECT@@0@Z 00427353 f i nafxcw:wingdix.obj
 0001:00026365       ?FromHandle@CBrush@@SGPAV1@PAUHBRUSH__@@@Z 00427365 f i nafxcw:wingdix.obj
 0001:0002636a       ??0CRgn@@QAE@XZ            0042736a f i nafxcw:wingdix.obj
 0001:00026377       ??1CRgn@@UAE@XZ            00427377 f i nafxcw:wingdix.obj
 0001:00026382       ?CreateRectRgn@CRgn@@QAEHHHHH@Z 00427382 f i nafxcw:wingdix.obj
 0001:000263a7       ?CreateRectRgnIndirect@CRgn@@QAEHPBUtagRECT@@@Z 004273a7 f i nafxcw:wingdix.obj
 0001:000263c0       ?SetRectRgn@CRgn@@QAEXPBUtagRECT@@@Z 004273c0 f i nafxcw:wingdix.obj
 0001:000263db       ?CombineRgn@CRgn@@QAEHPAV1@0H@Z 004273db f i nafxcw:wingdix.obj
 0001:00026407       ?GetDeviceCaps@CDC@@QBEHH@Z 00427407 f i nafxcw:wingdix.obj
 0001:00026417       ?GetMapMode@CDC@@QBEHXZ    00427417 f i nafxcw:wingdix.obj
 0001:00026421       ?PatBlt@CDC@@QAEHHHHHK@Z   00427421 f i nafxcw:wingdix.obj
 0001:00026440       ??_ECRgn@@UAEPAXI@Z        00427440 f i nafxcw:wingdix.obj
 0001:00026440       ??_GCRgn@@UAEPAXI@Z        00427440 f i nafxcw:wingdix.obj
 0001:0002645c       ?ShowOwnedPopups@CWnd@@QAEXH@Z 0042745c f i nafxcw:appui.obj
 0001:0002646c       ??ACRecentFileList@@QAEAAV?$CStringT@DV?$StrTraitMFC@DV?$ChTraitsCRT@D@ATL@@@@@ATL@@H@Z 0042746c f i nafxcw:appui.obj
 0001:00026479       ?DeleteMenu@CMenu@@QAEHII@Z 00427479 f i nafxcw:filelist.obj
 0001:0002648d       ?InsertMenuA@CMenu@@QAEHIIIPBD@Z 0042748d f i nafxcw:filelist.obj
 0001:000264a9       ?GetBuffer@?$CSimpleStringT@D$0A@@ATL@@QAEPADXZ 004274a9 f i nafxcw:appui2.obj
 0001:000264c3       ?GetFileTitle@@YGFPBDPADG@Z 004274c3 f i nafxcw:filecore.obj
 0001:000264c9       ??1CFileException@@UAE@XZ  004274c9 f i nafxcw:filecore.obj
 0001:000264da       ??_ECFileException@@UAEPAXI@Z 004274da f i nafxcw:filecore.obj
 0001:000264da       ??_GCFileException@@UAEPAXI@Z 004274da f i nafxcw:filecore.obj
 0001:000264f6       ??0CFileException@@QAE@HJPBD@Z 004274f6 f i nafxcw:filecore.obj
 0001:00026549       ?SetFilePath@CFile@@UAEXPBD@Z 00427549 f i nafxcw:filecore.obj
 0001:0002655e       __tcsdec                   0042755e f i nafxcw:docmgr.obj
 0001:00026563       ??_9@$BBEM@AE              00427563 f i nafxcw:docmgr.obj
 0001:0002656b       ?GetCount@CPtrList@@QBEHXZ 0042756b f i nafxcw:docmgr.obj
 0001:0002656f       ?GetHead@CPtrList@@QAEAAPAXXZ 0042756f f i nafxcw:docmgr.obj
 0001:00026576       ?IsIconic@CWnd@@QBEHXZ     00427576 f i nafxcw:docmgr.obj
 0001:00026580       ?Create@CDialog@@UAEHIPAVCWnd@@@Z 00427580 f i nafxcw:docmgr.obj
 0001:00026595       ?GetCount@CListBox@@QBEHXZ 00427595 f i nafxcw:docmgr.obj
 0001:000265a8       ?GetCurSel@CListBox@@QBEHXZ 004275a8 f i nafxcw:docmgr.obj
 0001:000265bb       ?SetCurSel@CListBox@@QAEHH@Z 004275bb f i nafxcw:docmgr.obj
 0001:000265d2       ?SetItemData@CListBox@@QAEHHK@Z 004275d2 f i nafxcw:docmgr.obj
 0001:000265eb       ?GetItemDataPtr@CListBox@@QBEPAXH@Z 004275eb f i nafxcw:docmgr.obj
 0001:00026602       ?SetItemDataPtr@CListBox@@QAEHHPAX@Z 00427602 f i nafxcw:docmgr.obj
 0001:00026607       ?AddString@CListBox@@QAEHPBD@Z 00427607 f i nafxcw:docmgr.obj
 0001:0002661e       ?ResetContent@CListBox@@QAEXXZ 0042761e f i nafxcw:docmgr.obj
 0001:00026631       ?Append@?$CSimpleStringT@D$0A@@ATL@@QAEXABV12@@Z 00427631 f i nafxcw:docmgr.obj
 0001:00026643       ?IsValidFILETIME@CTime@ATL@@SGHABU_FILETIME@@@Z 00427643 f i nafxcw:filest.obj
 0001:00026672       ??0CTime@ATL@@QAE@XZ       00427672 f i nafxcw:filest.obj
 0001:0002667c       ??0CTime@ATL@@QAE@HHHHHHH@Z 0042767c f i nafxcw:filest.obj
 0001:000266dc       ??0CTime@ATL@@QAE@ABU_SYSTEMTIME@@H@Z 004276dc f i nafxcw:filest.obj
 0001:00026734       ??0CTime@ATL@@QAE@ABU_FILETIME@@H@Z 00427734 f i nafxcw:filest.obj
 0001:00026792       ??4CTime@ATL@@QAEAAV01@_J@Z 00427792 f i nafxcw:filest.obj
 0001:000267a4       ?GetLocalTm@CTime@ATL@@QBEPAUtm@@PAU3@@Z 004277a4 f i nafxcw:filest.obj
 0001:000267cb       ?GetTime@CTime@ATL@@QBE_JXZ 004277cb f i nafxcw:filest.obj
 0001:000267d1       ?GetYear@CTime@ATL@@QBEHXZ 004277d1 f i nafxcw:filest.obj
 0001:000267e8       ?GetMonth@CTime@ATL@@QBEHXZ 004277e8 f i nafxcw:filest.obj
 0001:000267fb       ?GetDay@CTime@ATL@@QBEHXZ  004277fb f i nafxcw:filest.obj
 0001:0002680d       ?GetHour@CTime@ATL@@QBEHXZ 0042780d f i nafxcw:filest.obj
 0001:00026820       ?GetMinute@CTime@ATL@@QBEHXZ 00427820 f i nafxcw:filest.obj
 0001:00026833       ?GetSecond@CTime@ATL@@QBEHXZ 00427833 f i nafxcw:filest.obj
 0001:00026845       ??_9@$BBFA@AE              00427845 f i nafxcw:dlgcore.obj
 0001:0002684d       ?GetNextDlgTabItem@CWnd@@QBEPAV1@PAV1@H@Z 0042784d f i nafxcw:dlgcore.obj
 0001:0002686f       ??1CCommonDialog@@UAE@XZ   0042786f f i nafxcw:dlgfile.obj
 0001:00026874       ??0CCommonDialog@@QAE@PAVCWnd@@@Z 00427874 f i nafxcw:dlgfile.obj
 0001:000268b9       @__security_check_cookie@4 004278b9 f   libcmt:secchk.obj
 0001:000268c7       _atol                      004278c7 f   libcmt:atox.obj
 0001:0002694f       _atoi                      0042794f f   libcmt:atox.obj
 0001:00026954       __atoi64                   00427954 f   libcmt:atox.obj
 0001:000269fb       __mbscmp                   004279fb f   libcmt:mbscmp.obj
 0001:00026a90       _memmove                   00427a90 f   libcmt:memmove.obj
 0001:00026dcd       __time64                   00427dcd f   libcmt:time64.obj
 0001:00026e09       ?_JumpToContinuation@@YGXPAXPAUEHRegistrationNode@@@Z 00427e09 f   libcmt:trnsctrl.obj
 0001:00026e39       ?_CallMemberFunction0@@YGXPAX0@Z 00427e39 f   libcmt:trnsctrl.obj
 0001:00026e40       ?_CallMemberFunction1@@YGXPAX00@Z 00427e40 f   libcmt:trnsctrl.obj
 0001:00026e47       ?_CallMemberFunction2@@YGXPAX00H@Z 00427e47 f   libcmt:trnsctrl.obj
 0001:00026e4e       ?_UnwindNestedFrames@@YGXPAUEHRegistrationNode@@PAUEHExceptionRecord@@@Z 00427e4e f   libcmt:trnsctrl.obj
 0001:00026ea0       ___CxxFrameHandler         00427ea0 f   libcmt:trnsctrl.obj
 0001:00026ed6       ___CxxLongjmpUnwind@4      00427ed6 f   libcmt:trnsctrl.obj
 0001:00026f2b       ?_CallSETranslator@@YAHPAUEHExceptionRecord@@PAUEHRegistrationNode@@PAX2PBU_s_FuncInfo@@H1@Z 00427f2b f   libcmt:trnsctrl.obj
 0001:000270a4       ?_GetRangeOfTrysToCheck@@YAPBU_s_TryBlockMapEntry@@PBU_s_FuncInfo@@HHPAI1@Z 004280a4 f   libcmt:trnsctrl.obj
 0001:0002711e       ?_CreateFrameInfo@@YAPAUFrameInfo@@PAU1@PAX@Z 0042811e f   libcmt:trnsctrl.obj
 0001:00027146       ?IsExceptionObjectToBeDestroyed@@YAHPAX@Z 00428146 f   libcmt:trnsctrl.obj
 0001:00027167       ?_FindAndUnlinkFrame@@YAXPAUFrameInfo@@@Z 00428167 f   libcmt:trnsctrl.obj
 0001:000271b3       ?_CallCatchBlock2@@YAPAXPAUEHRegistrationNode@@PBU_s_FuncInfo@@PAXHK@Z 004281b3 f   libcmt:trnsctrl.obj
 0001:0002720c       __global_unwind2           0042820c f   libcmt:exsup.obj
 0001:0002724e       __local_unwind2            0042824e f   libcmt:exsup.obj
 0001:000272a6       __NLG_Return2              004282a6     libcmt:exsup.obj
 0001:000272b6       __abnormal_termination     004282b6 f   libcmt:exsup.obj
 0001:000272d9       __NLG_Notify1              004282d9 f   libcmt:exsup.obj
 0001:000272e2       __NLG_Notify               004282e2 f   libcmt:exsup.obj
 0001:000272f5       __NLG_Dispatch             004282f5     libcmt:exsup.obj
 0001:000272fa       __Getdays                  004282fa f   libcmt:strftime.obj
 0001:00027379       __Getmonths                00428379 f   libcmt:strftime.obj
 0001:0002740e       __Gettnames                0042840e f   libcmt:strftime.obj
 0001:00027e00       __Strftime_mt              00428e00 f   libcmt:strftime.obj
 0001:00027ec3       __Strftime                 00428ec3 f   libcmt:strftime.obj
 0001:00027ef5       _strftime                  00428ef5 f   libcmt:strftime.obj
 0001:00027f10       __localtime64              00428f10 f   libcmt:loctim64.obj
 0001:00028120       __chkstk                   00429120 f   libcmt:chkstk.obj
 0001:00028120       __alloca_probe             00429120     libcmt:chkstk.obj
 0001:0002815d       __CxxThrowException@8      0042915d f   libcmt:throw.obj
 0001:00028197       ??0exception@@QAE@XZ       00429197 f   libcmt:stdexcpt.obj
 0001:000281a8       ??0exception@@QAE@ABQBD@Z  004291a8 f   libcmt:stdexcpt.obj
 0001:000281f0       ??0exception@@QAE@ABV0@@Z  004291f0 f   libcmt:stdexcpt.obj
 0001:00028242       ??1exception@@UAE@XZ       00429242 f   libcmt:stdexcpt.obj
 0001:00028258       ?what@exception@@UBEPBDXZ  00429258 f   libcmt:stdexcpt.obj
 0001:00028265       ??0bad_cast@@QAE@PBD@Z     00429265 f   libcmt:stdexcpt.obj
 0001:0002827e       ??0bad_cast@@QAE@ABV0@@Z   0042927e f   libcmt:stdexcpt.obj
 0001:00028296       ??1bad_cast@@UAE@XZ        00429296 f   libcmt:stdexcpt.obj
 0001:000282a1       ??0bad_typeid@@QAE@PBD@Z   004292a1 f   libcmt:stdexcpt.obj
 0001:000282ba       ??0bad_typeid@@QAE@ABV0@@Z 004292ba f   libcmt:stdexcpt.obj
 0001:000282d2       ??1bad_typeid@@UAE@XZ      004292d2 f   libcmt:stdexcpt.obj
 0001:000282dd       ??0__non_rtti_object@@QAE@PBD@Z 004292dd f   libcmt:stdexcpt.obj
 0001:000282f5       ??0__non_rtti_object@@QAE@ABV0@@Z 004292f5 f   libcmt:stdexcpt.obj
 0001:0002830d       ??1__non_rtti_object@@UAE@XZ 0042930d f   libcmt:stdexcpt.obj
 0001:00028318       ??_Eexception@@UAEPAXI@Z   00429318 f i libcmt:stdexcpt.obj
 0001:00028318       ??_Gexception@@UAEPAXI@Z   00429318 f i libcmt:stdexcpt.obj
 0001:00028334       ??4exception@@QAEAAV0@ABV0@@Z 00429334 f   libcmt:stdexcpt.obj
 0001:00028353       ??_Gbad_cast@@UAEPAXI@Z    00429353 f i libcmt:stdexcpt.obj
 0001:00028353       ??_Ebad_cast@@UAEPAXI@Z    00429353 f i libcmt:stdexcpt.obj
 0001:0002836f       ??_Ebad_typeid@@UAEPAXI@Z  0042936f f i libcmt:stdexcpt.obj
 0001:0002836f       ??_Gbad_typeid@@UAEPAXI@Z  0042936f f i libcmt:stdexcpt.obj
 0001:0002838b       ??_G__non_rtti_object@@UAEPAXI@Z 0042938b f i libcmt:stdexcpt.obj
 0001:0002838b       ??_E__non_rtti_object@@UAEPAXI@Z 0042938b f i libcmt:stdexcpt.obj
 0001:000283a7       ??1type_info@@UAE@XZ       004293a7 f   libcmt:typinfo.obj
 0001:000283ed       ??_Etype_info@@UAEPAXI@Z   004293ed f i libcmt:typinfo.obj
 0001:000283ed       ??_Gtype_info@@UAEPAXI@Z   004293ed f i libcmt:typinfo.obj
 0001:00028409       ??8type_info@@QBEHABV0@@Z  00429409 f   libcmt:typinfo.obj
 0001:00028424       ??9type_info@@QBEHABV0@@Z  00429424 f   libcmt:typinfo.obj
 0001:00028440       ?before@type_info@@QBEHABV1@@Z 00429440 f   libcmt:typinfo.obj
 0001:0002845f       ?raw_name@type_info@@QBEPBDXZ 0042945f f   libcmt:typinfo.obj
 0001:00028463       ??0type_info@@AAE@ABV0@@Z  00429463 f   libcmt:typinfo.obj
 0001:0002846e       ??4type_info@@AAEAAV0@ABV0@@Z 0042946e f   libcmt:typinfo.obj
 0001:000284f3       ___onexitinit              004294f3 f   libcmt:onexit.obj
 0001:0002851b       __onexit                   0042951b f   libcmt:onexit.obj
 0001:00028553       _atexit                    00429553 f   libcmt:onexit.obj
 0001:00028565       __fpclear                  00429565 f   libcmt:fpinit.obj
 0001:00028566       __cfltcvt_init             00429566 f   libcmt:fpinit.obj
 0001:0002859e       ___setfflag                0042959e f   libcmt:fpinit.obj
 0001:000285ae       __fpmath                   004295ae f   libcmt:fpinit.obj
 0001:000285cc       __fclose_lk                004295cc f   libcmt:fclose.obj
 0001:00028618       _fclose                    00429618 f   libcmt:fclose.obj
 0001:00028669       _fprintf                   00429669 f   libcmt:fprintf.obj
 0001:000286c7       __fsopen                   004296c7 f   libcmt:fopen.obj
 0001:00028723       _fopen                     00429723 f   libcmt:fopen.obj
 0001:00028736       __heap_alloc               00429736 f   libcmt:malloc.obj
 0001:000287b1       __nh_malloc                004297b1 f   libcmt:malloc.obj
 0001:000287dd       _malloc                    004297dd f   libcmt:malloc.obj
 0001:000287ef       _free                      004297ef f   libcmt:free.obj
 0001:00028860       __resetstkoflw             00429860 f   libcmt:resetstk.obj
 0001:0002894c       __except_handler3          0042994c f   libcmt:exsup3.obj
 0001:00028a32       __seh_longjmp_unwind@4     00429a32 f   libcmt:exsup3.obj
 0001:00028a4d       _wcscat                    00429a4d f   libcmt:wcscat.obj
 0001:00028a77       _wcscpy                    00429a77 f   libcmt:wcscat.obj
 0001:00028a93       __mbsstr                   00429a93 f   libcmt:mbsstr.obj
 0001:00028b45       __mbsupr                   00429b45 f   libcmt:mbsupr.obj
 0001:00028bca       _sprintf                   00429bca f   libcmt:sprintf.obj
 0001:00028c22       __scprintf                 00429c22 f   libcmt:sprintf.obj
 0001:00028c53       __purecall                 00429c53 f   libcmt:purevirt.obj
 0001:00028c67       __set_purecall_handler     00429c67 f   libcmt:purevirt.obj
 0001:00028c77       __endthreadex              00429c77 f   libcmt:threadex.obj
 0001:00028d3d       __beginthreadex            00429d3d f   libcmt:threadex.obj
 0001:00028dc8       __vsnprintf                00429dc8 f   libcmt:vsnprint.obj
 0001:00028e20       __alldiv                   00429e20 f   libcmt:lldiv.obj
 0001:00028eca       __mbsnbcpy                 00429eca f   libcmt:mbsnbcpy.obj
 0001:00028f5d       __mbsrchr                  00429f5d f   libcmt:mbsrchr.obj
 0001:00028fd0       _strncpy                   00429fd0 f   libcmt:strncpy.obj
 0001:000290f4       __snprintf                 0042a0f4 f   libcmt:snprintf.obj
 0001:0002914b       _sscanf                    0042a14b f   libcmt:sscanf.obj
 0001:0002917f       __fread_lk                 0042a17f f   libcmt:fread.obj
 0001:00029268       _fread                     0042a268 f   libcmt:fread.obj
 0001:000292b4       __fseek_lk                 0042a2b4 f   libcmt:fseek.obj
 0001:00029343       _fseek                     0042a343 f   libcmt:fseek.obj
 0001:0002938c       __findclose                0042a38c f   libcmt:findfile.obj
 0001:000293ac       ___timet_from_ft           0042a3ac f   libcmt:findfile.obj
 0001:00029410       __findfirst                0042a410 f   libcmt:findfile.obj
 0001:000294f2       __findnext                 0042a4f2 f   libcmt:findfile.obj
 0001:000295cf       __fwrite_lk                0042a5cf f   libcmt:fwrite.obj
 0001:000296d6       _fwrite                    0042a6d6 f   libcmt:fwrite.obj
 0001:00029722       _wcslen                    0042a722 f   libcmt:wcslen.obj
 0001:00029750       _strchr                    0042a750 f   libcmt:strchr.obj
 0001:00029756       ___from_strstr_to_strchr   0042a756     libcmt:strchr.obj
 0001:0002980e       __mbslwr                   0042a80e f   libcmt:mbslwr.obj
 0001:00029893       __flush                    0042a893 f   libcmt:fflush.obj
 0001:000298f0       __fflush_lk                0042a8f0 f   libcmt:fflush.obj
 0001:000299f3       _fflush                    0042a9f3 f   libcmt:fflush.obj
 0001:00029a43       __flushall                 0042aa43 f   libcmt:fflush.obj
 0001:00029a4c       _fgetc                     0042aa4c f   libcmt:fgetc.obj
 0001:00029a9c       _getc                      0042aa9c f   libcmt:fgetc.obj
 0001:00029aec       __getwc_lk                 0042aaec f   libcmt:fgetwc.obj
 0001:00029be0       _fgetwc                    0042abe0 f   libcmt:fgetwc.obj
 0001:00029c22       _getwc                     0042ac22 f   libcmt:fgetwc.obj
 0001:00029c27       __ftell_lk                 0042ac27 f   libcmt:ftell.obj
 0001:00029d89       _ftell                     0042ad89 f   libcmt:ftell.obj
 0001:00029dca       _vsprintf                  0042adca f   libcmt:vsprintf.obj
 0001:00029e21       __vscprintf                0042ae21 f   libcmt:vsprintf.obj
 0001:00029e51       __filelength               0042ae51 f   libcmt:flength.obj
 0001:00029f25       _atof                      0042af25 f   libcmt:atof.obj
 0001:00029f60       __allshl                   0042af60 f   libcmt:llshl.obj
 0001:00029f7f       _isleadbyte                0042af7f f   libcmt:_wctype.obj
 0001:00029f94       _iswalpha                  0042af94 f   libcmt:_wctype.obj
 0001:00029fa5       _iswupper                  0042afa5 f   libcmt:_wctype.obj
 0001:00029fb3       _iswlower                  0042afb3 f   libcmt:_wctype.obj
 0001:00029fc1       _iswdigit                  0042afc1 f   libcmt:_wctype.obj
 0001:00029fcf       _iswxdigit                 0042afcf f   libcmt:_wctype.obj
 0001:00029fe0       _iswspace                  0042afe0 f   libcmt:_wctype.obj
 0001:00029fee       _iswpunct                  0042afee f   libcmt:_wctype.obj
 0001:00029ffc       _iswalnum                  0042affc f   libcmt:_wctype.obj
 0001:0002a00d       _iswprint                  0042b00d f   libcmt:_wctype.obj
 0001:0002a01e       _iswgraph                  0042b01e f   libcmt:_wctype.obj
 0001:0002a02f       _iswcntrl                  0042b02f f   libcmt:_wctype.obj
 0001:0002a03d       _iswascii                  0042b03d f   libcmt:_wctype.obj
 0001:0002a04c       __ftol2                    0042b04c f   libcmt:ftol2.obj
 0001:0002a0c1       _srand                     0042b0c1 f   libcmt:rand.obj
 0001:0002a0ce       _rand                      0042b0ce f   libcmt:rand.obj
 0001:0002a0f0       __mbsinc                   0042b0f0 f   libcmt:mbsinc.obj
 0001:0002a10c       __ismbcspace               0042b10c f   libcmt:ismbspc.obj
 0001:0002a190       __amsg_exit                0042b190 f   libcmt:wincrt0.obj
 0001:0002a22f       _WinMainCRTStartup         0042b22f f   libcmt:wincrt0.obj
 0001:0002a410       _memcpy                    0042b410 f   libcmt:memcpy.obj
 0001:0002a750       _strlen                    0042b750 f   libcmt:strlen.obj
 0001:0002a7dc       __EH_prolog                0042b7dc f   libcmt:ehprolog.obj
 0001:0002a7fb       _swprintf                  0042b7fb f   libcmt:swprintf.obj
 0001:0002a86a       __scwprintf                0042b86a f   libcmt:swprintf.obj
 0001:0002a89b       __mbschr                   0042b89b f   libcmt:mbschr.obj
 0001:0002a916       _realloc                   0042b916 f   libcmt:realloc.obj
 0001:0002aac8       __SEH_prolog               0042bac8 f   libcmt:sehprolg.obj
 0001:0002ab03       __SEH_epilog               0042bb03 f   libcmt:sehprolg.obj
 0001:0002ab20       _memset                    0042bb20 f   libcmt:memset.obj
 0001:0002ab92       ?__ArrayUnwind@@YGXPAXIHP6EX0@Z@Z 0042bb92 f   libcmt:ehvecdtr.obj
 0001:0002abf0       ??_M@YGXPAXIHP6EX0@Z@Z     0042bbf0 f   libcmt:ehvecdtr.obj
 0001:0002ac50       _memcmp                    0042bc50 f   libcmt:memcmp.obj
 0001:0002ad08       _labs                      0042bd08 f   libcmt:labs.obj
 0001:0002ad20       __allmul                   0042bd20 f   libcmt:llmul.obj
 0001:0002ad54       __expand                   0042bd54 f   libcmt:expand.obj
 0001:0002adfe       __msize                    0042bdfe f   libcmt:msize.obj
 0001:0002b0ad       ___updatetmbcinfo          0042c0ad f   libcmt:mbctype.obj
 0001:0002b2b0       __getmbcp                  0042c2b0 f   libcmt:mbctype.obj
 0001:0002b2c0       __setmbcp                  0042c2c0 f   libcmt:mbctype.obj
 0001:0002b410       ___initmbctable            0042c410 f   libcmt:mbctype.obj
 0001:0002b42e       ___crtExitProcess          0042c42e f   libcmt:crt0dat.obj
 0001:0002b45e       __lockexit                 0042c45e f   libcmt:crt0dat.obj
 0001:0002b467       __unlockexit               0042c467 f   libcmt:crt0dat.obj
 0001:0002b4a6       __cinit                    0042c4a6 f   libcmt:crt0dat.obj
 0001:0002b5d3       _exit                      0042c5d3 f   libcmt:crt0dat.obj
 0001:0002b5e4       __exit                     0042c5e4 f   libcmt:crt0dat.obj
 0001:0002b5f5       __cexit                    0042c5f5 f   libcmt:crt0dat.obj
 0001:0002b604       __c_exit                   0042c604 f   libcmt:crt0dat.obj
 0001:0002b613       __strdup                   0042c613 f   libcmt:strdup.obj
 0001:0002b63e       ??_L@YGXPAXIHP6EX0@Z1@Z    0042c63e f   libcmt:ehvecctr.obj
 0001:0002b6a0       __errno                    0042c6a0 f   libcmt:dosmap.obj
 0001:0002b6a9       ___doserrno                0042c6a9 f   libcmt:dosmap.obj
 0001:0002b6b2       __dosmaperr                0042c6b2 f   libcmt:dosmap.obj
 0001:0002b725       __mbsdec                   0042c725 f   libcmt:mbsdec.obj
 0001:0002b774       ___mbsspn_mt               0042c774 f   libcmt:mbsspn.obj
 0001:0002b7eb       __mbsspn                   0042c7eb f   libcmt:mbsspn.obj
 0001:0002b812       ___mbscspn_mt              0042c812 f   libcmt:mbscspn.obj
 0001:0002b889       __mbscspn                  0042c889 f   libcmt:mbscspn.obj
 0001:0002bb00       __mktime64                 0042cb00 f   libcmt:mktime64.obj
 0001:0002bb0d       __mkgmtime64               0042cb0d f   libcmt:mktime64.obj
 0001:0002bb1a       ___security_init_cookie    0042cb1a f   libcmt:seccinit.obj
 0001:0002bb80       ___security_error_handler  0042cb80 f   libcmt:secfail.obj
 0001:0002bccb       __set_security_error_handler 0042cccb f   libcmt:secfail.obj
 0001:0002bcdb       ___buffer_overrun          0042ccdb f   libcmt:secfail.obj
 0001:0002bce7       ___set_buffer_overrun_handler 0042cce7 f   libcmt:secfail.obj
 0001:0002bcf7       ___isctype_mt              0042ccf7 f   libcmt:isctype.obj
 0001:0002bd6e       __isctype                  0042cd6e f   libcmt:isctype.obj
 0001:0002bd95       ____setlc_active_func      0042cd95 f   libcmt:setlocal.obj
 0001:0002bd9b       ____unguarded_readlc_active_add_func 0042cd9b f   libcmt:setlocal.obj
 0001:0002bda1       ___freetlocinfo            0042cda1 f   libcmt:setlocal.obj
 0001:0002bf32       ___init_dummy              0042cf32 f   libcmt:setlocal.obj
 0001:0002bf35       __strcats                  0042cf35 f   libcmt:setlocal.obj
 0001:0002bf59       ___lc_strtolc              0042cf59 f   libcmt:setlocal.obj
 0001:0002c035       ___lc_lctostr              0042d035 f   libcmt:setlocal.obj
 0001:0002c083       ___updatetlocinfo          0042d083 f   libcmt:setlocal.obj
 0001:0002c198       __expandlocale             0042d198 f   libcmt:setlocal.obj
 0001:0002c769       _setlocale                 0042d769 f   libcmt:setlocal.obj
 0001:0002c8c3       ___crtTlsAlloc@4           0042d8c3 f   libcmt:tidtable.obj
 0001:0002c8cc       __mtterm                   0042d8cc f   libcmt:tidtable.obj
 0001:0002c8e9       __initptd                  0042d8e9 f   libcmt:tidtable.obj
 0001:0002c8fc       __getptd                   0042d8fc f   libcmt:tidtable.obj
 0001:0002c96d       __freefls@4                0042d96d f   libcmt:tidtable.obj
 0001:0002cab4       __freeptd                  0042dab4 f   libcmt:tidtable.obj
 0001:0002cae3       ___threadid                0042dae3 f   libcmt:tidtable.obj
 0001:0002cae9       ___threadhandle            0042dae9 f   libcmt:tidtable.obj
 0001:0002caef       __mtinit                   0042daef f   libcmt:tidtable.obj
 0001:0002cbe0       _strcmp                    0042dbe0 f   libcmt:strcmp.obj
 0001:0002cc70       __aulldiv                  0042dc70 f   libcmt:ulldiv.obj
 0001:0002cd45       ___FrameUnwindToState      0042dd45 f   libcmt:frame.obj
 0001:0002ce43       ___DestructExceptionObject 0042de43 f   libcmt:frame.obj
 0001:0002cea7       ?__uncaught_exception@@YA_NXZ 0042dea7 f   libcmt:frame.obj
 0001:0002ceba       ___CxxRegisterExceptionObject 0042deba f   libcmt:frame.obj
 0001:0002cf5d       ___CxxDetectRethrow        0042df5d f   libcmt:frame.obj
 0001:0002cf95       ___CxxUnregisterExceptionObject 0042df95 f   libcmt:frame.obj
 0001:0002d033       ___CxxQueryExceptionSize   0042e033 f   libcmt:frame.obj
 0001:0002d037       ___CxxCallUnwindDtor       0042e037 f   libcmt:frame.obj
 0001:0002d065       ___CxxCallUnwindVecDtor    0042e065 f   libcmt:frame.obj
 0001:0002d3dc       ___CxxExceptionFilter      0042e3dc f   libcmt:frame.obj
 0001:0002d82a       ___InternalCxxFrameHandler 0042e82a f   libcmt:frame.obj
 0001:0002d8cc       ?terminate@@YAXXZ          0042e8cc f   libcmt:hooks.obj
 0001:0002d901       ?unexpected@@YAXXZ         0042e901 f   libcmt:hooks.obj
 0001:0002d919       ?_inconsistency@@YAXXZ     0042e919 f   libcmt:hooks.obj
 0001:0002d950       __CallSettingFrame@12      0042e950 f   libcmt:lowhelpr.obj
 0001:0002d977       __NLG_Return               0042e977     libcmt:lowhelpr.obj
 0001:0002d9a0       _strcpy                    0042e9a0 f   libcmt:strcat.obj
 0001:0002d9b0       _strcat                    0042e9b0 f   libcmt:strcat.obj
 0001:0002e07f       ___tzset                   0042f07f f   libcmt:tzset.obj
 0001:0002e0cb       __tzset                    0042f0cb f   libcmt:tzset.obj
 0001:0002e100       __isindst                  0042f100 f   libcmt:tzset.obj
 0001:0002e140       ___ascii_stricmp           0042f140 f   libcmt:_stricmp.obj
 0001:0002e18e       __gmtime64                 0042f18e f   libcmt:gmtime64.obj
 0001:0002e3c0       __allrem                   0042f3c0 f   libcmt:llrem.obj
 0001:0002e472       ?__CxxUnhandledExceptionFilter@@YGJPAU_EXCEPTION_POINTERS@@@Z 0042f472 f   libcmt:unhandld.obj
 0001:0002e4c0       ?__CxxSetUnhandledExceptionFilter@@YAHXZ 0042f4c0 f   libcmt:unhandld.obj
 0001:0002e4d3       ?__CxxRestoreUnhandledExceptionFilter@@YAXXZ 0042f4d3 f   libcmt:unhandld.obj
 0001:0002e4e0       __mtinitlocks              0042f4e0 f   libcmt:mlock.obj
 0001:0002e529       __mtdeletelocks            0042f529 f   libcmt:mlock.obj
 0001:0002e57e       __unlock                   0042f57e f   libcmt:mlock.obj
 0001:0002e593       __lockerr_exit             0042f593 f   libcmt:mlock.obj
 0001:0002e5ab       __mtinitlocknum            0042f5ab f   libcmt:mlock.obj
 0001:0002e64b       __lock                     0042f64b f   libcmt:mlock.obj
 0001:0002e67c       __forcdecpt                0042f67c f   libcmt:cvt.obj
 0001:0002e6b8       __cropzeros                0042f6b8 f   libcmt:cvt.obj
 0001:0002e703       __positive                 0042f703 f   libcmt:cvt.obj
 0001:0002e71d       __fassign                  0042f71d f   libcmt:cvt.obj
 0001:0002e826       __cftoe                    0042f826 f   libcmt:cvt.obj
 0001:0002e932       __cftof                    0042f932 f   libcmt:cvt.obj
 0001:0002e999       __cftog                    0042f999 f   libcmt:cvt.obj
 0001:0002ea38       __cfltcvt                  0042fa38 f   libcmt:cvt.obj
 0001:0002ea89       __setdefaultprecision      0042fa89 f   libcmt:fp8.obj
 0001:0002ea9b       __ms_p5_test_fdiv          0042fa9b f   libcmt:testfdiv.obj
 0001:0002eadb       __ms_p5_mp_test_fdiv       0042fadb f   libcmt:testfdiv.obj
 0001:0002eb04       __close_lk                 0042fb04 f   libcmt:close.obj
 0001:0002eb87       __close                    0042fb87 f   libcmt:close.obj
 0001:0002ec22       __freebuf                  0042fc22 f   libcmt:_freebuf.obj
 0001:0002ec4d       ___iob_func                0042fc4d f   libcmt:_file.obj
 0001:0002ec53       ___initstdio               0042fc53 f   libcmt:_file.obj
 0001:0002ecfc       ___endstdio                0042fcfc f   libcmt:_file.obj
 0001:0002ed10       __lock_file                0042fd10 f   libcmt:_file.obj
 0001:0002ed3f       __lock_file2               0042fd3f f   libcmt:_file.obj
 0001:0002ed62       __unlock_file              0042fd62 f   libcmt:_file.obj
 0001:0002ed91       __unlock_file2             0042fd91 f   libcmt:_file.obj
 0001:0002edb4       __stbuf                    0042fdb4 f   libcmt:_sftbuf.obj
 0001:0002ee3c       __ftbuf                    0042fe3c f   libcmt:_sftbuf.obj
 0001:0002ef13       __output                   0042ff13 f   libcmt:output.obj
 0001:0002f6cf       __openfile                 004306cf f   libcmt:_open.obj
 0001:0002f837       __getstream                00430837 f   libcmt:stream.obj
 0001:0002f959       ___heap_select             00430959 f   libcmt:heapinit.obj
 0001:0002f973       __heap_init                00430973 f   libcmt:heapinit.obj
 0001:0002f9c4       __heap_term                004309c4 f   libcmt:heapinit.obj
 0001:0002fa43       __get_heap_handle          00430a43 f   libcmt:heapinit.obj
 0001:0002fa49       __get_sbh_threshold        00430a49 f   libcmt:sbheap.obj
 0001:0002fa5e       ___sbh_heap_init           00430a5e f   libcmt:sbheap.obj
 0001:0002faa6       ___sbh_find_block          00430aa6 f   libcmt:sbheap.obj
 0001:0002fad1       ___sbh_free_block          00430ad1 f   libcmt:sbheap.obj
 0001:0002fde9       ___sbh_alloc_new_region    00430de9 f   libcmt:sbheap.obj
 0001:0002fea0       ___sbh_alloc_new_group     00430ea0 f   libcmt:sbheap.obj
 0001:0002ffa6       ___sbh_resize_block        00430fa6 f   libcmt:sbheap.obj
 0001:00030285       ___sbh_heapmin             00431285 f   libcmt:sbheap.obj
 0001:00030356       ___sbh_heap_check          00431356 f   libcmt:sbheap.obj
 0001:0003066f       __set_sbh_threshold        0043166f f   libcmt:sbheap.obj
 0001:000306ca       ___sbh_alloc_block         004316ca f   libcmt:sbheap.obj
 0001:000309c6       ?_set_new_handler@@YAP6AHI@ZP6AHI@Z@Z 004319c6 f   libcmt:handler.obj
 0001:000309ea       ?_query_new_handler@@YAP6AHI@ZXZ 004319ea f   libcmt:handler.obj
 0001:000309f0       __callnewh                 004319f0 f   libcmt:handler.obj
 0001:00030a0b       __ValidateEH3RN            00431a0b f   libcmt:eh3valid.obj
 0001:00030c40       _strstr                    00431c40 f   libcmt:strstr.obj
 0001:00030ce2       ___crtLCMapStringA         00431ce2 f   libcmt:a_map.obj
 0001:000310b8       __flsbuf                   004320b8 f   libcmt:_flsbuf.obj
 0001:000311fd       __XcptFilter               004321fd f   libcmt:winxfltr.obj
 0001:00031361       ___CppXcptFilter           00432361 f   libcmt:winxfltr.obj
 0001:0003137c       _calloc                    0043237c f   libcmt:calloc.obj
 0001:00031460       _strrchr                   00432460 f   libcmt:strrchr.obj
 0001:000314e5       __input                    004324e5 f   libcmt:input.obj
 0001:00032310       __filbuf                   00433310 f   libcmt:_filbuf.obj
 0001:000323f1       __read_lk                  004333f1 f   libcmt:read.obj
 0001:000325ce       __read                     004335ce f   libcmt:read.obj
 0001:00032679       __lseek_lk                 00433679 f   libcmt:lseek.obj
 0001:000326ed       __lseek                    004336ed f   libcmt:lseek.obj
 0001:00032798       ___loctotime_t             00433798 f   libcmt:dtoxtime.obj
 0001:000328a6       __write_lk                 004338a6 f   libcmt:write.obj
 0001:00032a62       __write                    00433a62 f   libcmt:write.obj
 0001:00032b0d       __commit                   00433b0d f   libcmt:commit.obj
 0001:00032bc9       __filwbuf                  00433bc9 f   libcmt:_filwbuf.obj
 0001:00032cb5       ___mbtowc_mt               00433cb5 f   libcmt:mbtowc.obj
 0001:00032d75       _mbtowc                    00433d75 f   libcmt:mbtowc.obj
 0001:00032da0       __ungetc_lk                00433da0 f   libcmt:ungetc.obj
 0001:00032e0c       _ungetc                    00433e0c f   libcmt:ungetc.obj
 0001:00032e51       ___pwctype_func            00433e51 f   libcmt:ctype.obj
 0001:00032e57       ___pctype_func             00433e57 f   libcmt:ctype.obj
 0001:00032e5d       __ioinit                   00433e5d f   libcmt:ioinit.obj
 0001:0003305b       __ioterm                   0043405b f   libcmt:ioinit.obj
 0001:000330a7       __set_osfhnd               004340a7 f   libcmt:osfinfo.obj
 0001:00033123       __free_osfhnd              00434123 f   libcmt:osfinfo.obj
 0001:000331a2       __get_osfhandle            004341a2 f   libcmt:osfinfo.obj
 0001:000331e3       __lock_fhandle             004341e3 f   libcmt:osfinfo.obj
 0001:00033283       __unlock_fhandle           00434283 f   libcmt:osfinfo.obj
 0001:000332a5       __alloc_osfhnd             004342a5 f   libcmt:osfinfo.obj
 0001:00033421       __open_osfhandle           00434421 f   libcmt:osfinfo.obj
 0001:000334e8       __fltin2                   004344e8 f   libcmt:cfin.obj
 0001:00033589       _isalpha                   00434589 f   libcmt:_ctype.obj
 0001:000335c8       _isupper                   004345c8 f   libcmt:_ctype.obj
 0001:00033602       _islower                   00434602 f   libcmt:_ctype.obj
 0001:0003363c       _isdigit                   0043463c f   libcmt:_ctype.obj
 0001:00033676       _isxdigit                  00434676 f   libcmt:_ctype.obj
 0001:000336b5       _isspace                   004346b5 f   libcmt:_ctype.obj
 0001:000336ef       _ispunct                   004346ef f   libcmt:_ctype.obj
 0001:00033729       _isalnum                   00434729 f   libcmt:_ctype.obj
 0001:00033768       _isprint                   00434768 f   libcmt:_ctype.obj
 0001:000337a7       _isgraph                   004347a7 f   libcmt:_ctype.obj
 0001:000337e6       _iscntrl                   004347e6 f   libcmt:_ctype.obj
 0001:00033820       ___isascii                 00434820 f   libcmt:_ctype.obj
 0001:0003382d       ___toascii                 0043482d f   libcmt:_ctype.obj
 0001:00033835       ___iscsymf                 00434835 f   libcmt:_ctype.obj
 0001:0003384f       ___iscsym                  0043484f f   libcmt:_ctype.obj
 0001:00033869       ___iswctype_mt             00434869 f   libcmt:iswctype.obj
 0001:000338c0       _iswctype                  004348c0 f   libcmt:iswctype.obj
 0001:00033912       _is_wctype                 00434912 f   libcmt:iswctype.obj
 0001:00033917       ___crtGetStringTypeA       00434917 f   libcmt:a_str.obj
 0001:00033ad1       __NMSG_WRITE               00434ad1 f   libcmt:crt0msg.obj
 0001:00033c49       __GET_RTERRMSG             00434c49 f   libcmt:crt0msg.obj
 0001:00033c73       __FF_MSGBANNER             00434c73 f   libcmt:crt0msg.obj
 0001:00033cac       __wincmdln                 00434cac f   libcmt:wincmdln.obj
 0001:00033d09       __setenvp                  00434d09 f   libcmt:stdenvp.obj
 0001:00033f3c       __setargv                  00434f3c f   libcmt:stdargv.obj
 0001:00033fde       ___crtGetEnvironmentStringsA 00434fde f   libcmt:a_env.obj
 0001:00034100       __RTC_Initialize           00435100 f   libcmt:initsect.obj
 0001:00034144       __RTC_Terminate            00435144 f   libcmt:initsect.obj
 0001:00034224       __woutput                  00435224 f   libcmt:woutput.obj
 0001:00034a10       _strspn                    00435a10 f   libcmt:strspn.obj
 0001:00034a60       _strcspn                   00435a60 f   libcmt:strcspn.obj
 0001:00034aa6       ___crtMessageBoxA          00435aa6 f   libcmt:crtmbox.obj
 0001:00034b9f       _localeconv                00435b9f f   libcmt:lconv.obj
 0001:00034f0c       ___free_lc_time            00435f0c f   libcmt:inittime.obj
 0001:0003509c       ___init_time               0043609c f   libcmt:inittime.obj
 0001:0003512e       ___free_lconv_num          0043612e f   libcmt:initnum.obj
 0001:0003518d       ___init_numeric            0043618d f   libcmt:initnum.obj
 0001:0003538d       ___free_lconv_mon          0043638d f   libcmt:initmon.obj
 0001:00035466       ___init_monetary           00436466 f   libcmt:initmon.obj
 0001:000356a5       ___init_ctype              004366a5 f   libcmt:initctyp.obj
 0001:00035893       ____mb_cur_max_func        00436893 f   libcmt:initctyp.obj
 0001:00035899       ____lc_codepage_func       00436899 f   libcmt:initctyp.obj
 0001:000358b2       ____lc_collate_cp_func     004368b2 f   libcmt:initctyp.obj
 0001:000358cb       ____lc_handle_func         004368cb f   libcmt:initctyp.obj
 0001:000358e4       ___init_collate            004368e4 f   libcmt:initcoll.obj
 0001:0003603a       ___get_qualified_locale    0043703a f   libcmt:getqloc.obj
 0001:000361f0       _strncmp                   004371f0 f   libcmt:strncmp.obj
 0001:00036230       _strpbrk                   00437230 f   libcmt:strpbrk.obj
 0001:00036270       ?_ValidateRead@@YAHPBXI@Z  00437270 f   libcmt:validate.obj
 0001:0003628c       ?_ValidateWrite@@YAHPAXI@Z 0043728c f   libcmt:validate.obj
 0001:000362a8       ?_ValidateExecute@@YAHP6GHXZ@Z 004372a8 f   libcmt:validate.obj
 0001:000362c0       _abort                     004372c0 f   libcmt:abort.obj
 0001:000362d8       __getenv_lk                004372d8 f   libcmt:getenv.obj
 0001:00036359       _getenv                    00437359 f   libcmt:getenv.obj
 0001:000363a8       ___crtInitCritSecAndSpinCount 004373a8 f   libcmt:initcrit.obj
 0001:00036433       __tolower                  00437433 f   libcmt:tolower.obj
 0001:0003643b       ___tolower_mt              0043743b f   libcmt:tolower.obj
 0001:00036503       _tolower                   00437503 f   libcmt:tolower.obj
 0001:00036525       __ZeroTail                 00437525 f   libcmt:intrncvt.obj
 0001:00036557       __IncMan                   00437557 f   libcmt:intrncvt.obj
 0001:000365a4       __RoundMan                 004375a4 f   libcmt:intrncvt.obj
 0001:00036616       __CopyMan                  00437616 f   libcmt:intrncvt.obj
 0001:00036631       __FillZeroMan              00437631 f   libcmt:intrncvt.obj
 0001:0003663d       __IsZeroMan                0043763d f   libcmt:intrncvt.obj
 0001:00036656       __ShrMan                   00437656 f   libcmt:intrncvt.obj
 0001:000366d1       __ld12cvt                  004376d1 f   libcmt:intrncvt.obj
 0001:00036829       __ld12tod                  00437829 f   libcmt:intrncvt.obj
 0001:0003683f       __ld12tof                  0043783f f   libcmt:intrncvt.obj
 0001:00036855       __ld12told                 00437855 f   libcmt:intrncvt.obj
 0001:000368d1       __atodbl                   004378d1 f   libcmt:intrncvt.obj
 0001:00036916       __atoldbl                  00437916 f   libcmt:intrncvt.obj
 0001:0003695c       __atoflt                   0043795c f   libcmt:intrncvt.obj
 0001:000369a1       __fptostr                  004379a1 f   libcmt:_fptostr.obj
 0001:00036a18       ___dtold                   00437a18 f   libcmt:cfout.obj
 0001:00036ad2       __fltout2                  00437ad2 f   libcmt:cfout.obj
 0001:00036b4a       __fptrap                   00437b4a f   libcmt:crt0fp.obj
 0001:00036b53       __fpreset                  00437b53 f   libcmt:ieee87.obj
 0001:00036cd7       __statusfp                 00437cd7 f   libcmt:ieee87.obj
 0001:00036ce7       __clearfp                  00437ce7 f   libcmt:ieee87.obj
 0001:00036cf8       __control87                00437cf8 f   libcmt:ieee87.obj
 0001:00036d2a       __controlfp                00437d2a f   libcmt:ieee87.obj
 0001:00036d40       __fcloseall                00437d40 f   libcmt:closeall.obj
 0001:00036ddb       __isatty                   00437ddb f   libcmt:isatty.obj
 0001:00036e05       ___wctomb_mt               00437e05 f   libcmt:wctomb.obj
 0001:00036e65       _wctomb                    00437e65 f   libcmt:wctomb.obj
 0001:00036e90       __aulldvrm                 00437e90 f   libcmt:ulldvrm.obj
 0001:0003720c       __open                     0043820c f   libcmt:open.obj
 0001:00037261       __sopen                    00438261 f   libcmt:open.obj
 0001:000372b6       ___ansicp                  004382b6 f   libcmt:convrtcp.obj
 0001:000372fd       ___convertcp               004382fd f   libcmt:convrtcp.obj
 0001:000374d7       __getbuf                   004384d7 f   libcmt:_getbuf.obj
 0001:0003751b       __lseeki64_lk              0043851b f   libcmt:lseeki64.obj
 0001:0003759e       __lseeki64                 0043859e f   libcmt:lseeki64.obj
 0001:0003765c       ___strgtold12              0043865c f   libcmt:strgtold.obj
 0001:00037a9c       ___STRINGTOLD              00438a9c f   libcmt:strgtold.obj
 0001:00037af1       ___crtGetStringTypeW       00438af1 f   libcmt:w_str.obj
 0001:00037d49       __ismbbkalnum              00438d49 f   libcmt:ismbbyte.obj
 0001:00037d5a       __ismbbkprint              00438d5a f   libcmt:ismbbyte.obj
 0001:00037d6b       __ismbbkpunct              00438d6b f   libcmt:ismbbyte.obj
 0001:00037d7c       __ismbbalnum               00438d7c f   libcmt:ismbbyte.obj
 0001:00037d90       __ismbbalpha               00438d90 f   libcmt:ismbbyte.obj
 0001:00037da4       __ismbbgraph               00438da4 f   libcmt:ismbbyte.obj
 0001:00037db8       __ismbbprint               00438db8 f   libcmt:ismbbyte.obj
 0001:00037dcc       __ismbbpunct               00438dcc f   libcmt:ismbbyte.obj
 0001:00037ddd       __ismbblead                00438ddd f   libcmt:ismbbyte.obj
 0001:00037dee       __ismbbtrail               00438dee f   libcmt:ismbbyte.obj
 0001:00037dff       __ismbbkana                00438dff f   libcmt:ismbbyte.obj
 0001:00037e26       __putwc_lk                 00438e26 f   libcmt:fputwc.obj
 0001:00037f00       _fputwc                    00438f00 f   libcmt:fputwc.obj
 0001:00037f48       _putwc                     00438f48 f   libcmt:fputwc.obj
 0001:00037f4d       ___getlocaleinfo           00438f4d f   libcmt:inithelp.obj
 0001:0003807d       __stricmp                  0043907d f   libcmt:stricmp.obj
 0001:000380e6       __strnicmp                 004390e6 f   libcmt:strnicmp.obj
 0001:000381a3       __itoa                     004391a3 f   libcmt:xtoa.obj
 0001:000381cd       __ltoa                     004391cd f   libcmt:xtoa.obj
 0001:000381f4       __ultoa                    004391f4 f   libcmt:xtoa.obj
 0001:0003827b       __i64toa                   0043927b f   libcmt:xtoa.obj
 0001:000382ac       __ui64toa                  004392ac f   libcmt:xtoa.obj
 0001:00038384       ___fpecode                 00439384 f   libcmt:winsig.obj
 0001:0003838d       ___pxcptinfoptrs           0043938d f   libcmt:winsig.obj
 0001:00038396       _signal                    00439396 f   libcmt:winsig.obj
 0001:00038537       _raise                     00439537 f   libcmt:winsig.obj
 0001:000386b0       __mbsnbicoll               004396b0 f   libcmt:mbsnbico.obj
 0001:000386fe       ___wtomb_environ           004396fe f   libcmt:wtombenv.obj
 0001:0003878e       ___addl                    0043978e f   libcmt:mantold.obj
 0001:000387af       ___add_12                  004397af f   libcmt:mantold.obj
 0001:0003880d       ___shl_12                  0043980d f   libcmt:mantold.obj
 0001:0003883b       ___shr_12                  0043983b f   libcmt:mantold.obj
 0001:00038868       ___mtold12                 00439868 f   libcmt:mantold.obj
 0001:00038950       _$I10_OUTPUT               00439950 f   libcmt:x10fout.obj
 0001:00038bec       __chsize_lk                00439bec f   libcmt:chsize.obj
 0001:00038d31       __chsize                   00439d31 f   libcmt:chsize.obj
 0001:00038dc8       ___ld12mul                 00439dc8 f   libcmt:tenpow.obj
 0001:00038ffe       ___multtenpow12            00439ffe f   libcmt:tenpow.obj
 0001:0003908c       __flswbuf                  0043a08c f   libcmt:_flswbuf.obj
 0001:000391b4       ___crtGetLocaleInfoW       0043a1b4 f   libcmt:w_loc.obj
 0001:000392e4       ___crtGetLocaleInfoA       0043a2e4 f   libcmt:a_loc.obj
 0001:00039430       ___ascii_strnicmp          0043a430 f   libcmt:_strnicm.obj
 0001:000394ad       ___crtCompareStringA       0043a4ad f   libcmt:a_cmp.obj
 0001:000398e5       ___crtsetenv               0043a8e5 f   libcmt:setenv.obj
 0001:00039abb       __setmode_lk               0043aabb f   libcmt:setmode.obj
 0001:00039b27       __setmode                  0043ab27 f   libcmt:setmode.obj
 0001:00039bbe       _InitCommonControls@0      0043abbe f   comctl32:COMCTL32.dll
 0001:00039bc4       _PathFindExtensionA@4      0043abc4 f   shlwapi:SHLWAPI.dll
 0001:00039bca       _PathRemoveExtensionA@4    0043abca f   shlwapi:SHLWAPI.dll
 0001:00039bd0       _PathFindFileNameA@4       0043abd0 f   shlwapi:SHLWAPI.dll
 0001:00039bd6       _PathStripToRootA@4        0043abd6 f   shlwapi:SHLWAPI.dll
 0001:00039bdc       _PathIsUNCA@4              0043abdc f   shlwapi:SHLWAPI.dll
 0001:00039be2       ?_Xran@_String_base@std@@QBEXXZ 0043abe2 f   libcpmt:string.obj
 0001:00039c22       ?_Xlen@_String_base@std@@QBEXXZ 0043ac22 f   libcpmt:string.obj
 0001:00039c64       ?ffl_purecall_handler@?A0x3463d5ea@@$$FYAXXZ 0043ac64 f   ffl_dumpr:ffl_dump_unexception_filter.obj
 0001:00039c80       ?ffl_purecall_handler@?A0x3463d5ea@@YAXXZ 0043ac80 f   ffl_dumpr:ffl_dump_unexception_filter.obj
 0001:00039c88       ?make_file_name@?A0x3463d5ea@@$$FYAXPADIPBD1@Z 0043ac88 f   ffl_dumpr:ffl_dump_unexception_filter.obj
 0001:00039e30       ?make_file_name@?A0x3463d5ea@@YAXPADIPBD1@Z 0043ae30 f   ffl_dumpr:ffl_dump_unexception_filter.obj
 0001:00039e38       ?record@?A0x3463d5ea@@$$FYAXPAUffl_dump_param_t@@PBD@Z 0043ae38 f   ffl_dumpr:ffl_dump_unexception_filter.obj
 0001:00039ef0       ?record@?A0x3463d5ea@@YAXPAUffl_dump_param_t@@PBD@Z 0043aef0 f   ffl_dumpr:ffl_dump_unexception_filter.obj
 0001:00039ef8       ?ffl_dump_recod_function@?A0x3463d5ea@@$$FYGIPAX@Z 0043aef8 f   ffl_dumpr:ffl_dump_unexception_filter.obj
 0001:00039f20       ?ffl_dump_recod_function@?A0x3463d5ea@@YGIPAX@Z 0043af20 f   ffl_dumpr:ffl_dump_unexception_filter.obj
 0001:00039f28       ??1ffl_dump_unexception_filter@@$$FQAE@XZ 0043af28 f   ffl_dumpr:ffl_dump_unexception_filter.obj
 0001:00039f40       ??1ffl_dump_unexception_filter@@QAE@XZ 0043af40 f   ffl_dumpr:ffl_dump_unexception_filter.obj
 0001:00039f48       ?top_level_filter@ffl_dump_unexception_filter@@$$FCGJPAU_EXCEPTION_POINTERS@@@Z 0043af48 f   ffl_dumpr:ffl_dump_unexception_filter.obj
 0001:00039fd0       ?top_level_filter@ffl_dump_unexception_filter@@CGJPAU_EXCEPTION_POINTERS@@@Z 0043afd0 f   ffl_dumpr:ffl_dump_unexception_filter.obj
 0001:00039fd8       ?do_snapping@ffl_dump_unexception_filter@@$$FCAXHPAU_EXCEPTION_POINTERS@@@Z 0043afd8 f   ffl_dumpr:ffl_dump_unexception_filter.obj
 0001:0003a020       ?do_snapping@ffl_dump_unexception_filter@@CAXHPAU_EXCEPTION_POINTERS@@@Z 0043b020 f   ffl_dumpr:ffl_dump_unexception_filter.obj
 0001:0003a028       ?install@ffl_dump_unexception_filter@@$$FSAXH@Z 0043b028 f   ffl_dumpr:ffl_dump_unexception_filter.obj
 0001:0003a060       ?install@ffl_dump_unexception_filter@@SAXH@Z 0043b060 f   ffl_dumpr:ffl_dump_unexception_filter.obj
 0001:0003a068       ?snapping@ffl_dump_unexception_filter@@$$FSAXH@Z 0043b068 f   ffl_dumpr:ffl_dump_unexception_filter.obj
 0001:0003a0c0       ?snapping@ffl_dump_unexception_filter@@SAXH@Z 0043b0c0 f   ffl_dumpr:ffl_dump_unexception_filter.obj
 0001:0003a0c8       ??0ffl_dump_unexception_filter@@$$FQAE@H@Z 0043b0c8 f   ffl_dumpr:ffl_dump_unexception_filter.obj
 0001:0003a100       ??0ffl_dump_unexception_filter@@QAE@H@Z 0043b100 f   ffl_dumpr:ffl_dump_unexception_filter.obj
 0001:0003a108       ??1ffl_date_time@@$$FQAE@XZ 0043b108 f   ffl_dumpr:ffl_date_time.obj
 0001:0003a140       ??1ffl_date_time@@QAE@XZ   0043b140 f   ffl_dumpr:ffl_date_time.obj
 0001:0003a148       ?update@ffl_date_time@@$$FQAEXXZ 0043b148 f   ffl_dumpr:ffl_date_time.obj
 0001:0003a1b0       ?update@ffl_date_time@@QAEXXZ 0043b1b0 f   ffl_dumpr:ffl_date_time.obj
 0001:0003a1b8       ?year@ffl_date_time@@$$FQBEHXZ 0043b1b8 f   ffl_dumpr:ffl_date_time.obj
 0001:0003a1d0       ?year@ffl_date_time@@QBEHXZ 0043b1d0 f   ffl_dumpr:ffl_date_time.obj
 0001:0003a1d8       ?month@ffl_date_time@@$$FQBEHXZ 0043b1d8 f   ffl_dumpr:ffl_date_time.obj
 0001:0003a1f0       ?month@ffl_date_time@@QBEHXZ 0043b1f0 f   ffl_dumpr:ffl_date_time.obj
 0001:0003a1f8       ?day@ffl_date_time@@$$FQBEHXZ 0043b1f8 f   ffl_dumpr:ffl_date_time.obj
 0001:0003a210       ?day@ffl_date_time@@QBEHXZ 0043b210 f   ffl_dumpr:ffl_date_time.obj
 0001:0003a218       ?hour@ffl_date_time@@$$FQBEHXZ 0043b218 f   ffl_dumpr:ffl_date_time.obj
 0001:0003a230       ?hour@ffl_date_time@@QBEHXZ 0043b230 f   ffl_dumpr:ffl_date_time.obj
 0001:0003a238       ?minute@ffl_date_time@@$$FQBEHXZ 0043b238 f   ffl_dumpr:ffl_date_time.obj
 0001:0003a250       ?minute@ffl_date_time@@QBEHXZ 0043b250 f   ffl_dumpr:ffl_date_time.obj
 0001:0003a258       ?second@ffl_date_time@@$$FQBEHXZ 0043b258 f   ffl_dumpr:ffl_date_time.obj
 0001:0003a270       ?second@ffl_date_time@@QBEHXZ 0043b270 f   ffl_dumpr:ffl_date_time.obj
 0001:0003a278       ?millisecond@ffl_date_time@@$$FQBEHXZ 0043b278 f   ffl_dumpr:ffl_date_time.obj
 0001:0003a290       ?millisecond@ffl_date_time@@QBEHXZ 0043b290 f   ffl_dumpr:ffl_date_time.obj
 0001:0003a298       ?day_of_week@ffl_date_time@@$$FQBEHXZ 0043b298 f   ffl_dumpr:ffl_date_time.obj
 0001:0003a2b0       ?day_of_week@ffl_date_time@@QBEHXZ 0043b2b0 f   ffl_dumpr:ffl_date_time.obj
 0001:0003a2b8       ??0ffl_date_time@@$$FQAE@XZ 0043b2b8 f   ffl_dumpr:ffl_date_time.obj
 0001:0003a300       ??0ffl_date_time@@QAE@XZ   0043b300 f   ffl_dumpr:ffl_date_time.obj
 0001:0003a308       ?ffl_vsnprintf_a@@$$FYAHPADIPBD0@Z 0043b308 f   ffl_dumpr:ffl_c_string.obj
 0001:0003a330       ?ffl_vsnprintf_a@@YAHPADIPBD0@Z 0043b330 f   ffl_dumpr:ffl_c_string.obj
 0001:0003a340       ?ffl_snprintf_a@@YAHPADIPBDZZ 0043b340 f   ffl_dumpr:ffl_c_string.obj
 0001:0003a388       ?ffl_strncpy_a@@$$FYAHPADIPBDI@Z 0043b388 f   ffl_dumpr:ffl_c_string.obj
 0001:0003a3b0       ?ffl_strncpy_a@@YAHPADIPBDI@Z 0043b3b0 f   ffl_dumpr:ffl_c_string.obj
 0001:0003a3b8       ?ffl_splitpath_a@@$$FYAHPBDPADI1I1I1I@Z 0043b3b8 f   ffl_dumpr:ffl_c_string.obj
 0001:0003a3e0       ?ffl_splitpath_a@@YAHPBDPADI1I1I1I@Z 0043b3e0 f   ffl_dumpr:ffl_c_string.obj
 0001:0003a3e8       ?ffl_makepath_a@@$$FYAHPADIPBD111@Z 0043b3e8 f   ffl_dumpr:ffl_c_string.obj
 0001:0003a410       ?ffl_makepath_a@@YAHPADIPBD111@Z 0043b410 f   ffl_dumpr:ffl_c_string.obj
 0001:0003a418       ?ffl_vsnprintf_w@@$$FYAHPAGIPBGPAD@Z 0043b418 f   ffl_dumpr:ffl_c_string.obj
 0001:0003a440       ?ffl_vsnprintf_w@@YAHPAGIPBGPAD@Z 0043b440 f   ffl_dumpr:ffl_c_string.obj
 0001:0003a450       ?ffl_snprintf_w@@YAHPAGIPBGZZ 0043b450 f   ffl_dumpr:ffl_c_string.obj
 0001:0003a498       ?ffl_strncpy_w@@$$FYAHPAGIPBGI@Z 0043b498 f   ffl_dumpr:ffl_c_string.obj
 0001:0003a4c0       ?ffl_strncpy_w@@YAHPAGIPBGI@Z 0043b4c0 f   ffl_dumpr:ffl_c_string.obj
 0001:0003a4c8       ?ffl_splitpath_w@@$$FYAHPBGPAGI1I1I1I@Z 0043b4c8 f   ffl_dumpr:ffl_c_string.obj
 0001:0003a4f0       ?ffl_splitpath_w@@YAHPBGPAGI1I1I1I@Z 0043b4f0 f   ffl_dumpr:ffl_c_string.obj
 0001:0003a4f8       ?ffl_makepath_w@@$$FYAHPAGIPBG111@Z 0043b4f8 f   ffl_dumpr:ffl_c_string.obj
 0001:0003a520       ?ffl_makepath_w@@YAHPAGIPBG111@Z 0043b520 f   ffl_dumpr:ffl_c_string.obj
 0001:0003a528       ??0ffl_dump_report@@$$FQAE@XZ 0043b528 f   ffl_dumpr:ffl_dump_report.obj
 0001:0003a560       ??0ffl_dump_report@@QAE@XZ 0043b560 f   ffl_dumpr:ffl_dump_report.obj
 0001:0003a568       ??1ffl_dump_report@@$$FQAE@XZ 0043b568 f   ffl_dumpr:ffl_dump_report.obj
 0001:0003a580       ??1ffl_dump_report@@QAE@XZ 0043b580 f   ffl_dumpr:ffl_dump_report.obj
 0001:0003a588       ?get_logical_address@ffl_dump_report@@$$FAAE_NPAXPADKPAK2@Z 0043b588 f   ffl_dumpr:ffl_dump_report.obj
 0001:0003a640       ?get_logical_address@ffl_dump_report@@AAE_NPAXPADKPAK2@Z 0043b640 f   ffl_dumpr:ffl_dump_report.obj
 0001:0003a648       ?inti_imagehlp_func@ffl_dump_report@@$$FAAE_NPAUHINSTANCE__@@@Z 0043b648 f   ffl_dumpr:ffl_dump_report.obj
 0001:0003a700       ?inti_imagehlp_func@ffl_dump_report@@AAE_NPAUHINSTANCE__@@@Z 0043b700 f   ffl_dumpr:ffl_dump_report.obj
 0001:0003a708       ?intel_stack_walk@ffl_dump_report@@$$FAAEXPAVffl_text_file@@PAU_CONTEXT@@@Z 0043b708 f   ffl_dumpr:ffl_dump_report.obj
 0001:0003a7f0       ?intel_stack_walk@ffl_dump_report@@AAEXPAVffl_text_file@@PAU_CONTEXT@@@Z 0043b7f0 f   ffl_dumpr:ffl_dump_report.obj
 0001:0003a7f8       ?imagehlp_stack_walk@ffl_dump_report@@$$FAAEXPAVffl_text_file@@PAU_CONTEXT@@PAX@Z 0043b7f8 f   ffl_dumpr:ffl_dump_report.obj
 0001:0003a960       ?imagehlp_stack_walk@ffl_dump_report@@AAEXPAVffl_text_file@@PAU_CONTEXT@@PAX@Z 0043b960 f   ffl_dumpr:ffl_dump_report.obj
 0001:0003a968       ?generate_exception@ffl_dump_report@@$$FAAEXPAVffl_text_file@@PAUffl_dump_param_t@@@Z 0043b968 f   ffl_dumpr:ffl_dump_report.obj
 0001:0003ab00       ?generate_exception@ffl_dump_report@@AAEXPAVffl_text_file@@PAUffl_dump_param_t@@@Z 0043bb00 f   ffl_dumpr:ffl_dump_report.obj
 0001:0003ab08       ?report@ffl_dump_report@@$$FAAEXPAVffl_text_file@@PAUffl_dump_param_t@@@Z 0043bb08 f   ffl_dumpr:ffl_dump_report.obj
 0001:0003ab60       ?report@ffl_dump_report@@AAEXPAVffl_text_file@@PAUffl_dump_param_t@@@Z 0043bb60 f   ffl_dumpr:ffl_dump_report.obj
 0001:0003ab68       ?dump@ffl_dump_report@@$$FQAEXPBDPAUffl_dump_param_t@@@Z 0043bb68 f   ffl_dumpr:ffl_dump_report.obj
 0001:0003abe0       ?dump@ffl_dump_report@@QAEXPBDPAUffl_dump_param_t@@@Z 0043bbe0 f   ffl_dumpr:ffl_dump_report.obj
 0001:0003abe8       ?system_information_log@ffl_dump_log@@$$FAAEXPAVffl_text_file@@@Z 0043bbe8 f   ffl_dumpr:ffl_dump_log.obj
 0001:0003adc0       ?system_information_log@ffl_dump_log@@AAEXPAVffl_text_file@@@Z 0043bdc0 f   ffl_dumpr:ffl_dump_log.obj
 0001:0003adc8       ?register_log@ffl_dump_log@@$$FAAEXPAVffl_text_file@@PAU_CONTEXT@@@Z 0043bdc8 f   ffl_dumpr:ffl_dump_log.obj
 0001:0003ae90       ?register_log@ffl_dump_log@@AAEXPAVffl_text_file@@PAU_CONTEXT@@@Z 0043be90 f   ffl_dumpr:ffl_dump_log.obj
 0001:0003aea0       ?stack_log@ffl_dump_log@@AAEXPAVffl_text_file@@PAK@Z 0043bea0 f   ffl_dumpr:ffl_dump_log.obj
 0001:0003b070       ?print_module_info@ffl_dump_log@@$$FAAEXPAVffl_text_file@@PBD@Z 0043c070 f   ffl_dumpr:ffl_dump_log.obj
 0001:0003b130       ?print_module_info@ffl_dump_log@@AAEXPAVffl_text_file@@PBD@Z 0043c130 f   ffl_dumpr:ffl_dump_log.obj
 0001:0003b138       ?module_info_log@ffl_dump_log@@$$FAAE_NPAVffl_text_file@@PAUHINSTANCE__@@H@Z 0043c138 f   ffl_dumpr:ffl_dump_log.obj
 0001:0003b270       ?module_info_log@ffl_dump_log@@AAE_NPAVffl_text_file@@PAUHINSTANCE__@@H@Z 0043c270 f   ffl_dumpr:ffl_dump_log.obj
 0001:0003b278       ?module_list_log@ffl_dump_log@@$$FAAEXPAVffl_text_file@@@Z 0043c278 f   ffl_dumpr:ffl_dump_log.obj
 0001:0003b320       ?module_list_log@ffl_dump_log@@AAEXPAVffl_text_file@@@Z 0043c320 f   ffl_dumpr:ffl_dump_log.obj
 0001:0003b328       ?log@ffl_dump_log@@$$FAAEXPAVffl_text_file@@PAUffl_dump_param_t@@@Z 0043c328 f   ffl_dumpr:ffl_dump_log.obj
 0001:0003b4d0       ?log@ffl_dump_log@@AAEXPAVffl_text_file@@PAUffl_dump_param_t@@@Z 0043c4d0 f   ffl_dumpr:ffl_dump_log.obj
 0001:0003b4d8       ?dump@ffl_dump_log@@$$FQAEXPBDPAUffl_dump_param_t@@@Z 0043c4d8 f   ffl_dumpr:ffl_dump_log.obj
 0001:0003b550       ?dump@ffl_dump_log@@QAEXPBDPAUffl_dump_param_t@@@Z 0043c550 f   ffl_dumpr:ffl_dump_log.obj
 0001:0003b558       ?_tcsrchr@@$$J0YAPADPBDI@Z 0043c558 f i ffl_dumpr:ffl_dump_mini.obj
 0001:0003b56c       ?find_dll@ffl_dump_mini@@$$FAAEPAUHINSTANCE__@@XZ 0043c56c f   ffl_dumpr:ffl_dump_mini.obj
 0001:0003b5e0       ?find_dll@ffl_dump_mini@@AAEPAUHINSTANCE__@@XZ 0043c5e0 f   ffl_dumpr:ffl_dump_mini.obj
 0001:0003b5e8       ?write@ffl_dump_mini@@$$FAAEXPAXPAUffl_dump_param_t@@@Z 0043c5e8 f   ffl_dumpr:ffl_dump_mini.obj
 0001:0003b670       ?write@ffl_dump_mini@@AAEXPAXPAUffl_dump_param_t@@@Z 0043c670 f   ffl_dumpr:ffl_dump_mini.obj
 0001:0003b678       ?dump@ffl_dump_mini@@$$FQAEXPBDPAUffl_dump_param_t@@@Z 0043c678 f   ffl_dumpr:ffl_dump_mini.obj
 0001:0003b6c0       ?dump@ffl_dump_mini@@QAEXPBDPAUffl_dump_param_t@@@Z 0043c6c0 f   ffl_dumpr:ffl_dump_mini.obj
 0001:0003b6c8       ?ffl_get_win_version@@$$FYAXPADI0I@Z 0043c6c8 f   ffl_dumpr:ffl_dump_common.obj
 0001:0003b970       ?ffl_get_win_version@@YAXPADI0I@Z 0043c970 f   ffl_dumpr:ffl_dump_common.obj
 0001:0003b978       ?ffl_formating_time@@$$FYAXPADIPAU_FILETIME@@@Z 0043c978 f   ffl_dumpr:ffl_dump_common.obj
 0001:0003b9e0       ?ffl_formating_time@@YAXPADIPAU_FILETIME@@@Z 0043c9e0 f   ffl_dumpr:ffl_dump_common.obj
 0001:0003b9e8       ?ffl_get_exception_string@@$$FYAPBDK@Z 0043c9e8 f   ffl_dumpr:ffl_dump_common.obj
 0001:0003bf00       ?ffl_get_exception_string@@YAPBDK@Z 0043cf00 f   ffl_dumpr:ffl_dump_common.obj
 0001:0003bf10       ?ffl_dump_print@@YAXPAVffl_text_file@@PBDZZ 0043cf10 f   ffl_dumpr:ffl_dump_common.obj
 0001:0003bfc0       ??0ffl_text_file@@$$FQAE@XZ 0043cfc0 f   ffl_dumpr:ffl_text_file.obj
 0001:0003bfe0       ??0ffl_text_file@@QAE@XZ   0043cfe0 f   ffl_dumpr:ffl_text_file.obj
 0001:0003bfe8       ?create@ffl_text_file@@$$FQAE_NPBDII@Z 0043cfe8 f   ffl_dumpr:ffl_text_file.obj
 0001:0003c010       ?create@ffl_text_file@@QAE_NPBDII@Z 0043d010 f   ffl_dumpr:ffl_text_file.obj
 0001:0003c018       ?open@ffl_text_file@@$$FQAE_NPBDII@Z 0043d018 f   ffl_dumpr:ffl_text_file.obj
 0001:0003c040       ?open@ffl_text_file@@QAE_NPBDII@Z 0043d040 f   ffl_dumpr:ffl_text_file.obj
 0001:0003c048       ?close@ffl_text_file@@$$FQAEXXZ 0043d048 f   ffl_dumpr:ffl_text_file.obj
 0001:0003c060       ?close@ffl_text_file@@QAEXXZ 0043d060 f   ffl_dumpr:ffl_text_file.obj
 0001:0003c068       ?opened@ffl_text_file@@$$FQAE_NXZ 0043d068 f   ffl_dumpr:ffl_text_file.obj
 0001:0003c080       ?opened@ffl_text_file@@QAE_NXZ 0043d080 f   ffl_dumpr:ffl_text_file.obj
 0001:0003c088       ?write_text@ffl_text_file@@$$FQAEIPBDI@Z 0043d088 f   ffl_dumpr:ffl_text_file.obj
 0001:0003c0c0       ?write_text@ffl_text_file@@QAEIPBDI@Z 0043d0c0 f   ffl_dumpr:ffl_text_file.obj
 0001:0003c0c8       ?read_text@ffl_text_file@@$$FQAEIPADI@Z 0043d0c8 f   ffl_dumpr:ffl_text_file.obj
 0001:0003c100       ?read_text@ffl_text_file@@QAEIPADI@Z 0043d100 f   ffl_dumpr:ffl_text_file.obj
 0001:0003c108       ?read_line@ffl_text_file@@$$FQAEIPADI@Z 0043d108 f   ffl_dumpr:ffl_text_file.obj
 0001:0003c190       ?read_line@ffl_text_file@@QAEIPADI@Z 0043d190 f   ffl_dumpr:ffl_text_file.obj
 0001:0003c198       ?flush@ffl_text_file@@$$FQAE_NXZ 0043d198 f   ffl_dumpr:ffl_text_file.obj
 0001:0003c1b0       ?flush@ffl_text_file@@QAE_NXZ 0043d1b0 f   ffl_dumpr:ffl_text_file.obj
 0001:0003c1b8       ?size@ffl_text_file@@$$FQAE_KXZ 0043d1b8 f   ffl_dumpr:ffl_text_file.obj
 0001:0003c1d0       ?size@ffl_text_file@@QAE_KXZ 0043d1d0 f   ffl_dumpr:ffl_text_file.obj
 0001:0003c1d8       ??1ffl_text_file@@$$FQAE@XZ 0043d1d8 f   ffl_dumpr:ffl_text_file.obj
 0001:0003c220       ??1ffl_text_file@@QAE@XZ   0043d220 f   ffl_dumpr:ffl_text_file.obj
 0001:0003c228       ??0ffl_module_info@@$$FQAE@XZ 0043d228 f   ffl_dumpr:ffl_module_info.obj
 0001:0003c270       ??0ffl_module_info@@QAE@XZ 0043d270 f   ffl_dumpr:ffl_module_info.obj
 0001:0003c278       ?company_name@ffl_module_info@@$$FQBEPBDXZ 0043d278 f   ffl_dumpr:ffl_module_info.obj
 0001:0003c290       ?company_name@ffl_module_info@@QBEPBDXZ 0043d290 f   ffl_dumpr:ffl_module_info.obj
 0001:0003c298       ?product_name@ffl_module_info@@$$FQBEPBDXZ 0043d298 f   ffl_dumpr:ffl_module_info.obj
 0001:0003c2b0       ?product_name@ffl_module_info@@QBEPBDXZ 0043d2b0 f   ffl_dumpr:ffl_module_info.obj
 0001:0003c2b8       ?file_description@ffl_module_info@@$$FQBEPBDXZ 0043d2b8 f   ffl_dumpr:ffl_module_info.obj
 0001:0003c2d0       ?file_description@ffl_module_info@@QBEPBDXZ 0043d2d0 f   ffl_dumpr:ffl_module_info.obj
 0001:0003c2d8       ?file_version@ffl_module_info@@$$FQBEPBGXZ 0043d2d8 f   ffl_dumpr:ffl_module_info.obj
 0001:0003c2f0       ?file_version@ffl_module_info@@QBEPBGXZ 0043d2f0 f   ffl_dumpr:ffl_module_info.obj
 0001:0003c2f8       ?product_version@ffl_module_info@@$$FQBEPBGXZ 0043d2f8 f   ffl_dumpr:ffl_module_info.obj
 0001:0003c310       ?product_version@ffl_module_info@@QBEPBGXZ 0043d310 f   ffl_dumpr:ffl_module_info.obj
 0001:0003c318       ?query_fixed_info@ffl_module_info@@$$FAAE_NPAXPAUtagVS_FIXEDFILEINFO@@@Z 0043d318 f   ffl_dumpr:ffl_module_info.obj
 0001:0003c350       ?query_fixed_info@ffl_module_info@@AAE_NPAXPAUtagVS_FIXEDFILEINFO@@@Z 0043d350 f   ffl_dumpr:ffl_module_info.obj
 0001:0003c358       ?query_string_info@ffl_module_info@@$$FAAE_NPAXPBDPADI@Z 0043d358 f   ffl_dumpr:ffl_module_info.obj
 0001:0003c3f0       ?query_string_info@ffl_module_info@@AAE_NPAXPBDPADI@Z 0043d3f0 f   ffl_dumpr:ffl_module_info.obj
 0001:0003c3f8       ?load_info@ffl_module_info@@$$FQAE_NPBD@Z 0043d3f8 f   ffl_dumpr:ffl_module_info.obj
 0001:0003c510       ?load_info@ffl_module_info@@QAE_NPBD@Z 0043d510 f   ffl_dumpr:ffl_module_info.obj
 0001:0003c518       ??0ffl_file@@$$FQAE@XZ     0043d518 f   ffl_dumpr:ffl_file.obj
 0001:0003c530       ??0ffl_file@@QAE@XZ        0043d530 f   ffl_dumpr:ffl_file.obj
 0001:0003c538       ?create@ffl_file@@$$FQAE_NPBDII@Z 0043d538 f   ffl_dumpr:ffl_file.obj
 0001:0003c570       ?create@ffl_file@@QAE_NPBDII@Z 0043d570 f   ffl_dumpr:ffl_file.obj
 0001:0003c578       ?open@ffl_file@@$$FQAE_NPBDII@Z 0043d578 f   ffl_dumpr:ffl_file.obj
 0001:0003c5b0       ?open@ffl_file@@QAE_NPBDII@Z 0043d5b0 f   ffl_dumpr:ffl_file.obj
 0001:0003c5b8       ?close@ffl_file@@$$FQAEXXZ 0043d5b8 f   ffl_dumpr:ffl_file.obj
 0001:0003c5e0       ?close@ffl_file@@QAEXXZ    0043d5e0 f   ffl_dumpr:ffl_file.obj
 0001:0003c5e8       ?opened@ffl_file@@$$FQAE_NXZ 0043d5e8 f   ffl_dumpr:ffl_file.obj
 0001:0003c600       ?opened@ffl_file@@QAE_NXZ  0043d600 f   ffl_dumpr:ffl_file.obj
 0001:0003c608       ?read@ffl_file@@$$FQAEIPAXI@Z 0043d608 f   ffl_dumpr:ffl_file.obj
 0001:0003c640       ?read@ffl_file@@QAEIPAXI@Z 0043d640 f   ffl_dumpr:ffl_file.obj
 0001:0003c648       ?write@ffl_file@@$$FQAEIPBXI@Z 0043d648 f   ffl_dumpr:ffl_file.obj
 0001:0003c670       ?write@ffl_file@@QAEIPBXI@Z 0043d670 f   ffl_dumpr:ffl_file.obj
 0001:0003c678       ?seek@ffl_file@@$$FQAE_J_JH@Z 0043d678 f   ffl_dumpr:ffl_file.obj
 0001:0003c6d0       ?seek@ffl_file@@QAE_J_JH@Z 0043d6d0 f   ffl_dumpr:ffl_file.obj
 0001:0003c6d8       ?flush@ffl_file@@$$FQAE_NXZ 0043d6d8 f   ffl_dumpr:ffl_file.obj
 0001:0003c700       ?flush@ffl_file@@QAE_NXZ   0043d700 f   ffl_dumpr:ffl_file.obj
 0001:0003c708       ?size@ffl_file@@$$FQAE_KXZ 0043d708 f   ffl_dumpr:ffl_file.obj
 0001:0003c750       ?size@ffl_file@@QAE_KXZ    0043d750 f   ffl_dumpr:ffl_file.obj
 0001:0003c758       ??1ffl_file@@$$FQAE@XZ     0043d758 f   ffl_dumpr:ffl_file.obj
 0001:0003c780       ??1ffl_file@@QAE@XZ        0043d780 f   ffl_dumpr:ffl_file.obj
 0001:0003c786       ??0?$CSimpleArray@PAUHINSTANCE__@@V?$CSimpleArrayEqualHelper@PAUHINSTANCE__@@@ATL@@@ATL@@QAE@XZ 0043d786 f i atls:atlbase.obj
 0001:0003c793       ?GetSize@?$CSimpleArray@PAUHINSTANCE__@@V?$CSimpleArrayEqualHelper@PAUHINSTANCE__@@@ATL@@@ATL@@QBEHXZ 0043d793 f i atls:atlbase.obj
 0001:0003c797       ?RemoveAt@?$CSimpleArray@PAUHINSTANCE__@@V?$CSimpleArrayEqualHelper@PAUHINSTANCE__@@@ATL@@@ATL@@QAEHH@Z 0043d797 f i atls:atlbase.obj
 0001:0003c7da       ?RemoveAll@?$CSimpleArray@PAUHINSTANCE__@@V?$CSimpleArrayEqualHelper@PAUHINSTANCE__@@@ATL@@@ATL@@QAEXXZ 0043d7da f i atls:atlbase.obj
 0001:0003c7f7       ??0Wrapper@?$CSimpleArray@PAUHINSTANCE__@@V?$CSimpleArrayEqualHelper@PAUHINSTANCE__@@@ATL@@@ATL@@QAE@ABQAUHINSTANCE__@@@Z 0043d7f7 f i atls:atlbase.obj
 0001:0003c804       ??$?2PAUHINSTANCE__@@@Wrapper@?$CSimpleArray@PAUHINSTANCE__@@V?$CSimpleArrayEqualHelper@PAUHINSTANCE__@@@ATL@@@ATL@@SAPAXIPAPAUHINSTANCE__@@@Z 0043d804 f i atls:atlbase.obj
 0001:0003c809       ?Lock@CComCriticalSection@ATL@@QAEJXZ 0043d809 f i atls:atlbase.obj
 0001:0003c813       ?Unlock@CComCriticalSection@ATL@@QAEJXZ 0043d813 f i atls:atlbase.obj
 0001:0003c81d       ?Lock@?$CComCritSecLock@VCComCriticalSection@ATL@@@ATL@@QAEJXZ 0043d81d f i atls:atlbase.obj
 0001:0003c830       ??1?$CSimpleArray@PAUHINSTANCE__@@V?$CSimpleArrayEqualHelper@PAUHINSTANCE__@@@ATL@@@ATL@@QAE@XZ 0043d830 f i atls:atlbase.obj
 0001:0003c835       ??A?$CSimpleArray@PAUHINSTANCE__@@V?$CSimpleArrayEqualHelper@PAUHINSTANCE__@@@ATL@@@ATL@@QAEAAPAUHINSTANCE__@@H@Z 0043d835 f i atls:atlbase.obj
 0001:0003c85c       ?InternalSetAtIndex@?$CSimpleArray@PAUHINSTANCE__@@V?$CSimpleArrayEqualHelper@PAUHINSTANCE__@@@ATL@@@ATL@@QAEXHABQAUHINSTANCE__@@@Z 0043d85c f i atls:atlbase.obj
 0001:0003c874       ?Unlock@?$CComCritSecLock@VCComCriticalSection@ATL@@@ATL@@QAEXXZ 0043d874 f i atls:atlbase.obj
 0001:0003c885       ??0?$CComCritSecLock@VCComCriticalSection@ATL@@@ATL@@QAE@AAVCComCriticalSection@1@_N@Z 0043d885 f i atls:atlbase.obj
 0001:0003c8ae       ??1?$CComCritSecLock@VCComCriticalSection@ATL@@@ATL@@QAE@XZ 0043d8ae f i atls:atlbase.obj
 0001:0003c8c5       ??0_ATL_BASE_MODULE70@ATL@@QAE@XZ 0043d8c5 f i atls:atlbase.obj
 0001:0003c8df       ??1_ATL_BASE_MODULE70@ATL@@QAE@XZ 0043d8df f i atls:atlbase.obj
 0001:0003c8e7       ??1CAtlBaseModule@ATL@@QAE@XZ 0043d8e7 f   atls:atlbase.obj
 0001:0003c8fd       ?RemoveResourceInstance@CAtlBaseModule@ATL@@QAE_NPAUHINSTANCE__@@@Z 0043d8fd f   atls:atlbase.obj
 0001:0003c956       ?GetHInstanceAt@CAtlBaseModule@ATL@@QAEPAUHINSTANCE__@@H@Z 0043d956 f   atls:atlbase.obj
 0001:0003c9a4       ?Add@?$CSimpleArray@PAUHINSTANCE__@@V?$CSimpleArrayEqualHelper@PAUHINSTANCE__@@@ATL@@@ATL@@QAEHABQAUHINSTANCE__@@@Z 0043d9a4 f i atls:atlbase.obj
 0001:0003c9ef       ??0CAtlBaseModule@ATL@@QAE@XZ 0043d9ef f   atls:atlbase.obj
 0001:0003ca9e       ?AddResourceInstance@CAtlBaseModule@ATL@@QAE_NPAUHINSTANCE__@@@Z 0043da9e f   atls:atlbase.obj
 0001:0003cada       _CreateStdAccessibleObject@16 0043dada f   oleacc:OLEACC.dll
 0001:0003cae0       _AccessibleObjectFromWindow@16 0043dae0 f   oleacc:OLEACC.dll
 0001:0003cae6       _LresultFromObject@12      0043dae6 f   oleacc:OLEACC.dll
 0001:0003caec       _LocalFree@4               0043daec f   kernel32:KERNEL32.dll
 0001:0003caf2       _FormatMessageA@28         0043daf2 f   kernel32:KERNEL32.dll
 0001:0003caf8       _GlobalUnlock@4            0043daf8 f   kernel32:KERNEL32.dll
 0001:0003cafe       _GlobalLock@4              0043dafe f   kernel32:KERNEL32.dll
 0001:0003cb04       _GlobalAlloc@8             0043db04 f   kernel32:KERNEL32.dll
 0001:0003cb0a       _GlobalSize@4              0043db0a f   kernel32:KERNEL32.dll
 0001:0003cb10       _MulDiv@12                 0043db10 f   kernel32:KERNEL32.dll
 0001:0003cb16       _CopyFileA@12              0043db16 f   kernel32:KERNEL32.dll
 0001:0003cb1c       _GlobalFree@4              0043db1c f   kernel32:KERNEL32.dll
 0001:0003cb22       _SetLastError@4            0043db22 f   kernel32:KERNEL32.dll
 0001:0003cb28       _RaiseException@16         0043db28 f   kernel32:KERNEL32.dll
 0001:0003cb2e       _LocalAlloc@8              0043db2e f   kernel32:KERNEL32.dll
 0001:0003cb34       _GlobalReAlloc@12          0043db34 f   kernel32:KERNEL32.dll
 0001:0003cb3a       _GlobalHandle@4            0043db3a f   kernel32:KERNEL32.dll
 0001:0003cb40       _TlsGetValue@4             0043db40 f   kernel32:KERNEL32.dll
 0001:0003cb46       _TlsAlloc@0                0043db46 f   kernel32:KERNEL32.dll
 0001:0003cb4c       _TlsSetValue@8             0043db4c f   kernel32:KERNEL32.dll
 0001:0003cb52       _LocalReAlloc@12           0043db52 f   kernel32:KERNEL32.dll
 0001:0003cb58       _TlsFree@4                 0043db58 f   kernel32:KERNEL32.dll
 0001:0003cb5e       _FileTimeToSystemTime@8    0043db5e f   kernel32:KERNEL32.dll
 0001:0003cb64       _SystemTimeToFileTime@8    0043db64 f   kernel32:KERNEL32.dll
 0001:0003cb6a       _lstrcmpA@8                0043db6a f   kernel32:KERNEL32.dll
 0001:0003cb70       _GlobalFlags@4             0043db70 f   kernel32:KERNEL32.dll
 0001:0003cb76       _ResumeThread@4            0043db76 f   kernel32:KERNEL32.dll
 0001:0003cb7c       _GetCurrentThreadId@0      0043db7c f   kernel32:KERNEL32.dll
 0001:0003cb82       _SuspendThread@4           0043db82 f   kernel32:KERNEL32.dll
 0001:0003cb88       _GetModuleHandleA@4        0043db88 f   kernel32:KERNEL32.dll
 0001:0003cb8e       _lstrcmpW@8                0043db8e f   kernel32:KERNEL32.dll
 0001:0003cb94       _GlobalDeleteAtom@4        0043db94 f   kernel32:KERNEL32.dll
 0001:0003cb9a       _GlobalFindAtomA@4         0043db9a f   kernel32:KERNEL32.dll
 0001:0003cba0       _GlobalAddAtomA@4          0043dba0 f   kernel32:KERNEL32.dll
 0001:0003cba6       _GlobalGetAtomNameA@12     0043dba6 f   kernel32:KERNEL32.dll
 0001:0003cbac       _FreeResource@4            0043dbac f   kernel32:KERNEL32.dll
 0001:0003cbb2       _EnumResourceLanguagesA@20 0043dbb2 f   kernel32:KERNEL32.dll
 0001:0003cbb8       _ConvertDefaultLocale@4    0043dbb8 f   kernel32:KERNEL32.dll
 0001:0003cbbe       _GetCurrentThread@0        0043dbbe f   kernel32:KERNEL32.dll
 0001:0003cbc4       _GetCPInfo@8               0043dbc4 f   kernel32:KERNEL32.dll
 0001:0003cbca       _GetOEMCP@0                0043dbca f   kernel32:KERNEL32.dll
 0001:0003cbd0       _GetPrivateProfileIntA@16  0043dbd0 f   kernel32:KERNEL32.dll
 0001:0003cbd6       _WritePrivateProfileStringA@16 0043dbd6 f   kernel32:KERNEL32.dll
 0001:0003cbdc       _GetPrivateProfileStringA@24 0043dbdc f   kernel32:KERNEL32.dll
 0001:0003cbe2       _GetCurrentDirectoryA@8    0043dbe2 f   kernel32:KERNEL32.dll
 0001:0003cbe8       _MoveFileA@8               0043dbe8 f   kernel32:KERNEL32.dll
 0001:0003cbee       _DeleteFileA@4             0043dbee f   kernel32:KERNEL32.dll
 0001:0003cbf4       _ReadFile@20               0043dbf4 f   kernel32:KERNEL32.dll
 0001:0003cbfa       _WriteFile@20              0043dbfa f   kernel32:KERNEL32.dll
 0001:0003cc00       _SetFilePointer@16         0043dc00 f   kernel32:KERNEL32.dll
 0001:0003cc06       _FlushFileBuffers@4        0043dc06 f   kernel32:KERNEL32.dll
 0001:0003cc0c       _LockFile@20               0043dc0c f   kernel32:KERNEL32.dll
 0001:0003cc12       _UnlockFile@20             0043dc12 f   kernel32:KERNEL32.dll
 0001:0003cc18       _SetEndOfFile@4            0043dc18 f   kernel32:KERNEL32.dll
 0001:0003cc1e       _GetFileSize@8             0043dc1e f   kernel32:KERNEL32.dll
 0001:0003cc24       _DuplicateHandle@28        0043dc24 f   kernel32:KERNEL32.dll
 0001:0003cc2a       _GetCurrentProcess@0       0043dc2a f   kernel32:KERNEL32.dll
 0001:0003cc30       _FindClose@4               0043dc30 f   kernel32:KERNEL32.dll
 0001:0003cc36       _FindFirstFileA@8          0043dc36 f   kernel32:KERNEL32.dll
 0001:0003cc3c       _GetVolumeInformationA@32  0043dc3c f   kernel32:KERNEL32.dll
 0001:0003cc42       _GetShortPathNameA@12      0043dc42 f   kernel32:KERNEL32.dll
 0001:0003cc48       _FileTimeToLocalFileTime@8 0043dc48 f   kernel32:KERNEL32.dll
 0001:0003cc4e       _LocalFileTimeToFileTime@8 0043dc4e f   kernel32:KERNEL32.dll
 0001:0003cc54       _SetFileTime@16            0043dc54 f   kernel32:KERNEL32.dll
 0001:0003cc5a       _SetFileAttributesA@8      0043dc5a f   kernel32:KERNEL32.dll
 0001:0003cc60       _GetFileTime@16            0043dc60 f   kernel32:KERNEL32.dll
 0001:0003cc66       _ExitProcess@4             0043dc66 f   kernel32:KERNEL32.dll
 0001:0003cc6c       _GetSystemTimeAsFileTime@4 0043dc6c f   kernel32:KERNEL32.dll
 0001:0003cc72       _RtlUnwind@16              0043dc72 f   kernel32:KERNEL32.dll
 0001:0003cc78       _GetTimeFormatA@24         0043dc78 f   kernel32:KERNEL32.dll
 0001:0003cc7e       _GetDateFormatA@24         0043dc7e f   kernel32:KERNEL32.dll
 0001:0003cc84       _VirtualProtect@16         0043dc84 f   kernel32:KERNEL32.dll
 0001:0003cc8a       _VirtualQuery@12           0043dc8a f   kernel32:KERNEL32.dll
 0001:0003cc90       _ExitThread@4              0043dc90 f   kernel32:KERNEL32.dll
 0001:0003cc96       _CreateThread@24           0043dc96 f   kernel32:KERNEL32.dll
 0001:0003cc9c       _FindNextFileA@8           0043dc9c f   kernel32:KERNEL32.dll
 0001:0003cca2       _GetStartupInfoA@4         0043dca2 f   kernel32:KERNEL32.dll
 0001:0003cca8       _GetCommandLineA@0         0043dca8 f   kernel32:KERNEL32.dll
 0001:0003ccae       _HeapSize@12               0043dcae f   kernel32:KERNEL32.dll
 0001:0003ccb4       _GetCurrentProcessId@0     0043dcb4 f   kernel32:KERNEL32.dll
 0001:0003ccba       _GetTimeZoneInformation@4  0043dcba f   kernel32:KERNEL32.dll
 0001:0003ccc0       _FatalAppExitA@8           0043dcc0 f   kernel32:KERNEL32.dll
 0001:0003ccc6       _IsBadWritePtr@8           0043dcc6 f   kernel32:KERNEL32.dll
 0001:0003cccc       _LCMapStringA@24           0043dccc f   kernel32:KERNEL32.dll
 0001:0003ccd2       _LCMapStringW@24           0043dcd2 f   kernel32:KERNEL32.dll
 0001:0003ccd8       _UnhandledExceptionFilter@4 0043dcd8 f   kernel32:KERNEL32.dll
 0001:0003ccde       _SetHandleCount@4          0043dcde f   kernel32:KERNEL32.dll
 0001:0003cce4       _GetStdHandle@4            0043dce4 f   kernel32:KERNEL32.dll
 0001:0003ccea       _GetFileType@4             0043dcea f   kernel32:KERNEL32.dll
 0001:0003ccf0       _SetStdHandle@8            0043dcf0 f   kernel32:KERNEL32.dll
 0001:0003ccf6       _GetStringTypeA@20         0043dcf6 f   kernel32:KERNEL32.dll
 0001:0003ccfc       _GetStringTypeW@16         0043dcfc f   kernel32:KERNEL32.dll
 0001:0003cd02       _FreeEnvironmentStringsA@4 0043dd02 f   kernel32:KERNEL32.dll
 0001:0003cd08       _GetEnvironmentStrings@0   0043dd08 f   kernel32:KERNEL32.dll
 0001:0003cd0e       _FreeEnvironmentStringsW@4 0043dd0e f   kernel32:KERNEL32.dll
 0001:0003cd14       _GetEnvironmentStringsW@0  0043dd14 f   kernel32:KERNEL32.dll
 0001:0003cd1a       _GetUserDefaultLCID@0      0043dd1a f   kernel32:KERNEL32.dll
 0001:0003cd20       _EnumSystemLocalesA@8      0043dd20 f   kernel32:KERNEL32.dll
 0001:0003cd26       _IsValidLocale@8           0043dd26 f   kernel32:KERNEL32.dll
 0001:0003cd2c       _IsValidCodePage@4         0043dd2c f   kernel32:KERNEL32.dll
 0001:0003cd32       _IsBadReadPtr@8            0043dd32 f   kernel32:KERNEL32.dll
 0001:0003cd38       _IsBadCodePtr@4            0043dd38 f   kernel32:KERNEL32.dll
 0001:0003cd3e       _SetConsoleCtrlHandler@8   0043dd3e f   kernel32:KERNEL32.dll
 0001:0003cd44       _GetLocaleInfoW@16         0043dd44 f   kernel32:KERNEL32.dll
 0001:0003cd4a       _SetEnvironmentVariableA@8 0043dd4a f   kernel32:KERNEL32.dll
 0001:0003cd50       _RemoveMenu@12             0043dd50 f   user32:USER32.dll
 0001:0003cd56       _GetSubMenu@8              0043dd56 f   user32:USER32.dll
 0001:0003cd5c       _GetMenuItemCount@4        0043dd5c f   user32:USER32.dll
 0001:0003cd62       _InsertMenuA@20            0043dd62 f   user32:USER32.dll
 0001:0003cd68       _GetMenuItemID@8           0043dd68 f   user32:USER32.dll
 0001:0003cd6e       _AppendMenuA@16            0043dd6e f   user32:USER32.dll
 0001:0003cd74       _GetMenuStringA@20         0043dd74 f   user32:USER32.dll
 0001:0003cd7a       _GetMenuState@12           0043dd7a f   user32:USER32.dll
 0001:0003cd80       _UnregisterClassA@8        0043dd80 f   user32:USER32.dll
 0001:0003cd86       _GetSysColorBrush@4        0043dd86 f   user32:USER32.dll
 0001:0003cd8c       _GetSysColor@4             0043dd8c f   user32:USER32.dll
 0001:0003cd92       _ReleaseDC@8               0043dd92 f   user32:USER32.dll
 0001:0003cd98       _GetDC@4                   0043dd98 f   user32:USER32.dll
 0001:0003cd9e       _GetSystemMetrics@4        0043dd9e f   user32:USER32.dll
 0001:0003cda4       _UnhookWindowsHookEx@4     0043dda4 f   user32:USER32.dll
 0001:0003cdaa       _EnableWindow@8            0043ddaa f   user32:USER32.dll
 0001:0003cdb0       _IsWindowEnabled@4         0043ddb0 f   user32:USER32.dll
 0001:0003cdb6       _GetLastActivePopup@4      0043ddb6 f   user32:USER32.dll
 0001:0003cdbc       _GetWindowLongA@8          0043ddbc f   user32:USER32.dll
 0001:0003cdc2       _GetParent@4               0043ddc2 f   user32:USER32.dll
 0001:0003cdc8       _SendMessageA@16           0043ddc8 f   user32:USER32.dll
 0001:0003cdce       _GetWindowTextA@12         0043ddce f   user32:USER32.dll
 0001:0003cdd4       _GetWindowTextLengthA@4    0043ddd4 f   user32:USER32.dll
 0001:0003cdda       _GetClassNameA@12          0043ddda f   user32:USER32.dll
 0001:0003cde0       _SetWindowTextA@8          0043dde0 f   user32:USER32.dll
 0001:0003cde6       _GetDesktopWindow@0        0043dde6 f   user32:USER32.dll
 0001:0003cdec       _GetFocus@0                0043ddec f   user32:USER32.dll
 0001:0003cdf2       _PtInRect@12               0043ddf2 f   user32:USER32.dll
 0001:0003cdf8       _GetWindowRect@8           0043ddf8 f   user32:USER32.dll
 0001:0003cdfe       _GetDlgCtrlID@4            0043ddfe f   user32:USER32.dll
 0001:0003ce04       _GetWindow@8               0043de04 f   user32:USER32.dll
 0001:0003ce0a       _ClientToScreen@8          0043de0a f   user32:USER32.dll
 0001:0003ce10       _ValidateRect@8            0043de10 f   user32:USER32.dll
 0001:0003ce16       _GetCursorPos@4            0043de16 f   user32:USER32.dll
 0001:0003ce1c       _PeekMessageA@20           0043de1c f   user32:USER32.dll
 0001:0003ce22       _GetKeyState@4             0043de22 f   user32:USER32.dll
 0001:0003ce28       _IsWindowVisible@4         0043de28 f   user32:USER32.dll
 0001:0003ce2e       _GetActiveWindow@0         0043de2e f   user32:USER32.dll
 0001:0003ce34       _CallNextHookEx@16         0043de34 f   user32:USER32.dll
 0001:0003ce3a       _SetWindowsHookExA@16      0043de3a f   user32:USER32.dll
 0001:0003ce40       _SetFocus@4                0043de40 f   user32:USER32.dll
 0001:0003ce46       _SetScrollPos@16           0043de46 f   user32:USER32.dll
 0001:0003ce4c       _GetScrollPos@8            0043de4c f   user32:USER32.dll
 0001:0003ce52       _wsprintfA                 0043de52 f   user32:USER32.dll
 0001:0003ce58       _CheckDlgButton@12         0043de58 f   user32:USER32.dll
 0001:0003ce5e       _CheckRadioButton@16       0043de5e f   user32:USER32.dll
 0001:0003ce64       _GetDlgItem@8              0043de64 f   user32:USER32.dll
 0001:0003ce6a       _GetDlgItemInt@16          0043de6a f   user32:USER32.dll
 0001:0003ce70       _GetDlgItemTextA@16        0043de70 f   user32:USER32.dll
 0001:0003ce76       _SendDlgItemMessageA@20    0043de76 f   user32:USER32.dll
 0001:0003ce7c       _SetDlgItemInt@16          0043de7c f   user32:USER32.dll
 0001:0003ce82       _SetDlgItemTextA@12        0043de82 f   user32:USER32.dll
 0001:0003ce88       _IsDlgButtonChecked@8      0043de88 f   user32:USER32.dll
 0001:0003ce8e       _IsDialogMessageA@8        0043de8e f   user32:USER32.dll
 0001:0003ce94       _SetWindowLongA@12         0043de94 f   user32:USER32.dll
 0001:0003ce9a       _MoveWindow@24             0043de9a f   user32:USER32.dll
 0001:0003cea0       _ScrollWindowEx@32         0043dea0 f   user32:USER32.dll
 0001:0003cea6       _LoadBitmapA@8             0043dea6 f   user32:USER32.dll
 0001:0003ceac       _GetMenuCheckMarkDimensions@0 0043deac f   user32:USER32.dll
 0001:0003ceb2       _CheckMenuItem@12          0043deb2 f   user32:USER32.dll
 0001:0003ceb8       _EnableMenuItem@12         0043deb8 f   user32:USER32.dll
 0001:0003cebe       _ModifyMenuA@20            0043debe f   user32:USER32.dll
 0001:0003cec4       _SetMenuItemBitmaps@20     0043dec4 f   user32:USER32.dll
 0001:0003ceca       _CopyRect@8                0043deca f   user32:USER32.dll
 0001:0003ced0       _GetWindowPlacement@8      0043ded0 f   user32:USER32.dll
 0001:0003ced6       _IsIconic@4                0043ded6 f   user32:USER32.dll
 0001:0003cedc       _SystemParametersInfoA@16  0043dedc f   user32:USER32.dll
 0001:0003cee2       _IntersectRect@12          0043dee2 f   user32:USER32.dll
 0001:0003cee8       _OffsetRect@12             0043dee8 f   user32:USER32.dll
 0001:0003ceee       _CallWindowProcA@20        0043deee f   user32:USER32.dll
 0001:0003cef4       _SetWindowPlacement@8      0043def4 f   user32:USER32.dll
 0001:0003cefa       _RegisterClassA@4          0043defa f   user32:USER32.dll
 0001:0003cf00       _GetClassInfoA@12          0043df00 f   user32:USER32.dll
 0001:0003cf06       _SetScrollInfo@16          0043df06 f   user32:USER32.dll
 0001:0003cf0c       _GetScrollInfo@12          0043df0c f   user32:USER32.dll
 0001:0003cf12       _DeferWindowPos@32         0043df12 f   user32:USER32.dll
 0001:0003cf18       _EqualRect@8               0043df18 f   user32:USER32.dll
 0001:0003cf1e       _ScreenToClient@8          0043df1e f   user32:USER32.dll
 0001:0003cf24       _AdjustWindowRectEx@16     0043df24 f   user32:USER32.dll
 0001:0003cf2a       _PostMessageA@16           0043df2a f   user32:USER32.dll
 0001:0003cf30       _GetMenu@4                 0043df30 f   user32:USER32.dll
 0001:0003cf36       _GetClientRect@8           0043df36 f   user32:USER32.dll
 0001:0003cf3c       _ShowScrollBar@12          0043df3c f   user32:USER32.dll
 0001:0003cf42       _SetForegroundWindow@4     0043df42 f   user32:USER32.dll
 0001:0003cf48       _GetScrollRange@16         0043df48 f   user32:USER32.dll
 0001:0003cf4e       _SetScrollRange@20         0043df4e f   user32:USER32.dll
 0001:0003cf54       _TrackPopupMenu@28         0043df54 f   user32:USER32.dll
 0001:0003cf5a       _TrackPopupMenuEx@24       0043df5a f   user32:USER32.dll
 0001:0003cf60       _ScrollWindow@20           0043df60 f   user32:USER32.dll
 0001:0003cf66       _MapWindowPoints@16        0043df66 f   user32:USER32.dll
 0001:0003cf6c       _GetMessagePos@0           0043df6c f   user32:USER32.dll
 0001:0003cf72       _GetMessageTime@0          0043df72 f   user32:USER32.dll
 0001:0003cf78       _GetTopWindow@4            0043df78 f   user32:USER32.dll
 0001:0003cf7e       _EndDeferWindowPos@4       0043df7e f   user32:USER32.dll
 0001:0003cf84       _BeginDeferWindowPos@4     0043df84 f   user32:USER32.dll
 0001:0003cf8a       _SetActiveWindow@4         0043df8a f   user32:USER32.dll
 0001:0003cf90       _GetForegroundWindow@0     0043df90 f   user32:USER32.dll
 0001:0003cf96       _IsChild@8                 0043df96 f   user32:USER32.dll
 0001:0003cf9c       _IsWindow@4                0043df9c f   user32:USER32.dll
 0001:0003cfa2       _RemovePropA@8             0043dfa2 f   user32:USER32.dll
 0001:0003cfa8       _GetPropA@8                0043dfa8 f   user32:USER32.dll
 0001:0003cfae       _SetPropA@12               0043dfae f   user32:USER32.dll
 0001:0003cfb4       _GetClassInfoExA@12        0043dfb4 f   user32:USER32.dll
 0001:0003cfba       _GetClassLongA@8           0043dfba f   user32:USER32.dll
 0001:0003cfc0       _GetCapture@0              0043dfc0 f   user32:USER32.dll
 0001:0003cfc6       _WinHelpA@16               0043dfc6 f   user32:USER32.dll
 0001:0003cfcc       _RegisterWindowMessageA@4  0043dfcc f   user32:USER32.dll
 0001:0003cfd2       _FillRect@12               0043dfd2 f   user32:USER32.dll
 0001:0003cfd8       _TabbedTextOutA@32         0043dfd8 f   user32:USER32.dll
 0001:0003cfde       _DrawTextA@20              0043dfde f   user32:USER32.dll
 0001:0003cfe4       _DrawTextExA@24            0043dfe4 f   user32:USER32.dll
 0001:0003cfea       _GrayStringA@36            0043dfea f   user32:USER32.dll
 0001:0003cff0       _GetWindowDC@4             0043dff0 f   user32:USER32.dll
 0001:0003cff6       _InflateRect@12            0043dff6 f   user32:USER32.dll
 0001:0003cffc       _GetMenuItemInfoA@16       0043dffc f   user32:USER32.dll
 0001:0003d002       _DestroyMenu@4             0043e002 f   user32:USER32.dll
 0001:0003d008       _SetCursor@4               0043e008 f   user32:USER32.dll
 0001:0003d00e       _ShowOwnedPopups@8         0043e00e f   user32:USER32.dll
 0001:0003d014       _DeleteMenu@12             0043e014 f   user32:USER32.dll
 0001:0003d01a       _DestroyIcon@4             0043e01a f   user32:USER32.dll
 0001:0003d020       _EndDialog@8               0043e020 f   user32:USER32.dll
 0001:0003d026       _GetNextDlgTabItem@12      0043e026 f   user32:USER32.dll
 0001:0003d02c       _CreateDialogIndirectParamA@20 0043e02c f   user32:USER32.dll
 0001:0003d032       _GetDialogBaseUnits@0      0043e032 f   user32:USER32.dll
 0001:0003d038       _GetDeviceCaps@8           0043e038 f   gdi32:GDI32.dll
 0001:0003d03e       _CopyMetaFileA@8           0043e03e f   gdi32:GDI32.dll
 0001:0003d044       _CreateDCA@16              0043e044 f   gdi32:GDI32.dll
 0001:0003d04a       _CreateBitmap@20           0043e04a f   gdi32:GDI32.dll
 0001:0003d050       _GetDCOrgEx@8              0043e050 f   gdi32:GDI32.dll
 0001:0003d056       _GetClipBox@8              0043e056 f   gdi32:GDI32.dll
 0001:0003d05c       _GetObjectA@12             0043e05c f   gdi32:GDI32.dll
 0001:0003d062       _SaveDC@4                  0043e062 f   gdi32:GDI32.dll
 0001:0003d068       _RestoreDC@8               0043e068 f   gdi32:GDI32.dll
 0001:0003d06e       _SetPolyFillMode@8         0043e06e f   gdi32:GDI32.dll
 0001:0003d074       _SetROP2@8                 0043e074 f   gdi32:GDI32.dll
 0001:0003d07a       _SetStretchBltMode@8       0043e07a f   gdi32:GDI32.dll
 0001:0003d080       _SetMapMode@8              0043e080 f   gdi32:GDI32.dll
 0001:0003d086       _ExcludeClipRect@20        0043e086 f   gdi32:GDI32.dll
 0001:0003d08c       _IntersectClipRect@20      0043e08c f   gdi32:GDI32.dll
 0001:0003d092       _OffsetClipRgn@12          0043e092 f   gdi32:GDI32.dll
 0001:0003d098       _LineTo@12                 0043e098 f   gdi32:GDI32.dll
 0001:0003d09e       _MoveToEx@16               0043e09e f   gdi32:GDI32.dll
 0001:0003d0a4       _SetTextAlign@8            0043e0a4 f   gdi32:GDI32.dll
 0001:0003d0aa       _SetTextJustification@12   0043e0aa f   gdi32:GDI32.dll
 0001:0003d0b0       _SetTextCharacterExtra@8   0043e0b0 f   gdi32:GDI32.dll
 0001:0003d0b6       _SetMapperFlags@8          0043e0b6 f   gdi32:GDI32.dll
 0001:0003d0bc       _SetArcDirection@8         0043e0bc f   gdi32:GDI32.dll
 0001:0003d0c2       _SetColorAdjustment@8      0043e0c2 f   gdi32:GDI32.dll
 0001:0003d0c8       _SelectClipRgn@8           0043e0c8 f   gdi32:GDI32.dll
 0001:0003d0ce       _GetClipRgn@8              0043e0ce f   gdi32:GDI32.dll
 0001:0003d0d4       _CreateRectRgn@16          0043e0d4 f   gdi32:GDI32.dll
 0001:0003d0da       _SelectClipPath@8          0043e0da f   gdi32:GDI32.dll
 0001:0003d0e0       _GetViewportExtEx@8        0043e0e0 f   gdi32:GDI32.dll
 0001:0003d0e6       _GetWindowExtEx@8          0043e0e6 f   gdi32:GDI32.dll
 0001:0003d0ec       _BitBlt@36                 0043e0ec f   gdi32:GDI32.dll
 0001:0003d0f2       _GetPixel@12               0043e0f2 f   gdi32:GDI32.dll
 0001:0003d0f8       _StartDocA@8               0043e0f8 f   gdi32:GDI32.dll
 0001:0003d0fe       _PtVisible@12              0043e0fe f   gdi32:GDI32.dll
 0001:0003d104       _RectVisible@8             0043e104 f   gdi32:GDI32.dll
 0001:0003d10a       _ExtTextOutA@32            0043e10a f   gdi32:GDI32.dll
 0001:0003d110       _Escape@20                 0043e110 f   gdi32:GDI32.dll
 0001:0003d116       _SetViewportOrgEx@16       0043e116 f   gdi32:GDI32.dll
 0001:0003d11c       _OffsetViewportOrgEx@16    0043e11c f   gdi32:GDI32.dll
 0001:0003d122       _SetViewportExtEx@16       0043e122 f   gdi32:GDI32.dll
 0001:0003d128       _ScaleViewportExtEx@24     0043e128 f   gdi32:GDI32.dll
 0001:0003d12e       _SetWindowOrgEx@16         0043e12e f   gdi32:GDI32.dll
 0001:0003d134       _OffsetWindowOrgEx@16      0043e134 f   gdi32:GDI32.dll
 0001:0003d13a       _SetWindowExtEx@16         0043e13a f   gdi32:GDI32.dll
 0001:0003d140       _ScaleWindowExtEx@24       0043e140 f   gdi32:GDI32.dll
 0001:0003d146       _GetCurrentPositionEx@8    0043e146 f   gdi32:GDI32.dll
 0001:0003d14c       _ArcTo@36                  0043e14c f   gdi32:GDI32.dll
 0001:0003d152       _PolyDraw@16               0043e152 f   gdi32:GDI32.dll
 0001:0003d158       _PolylineTo@12             0043e158 f   gdi32:GDI32.dll
 0001:0003d15e       _PolyBezierTo@12           0043e15e f   gdi32:GDI32.dll
 0001:0003d164       _ExtSelectClipRgn@12       0043e164 f   gdi32:GDI32.dll
 0001:0003d16a       _DeleteDC@4                0043e16a f   gdi32:GDI32.dll
 0001:0003d170       _CreateDIBPatternBrushPt@8 0043e170 f   gdi32:GDI32.dll
 0001:0003d176       _CreatePatternBrush@4      0043e176 f   gdi32:GDI32.dll
 0001:0003d17c       _CreateCompatibleDC@4      0043e17c f   gdi32:GDI32.dll
 0001:0003d182       _GetStockObject@4          0043e182 f   gdi32:GDI32.dll
 0001:0003d188       _SelectPalette@12          0043e188 f   gdi32:GDI32.dll
 0001:0003d18e       _PlayMetaFileRecord@16     0043e18e f   gdi32:GDI32.dll
 0001:0003d194       _GetObjectType@4           0043e194 f   gdi32:GDI32.dll
 0001:0003d19a       _EnumMetaFile@16           0043e19a f   gdi32:GDI32.dll
 0001:0003d1a0       _PlayMetaFile@8            0043e1a0 f   gdi32:GDI32.dll
 0001:0003d1a6       _CreatePen@12              0043e1a6 f   gdi32:GDI32.dll
 0001:0003d1ac       _ExtCreatePen@20           0043e1ac f   gdi32:GDI32.dll
 0001:0003d1b2       _CreateSolidBrush@4        0043e1b2 f   gdi32:GDI32.dll
 0001:0003d1b8       _CreateHatchBrush@8        0043e1b8 f   gdi32:GDI32.dll
 0001:0003d1be       _CreateFontIndirectA@4     0043e1be f   gdi32:GDI32.dll
 0001:0003d1c4       _GetTextExtentPoint32A@16  0043e1c4 f   gdi32:GDI32.dll
 0001:0003d1ca       _CreateRectRgnIndirect@4   0043e1ca f   gdi32:GDI32.dll
 0001:0003d1d0       _SetRectRgn@20             0043e1d0 f   gdi32:GDI32.dll
 0001:0003d1d6       _CombineRgn@16             0043e1d6 f   gdi32:GDI32.dll
 0001:0003d1dc       _GetMapMode@4              0043e1dc f   gdi32:GDI32.dll
 0001:0003d1e2       _PatBlt@24                 0043e1e2 f   gdi32:GDI32.dll
 0001:0003d1e8       _DPtoLP@12                 0043e1e8 f   gdi32:GDI32.dll
 0001:0003d1ee       _GetTextMetricsA@8         0043e1ee f   gdi32:GDI32.dll
 0001:0003d1f4       _ClosePrinter@4            0043e1f4 f   winspool:WINSPOOL.DRV
 0001:0003d1fa       _DocumentPropertiesA@24    0043e1fa f   winspool:WINSPOOL.DRV
 0001:0003d200       _OpenPrinterA@12           0043e200 f   winspool:WINSPOOL.DRV
 0001:0003d206       _GetFileTitleA@12          0043e206 f   comdlg32:comdlg32.dll
 0001:0003d20c       _GetSaveFileNameA@4        0043e20c f   comdlg32:comdlg32.dll
 0001:0003d212       _GetOpenFileNameA@4        0043e212 f   comdlg32:comdlg32.dll
 0001:0003d218       _RegSetValueA@20           0043e218 f   advapi32:ADVAPI32.dll
 0001:0003d21e       _RegOpenKeyA@12            0043e21e f   advapi32:ADVAPI32.dll
 0001:0003d224       _RegCreateKeyExA@36        0043e224 f   advapi32:ADVAPI32.dll
 0001:0003d22a       _RegDeleteValueA@8         0043e22a f   advapi32:ADVAPI32.dll
 0001:0003d230       _RegDeleteKeyA@8           0043e230 f   advapi32:ADVAPI32.dll
 0001:0003d236       _RegEnumKeyA@16            0043e236 f   advapi32:ADVAPI32.dll
 0001:0003d23c       _RegQueryValueA@16         0043e23c f   advapi32:ADVAPI32.dll
 0001:0003d242       _RegCreateKeyA@12          0043e242 f   advapi32:ADVAPI32.dll
 0001:0003d248       _SHGetFileInfoA@20         0043e248 f   shell32:SHELL32.dll
 0001:0003d24e       _ExtractIconA@12           0043e24e f   shell32:SHELL32.dll
 0001:0003d254       _CoTaskMemFree@4           0043e254 f   ole32:ole32.dll
 0001:0003d25a       _SetConvertStg@8           0043e25a f   ole32:ole32.dll
 0001:0003d260       _WriteFmtUserTypeStg@12    0043e260 f   ole32:ole32.dll
 0001:0003d266       _WriteClassStg@8           0043e266 f   ole32:ole32.dll
 0001:0003d26c       _OleRegGetUserType@12      0043e26c f   ole32:ole32.dll
 0001:0003d272       _ReadFmtUserTypeStg@12     0043e272 f   ole32:ole32.dll
 0001:0003d278       _ReadClassStg@8            0043e278 f   ole32:ole32.dll
 0001:0003d27e       _StringFromCLSID@8         0043e27e f   ole32:ole32.dll
 0001:0003d284       _CoTreatAsClass@8          0043e284 f   ole32:ole32.dll
 0001:0003d28a       _CreateBindCtx@8           0043e28a f   ole32:ole32.dll
 0001:0003d290       _CoTaskMemAlloc@4          0043e290 f   ole32:ole32.dll
 0001:0003d296       _ReleaseStgMedium@4        0043e296 f   ole32:ole32.dll
 0001:0003d29c       _OleDuplicateData@12       0043e29c f   ole32:ole32.dll
 0001:0003d2a2       _CoDisconnectObject@8      0043e2a2 f   ole32:ole32.dll
 0001:0003d2a8       _CoCreateInstance@20       0043e2a8 f   ole32:ole32.dll
 0001:0003d2ae       _StringFromGUID2@12        0043e2ae f   ole32:ole32.dll
 0001:0003d2b4       _CLSIDFromString@8         0043e2b4 f   ole32:ole32.dll
 0001:0003d2ba       _SysFreeString@4           0043e2ba f   oleaut32:OLEAUT32.dll
 0001:0003d2c0       _SysStringLen@4            0043e2c0 f   oleaut32:OLEAUT32.dll
 0001:0003d2c6       _SysAllocStringByteLen@8   0043e2c6 f   oleaut32:OLEAUT32.dll
 0001:0003d2cc       _SysStringByteLen@4        0043e2cc f   oleaut32:OLEAUT32.dll
 0001:0003d2d2       _SafeArrayUnaccessData@4   0043e2d2 f   oleaut32:OLEAUT32.dll
 0001:0003d2d8       _SafeArrayAccessData@8     0043e2d8 f   oleaut32:OLEAUT32.dll
 0001:0003d2de       _SafeArrayGetUBound@12     0043e2de f   oleaut32:OLEAUT32.dll
 0001:0003d2e4       _SafeArrayGetLBound@12     0043e2e4 f   oleaut32:OLEAUT32.dll
 0001:0003d2ea       _SafeArrayGetElemsize@4    0043e2ea f   oleaut32:OLEAUT32.dll
 0001:0003d2f0       _SafeArrayGetDim@4         0043e2f0 f   oleaut32:OLEAUT32.dll
 0001:0003d2f6       _SafeArrayCreate@12        0043e2f6 f   oleaut32:OLEAUT32.dll
 0001:0003d2fc       _VariantClear@4            0043e2fc f   oleaut32:OLEAUT32.dll
 0001:0003d302       _SafeArrayRedim@8          0043e302 f   oleaut32:OLEAUT32.dll
 0001:0003d308       _VariantChangeType@16      0043e308 f   oleaut32:OLEAUT32.dll
 0001:0003d30e       _VariantCopy@8             0043e30e f   oleaut32:OLEAUT32.dll
 0001:0003d314       _SafeArrayAllocData@4      0043e314 f   oleaut32:OLEAUT32.dll
 0001:0003d31a       _SafeArrayAllocDescriptor@8 0043e31a f   oleaut32:OLEAUT32.dll
 0001:0003d320       _SafeArrayCopy@8           0043e320 f   oleaut32:OLEAUT32.dll
 0001:0003d326       _SafeArrayGetElement@12    0043e326 f   oleaut32:OLEAUT32.dll
 0001:0003d32c       _SafeArrayPtrOfIndex@12    0043e32c f   oleaut32:OLEAUT32.dll
 0001:0003d332       _SafeArrayPutElement@12    0043e332 f   oleaut32:OLEAUT32.dll
 0001:0003d338       _SafeArrayLock@4           0043e338 f   oleaut32:OLEAUT32.dll
 0001:0003d33e       _SafeArrayUnlock@4         0043e33e f   oleaut32:OLEAUT32.dll
 0001:0003d344       _SafeArrayDestroy@4        0043e344 f   oleaut32:OLEAUT32.dll
 0001:0003d34a       _SafeArrayDestroyData@4    0043e34a f   oleaut32:OLEAUT32.dll
 0001:0003d350       _SafeArrayDestroyDescriptor@4 0043e350 f   oleaut32:OLEAUT32.dll
 0001:0003d356       _SysAllocStringLen@8       0043e356 f   oleaut32:OLEAUT32.dll
 0001:0003d35c       _VariantTimeToSystemTime@12 0043e35c f   oleaut32:OLEAUT32.dll
 0001:0003d362       _SystemTimeToVariantTime@8 0043e362 f   oleaut32:OLEAUT32.dll
 0001:0003d368       _SysAllocString@4          0043e368 f   oleaut32:OLEAUT32.dll
 0001:0003d36e       _SysReAllocStringLen@12    0043e36e f   oleaut32:OLEAUT32.dll
 0001:0003d374       _VarDateFromStr@16         0043e374 f   oleaut32:OLEAUT32.dll
 0001:0003d37a       _VarBstrFromDec@16         0043e37a f   oleaut32:OLEAUT32.dll
 0001:0003d380       _VarDecFromStr@16          0043e380 f   oleaut32:OLEAUT32.dll
 0001:0003d386       _VarCyFromStr@16           0043e386 f   oleaut32:OLEAUT32.dll
 0001:0003d38c       _VarBstrFromCy@20          0043e38c f   oleaut32:OLEAUT32.dll
 0001:0003d392       _VarBstrFromDate@20        0043e392 f   oleaut32:OLEAUT32.dll
 0001:0003d398       _VariantInit@4             0043e398 f   oleaut32:OLEAUT32.dll
 0001:0003d39e       __check_commonlanguageruntime_version 0043e39e f   libcmt:checkclr.obj
 0001:0003d5ff       __strlwr                   0043e5ff f   libcmt:strlwr.obj
 0001:0003d5ff       _strlwr                    0043e5ff f   libcmt:strlwr.obj
 0001:0003d713       __fileno                   0043e713 f   libcmt:fileno.obj
 0001:0003d713       _fileno                    0043e713 f   libcmt:fileno.obj
 0001:0003d71c       __CorExeMain@0             0043e71c f   MSCOREE:mscoree.dll
 0001:0003d722       _VerQueryValueA@16         0043e722 f   VERSION:VERSION.dll
 0001:0003d728       _GetFileVersionInfoA@16    0043e728 f   VERSION:VERSION.dll
 0001:0003d72e       _GetFileVersionInfoSizeA@8 0043e72e f   VERSION:VERSION.dll
 0001:0003d734       _GlobalMemoryStatus@4      0043e734 f   kernel32:KERNEL32.dll
 0001:0003d73a       _FileTimeToDosDateTime@12  0043e73a f   kernel32:KERNEL32.dll
 0001:0003d740       _GetUserNameA@8            0043e740 f   advapi32:ADVAPI32.dll
 0001:0003d746       __splitpath                0043e746 f   libcmt:splitpat.obj
 0001:0003d88e       __makepath                 0043e88e f   libcmt:makepath.obj
 0001:0003d91e       __vsnwprintf               0043e91e f   libcmt:vsnwprnt.obj
 0001:0003d98d       _wcsncpy                   0043e98d f   libcmt:wcsncpy.obj
 0001:0003d9ca       __wsplitpath               0043e9ca f   libcmt:wsplitpa.obj
 0001:0003db25       __wmakepath                0043eb25 f   libcmt:wmakepat.obj
 0001:0003dbd6       ?InitString@CSimpleException@@QAEXXZ 0043ebd6 f   nafxcw:except.obj
 0001:0003dbff       ?GetErrorMessage@CSimpleException@@UAEHPADIPAI@Z 0043ebff f   nafxcw:except.obj
 0001:0003dc4f       ?AfxThrowMemoryException@@YGXXZ 0043ec4f f   nafxcw:except.obj
 0001:0003dc69       ?AfxThrowNotSupportedException@@YGXXZ 0043ec69 f   nafxcw:except.obj
 0001:0003dc83       ?AfxThrowInvalidArgException@@YGXXZ 0043ec83 f   nafxcw:except.obj
 0001:0003dc9d       ?GetOFN@CFileDialog@@QBEABUtagOFNA@@XZ 0043ec9d f   nafxcw:dlgfile.obj
 0001:0003dca1       ?GetOFN@CFileDialog@@QAEAAUtagOFNA@@XZ 0043eca1 f   nafxcw:dlgfile.obj
 0001:0003dca5       ?DoModal@CFileDialog@@UAEHXZ 0043eca5 f   nafxcw:dlgfile.obj
 0001:0003dd8f       ?SetTemplate@CFileDialog@@QAEXPBD0@Z 0043ed8f f   nafxcw:dlgfile.obj
 0001:0003ddad       ?OnShareViolation@CFileDialog@@MAEIPBD@Z 0043edad f   nafxcw:dlgfile.obj
 0001:0003ddb2       ?OnFileNameOK@CFileDialog@@MAEHXZ 0043edb2 f   nafxcw:dlgfile.obj
 0001:0003ddb5       ?OnLBSelChangedNotify@CFileDialog@@MAEXIII@Z 0043edb5 f   nafxcw:dlgfile.obj
 0001:0003ddb8       ?OnFileNameChange@CFileDialog@@MAEXXZ 0043edb8 f   nafxcw:dlgfile.obj
 0001:0003ddb9       ?OnFolderChange@CFileDialog@@MAEXXZ 0043edb9 f   nafxcw:dlgfile.obj
 0001:0003ddba       ?OnTypeChange@CFileDialog@@MAEXXZ 0043edba f   nafxcw:dlgfile.obj
 0001:0003ddbb       ?SetControlText@CFileDialog@@QAEXHPBD@Z 0043edbb f   nafxcw:dlgfile.obj
 0001:0003dde3       ?HideControl@CFileDialog@@QAEXH@Z 0043ede3 f   nafxcw:dlgfile.obj
 0001:0003de09       ?SetDefExt@CFileDialog@@QAEXPBD@Z 0043ee09 f   nafxcw:dlgfile.obj
 0001:0003de2f       ?OnInitDone@CFileDialog@@MAEXXZ 0043ee2f f   nafxcw:dlgfile.obj
 0001:0003de48       ?OnNotify@CFileDialog@@MAEHIJPAJ@Z 0043ee48 f   nafxcw:dlgfile.obj
 0001:0003df26       ??1CFileDialog@@UAE@XZ     0043ef26 f   nafxcw:dlgfile.obj
 0001:0003df4b       ??_ECFileDialog@@UAEPAXI@Z 0043ef4b f i nafxcw:dlgfile.obj
 0001:0003df4b       ??_GCFileDialog@@UAEPAXI@Z 0043ef4b f i nafxcw:dlgfile.obj
 0001:0003df67       ?GetFolderPath@CFileDialog@@QBE?AV?$CStringT@DV?$StrTraitMFC@DV?$ChTraitsCRT@D@ATL@@@@@ATL@@XZ 0043ef67 f   nafxcw:dlgfile.obj
 0001:0003e000       ??0CFileDialog@@QAE@HPBD0K0PAVCWnd@@K@Z 0043f000 f   nafxcw:dlgfile.obj
 0001:0003e1c3       ?GetPathName@CFileDialog@@QBE?AV?$CStringT@DV?$StrTraitMFC@DV?$ChTraitsCRT@D@ATL@@@@@ATL@@XZ 0043f1c3 f   nafxcw:dlgfile.obj
 0001:0003e2dc       ?GetFileName@CFileDialog@@QBE?AV?$CStringT@DV?$StrTraitMFC@DV?$ChTraitsCRT@D@ATL@@@@@ATL@@XZ 0043f2dc f   nafxcw:dlgfile.obj
 0001:0003e3a0       ?GetFileExt@CFileDialog@@QBE?AV?$CStringT@DV?$StrTraitMFC@DV?$ChTraitsCRT@D@ATL@@@@@ATL@@XZ 0043f3a0 f   nafxcw:dlgfile.obj
 0001:0003e4b0       ?GetFileTitle@CFileDialog@@QBE?AV?$CStringT@DV?$StrTraitMFC@DV?$ChTraitsCRT@D@ATL@@@@@ATL@@XZ 0043f4b0 f   nafxcw:dlgfile.obj
 0001:0003e50d       ?GetNextPathName@CFileDialog@@QBE?AV?$CStringT@DV?$StrTraitMFC@DV?$ChTraitsCRT@D@ATL@@@@@ATL@@AAPAU__POSITION@@@Z 0043f50d f   nafxcw:dlgfile.obj
 0001:0003e6fd       ?GetMessageMap@CCommonDialog@@MBEPBUAFX_MSGMAP@@XZ 0043f6fd f   nafxcw:dlgcomm.obj
 0001:0003e703       ?OnOK@CCommonDialog@@MAEXXZ 0043f703 f   nafxcw:dlgcomm.obj
 0001:0003e71b       ?OnCancel@CCommonDialog@@MAEXXZ 0043f71b f   nafxcw:dlgcomm.obj
 0001:0003e720       ?OnHelpInfo@CCommonDialog@@IAEHPAUtagHELPINFO@@@Z 0043f720 f   nafxcw:dlgcomm.obj
 0001:0003e72e       ?OnPaint@CCommonDialog@@IAEXXZ 0043f72e f   nafxcw:dlgcomm.obj
 0001:0003e733       ?_AfxCommDlgProc@@YGIPAUHWND__@@IIJ@Z 0043f733 f   nafxcw:dlgcomm.obj
 0001:0003e8ce       ?AddRef@CArchiveStream@@UAGKXZ 0043f8ce f   nafxcw:arcstrm.obj
 0001:0003e8d4       ?Release@CArchiveStream@@UAGKXZ 0043f8d4 f   nafxcw:arcstrm.obj
 0001:0003e8d9       ?Read@CArchiveStream@@UAGJPAXKPAK@Z 0043f8d9 f   nafxcw:arcstrm.obj
 0001:0003e931       ?Write@CArchiveStream@@UAGJPBXKPAK@Z 0043f931 f   nafxcw:arcstrm.obj
 0001:0003e98a       ?SetSize@CArchiveStream@@UAGJT_ULARGE_INTEGER@@@Z 0043f98a f   nafxcw:arcstrm.obj
 0001:0003e992       ?CopyTo@CArchiveStream@@UAGJPAUIStream@@T_ULARGE_INTEGER@@PAT3@2@Z 0043f992 f   nafxcw:arcstrm.obj
 0001:0003e99a       ?Commit@CArchiveStream@@UAGJK@Z 0043f99a f   nafxcw:arcstrm.obj
 0001:0003e9a2       ?Revert@CArchiveStream@@UAGJXZ 0043f9a2 f   nafxcw:arcstrm.obj
 0001:0003e9aa       ?LockRegion@CArchiveStream@@UAGJT_ULARGE_INTEGER@@0K@Z 0043f9aa f   nafxcw:arcstrm.obj
 0001:0003e9b2       ?UnlockRegion@CArchiveStream@@UAGJT_ULARGE_INTEGER@@0K@Z 0043f9b2 f   nafxcw:arcstrm.obj
 0001:0003e9ba       ?Stat@CArchiveStream@@UAGJPAUtagSTATSTG@@K@Z 0043f9ba f   nafxcw:arcstrm.obj
 0001:0003e9c2       ?Clone@CArchiveStream@@UAGJPAPAUIStream@@@Z 0043f9c2 f   nafxcw:arcstrm.obj
 0001:0003e9ca       ?QueryInterface@CArchiveStream@@UAGJABU_GUID@@PAPAX@Z 0043f9ca f   nafxcw:arcstrm.obj
 0001:0003ea13       ?Seek@CArchiveStream@@UAGJT_LARGE_INTEGER@@KPAT_ULARGE_INTEGER@@@Z 0043fa13 f   nafxcw:arcstrm.obj
 0001:0003ea85       ??0CArchiveStream@@QAE@PAVCArchive@@@Z 0043fa85 f   nafxcw:arcstrm.obj
 0001:0003ea97       ?data@CPlex@@QAEPAXXZ      0043fa97 f i nafxcw:map_pp.obj
 0001:0003ea9b       ?RemoveAll@CPtrList@@QAEXXZ 0043fa9b f   nafxcw:list_p.obj
 0001:0003eabb       ?FreeNode@CPtrList@@IAEXPAUCNode@1@@Z 0043fabb f   nafxcw:list_p.obj
 0001:0003eadd       ?RemoveHead@CPtrList@@QAEPAXXZ 0043fadd f   nafxcw:list_p.obj
 0001:0003eb01       ?RemoveTail@CPtrList@@QAEPAXXZ 0043fb01 f   nafxcw:list_p.obj
 0001:0003eb25       ?RemoveAt@CPtrList@@QAEXPAU__POSITION@@@Z 0043fb25 f   nafxcw:list_p.obj
 0001:0003eb65       ?FindIndex@CPtrList@@QBEPAU__POSITION@@H@Z 0043fb65 f   nafxcw:list_p.obj
 0001:0003eb83       ?Find@CPtrList@@QBEPAU__POSITION@@PAXPAU2@@Z 0043fb83 f   nafxcw:list_p.obj
 0001:0003eba2       ??0CPtrList@@QAE@H@Z       0043fba2 f   nafxcw:list_p.obj
 0001:0003ebc5       ??1CPtrList@@UAE@XZ        0043fbc5 f   nafxcw:list_p.obj
 0001:0003ebd0       ?NewNode@CPtrList@@IAEPAUCNode@1@PAU21@0@Z 0043fbd0 f   nafxcw:list_p.obj
 0001:0003ec26       ?AddHead@CPtrList@@QAEPAU__POSITION@@PAX@Z 0043fc26 f   nafxcw:list_p.obj
 0001:0003ec50       ?AddTail@CPtrList@@QAEPAU__POSITION@@PAX@Z 0043fc50 f   nafxcw:list_p.obj
 0001:0003ec79       ?AddHead@CPtrList@@QAEXPAV1@@Z 0043fc79 f   nafxcw:list_p.obj
 0001:0003ecb6       ?AddTail@CPtrList@@QAEXPAV1@@Z 0043fcb6 f   nafxcw:list_p.obj
 0001:0003ecf3       ?InsertBefore@CPtrList@@QAEPAU__POSITION@@PAU2@PAX@Z 0043fcf3 f   nafxcw:list_p.obj
 0001:0003ed30       ?InsertAfter@CPtrList@@QAEPAU__POSITION@@PAU2@PAX@Z 0043fd30 f   nafxcw:list_p.obj
 0001:0003ed6b       ??_ECPtrList@@UAEPAXI@Z    0043fd6b f i nafxcw:list_p.obj
 0001:0003ed6b       ??_GCPtrList@@UAEPAXI@Z    0043fd6b f i nafxcw:list_p.obj
 0001:0003ed87       ?SetSize@CByteArray@@QAEXHH@Z 0043fd87 f   nafxcw:array_b.obj
 0001:0003ee8c       ?Append@CByteArray@@QAEHABV1@@Z 0043fe8c f   nafxcw:array_b.obj
 0001:0003eecc       ?Copy@CByteArray@@QAEXABV1@@Z 0043fecc f   nafxcw:array_b.obj
 0001:0003eef8       ?FreeExtra@CByteArray@@QAEXXZ 0043fef8 f   nafxcw:array_b.obj
 0001:0003ef36       ?SetAtGrow@CByteArray@@QAEXHE@Z 0043ff36 f   nafxcw:array_b.obj
 0001:0003ef68       ?InsertAt@CByteArray@@QAEXHEH@Z 0043ff68 f   nafxcw:array_b.obj
 0001:0003efe1       ?RemoveAt@CByteArray@@QAEXHH@Z 0043ffe1 f   nafxcw:array_b.obj
 0001:0003f026       ??0CByteArray@@QAE@XZ      00440026 f   nafxcw:array_b.obj
 0001:0003f03d       ??1CByteArray@@UAE@XZ      0044003d f   nafxcw:array_b.obj
 0001:0003f04d       ?InsertAt@CByteArray@@QAEXHPAV1@@Z 0044004d f   nafxcw:array_b.obj
 0001:0003f0ae       ?Serialize@CByteArray@@UAEXAAVCArchive@@@Z 004400ae f   nafxcw:array_b.obj
 0001:0003f12b       ??_ECByteArray@@UAEPAXI@Z  0044012b f i nafxcw:array_b.obj
 0001:0003f12b       ??_GCByteArray@@UAEPAXI@Z  0044012b f i nafxcw:array_b.obj
 0001:0003f147       ?Create@CPlex@@SGPAU1@AAPAU1@II@Z 00440147 f   nafxcw:plex.obj
 0001:0003f178       ?FreeDataChain@CPlex@@QAEXXZ 00440178 f   nafxcw:plex.obj
 0001:0003f18e       ?SetSize@CPtrArray@@QAEXHH@Z 0044018e f   nafxcw:array_p.obj
 0001:0003f2a8       ?Append@CPtrArray@@QAEHABV1@@Z 004402a8 f   nafxcw:array_p.obj
 0001:0003f2ed       ?Copy@CPtrArray@@QAEXABV1@@Z 004402ed f   nafxcw:array_p.obj
 0001:0003f31d       ?FreeExtra@CPtrArray@@QAEXXZ 0044031d f   nafxcw:array_p.obj
 0001:0003f362       ?SetAtGrow@CPtrArray@@QAEXHPAX@Z 00440362 f   nafxcw:array_p.obj
 0001:0003f394       ?InsertAt@CPtrArray@@QAEXHPAXH@Z 00440394 f   nafxcw:array_p.obj
 0001:0003f424       ?RemoveAt@CPtrArray@@QAEXHH@Z 00440424 f   nafxcw:array_p.obj
 0001:0003f46f       ??0CPtrArray@@QAE@XZ       0044046f f   nafxcw:array_p.obj
 0001:0003f486       ??1CPtrArray@@UAE@XZ       00440486 f   nafxcw:array_p.obj
 0001:0003f496       ?InsertAt@CPtrArray@@QAEXHPAV1@@Z 00440496 f   nafxcw:array_p.obj
 0001:0003f4f5       ??_GCPtrArray@@UAEPAXI@Z   004404f5 f i nafxcw:array_p.obj
 0001:0003f4f5       ??_ECPtrArray@@UAEPAXI@Z   004404f5 f i nafxcw:array_p.obj
 0001:0003f511       ?HashKey@CMapPtrToPtr@@QBEIPAX@Z 00440511 f i nafxcw:map_pp.obj
 0001:0003f51b       ?InitHashTable@CMapPtrToPtr@@QAEXIH@Z 0044051b f   nafxcw:map_pp.obj
 0001:0003f567       ?RemoveAll@CMapPtrToPtr@@QAEXXZ 00440567 f   nafxcw:map_pp.obj
 0001:0003f592       ?FreeAssoc@CMapPtrToPtr@@IAEXPAUCAssoc@1@@Z 00440592 f   nafxcw:map_pp.obj
 0001:0003f5ab       ?GetAssocAt@CMapPtrToPtr@@IBEPAUCAssoc@1@PAXAAI1@Z 004405ab f   nafxcw:map_pp.obj
 0001:0003f5e3       ?GetValueAt@CMapPtrToPtr@@QBEPAXPAX@Z 004405e3 f   nafxcw:map_pp.obj
 0001:0003f61a       ?Lookup@CMapPtrToPtr@@QBEHPAXAAPAX@Z 0044061a f   nafxcw:map_pp.obj
 0001:0003f641       ?RemoveKey@CMapPtrToPtr@@QAEHPAX@Z 00440641 f   nafxcw:map_pp.obj
 0001:0003f684       ?GetNextAssoc@CMapPtrToPtr@@QBEXAAPAU__POSITION@@AAPAX1@Z 00440684 f   nafxcw:map_pp.obj
 0001:0003f6fe       ??0CMapPtrToPtr@@QAE@H@Z   004406fe f   nafxcw:map_pp.obj
 0001:0003f72c       ??1CMapPtrToPtr@@UAE@XZ    0044072c f   nafxcw:map_pp.obj
 0001:0003f737       ?NewAssoc@CMapPtrToPtr@@IAEPAUCAssoc@1@XZ 00440737 f   nafxcw:map_pp.obj
 0001:0003f782       ??ACMapPtrToPtr@@QAEAAPAXPAX@Z 00440782 f   nafxcw:map_pp.obj
 0001:0003f7d7       ??_ECMapPtrToPtr@@UAEPAXI@Z 004407d7 f i nafxcw:map_pp.obj
 0001:0003f7d7       ??_GCMapPtrToPtr@@UAEPAXI@Z 004407d7 f i nafxcw:map_pp.obj
 0001:0003f7f3       ?Delete@CException@@QAEXXZ 004407f3 f   nafxcw:except.obj
 0001:0003f801       ?GetErrorMessage@CException@@UAEHPADIPAI@Z 00440801 f   nafxcw:except.obj
 0001:0003f822       ?ReportError@CException@@UAEHII@Z 00440822 f   nafxcw:except.obj
 0001:0003f894       ??0CException@@QAE@XZ      00440894 f   nafxcw:except.obj
 0001:0003f89e       ??0CException@@QAE@H@Z     0044089e f   nafxcw:except.obj
 0001:0003f8aa       ?AfxGetExceptionContext@@YAPAUAFX_EXCEPTION_CONTEXT@@XZ 004408aa f i nafxcw:except.obj
 0001:0003f8d2       ??0AFX_EXCEPTION_LINK@@QAE@XZ 004408d2 f   nafxcw:except.obj
 0001:0003f8e8       ?AfxTryCleanup@@YGXXZ      004408e8 f   nafxcw:except.obj
 0001:0003f906       ?AfxThrowLastCleanup@@YGXXZ 00440906 f   nafxcw:except.obj
 0001:0003f916       ?AfxLoadString@@YGHIPADI@Z 00440916 f   nafxcw:winstr.obj
 0001:0003f961       ?AfxLoadString@@YGHIPA_WI@Z 00440961 f   nafxcw:winstr.obj
 0001:0003f9b7       ?AfxFindStringResourceHandle@@YGPAUHINSTANCE__@@I@Z 004409b7 f   nafxcw:winstr.obj
 0001:0003f9c2       ?AfxExtractSubString@@YGHAAV?$CStringT@DV?$StrTraitMFC@DV?$ChTraitsCRT@D@ATL@@@@@ATL@@PBDHD@Z 004409c2 f   nafxcw:winstr.obj
 0001:0003fa44       ??$HashKey@PB_W@@YGIPB_W@Z 00440a44 f   nafxcw:strcore.obj
 0001:0003fa63       ??$HashKey@PBD@@YGIPBD@Z   00440a63 f   nafxcw:strcore.obj
 0001:0003fa7d       ?AfxGetStringManager@@YGPAUIAtlStringMgr@ATL@@XZ 00440a7d f   nafxcw:strcore.obj
 0001:0003fa83       ?Allocate@CAfxStringMgr@@UAEPAUCStringData@ATL@@HH@Z 00440a83 f   nafxcw:strcore.obj
 0001:0003fabe       ?Free@CAfxStringMgr@@UAEXPAUCStringData@ATL@@@Z 00440abe f   nafxcw:strcore.obj
 0001:0003facb       ?Reallocate@CAfxStringMgr@@UAEPAUCStringData@ATL@@PAU23@HH@Z 00440acb f   nafxcw:strcore.obj
 0001:0003fafa       ?Clone@CAfxStringMgr@@UAEPAUIAtlStringMgr@ATL@@XZ 00440afa f   nafxcw:strcore.obj
 0001:0003fafd       ??B?$CSimpleStringT@_W$0A@@ATL@@QBEPB_WXZ 00440afd f i nafxcw:strcore.obj
 0001:0003fb00       ?GetData@?$CSimpleStringT@_W$0A@@ATL@@ABEPAUCStringData@2@XZ 00440b00 f i nafxcw:strcore.obj
 0001:0003fb06       ?StringLength@?$CSimpleStringT@_W$0A@@ATL@@SAHPB_W@Z 00440b06 f i nafxcw:strcore.obj
 0001:0003fb15       ?GetString@?$CSimpleStringT@_W$0A@@ATL@@QBEPB_WXZ 00440b15 f i nafxcw:strcore.obj
 0001:0003fb18       ?CopyChars@?$CSimpleStringT@_W$0A@@ATL@@SAXPA_WPB_WH@Z 00440b18 f i nafxcw:strcore.obj
 0001:0003fb30       ?CopyCharsOverlapped@?$CSimpleStringT@_W$0A@@ATL@@SAXPA_WPB_WH@Z 00440b30 f i nafxcw:strcore.obj
 0001:0003fb48       ?AfxA2WHelper@@YGPA_WPA_WPBDH@Z 00440b48 f   nafxcw:strcore.obj
 0001:0003fb5e       ?AfxW2AHelper@@YGPADPADPB_WH@Z 00440b5e f   nafxcw:strcore.obj
 0001:0003fb74       ??$HashKey@VCComBSTR@ATL@@@@YGIVCComBSTR@ATL@@@Z 00440b74 f   nafxcw:strcore.obj
 0001:0003fbac       ??0CAfxStringMgr@@QAE@XZ   00440bac f i nafxcw:strcore.obj
 0001:0003fbd2       ?GetNilString@CAfxStringMgr@@UAEPAUCStringData@ATL@@XZ 00440bd2 f   nafxcw:strcore.obj
 0001:0003fbe0       ?GetLength@?$CSimpleStringT@_W$0A@@ATL@@QBEHXZ 00440be0 f i nafxcw:strcore.obj
 0001:0003fbe6       ?Attach@?$CSimpleStringT@_W$0A@@ATL@@AAEXPAUCStringData@2@@Z 00440be6 f i nafxcw:strcore.obj
 0001:0003fbf2       ?SetLength@?$CSimpleStringT@_W$0A@@ATL@@AAEXH@Z 00440bf2 f i nafxcw:strcore.obj
 0001:0003fc19       ?ThrowMemoryException@?$CSimpleStringT@_W$0A@@ATL@@KAXXZ 00440c19 f i nafxcw:strcore.obj
 0001:0003fc24       ??$SerializeElementsInsertExtract@VCComBSTR@ATL@@@@YGXAAVCArchive@@PAVCComBSTR@ATL@@H@Z 00440c24 f i nafxcw:strcore.obj
 0001:0003fc72       ??$?6DV?$StrTraitMFC@DV?$ChTraitsCRT@D@ATL@@@@@@YGAAVCArchive@@AAV0@ABV?$CStringT@DV?$StrTraitMFC@DV?$ChTraitsCRT@D@ATL@@@@@ATL@@@Z 00440c72 f i nafxcw:strcore.obj
 0001:0003fc9e       ??$?6_WV?$StrTraitMFC@_WV?$ChTraitsCRT@_W@ATL@@@@@@YGAAVCArchive@@AAV0@ABV?$CStringT@_WV?$StrTraitMFC@_WV?$ChTraitsCRT@_W@ATL@@@@@ATL@@@Z 00440c9e f i nafxcw:strcore.obj
 0001:0003fccd       ?Empty@?$CSimpleStringT@_W$0A@@ATL@@QAEXXZ 00440ccd f i nafxcw:strcore.obj
 0001:0003fd11       ?ReleaseBufferSetLength@?$CSimpleStringT@_W$0A@@ATL@@QAEXH@Z 00440d11 f i nafxcw:strcore.obj
 0001:0003fd16       ?Fork@?$CSimpleStringT@_W$0A@@ATL@@AAEXH@Z 00440d16 f i nafxcw:strcore.obj
 0001:0003fd7d       ?Reallocate@?$CSimpleStringT@_W$0A@@ATL@@AAEXH@Z 00440d7d f i nafxcw:strcore.obj
 0001:0003fda5       ??$SerializeElements@VCComBSTR@ATL@@@@YGXAAVCArchive@@PAVCComBSTR@ATL@@H@Z 00440da5 f   nafxcw:strcore.obj
 0001:0003fdaa       ??0?$CTempBuffer@D$0IA@VCCRTAllocator@ATL@@@ATL@@QAE@I@Z 00440daa f i nafxcw:strcore.obj
 0001:0003fdbf       ??0?$CTempBuffer@_W$0IA@VCCRTAllocator@ATL@@@ATL@@QAE@I@Z 00440dbf f i nafxcw:strcore.obj
 0001:0003fdd7       ?PrepareWrite2@?$CSimpleStringT@_W$0A@@ATL@@AAEXH@Z 00440dd7 f i nafxcw:strcore.obj
 0001:0003fe1e       ?PrepareWrite@?$CSimpleStringT@_W$0A@@ATL@@AAEPA_WH@Z 00440e1e f i nafxcw:strcore.obj
 0001:0003fe48       ?GetBuffer@?$CSimpleStringT@_W$0A@@ATL@@QAEPA_WH@Z 00440e48 f i nafxcw:strcore.obj
 0001:0003fe4d       ?SetString@?$CSimpleStringT@_W$0A@@ATL@@QAEXPB_WH@Z 00440e4d f i nafxcw:strcore.obj
 0001:0003feb6       ??4?$CStringT@_WV?$StrTraitMFC@_WV?$ChTraitsCRT@_W@ATL@@@@@ATL@@QAEAAV01@PBD@Z 00440eb6 f i nafxcw:strcore.obj
 0001:0003ff00       ?SetString@?$CSimpleStringT@_W$0A@@ATL@@QAEXPB_W@Z 00440f00 f i nafxcw:strcore.obj
 0001:0003ff25       ??$?5DV?$StrTraitMFC@DV?$ChTraitsCRT@D@ATL@@@@@@YGAAVCArchive@@AAV0@AAV?$CStringT@DV?$StrTraitMFC@DV?$ChTraitsCRT@D@ATL@@@@@ATL@@@Z 00440f25 f i nafxcw:strcore.obj
 0001:00040046       ??4?$CSimpleStringT@_W$0A@@ATL@@QAEAAV01@PB_W@Z 00441046 f i nafxcw:strcore.obj
 0001:00040058       ??$SerializeElementsInsertExtract@V?$CStringT@DV?$StrTraitMFC@DV?$ChTraitsCRT@D@ATL@@@@@ATL@@@@YGXAAVCArchive@@PAV?$CStringT@DV?$StrTraitMFC@DV?$ChTraitsCRT@D@ATL@@@@@ATL@@H@Z 00441058 f i nafxcw:strcore.obj
 0001:0004009a       ??4?$CStringT@_WV?$StrTraitMFC@_WV?$ChTraitsCRT@_W@ATL@@@@@ATL@@QAEAAV01@PB_W@Z 0044109a f i nafxcw:strcore.obj
 0001:000400ac       ??$SerializeElements@V?$CStringT@DV?$StrTraitMFC@DV?$ChTraitsCRT@D@ATL@@@@@ATL@@@@YGXAAVCArchive@@PAV?$CStringT@DV?$StrTraitMFC@DV?$ChTraitsCRT@D@ATL@@@@@ATL@@H@Z 004410ac f   nafxcw:strcore.obj
 0001:000400b1       ??$?5_WV?$StrTraitMFC@_WV?$ChTraitsCRT@_W@ATL@@@@@@YGAAVCArchive@@AAV0@AAV?$CStringT@_WV?$StrTraitMFC@_WV?$ChTraitsCRT@_W@ATL@@@@@ATL@@@Z 004410b1 f i nafxcw:strcore.obj
 0001:000401d2       ??$SerializeElementsInsertExtract@V?$CStringT@_WV?$StrTraitMFC@_WV?$ChTraitsCRT@_W@ATL@@@@@ATL@@@@YGXAAVCArchive@@PAV?$CStringT@_WV?$StrTraitMFC@_WV?$ChTraitsCRT@_W@ATL@@@@@ATL@@H@Z 004411d2 f i nafxcw:strcore.obj
 0001:00040214       ??$SerializeElements@V?$CStringT@_WV?$StrTraitMFC@_WV?$ChTraitsCRT@_W@ATL@@@@@ATL@@@@YGXAAVCArchive@@PAV?$CStringT@_WV?$StrTraitMFC@_WV?$ChTraitsCRT@_W@ATL@@@@@ATL@@H@Z 00441214 f   nafxcw:strcore.obj
 0001:00040223       ?AfxNewHandler@@YAHI@Z     00441223 f   nafxcw:afxmem.obj
 0001:00040228       ?AfxGetNewHandler@@YGP6AHI@ZXZ 00441228 f   nafxcw:afxmem.obj
 0001:0004022e       ?AfxSetNewHandler@@YGP6AHI@ZP6AHI@Z@Z 0044122e f   nafxcw:afxmem.obj
 0001:00040240       ??2@YAPAXI@Z               00441240 f   nafxcw:afxmem.obj
 0001:0004026b       ??3@YAXPAX@Z               0044126b f   nafxcw:afxmem.obj
 0001:00040270       ??_U@YAPAXI@Z              00441270 f   nafxcw:afxmem.obj
 0001:00040275       ??_V@YAXPAX@Z              00441275 f   nafxcw:afxmem.obj
 0001:0004027a       ?GetRuntimeClass@CObject@@UBEPAUCRuntimeClass@@XZ 0044127a f   nafxcw:objcore.obj
 0001:00040280       ?CreateObject@CRuntimeClass@@QAEPAVCObject@@XZ 00441280 f   nafxcw:objcore.obj
 0001:000402c6       ?IsSerializable@CObject@@QBEHXZ 004412c6 f   nafxcw:objcore.obj
 0001:000402d9       ?IsDerivedFrom@CRuntimeClass@@QBEHPBU1@@Z 004412d9 f   nafxcw:objcore.obj
 0001:000402fb       ?AddHead@?$CTypedSimpleList@PAUCRuntimeClass@@@@QAEXPAUCRuntimeClass@@@Z 004412fb f i nafxcw:objcore.obj
 0001:00040300       ?IsKindOf@CObject@@QBEHPBUCRuntimeClass@@@Z 00441300 f   nafxcw:objcore.obj
 0001:0004030b       ?AfxDynamicDownCast@@YAPAVCObject@@PAUCRuntimeClass@@PAV1@@Z 0044130b f   nafxcw:objcore.obj
 0001:00040331       ?AfxClassInit@@YGXPAUCRuntimeClass@@@Z 00441331 f   nafxcw:objcore.obj
 0001:00040357       ?UpdateSysColors@AUX_DATA@@QAEXXZ 00441357 f   nafxcw:auxdata.obj
 0001:0004039b       ?UpdateSysMetrics@AUX_DATA@@QAEXXZ 0044139b f   nafxcw:auxdata.obj
 0001:000403f5       ?AfxGetThread@@YGPAVCWinThread@@XZ 004413f5 f   nafxcw:thrdcore.obj
 0001:000403fe       ?AfxGetCurrentMessage@@YGPAUtagMSG@@XZ 004413fe f   nafxcw:thrdcore.obj
 0001:00040407       ?AfxInternalProcessWndProcException@@YGJPAVCException@@PBUtagMSG@@@Z 00441407 f   nafxcw:thrdcore.obj
 0001:0004042c       ?AfxProcessWndProcException@@YGJPAVCException@@PBUtagMSG@@@Z 0044142c f   nafxcw:thrdcore.obj
 0001:00040442       ?AfxTermThread@@YGXPAUHINSTANCE__@@@Z 00441442 f   nafxcw:thrdcore.obj
 0001:000404f0       ?Delete@CWinThread@@UAEXXZ 004414f0 f   nafxcw:thrdcore.obj
 0001:000404fe       ?InitInstance@CWinThread@@UAEHXZ 004414fe f   nafxcw:thrdcore.obj
 0001:00040501       ?Run@CWinThread@@UAEHXZ    00441501 f   nafxcw:thrdcore.obj
 0001:0004058e       ?ExitInstance@CWinThread@@UAEHXZ 0044158e f   nafxcw:thrdcore.obj
 0001:00040597       ?DispatchThreadMessageEx@CWinThread@@IAEHPAUtagMSG@@@Z 00441597 f   nafxcw:thrdcore.obj
 0001:0004060d       ?ProcessWndProcException@CWinThread@@UAEJPAVCException@@PBUtagMSG@@@Z 0044160d f   nafxcw:thrdcore.obj
 0001:00040612       ?IsHelpKey@@YGHPAUtagMSG@@@Z 00441612 f   nafxcw:thrdcore.obj
 0001:00040658       ?IsEnterKey@@YAHPAUtagMSG@@@Z 00441658 f i nafxcw:thrdcore.obj
 0001:00040672       ?IsButtonUp@@YAHPAUtagMSG@@@Z 00441672 f i nafxcw:thrdcore.obj
 0001:00040683       ?AfxInternalPreTranslateMessage@@YAHPAUtagMSG@@@Z 00441683 f   nafxcw:thrdcore.obj
 0001:000406ef       ?AfxPreTranslateMessage@@YAHPAUtagMSG@@@Z 004416ef f   nafxcw:thrdcore.obj
 0001:0004070a       ?AfxInternalIsIdleMessage@@YAHPAUtagMSG@@@Z 0044170a f   nafxcw:thrdcore.obj
 0001:00040776       ?AfxIsIdleMessage@@YAHPAUtagMSG@@@Z 00441776 f   nafxcw:thrdcore.obj
 0001:00040791       ?AfxEndThread@@YGXIH@Z     00441791 f   nafxcw:thrdcore.obj
 0001:000407d6       ?IsIdleMessage@CWinThread@@UAEHPAUtagMSG@@@Z 004417d6 f   nafxcw:thrdcore.obj
 0001:000407e3       ?DispatchThreadMessage@CWinThread@@IAEXPAUtagMSG@@@Z 004417e3 f   nafxcw:thrdcore.obj
 0001:000407e8       ?PreTranslateMessage@CWinThread@@UAEHPAUtagMSG@@@Z 004417e8 f   nafxcw:thrdcore.obj
 0001:000407f5       ?GetMainWnd@CWinThread@@UAEPAVCWnd@@XZ 004417f5 f   nafxcw:thrdcore.obj
 0001:00040810       ?AfxInternalPumpMessage@@YGHXZ 00441810 f   nafxcw:thrdcore.obj
 0001:00040854       ?AfxPumpMessage@@YGHXZ     00441854 f   nafxcw:thrdcore.obj
 0001:0004086a       ?_AfxMsgFilterHook@@YGJHIJ@Z 0044186a f   nafxcw:thrdcore.obj
 0001:000408c3       ?ProcessMessageFilter@CWinThread@@UAEHHPAUtagMSG@@@Z 004418c3 f   nafxcw:thrdcore.obj
 0001:000409e3       ?PumpMessage@CWinThread@@UAEHXZ 004419e3 f   nafxcw:thrdcore.obj
 0001:000409e8       ?AfxInitThread@@YGXXZ      004419e8 f   nafxcw:thrdcore.obj
 0001:00040a16       ?OnIdle@CWinThread@@UAEHJ@Z 00441a16 f   nafxcw:thrdcore.obj
 0001:00040b1f       ?_AfxThreadEntry@@YGIPAX@Z 00441b1f f   nafxcw:thrdcore.obj
 0001:00040c4d       ?CreateThread@CWinThread@@QAEHKIPAU_SECURITY_ATTRIBUTES@@@Z 00441c4d f   nafxcw:thrdcore.obj
 0001:00040d30       ?AfxBeginThread@@YGPAVCWinThread@@P6AIPAX@Z0HIKPAU_SECURITY_ATTRIBUTES@@@Z 00441d30 f   nafxcw:thrdcore.obj
 0001:00040db2       ?AfxBeginThread@@YGPAVCWinThread@@PAUCRuntimeClass@@HIKPAU_SECURITY_ATTRIBUTES@@@Z 00441db2 f   nafxcw:thrdcore.obj
 0001:00040e12       ?OnAmbientProperty@CWnd@@UAEHPAVCOleControlSite@@JPAUtagVARIANT@@@Z 00441e12 f   nafxcw:winocc.obj
 0001:00040e1a       ?GetControlUnknown@CWnd@@QAEPAUIUnknown@@XZ 00441e1a f   nafxcw:winocc.obj
 0001:00040e26       ?PaintWindowlessControls@CWnd@@QAEHPAVCDC@@@Z 00441e26 f   nafxcw:winocc.obj
 0001:00040e3c       ?GetOleControlSite@CWnd@@QBEPAVCOleControlSite@@I@Z 00441e3c f   nafxcw:winocc.obj
 0001:00040e4f       ?CheckDlgButton@CWnd@@QAEXHI@Z 00441e4f f   nafxcw:winocc.obj
 0001:00040e71       ?CheckRadioButton@CWnd@@QAEXHHH@Z 00441e71 f   nafxcw:winocc.obj
 0001:00040e99       ?GetDlgItem@CWnd@@QBEPAV1@H@Z 00441e99 f   nafxcw:winocc.obj
 0001:00040ebd       ?GetDlgItem@CWnd@@QBEXHPAPAUHWND__@@@Z 00441ebd f   nafxcw:winocc.obj
 0001:00040ee1       ?GetDlgItemInt@CWnd@@QBEIHPAHH@Z 00441ee1 f   nafxcw:winocc.obj
 0001:00040f09       ?GetDlgItemTextA@CWnd@@QBEHHPADH@Z 00441f09 f   nafxcw:winocc.obj
 0001:00040f31       ?SendDlgItemMessageA@CWnd@@QAEJHIIJ@Z 00441f31 f   nafxcw:winocc.obj
 0001:00040f5f       ?SetDlgItemInt@CWnd@@QAEXHIH@Z 00441f5f f   nafxcw:winocc.obj
 0001:00040f8a       ?SetDlgItemTextA@CWnd@@QAEXHPBD@Z 00441f8a f   nafxcw:winocc.obj
 0001:00040faf       ?IsDlgButtonChecked@CWnd@@QBEIH@Z 00441faf f   nafxcw:winocc.obj
 0001:00040fd0       ?IsDialogMessageA@CWnd@@QAEHPAUtagMSG@@@Z 00441fd0 f   nafxcw:winocc.obj
 0001:00041003       ?GetStyle@CWnd@@QBEKXZ     00442003 f   nafxcw:winocc.obj
 0001:0004101d       ?GetExStyle@CWnd@@QBEKXZ   0044201d f   nafxcw:winocc.obj
 0001:00041037       ?ModifyStyle@CWnd@@QAEHKKI@Z 00442037 f   nafxcw:winocc.obj
 0001:00041061       ?ModifyStyleEx@CWnd@@QAEHKKI@Z 00442061 f   nafxcw:winocc.obj
 0001:0004108b       ?SetWindowTextA@CWnd@@QAEXPBD@Z 0044208b f   nafxcw:winocc.obj
 0001:000410ac       ?GetDlgCtrlID@CWnd@@QBEHXZ 004420ac f   nafxcw:winocc.obj
 0001:000410c7       ?SetDlgCtrlID@CWnd@@QAEHH@Z 004420c7 f   nafxcw:winocc.obj
 0001:000410ea       ?MoveWindow@CWnd@@QAEXHHHHH@Z 004420ea f   nafxcw:winocc.obj
 0001:00041128       ?ShowWindow@CWnd@@QAEHH@Z  00442128 f   nafxcw:winocc.obj
 0001:00041149       ?IsWindowEnabled@CWnd@@QBEHXZ 00442149 f   nafxcw:winocc.obj
 0001:00041164       ?EnableWindow@CWnd@@QAEHH@Z 00442164 f   nafxcw:winocc.obj
 0001:00041185       ?SetFocus@CWnd@@QAEPAV1@XZ 00442185 f   nafxcw:winocc.obj
 0001:000411a6       ?InvokeHelper@CWnd@@QAAXJGGPAXPBEZZ 004421a6 f   nafxcw:winocc.obj
 0001:000411cf       ?GetProperty@CWnd@@QBEXJGPAX@Z 004421cf f   nafxcw:winocc.obj
 0001:000411f1       ?SetProperty@CWnd@@QAAXJGZZ 004421f1 f   nafxcw:winocc.obj
 0001:00041211       ?GetDSCCursor@CWnd@@QAEPAUIUnknown@@XZ 00442211 f   nafxcw:winocc.obj
 0001:00041237       ?BindDefaultProperty@CWnd@@QAEXJGPBDPAV1@@Z 00442237 f   nafxcw:winocc.obj
 0001:00041242       ?BindProperty@CWnd@@QAEXJPAV1@@Z 00442242 f   nafxcw:winocc.obj
 0001:0004124d       ?AttachControlSite@CWnd@@QAEXPAV1@I@Z 0044224d f   nafxcw:winocc.obj
 0001:00041272       ?GetStyle@COleControlSiteOrWnd@@QBEKXZ 00442272 f   nafxcw:winocc.obj
 0001:0004128b       ?IsDisabled@CDlgGroupRadioButtonIterator@@SA_NPBUCOleControlSiteOrWnd@@@Z 0044228b f i nafxcw:winocc.obj
 0001:000412cd       ?IsGroup@CDlgGroupRadioButtonIterator@@SA_NPBUCOleControlSiteOrWnd@@@Z 004422cd f i nafxcw:winocc.obj
 0001:000412dd       ?AttachControlSite@COleControlContainer@@UAEXPAVCWnd@@I@Z 004422dd f   nafxcw:winocc.obj
 0001:0004131d       ?GetNext@?$_CTypedPtrList@VCPtrList@@PAUCOleControlSiteOrWnd@@@@QAEAAPAUCOleControlSiteOrWnd@@AAPAU__POSITION@@@Z 0044231d f i nafxcw:winocc.obj
 0001:00041322       ?GetPrev@?$_CTypedPtrList@VCPtrList@@PAUCOleControlSiteOrWnd@@@@QAEAAPAUCOleControlSiteOrWnd@@AAPAU__POSITION@@@Z 00442322 f i nafxcw:winocc.obj
 0001:00041327       ??0?$CTypedPtrListIterator@VCPtrList@@PAUCOleControlSiteOrWnd@@@@QAE@ABV?$CTypedPtrList@VCPtrList@@PAUCOleControlSiteOrWnd@@@@@Z 00442327 f i nafxcw:winocc.obj
 0001:00041338       ??0?$CTypedPtrListIterator@VCPtrList@@PAUCOleControlSiteOrWnd@@@@QAE@ABV?$CTypedPtrList@VCPtrList@@PAUCOleControlSiteOrWnd@@@@PAU__POSITION@@@Z 00442338 f i nafxcw:winocc.obj
 0001:0004134a       ??0?$CTypedPtrListIterator@VCPtrList@@PAUCOleControlSiteOrWnd@@@@QAE@ABV0@@Z 0044234a f i nafxcw:winocc.obj
 0001:0004135d       ??4?$CTypedPtrListIterator@VCPtrList@@PAUCOleControlSiteOrWnd@@@@QAEAAV0@ABV0@@Z 0044235d f i nafxcw:winocc.obj
 0001:0004136c       ?GetPosition@?$CTypedPtrListIterator@VCPtrList@@PAUCOleControlSiteOrWnd@@@@QBEPAU__POSITION@@XZ 0044236c f i nafxcw:winocc.obj
 0001:00041370       ?IsEnd@?$CTypedPtrListIterator@VCPtrList@@PAUCOleControlSiteOrWnd@@@@QBE_NXZ 00442370 f i nafxcw:winocc.obj
 0001:00041379       ??7?$CTypedPtrListIterator@VCPtrList@@PAUCOleControlSiteOrWnd@@@@QBE_NXZ 00442379 f i nafxcw:winocc.obj
 0001:00041382       ?GetNext@?$_CTypedPtrList@VCPtrList@@PAUCOleControlSiteOrWnd@@@@QBEPAUCOleControlSiteOrWnd@@AAPAU__POSITION@@@Z 00442382 f i nafxcw:winocc.obj
 0001:00041390       ?GetPrev@?$_CTypedPtrList@VCPtrList@@PAUCOleControlSiteOrWnd@@@@QBEPAUCOleControlSiteOrWnd@@AAPAU__POSITION@@@Z 00442390 f i nafxcw:winocc.obj
 0001:0004139e       ?GetAt@?$_CTypedPtrList@VCPtrList@@PAUCOleControlSiteOrWnd@@@@QBEPAUCOleControlSiteOrWnd@@PAU__POSITION@@@Z 0044239e f i nafxcw:winocc.obj
 0001:000413b1       ?ScrollWindowEx@CWnd@@QAEHHHPBUtagRECT@@0PAVCRgn@@PAU2@I@Z 004423b1 f   nafxcw:winocc.obj
 0001:00041402       ?SetWindowPos@CWnd@@QAEHPBV1@HHHHI@Z 00442402 f   nafxcw:winocc.obj
 0001:0004143e       ?AttachControlSite@CWnd@@IAEXPAVCHandleMap@@@Z 0044243e f   nafxcw:winocc.obj
 0001:0004147f       ?GetNextDlgTabItem@CWnd@@QBEPAUCOleControlSiteOrWnd@@PAU2@H@Z 0044247f f   nafxcw:winocc.obj
 0001:000415a7       ??0CDlgControlIterator@@QAE@ABVCOleControlContainer@@@Z 004425a7 f i nafxcw:winocc.obj
 0001:000415bb       ??0CDlgControlIterator@@QAE@ABVCOleControlContainer@@PAU__POSITION@@@Z 004425bb f i nafxcw:winocc.obj
 0001:000415d0       ??0CDlgControlIterator@@QAE@ABV0@@Z 004425d0 f i nafxcw:winocc.obj
 0001:000415e3       ??0CDlgControlIterator@@IAE@ABV?$CTypedPtrListIterator@VCPtrList@@PAUCOleControlSiteOrWnd@@@@@Z 004425e3 f i nafxcw:winocc.obj
 0001:000415f6       ??0CDlgGroupRadioButtonIterator@@QAE@AAVCOleControlContainer@@PAU__POSITION@@@Z 004425f6 f i nafxcw:winocc.obj
 0001:0004160b       ?IsEnd@CDlgGroupRadioButtonIterator@@QBE_NXZ 0044260b f i nafxcw:winocc.obj
 0001:00041614       ??4CDlgControlIterator@@QAEAAV0@ABV0@@Z 00442614 f i nafxcw:winocc.obj
 0001:00041623       ?RemoveRadioCheckFromGroup@CWnd@@QBEXPBUCOleControlSiteOrWnd@@@Z 00442623 f   nafxcw:winocc.obj
 0001:00041733       ?MoveNext@?$CTypedPtrListIterator@VCPtrList@@PAUCOleControlSiteOrWnd@@@@QAEXXZ 00442733 f i nafxcw:winocc.obj
 0001:00041744       ?MovePrev@?$CTypedPtrListIterator@VCPtrList@@PAUCOleControlSiteOrWnd@@@@QAEXXZ 00442744 f i nafxcw:winocc.obj
 0001:00041755       ?Skip@?$CTypedPtrListIterator@VCPtrList@@PAUCOleControlSiteOrWnd@@@@QBE?AV1@H@Z 00442755 f i nafxcw:winocc.obj
 0001:0004179a       ??D?$CTypedPtrListIterator@VCPtrList@@PAUCOleControlSiteOrWnd@@@@QAEPAUCOleControlSiteOrWnd@@XZ 0044279a f i nafxcw:winocc.obj
 0001:000417aa       ??D?$CTypedPtrListIterator@VCPtrList@@PAUCOleControlSiteOrWnd@@@@QBEQAUCOleControlSiteOrWnd@@XZ 004427aa f i nafxcw:winocc.obj
 0001:000417ba       ?Skip@CDlgControlIterator@@QBE?AV1@H@Z 004427ba f i nafxcw:winocc.obj
 0001:000417de       ??BCDlgGroupRadioButtonIterator@@QBEPAUCOleControlSiteOrWnd@@XZ 004427de f i nafxcw:winocc.obj
 0001:000417ee       ?GetFirstButton@CDlgGroupRadioButtonIterator@@QBE?AVCDlgControlIterator@@XZ 004427ee f i nafxcw:winocc.obj
 0001:00041858       ?GetLastButton@CDlgGroupRadioButtonIterator@@QBE?AVCDlgControlIterator@@XZ 00442858 f i nafxcw:winocc.obj
 0001:00041970       ?GetWindowTextA@CWnd@@QBEHPADH@Z 00442970 f   nafxcw:winocc.obj
 0001:000419f0       ?GetWindowTextLengthA@CWnd@@QBEHXZ 004429f0 f   nafxcw:winocc.obj
 0001:00041a51       ?MoveNext@CDlgGroupRadioButtonIterator@@QAEXXZ 00442a51 f i nafxcw:winocc.obj
 0001:00041abe       ?MovePrev@CDlgGroupRadioButtonIterator@@QAEXXZ 00442abe f i nafxcw:winocc.obj
 0001:00041b2d       ?GetPrevDlgGroupItem@CWnd@@QBEPAUCOleControlSiteOrWnd@@PAU2@@Z 00442b2d f   nafxcw:winocc.obj
 0001:00041b7e       ?GetNextDlgGroupItem@CWnd@@QBEPAUCOleControlSiteOrWnd@@PAU2@@Z 00442b7e f   nafxcw:winocc.obj
 0001:00041bcf       ??0CCmdTarget@@QAE@XZ      00442bcf f   nafxcw:cmdtarg.obj
 0001:00041be9       ??1CCmdTarget@@UAE@XZ      00442be9 f   nafxcw:cmdtarg.obj
 0001:00041bf6       ?_AfxDispatchCmdMsg@@YGHPAVCCmdTarget@@IHP81@AEXXZPAXIPAUAFX_CMDHANDLERINFO@@@Z 00442bf6 f   nafxcw:cmdtarg.obj
 0001:00041d0e       ?OnCmdMsg@CCmdTarget@@UAEHIHPAXPAUAFX_CMDHANDLERINFO@@@Z 00442d0e f   nafxcw:cmdtarg.obj
 0001:00041e1a       ?IsInvokeAllowed@CCmdTarget@@UAEHJ@Z 00442e1a f   nafxcw:cmdtarg.obj
 0001:00041e20       ?GetDispatchIID@CCmdTarget@@UAEHPAU_GUID@@@Z 00442e20 f   nafxcw:cmdtarg.obj
 0001:00041e25       ?GetTypeInfoCount@CCmdTarget@@UAEIXZ 00442e25 f   nafxcw:cmdtarg.obj
 0001:00041e28       ?GetTypeLibCache@CCmdTarget@@UAEPAVCTypeLibCache@@XZ 00442e28 f   nafxcw:cmdtarg.obj
 0001:00041e2b       ?GetTypeLib@CCmdTarget@@UAEJKPAPAUITypeLib@@@Z 00442e2b f   nafxcw:cmdtarg.obj
 0001:00041e33       ?GetMessageMap@CCmdTarget@@MBEPBUAFX_MSGMAP@@XZ 00442e33 f   nafxcw:cmdtarg.obj
 0001:00041e39       ?GetDispatchMap@CCmdTarget@@MBEPBUAFX_DISPMAP@@XZ 00442e39 f   nafxcw:cmdtarg.obj
 0001:00041e3f       ?GetEventSinkMap@CCmdTarget@@MBEPBUAFX_EVENTSINKMAP@@XZ 00442e3f f   nafxcw:cmdtarg.obj
 0001:00041e45       ?GetInterfaceMap@CCmdTarget@@MBEPBUAFX_INTERFACEMAP@@XZ 00442e45 f   nafxcw:cmdtarg.obj
 0001:00041e4b       ?OnFinalRelease@CCmdTarget@@UAEXXZ 00442e4b f   nafxcw:cmdtarg.obj
 0001:00041e79       ?OnCreateAggregates@CCmdTarget@@UAEHXZ 00442e79 f   nafxcw:cmdtarg.obj
 0001:00041e7d       ?GetInterfaceHook@CCmdTarget@@UAEPAUIUnknown@@PBX@Z 00442e7d f   nafxcw:cmdtarg.obj
 0001:00041e82       ?GetConnectionMap@CCmdTarget@@MBEPBUAFX_CONNECTIONMAP@@XZ 00442e82 f   nafxcw:cmdtarg.obj
 0001:00041e88       ?GetConnectionHook@CCmdTarget@@MAEPAUIConnectionPoint@@ABU_GUID@@@Z 00442e88 f   nafxcw:cmdtarg.obj
 0001:00041e8d       ?GetExtraConnectionPoints@CCmdTarget@@MAEHPAVCPtrArray@@@Z 00442e8d f   nafxcw:cmdtarg.obj
 0001:00041e92       ?GetCommandMap@CCmdTarget@@MBEPBUAFX_OLECMDMAP@@XZ 00442e92 f   nafxcw:cmdtarg.obj
 0001:00041e98       ?GetRoutingView@CCmdTarget@@IAEPAVCView@@XZ 00442e98 f   nafxcw:cmdtarg.obj
 0001:00041e9d       ?GetRoutingFrame@CCmdTarget@@IAEPAVCFrameWnd@@XZ 00442e9d f   nafxcw:cmdtarg.obj
 0001:00041ea2       ??0CCmdUI@@QAE@XZ          00442ea2 f   nafxcw:cmdtarg.obj
 0001:00041ec8       ?DoUpdate@CCmdUI@@QAEHPAVCCmdTarget@@H@Z 00442ec8 f   nafxcw:cmdtarg.obj
 0001:00041f29       ?BeginWaitCursor@CCmdTarget@@QAEXXZ 00442f29 f   nafxcw:cmdtarg.obj
 0001:00041f3e       ?EndWaitCursor@CCmdTarget@@QAEXXZ 00442f3e f   nafxcw:cmdtarg.obj
 0001:00041f53       ?RestoreWaitCursor@CCmdTarget@@QAEXXZ 00442f53 f   nafxcw:cmdtarg.obj
 0001:00041f68       ?Enable@CCmdUI@@UAEXH@Z    00442f68 f   nafxcw:cmdtarg.obj
 0001:00041fe7       ?SetCheck@CCmdUI@@UAEXH@Z  00442fe7 f   nafxcw:cmdtarg.obj
 0001:0004204c       ?SetRadio@CCmdUI@@UAEXH@Z  0044304c f   nafxcw:cmdtarg.obj
 0001:000420a2       ?SetText@CCmdUI@@UAEXPBD@Z 004430a2 f   nafxcw:cmdtarg.obj
 0001:000420f6       ?AfxLockTempMaps@@YGXXZ    004430f6 f   nafxcw:winhand.obj
 0001:000420ff       ??0CHandleMap@@QAE@PAUCRuntimeClass@@P6GXPAVCObject@@@Z2IH@Z 004430ff f   nafxcw:winhand.obj
 0001:00042183       ?GetDataNA@?$CThreadLocal@V_AFX_THREAD_STATE@@@@QAEPAV_AFX_THREAD_STATE@@XZ 00443183 f i nafxcw:winhand.obj
 0001:00042188       ?FromHandle@CHandleMap@@QAEPAVCObject@@PAX@Z 00443188 f   nafxcw:winhand.obj
 0001:0004224a       ?DeleteTemp@CHandleMap@@QAEXXZ 0044324a f   nafxcw:winhand.obj
 0001:000422ad       ?DeleteTempMap@CWnd@@SGXXZ 004432ad f   nafxcw:winhand.obj
 0001:000422ba       ?DeleteTempMap@CImageList@@SGXXZ 004432ba f   nafxcw:winhand.obj
 0001:000422c7       ?DeleteTempMap@CDC@@SGXXZ  004432c7 f   nafxcw:winhand.obj
 0001:000422d4       ?DeleteTempMap@CGdiObject@@SGXXZ 004432d4 f   nafxcw:winhand.obj
 0001:000422e1       ?DeleteTempMap@CMenu@@SGXXZ 004432e1 f   nafxcw:winhand.obj
 0001:000422ee       ?AfxUnlockTempMaps@@YGHH@Z 004432ee f   nafxcw:winhand.obj
 0001:000423e7       ??1?$CProcessLocal@V_AFX_HTMLHELP_STATE@@@@QAE@XZ 004433e7 f i nafxcw:wincore.obj
 0001:000423ec       ??0XAccessible@CWnd@@QAE@XZ 004433ec f i nafxcw:wincore.obj
 0001:000423f5       ??0XAccessibleServer@CWnd@@QAE@XZ 004433f5 f i nafxcw:wincore.obj
 0001:000423fe       ??0CWnd@@AAE@PAUHWND__@@@Z 004433fe f   nafxcw:wincore.obj
 0001:00042444       ?_AfxModifyStyle@@YGHPAUHWND__@@HKKI@Z 00443444 f   nafxcw:wincore.obj
 0001:00042494       ?ModifyStyle@CWnd@@SGHPAUHWND__@@KKI@Z 00443494 f   nafxcw:wincore.obj
 0001:000424ae       ?ModifyStyleEx@CWnd@@SGHPAUHWND__@@KKI@Z 004434ae f   nafxcw:wincore.obj
 0001:000424c8       ?PreSubclassWindow@CWnd@@UAEXXZ 004434c8 f   nafxcw:wincore.obj
 0001:000424c9       ?PostNcDestroy@CWnd@@MAEXXZ 004434c9 f   nafxcw:wincore.obj
 0001:000424ca       ?OnFinalRelease@CWnd@@UAEXXZ 004434ca f   nafxcw:wincore.obj
 0001:000424db       ?DefWindowProcA@CWnd@@MAEJIIJ@Z 004434db f   nafxcw:wincore.obj
 0001:00042522       ?GetSuperWndProcAddr@CWnd@@MAEPAP6GJPAUHWND__@@IIJ@ZXZ 00443522 f   nafxcw:wincore.obj
 0001:00042526       ?PreTranslateMessage@CWnd@@UAEHPAUtagMSG@@@Z 00443526 f   nafxcw:wincore.obj
 0001:00042545       ?OnToolHitTest@CWnd@@UBEHVCPoint@@PAUtagTOOLINFOA@@@Z 00443545 f   nafxcw:wincore.obj
 0001:000425b6       ?GetWindowPlacement@CWnd@@QBEHPAUtagWINDOWPLACEMENT@@@Z 004435b6 f   nafxcw:wincore.obj
 0001:000425cd       ?SetWindowPlacement@CWnd@@QAEHPBUtagWINDOWPLACEMENT@@@Z 004435cd f   nafxcw:wincore.obj
 0001:000425e4       ?AfxRegisterClass@@YGHPAUtagWNDCLASSA@@@Z 004435e4 f   nafxcw:wincore.obj
 0001:000426e6       ??1_AFX_HTMLHELP_STATE@@UAE@XZ 004436e6 f   nafxcw:wincore.obj
 0001:000426fb       ??_E_AFX_HTMLHELP_STATE@@UAEPAXI@Z 004436fb f i nafxcw:wincore.obj
 0001:000426fb       ??_G_AFX_HTMLHELP_STATE@@UAEPAXI@Z 004436fb f i nafxcw:wincore.obj
 0001:00042716       ?GetMessageMap@CWnd@@MBEPBUAFX_MSGMAP@@XZ 00443716 f   nafxcw:wincore.obj
 0001:0004271c       ?AfxFindMessageEntry@@YGPBUAFX_MSGMAP_ENTRY@@PBU1@III@Z 0044371c f   nafxcw:wincore.obj
 0001:0004275c       ?AfxResetMsgCache@@YGXXZ   0044375c f   nafxcw:wincore.obj
 0001:00042771       ?WindowProc@CWnd@@MAEJIIJ@Z 00443771 f   nafxcw:wincore.obj
 0001:000427b5       ??0CTestCmdUI@@QAE@XZ      004437b5 f   nafxcw:wincore.obj
 0001:000427ce       ?Enable@CTestCmdUI@@UAEXH@Z 004437ce f   nafxcw:wincore.obj
 0001:000427df       ?SetCheck@CTestCmdUI@@UAEXH@Z 004437df f   nafxcw:wincore.obj
 0001:000427e2       ?SetRadio@CTestCmdUI@@UAEXH@Z 004437e2 f   nafxcw:wincore.obj
 0001:000427e5       ?SetText@CTestCmdUI@@UAEXPBD@Z 004437e5 f   nafxcw:wincore.obj
 0001:000427e8       ?GetScrollBarCtrl@CWnd@@UBEPAVCScrollBar@@H@Z 004437e8 f   nafxcw:wincore.obj
 0001:000427ed       ?SetScrollInfo@CWnd@@QAEHHPAUtagSCROLLINFO@@H@Z 004437ed f   nafxcw:wincore.obj
 0001:0004282a       ?GetScrollInfo@CWnd@@QAEHHPAUtagSCROLLINFO@@I@Z 0044382a f   nafxcw:wincore.obj
 0001:00042867       ?AfxRepositionWindow@@YGXPAUAFX_SIZEPARENTPARAMS@@PAUHWND__@@PBUtagRECT@@@Z 00443867 f   nafxcw:wincore.obj
 0001:000428f3       ?CalcWindowRect@CWnd@@UAEXPAUtagRECT@@I@Z 004438f3 f   nafxcw:wincore.obj
 0001:00042920       ?GetInterfaceMap@CWnd@@MBEPBUAFX_INTERFACEMAP@@XZ 00443920 f   nafxcw:wincore.obj
 0001:00042926       ?AddRef@XAccessible@CWnd@@UAGKXZ 00443926 f   nafxcw:wincore.obj
 0001:00042935       ?Release@XAccessible@CWnd@@UAGKXZ 00443935 f   nafxcw:wincore.obj
 0001:00042944       ?QueryInterface@XAccessible@CWnd@@UAGJABU_GUID@@PAPAX@Z 00443944 f   nafxcw:wincore.obj
 0001:0004295b       ?Invoke@XAccessible@CWnd@@UAGJJABU_GUID@@KGPAUtagDISPPARAMS@@PAUtagVARIANT@@PAUtagEXCEPINFO@@PAI@Z 0044395b f   nafxcw:wincore.obj
 0001:00042964       ?GetIDsOfNames@XAccessible@CWnd@@UAGJABU_GUID@@PAPA_WIKPAJ@Z 00443964 f   nafxcw:wincore.obj
 0001:0004297f       ?GetTypeInfoCount@XAccessible@CWnd@@UAGJPAI@Z 0044397f f   nafxcw:wincore.obj
 0001:00042999       ?GetTypeInfo@XAccessible@CWnd@@UAGJIKPAPAUITypeInfo@@@Z 00443999 f   nafxcw:wincore.obj
 0001:000429a1       ?get_accParent@XAccessible@CWnd@@UAGJPAPAUIDispatch@@@Z 004439a1 f   nafxcw:wincore.obj
 0001:000429b7       ?get_accChildCount@XAccessible@CWnd@@UAGJPAJ@Z 004439b7 f   nafxcw:wincore.obj
 0001:000429cd       ?get_accChild@XAccessible@CWnd@@UAGJUtagVARIANT@@PAPAUIDispatch@@@Z 004439cd f   nafxcw:wincore.obj
 0001:000429f4       ?get_accName@XAccessible@CWnd@@UAGJUtagVARIANT@@PAPA_W@Z 004439f4 f   nafxcw:wincore.obj
 0001:00042a1b       ?get_accValue@XAccessible@CWnd@@UAGJUtagVARIANT@@PAPA_W@Z 00443a1b f   nafxcw:wincore.obj
 0001:00042a42       ?get_accDescription@XAccessible@CWnd@@UAGJUtagVARIANT@@PAPA_W@Z 00443a42 f   nafxcw:wincore.obj
 0001:00042a69       ?get_accRole@XAccessible@CWnd@@UAGJUtagVARIANT@@PAU3@@Z 00443a69 f   nafxcw:wincore.obj
 0001:00042a90       ?get_accState@XAccessible@CWnd@@UAGJUtagVARIANT@@PAU3@@Z 00443a90 f   nafxcw:wincore.obj
 0001:00042ab7       ?get_accHelp@XAccessible@CWnd@@UAGJUtagVARIANT@@PAPA_W@Z 00443ab7 f   nafxcw:wincore.obj
 0001:00042ade       ?get_accHelpTopic@XAccessible@CWnd@@UAGJPAPA_WUtagVARIANT@@PAJ@Z 00443ade f   nafxcw:wincore.obj
 0001:00042b09       ?get_accKeyboardShortcut@XAccessible@CWnd@@UAGJUtagVARIANT@@PAPA_W@Z 00443b09 f   nafxcw:wincore.obj
 0001:00042b30       ?get_accFocus@XAccessible@CWnd@@UAGJPAUtagVARIANT@@@Z 00443b30 f   nafxcw:wincore.obj
 0001:00042b46       ?get_accSelection@XAccessible@CWnd@@UAGJPAUtagVARIANT@@@Z 00443b46 f   nafxcw:wincore.obj
 0001:00042b5c       ?get_accDefaultAction@XAccessible@CWnd@@UAGJUtagVARIANT@@PAPA_W@Z 00443b5c f   nafxcw:wincore.obj
 0001:00042b83       ?accSelect@XAccessible@CWnd@@UAGJJUtagVARIANT@@@Z 00443b83 f   nafxcw:wincore.obj
 0001:00042baa       ?accLocation@XAccessible@CWnd@@UAGJPAJ000UtagVARIANT@@@Z 00443baa f   nafxcw:wincore.obj
 0001:00042bdb       ?accNavigate@XAccessible@CWnd@@UAGJJUtagVARIANT@@PAU3@@Z 00443bdb f   nafxcw:wincore.obj
 0001:00042c06       ?accHitTest@XAccessible@CWnd@@UAGJJJPAUtagVARIANT@@@Z 00443c06 f   nafxcw:wincore.obj
 0001:00042c24       ?accDoDefaultAction@XAccessible@CWnd@@UAGJUtagVARIANT@@@Z 00443c24 f   nafxcw:wincore.obj
 0001:00042c47       ?put_accName@XAccessible@CWnd@@UAGJUtagVARIANT@@PA_W@Z 00443c47 f   nafxcw:wincore.obj
 0001:00042c6e       ?put_accValue@XAccessible@CWnd@@UAGJUtagVARIANT@@PA_W@Z 00443c6e f   nafxcw:wincore.obj
 0001:00042c95       ?AddRef@XAccessibleServer@CWnd@@UAGKXZ 00443c95 f   nafxcw:wincore.obj
 0001:00042ca4       ?Release@XAccessibleServer@CWnd@@UAGKXZ 00443ca4 f   nafxcw:wincore.obj
 0001:00042cb3       ?QueryInterface@XAccessibleServer@CWnd@@UAGJABU_GUID@@PAPAX@Z 00443cb3 f   nafxcw:wincore.obj
 0001:00042cca       ?SetProxy@XAccessibleServer@CWnd@@UAGJPAUIAccessibleProxy@@@Z 00443cca f   nafxcw:wincore.obj
 0001:00042ce0       ?GetHWND@XAccessibleServer@CWnd@@UAGJPAPAUHWND__@@@Z 00443ce0 f   nafxcw:wincore.obj
 0001:00042cfd       ?GetEnumVariant@XAccessibleServer@CWnd@@UAGJPAPAUIEnumVARIANT@@@Z 00443cfd f   nafxcw:wincore.obj
 0001:00042d17       ?EnsureStdObj@CWnd@@UAEJXZ 00443d17 f   nafxcw:wincore.obj
 0001:00042d36       ?get_accParent@CWnd@@UAEJPAPAUIDispatch@@@Z 00443d36 f   nafxcw:wincore.obj
 0001:00042d46       ?get_accChildCount@CWnd@@UAEJPAJ@Z 00443d46 f   nafxcw:wincore.obj
 0001:00042d56       ?get_accChild@CWnd@@UAEJUtagVARIANT@@PAPAUIDispatch@@@Z 00443d56 f   nafxcw:wincore.obj
 0001:00042d77       ?get_accName@CWnd@@UAEJUtagVARIANT@@PAPA_W@Z 00443d77 f   nafxcw:wincore.obj
 0001:00042d98       ?get_accValue@CWnd@@UAEJUtagVARIANT@@PAPA_W@Z 00443d98 f   nafxcw:wincore.obj
 0001:00042db9       ?get_accDescription@CWnd@@UAEJUtagVARIANT@@PAPA_W@Z 00443db9 f   nafxcw:wincore.obj
 0001:00042dda       ?get_accRole@CWnd@@UAEJUtagVARIANT@@PAU2@@Z 00443dda f   nafxcw:wincore.obj
 0001:00042dfb       ?get_accState@CWnd@@UAEJUtagVARIANT@@PAU2@@Z 00443dfb f   nafxcw:wincore.obj
 0001:00042e1c       ?get_accHelp@CWnd@@UAEJUtagVARIANT@@PAPA_W@Z 00443e1c f   nafxcw:wincore.obj
 0001:00042e3d       ?get_accHelpTopic@CWnd@@UAEJPAPA_WUtagVARIANT@@PAJ@Z 00443e3d f   nafxcw:wincore.obj
 0001:00042e62       ?get_accKeyboardShortcut@CWnd@@UAEJUtagVARIANT@@PAPA_W@Z 00443e62 f   nafxcw:wincore.obj
 0001:00042e83       ?get_accFocus@CWnd@@UAEJPAUtagVARIANT@@@Z 00443e83 f   nafxcw:wincore.obj
 0001:00042e93       ?get_accSelection@CWnd@@UAEJPAUtagVARIANT@@@Z 00443e93 f   nafxcw:wincore.obj
 0001:00042ea3       ?get_accDefaultAction@CWnd@@UAEJUtagVARIANT@@PAPA_W@Z 00443ea3 f   nafxcw:wincore.obj
 0001:00042ec4       ?accSelect@CWnd@@UAEJJUtagVARIANT@@@Z 00443ec4 f   nafxcw:wincore.obj
 0001:00042ee5       ?accLocation@CWnd@@UAEJPAJ000UtagVARIANT@@@Z 00443ee5 f   nafxcw:wincore.obj
 0001:00042f11       ?accNavigate@CWnd@@UAEJJUtagVARIANT@@PAU2@@Z 00443f11 f   nafxcw:wincore.obj
 0001:00042f36       ?accHitTest@CWnd@@UAEJJJPAUtagVARIANT@@@Z 00443f36 f   nafxcw:wincore.obj
 0001:00042f4e       ?accDoDefaultAction@CWnd@@UAEJUtagVARIANT@@@Z 00443f4e f   nafxcw:wincore.obj
 0001:00042f6b       ?put_accName@CWnd@@UAEJUtagVARIANT@@PA_W@Z 00443f6b f   nafxcw:wincore.obj
 0001:00042f8c       ?put_accValue@CWnd@@UAEJUtagVARIANT@@PA_W@Z 00443f8c f   nafxcw:wincore.obj
 0001:00042fad       ?SetProxy@CWnd@@UAEJPAUIAccessibleProxy@@@Z 00443fad f   nafxcw:wincore.obj
 0001:00042fb9       ?GrayCtlColor@CWnd@@SGHPAUHDC__@@PAUHWND__@@IPAUHBRUSH__@@K@Z 00443fb9 f   nafxcw:wincore.obj
 0001:0004302e       ??0CDataExchange@@QAE@PAVCWnd@@H@Z 0044402e f   nafxcw:wincore.obj
 0001:00043044       ?CheckAutoCenter@CWnd@@UAEHXZ 00444044 f   nafxcw:wincore.obj
 0001:00043048       ?PreTranslateInput@CWnd@@QAEHPAUtagMSG@@@Z 00444048 f   nafxcw:wincore.obj
 0001:00043078       ?ContinueModal@CWnd@@UAEHXZ 00444078 f   nafxcw:wincore.obj
 0001:0004307f       ?SetOccDialogInfo@CWnd@@MAEHPAU_AFX_OCC_DIALOG_INFO@@@Z 0044407f f   nafxcw:wincore.obj
 0001:00043084       ?_AfxInitCommonControls@@YGJPAUtagINITCOMMONCONTROLSEX@@J@Z 00444084 f   nafxcw:wincore.obj
 0001:000430fc       ?IsFrameWnd@CWnd@@UBEHXZ   004440fc f   nafxcw:wincore.obj
 0001:000430ff       ?IsFrameWnd@CFrameWnd@@UBEHXZ 004440ff f   nafxcw:wincore.obj
 0001:00043103       ?IsTracking@CFrameWnd@@QBEHXZ 00444103 f   nafxcw:wincore.obj
 0001:00043122       ?CreateControlContainer@CWnd@@MAEHPAPAVCOleControlContainer@@@Z 00444122 f   nafxcw:wincore.obj
 0001:0004312f       ?CreateControlSite@CWnd@@MAEHPAVCOleControlContainer@@PAPAVCOleControlSite@@IABU_GUID@@@Z 0044412f f   nafxcw:wincore.obj
 0001:0004313c       ?GetControlContainer@CWnd@@QAEPAVCOleControlContainer@@XZ 0044413c f   nafxcw:wincore.obj
 0001:00043140       ??0CWnd@@QAE@XZ            00444140 f   nafxcw:wincore.obj
 0001:00043183       ?_AfxPreInitDialog@@YGXPAVCWnd@@PAUtagRECT@@PAK@Z 00444183 f   nafxcw:wincore.obj
 0001:000431a6       ?CreateEx@CWnd@@UAEHKPBD0KABUtagRECT@@PAV1@IPAX@Z 004441a6 f   nafxcw:wincore.obj
 0001:000431ef       ?Create@CWnd@@UAEHPBD0KABUtagRECT@@PAV1@IPAUCCreateContext@@@Z 004441ef f   nafxcw:wincore.obj
 0001:0004323d       ?CancelToolTips@CWnd@@SGXH@Z 0044423d f   nafxcw:wincore.obj
 0001:0004328e       ?TrackPopupMenu@CMenu@@QAEHIHHPAVCWnd@@PBUtagRECT@@@Z 0044428e f   nafxcw:wincore.obj
 0001:000432e2       ?TrackPopupMenuEx@CMenu@@QAEHIHHPAVCWnd@@PAUtagTPMPARAMS@@@Z 004442e2 f   nafxcw:wincore.obj
 0001:00043334       ?_AfxFindPopupMenuFromID@@YGPAVCMenu@@PAV1@I@Z 00444334 f   nafxcw:wincore.obj
 0001:0004338f       ?AfxRegisterWndClass@@YGPBDIPAUHICON__@@PAUHBRUSH__@@0@Z 0044438f f   nafxcw:wincore.obj
 0001:00043441       ?WinHelpInternal@CWnd@@UAEXKI@Z 00444441 f   nafxcw:wincore.obj
 0001:00043492       ?MessageBoxA@CWnd@@QAEHPBD0I@Z 00444492 f   nafxcw:wincore.obj
 0001:000434c4       ?SetScrollPos@CWnd@@QAEHHHH@Z 004444c4 f   nafxcw:wincore.obj
 0001:000434f4       ?GetScrollPos@CWnd@@QBEHH@Z 004444f4 f   nafxcw:wincore.obj
 0001:0004351c       ?SetScrollRange@CWnd@@QAEXHHHH@Z 0044451c f   nafxcw:wincore.obj
 0001:00043551       ?GetScrollRange@CWnd@@QBEXHPAH0@Z 00444551 f   nafxcw:wincore.obj
 0001:00043581       ?EnableScrollBarCtrl@CWnd@@QAEXHH@Z 00444581 f   nafxcw:wincore.obj
 0001:000435c4       ?GetScrollLimit@CWnd@@QAEHH@Z 004445c4 f   nafxcw:wincore.obj
 0001:0004360b       ?ScrollWindow@CWnd@@QAEXHHPBUtagRECT@@0@Z 0044460b f   nafxcw:wincore.obj
 0001:000436b5       ?OnActivateTopLevel@CWnd@@IAEJIJ@Z 004446b5 f   nafxcw:wincore.obj
 0001:000436d4       ??1?$CComPtr@UIAccessibleProxy@@@ATL@@QAE@XZ 004446d4 f i nafxcw:wincore.obj
 0001:000436e1       ?GetWindowLessChildCount@CWnd@@QAEJXZ 004446e1 f   nafxcw:wincore.obj
 0001:00043727       ?GetAccessibilityLocation@CWnd@@QAEJUtagVARIANT@@PAJ111@Z 00444727 f   nafxcw:wincore.obj
 0001:000437fa       ?UpdateData@CWnd@@QAEHH@Z  004447fa f   nafxcw:wincore.obj
 0001:00043898       ?CenterWindow@CWnd@@QAEXPAV1@@Z 00444898 f   nafxcw:wincore.obj
 0001:00043a4d       ?RunModalLoop@CWnd@@QAEHK@Z 00444a4d f   nafxcw:wincore.obj
 0001:00043b9c       ?EndModalLoop@CWnd@@UAEXH@Z 00444b9c f   nafxcw:wincore.obj
 0001:00043bc1       ?_AfxRegisterWithIcon@@YGHPAUtagWNDCLASSA@@PBDI@Z 00444bc1 f   nafxcw:wincore.obj
 0001:00043c02       ?AfxEndDeferRegisterClass@@YGHJ@Z 00444c02 f   nafxcw:wincore.obj
 0001:00043ed1       ?GetCurrentMessage@CWnd@@KGPBUtagMSG@@XZ 00444ed1 f   nafxcw:wincore.obj
 0001:00043f06       ?Default@CWnd@@IAEJXZ      00444f06 f   nafxcw:wincore.obj
 0001:00043f2d       ?afxMapHWND@@YGPAVCHandleMap@@H@Z 00444f2d f   nafxcw:wincore.obj
 0001:00043fa9       ?FromHandle@CWnd@@SGPAV1@PAUHWND__@@@Z 00444fa9 f   nafxcw:wincore.obj
 0001:00043fd0       ?FromHandlePermanent@CWnd@@SGPAV1@PAUHWND__@@@Z 00444fd0 f   nafxcw:wincore.obj
 0001:00043fea       ?Attach@CWnd@@QAEHPAUHWND__@@@Z 00444fea f   nafxcw:wincore.obj
 0001:00044023       ?Detach@CWnd@@QAEPAUHWND__@@XZ 00445023 f   nafxcw:wincore.obj
 0001:00044051       ?AfxUnhookWindowCreate@@YGHXZ 00445051 f   nafxcw:wincore.obj
 0001:00044093       ?PreCreateWindow@CWnd@@UAEHAAUtagCREATESTRUCTA@@@Z 00445093 f   nafxcw:wincore.obj
 0001:000440b3       ?OnDestroy@CWnd@@IAEXXZ    004450b3 f   nafxcw:wincore.obj
 0001:000440ee       ?OnNcDestroy@CWnd@@IAEXXZ  004450ee f   nafxcw:wincore.obj
 0001:000441ff       ?DestroyWindow@CWnd@@UAEHXZ 004451ff f   nafxcw:wincore.obj
 0001:00044253       ?OnNTCtlColor@CWnd@@IAEJIJ@Z 00445253 f   nafxcw:wincore.obj
 0001:00044299       ?GetTopLevelOwner@CWnd@@QBEPAV1@XZ 00445299 f   nafxcw:wincore.obj
 0001:000442c9       ?GetParentOwner@CWnd@@QBEPAV1@XZ 004452c9 f   nafxcw:wincore.obj
 0001:0004430d       ?GetSafeOwner@CWnd@@SGPAV1@PAV1@PAPAUHWND__@@@Z 0044530d f   nafxcw:wincore.obj
 0001:0004432b       ?GetDescendantWindow@CWnd@@SGPAV1@PAUHWND__@@HH@Z 0044532b f   nafxcw:wincore.obj
 0001:000443a2       ?RepositionBars@CWnd@@QAEXIIIIPAUtagRECT@@PBU2@H@Z 004453a2 f   nafxcw:wincore.obj
 0001:000444ea       ?WalkPreTranslateTree@CWnd@@SGHPAUHWND__@@PAUtagMSG@@@Z 004454ea f   nafxcw:wincore.obj
 0001:0004452c       ?SendChildNotifyLastMsg@CWnd@@QAEHPAJ@Z 0044552c f   nafxcw:wincore.obj
 0001:00044559       ?OnSetFocus@CWnd@@IAEXPAV1@@Z 00445559 f   nafxcw:wincore.obj
 0001:0004457c       ?OnHelpInfo@CWnd@@IAEHPAUtagHELPINFO@@@Z 0044557c f   nafxcw:wincore.obj
 0001:000445e6       ?OnGetObject@CWnd@@IAEJIJ@Z 004455e6 f   nafxcw:wincore.obj
 0001:00044620       ?OnHScroll@CWnd@@IAEXIIPAVCScrollBar@@@Z 00445620 f   nafxcw:wincore.obj
 0001:00044641       ?OnVScroll@CWnd@@IAEXIIPAVCScrollBar@@@Z 00445641 f   nafxcw:wincore.obj
 0001:00044662       ?OnPaint@CWnd@@IAEXXZ      00445662 f   nafxcw:wincore.obj
 0001:000446c8       ?OnEnterIdle@CWnd@@IAEXIPAV1@@Z 004456c8 f   nafxcw:wincore.obj
 0001:00044708       ?OnCtlColor@CWnd@@IAEPAUHBRUSH__@@PAVCDC@@PAV1@I@Z 00445708 f   nafxcw:wincore.obj
 0001:0004472f       ?UnsubclassWindow@CWnd@@QAEPAUHWND__@@XZ 0044572f f   nafxcw:wincore.obj
 0001:00044756       ?_AfxPostInitDialog@@YGXPAVCWnd@@ABUtagRECT@@K@Z 00445756 f   nafxcw:wincore.obj
 0001:000447cf       ?AfxCallWndProc@@YGJPAVCWnd@@PAUHWND__@@IIJ@Z 004457cf f   nafxcw:wincore.obj
 0001:000448bc       ?AfxWndProc@@YGJPAUHWND__@@IIJ@Z 004458bc f   nafxcw:wincore.obj
 0001:00044907       ?AfxGetAfxWndProc@@YGP6GJPAUHWND__@@IIJ@ZXZ 00445907 f   nafxcw:wincore.obj
 0001:0004490d       ??1CWnd@@UAE@XZ            0044590d f   nafxcw:wincore.obj
 0001:00044989       ?OnCharToItem@CWnd@@IAEHIPAVCListBox@@I@Z 00445989 f   nafxcw:wincore.obj
 0001:000449b4       ?OnVKeyToItem@CWnd@@IAEHIPAVCListBox@@I@Z 004459b4 f   nafxcw:wincore.obj
 0001:000449df       ?OnMeasureItem@CWnd@@IAEXHPAUtagMEASUREITEMSTRUCT@@@Z 004459df f   nafxcw:wincore.obj
 0001:00044a57       ?GetParentFrame@CWnd@@QBEPAVCFrameWnd@@XZ 00445a57 f   nafxcw:wincore.obj
 0001:00044a96       ?GetTopLevelFrame@CWnd@@QBEPAVCFrameWnd@@XZ 00445a96 f   nafxcw:wincore.obj
 0001:00044ad7       ?SendMessageToDescendants@CWnd@@SGXPAUHWND__@@IIJHH@Z 00445ad7 f   nafxcw:wincore.obj
 0001:00044b54       ?ReflectLastMsg@CWnd@@KGHPAUHWND__@@PAJ@Z 00445b54 f   nafxcw:wincore.obj
 0001:00044c03       ?OnParentNotify@CWnd@@IAEXIJ@Z 00445c03 f   nafxcw:wincore.obj
 0001:00044c30       ?OnDragList@CWnd@@IAEJIJ@Z 00445c30 f   nafxcw:wincore.obj
 0001:00044c5a       ?GetWindowedChildCount@CWnd@@QAEJXZ 00445c5a f   nafxcw:wincore.obj
 0001:00044c8a       ?GetAccessibleChildCount@CWnd@@QAEJXZ 00445c8a f   nafxcw:wincore.obj
 0001:00044ca1       ?GetAccessibleChild@CWnd@@QAEJUtagVARIANT@@PAPAUIDispatch@@@Z 00445ca1 f   nafxcw:wincore.obj
 0001:00044d10       ?GetAccessibilityHitTest@CWnd@@QAEJJJPAUtagVARIANT@@@Z 00445d10 f   nafxcw:wincore.obj
 0001:00044db4       ?UpdateDialogControls@CWnd@@QAEXPAVCCmdTarget@@H@Z 00445db4 f   nafxcw:wincore.obj
 0001:00044ec5       ?SubclassWindow@CWnd@@QAEHPAUHWND__@@@Z 00445ec5 f   nafxcw:wincore.obj
 0001:00044f07       ?SubclassDlgItem@CWnd@@QAEHIPAV1@@Z 00445f07 f   nafxcw:wincore.obj
 0001:00044f72       ??_ECWnd@@UAEPAXI@Z        00445f72 f i nafxcw:wincore.obj
 0001:00044f72       ??_GCWnd@@UAEPAXI@Z        00445f72 f i nafxcw:wincore.obj
 0001:00044f8e       ?GetWindowTextA@CWnd@@QBEXAAV?$CStringT@DV?$StrTraitMFC@DV?$ChTraitsCRT@D@ATL@@@@@ATL@@@Z 00445f8e f   nafxcw:wincore.obj
 0001:00044fd3       ?OnDrawItem@CWnd@@IAEXHPAUtagDRAWITEMSTRUCT@@@Z 00445fd3 f   nafxcw:wincore.obj
 0001:00045010       ?OnCompareItem@CWnd@@IAEHHPAUtagCOMPAREITEMSTRUCT@@@Z 00446010 f   nafxcw:wincore.obj
 0001:0004503a       ?OnDeleteItem@CWnd@@IAEXHPAUtagDELETEITEMSTRUCT@@@Z 0044603a f   nafxcw:wincore.obj
 0001:0004505a       ?AfxHtmlHelp@@YGPAUHWND__@@PAU1@PBDIK@Z 0044605a f   nafxcw:wincore.obj
 0001:000450cd       ?OnCommand@CWnd@@MAEHIJ@Z  004460cd f   nafxcw:wincore.obj
 0001:00045159       ?OnNotify@CWnd@@MAEHIJPAJ@Z 00446159 f   nafxcw:wincore.obj
 0001:000451d3       ?AfxGetParentOwner@@YGPAUHWND__@@PAU1@@Z 004461d3 f   nafxcw:wincore.obj
 0001:00045218       ?GetTopLevelParent@CWnd@@QBEPAV1@XZ 00446218 f   nafxcw:wincore.obj
 0001:00045240       ?IsTopParentActive@CWnd@@QBEHXZ 00446240 f   nafxcw:wincore.obj
 0001:00045274       ?ActivateTopParent@CWnd@@QAEXXZ 00446274 f   nafxcw:wincore.obj
 0001:000452b1       ?HandleFloatingSysCommand@CWnd@@QAEHIJ@Z 004462b1 f   nafxcw:wincore.obj
 0001:00045373       ?OnSysColorChange@CWnd@@IAEXXZ 00446373 f   nafxcw:wincore.obj
 0001:000453b9       ?OnDevModeChange@CWnd@@IAEXPAD@Z 004463b9 f   nafxcw:wincore.obj
 0001:00045404       ?OnDisplayChange@CWnd@@IAEJIJ@Z 00446404 f   nafxcw:wincore.obj
 0001:0004544d       ?GetAccessibleName@CWnd@@QAEJUtagVARIANT@@PAPA_W@Z 0044644d f   nafxcw:wincore.obj
 0001:00045548       ?ExecuteDlgInit@CWnd@@QAEHPAX@Z 00446548 f   nafxcw:wincore.obj
 0001:00045629       ?_AfxHandleActivate@@YGXPAVCWnd@@I0@Z 00446629 f   nafxcw:wincore.obj
 0001:0004568a       ?_AfxHandleSetCursor@@YGHPAVCWnd@@II@Z 0044668a f   nafxcw:wincore.obj
 0001:00045700       ?_AfxActivationWndProc@@YGJPAUHWND__@@IIJ@Z 00446700 f   nafxcw:wincore.obj
 0001:00045858       ?_AfxCbtFilterHook@@YGJHIJ@Z 00446858 f   nafxcw:wincore.obj
 0001:00045a80       ?AfxHookWindowCreate@@YGXPAVCWnd@@@Z 00446a80 f   nafxcw:wincore.obj
 0001:00045acc       ?CreateEx@CWnd@@UAEHKPBD0KHHHHPAUHWND__@@PAUHMENU__@@PAX@Z 00446acc f   nafxcw:wincore.obj
 0001:00045b92       ?PrepareForHelp@CWnd@@QAEXXZ 00446b92 f   nafxcw:wincore.obj
 0001:00045c05       ?OnWndMsg@CWnd@@MAEHIIJPAJ@Z 00446c05 f   nafxcw:wincore.obj
 0001:00046211       ?ReflectChildNotify@CWnd@@IAEHIIJPAJ@Z 00447211 f   nafxcw:wincore.obj
 0001:000462f9       ?OnSettingChange@CWnd@@IAEXIPBD@Z 004472f9 f   nafxcw:wincore.obj
 0001:00046325       ?CreateAccessibleProxy@CWnd@@UAEJIJPAJ@Z 00447325 f   nafxcw:wincore.obj
 0001:000463ed       ?ExecuteDlgInit@CWnd@@QAEHPBD@Z 004473ed f   nafxcw:wincore.obj
 0001:00046452       ?WinHelpA@CWnd@@UAEXKI@Z   00447452 f   nafxcw:wincore.obj
 0001:000464cc       ?HtmlHelpA@CWnd@@UAEXKI@Z  004474cc f   nafxcw:wincore.obj
 0001:00046545       ?OnChildNotify@CWnd@@MAEHIIJPAJ@Z 00447545 f   nafxcw:wincore.obj
 0001:00046596       ?GetDlgItemTextA@CWnd@@QBEHHAAV?$CStringT@DV?$StrTraitMFC@DV?$ChTraitsCRT@D@ATL@@@@@ATL@@@Z 00447596 f   nafxcw:wincore.obj
 0001:000466b5       ?DrawItem@CMenu@@UAEXPAUtagDRAWITEMSTRUCT@@@Z 004476b5 f   nafxcw:winmenu.obj
 0001:000466b8       ?MeasureItem@CMenu@@UAEXPAUtagMEASUREITEMSTRUCT@@@Z 004476b8 f   nafxcw:winmenu.obj
 0001:000466bb       ?afxMapHMENU@@YGPAVCHandleMap@@H@Z 004476bb f   nafxcw:winmenu.obj
 0001:00046737       ?FromHandle@CMenu@@SGPAV1@PAUHMENU__@@@Z 00447737 f   nafxcw:winmenu.obj
 0001:00046745       ?FromHandlePermanent@CMenu@@SGPAV1@PAUHMENU__@@@Z 00447745 f   nafxcw:winmenu.obj
 0001:0004675f       ?Attach@CMenu@@QAEHPAUHMENU__@@@Z 0044775f f   nafxcw:winmenu.obj
 0001:0004678c       ?Detach@CMenu@@QAEPAUHMENU__@@XZ 0044778c f   nafxcw:winmenu.obj
 0001:000467b6       ?DestroyMenu@CMenu@@QAEHXZ 004477b6 f   nafxcw:winmenu.obj
 0001:000467cc       ??0CChevronOwnerDrawMenu@@QAE@XZ 004477cc f   nafxcw:winmenu.obj
 0001:00046852       ?GetMenuStringA@CMenu@@QBEHIAAV?$CStringT@DV?$StrTraitMFC@DV?$ChTraitsCRT@D@ATL@@@@@ATL@@I@Z 00447852 f   nafxcw:winmenu.obj
 0001:000468ab       ??_GCChevronOwnerDrawMenu@@UAEPAXI@Z 004478ab f i nafxcw:winmenu.obj
 0001:000468ab       ??_ECChevronOwnerDrawMenu@@UAEPAXI@Z 004478ab f i nafxcw:winmenu.obj
 0001:000468c7       ??1CChevronOwnerDrawMenu@@UAE@XZ 004478c7 f i nafxcw:winmenu.obj
 0001:00046908       ?DrawItem@CChevronOwnerDrawMenu@@UAEXPAUtagDRAWITEMSTRUCT@@@Z 00447908 f   nafxcw:winmenu.obj
 0001:00046d4e       ?MeasureItem@CChevronOwnerDrawMenu@@UAEXPAUtagMEASUREITEMSTRUCT@@@Z 00447d4e f   nafxcw:winmenu.obj
 0001:00046e86       ?GetMessageMap@CWinApp@@MBEPBUAFX_MSGMAP@@XZ 00447e86 f   nafxcw:appcore.obj
 0001:00046e8c       ?ProcessWndProcException@CWinApp@@UAEJPAVCException@@PBUtagMSG@@@Z 00447e8c f   nafxcw:appcore.obj
 0001:00046f01       ?OnIdle@CWinApp@@UAEHJ@Z   00447f01 f   nafxcw:appcore.obj
 0001:00046f67       ?DevModeChange@CWinApp@@QAEXPAD@Z 00447f67 f   nafxcw:appcore.obj
 0001:00047005       ?Run@CWinApp@@UAEHXZ       00448005 f   nafxcw:appcore.obj
 0001:00047026       ?WinHelpA@CWinApp@@UAEXKI@Z 00448026 f   nafxcw:appcore.obj
 0001:0004705a       ?HtmlHelpA@CWinApp@@UAEXKI@Z 0044805a f   nafxcw:appcore.obj
 0001:0004708e       ?WinHelpInternal@CWinApp@@UAEXKI@Z 0044808e f   nafxcw:appcore.obj
 0001:000470c2       ?_AfxAbbreviateName@@YGXPADHH@Z 004480c2 f   nafxcw:filelist.obj
 0001:00047191       ??0?$CStringT@DV?$StrTraitMFC@DV?$ChTraitsCRT@D@ATL@@@@@ATL@@QAE@PAUIAtlStringMgr@1@@Z 00448191 f i nafxcw:filelist.obj
 0001:000471a3       ??_E?$CStringT@DV?$StrTraitMFC@DV?$ChTraitsCRT@D@ATL@@@@@ATL@@QAEPAXI@Z 004481a3 f i nafxcw:filelist.obj
 0001:000471ee       ??1CRecentFileList@@UAE@XZ 004481ee f   nafxcw:filelist.obj
 0001:00047227       ?WriteList@CRecentFileList@@UAEXXZ 00448227 f   nafxcw:filelist.obj
 0001:000472a5       ??_GCRecentFileList@@UAEPAXI@Z 004482a5 f i nafxcw:filelist.obj
 0001:000472a5       ??_ECRecentFileList@@UAEPAXI@Z 004482a5 f i nafxcw:filelist.obj
 0001:000472c1       ?GetDisplayName@CRecentFileList@@UBEHAAV?$CStringT@DV?$StrTraitMFC@DV?$ChTraitsCRT@D@ATL@@@@@ATL@@HPBDHH@Z 004482c1 f   nafxcw:filelist.obj
 0001:00047416       ?Concatenate@?$CSimpleStringT@D$0A@@ATL@@KAXAAV12@PBDH1H@Z 00448416 f i nafxcw:filelist.obj
 0001:00047459       ??HATL@@YA?AV?$CStringT@DV?$StrTraitMFC@DV?$ChTraitsCRT@D@ATL@@@@@0@ABV10@0@Z 00448459 f i nafxcw:filelist.obj
 0001:000474c9       ?Remove@CRecentFileList@@UAEXH@Z 004484c9 f   nafxcw:filelist.obj
 0001:00047500       ?ReadList@CRecentFileList@@UAEXXZ 00448500 f   nafxcw:filelist.obj
 0001:000475a1       ??0CRecentFileList@@QAE@IPBD0HH@Z 004485a1 f   nafxcw:filelist.obj
 0001:0004764d       ?Add@CRecentFileList@@UAEXPBD@Z 0044864d f   nafxcw:filelist.obj
 0001:000476f5       ?UpdateMenu@CRecentFileList@@UAEXPAVCCmdUI@@@Z 004486f5 f   nafxcw:filelist.obj
 0001:000479b3       ?IsDirSep@@YAHD@Z          004489b3 f i nafxcw:filecore.obj
 0001:000479c8       ?GetBufferPtr@CFile@@UAEIIIPAPAX0@Z 004489c8 f   nafxcw:filecore.obj
 0001:000479cd       ?Rename@CFile@@SGXPBD0@Z   004489cd f   nafxcw:filecore.obj
 0001:000479f2       ?Remove@CFile@@SGXPBD@Z    004489f2 f   nafxcw:filecore.obj
 0001:00047a13       ?AfxComparePath@@YGHPBD0@Z 00448a13 f   nafxcw:filecore.obj
 0001:00047aff       ?Read@CFile@@UAEIPAXI@Z    00448aff f   nafxcw:filecore.obj
 0001:00047b3f       ?Write@CFile@@UAEXPBXI@Z   00448b3f f   nafxcw:filecore.obj
 0001:00047b8a       ?Seek@CFile@@UAE_K_JI@Z    00448b8a f   nafxcw:filecore.obj
 0001:00047bdb       ?GetPosition@CFile@@UBE_KXZ 00448bdb f   nafxcw:filecore.obj
 0001:00047c25       ?Flush@CFile@@UAEXXZ       00448c25 f   nafxcw:filecore.obj
 0001:00047c4c       ?LockRange@CFile@@UAEX_K0@Z 00448c4c f   nafxcw:filecore.obj
 0001:00047c7f       ?UnlockRange@CFile@@UAEX_K0@Z 00448c7f f   nafxcw:filecore.obj
 0001:00047cb2       ?SetLength@CFile@@UAEX_K@Z 00448cb2 f   nafxcw:filecore.obj
 0001:00047ce4       ?GetLength@CFile@@UBE_KXZ  00448ce4 f   nafxcw:filecore.obj
 0001:00047d23       ?AfxGetFileTitle@@YGIPBDPADI@Z 00448d23 f   nafxcw:filecore.obj
 0001:00047d8f       ?Close@CFile@@UAEXXZ       00448d8f f   nafxcw:filecore.obj
 0001:00047dd2       ?Abort@CFile@@UAEXXZ       00448dd2 f   nafxcw:filecore.obj
 0001:00047df1       ??0CFile@@QAE@XZ           00448df1 f   nafxcw:filecore.obj
 0001:00047e0e       ??0CFile@@QAE@PAX@Z        00448e0e f   nafxcw:filecore.obj
 0001:00047e30       ??1CFile@@UAE@XZ           00448e30 f   nafxcw:filecore.obj
 0001:00047e74       ?Duplicate@CFile@@UBEPAV1@XZ 00448e74 f   nafxcw:filecore.obj
 0001:00047eea       ??_GCFile@@UAEPAXI@Z       00448eea f i nafxcw:filecore.obj
 0001:00047eea       ??_ECFile@@UAEPAXI@Z       00448eea f i nafxcw:filecore.obj
 0001:00047f06       ?AfxGetInProcServer@@YGHPBDAAV?$CStringT@DV?$StrTraitMFC@DV?$ChTraitsCRT@D@ATL@@@@@ATL@@@Z 00448f06 f   nafxcw:filecore.obj
 0001:00047fb6       ?AfxGetRoot@@YGXPBDAAV?$CStringT@DV?$StrTraitMFC@DV?$ChTraitsCRT@D@ATL@@@@@ATL@@@Z 00448fb6 f   nafxcw:filecore.obj
 0001:00047ff8       ?AfxFullPath@@YGHPADPBD@Z  00448ff8 f   nafxcw:filecore.obj
 0001:00048149       ?Open@CFile@@UAEHPBDIPAVCFileException@@@Z 00449149 f   nafxcw:filecore.obj
 0001:000482f4       ?AfxGetModuleShortFileName@@YGXPAUHINSTANCE__@@AAV?$CStringT@DV?$StrTraitMFC@DV?$ChTraitsCRT@D@ATL@@@@@ATL@@@Z 004492f4 f   nafxcw:filecore.obj
 0001:00048365       ??0CFile@@QAE@PBDI@Z       00449365 f   nafxcw:filecore.obj
 0001:000483e5       ?AfxStringFromCLSID@@YG?AV?$CStringT@DV?$StrTraitMFC@DV?$ChTraitsCRT@D@ATL@@@@@ATL@@ABU_GUID@@@Z 004493e5 f   nafxcw:filecore.obj
 0001:0004846e       ?GetClassObject@AFX_COM@@QAEJABU_GUID@@0PAPAX@Z 0044946e f   nafxcw:filecore.obj
 0001:00048513       ?CreateInstance@AFX_COM@@QAEJABU_GUID@@PAUIUnknown@@0PAPAX@Z 00449513 f   nafxcw:filecore.obj
 0001:0004856f       ?AfxResolveShortcut@@YGHPAVCWnd@@PBDPADH@Z 0044956f f   nafxcw:filecore.obj
 0001:000486e3       ?ErrnoToException@CFileException@@SGHH@Z 004496e3 f   nafxcw:filex.obj
 0001:00048738       ?OsErrorToException@CFileException@@SGHJ@Z 00449738 f   nafxcw:filex.obj
 0001:000489a0       ?GetErrorMessage@CFileException@@UAEHPADIPAI@Z 004499a0 f   nafxcw:filex.obj
 0001:00048a5f       ?AfxThrowFileException@@YGXHJPBD@Z 00449a5f f   nafxcw:filex.obj
 0001:00048aa5       ?ThrowOsError@CFileException@@SGXJPBD@Z 00449aa5 f   nafxcw:filex.obj
 0001:00048ac6       ?ThrowErrno@CFileException@@SGXHPBD@Z 00449ac6 f   nafxcw:filex.obj
 0001:00048aea       ??0CFileStatus@@QAE@XZ     00449aea f i nafxcw:filest.obj
 0001:00048b00       ?GetStatus@CFile@@SGHPBDAAUCFileStatus@@@Z 00449b00 f   nafxcw:filest.obj
 0001:00048c57       ?AfxTimeToFileTime@@YAXABVCTime@ATL@@PAU_FILETIME@@@Z 00449c57 f   nafxcw:filest.obj
 0001:00048d10       ?SetStatus@CFile@@SGXPBDABUCFileStatus@@@Z 00449d10 f   nafxcw:filest.obj
 0001:00048e4d       ?GetStatus@CMemFile@@QBEHAAUCFileStatus@@@Z 00449e4d f   nafxcw:filest.obj
 0001:00048e79       ?GetStatus@CFile@@QBEHAAUCFileStatus@@@Z 00449e79 f   nafxcw:filest.obj
 0001:00048fd1       ?GetFileName@CFile@@UBE?AV?$CStringT@DV?$StrTraitMFC@DV?$ChTraitsCRT@D@ATL@@@@@ATL@@XZ 00449fd1 f   nafxcw:filest.obj
 0001:000490a4       ?GetFileTitle@CFile@@UBE?AV?$CStringT@DV?$StrTraitMFC@DV?$ChTraitsCRT@D@ATL@@@@@ATL@@XZ 0044a0a4 f   nafxcw:filest.obj
 0001:00049177       ?GetFilePath@CFile@@UBE?AV?$CStringT@DV?$StrTraitMFC@DV?$ChTraitsCRT@D@ATL@@@@@ATL@@XZ 0044a177 f   nafxcw:filest.obj
 0001:000491de       ?AfxDlgProc@@YGHPAUHWND__@@IIJ@Z 0044a1de f   nafxcw:dlgcore.obj
 0001:00049218       ?GetMessageMap@CDialog@@MBEPBUAFX_MSGMAP@@XZ 0044a218 f   nafxcw:dlgcore.obj
 0001:0004921e       ??0CDialog@@QAE@XZ         0044a21e f   nafxcw:dlgcore.obj
 0001:00049240       ??1CDialog@@UAE@XZ         0044a240 f   nafxcw:dlgcore.obj
 0001:0004927e       ?OnPaint@CDialog@@IAEXXZ   0044a27e f   nafxcw:dlgcore.obj
 0001:000492de       ?SetOccDialogInfo@CDialog@@MAEHPAU_AFX_OCC_DIALOG_INFO@@@Z 0044a2de f   nafxcw:dlgcore.obj
 0001:000492eb       ??0CDialog@@QAE@PBDPAVCWnd@@@Z 0044a2eb f   nafxcw:dlgcore.obj
 0001:0004932b       ??0CDialog@@QAE@IPAVCWnd@@@Z 0044a32b f   nafxcw:dlgcore.obj
 0001:00049364       ?InitModalIndirect@CDialog@@QAEHPAXPAVCWnd@@@Z 0044a364 f   nafxcw:dlgcore.obj
 0001:0004937e       ?InitModalIndirect@CDialog@@QAEHPBUDLGTEMPLATE@@PAVCWnd@@PAX@Z 0044a37e f   nafxcw:dlgcore.obj
 0001:0004939f       ?EndDialog@CDialog@@QAEXH@Z 0044a39f f   nafxcw:dlgcore.obj
 0001:000493c5       ?PreInitDialog@CDialog@@MAEXXZ 0044a3c5 f   nafxcw:dlgcore.obj
 0001:000493c6       ?OnSetFont@CDialog@@UAEXPAVCFont@@@Z 0044a3c6 f   nafxcw:dlgcore.obj
 0001:000493c9       ?OnOK@CDialog@@MAEXXZ      0044a3c9 f   nafxcw:dlgcore.obj
 0001:000493e2       ?OnCancel@CDialog@@MAEXXZ  0044a3e2 f   nafxcw:dlgcore.obj
 0001:000493ea       ?OnHelpHitTest@CDialog@@IAEJIJ@Z 0044a3ea f   nafxcw:dlgcore.obj
 0001:000493fd       ?PreTranslateMessage@CDialog@@UAEHPAUtagMSG@@@Z 0044a3fd f   nafxcw:dlgcore.obj
 0001:00049496       ?OnCmdMsg@CDialog@@UAEHIHPAXPAUAFX_CMDHANDLERINFO@@@Z 0044a496 f   nafxcw:dlgcore.obj
 0001:0004951a       ??_GCDialog@@UAEPAXI@Z     0044a51a f i nafxcw:dlgcore.obj
 0001:0004951a       ??_ECDialog@@UAEPAXI@Z     0044a51a f i nafxcw:dlgcore.obj
 0001:00049536       ?PreModal@CDialog@@IAEPAUHWND__@@XZ 0044a536 f   nafxcw:dlgcore.obj
 0001:00049570       ?PostModal@CDialog@@IAEXXZ 0044a570 f   nafxcw:dlgcore.obj
 0001:000495b2       ?HandleSetFont@CDialog@@IAEJIJ@Z 0044a5b2 f   nafxcw:dlgcore.obj
 0001:000495d4       ?HandleInitDialog@CDialog@@IAEJIJ@Z 0044a5d4 f   nafxcw:dlgcore.obj
 0001:0004965b       ?AfxHelpEnabled@@YGHXZ     0044a65b f   nafxcw:dlgcore.obj
 0001:000496b1       ?OnInitDialog@CDialog@@UAEHXZ 0044a6b1 f   nafxcw:dlgcore.obj
 0001:00049712       ?CheckAutoCenter@CDialog@@UAEHXZ 0044a712 f   nafxcw:dlgcore.obj
 0001:000497a9       ?OnCommandHelp@CDialog@@IAEJIJ@Z 0044a7a9 f   nafxcw:dlgcore.obj
 0001:000497e7       ?CreateDlgIndirect@CWnd@@IAEHPBUDLGTEMPLATE@@PAV1@PAUHINSTANCE__@@@Z 0044a7e7 f   nafxcw:dlgcore.obj
 0001:000499f4       ?DoModal@CDialog@@UAEHXZ   0044a9f4 f   nafxcw:dlgcore.obj
 0001:00049b71       ?CreateIndirect@CDialog@@IAEHPBUDLGTEMPLATE@@PAVCWnd@@PAXPAUHINSTANCE__@@@Z 0044ab71 f   nafxcw:dlgcore.obj
 0001:00049b9c       ?CreateDlg@CWnd@@IAEHPBDPAV1@@Z 0044ab9c f   nafxcw:dlgcore.obj
 0001:00049bf2       ?CreateIndirect@CDialog@@IAEHPAXPAVCWnd@@PAUHINSTANCE__@@@Z 0044abf2 f   nafxcw:dlgcore.obj
 0001:00049c15       ?CreateIndirect@CDialog@@UAEHPBUDLGTEMPLATE@@PAVCWnd@@PAX@Z 0044ac15 f   nafxcw:dlgcore.obj
 0001:00049c2b       ?Create@CDialog@@UAEHPBDPAVCWnd@@@Z 0044ac2b f   nafxcw:dlgcore.obj
 0001:00049c85       ?CreateIndirect@CDialog@@UAEHPAXPAVCWnd@@@Z 0044ac85 f   nafxcw:dlgcore.obj
 0001:00049c97       ?_AfxConvertDialogUnitsToPixels@@YGXPBDGHHPAUtagSIZE@@@Z 0044ac97 f   nafxcw:dlgtempl.obj
 0001:00049dca       ?IsDialogEx@@YAHPBUDLGTEMPLATE@@@Z 0044adca f i nafxcw:dlgtempl.obj
 0001:00049dda       ?HasFont@@YAHPBUDLGTEMPLATE@@@Z 0044adda f i nafxcw:dlgtempl.obj
 0001:00049df1       ?FontAttrSize@@YAHH@Z      0044adf1 f i nafxcw:dlgtempl.obj
 0001:00049e01       ?SetTemplate@CDialogTemplate@@IAEHPBUDLGTEMPLATE@@I@Z 0044ae01 f   nafxcw:dlgtempl.obj
 0001:00049e55       ??1CDialogTemplate@@QAE@XZ 0044ae55 f   nafxcw:dlgtempl.obj
 0001:00049e63       ?Detach@CDialogTemplate@@QAEPAXXZ 0044ae63 f   nafxcw:dlgtempl.obj
 0001:00049e69       ?HasFont@CDialogTemplate@@QBEHXZ 0044ae69 f   nafxcw:dlgtempl.obj
 0001:00049e8b       ?_SkipString@@YAPA_WPA_W@Z 0044ae8b f i nafxcw:dlgtempl.obj
 0001:00049e9a       ?GetFontSizeField@CDialogTemplate@@KAPAEPBUDLGTEMPLATE@@@Z 0044ae9a f   nafxcw:dlgtempl.obj
 0001:00049ee5       ?GetTemplateSize@CDialogTemplate@@KAIPBUDLGTEMPLATE@@@Z 0044aee5 f   nafxcw:dlgtempl.obj
 0001:00049fa8       ?SetFont@CDialogTemplate@@QAEHPBDG@Z 0044afa8 f   nafxcw:dlgtempl.obj
 0001:0004a0f0       ?SetSystemFont@CDialogTemplate@@QAEHG@Z 0044b0f0 f   nafxcw:dlgtempl.obj
 0001:0004a192       ?GetSizeInDialogUnits@CDialogTemplate@@QBEXPAUtagSIZE@@@Z 0044b192 f   nafxcw:dlgtempl.obj
 0001:0004a1ce       ??0CDialogTemplate@@QAE@PBUDLGTEMPLATE@@@Z 0044b1ce f   nafxcw:dlgtempl.obj
 0001:0004a1fd       ??0CDialogTemplate@@QAE@PAX@Z 0044b1fd f   nafxcw:dlgtempl.obj
 0001:0004a23e       ?Load@CDialogTemplate@@QAEHPBD@Z 0044b23e f   nafxcw:dlgtempl.obj
 0001:0004a2a2       ?GetFont@CDialogTemplate@@SAHPBUDLGTEMPLATE@@AAV?$CStringT@DV?$StrTraitMFC@DV?$ChTraitsCRT@D@ATL@@@@@ATL@@AAG@Z 0044b2a2 f   nafxcw:dlgtempl.obj
 0001:0004a306       ?GetFont@CDialogTemplate@@QBEHAAV?$CStringT@DV?$StrTraitMFC@DV?$ChTraitsCRT@D@ATL@@@@@ATL@@AAG@Z 0044b306 f   nafxcw:dlgtempl.obj
 0001:0004a334       ?GetSizeInPixels@CDialogTemplate@@QBEXPAUtagSIZE@@@Z 0044b334 f   nafxcw:dlgtempl.obj
 0001:0004a3e2       ?Abort@CArchive@@QAEXXZ    0044b3e2 f   nafxcw:arccore.obj
 0001:0004a424       ?Read@CArchive@@QAEIPAXI@Z 0044b424 f   nafxcw:arccore.obj
 0001:0004a551       ?Flush@CArchive@@QAEXXZ    0044b551 f   nafxcw:arccore.obj
 0001:0004a5c8       ?FillBuffer@CArchive@@QAEXI@Z 0044b5c8 f   nafxcw:arccore.obj
 0001:0004a6b0       ??B?$CTypedSimpleList@PAUCRuntimeClass@@@@QAEPAUCRuntimeClass@@XZ 0044b6b0 f i nafxcw:arccore.obj
 0001:0004a6b3       ?AfxReadStringLength@@YGIAAVCArchive@@AAH@Z 0044b6b3 f   nafxcw:arccore.obj
 0001:0004a75c       ?AfxWriteStringLength@@YGXAAVCArchive@@IH@Z 0044b75c f   nafxcw:arccore.obj
 0001:0004a7dd       ?FromName@CRuntimeClass@@SGPAU1@PBD@Z 0044b7dd f   nafxcw:arccore.obj
 0001:0004a815       ?FromName@CRuntimeClass@@SGPAU1@PB_W@Z 0044b815 f   nafxcw:arccore.obj
 0001:0004a8aa       ?Load@CRuntimeClass@@SGPAU1@AAVCArchive@@PAI@Z 0044b8aa f   nafxcw:arccore.obj
 0001:0004a91f       ?Close@CArchive@@QAEXXZ    0044b91f f   nafxcw:arccore.obj
 0001:0004a92d       ?Write@CArchive@@QAEXPBXI@Z 0044b92d f   nafxcw:arccore.obj
 0001:0004a9de       ?WriteCount@CArchive@@QAEXK@Z 0044b9de f   nafxcw:arccore.obj
 0001:0004aa0a       ?ReadCount@CArchive@@QAEKXZ 0044ba0a f   nafxcw:arccore.obj
 0001:0004aa39       ?WriteString@CArchive@@QAEXPBD@Z 0044ba39 f   nafxcw:arccore.obj
 0001:0004aa56       ?ReadString@CArchive@@QAEPADPADI@Z 0044ba56 f   nafxcw:arccore.obj
 0001:0004ab09       ?CreateObject@CRuntimeClass@@SGPAVCObject@@PBD@Z 0044bb09 f   nafxcw:arccore.obj
 0001:0004ab20       ?CreateObject@CRuntimeClass@@SGPAVCObject@@PB_W@Z 0044bb20 f   nafxcw:arccore.obj
 0001:0004ab6a       ?Store@CRuntimeClass@@QBEXAAVCArchive@@@Z 0044bb6a f   nafxcw:arccore.obj
 0001:0004aba4       ??1CArchive@@QAE@XZ        0044bba4 f   nafxcw:arccore.obj
 0001:0004abe9       ??0CArchive@@QAE@PAVCFile@@IHPAX@Z 0044bbe9 f   nafxcw:arccore.obj
 0001:0004acfa       ?ReadString@CArchive@@QAEHAAV?$CStringT@DV?$StrTraitMFC@DV?$ChTraitsCRT@D@ATL@@@@@ATL@@@Z 0044bcfa f   nafxcw:arccore.obj
 0001:0004ad95       ?GetErrorMessage@CArchiveException@@UAEHPADIPAI@Z 0044bd95 f   nafxcw:arcex.obj
 0001:0004ae5c       ?AfxThrowArchiveException@@YGXHPBD@Z 0044be5c f   nafxcw:arcex.obj
 0001:0004ae9f       ?_AfxIsComboBoxControl@@YGHPAUHWND__@@I@Z 0044be9f f   nafxcw:winutil.obj
 0001:0004aefc       ?_AfxCompareClassName@@YGHPAUHWND__@@PBD@Z 0044befc f   nafxcw:winutil.obj
 0001:0004af3f       ?AfxSetWindowText@@YGXPAUHWND__@@PBD@Z 0044bf3f f   nafxcw:winutil.obj
 0001:0004afab       ?AfxDeleteObject@@YGXPAPAX@Z 0044bfab f   nafxcw:winutil.obj
 0001:0004afc4       ?AfxCancelModes@@YGXPAUHWND__@@@Z 0044bfc4 f   nafxcw:winutil.obj
 0001:0004b03b       ?AfxGlobalFree@@YGXPAX@Z   0044c03b f   nafxcw:winutil.obj
 0001:0004b06b       ?AfxCriticalNewHandler@@YAHI@Z 0044c06b f   nafxcw:winutil.obj
 0001:0004b0b8       ?AfxCustomLogFont@@YGHIPAUtagLOGFONTA@@@Z 0044c0b8 f   nafxcw:winutil.obj
 0001:0004b144       ?_AfxChildWindowFromPoint@@YGPAUHWND__@@PAU1@UtagPOINT@@@Z 0044c144 f   nafxcw:winutil.obj
 0001:0004b1b6       ?GetObjectSchema@CArchive@@QAEIXZ 0044c1b6 f   nafxcw:arcobj.obj
 0001:0004b1be       ?CheckCount@CArchive@@QAEXXZ 0044c1be f   nafxcw:arcobj.obj
 0001:0004b1d2       ?MapObject@CArchive@@QAEXPBVCObject@@@Z 0044c1d2 f   nafxcw:arcobj.obj
 0001:0004b2d6       ?WriteClass@CArchive@@QAEXPBUCRuntimeClass@@@Z 0044c2d6 f   nafxcw:arcobj.obj
 0001:0004b381       ?ReadClass@CArchive@@QAEPAUCRuntimeClass@@PBU2@PAIPAK@Z 0044c381 f   nafxcw:arcobj.obj
 0001:0004b54f       ?SerializeClass@CArchive@@QAEXPBUCRuntimeClass@@@Z 0044c54f f   nafxcw:arcobj.obj
 0001:0004b56d       ?WriteObject@CArchive@@QAEXPBVCObject@@@Z 0044c56d f   nafxcw:arcobj.obj
 0001:0004b606       ?ReadObject@CArchive@@QAEPAVCObject@@PBUCRuntimeClass@@@Z 0044c606 f   nafxcw:arcobj.obj
 0001:0004b6bd       ?SetAttribDC@CDC@@UAEXPAUHDC__@@@Z 0044c6bd f   nafxcw:wingdi.obj
 0001:0004b6c7       ?SetOutputDC@CDC@@UAEXPAUHDC__@@@Z 0044c6c7 f   nafxcw:wingdi.obj
 0001:0004b6d1       ?ReleaseAttribDC@CDC@@UAEXXZ 0044c6d1 f   nafxcw:wingdi.obj
 0001:0004b6d6       ?ReleaseOutputDC@CDC@@UAEXXZ 0044c6d6 f   nafxcw:wingdi.obj
 0001:0004b6db       ?SaveDC@CDC@@UAEHXZ        0044c6db f   nafxcw:wingdi.obj
 0001:0004b70c       ?RestoreDC@CDC@@UAEHH@Z    0044c70c f   nafxcw:wingdi.obj
 0001:0004b74a       ?SetBkColor@CDC@@UAEKK@Z   0044c74a f   nafxcw:wingdi.obj
 0001:0004b779       ?SetBkMode@CDC@@QAEHH@Z    0044c779 f   nafxcw:wingdi.obj
 0001:0004b7a7       ?SetPolyFillMode@CDC@@QAEHH@Z 0044c7a7 f   nafxcw:wingdi.obj
 0001:0004b7d5       ?SetROP2@CDC@@QAEHH@Z      0044c7d5 f   nafxcw:wingdi.obj
 0001:0004b803       ?SetStretchBltMode@CDC@@QAEHH@Z 0044c803 f   nafxcw:wingdi.obj
 0001:0004b831       ?SetTextColor@CDC@@UAEKK@Z 0044c831 f   nafxcw:wingdi.obj
 0001:0004b860       ?SetMapMode@CDC@@UAEHH@Z   0044c860 f   nafxcw:wingdi.obj
 0001:0004b88e       ?GetClipBox@CDC@@UBEHPAUtagRECT@@@Z 0044c88e f   nafxcw:wingdi.obj
 0001:0004b89e       ?ExcludeClipRect@CDC@@QAEHHHHH@Z 0044c89e f   nafxcw:wingdi.obj
 0001:0004b8e0       ?ExcludeClipRect@CDC@@QAEHPBUtagRECT@@@Z 0044c8e0 f   nafxcw:wingdi.obj
 0001:0004b922       ?IntersectClipRect@CDC@@QAEHHHHH@Z 0044c922 f   nafxcw:wingdi.obj
 0001:0004b964       ?IntersectClipRect@CDC@@QAEHPBUtagRECT@@@Z 0044c964 f   nafxcw:wingdi.obj
 0001:0004b9a6       ?OffsetClipRgn@CDC@@QAEHHH@Z 0044c9a6 f   nafxcw:wingdi.obj
 0001:0004b9dc       ?OffsetClipRgn@CDC@@QAEHUtagSIZE@@@Z 0044c9dc f   nafxcw:wingdi.obj
 0001:0004ba12       ?LineTo@CDC@@QAEHHH@Z      0044ca12 f   nafxcw:wingdi.obj
 0001:0004ba47       ?SetTextAlign@CDC@@QAEII@Z 0044ca47 f   nafxcw:wingdi.obj
 0001:0004ba7c       ?SetTextJustification@CDC@@QAEHHH@Z 0044ca7c f   nafxcw:wingdi.obj
 0001:0004bab2       ?SetTextCharacterExtra@CDC@@QAEHH@Z 0044cab2 f   nafxcw:wingdi.obj
 0001:0004bae3       ?SetMapperFlags@CDC@@QAEKK@Z 0044cae3 f   nafxcw:wingdi.obj
 0001:0004bb12       ?GetLayout@CDC@@QBEKXZ     0044cb12 f   nafxcw:wingdi.obj
 0001:0004bb48       ?SetLayout@CDC@@QAEKK@Z    0044cb48 f   nafxcw:wingdi.obj
 0001:0004bb8e       ?SetArcDirection@CDC@@QAEHH@Z 0044cb8e f   nafxcw:wingdi.obj
 0001:0004bbbc       ?SetColorAdjustment@CDC@@QAEHPBUtagCOLORADJUSTMENT@@@Z 0044cbbc f   nafxcw:wingdi.obj
 0001:0004bbea       ?SelectClipPath@CDC@@QAEHH@Z 0044cbea f   nafxcw:wingdi.obj
 0001:0004bc48       ?AfxThrowResourceException@@YGXXZ 0044cc48 f   nafxcw:wingdi.obj
 0001:0004bc62       ?AfxThrowUserException@@YGXXZ 0044cc62 f   nafxcw:wingdi.obj
 0001:0004bc7c       ??0CDC@@QAE@XZ             0044cc7c f   nafxcw:wingdi.obj
 0001:0004bc90       ?StartDocA@CDC@@QAEHPBD@Z  0044cc90 f   nafxcw:wingdi.obj
 0001:0004bcc8       ?SelectObject@CDC@@QAEHPAVCRgn@@@Z 0044ccc8 f   nafxcw:wingdi.obj
 0001:0004bd0d       ?SetViewportOrg@CDC@@UAE?AVCPoint@@HH@Z 0044cd0d f   nafxcw:wingdi.obj
 0001:0004bd59       ?OffsetViewportOrg@CDC@@UAE?AVCPoint@@HH@Z 0044cd59 f   nafxcw:wingdi.obj
 0001:0004bda5       ?SetViewportExt@CDC@@UAE?AVCSize@@HH@Z 0044cda5 f   nafxcw:wingdi.obj
 0001:0004bdf1       ?ScaleViewportExt@CDC@@UAE?AVCSize@@HHHH@Z 0044cdf1 f   nafxcw:wingdi.obj
 0001:0004be49       ?SetWindowOrg@CDC@@QAE?AVCPoint@@HH@Z 0044ce49 f   nafxcw:wingdi.obj
 0001:0004be95       ?OffsetWindowOrg@CDC@@QAE?AVCPoint@@HH@Z 0044ce95 f   nafxcw:wingdi.obj
 0001:0004bee1       ?SetWindowExt@CDC@@UAE?AVCSize@@HH@Z 0044cee1 f   nafxcw:wingdi.obj
 0001:0004bf2d       ?ScaleWindowExt@CDC@@UAE?AVCSize@@HHHH@Z 0044cf2d f   nafxcw:wingdi.obj
 0001:0004bf85       ?SelectClipRgn@CDC@@QAEHPAVCRgn@@@Z 0044cf85 f   nafxcw:wingdi.obj
 0001:0004bfc5       ?MoveTo@CDC@@QAE?AVCPoint@@HH@Z 0044cfc5 f   nafxcw:wingdi.obj
 0001:0004c011       ?ScreenToClient@CWnd@@QBEXPAUtagRECT@@@Z 0044d011 f   nafxcw:wingdi.obj
 0001:0004c04d       ?ClientToScreen@CWnd@@QBEXPAUtagRECT@@@Z 0044d04d f   nafxcw:wingdi.obj
 0001:0004c089       ?ArcTo@CDC@@QAEHHHHHHHHH@Z 0044d089 f   nafxcw:wingdi.obj
 0001:0004c0e1       ?PolyDraw@CDC@@QAEHPBUtagPOINT@@PBEH@Z 0044d0e1 f   nafxcw:wingdi.obj
 0001:0004c12a       ?PolylineTo@CDC@@QAEHPBUtagPOINT@@H@Z 0044d12a f   nafxcw:wingdi.obj
 0001:0004c170       ?PolyBezierTo@CDC@@QAEHPBUtagPOINT@@H@Z 0044d170 f   nafxcw:wingdi.obj
 0001:0004c1b6       ?SelectClipRgn@CDC@@QAEHPAVCRgn@@H@Z 0044d1b6 f   nafxcw:wingdi.obj
 0001:0004c1fe       ?LPtoDP@CDC@@QBEXPAUtagSIZE@@@Z 0044d1fe f   nafxcw:wingdi.obj
 0001:0004c267       ?DPtoLP@CDC@@QBEXPAUtagSIZE@@@Z 0044d267 f   nafxcw:wingdi.obj
 0001:0004c2d0       ?afxMapHDC@@YGPAVCHandleMap@@H@Z 0044d2d0 f   nafxcw:wingdi.obj
 0001:0004c34c       ?FromHandle@CDC@@SGPAV1@PAUHDC__@@@Z 0044d34c f   nafxcw:wingdi.obj
 0001:0004c35a       ?Attach@CDC@@QAEHPAUHDC__@@@Z 0044d35a f   nafxcw:wingdi.obj
 0001:0004c391       ?Detach@CDC@@QAEPAUHDC__@@XZ 0044d391 f   nafxcw:wingdi.obj
 0001:0004c3c2       ?DeleteDC@CDC@@QAEHXZ      0044d3c2 f   nafxcw:wingdi.obj
 0001:0004c3d8       ??1CDC@@UAE@XZ             0044d3d8 f   nafxcw:wingdi.obj
 0001:0004c3f1       ??0CClientDC@@QAE@PAVCWnd@@@Z 0044d3f1 f   nafxcw:wingdi.obj
 0001:0004c44c       ??1CClientDC@@UAE@XZ       0044d44c f   nafxcw:wingdi.obj
 0001:0004c48e       ??0CWindowDC@@QAE@PAVCWnd@@@Z 0044d48e f   nafxcw:wingdi.obj
 0001:0004c4e9       ??1CWindowDC@@UAE@XZ       0044d4e9 f   nafxcw:wingdi.obj
 0001:0004c52b       ??0CPaintDC@@QAE@PAVCWnd@@@Z 0044d52b f   nafxcw:wingdi.obj
 0001:0004c586       ??1CPaintDC@@UAE@XZ        0044d586 f   nafxcw:wingdi.obj
 0001:0004c5cd       ?afxMapHGDIOBJ@@YGPAVCHandleMap@@H@Z 0044d5cd f   nafxcw:wingdi.obj
 0001:0004c649       ?FromHandle@CGdiObject@@SGPAV1@PAX@Z 0044d649 f   nafxcw:wingdi.obj
 0001:0004c657       ?Attach@CGdiObject@@QAEHPAX@Z 0044d657 f   nafxcw:wingdi.obj
 0001:0004c684       ?Detach@CGdiObject@@QAEPAXXZ 0044d684 f   nafxcw:wingdi.obj
 0001:0004c6ae       ?DeleteObject@CGdiObject@@QAEHXZ 0044d6ae f   nafxcw:wingdi.obj
 0001:0004c6c4       ?CreateDIBPatternBrush@CBrush@@QAEHPAXI@Z 0044d6c4 f   nafxcw:wingdi.obj
 0001:0004c6f6       ??_ECDC@@UAEPAXI@Z         0044d6f6 f i nafxcw:wingdi.obj
 0001:0004c6f6       ??_GCDC@@UAEPAXI@Z         0044d6f6 f i nafxcw:wingdi.obj
 0001:0004c712       ?SelectGdiObject@CDC@@KGPAVCGdiObject@@PAUHDC__@@PAX@Z 0044d712 f   nafxcw:wingdi.obj
 0001:0004c729       ?SelectStockObject@CDC@@UAEPAVCGdiObject@@H@Z 0044d729 f   nafxcw:wingdi.obj
 0001:0004c765       ?SelectObject@CDC@@QAEPAVCPen@@PAV2@@Z 0044d765 f   nafxcw:wingdi.obj
 0001:0004c7ab       ?SelectObject@CDC@@QAEPAVCBrush@@PAV2@@Z 0044d7ab f   nafxcw:wingdi.obj
 0001:0004c7f1       ?SelectObject@CDC@@UAEPAVCFont@@PAV2@@Z 0044d7f1 f   nafxcw:wingdi.obj
 0001:0004c837       ?SelectPalette@CDC@@QAEPAVCPalette@@PAV2@H@Z 0044d837 f   nafxcw:wingdi.obj
 0001:0004c859       ?AfxEnumMetaFileProc@@YGHPAUHDC__@@PAUtagHANDLETABLE@@PAUtagMETARECORD@@HJ@Z 0044d859 f   nafxcw:wingdi.obj
 0001:0004ca90       ?PlayMetaFile@CDC@@QAEHPAUHMETAFILE__@@@Z 0044da90 f   nafxcw:wingdi.obj
 0001:0004cac9       ??_ECClientDC@@UAEPAXI@Z   0044dac9 f i nafxcw:wingdi.obj
 0001:0004cac9       ??_GCClientDC@@UAEPAXI@Z   0044dac9 f i nafxcw:wingdi.obj
 0001:0004cae5       ??_GCWindowDC@@UAEPAXI@Z   0044dae5 f i nafxcw:wingdi.obj
 0001:0004cae5       ??_ECWindowDC@@UAEPAXI@Z   0044dae5 f i nafxcw:wingdi.obj
 0001:0004cb01       ??_ECPaintDC@@UAEPAXI@Z    0044db01 f i nafxcw:wingdi.obj
 0001:0004cb01       ??_GCPaintDC@@UAEPAXI@Z    0044db01 f i nafxcw:wingdi.obj
 0001:0004cb1d       ??0CPen@@QAE@HHK@Z         0044db1d f   nafxcw:wingdi.obj
 0001:0004cb6d       ??0CPen@@QAE@HHPBUtagLOGBRUSH@@HPBK@Z 0044db6d f   nafxcw:wingdi.obj
 0001:0004cbc3       ??0CBrush@@QAE@K@Z         0044dbc3 f   nafxcw:wingdi.obj
 0001:0004cc0d       ??0CBrush@@QAE@HK@Z        0044dc0d f   nafxcw:wingdi.obj
 0001:0004cc5a       ??0CBrush@@QAE@PAVCBitmap@@@Z 0044dc5a f   nafxcw:wingdi.obj
 0001:0004cca7       ?AfxGetGrayBitmap@@YGXABVCBitmap@@PAV1@K@Z 0044dca7 f   nafxcw:wingdi.obj
 0001:0004cf2b       ?AfxDrawGrayBitmap@@YGXPAVCDC@@HHABVCBitmap@@K@Z 0044df2b f   nafxcw:wingdi.obj
 0001:0004d16b       ?AfxGetDitheredBitmap@@YGXABVCBitmap@@PAV1@KK@Z 0044e16b f   nafxcw:wingdi.obj
 0001:0004d458       ?AfxDrawDitheredBitmap@@YGXPAVCDC@@HHABVCBitmap@@KK@Z 0044e458 f   nafxcw:wingdi.obj
 0001:0004d6d1       ?OnAppExit@CWinApp@@IAEXXZ 0044e6d1 f   nafxcw:appui.obj
 0001:0004d6e4       ?GetOpenDocumentCount@CWinApp@@QAEHXZ 0044e6e4 f   nafxcw:appui2.obj
 0001:0004d6ec       ?OpenDocumentFile@CDocManager@@UAEPAVCDocument@@PBD@Z 0044e6ec f   nafxcw:docmgr.obj
 0001:0004d883       ?GetOpenDocumentCount@CDocManager@@UAEHXZ 0044e883 f   nafxcw:docmgr.obj
 0001:0004d8d8       ?GetRoutingView_@CCmdTarget@@KGPAVCView@@XZ 0044e8d8 f   nafxcw:appui1.obj
 0001:0004d8e4       ?GetRoutingFrame_@CCmdTarget@@KGPAVCFrameWnd@@XZ 0044e8e4 f   nafxcw:appui1.obj
 0001:0004d8f0       ?EnableModeless@CWinApp@@QAEXH@Z 0044e8f0 f   nafxcw:appui1.obj
 0001:0004d91d       ?GetSafeOwner_@CWnd@@SGPAUHWND__@@PAU2@PAPAU2@@Z 0044e91d f   nafxcw:appui1.obj
 0001:0004d9bb       ?DoMessageBox@CWinApp@@UAEHPBDII@Z 0044e9bb f   nafxcw:appui1.obj
 0001:0004daf8       ?AfxMessageBox@@YGHPBDII@Z 0044eaf8 f   nafxcw:appui1.obj
 0001:0004db1a       ?AfxMessageBox@@YGHIII@Z   0044eb1a f   nafxcw:appui1.obj
 0001:0004db7c       ?PrepareCtrl@CDataExchange@@QAEPAUHWND__@@H@Z 0044eb7c f   nafxcw:dlgdata.obj
 0001:0004dbbb       ?Fail@CDataExchange@@QAEXXZ 0044ebbb f   nafxcw:dlgdata.obj
 0001:0004dc0a       ?DDX_Check@@YGXPAVCDataExchange@@HAAH@Z 0044ec0a f   nafxcw:dlgdata.obj
 0001:0004dc6d       ?DDX_Radio@@YGXPAVCDataExchange@@HAAH@Z 0044ec6d f   nafxcw:dlgdata.obj
 0001:0004dd16       ?DDX_LBIndex@@YGXPAVCDataExchange@@HAAH@Z 0044ed16 f   nafxcw:dlgdata.obj
 0001:0004dd6b       ?DDX_CBIndex@@YGXPAVCDataExchange@@HAAH@Z 0044ed6b f   nafxcw:dlgdata.obj
 0001:0004ddc0       ?DDX_Scroll@@YGXPAVCDataExchange@@HAAH@Z 0044edc0 f   nafxcw:dlgdata.obj
 0001:0004de0e       ?DDX_Slider@@YGXPAVCDataExchange@@HAAH@Z 0044ee0e f   nafxcw:dlgdata.obj
 0001:0004de65       ?DDX_IPAddress@@YGXPAVCDataExchange@@HAAK@Z 0044ee65 f   nafxcw:dlgdata.obj
 0001:0004deaf       ?DDV_MinMaxSlider@@YGXPAVCDataExchange@@KKK@Z 0044eeaf f   nafxcw:dlgdata.obj
 0001:0004df00       ?DDX_Control@@YGXPAVCDataExchange@@HAAVCWnd@@@Z 0044ef00 f   nafxcw:dlgdata.obj
 0001:0004df89       ?PrepareEditCtrl@CDataExchange@@QAEPAUHWND__@@H@Z 0044ef89 f   nafxcw:dlgdata.obj
 0001:0004dfa0       ?_Afx_DDX_TextWithFormat@@YAXPAVCDataExchange@@HPBDIZZ 0044efa0 f   nafxcw:dlgdata.obj
 0001:0004e02d       ?DDX_Text@@YGXPAVCDataExchange@@HAAE@Z 0044f02d f   nafxcw:dlgdata.obj
 0001:0004e09e       ?DDX_Text@@YGXPAVCDataExchange@@HAAF@Z 0044f09e f   nafxcw:dlgdata.obj
 0001:0004e0cf       ?DDX_Text@@YGXPAVCDataExchange@@HAAH@Z 0044f0cf f   nafxcw:dlgdata.obj
 0001:0004e0fe       ?DDX_Text@@YGXPAVCDataExchange@@HAAI@Z 0044f0fe f   nafxcw:dlgdata.obj
 0001:0004e12d       ?DDX_Text@@YGXPAVCDataExchange@@HAAJ@Z 0044f12d f   nafxcw:dlgdata.obj
 0001:0004e15c       ?DDX_Text@@YGXPAVCDataExchange@@HAAK@Z 0044f15c f   nafxcw:dlgdata.obj
 0001:0004e18b       ?DDX_Text@@YGXPAVCDataExchange@@HAA_J@Z 0044f18b f   nafxcw:dlgdata.obj
 0001:0004e1d3       ?DDX_Text@@YGXPAVCDataExchange@@HAA_K@Z 0044f1d3 f   nafxcw:dlgdata.obj
 0001:0004e21b       ?DDX_Text@@YGXPAVCDataExchange@@HPADH@Z 0044f21b f   nafxcw:dlgdata.obj
 0001:0004e259       ?_AfxFailMinMaxWithFormat@@YGXPAVCDataExchange@@_J1PBDI@Z 0044f259 f   nafxcw:dlgdata.obj
 0001:0004e327       ?DDV_MinMaxByte@@YGXPAVCDataExchange@@EEE@Z 0044f327 f   nafxcw:dlgdata.obj
 0001:0004e35b       ?DDV_MinMaxShort@@YGXPAVCDataExchange@@FFF@Z 0044f35b f   nafxcw:dlgdata.obj
 0001:0004e392       ?DDV_MinMaxInt@@YGXPAVCDataExchange@@HHH@Z 0044f392 f   nafxcw:dlgdata.obj
 0001:0004e3c3       ?DDV_MinMaxLong@@YGXPAVCDataExchange@@JJJ@Z 0044f3c3 f   nafxcw:dlgdata.obj
 0001:0004e3f4       ?DDV_MinMaxUInt@@YGXPAVCDataExchange@@III@Z 0044f3f4 f   nafxcw:dlgdata.obj
 0001:0004e424       ?DDV_MinMaxDWord@@YGXPAVCDataExchange@@KKK@Z 0044f424 f   nafxcw:dlgdata.obj
 0001:0004e454       ?DDV_MinMaxLongLong@@YGXPAVCDataExchange@@_J11@Z 0044f454 f   nafxcw:dlgdata.obj
 0001:0004e497       ?DDV_MinMaxULongLong@@YGXPAVCDataExchange@@_K11@Z 0044f497 f   nafxcw:dlgdata.obj
 0001:0004e4da       ?DDV_MaxChars@@YGXPAVCDataExchange@@ABV?$CStringT@DV?$StrTraitMFC@DV?$ChTraitsCRT@D@ATL@@@@@ATL@@H@Z 0044f4da f   nafxcw:dlgdata.obj
 0001:0004e5b2       ?AfxFailMaxChars@@YGXPAVCDataExchange@@H@Z 0044f5b2 f   nafxcw:dlgdata.obj
 0001:0004e64b       ?AfxFailRadio@@YGXPAVCDataExchange@@@Z 0044f64b f   nafxcw:dlgdata.obj
 0001:0004e6b4       ?DDX_Text@@YGXPAVCDataExchange@@HAAV?$CStringT@DV?$StrTraitMFC@DV?$ChTraitsCRT@D@ATL@@@@@ATL@@@Z 0044f6b4 f   nafxcw:dlgdata.obj
 0001:0004e706       ?DDX_LBString@@YGXPAVCDataExchange@@HAAV?$CStringT@DV?$StrTraitMFC@DV?$ChTraitsCRT@D@ATL@@@@@ATL@@@Z 0044f706 f   nafxcw:dlgdata.obj
 0001:0004e79a       ?DDX_LBStringExact@@YGXPAVCDataExchange@@HAAV?$CStringT@DV?$StrTraitMFC@DV?$ChTraitsCRT@D@ATL@@@@@ATL@@@Z 0044f79a f   nafxcw:dlgdata.obj
 0001:0004e7fa       ?DDX_CBString@@YGXPAVCDataExchange@@HAAV?$CStringT@DV?$StrTraitMFC@DV?$ChTraitsCRT@D@ATL@@@@@ATL@@@Z 0044f7fa f   nafxcw:dlgdata.obj
 0001:0004e88c       ?DDX_CBStringExact@@YGXPAVCDataExchange@@HAAV?$CStringT@DV?$StrTraitMFC@DV?$ChTraitsCRT@D@ATL@@@@@ATL@@@Z 0044f88c f   nafxcw:dlgdata.obj
 0001:0004e8fa       ?AfxFormatStrings@@YGXAAV?$CStringT@DV?$StrTraitMFC@DV?$ChTraitsCRT@D@ATL@@@@@ATL@@PBDPBQBDH@Z 0044f8fa f   nafxcw:apphelp.obj
 0001:0004e9f9       ?AfxFormatStrings@@YGXAAV?$CStringT@DV?$StrTraitMFC@DV?$ChTraitsCRT@D@ATL@@@@@ATL@@IPBQBDH@Z 0044f9f9 f   nafxcw:apphelp.obj
 0001:0004ea60       ?AfxFormatString1@@YGXAAV?$CStringT@DV?$StrTraitMFC@DV?$ChTraitsCRT@D@ATL@@@@@ATL@@IPBD@Z 0044fa60 f   nafxcw:apphelp.obj
 0001:0004ea77       ?AfxFormatString2@@YGXAAV?$CStringT@DV?$StrTraitMFC@DV?$ChTraitsCRT@D@ATL@@@@@ATL@@IPBD1@Z 0044fa77 f   nafxcw:apphelp.obj
 0001:0004ea9d       ?DoWaitCursor@CWinApp@@UAEXH@Z 0044fa9d f   nafxcw:appui.obj
 0001:0004eaf0       ?SaveAllModified@CWinApp@@UAEHXZ 0044faf0 f   nafxcw:appui.obj
 0001:0004eb02       ?AddToRecentFileList@CWinApp@@UAEXPBD@Z 0044fb02 f   nafxcw:appui.obj
 0001:0004eb19       ?OpenDocumentFile@CWinApp@@UAEPAVCDocument@@PBD@Z 0044fb19 f   nafxcw:appui.obj
 0001:0004eb21       ?CloseAllDocuments@CWinApp@@QAEXH@Z 0044fb21 f   nafxcw:appui.obj
 0001:0004eb32       ?OnUpdateRecentFileMenu@CWinApp@@IAEXPAVCCmdUI@@@Z 0044fb32 f   nafxcw:appui.obj
 0001:0004eb53       ?OnDDECommand@CWinApp@@UAEHPAD@Z 0044fb53 f   nafxcw:appui.obj
 0001:0004eb66       ?HideApplication@CWinApp@@QAEXXZ 0044fb66 f   nafxcw:appui.obj
 0001:0004eb98       ?OnOpenRecentFile@CWinApp@@IAEHI@Z 0044fb98 f   nafxcw:appui.obj
 0001:0004ebce       ?WriteProfileInt@CWinApp@@QAEHPBD0H@Z 0044fbce f   nafxcw:appui3.obj
 0001:0004ec54       ?WriteProfileStringA@CWinApp@@QAEHPBD00@Z 0044fc54 f   nafxcw:appui3.obj
 0001:0004ecea       ?WriteProfileBinary@CWinApp@@QAEHPBD0PAEI@Z 0044fcea f   nafxcw:appui3.obj
 0001:0004ed87       ?GetFirstDocTemplatePosition@CWinApp@@QBEPAU__POSITION@@XZ 0044fd87 f   nafxcw:appui2.obj
 0001:0004ed98       ?GetNextDocTemplate@CWinApp@@QBEPAVCDocTemplate@@AAPAU__POSITION@@@Z 0044fd98 f   nafxcw:appui2.obj
 0001:0004eda0       ?AddDocTemplate@CWinApp@@QAEXPAVCDocTemplate@@@Z 0044fda0 f   nafxcw:appui2.obj
 0001:0004edf3       ??HATL@@YA?AV?$CStringT@DV?$StrTraitMFC@DV?$ChTraitsCRT@D@ATL@@@@@0@ABV10@PBD@Z 0044fdf3 f i nafxcw:appui2.obj
 0001:0004ee71       ??0CNewTypeDlg@@QAE@PAVCPtrList@@@Z 0044fe71 f i nafxcw:docmgr.obj
 0001:0004ee97       ??1CNewTypeDlg@@UAE@XZ     0044fe97 f i nafxcw:docmgr.obj
 0001:0004eea2       ?GetMessageMap@CNewTypeDlg@@MBEPBUAFX_MSGMAP@@XZ 0044fea2 f   nafxcw:docmgr.obj
 0001:0004eea8       ??_GCNewTypeDlg@@UAEPAXI@Z 0044fea8 f i nafxcw:docmgr.obj
 0001:0004eea8       ??_ECNewTypeDlg@@UAEPAXI@Z 0044fea8 f i nafxcw:docmgr.obj
 0001:0004eec4       ?OnOK@CNewTypeDlg@@MAEXXZ  0044fec4 f   nafxcw:docmgr.obj
 0001:0004eef7       ?AddDocTemplate@CDocManager@@UAEXPAVCDocTemplate@@@Z 0044fef7 f   nafxcw:docmgr.obj
 0001:0004ef69       ?GetFirstDocTemplatePosition@CDocManager@@UBEPAU__POSITION@@XZ 0044ff69 f   nafxcw:docmgr.obj
 0001:0004ef6d       ?GetNextDocTemplate@CDocManager@@UBEPAVCDocTemplate@@AAPAU__POSITION@@@Z 0044ff6d f   nafxcw:docmgr.obj
 0001:0004ef7e       ?SaveAllModified@CDocManager@@UAEHXZ 0044ff7e f   nafxcw:docmgr.obj
 0001:0004efb6       ?CloseAllDocuments@CDocManager@@UAEXH@Z 0044ffb6 f   nafxcw:docmgr.obj
 0001:0004efe8       ?GetDocumentCount@CDocManager@@IAEHXZ 0044ffe8 f   nafxcw:docmgr.obj
 0001:0004f039       ?OnFileNew@CDocManager@@UAEXXZ 00450039 f   nafxcw:docmgr.obj
 0001:0004f0c9       ?OnInitDialog@CNewTypeDlg@@MAEHXZ 004500c9 f   nafxcw:docmgr.obj
 0001:0004f1d0       ?OnFileOpen@CDocManager@@UAEXXZ 004501d0 f   nafxcw:docmgr.obj
 0001:0004f23e       ?_AfxAppendFilterSuffix@@YGXAAV?$CStringT@DV?$StrTraitMFC@DV?$ChTraitsCRT@D@ATL@@@@@ATL@@AAUtagOFNA@@PAVCDocTemplate@@PAV12@@Z 0045023e f   nafxcw:docmgr.obj
 0001:0004f3bb       ?DoPromptFileName@CDocManager@@UAEHAAV?$CStringT@DV?$StrTraitMFC@DV?$ChTraitsCRT@D@ATL@@@@@ATL@@IKHPAVCDocTemplate@@@Z 004503bb f   nafxcw:docmgr.obj
 0001:0004f633       ?OnDDECommand@CDocManager@@UAEHPAD@Z 00450633 f   nafxcw:docmgr.obj
 0001:0004fc0a       ?OnFileNew@CWinApp@@IAEXXZ 00450c0a f   nafxcw:appdlg.obj
 0001:0004fc19       ?OnFileOpen@CWinApp@@IAEXXZ 00450c19 f   nafxcw:appdlg.obj
 0001:0004fc21       ?DoPromptFileName@CWinApp@@QAEHAAV?$CStringT@DV?$StrTraitMFC@DV?$ChTraitsCRT@D@ATL@@@@@ATL@@IKHPAVCDocTemplate@@@Z 00450c21 f   nafxcw:appdlg.obj
 0001:0004fc2d       ?AfxOleCanExitApp@@YGHXZ   00450c2d f   nafxcw:olelock.obj
 0001:0004fc3d       ?AfxOleLockApp@@YGXXZ      00450c3d f   nafxcw:olelock.obj
 0001:0004fc4d       ?AfxOleSetUserCtrl@@YGXH@Z 00450c4d f   nafxcw:olelock.obj
 0001:0004fc5c       ?AfxOleGetUserCtrl@@YGHXZ  00450c5c f   nafxcw:olelock.obj
 0001:0004fc65       ?AfxOleOnReleaseAllObjects@@YGXXZ 00450c65 f   nafxcw:olelock.obj
 0001:0004fcb1       ?AfxOleUnlockApp@@YGXXZ    00450cb1 f   nafxcw:olelock.obj
 0001:0004fcca       ?AfxWingdixTerm@@YAXXZ     00450cca f   nafxcw:wingdix.obj
 0001:0004fcd5       ?FillSolidRect@CDC@@QAEXPBUtagRECT@@K@Z 00450cd5 f   nafxcw:wingdix.obj
 0001:0004fcff       ?DPtoHIMETRIC@CDC@@QBEXPAUtagSIZE@@@Z 00450cff f   nafxcw:wingdix.obj
 0001:0004fd8d       ?HIMETRICtoDP@CDC@@QBEXPAUtagSIZE@@@Z 00450d8d f   nafxcw:wingdix.obj
 0001:0004fe1b       ?LPtoHIMETRIC@CDC@@QBEXPAUtagSIZE@@@Z 00450e1b f   nafxcw:wingdix.obj
 0001:0004fe36       ?HIMETRICtoLP@CDC@@QBEXPAUtagSIZE@@@Z 00450e36 f   nafxcw:wingdix.obj
 0001:0004fe51       ?GetHalftoneBrush@CDC@@SGPAVCBrush@@XZ 00450e51 f   nafxcw:wingdix.obj
 0001:0004fef4       ?DrawDragRect@CDC@@QAEXPBUtagRECT@@UtagSIZE@@01PAVCBrush@@2@Z 00450ef4 f   nafxcw:wingdix.obj
 0001:0005018d       ?FillSolidRect@CDC@@QAEXHHHHK@Z 0045118d f   nafxcw:wingdix.obj
 0001:000501d9       ?Draw3dRect@CDC@@QAEXHHHHKK@Z 004511d9 f   nafxcw:wingdix.obj
 0001:00050243       ?CreatePointFontIndirect@CFont@@QAEHPBUtagLOGFONTA@@PAVCDC@@@Z 00451243 f   nafxcw:wingdix.obj
 0001:000502f4       ?Draw3dRect@CDC@@QAEXPBUtagRECT@@KK@Z 004512f4 f   nafxcw:wingdix.obj
 0001:0005031f       ?CreatePointFont@CFont@@QAEHHPBDPAVCDC@@@Z 0045131f f   nafxcw:wingdix.obj
 0001:0005037e       ?GetRuntimeClass@COleException@@UBEPAUCRuntimeClass@@XZ 0045137e f   nafxcw:olemisc.obj
 0001:00050384       ?Append@?$CSimpleStringT@D$0A@@ATL@@QAEXPBD@Z 00451384 f i nafxcw:olemisc.obj
 0001:000503a9       ??Y?$CSimpleStringT@D$0A@@ATL@@QAEAAV01@PBD@Z 004513a9 f i nafxcw:olemisc.obj
 0001:000503bb       ??Y?$CStringT@DV?$StrTraitMFC@DV?$ChTraitsCRT@D@ATL@@@@@ATL@@QAEAAV01@PBD@Z 004513bb f i nafxcw:olemisc.obj
 0001:000503cd       ?GetRuntimeClass@CException@@UBEPAUCRuntimeClass@@XZ 004513cd f   nafxcw:except.obj
 0001:000503d3       ?GetRuntimeClass@CMemoryException@@UBEPAUCRuntimeClass@@XZ 004513d3 f   nafxcw:except.obj
 0001:000503d9       ?GetRuntimeClass@CNotSupportedException@@UBEPAUCRuntimeClass@@XZ 004513d9 f   nafxcw:except.obj
 0001:000503df       ?GetRuntimeClass@CInvalidArgException@@UBEPAUCRuntimeClass@@XZ 004513df f   nafxcw:except.obj
 0001:000503e5       ?CreateObject@?$CThreadLocal@V_AFX_THREAD_STATE@@@@SGPAVCNoTrackObject@@XZ 004513e5 f i nafxcw:except.obj
 0001:00050419       ?GetData@?$CThreadLocal@V_AFX_THREAD_STATE@@@@QAEPAV_AFX_THREAD_STATE@@XZ 00451419 f i nafxcw:except.obj
 0001:00050424       ??C?$CThreadLocal@V_AFX_THREAD_STATE@@@@QAEPAV_AFX_THREAD_STATE@@XZ 00451424 f i nafxcw:except.obj
 0001:000504a4       ?AfxBSTR2ABSTR@@YGPA_WPA_W@Z 004514a4 f   nafxcw:olecnvrt.obj
 0001:000504f9       ?AfxDevModeA2W@@YGPAU_devicemodeW@@PAU1@PAU_devicemodeA@@@Z 004514f9 f   nafxcw:olecnvrt.obj
 0001:0005057a       ?AfxDevModeW2A@@YGPAU_devicemodeA@@PAU1@PAU_devicemodeW@@@Z 0045157a f   nafxcw:olecnvrt.obj
 0001:000505fb       ?AfxTextMetricA2W@@YGPAUtagTEXTMETRICW@@PAU1@PAUtagTEXTMETRICA@@@Z 004515fb f   nafxcw:olecnvrt.obj
 0001:0005067c       ?AfxTextMetricW2A@@YGPAUtagTEXTMETRICA@@PAU1@PAUtagTEXTMETRICW@@@Z 0045167c f   nafxcw:olecnvrt.obj
 0001:00050704       ?AfxTaskStringA2W@@YGPA_WPBD@Z 00451704 f   nafxcw:olecnvrt.obj
 0001:00050721       ?AfxTaskStringW2A@@YGPADPB_W@Z 00451721 f   nafxcw:olecnvrt.obj
 0001:0005073e       ?AfxBSTR2CString@@YGXPAV?$CStringT@DV?$StrTraitMFC@DV?$ChTraitsCRT@D@ATL@@@@@ATL@@PA_W@Z 0045173e f   nafxcw:olecnvrt.obj
 0001:00050783       ??0AUX_DATA@@QAE@XZ        00451783 f   nafxcw:auxdata.obj
 0001:000507f9       ??0CNoTrackObject@@QAE@XZ  004517f9 f i nafxcw:afxstate.obj
 0001:000507fc       ??1?$CThreadLocal@V_AFX_THREAD_STATE@@@@QAE@XZ 004517fc f i nafxcw:afxstate.obj
 0001:00050801       ??1?$CThreadLocal@VAFX_MODULE_THREAD_STATE@@@@QAE@XZ 00451801 f i nafxcw:afxstate.obj
 0001:00050806       ??1?$CProcessLocal@V_AFX_BASE_MODULE_STATE@@@@QAE@XZ 00451806 f i nafxcw:afxstate.obj
 0001:0005080b       ?Unlock@CTypeLibCache@@QAEXXZ 0045180b f   nafxcw:afxstate.obj
 0001:00050840       ??0_AFX_THREAD_STATE@@QAE@XZ 00451840 f   nafxcw:afxstate.obj
 0001:00050859       ??1_AFX_THREAD_STATE@@UAE@XZ 00451859 f   nafxcw:afxstate.obj
 0001:0005088e       ??1AFX_MODULE_STATE@@UAE@XZ 0045188e f   nafxcw:afxstate.obj
 0001:000508fc       ?RemoveAll@CTypeLibCacheMap@@UAEXPAX@Z 004518fc f   nafxcw:afxstate.obj
 0001:0005093e       ??1AFX_MODULE_THREAD_STATE@@UAE@XZ 0045193e f   nafxcw:afxstate.obj
 0001:000509e1       ??0?$CTypedSimpleList@PAVCFrameWnd@@@@QAE@H@Z 004519e1 f i nafxcw:afxstate.obj
 0001:000509f0       ??0?$CTypedSimpleList@PAUCRuntimeClass@@@@QAE@H@Z 004519f0 f i nafxcw:afxstate.obj
 0001:000509ff       ??0?$CTypedSimpleList@PAVCOleObjectFactory@@@@QAE@H@Z 004519ff f i nafxcw:afxstate.obj
 0001:00050a0e       ??0?$CTypedSimpleList@PAVCOleControlLock@@@@QAE@H@Z 00451a0e f i nafxcw:afxstate.obj
 0001:00050a1d       ??_G_AFX_THREAD_STATE@@UAEPAXI@Z 00451a1d f i nafxcw:afxstate.obj
 0001:00050a1d       ??_E_AFX_THREAD_STATE@@UAEPAXI@Z 00451a1d f i nafxcw:afxstate.obj
 0001:00050a38       ??0AFX_MODULE_STATE@@QAE@H@Z 00451a38 f   nafxcw:afxstate.obj
 0001:00050a98       ??_GAFX_MODULE_STATE@@UAEPAXI@Z 00451a98 f i nafxcw:afxstate.obj
 0001:00050a98       ??_EAFX_MODULE_STATE@@UAEPAXI@Z 00451a98 f i nafxcw:afxstate.obj
 0001:00050ab3       ??0AFX_MODULE_THREAD_STATE@@QAE@XZ 00451ab3 f   nafxcw:afxstate.obj
 0001:00050ada       ??_EAFX_MODULE_THREAD_STATE@@UAEPAXI@Z 00451ada f i nafxcw:afxstate.obj
 0001:00050ada       ??_GAFX_MODULE_THREAD_STATE@@UAEPAXI@Z 00451ada f i nafxcw:afxstate.obj
 0001:00050af5       ??0_AFX_BASE_MODULE_STATE@@QAE@XZ 00451af5 f i nafxcw:afxstate.obj
 0001:00050b09       ??_E_AFX_BASE_MODULE_STATE@@UAEPAXI@Z 00451b09 f i nafxcw:afxstate.obj
 0001:00050b09       ??_G_AFX_BASE_MODULE_STATE@@UAEPAXI@Z 00451b09 f i nafxcw:afxstate.obj
 0001:00050b24       ??1_AFX_BASE_MODULE_STATE@@UAE@XZ 00451b24 f i nafxcw:afxstate.obj
 0001:00050b29       ??B?$CThreadLocal@V_AFX_THREAD_STATE@@@@QAEPAV_AFX_THREAD_STATE@@XZ 00451b29 f i nafxcw:afxstate.obj
 0001:00050b34       ?CreateObject@?$CThreadLocal@VAFX_MODULE_THREAD_STATE@@@@SGPAVCNoTrackObject@@XZ 00451b34 f i nafxcw:afxstate.obj
 0001:00050b4c       ?CreateObject@?$CProcessLocal@V_AFX_BASE_MODULE_STATE@@@@SGPAVCNoTrackObject@@XZ 00451b4c f i nafxcw:afxstate.obj
 0001:00050b64       ?AfxGetThreadState@@YGPAV_AFX_THREAD_STATE@@XZ 00451b64 f   nafxcw:afxstate.obj
 0001:00050b74       ?GetData@?$CThreadLocal@VAFX_MODULE_THREAD_STATE@@@@QAEPAVAFX_MODULE_THREAD_STATE@@XZ 00451b74 f i nafxcw:afxstate.obj
 0001:00050b7f       ?GetData@?$CProcessLocal@V_AFX_BASE_MODULE_STATE@@@@QAEPAV_AFX_BASE_MODULE_STATE@@XZ 00451b7f f i nafxcw:afxstate.obj
 0001:00050b8a       ?AfxGetAppModuleState@@YGPAVAFX_MODULE_STATE@@XZ 00451b8a f   nafxcw:afxstate.obj
 0001:00050b9a       ?AfxGetModuleState@@YGPAVAFX_MODULE_STATE@@XZ 00451b9a f   nafxcw:afxstate.obj
 0001:00050bc0       ?AfxGetModuleThreadState@@YGPAVAFX_MODULE_THREAD_STATE@@XZ 00451bc0 f   nafxcw:afxstate.obj
 0001:00050c03       ??2CNoTrackObject@@SGPAXI@Z 00451c03 f   nafxcw:afxtls.obj
 0001:00050c1b       ??3CNoTrackObject@@SGXPAX@Z 00451c1b f   nafxcw:afxtls.obj
 0001:00050c2b       ?AllocSlot@CThreadSlotData@@QAEHXZ 00451c2b f   nafxcw:afxtls.obj
 0001:00050d37       ?GetThreadValue@CThreadSlotData@@QAEPAXH@Z 00451d37 f i nafxcw:afxtls.obj
 0001:00050d7d       ?AssignInstance@CThreadSlotData@@QAEXPAUHINSTANCE__@@@Z 00451d7d f   nafxcw:afxtls.obj
 0001:00050dbd       ?GetDataNA@CThreadLocalObject@@QAEPAVCNoTrackObject@@XZ 00451dbd f   nafxcw:afxtls.obj
 0001:00050dd7       ?GetData@CProcessLocalObject@@QAEPAVCNoTrackObject@@P6GPAV2@XZ@Z 00451dd7 f   nafxcw:afxtls.obj
 0001:00050e33       ??1CProcessLocalObject@@QAE@XZ 00451e33 f   nafxcw:afxtls.obj
 0001:00050e58       ?AfxInitLocalData@@YGXPAUHINSTANCE__@@@Z 00451e58 f   nafxcw:afxtls.obj
 0001:00050e6a       ?AfxTlsAddRef@@YGXXZ       00451e6a f   nafxcw:afxtls.obj
 0001:00050e71       ?AddHead@CSimpleList@@QAEXPAX@Z 00451e71 f   nafxcw:afxtls.obj
 0001:00050e84       ?Remove@CSimpleList@@QAEHPAX@Z 00451e84 f   nafxcw:afxtls.obj
 0001:00050ec2       ??0CThreadData@@QAE@XZ     00451ec2 f i nafxcw:afxtls.obj
 0001:00050ecb       ??0?$CTypedSimpleList@PAUCThreadData@@@@QAE@H@Z 00451ecb f i nafxcw:afxtls.obj
 0001:00050eda       ?AddHead@?$CTypedSimpleList@PAUCThreadData@@@@QAEXPAUCThreadData@@@Z 00451eda f i nafxcw:afxtls.obj
 0001:00050eed       ?Remove@?$CTypedSimpleList@PAUCThreadData@@@@QAEHPAUCThreadData@@@Z 00451eed f i nafxcw:afxtls.obj
 0001:00050ef2       ??B?$CTypedSimpleList@PAUCThreadData@@@@QAEPAUCThreadData@@XZ 00451ef2 f i nafxcw:afxtls.obj
 0001:00050ef5       ??0CThreadSlotData@@QAE@XZ 00451ef5 f   nafxcw:afxtls.obj
 0001:00050f37       ?FreeSlot@CThreadSlotData@@QAEXH@Z 00451f37 f   nafxcw:afxtls.obj
 0001:00050f9a       ?SetValue@CThreadSlotData@@QAEXHPAX@Z 00451f9a f   nafxcw:afxtls.obj
 0001:000510a1       ??_GCThreadData@@UAEPAXI@Z 004520a1 f i nafxcw:afxtls.obj
 0001:000510a1       ??_ECThreadData@@UAEPAXI@Z 004520a1 f i nafxcw:afxtls.obj
 0001:000510bc       ??1CThreadData@@UAE@XZ     004520bc f i nafxcw:afxtls.obj
 0001:000510bd       ?DeleteValues@CThreadSlotData@@QAEXPAUCThreadData@@PAUHINSTANCE__@@@Z 004520bd f   nafxcw:afxtls.obj
 0001:00051152       ?DeleteValues@CThreadSlotData@@QAEXPAUHINSTANCE__@@H@Z 00452152 f   nafxcw:afxtls.obj
 0001:000511ab       ?GetData@CThreadLocalObject@@QAEPAVCNoTrackObject@@P6GPAV2@XZ@Z 004521ab f   nafxcw:afxtls.obj
 0001:00051225       ??1CThreadLocalObject@@QAE@XZ 00452225 f   nafxcw:afxtls.obj
 0001:00051243       ?AfxTermLocalData@@YGXPAUHINSTANCE__@@H@Z 00452243 f   nafxcw:afxtls.obj
 0001:00051255       ??1CThreadSlotData@@QAE@XZ 00452255 f   nafxcw:afxtls.obj
 0001:000512ac       ??_GCThreadSlotData@@QAEPAXI@Z 004522ac f i nafxcw:afxtls.obj
 0001:000512c8       ?AfxTlsRelease@@YGXXZ      004522c8 f   nafxcw:afxtls.obj
 0001:000512f0       ?GetRuntimeClass@CArchiveException@@UBEPAUCRuntimeClass@@XZ 004522f0 f   nafxcw:arcex.obj
 0001:000512f6       ?AfxCriticalInit@@YGHXZ    004522f6 f   nafxcw:afxcrit.obj
 0001:0005131a       ?AfxCriticalTerm@@YGXXZ    0045231a f   nafxcw:afxcrit.obj
 0001:0005135f       ?AfxLockGlobals@@YGXH@Z    0045235f f   nafxcw:afxcrit.obj
 0001:000513c2       ?AfxUnlockGlobals@@YGXH@Z  004523c2 f   nafxcw:afxcrit.obj
 0001:000513da       ?GetRuntimeClass@CMapPtrToPtr@@UBEPAUCRuntimeClass@@XZ 004523da f   nafxcw:map_pp.obj
 0001:000513e0       ?GetRuntimeClass@CPtrList@@UBEPAUCRuntimeClass@@XZ 004523e0 f   nafxcw:list_p.obj
 0001:000513e6       ?CommonConstruct@CWinThread@@QAEXXZ 004523e6 f   nafxcw:thrdcore.obj
 0001:0005141d       ?GetRuntimeClass@CWinThread@@UBEPAUCRuntimeClass@@XZ 0045241d f   nafxcw:thrdcore.obj
 0001:00051423       ??0CWinThread@@QAE@P6AIPAX@Z0@Z 00452423 f   nafxcw:thrdcore.obj
 0001:00051467       ??_GCWinThread@@UAEPAXI@Z  00452467 f i nafxcw:thrdcore.obj
 0001:00051467       ??_ECWinThread@@UAEPAXI@Z  00452467 f i nafxcw:thrdcore.obj
 0001:00051483       ??0CWinThread@@QAE@XZ      00452483 f   nafxcw:thrdcore.obj
 0001:000514c0       ??B?$CTypedSimpleList@PAVCFrameWnd@@@@QAEPAVCFrameWnd@@XZ 004524c0 f i nafxcw:thrdcore.obj
 0001:000514c3       ??B?$CThreadLocal@VAFX_MODULE_THREAD_STATE@@@@QAEPAVAFX_MODULE_THREAD_STATE@@XZ 004524c3 f i nafxcw:thrdcore.obj
 0001:000514ce       ?GetRuntimeClass@CByteArray@@UBEPAUCRuntimeClass@@XZ 004524ce f   nafxcw:array_b.obj
 0001:000514d4       ??5@YGAAVCArchive@@AAV0@AAPAVCByteArray@@@Z 004524d4 f   nafxcw:array_b.obj
 0001:000514ef       ?CreateObject@CByteArray@@SGPAVCObject@@XZ 004524ef f   nafxcw:array_b.obj
 0001:00051510       ?_AfxLoadDotBitmap@@YGXXZ  00452510 f   nafxcw:cmdtarg.obj
 0001:000515fc       ?GetRuntimeClass@CCmdTarget@@UBEPAUCRuntimeClass@@XZ 004525fc f   nafxcw:cmdtarg.obj
 0001:00051602       ?GetRuntimeClass@CWnd@@UBEPAUCRuntimeClass@@XZ 00452602 f   nafxcw:wincore.obj
 0001:00051608       ?Destruct@?$ConstructDestruct@VCWnd@@@@SGXPAVCObject@@@Z 00452608 f i nafxcw:wincore.obj
 0001:00051616       ??1?$CComPtrBase@UIAccessibleProxy@@@ATL@@QAE@XZ 00452616 f i nafxcw:wincore.obj
 0001:00051623       ??B?$CComPtrBase@UIAccessibleProxy@@@ATL@@QBEPAUIAccessibleProxy@@XZ 00452623 f i nafxcw:wincore.obj
 0001:00051626       ??I?$CComPtrBase@UIAccessibleProxy@@@ATL@@QAEPAPAUIAccessibleProxy@@XZ 00452626 f i nafxcw:wincore.obj
 0001:00051629       ??C?$CComPtrBase@UIAccessibleProxy@@@ATL@@QBEPAV?$_NoAddRefReleaseOnCComPtr@UIAccessibleProxy@@@1@XZ 00452629 f i nafxcw:wincore.obj
 0001:0005162c       ??0IAccessibleProxy@@QAE@XZ 0045262c f i nafxcw:wincore.obj
 0001:0005162f       ??0IDispatch@@QAE@XZ       0045262f f i nafxcw:wincore.obj
 0001:00051632       ??0?$CComPtrBase@UIAccessibleProxy@@@ATL@@IAE@XZ 00452632 f i nafxcw:wincore.obj
 0001:00051638       ??$QueryInterface@UIAccessibleProxy@@@?$CMFCComObject@VCAccessibleProxy@ATL@@@@QAGJPAPAUIAccessibleProxy@@@Z 00452638 f i nafxcw:wincore.obj
 0001:0005164d       ?CreateObject@CWnd@@SGPAVCObject@@XZ 0045264d f   nafxcw:wincore.obj
 0001:0005167f       ?Construct@?$ConstructDestruct@VCWnd@@@@SGXPAVCObject@@@Z 0045267f f i nafxcw:wincore.obj
 0001:000516ab       ??0?$CComPtr@UIAccessibleProxy@@@ATL@@QAE@XZ 004526ab f i nafxcw:wincore.obj
 0001:000516b1       ??0IAccessible@@QAE@XZ     004526b1 f i nafxcw:wincore.obj
 0001:000516b4       ??0_AFX_HTMLHELP_STATE@@QAE@XZ 004526b4 f i nafxcw:wincore.obj
 0001:000516bd       ??0?$IAccessibleProxyImpl@VCAccessibleProxy@ATL@@@ATL@@QAE@XZ 004526bd f i nafxcw:wincore.obj
 0001:000516d5       ?get_accParent@?$IAccessibleProxyImpl@VCAccessibleProxy@ATL@@@ATL@@UAGJPAPAUIDispatch@@@Z 004526d5 f i nafxcw:wincore.obj
 0001:00051704       ?get_accChildCount@?$IAccessibleProxyImpl@VCAccessibleProxy@ATL@@@ATL@@UAGJPAJ@Z 00452704 f i nafxcw:wincore.obj
 0001:00051733       ?get_accChild@?$IAccessibleProxyImpl@VCAccessibleProxy@ATL@@@ATL@@UAGJUtagVARIANT@@PAPAUIDispatch@@@Z 00452733 f i nafxcw:wincore.obj
 0001:00051773       ?get_accName@?$IAccessibleProxyImpl@VCAccessibleProxy@ATL@@@ATL@@UAGJUtagVARIANT@@PAPA_W@Z 00452773 f i nafxcw:wincore.obj
 0001:000517b3       ?get_accValue@?$IAccessibleProxyImpl@VCAccessibleProxy@ATL@@@ATL@@UAGJUtagVARIANT@@PAPA_W@Z 004527b3 f i nafxcw:wincore.obj
 0001:000517f3       ?get_accDescription@?$IAccessibleProxyImpl@VCAccessibleProxy@ATL@@@ATL@@UAGJUtagVARIANT@@PAPA_W@Z 004527f3 f i nafxcw:wincore.obj
 0001:00051833       ?get_accRole@?$IAccessibleProxyImpl@VCAccessibleProxy@ATL@@@ATL@@UAGJUtagVARIANT@@PAU3@@Z 00452833 f i nafxcw:wincore.obj
 0001:00051873       ?get_accState@?$IAccessibleProxyImpl@VCAccessibleProxy@ATL@@@ATL@@UAGJUtagVARIANT@@PAU3@@Z 00452873 f i nafxcw:wincore.obj
 0001:000518b3       ?get_accHelp@?$IAccessibleProxyImpl@VCAccessibleProxy@ATL@@@ATL@@UAGJUtagVARIANT@@PAPA_W@Z 004528b3 f i nafxcw:wincore.obj
 0001:000518f3       ?get_accHelpTopic@?$IAccessibleProxyImpl@VCAccessibleProxy@ATL@@@ATL@@UAGJPAPA_WUtagVARIANT@@PAJ@Z 004528f3 f i nafxcw:wincore.obj
 0001:0005193b       ?get_accKeyboardShortcut@?$IAccessibleProxyImpl@VCAccessibleProxy@ATL@@@ATL@@UAGJUtagVARIANT@@PAPA_W@Z 0045293b f i nafxcw:wincore.obj
 0001:0005197b       ?get_accFocus@?$IAccessibleProxyImpl@VCAccessibleProxy@ATL@@@ATL@@UAGJPAUtagVARIANT@@@Z 0045297b f i nafxcw:wincore.obj
 0001:000519aa       ?get_accSelection@?$IAccessibleProxyImpl@VCAccessibleProxy@ATL@@@ATL@@UAGJPAUtagVARIANT@@@Z 004529aa f i nafxcw:wincore.obj
 0001:000519d9       ?get_accDefaultAction@?$IAccessibleProxyImpl@VCAccessibleProxy@ATL@@@ATL@@UAGJUtagVARIANT@@PAPA_W@Z 004529d9 f i nafxcw:wincore.obj
 0001:00051a19       ?accSelect@?$IAccessibleProxyImpl@VCAccessibleProxy@ATL@@@ATL@@UAGJJUtagVARIANT@@@Z 00452a19 f i nafxcw:wincore.obj
 0001:00051a4b       ?accLocation@?$IAccessibleProxyImpl@VCAccessibleProxy@ATL@@@ATL@@UAGJPAJ000UtagVARIANT@@@Z 00452a4b f i nafxcw:wincore.obj
 0001:00051aa3       ?accNavigate@?$IAccessibleProxyImpl@VCAccessibleProxy@ATL@@@ATL@@UAGJJUtagVARIANT@@PAU3@@Z 00452aa3 f i nafxcw:wincore.obj
 0001:00051ae6       ?accHitTest@?$IAccessibleProxyImpl@VCAccessibleProxy@ATL@@@ATL@@UAGJJJPAUtagVARIANT@@@Z 00452ae6 f i nafxcw:wincore.obj
 0001:00051b1c       ?accDoDefaultAction@?$IAccessibleProxyImpl@VCAccessibleProxy@ATL@@@ATL@@UAGJUtagVARIANT@@@Z 00452b1c f i nafxcw:wincore.obj
 0001:00051b4a       ?put_accName@?$IAccessibleProxyImpl@VCAccessibleProxy@ATL@@@ATL@@UAGJUtagVARIANT@@PA_W@Z 00452b4a f i nafxcw:wincore.obj
 0001:00051b62       ?put_accValue@?$IAccessibleProxyImpl@VCAccessibleProxy@ATL@@@ATL@@UAGJUtagVARIANT@@PA_W@Z 00452b62 f i nafxcw:wincore.obj
 0001:00051b7a       ?SetServer@?$IAccessibleProxyImpl@VCAccessibleProxy@ATL@@@ATL@@UAGJPAUIAccessible@@PAUIAccessibleServer@@@Z 00452b7a f i nafxcw:wincore.obj
 0001:00051b91       ?Invoke@?$IAccessibleProxyImpl@VCAccessibleProxy@ATL@@@ATL@@UAGJJABU_GUID@@KGPAUtagDISPPARAMS@@PAUtagVARIANT@@PAUtagEXCEPINFO@@PAI@Z 00452b91 f i nafxcw:wincore.obj
 0001:00051bc9       ?GetIDsOfNames@?$IAccessibleProxyImpl@VCAccessibleProxy@ATL@@@ATL@@UAGJABU_GUID@@PAPA_WIKPAJ@Z 00452bc9 f i nafxcw:wincore.obj
 0001:00051bf8       ?GetTypeInfoCount@?$IAccessibleProxyImpl@VCAccessibleProxy@ATL@@@ATL@@UAGJPAI@Z 00452bf8 f i nafxcw:wincore.obj
 0001:00051c19       ?GetTypeInfo@?$IAccessibleProxyImpl@VCAccessibleProxy@ATL@@@ATL@@UAGJIKPAPAUITypeInfo@@@Z 00452c19 f i nafxcw:wincore.obj
 0001:00051c42       ?CreateObject@?$CProcessLocal@V_AFX_HTMLHELP_STATE@@@@SGPAVCNoTrackObject@@XZ 00452c42 f i nafxcw:wincore.obj
 0001:00051c57       ?GetData@?$CProcessLocal@V_AFX_HTMLHELP_STATE@@@@QAEPAV_AFX_HTMLHELP_STATE@@XZ 00452c57 f i nafxcw:wincore.obj
 0001:00051c62       ??0?$CMFCComObject@VCAccessibleProxy@ATL@@@@QAE@PAX@Z 00452c62 f i nafxcw:wincore.obj
 0001:00051c8f       ??_E?$CMFCComObject@VCAccessibleProxy@ATL@@@@UAEPAXI@Z 00452c8f f i nafxcw:wincore.obj
 0001:00051c8f       ??_G?$CMFCComObject@VCAccessibleProxy@ATL@@@@UAEPAXI@Z 00452c8f f i nafxcw:wincore.obj
 0001:00051cab       ??1?$CMFCComObject@VCAccessibleProxy@ATL@@@@UAE@XZ 00452cab f i nafxcw:wincore.obj
 0001:00051cd0       ?AddRef@?$CMFCComObject@VCAccessibleProxy@ATL@@@@UAGKXZ 00452cd0 f i nafxcw:wincore.obj
 0001:00051cdd       ?Release@?$CMFCComObject@VCAccessibleProxy@ATL@@@@UAGKXZ 00452cdd f i nafxcw:wincore.obj
 0001:00051cfb       ?QueryInterface@?$CMFCComObject@VCAccessibleProxy@ATL@@@@UAGJABU_GUID@@PAPAX@Z 00452cfb f i nafxcw:wincore.obj
 0001:00051d14       ?QueryInterface@?$CMFCComObject@VCAccessibleProxy@ATL@@@@W3AGJABU_GUID@@PAPAX@Z 00452d14 f i nafxcw:wincore.obj
 0001:00051d1e       ?AddRef@?$CMFCComObject@VCAccessibleProxy@ATL@@@@W3AGKXZ 00452d1e f i nafxcw:wincore.obj
 0001:00051d28       ?Release@?$CMFCComObject@VCAccessibleProxy@ATL@@@@W3AGKXZ 00452d28 f i nafxcw:wincore.obj
 0001:00051d32       ?QueryInterface@?$CMFCComObject@VCAccessibleProxy@ATL@@@@WBA@AGJABU_GUID@@PAPAX@Z 00452d32 f i nafxcw:wincore.obj
 0001:00051d3c       ?AddRef@?$CMFCComObject@VCAccessibleProxy@ATL@@@@WBA@AGKXZ 00452d3c f i nafxcw:wincore.obj
 0001:00051d46       ?Release@?$CMFCComObject@VCAccessibleProxy@ATL@@@@WBA@AGKXZ 00452d46 f i nafxcw:wincore.obj
 0001:00051d50       ?CreateInstance@?$CMFCComObject@VCAccessibleProxy@ATL@@@@SGJPAPAV1@@Z 00452d50 f i nafxcw:wincore.obj
 0001:00051dd6       ?GetRuntimeClass@CResourceException@@UBEPAUCRuntimeClass@@XZ 00452dd6 f   nafxcw:wingdi.obj
 0001:00051ddc       ?GetRuntimeClass@CUserException@@UBEPAUCRuntimeClass@@XZ 00452ddc f   nafxcw:wingdi.obj
 0001:00051de2       ?GetRuntimeClass@CDC@@UBEPAUCRuntimeClass@@XZ 00452de2 f   nafxcw:wingdi.obj
 0001:00051de8       ?GetRuntimeClass@CClientDC@@UBEPAUCRuntimeClass@@XZ 00452de8 f   nafxcw:wingdi.obj
 0001:00051dee       ?GetRuntimeClass@CWindowDC@@UBEPAUCRuntimeClass@@XZ 00452dee f   nafxcw:wingdi.obj
 0001:00051df4       ?GetRuntimeClass@CPaintDC@@UBEPAUCRuntimeClass@@XZ 00452df4 f   nafxcw:wingdi.obj
 0001:00051dfa       ?GetRuntimeClass@CGdiObject@@UBEPAUCRuntimeClass@@XZ 00452dfa f   nafxcw:wingdi.obj
 0001:00051e00       ?GetRuntimeClass@CPen@@UBEPAUCRuntimeClass@@XZ 00452e00 f   nafxcw:wingdi.obj
 0001:00051e06       ?GetRuntimeClass@CBrush@@UBEPAUCRuntimeClass@@XZ 00452e06 f   nafxcw:wingdi.obj
 0001:00051e0c       ?GetRuntimeClass@CFont@@UBEPAUCRuntimeClass@@XZ 00452e0c f   nafxcw:wingdi.obj
 0001:00051e12       ?GetRuntimeClass@CBitmap@@UBEPAUCRuntimeClass@@XZ 00452e12 f   nafxcw:wingdi.obj
 0001:00051e18       ?GetRuntimeClass@CPalette@@UBEPAUCRuntimeClass@@XZ 00452e18 f   nafxcw:wingdi.obj
 0001:00051e1e       ?GetRuntimeClass@CRgn@@UBEPAUCRuntimeClass@@XZ 00452e1e f   nafxcw:wingdi.obj
 0001:00051e24       ?Destruct@?$ConstructDestruct@VCDC@@@@SGXPAVCObject@@@Z 00452e24 f i nafxcw:wingdi.obj
 0001:00051e32       ?Destruct@?$ConstructDestruct@VCGdiObject@@@@SGXPAVCObject@@@Z 00452e32 f i nafxcw:wingdi.obj
 0001:00051e40       ?CreateObject@CDC@@SGPAVCObject@@XZ 00452e40 f   nafxcw:wingdi.obj
 0001:00051e61       ?CreateObject@CGdiObject@@SGPAVCObject@@XZ 00452e61 f   nafxcw:wingdi.obj
 0001:00051e7b       ?Construct@?$ConstructDestruct@VCDC@@@@SGXPAVCObject@@@Z 00452e7b f i nafxcw:wingdi.obj
 0001:00051e97       ?Construct@?$ConstructDestruct@VCGdiObject@@@@SGXPAVCObject@@@Z 00452e97 f i nafxcw:wingdi.obj
 0001:00051efa       ?GetRuntimeClass@CMenu@@UBEPAUCRuntimeClass@@XZ 00452efa f   nafxcw:winmenu.obj
 0001:00051f00       ?Destruct@?$ConstructDestruct@VCMenu@@@@SGXPAVCObject@@@Z 00452f00 f i nafxcw:winmenu.obj
 0001:00051f0e       ?CreateObject@CMenu@@SGPAVCObject@@XZ 00452f0e f   nafxcw:winmenu.obj
 0001:00051f28       ?Construct@?$ConstructDestruct@VCMenu@@@@SGXPAVCObject@@@Z 00452f28 f i nafxcw:winmenu.obj
 0001:00051fdc       ?AfxLoadLangResourceDLL@@YGPAUHINSTANCE__@@PBD@Z 00452fdc f   nafxcw:appcore.obj
 0001:000521c1       ?LoadSysPolicies@CWinApp@@UAEHXZ 004531c1 f   nafxcw:appcore.obj
 0001:0005228b       ?GetSysPolicyValue@CWinApp@@QAEHKPAH@Z 0045328b f   nafxcw:appcore.obj
 0001:000522ab       ?InitApplication@CWinApp@@UAEHXZ 004532ab f   nafxcw:appcore.obj
 0001:000522eb       ?LoadAppLangResourceDLL@CWinApp@@UAEPAUHINSTANCE__@@XZ 004532eb f   nafxcw:appcore.obj
 0001:00052375       ?LoadStdProfileSettings@CWinApp@@IAEXI@Z 00453375 f   nafxcw:appcore.obj
 0001:00052404       ?ParseCommandLine@CWinApp@@QAEXAAVCCommandLineInfo@@@Z 00453404 f   nafxcw:appcore.obj
 0001:00052457       ?ParseParamFlag@CCommandLineInfo@@IAEXPBD@Z 00453457 f   nafxcw:appcore.obj
 0001:0005253d       ??1CWinApp@@UAE@XZ         0045353d f   nafxcw:appcore.obj
 0001:00052665       ?SaveStdProfileSettings@CWinApp@@IAEXXZ 00453665 f   nafxcw:appcore.obj
 0001:0005269a       ?ExitInstance@CWinApp@@UAEHXZ 0045369a f   nafxcw:appcore.obj
 0001:000526ee       ?GetRuntimeClass@CWinApp@@UBEPAUCRuntimeClass@@XZ 004536ee f   nafxcw:appcore.obj
 0001:000526f4       ??1?$CProcessLocal@V_AFX_WIN_STATE@@@@QAE@XZ 004536f4 f i nafxcw:appcore.obj
 0001:000526f9       ??_ECWinApp@@UAEPAXI@Z     004536f9 f i nafxcw:appcore.obj
 0001:000526f9       ??_GCWinApp@@UAEPAXI@Z     004536f9 f i nafxcw:appcore.obj
 0001:00052715       ?InitInstance@CWinApp@@UAEHXZ 00453715 f   nafxcw:appcore.obj
 0001:0005274d       ??0CWinApp@@QAE@PBD@Z      0045374d f   nafxcw:appcore.obj
 0001:00052825       ??0CCommandLineInfo@@QAE@XZ 00453825 f   nafxcw:appcore.obj
 0001:00052864       ??1CCommandLineInfo@@UAE@XZ 00453864 f   nafxcw:appcore.obj
 0001:0005289a       ?ParseLast@CCommandLineInfo@@IAEXH@Z 0045389a f   nafxcw:appcore.obj
 0001:000528c9       ??_ECCommandLineInfo@@UAEPAXI@Z 004538c9 f i nafxcw:appcore.obj
 0001:000528c9       ??_GCCommandLineInfo@@UAEPAXI@Z 004538c9 f i nafxcw:appcore.obj
 0001:000528e5       ?ParseParamNotFlag@CCommandLineInfo@@IAEXPBD@Z 004538e5 f   nafxcw:appcore.obj
 0001:0005292e       ?ParseParam@CCommandLineInfo@@UAEXPBDHH@Z 0045392e f   nafxcw:appcore.obj
 0001:0005297b       ?_AfxInitDBCS@@YGHXZ       0045397b f   nafxcw:afxdbcs.obj
 0001:000529bd       ?GetRuntimeClass@CPtrArray@@UBEPAUCRuntimeClass@@XZ 004539bd f   nafxcw:array_p.obj
 0001:000529c3       ?SetRegistryKey@CWinApp@@IAEXPBD@Z 004539c3 f   nafxcw:appui3.obj
 0001:000529f4       ?SetRegistryKey@CWinApp@@IAEXI@Z 004539f4 f   nafxcw:appui3.obj
 0001:00052a3b       ?GetAppRegistryKey@CWinApp@@QAEPAUHKEY__@@XZ 00453a3b f   nafxcw:appui3.obj
 0001:00052acc       ?GetSectionKey@CWinApp@@QAEPAUHKEY__@@PBD@Z 00453acc f   nafxcw:appui3.obj
 0001:00052b12       ?GetProfileIntA@CWinApp@@QAEIPBD0H@Z 00453b12 f   nafxcw:appui3.obj
 0001:00052b7b       ?GetProfileStringA@CWinApp@@QAE?AV?$CStringT@DV?$StrTraitMFC@DV?$ChTraitsCRT@D@ATL@@@@@ATL@@PBD00@Z 00453b7b f   nafxcw:appui3.obj
 0001:00052d08       ?GetProfileBinary@CWinApp@@QAEHPBD0PAPAEPAI@Z 00453d08 f   nafxcw:appui3.obj
 0001:00052e30       ?InitLibId@CWinApp@@UAEXXZ 00453e30 f   nafxcw:appui2.obj
 0001:00052e31       ?Register@CWinApp@@UAEHXZ  00453e31 f   nafxcw:appui2.obj
 0001:00052e35       ?RegisterShellFileTypes@CWinApp@@IAEXH@Z 00453e35 f   nafxcw:appui2.obj
 0001:00052e3d       ?UnregisterShellFileTypes@CWinApp@@IAEXXZ 00453e3d f   nafxcw:appui2.obj
 0001:00052e45       ?ProcessShellCommand@CWinApp@@QAEHAAVCCommandLineInfo@@@Z 00453e45 f   nafxcw:appui2.obj
 0001:00052fc5       ?AfxDelRegTreeHelper@@YGJPAUHKEY__@@ABV?$CStringT@DV?$StrTraitMFC@DV?$ChTraitsCRT@D@ATL@@@@@ATL@@@Z 00453fc5 f   nafxcw:appui2.obj
 0001:000530f0       ?EnableShellOpen@CWinApp@@IAEXXZ 004540f0 f   nafxcw:appui2.obj
 0001:0005319b       ?DelRegTree@CWinApp@@QAEJPAUHKEY__@@ABV?$CStringT@DV?$StrTraitMFC@DV?$ChTraitsCRT@D@ATL@@@@@ATL@@@Z 0045419b f   nafxcw:appui2.obj
 0001:000531a0       ?Unregister@CWinApp@@UAEHXZ 004541a0 f   nafxcw:appui2.obj
 0001:00053317       ?AfxGetFileName@@YGIPBDPADI@Z 00454317 f   nafxcw:appinit.obj
 0001:00053346       ?SetCurrentHandles@CWinApp@@QAEXXZ 00454346 f   nafxcw:appinit.obj
 0001:00053498       ?AfxWinInit@@YGHPAUHINSTANCE__@@0PADH@Z 00454498 f   nafxcw:appinit.obj
 0001:00053515       ?GetRuntimeClass@CFile@@UBEPAUCRuntimeClass@@XZ 00454515 f   nafxcw:filecore.obj
 0001:0005351b       ?GetRuntimeClass@CFileException@@UBEPAUCRuntimeClass@@XZ 0045451b f   nafxcw:filex.obj
 0001:00053521       ?_AfxSetRegKey@@YGHPBD00@Z 00454521 f   nafxcw:docmgr.obj
 0001:000535a0       ?GetRuntimeClass@CDocManager@@UBEPAUCRuntimeClass@@XZ 004545a0 f   nafxcw:docmgr.obj
 0001:000535a6       ?StringFindChar@?$ChTraitsCRT@D@ATL@@SAPBDPBDD@Z 004545a6 f i nafxcw:docmgr.obj
 0001:000535b8       ?StringSpanIncluding@?$ChTraitsCRT@D@ATL@@SAHPBD0@Z 004545b8 f i nafxcw:docmgr.obj
 0001:000535bd       ?StringSpanExcluding@?$ChTraitsCRT@D@ATL@@SAHPBD0@Z 004545bd f i nafxcw:docmgr.obj
 0001:000535c2       ?_AfxDeleteRegKey@@YGHPBD@Z 004545c2 f   nafxcw:docmgr.obj
 0001:0005367c       ??0CDocManager@@QAE@XZ     0045467c f   nafxcw:docmgr.obj
 0001:00053693       ??_ECDocManager@@UAEPAXI@Z 00454693 f i nafxcw:docmgr.obj
 0001:00053693       ??_GCDocManager@@UAEPAXI@Z 00454693 f i nafxcw:docmgr.obj
 0001:000536af       ?Find@?$CStringT@DV?$StrTraitMFC@DV?$ChTraitsCRT@D@ATL@@@@@ATL@@QBEHDH@Z 004546af f i nafxcw:docmgr.obj
 0001:000536e0       ??8ATL@@YA_NABV?$CStringT@DV?$StrTraitMFC@DV?$ChTraitsCRT@D@ATL@@@@@0@0@Z 004546e0 f i nafxcw:docmgr.obj
 0001:000536fb       ??9ATL@@YA_NABV?$CStringT@DV?$StrTraitMFC@DV?$ChTraitsCRT@D@ATL@@@@@0@PBD@Z 004546fb f i nafxcw:docmgr.obj
 0001:00053714       ?Right@?$CStringT@DV?$StrTraitMFC@DV?$ChTraitsCRT@D@ATL@@@@@ATL@@QBE?AV12@H@Z 00454714 f i nafxcw:docmgr.obj
 0001:00053761       ?SetAt@?$CSimpleStringT@D$0A@@ATL@@QAEXHD@Z 00454761 f i nafxcw:docmgr.obj
 0001:0005379c       ?Mid@?$CStringT@DV?$StrTraitMFC@DV?$ChTraitsCRT@D@ATL@@@@@ATL@@QBE?AV12@HH@Z 0045479c f i nafxcw:docmgr.obj
 0001:00053805       ?Tokenize@?$CStringT@DV?$StrTraitMFC@DV?$ChTraitsCRT@D@ATL@@@@@ATL@@QBE?AV12@PBDAAH@Z 00454805 f i nafxcw:docmgr.obj
 0001:000538a2       ?Mid@?$CStringT@DV?$StrTraitMFC@DV?$ChTraitsCRT@D@ATL@@@@@ATL@@QBE?AV12@H@Z 004548a2 f i nafxcw:docmgr.obj
 0001:000538c5       ??Y?$CSimpleStringT@D$0A@@ATL@@QAEAAV01@ABV01@@Z 004548c5 f i nafxcw:docmgr.obj
 0001:000538dd       ?UnregisterShellFileTypes@CDocManager@@QAEXXZ 004548dd f   nafxcw:docmgr.obj
 0001:00053b9f       ??Y?$CStringT@DV?$StrTraitMFC@DV?$ChTraitsCRT@D@ATL@@@@@ATL@@QAEAAV01@ABV?$CSimpleStringT@D$0A@@1@@Z 00454b9f f i nafxcw:docmgr.obj
 0001:00053bb1       ?RegisterShellFileTypes@CDocManager@@UAEXH@Z 00454bb1 f   nafxcw:docmgr.obj
 0001:00054112       ?GetRuntimeClass@CDialog@@UBEPAUCRuntimeClass@@XZ 00455112 f   nafxcw:dlgcore.obj
 0001:00054118       ?GetRuntimeClass@CFileDialog@@UBEPAUCRuntimeClass@@XZ 00455118 f   nafxcw:dlgfile.obj
 0001:0005411e       ??HATL@@YA?AV?$CStringT@DV?$StrTraitMFC@DV?$ChTraitsCRT@D@ATL@@@@@0@ABV10@D@Z 0045511e f i nafxcw:dlgfile.obj
 0001:00054191       ?GetErrorMessage@COleException@@UAEHPADIPAI@Z 00455191 f   nafxcw:olemisc.obj
 0001:000541e7       ?Process@COleException@@SGJPBVCException@@@Z 004551e7 f   nafxcw:olemisc.obj
 0001:00054236       ?AfxUnmergeMenus@@YGXPAUHMENU__@@00@Z 00455236 f   nafxcw:olemisc.obj
 0001:000542e2       ?_AfxFillFormatEtc@@YGPAUtagFORMATETC@@PAU1@G0@Z 004552e2 f   nafxcw:olemisc.obj
 0001:00054311       ?_AfxCopyGlobalMemory@@YGPAXPAX0@Z 00455311 f   nafxcw:olemisc.obj
 0001:0005437d       ?_AfxOleDoConvert@@YGJPAUIStorage@@ABU_GUID@@@Z 0045537d f   nafxcw:olemisc.obj
 0001:0005444d       ?_AfxOleDoTreatAsClass@@YGJPBDABU_GUID@@1@Z 0045544d f   nafxcw:olemisc.obj
 0001:000544d8       ?_AfxOleGetFirstMoniker@@YGPAUIMoniker@@PAU1@@Z 004554d8 f   nafxcw:olemisc.obj
 0001:00054540       ?_AfxOleGetLenFilePrefixOfMoniker@@YGKPAUIMoniker@@@Z 00455540 f   nafxcw:olemisc.obj
 0001:00054622       ?_AfxOleCopyTargetDevice@@YGPAUtagDVTARGETDEVICE@@PAU1@@Z 00455622 f   nafxcw:olemisc.obj
 0001:00054651       ?_AfxOleCopyFormatEtc@@YGXPAUtagFORMATETC@@0@Z 00455651 f   nafxcw:olemisc.obj
 0001:00054683       ?_AfxDeleteMetafilePict@@YGXPAX@Z 00455683 f   nafxcw:olemisc.obj
 0001:000546ac       ?_AfxXformSizeInPixelsToHimetric@@YGXPAUHDC__@@PAUtagSIZE@@1@Z 004556ac f   nafxcw:olemisc.obj
 0001:00054713       ?_AfxXformSizeInHimetricToPixels@@YGXPAUHDC__@@PAUtagSIZE@@1@Z 00455713 f   nafxcw:olemisc.obj
 0001:00054780       ?AfxThrowOleException@@YGXJ@Z 00455780 f   nafxcw:olemisc.obj
 0001:000547c2       ?_AfxCopyStgMedium@@YGHGPAUtagSTGMEDIUM@@0@Z 004557c2 f   nafxcw:olemisc.obj
 0001:00054a7d       ?_AfxOleGetObjectDescriptorData@@YGPAXU_GUID@@KUtagSIZE@@U_POINTL@@KPB_W3@Z 00455a7d f   nafxcw:olemisc.obj
 0001:00054b82       ?_AfxOleGetObjectDescriptorData@@YGPAXPAUIOleObject@@PB_WKU_POINTL@@PAUtagSIZE@@@Z 00455b82 f   nafxcw:olemisc.obj
 0001:00054dba       ?_AfxOleCreateTargetDevice@@YGPAUtagDVTARGETDEVICE@@PAUtagDEVNAMES@@PAU_devicemodeA@@@Z 00455dba f   nafxcw:olemisc.obj
 0001:00054fbe       ?_AfxOleCreateTargetDevice@@YGPAUtagDVTARGETDEVICE@@PAUtagPDA@@@Z 00455fbe f   nafxcw:olemisc.obj
 0001:0005500d       ?_AfxOleCreateDC@@YGPAUHDC__@@PAUtagDVTARGETDEVICE@@@Z 0045600d f   nafxcw:olemisc.obj
 0001:00055124       ?AfxMergeMenus@@YGPAUHMENU__@@PAU1@0PAJHH@Z 00456124 f   nafxcw:olemisc.obj
 0001:000553af       ?_AfxQueryInterface@@YGPAUIUnknown@@PAU1@ABU_GUID@@@Z 004563af f   nafxcw:oleunk.obj
 0001:000553d3       ?_AfxRelease@@YGKPAPAUIUnknown@@@Z 004563d3 f   nafxcw:oleunk.obj
 0001:000553ef       ?InternalRelease@CCmdTarget@@QAEKXZ 004563ef f   nafxcw:oleunk.obj
 0001:00055418       ?ExternalRelease@CCmdTarget@@QAEKXZ 00456418 f   nafxcw:oleunk.obj
 0001:0005542d       ?GetInterface@CCmdTarget@@QAEPAUIUnknown@@PBX@Z 0045642d f   nafxcw:oleunk.obj
 0001:000554db       ?QueryAggregates@CCmdTarget@@QAEPAUIUnknown@@PBX@Z 004564db f   nafxcw:oleunk.obj
 0001:0005553b       ?Release@CInnerUnknown@@UAGKXZ 0045653b f   nafxcw:oleunk.obj
 0001:0005554a       ?ExternalDisconnect@CCmdTarget@@QAEXXZ 0045654a f   nafxcw:oleunk.obj
 0001:00055576       ?GetControllingUnknown@CCmdTarget@@QAEPAUIUnknown@@XZ 00456576 f   nafxcw:oleunk.obj
 0001:00055588       ??0CInnerUnknown@@QAE@XZ   00456588 f i nafxcw:oleunk.obj
 0001:00055591       ?ExternalAddRef@CCmdTarget@@QAEKXZ 00456591 f   nafxcw:oleunk.obj
 0001:000555ac       ?InternalQueryInterface@CCmdTarget@@QAEKPBXPAPAX@Z 004565ac f   nafxcw:oleunk.obj
 0001:000555ec       ?ExternalQueryInterface@CCmdTarget@@QAEKPBXPAPAX@Z 004565ec f   nafxcw:oleunk.obj
 0001:0005560a       ?AddRef@CInnerUnknown@@UAGKXZ 0045660a f   nafxcw:oleunk.obj
 0001:0005561b       ?QueryInterface@CInnerUnknown@@UAGJABU_GUID@@PAPAX@Z 0045661b f   nafxcw:oleunk.obj
 0001:0005565f       ?EnableAggregation@CCmdTarget@@QAEXXZ 0045665f f   nafxcw:oleunk.obj
 0001:00055667       ??1AUX_DATA@@QAE@XZ        00456667 f   nafxcw:auxdata.obj
 0001:00055671       ??1CWinThread@@UAE@XZ      00456671 f   nafxcw:thrdcore.obj
 0001:000556c0       ?AfxPostQuitMessage@@YGXH@Z 004566c0 f   nafxcw:appcore.obj
 0001:000556dc       ??1CDocManager@@UAE@XZ     004566dc f   nafxcw:docmgr.obj
 0002:00000000       __imp__GetUserNameA@8      00459000     advapi32:ADVAPI32.dll
 0002:00000004       __imp__RegQueryValueExA@24 00459004     advapi32:ADVAPI32.dll
 0002:00000008       __imp__RegOpenKeyExA@20    00459008     advapi32:ADVAPI32.dll
 0002:0000000c       __imp__RegCreateKeyA@12    0045900c     advapi32:ADVAPI32.dll
 0002:00000010       __imp__RegQueryValueA@16   00459010     advapi32:ADVAPI32.dll
 0002:00000014       __imp__RegEnumKeyA@16      00459014     advapi32:ADVAPI32.dll
 0002:00000018       __imp__RegDeleteKeyA@8     00459018     advapi32:ADVAPI32.dll
 0002:0000001c       __imp__RegDeleteValueA@8   0045901c     advapi32:ADVAPI32.dll
 0002:00000020       __imp__RegCreateKeyExA@36  00459020     advapi32:ADVAPI32.dll
 0002:00000024       __imp__RegOpenKeyA@12      00459024     advapi32:ADVAPI32.dll
 0002:00000028       __imp__RegSetValueA@20     00459028     advapi32:ADVAPI32.dll
 0002:0000002c       __imp__RegSetValueExA@24   0045902c     advapi32:ADVAPI32.dll
 0002:00000030       __imp__RegCloseKey@4       00459030     advapi32:ADVAPI32.dll
 0002:00000034       \177ADVAPI32_NULL_THUNK_DATA 00459034     advapi32:ADVAPI32.dll
 0002:00000038       __imp__InitCommonControls@0 00459038     comctl32:COMCTL32.dll
 0002:0000003c       \177COMCTL32_NULL_THUNK_DATA 0045903c     comctl32:COMCTL32.dll
 0002:00000040       __imp__SetRectRgn@20       00459040     gdi32:GDI32.dll
 0002:00000044       __imp__CreateRectRgnIndirect@4 00459044     gdi32:GDI32.dll
 0002:00000048       __imp__GetTextExtentPoint32A@16 00459048     gdi32:GDI32.dll
 0002:0000004c       __imp__CreateFontIndirectA@4 0045904c     gdi32:GDI32.dll
 0002:00000050       __imp__CreateHatchBrush@8  00459050     gdi32:GDI32.dll
 0002:00000054       __imp__CreateSolidBrush@4  00459054     gdi32:GDI32.dll
 0002:00000058       __imp__ExtCreatePen@20     00459058     gdi32:GDI32.dll
 0002:0000005c       __imp__CreatePen@12        0045905c     gdi32:GDI32.dll
 0002:00000060       __imp__PlayMetaFile@8      00459060     gdi32:GDI32.dll
 0002:00000064       __imp__EnumMetaFile@16     00459064     gdi32:GDI32.dll
 0002:00000068       __imp__GetObjectType@4     00459068     gdi32:GDI32.dll
 0002:0000006c       __imp__PlayMetaFileRecord@16 0045906c     gdi32:GDI32.dll
 0002:00000070       __imp__SelectPalette@12    00459070     gdi32:GDI32.dll
 0002:00000074       __imp__GetStockObject@4    00459074     gdi32:GDI32.dll
 0002:00000078       __imp__PatBlt@24           00459078     gdi32:GDI32.dll
 0002:0000007c       __imp__CreatePatternBrush@4 0045907c     gdi32:GDI32.dll
 0002:00000080       __imp__CombineRgn@16       00459080     gdi32:GDI32.dll
 0002:00000084       __imp__GetDCOrgEx@8        00459084     gdi32:GDI32.dll
 0002:00000088       __imp__GetClipBox@8        00459088     gdi32:GDI32.dll
 0002:0000008c       __imp__GetObjectA@12       0045908c     gdi32:GDI32.dll
 0002:00000090       __imp__SaveDC@4            00459090     gdi32:GDI32.dll
 0002:00000094       __imp__RestoreDC@8         00459094     gdi32:GDI32.dll
 0002:00000098       __imp__SetPolyFillMode@8   00459098     gdi32:GDI32.dll
 0002:0000009c       __imp__SetROP2@8           0045909c     gdi32:GDI32.dll
 0002:000000a0       __imp__SetStretchBltMode@8 004590a0     gdi32:GDI32.dll
 0002:000000a4       __imp__SetMapMode@8        004590a4     gdi32:GDI32.dll
 0002:000000a8       __imp__ExcludeClipRect@20  004590a8     gdi32:GDI32.dll
 0002:000000ac       __imp__IntersectClipRect@20 004590ac     gdi32:GDI32.dll
 0002:000000b0       __imp__OffsetClipRgn@12    004590b0     gdi32:GDI32.dll
 0002:000000b4       __imp__LineTo@12           004590b4     gdi32:GDI32.dll
 0002:000000b8       __imp__MoveToEx@16         004590b8     gdi32:GDI32.dll
 0002:000000bc       __imp__SetTextAlign@8      004590bc     gdi32:GDI32.dll
 0002:000000c0       __imp__SetTextJustification@12 004590c0     gdi32:GDI32.dll
 0002:000000c4       __imp__CreateBitmap@20     004590c4     gdi32:GDI32.dll
 0002:000000c8       __imp__GetMapMode@4        004590c8     gdi32:GDI32.dll
 0002:000000cc       __imp__SetTextCharacterExtra@8 004590cc     gdi32:GDI32.dll
 0002:000000d0       __imp__SetMapperFlags@8    004590d0     gdi32:GDI32.dll
 0002:000000d4       __imp__SetArcDirection@8   004590d4     gdi32:GDI32.dll
 0002:000000d8       __imp__SetColorAdjustment@8 004590d8     gdi32:GDI32.dll
 0002:000000dc       __imp__SelectClipRgn@8     004590dc     gdi32:GDI32.dll
 0002:000000e0       __imp__DPtoLP@12           004590e0     gdi32:GDI32.dll
 0002:000000e4       __imp__GetTextMetricsA@8   004590e4     gdi32:GDI32.dll
 0002:000000e8       __imp__CreateDCA@16        004590e8     gdi32:GDI32.dll
 0002:000000ec       __imp__CopyMetaFileA@8     004590ec     gdi32:GDI32.dll
 0002:000000f0       __imp__CreateCompatibleDC@4 004590f0     gdi32:GDI32.dll
 0002:000000f4       __imp__SelectObject@8      004590f4     gdi32:GDI32.dll
 0002:000000f8       __imp__SetBkColor@8        004590f8     gdi32:GDI32.dll
 0002:000000fc       __imp__DeleteObject@4      004590fc     gdi32:GDI32.dll
 0002:00000100       __imp__SetBkMode@8         00459100     gdi32:GDI32.dll
 0002:00000104       __imp__SetTextColor@8      00459104     gdi32:GDI32.dll
 0002:00000108       __imp__TextOutA@20         00459108     gdi32:GDI32.dll
 0002:0000010c       __imp__CreateFontA@56      0045910c     gdi32:GDI32.dll
 0002:00000110       __imp__GetClipRgn@8        00459110     gdi32:GDI32.dll
 0002:00000114       __imp__CreateRectRgn@16    00459114     gdi32:GDI32.dll
 0002:00000118       __imp__SelectClipPath@8    00459118     gdi32:GDI32.dll
 0002:0000011c       __imp__GetViewportExtEx@8  0045911c     gdi32:GDI32.dll
 0002:00000120       __imp__GetWindowExtEx@8    00459120     gdi32:GDI32.dll
 0002:00000124       __imp__BitBlt@36           00459124     gdi32:GDI32.dll
 0002:00000128       __imp__GetPixel@12         00459128     gdi32:GDI32.dll
 0002:0000012c       __imp__StartDocA@8         0045912c     gdi32:GDI32.dll
 0002:00000130       __imp__PtVisible@12        00459130     gdi32:GDI32.dll
 0002:00000134       __imp__RectVisible@8       00459134     gdi32:GDI32.dll
 0002:00000138       __imp__ExtTextOutA@32      00459138     gdi32:GDI32.dll
 0002:0000013c       __imp__Escape@20           0045913c     gdi32:GDI32.dll
 0002:00000140       __imp__SetViewportOrgEx@16 00459140     gdi32:GDI32.dll
 0002:00000144       __imp__OffsetViewportOrgEx@16 00459144     gdi32:GDI32.dll
 0002:00000148       __imp__SetViewportExtEx@16 00459148     gdi32:GDI32.dll
 0002:0000014c       __imp__ScaleViewportExtEx@24 0045914c     gdi32:GDI32.dll
 0002:00000150       __imp__SetWindowOrgEx@16   00459150     gdi32:GDI32.dll
 0002:00000154       __imp__OffsetWindowOrgEx@16 00459154     gdi32:GDI32.dll
 0002:00000158       __imp__SetWindowExtEx@16   00459158     gdi32:GDI32.dll
 0002:0000015c       __imp__ScaleWindowExtEx@24 0045915c     gdi32:GDI32.dll
 0002:00000160       __imp__GetCurrentPositionEx@8 00459160     gdi32:GDI32.dll
 0002:00000164       __imp__ArcTo@36            00459164     gdi32:GDI32.dll
 0002:00000168       __imp__PolyDraw@16         00459168     gdi32:GDI32.dll
 0002:0000016c       __imp__PolylineTo@12       0045916c     gdi32:GDI32.dll
 0002:00000170       __imp__PolyBezierTo@12     00459170     gdi32:GDI32.dll
 0002:00000174       __imp__ExtSelectClipRgn@12 00459174     gdi32:GDI32.dll
 0002:00000178       __imp__DeleteDC@4          00459178     gdi32:GDI32.dll
 0002:0000017c       __imp__CreateDIBPatternBrushPt@8 0045917c     gdi32:GDI32.dll
 0002:00000180       __imp__GetDeviceCaps@8     00459180     gdi32:GDI32.dll
 0002:00000184       \177GDI32_NULL_THUNK_DATA  00459184     gdi32:GDI32.dll
 0002:00000188       __imp__lstrcpynA@12        00459188     kernel32:KERNEL32.dll
 0002:0000018c       __imp__GetFullPathNameA@16 0045918c     kernel32:KERNEL32.dll
 0002:00000190       __imp__OutputDebugStringA@4 00459190     kernel32:KERNEL32.dll
 0002:00000194       __imp__GetLocalTime@4      00459194     kernel32:KERNEL32.dll
 0002:00000198       __imp__SetUnhandledExceptionFilter@4 00459198     kernel32:KERNEL32.dll
 0002:0000019c       __imp__SetErrorMode@4      0045919c     kernel32:KERNEL32.dll
 0002:000001a0       __imp__GetFileAttributesA@4 004591a0     kernel32:KERNEL32.dll
 0002:000001a4       __imp__GetModuleFileNameA@12 004591a4     kernel32:KERNEL32.dll
 0002:000001a8       __imp__lstrcatA@8          004591a8     kernel32:KERNEL32.dll
 0002:000001ac       __imp__LoadLibraryA@4      004591ac     kernel32:KERNEL32.dll
 0002:000001b0       __imp__GetProcAddress@8    004591b0     kernel32:KERNEL32.dll
 0002:000001b4       __imp__FreeLibrary@4       004591b4     kernel32:KERNEL32.dll
 0002:000001b8       __imp__QueryPerformanceFrequency@4 004591b8     kernel32:KERNEL32.dll
 0002:000001bc       __imp__QueryPerformanceCounter@4 004591bc     kernel32:KERNEL32.dll
 0002:000001c0       __imp__lstrcpyA@8          004591c0     kernel32:KERNEL32.dll
 0002:000001c4       __imp__HeapCreate@12       004591c4     kernel32:KERNEL32.dll
 0002:000001c8       __imp__HeapReAlloc@16      004591c8     kernel32:KERNEL32.dll
 0002:000001cc       __imp__HeapFree@12         004591cc     kernel32:KERNEL32.dll
 0002:000001d0       __imp__HeapAlloc@12        004591d0     kernel32:KERNEL32.dll
 0002:000001d4       __imp__HeapDestroy@4       004591d4     kernel32:KERNEL32.dll
 0002:000001d8       __imp__CreateIoCompletionPort@16 004591d8     kernel32:KERNEL32.dll
 0002:000001dc       __imp__PostQueuedCompletionStatus@16 004591dc     kernel32:KERNEL32.dll
 0002:000001e0       __imp__GetOverlappedResult@16 004591e0     kernel32:KERNEL32.dll
 0002:000001e4       __imp__GetQueuedCompletionStatus@20 004591e4     kernel32:KERNEL32.dll
 0002:000001e8       __imp__GetSystemInfo@4     004591e8     kernel32:KERNEL32.dll
 0002:000001ec       __imp__VirtualFree@12      004591ec     kernel32:KERNEL32.dll
 0002:000001f0       __imp__CreateEventA@16     004591f0     kernel32:KERNEL32.dll
 0002:000001f4       __imp__SetThreadPriority@8 004591f4     kernel32:KERNEL32.dll
 0002:000001f8       __imp__WaitForMultipleObjects@16 004591f8     kernel32:KERNEL32.dll
 0002:000001fc       __imp__SetEvent@4          004591fc     kernel32:KERNEL32.dll
 0002:00000200       __imp__InterlockedDecrement@4 00459200     kernel32:KERNEL32.dll
 0002:00000204       __imp__InitializeCriticalSectionAndSpinCount@8 00459204     kernel32:KERNEL32.dll
 0002:00000208       __imp__VirtualAlloc@16     00459208     kernel32:KERNEL32.dll
 0002:0000020c       __imp__IsDBCSLeadByte@4    0045920c     kernel32:KERNEL32.dll
 0002:00000210       __imp__CreateToolhelp32Snapshot@8 00459210     kernel32:KERNEL32.dll
 0002:00000214       __imp__Process32First@8    00459214     kernel32:KERNEL32.dll
 0002:00000218       __imp__Process32Next@8     00459218     kernel32:KERNEL32.dll
 0002:0000021c       __imp__OpenProcess@12      0045921c     kernel32:KERNEL32.dll
 0002:00000220       __imp__GetExitCodeProcess@8 00459220     kernel32:KERNEL32.dll
 0002:00000224       __imp__TerminateProcess@8  00459224     kernel32:KERNEL32.dll
 0002:00000228       __imp__WaitForSingleObject@8 00459228     kernel32:KERNEL32.dll
 0002:0000022c       __imp__CloseHandle@4       0045922c     kernel32:KERNEL32.dll
 0002:00000230       __imp__GetStringTypeExW@20 00459230     kernel32:KERNEL32.dll
 0002:00000234       __imp__GetStringTypeExA@20 00459234     kernel32:KERNEL32.dll
 0002:00000238       __imp__GetEnvironmentVariableW@12 00459238     kernel32:KERNEL32.dll
 0002:0000023c       __imp__GetEnvironmentVariableA@12 0045923c     kernel32:KERNEL32.dll
 0002:00000240       __imp__CompareStringW@24   00459240     kernel32:KERNEL32.dll
 0002:00000244       __imp__CompareStringA@24   00459244     kernel32:KERNEL32.dll
 0002:00000248       __imp__lstrlenA@4          00459248     kernel32:KERNEL32.dll
 0002:0000024c       __imp__lstrcmpiW@8         0045924c     kernel32:KERNEL32.dll
 0002:00000250       __imp__lstrlenW@4          00459250     kernel32:KERNEL32.dll
 0002:00000254       __imp__lstrcmpiA@8         00459254     kernel32:KERNEL32.dll
 0002:00000258       __imp__GetVersion@0        00459258     kernel32:KERNEL32.dll
 0002:0000025c       __imp__GetLastError@0      0045925c     kernel32:KERNEL32.dll
 0002:00000260       __imp__MultiByteToWideChar@24 00459260     kernel32:KERNEL32.dll
 0002:00000264       __imp__InterlockedIncrement@4 00459264     kernel32:KERNEL32.dll
 0002:00000268       __imp__GetTickCount@0      00459268     kernel32:KERNEL32.dll
 0002:0000026c       __imp__DeleteCriticalSection@4 0045926c     kernel32:KERNEL32.dll
 0002:00000270       __imp__InitializeCriticalSection@4 00459270     kernel32:KERNEL32.dll
 0002:00000274       __imp__LeaveCriticalSection@4 00459274     kernel32:KERNEL32.dll
 0002:00000278       __imp__EnterCriticalSection@4 00459278     kernel32:KERNEL32.dll
 0002:0000027c       __imp__WideCharToMultiByte@32 0045927c     kernel32:KERNEL32.dll
 0002:00000280       __imp__FindResourceA@12    00459280     kernel32:KERNEL32.dll
 0002:00000284       __imp__LoadResource@8      00459284     kernel32:KERNEL32.dll
 0002:00000288       __imp__LocalFree@4         00459288     kernel32:KERNEL32.dll
 0002:0000028c       __imp__FormatMessageA@28   0045928c     kernel32:KERNEL32.dll
 0002:00000290       __imp__GlobalUnlock@4      00459290     kernel32:KERNEL32.dll
 0002:00000294       __imp__GlobalLock@4        00459294     kernel32:KERNEL32.dll
 0002:00000298       __imp__GlobalAlloc@8       00459298     kernel32:KERNEL32.dll
 0002:0000029c       __imp__GlobalSize@4        0045929c     kernel32:KERNEL32.dll
 0002:000002a0       __imp__MulDiv@12           004592a0     kernel32:KERNEL32.dll
 0002:000002a4       __imp__CopyFileA@12        004592a4     kernel32:KERNEL32.dll
 0002:000002a8       __imp__GlobalFree@4        004592a8     kernel32:KERNEL32.dll
 0002:000002ac       __imp__SetLastError@4      004592ac     kernel32:KERNEL32.dll
 0002:000002b0       __imp__RaiseException@16   004592b0     kernel32:KERNEL32.dll
 0002:000002b4       __imp__LocalAlloc@8        004592b4     kernel32:KERNEL32.dll
 0002:000002b8       __imp__GlobalReAlloc@12    004592b8     kernel32:KERNEL32.dll
 0002:000002bc       __imp__GlobalHandle@4      004592bc     kernel32:KERNEL32.dll
 0002:000002c0       __imp__TlsGetValue@4       004592c0     kernel32:KERNEL32.dll
 0002:000002c4       __imp__TlsAlloc@0          004592c4     kernel32:KERNEL32.dll
 0002:000002c8       __imp__TlsSetValue@8       004592c8     kernel32:KERNEL32.dll
 0002:000002cc       __imp__LocalReAlloc@12     004592cc     kernel32:KERNEL32.dll
 0002:000002d0       __imp__TlsFree@4           004592d0     kernel32:KERNEL32.dll
 0002:000002d4       __imp__FileTimeToSystemTime@8 004592d4     kernel32:KERNEL32.dll
 0002:000002d8       __imp__SystemTimeToFileTime@8 004592d8     kernel32:KERNEL32.dll
 0002:000002dc       __imp__lstrcmpA@8          004592dc     kernel32:KERNEL32.dll
 0002:000002e0       __imp__GlobalFlags@4       004592e0     kernel32:KERNEL32.dll
 0002:000002e4       __imp__ResumeThread@4      004592e4     kernel32:KERNEL32.dll
 0002:000002e8       __imp__GetCurrentThreadId@0 004592e8     kernel32:KERNEL32.dll
 0002:000002ec       __imp__SuspendThread@4     004592ec     kernel32:KERNEL32.dll
 0002:000002f0       __imp__GetModuleHandleA@4  004592f0     kernel32:KERNEL32.dll
 0002:000002f4       __imp__lstrcmpW@8          004592f4     kernel32:KERNEL32.dll
 0002:000002f8       __imp__GlobalDeleteAtom@4  004592f8     kernel32:KERNEL32.dll
 0002:000002fc       __imp__GlobalFindAtomA@4   004592fc     kernel32:KERNEL32.dll
 0002:00000300       __imp__GlobalAddAtomA@4    00459300     kernel32:KERNEL32.dll
 0002:00000304       __imp__GlobalGetAtomNameA@12 00459304     kernel32:KERNEL32.dll
 0002:00000308       __imp__FreeResource@4      00459308     kernel32:KERNEL32.dll
 0002:0000030c       __imp__EnumResourceLanguagesA@20 0045930c     kernel32:KERNEL32.dll
 0002:00000310       __imp__ConvertDefaultLocale@4 00459310     kernel32:KERNEL32.dll
 0002:00000314       __imp__GetCurrentThread@0  00459314     kernel32:KERNEL32.dll
 0002:00000318       __imp__GetCPInfo@8         00459318     kernel32:KERNEL32.dll
 0002:0000031c       __imp__GetOEMCP@0          0045931c     kernel32:KERNEL32.dll
 0002:00000320       __imp__GetPrivateProfileIntA@16 00459320     kernel32:KERNEL32.dll
 0002:00000324       __imp__WritePrivateProfileStringA@16 00459324     kernel32:KERNEL32.dll
 0002:00000328       __imp__GetPrivateProfileStringA@24 00459328     kernel32:KERNEL32.dll
 0002:0000032c       __imp__GetCurrentDirectoryA@8 0045932c     kernel32:KERNEL32.dll
 0002:00000330       __imp__MoveFileA@8         00459330     kernel32:KERNEL32.dll
 0002:00000334       __imp__DeleteFileA@4       00459334     kernel32:KERNEL32.dll
 0002:00000338       __imp__ReadFile@20         00459338     kernel32:KERNEL32.dll
 0002:0000033c       __imp__WriteFile@20        0045933c     kernel32:KERNEL32.dll
 0002:00000340       __imp__SetFilePointer@16   00459340     kernel32:KERNEL32.dll
 0002:00000344       __imp__FlushFileBuffers@4  00459344     kernel32:KERNEL32.dll
 0002:00000348       __imp__LockFile@20         00459348     kernel32:KERNEL32.dll
 0002:0000034c       __imp__UnlockFile@20       0045934c     kernel32:KERNEL32.dll
 0002:00000350       __imp__SetEndOfFile@4      00459350     kernel32:KERNEL32.dll
 0002:00000354       __imp__GetFileSize@8       00459354     kernel32:KERNEL32.dll
 0002:00000358       __imp__DuplicateHandle@28  00459358     kernel32:KERNEL32.dll
 0002:0000035c       __imp__GetCurrentProcess@0 0045935c     kernel32:KERNEL32.dll
 0002:00000360       __imp__FindClose@4         00459360     kernel32:KERNEL32.dll
 0002:00000364       __imp__FindFirstFileA@8    00459364     kernel32:KERNEL32.dll
 0002:00000368       __imp__GetVolumeInformationA@32 00459368     kernel32:KERNEL32.dll
 0002:0000036c       __imp__GetShortPathNameA@12 0045936c     kernel32:KERNEL32.dll
 0002:00000370       __imp__FileTimeToLocalFileTime@8 00459370     kernel32:KERNEL32.dll
 0002:00000374       __imp__LocalFileTimeToFileTime@8 00459374     kernel32:KERNEL32.dll
 0002:00000378       __imp__SetFileTime@16      00459378     kernel32:KERNEL32.dll
 0002:0000037c       __imp__SetFileAttributesA@8 0045937c     kernel32:KERNEL32.dll
 0002:00000380       __imp__GetFileTime@16      00459380     kernel32:KERNEL32.dll
 0002:00000384       __imp__ExitProcess@4       00459384     kernel32:KERNEL32.dll
 0002:00000388       __imp__GetSystemTimeAsFileTime@4 00459388     kernel32:KERNEL32.dll
 0002:0000038c       __imp__RtlUnwind@16        0045938c     kernel32:KERNEL32.dll
 0002:00000390       __imp__GetTimeFormatA@24   00459390     kernel32:KERNEL32.dll
 0002:00000394       __imp__GetDateFormatA@24   00459394     kernel32:KERNEL32.dll
 0002:00000398       __imp__VirtualProtect@16   00459398     kernel32:KERNEL32.dll
 0002:0000039c       __imp__VirtualQuery@12     0045939c     kernel32:KERNEL32.dll
 0002:000003a0       __imp__ExitThread@4        004593a0     kernel32:KERNEL32.dll
 0002:000003a4       __imp__CreateThread@24     004593a4     kernel32:KERNEL32.dll
 0002:000003a8       __imp__FindNextFileA@8     004593a8     kernel32:KERNEL32.dll
 0002:000003ac       __imp__GetStartupInfoA@4   004593ac     kernel32:KERNEL32.dll
 0002:000003b0       __imp__GetCommandLineA@0   004593b0     kernel32:KERNEL32.dll
 0002:000003b4       __imp__HeapSize@12         004593b4     kernel32:KERNEL32.dll
 0002:000003b8       __imp__GetCurrentProcessId@0 004593b8     kernel32:KERNEL32.dll
 0002:000003bc       __imp__GetTimeZoneInformation@4 004593bc     kernel32:KERNEL32.dll
 0002:000003c0       __imp__FatalAppExitA@8     004593c0     kernel32:KERNEL32.dll
 0002:000003c4       __imp__IsBadWritePtr@8     004593c4     kernel32:KERNEL32.dll
 0002:000003c8       __imp__LCMapStringA@24     004593c8     kernel32:KERNEL32.dll
 0002:000003cc       __imp__LCMapStringW@24     004593cc     kernel32:KERNEL32.dll
 0002:000003d0       __imp__UnhandledExceptionFilter@4 004593d0     kernel32:KERNEL32.dll
 0002:000003d4       __imp__SetHandleCount@4    004593d4     kernel32:KERNEL32.dll
 0002:000003d8       __imp__GetStdHandle@4      004593d8     kernel32:KERNEL32.dll
 0002:000003dc       __imp__GetFileType@4       004593dc     kernel32:KERNEL32.dll
 0002:000003e0       __imp__SetStdHandle@8      004593e0     kernel32:KERNEL32.dll
 0002:000003e4       __imp__GetStringTypeA@20   004593e4     kernel32:KERNEL32.dll
 0002:000003e8       __imp__GetStringTypeW@16   004593e8     kernel32:KERNEL32.dll
 0002:000003ec       __imp__FreeEnvironmentStringsA@4 004593ec     kernel32:KERNEL32.dll
 0002:000003f0       __imp__GetEnvironmentStrings@0 004593f0     kernel32:KERNEL32.dll
 0002:000003f4       __imp__FreeEnvironmentStringsW@4 004593f4     kernel32:KERNEL32.dll
 0002:000003f8       __imp__GetEnvironmentStringsW@0 004593f8     kernel32:KERNEL32.dll
 0002:000003fc       __imp__GetUserDefaultLCID@0 004593fc     kernel32:KERNEL32.dll
 0002:00000400       __imp__EnumSystemLocalesA@8 00459400     kernel32:KERNEL32.dll
 0002:00000404       __imp__IsValidLocale@8     00459404     kernel32:KERNEL32.dll
 0002:00000408       __imp__IsValidCodePage@4   00459408     kernel32:KERNEL32.dll
 0002:0000040c       __imp__IsBadReadPtr@8      0045940c     kernel32:KERNEL32.dll
 0002:00000410       __imp__IsBadCodePtr@4      00459410     kernel32:KERNEL32.dll
 0002:00000414       __imp__SetConsoleCtrlHandler@8 00459414     kernel32:KERNEL32.dll
 0002:00000418       __imp__GetLocaleInfoW@16   00459418     kernel32:KERNEL32.dll
 0002:0000041c       __imp__SetEnvironmentVariableA@8 0045941c     kernel32:KERNEL32.dll
 0002:00000420       __imp__LockResource@4      00459420     kernel32:KERNEL32.dll
 0002:00000424       __imp__SizeofResource@8    00459424     kernel32:KERNEL32.dll
 0002:00000428       __imp__GetVersionExA@4     00459428     kernel32:KERNEL32.dll
 0002:0000042c       __imp__GetThreadLocale@0   0045942c     kernel32:KERNEL32.dll
 0002:00000430       __imp__GetLocaleInfoA@16   00459430     kernel32:KERNEL32.dll
 0002:00000434       __imp__GetACP@0            00459434     kernel32:KERNEL32.dll
 0002:00000438       __imp__InterlockedExchange@8 00459438     kernel32:KERNEL32.dll
 0002:0000043c       __imp__GlobalMemoryStatus@4 0045943c     kernel32:KERNEL32.dll
 0002:00000440       __imp__FileTimeToDosDateTime@12 00459440     kernel32:KERNEL32.dll
 0002:00000444       __imp__CreateFileA@28      00459444     kernel32:KERNEL32.dll
 0002:00000448       \177KERNEL32_NULL_THUNK_DATA 00459448     kernel32:KERNEL32.dll
 0002:0000044c       __imp__GetFirstStackTraceString@8 0045944c     neuzd:NeuzD.dll
 0002:00000450       __imp__GetRegisterString@4 00459450     neuzd:NeuzD.dll
 0002:00000454       __imp__GetFaultReason@4    00459454     neuzd:NeuzD.dll
 0002:00000458       __imp__GetNextStackTraceString@8 00459458     neuzd:NeuzD.dll
 0002:0000045c       \177NeuzD_NULL_THUNK_DATA  0045945c     neuzd:NeuzD.dll
 0002:00000460       __imp__CreateStdAccessibleObject@16 00459460     oleacc:OLEACC.dll
 0002:00000464       __imp__AccessibleObjectFromWindow@16 00459464     oleacc:OLEACC.dll
 0002:00000468       __imp__LresultFromObject@12 00459468     oleacc:OLEACC.dll
 0002:0000046c       \177OLEACC_NULL_THUNK_DATA 0045946c     oleacc:OLEACC.dll
 0002:00000470       __imp__SysAllocStringByteLen@8 00459470     oleaut32:OLEAUT32.dll
 0002:00000474       __imp__SysStringByteLen@4  00459474     oleaut32:OLEAUT32.dll
 0002:00000478       __imp__SafeArrayUnaccessData@4 00459478     oleaut32:OLEAUT32.dll
 0002:0000047c       __imp__SafeArrayAccessData@8 0045947c     oleaut32:OLEAUT32.dll
 0002:00000480       __imp__SafeArrayGetUBound@12 00459480     oleaut32:OLEAUT32.dll
 0002:00000484       __imp__SafeArrayGetLBound@12 00459484     oleaut32:OLEAUT32.dll
 0002:00000488       __imp__SafeArrayGetElemsize@4 00459488     oleaut32:OLEAUT32.dll
 0002:0000048c       __imp__SafeArrayGetDim@4   0045948c     oleaut32:OLEAUT32.dll
 0002:00000490       __imp__SysReAllocStringLen@12 00459490     oleaut32:OLEAUT32.dll
 0002:00000494       __imp__SysAllocString@4    00459494     oleaut32:OLEAUT32.dll
 0002:00000498       __imp__SystemTimeToVariantTime@8 00459498     oleaut32:OLEAUT32.dll
 0002:0000049c       __imp__VariantTimeToSystemTime@12 0045949c     oleaut32:OLEAUT32.dll
 0002:000004a0       __imp__SysAllocStringLen@8 004594a0     oleaut32:OLEAUT32.dll
 0002:000004a4       __imp__SafeArrayDestroyDescriptor@4 004594a4     oleaut32:OLEAUT32.dll
 0002:000004a8       __imp__VarDateFromStr@16   004594a8     oleaut32:OLEAUT32.dll
 0002:000004ac       __imp__SafeArrayDestroy@4  004594ac     oleaut32:OLEAUT32.dll
 0002:000004b0       __imp__SafeArrayUnlock@4   004594b0     oleaut32:OLEAUT32.dll
 0002:000004b4       __imp__SafeArrayLock@4     004594b4     oleaut32:OLEAUT32.dll
 0002:000004b8       __imp__SafeArrayPutElement@12 004594b8     oleaut32:OLEAUT32.dll
 0002:000004bc       __imp__SafeArrayPtrOfIndex@12 004594bc     oleaut32:OLEAUT32.dll
 0002:000004c0       __imp__SafeArrayGetElement@12 004594c0     oleaut32:OLEAUT32.dll
 0002:000004c4       __imp__SafeArrayCopy@8     004594c4     oleaut32:OLEAUT32.dll
 0002:000004c8       __imp__SafeArrayAllocDescriptor@8 004594c8     oleaut32:OLEAUT32.dll
 0002:000004cc       __imp__SafeArrayAllocData@4 004594cc     oleaut32:OLEAUT32.dll
 0002:000004d0       __imp__VariantCopy@8       004594d0     oleaut32:OLEAUT32.dll
 0002:000004d4       __imp__VariantChangeType@16 004594d4     oleaut32:OLEAUT32.dll
 0002:000004d8       __imp__SafeArrayRedim@8    004594d8     oleaut32:OLEAUT32.dll
 0002:000004dc       __imp__VariantClear@4      004594dc     oleaut32:OLEAUT32.dll
 0002:000004e0       __imp__SafeArrayCreate@12  004594e0     oleaut32:OLEAUT32.dll
 0002:000004e4       __imp__VarBstrFromDec@16   004594e4     oleaut32:OLEAUT32.dll
 0002:000004e8       __imp__VarDecFromStr@16    004594e8     oleaut32:OLEAUT32.dll
 0002:000004ec       __imp__VarCyFromStr@16     004594ec     oleaut32:OLEAUT32.dll
 0002:000004f0       __imp__VarBstrFromCy@20    004594f0     oleaut32:OLEAUT32.dll
 0002:000004f4       __imp__VarBstrFromDate@20  004594f4     oleaut32:OLEAUT32.dll
 0002:000004f8       __imp__VariantInit@4       004594f8     oleaut32:OLEAUT32.dll
 0002:000004fc       __imp__SafeArrayDestroyData@4 004594fc     oleaut32:OLEAUT32.dll
 0002:00000500       __imp__SysFreeString@4     00459500     oleaut32:OLEAUT32.dll
 0002:00000504       __imp__SysStringLen@4      00459504     oleaut32:OLEAUT32.dll
 0002:00000508       \177OLEAUT32_NULL_THUNK_DATA 00459508     oleaut32:OLEAUT32.dll
 0002:0000050c       __imp__ExtractIconA@12     0045950c     shell32:SHELL32.dll
 0002:00000510       __imp__SHGetFileInfoA@20   00459510     shell32:SHELL32.dll
 0002:00000514       \177SHELL32_NULL_THUNK_DATA 00459514     shell32:SHELL32.dll
 0002:00000518       __imp__PathFindExtensionA@4 00459518     shlwapi:SHLWAPI.dll
 0002:0000051c       __imp__PathRemoveExtensionA@4 0045951c     shlwapi:SHLWAPI.dll
 0002:00000520       __imp__PathFindFileNameA@4 00459520     shlwapi:SHLWAPI.dll
 0002:00000524       __imp__PathStripToRootA@4  00459524     shlwapi:SHLWAPI.dll
 0002:00000528       __imp__PathIsUNCA@4        00459528     shlwapi:SHLWAPI.dll
 0002:0000052c       \177SHLWAPI_NULL_THUNK_DATA 0045952c     shlwapi:SHLWAPI.dll
 0002:00000530       __imp__IntersectRect@12    00459530     user32:USER32.dll
 0002:00000534       __imp__OffsetRect@12       00459534     user32:USER32.dll
 0002:00000538       __imp__CallWindowProcA@20  00459538     user32:USER32.dll
 0002:0000053c       __imp__SetWindowPlacement@8 0045953c     user32:USER32.dll
 0002:00000540       __imp__RegisterClassA@4    00459540     user32:USER32.dll
 0002:00000544       __imp__GetClassInfoA@12    00459544     user32:USER32.dll
 0002:00000548       __imp__SetScrollInfo@16    00459548     user32:USER32.dll
 0002:0000054c       __imp__GetScrollInfo@12    0045954c     user32:USER32.dll
 0002:00000550       __imp__DeferWindowPos@32   00459550     user32:USER32.dll
 0002:00000554       __imp__EqualRect@8         00459554     user32:USER32.dll
 0002:00000558       __imp__ScreenToClient@8    00459558     user32:USER32.dll
 0002:0000055c       __imp__AdjustWindowRectEx@16 0045955c     user32:USER32.dll
 0002:00000560       __imp__PostMessageA@16     00459560     user32:USER32.dll
 0002:00000564       __imp__GetMenu@4           00459564     user32:USER32.dll
 0002:00000568       __imp__GetClientRect@8     00459568     user32:USER32.dll
 0002:0000056c       __imp__ShowScrollBar@12    0045956c     user32:USER32.dll
 0002:00000570       __imp__SetForegroundWindow@4 00459570     user32:USER32.dll
 0002:00000574       __imp__GetScrollRange@16   00459574     user32:USER32.dll
 0002:00000578       __imp__SetScrollRange@20   00459578     user32:USER32.dll
 0002:0000057c       __imp__TrackPopupMenu@28   0045957c     user32:USER32.dll
 0002:00000580       __imp__TrackPopupMenuEx@24 00459580     user32:USER32.dll
 0002:00000584       __imp__ScrollWindow@20     00459584     user32:USER32.dll
 0002:00000588       __imp__MapWindowPoints@16  00459588     user32:USER32.dll
 0002:0000058c       __imp__GetMessagePos@0     0045958c     user32:USER32.dll
 0002:00000590       __imp__GetMessageTime@0    00459590     user32:USER32.dll
 0002:00000594       __imp__GetTopWindow@4      00459594     user32:USER32.dll
 0002:00000598       __imp__EndDeferWindowPos@4 00459598     user32:USER32.dll
 0002:0000059c       __imp__BeginDeferWindowPos@4 0045959c     user32:USER32.dll
 0002:000005a0       __imp__SetActiveWindow@4   004595a0     user32:USER32.dll
 0002:000005a4       __imp__GetForegroundWindow@0 004595a4     user32:USER32.dll
 0002:000005a8       __imp__IsChild@8           004595a8     user32:USER32.dll
 0002:000005ac       __imp__IsWindow@4          004595ac     user32:USER32.dll
 0002:000005b0       __imp__RemovePropA@8       004595b0     user32:USER32.dll
 0002:000005b4       __imp__GetPropA@8          004595b4     user32:USER32.dll
 0002:000005b8       __imp__SetPropA@12         004595b8     user32:USER32.dll
 0002:000005bc       __imp__GetClassInfoExA@12  004595bc     user32:USER32.dll
 0002:000005c0       __imp__GetClassLongA@8     004595c0     user32:USER32.dll
 0002:000005c4       __imp__GetCapture@0        004595c4     user32:USER32.dll
 0002:000005c8       __imp__WinHelpA@16         004595c8     user32:USER32.dll
 0002:000005cc       __imp__RegisterWindowMessageA@4 004595cc     user32:USER32.dll
 0002:000005d0       __imp__FillRect@12         004595d0     user32:USER32.dll
 0002:000005d4       __imp__TabbedTextOutA@32   004595d4     user32:USER32.dll
 0002:000005d8       __imp__DrawTextA@20        004595d8     user32:USER32.dll
 0002:000005dc       __imp__DrawTextExA@24      004595dc     user32:USER32.dll
 0002:000005e0       __imp__GrayStringA@36      004595e0     user32:USER32.dll
 0002:000005e4       __imp__GetWindowDC@4       004595e4     user32:USER32.dll
 0002:000005e8       __imp__InflateRect@12      004595e8     user32:USER32.dll
 0002:000005ec       __imp__LoadBitmapA@8       004595ec     user32:USER32.dll
 0002:000005f0       __imp__DestroyMenu@4       004595f0     user32:USER32.dll
 0002:000005f4       __imp__SetCursor@4         004595f4     user32:USER32.dll
 0002:000005f8       __imp__ShowOwnedPopups@8   004595f8     user32:USER32.dll
 0002:000005fc       __imp__DeleteMenu@12       004595fc     user32:USER32.dll
 0002:00000600       __imp__DestroyIcon@4       00459600     user32:USER32.dll
 0002:00000604       __imp__EndDialog@8         00459604     user32:USER32.dll
 0002:00000608       __imp__GetNextDlgTabItem@12 00459608     user32:USER32.dll
 0002:0000060c       __imp__CreateDialogIndirectParamA@20 0045960c     user32:USER32.dll
 0002:00000610       __imp__GetDialogBaseUnits@0 00459610     user32:USER32.dll
 0002:00000614       __imp__GetSysColorBrush@4  00459614     user32:USER32.dll
 0002:00000618       __imp__UnregisterClassA@8  00459618     user32:USER32.dll
 0002:0000061c       __imp__GetMenuState@12     0045961c     user32:USER32.dll
 0002:00000620       __imp__GetMenuStringA@20   00459620     user32:USER32.dll
 0002:00000624       __imp__AppendMenuA@16      00459624     user32:USER32.dll
 0002:00000628       __imp__GetMenuItemID@8     00459628     user32:USER32.dll
 0002:0000062c       __imp__InsertMenuA@20      0045962c     user32:USER32.dll
 0002:00000630       __imp__GetMenuItemCount@4  00459630     user32:USER32.dll
 0002:00000634       __imp__GetSubMenu@8        00459634     user32:USER32.dll
 0002:00000638       __imp__RemoveMenu@12       00459638     user32:USER32.dll
 0002:0000063c       __imp__ScrollWindowEx@32   0045963c     user32:USER32.dll
 0002:00000640       __imp__MoveWindow@24       00459640     user32:USER32.dll
 0002:00000644       __imp__SetWindowLongA@12   00459644     user32:USER32.dll
 0002:00000648       __imp__SystemParametersInfoA@16 00459648     user32:USER32.dll
 0002:0000064c       __imp__GetMenuCheckMarkDimensions@0 0045964c     user32:USER32.dll
 0002:00000650       __imp__IsIconic@4          00459650     user32:USER32.dll
 0002:00000654       __imp__GetWindowPlacement@8 00459654     user32:USER32.dll
 0002:00000658       __imp__CopyRect@8          00459658     user32:USER32.dll
 0002:0000065c       __imp__SetMenuItemBitmaps@20 0045965c     user32:USER32.dll
 0002:00000660       __imp__ModifyMenuA@20      00459660     user32:USER32.dll
 0002:00000664       __imp__IsDlgButtonChecked@8 00459664     user32:USER32.dll
 0002:00000668       __imp__SetDlgItemTextA@12  00459668     user32:USER32.dll
 0002:0000066c       __imp__SetDlgItemInt@16    0045966c     user32:USER32.dll
 0002:00000670       __imp__SendDlgItemMessageA@20 00459670     user32:USER32.dll
 0002:00000674       __imp__GetDlgItemTextA@16  00459674     user32:USER32.dll
 0002:00000678       __imp__CharNextExA@12      00459678     user32:USER32.dll
 0002:0000067c       __imp__MessageBoxA@16      0045967c     user32:USER32.dll
 0002:00000680       __imp__SetRect@20          00459680     user32:USER32.dll
 0002:00000684       __imp__InvalidateRect@12   00459684     user32:USER32.dll
 0002:00000688       __imp__CharNextA@4         00459688     user32:USER32.dll
 0002:0000068c       __imp__CharUpperW@4        0045968c     user32:USER32.dll
 0002:00000690       __imp__CharUpperA@4        00459690     user32:USER32.dll
 0002:00000694       __imp__CharLowerW@4        00459694     user32:USER32.dll
 0002:00000698       __imp__CharLowerA@4        00459698     user32:USER32.dll
 0002:0000069c       __imp__GetMessageA@16      0045969c     user32:USER32.dll
 0002:000006a0       __imp__TranslateMessage@4  004596a0     user32:USER32.dll
 0002:000006a4       __imp__DispatchMessageA@4  004596a4     user32:USER32.dll
 0002:000006a8       __imp__CreateWindowExA@48  004596a8     user32:USER32.dll
 0002:000006ac       __imp__SetTimer@16         004596ac     user32:USER32.dll
 0002:000006b0       __imp__SetWindowPos@28     004596b0     user32:USER32.dll
 0002:000006b4       __imp__ShowWindow@8        004596b4     user32:USER32.dll
 0002:000006b8       __imp__UpdateWindow@4      004596b8     user32:USER32.dll
 0002:000006bc       __imp__LoadIconA@8         004596bc     user32:USER32.dll
 0002:000006c0       __imp__LoadCursorA@8       004596c0     user32:USER32.dll
 0002:000006c4       __imp__RegisterClassExA@4  004596c4     user32:USER32.dll
 0002:000006c8       __imp__BeginPaint@8        004596c8     user32:USER32.dll
 0002:000006cc       __imp__EndPaint@8          004596cc     user32:USER32.dll
 0002:000006d0       __imp__KillTimer@8         004596d0     user32:USER32.dll
 0002:000006d4       __imp__PostQuitMessage@4   004596d4     user32:USER32.dll
 0002:000006d8       __imp__DefWindowProcA@16   004596d8     user32:USER32.dll
 0002:000006dc       __imp__DestroyWindow@4     004596dc     user32:USER32.dll
 0002:000006e0       __imp__LoadStringA@16      004596e0     user32:USER32.dll
 0002:000006e4       __imp__GetDlgItemInt@16    004596e4     user32:USER32.dll
 0002:000006e8       __imp__GetDlgItem@8        004596e8     user32:USER32.dll
 0002:000006ec       __imp__CheckRadioButton@16 004596ec     user32:USER32.dll
 0002:000006f0       __imp__CheckDlgButton@12   004596f0     user32:USER32.dll
 0002:000006f4       __imp__wsprintfA           004596f4     user32:USER32.dll
 0002:000006f8       __imp__GetScrollPos@8      004596f8     user32:USER32.dll
 0002:000006fc       __imp__SetScrollPos@16     004596fc     user32:USER32.dll
 0002:00000700       __imp__SetFocus@4          00459700     user32:USER32.dll
 0002:00000704       __imp__SetWindowsHookExA@16 00459704     user32:USER32.dll
 0002:00000708       __imp__CallNextHookEx@16   00459708     user32:USER32.dll
 0002:0000070c       __imp__GetActiveWindow@0   0045970c     user32:USER32.dll
 0002:00000710       __imp__IsWindowVisible@4   00459710     user32:USER32.dll
 0002:00000714       __imp__GetKeyState@4       00459714     user32:USER32.dll
 0002:00000718       __imp__PeekMessageA@20     00459718     user32:USER32.dll
 0002:0000071c       __imp__GetCursorPos@4      0045971c     user32:USER32.dll
 0002:00000720       __imp__ValidateRect@8      00459720     user32:USER32.dll
 0002:00000724       __imp__ClientToScreen@8    00459724     user32:USER32.dll
 0002:00000728       __imp__GetWindow@8         00459728     user32:USER32.dll
 0002:0000072c       __imp__GetDlgCtrlID@4      0045972c     user32:USER32.dll
 0002:00000730       __imp__GetWindowRect@8     00459730     user32:USER32.dll
 0002:00000734       __imp__PtInRect@12         00459734     user32:USER32.dll
 0002:00000738       __imp__GetFocus@0          00459738     user32:USER32.dll
 0002:0000073c       __imp__GetDesktopWindow@0  0045973c     user32:USER32.dll
 0002:00000740       __imp__SetWindowTextA@8    00459740     user32:USER32.dll
 0002:00000744       __imp__GetClassNameA@12    00459744     user32:USER32.dll
 0002:00000748       __imp__GetWindowTextLengthA@4 00459748     user32:USER32.dll
 0002:0000074c       __imp__GetWindowTextA@12   0045974c     user32:USER32.dll
 0002:00000750       __imp__SendMessageA@16     00459750     user32:USER32.dll
 0002:00000754       __imp__GetParent@4         00459754     user32:USER32.dll
 0002:00000758       __imp__GetWindowLongA@8    00459758     user32:USER32.dll
 0002:0000075c       __imp__GetLastActivePopup@4 0045975c     user32:USER32.dll
 0002:00000760       __imp__IsWindowEnabled@4   00459760     user32:USER32.dll
 0002:00000764       __imp__EnableWindow@8      00459764     user32:USER32.dll
 0002:00000768       __imp__UnhookWindowsHookEx@4 00459768     user32:USER32.dll
 0002:0000076c       __imp__GetSystemMetrics@4  0045976c     user32:USER32.dll
 0002:00000770       __imp__GetDC@4             00459770     user32:USER32.dll
 0002:00000774       __imp__ReleaseDC@8         00459774     user32:USER32.dll
 0002:00000778       __imp__EnableMenuItem@12   00459778     user32:USER32.dll
 0002:0000077c       __imp__CheckMenuItem@12    0045977c     user32:USER32.dll
 0002:00000780       __imp__IsDialogMessageA@8  00459780     user32:USER32.dll
 0002:00000784       __imp__GetMenuItemInfoA@16 00459784     user32:USER32.dll
 0002:00000788       __imp__GetSysColor@4       00459788     user32:USER32.dll
 0002:0000078c       \177USER32_NULL_THUNK_DATA 0045978c     user32:USER32.dll
 0002:00000790       __imp__GetFileVersionInfoSizeA@8 00459790     VERSION:VERSION.dll
 0002:00000794       __imp__VerQueryValueA@16   00459794     VERSION:VERSION.dll
 0002:00000798       __imp__GetFileVersionInfoA@16 00459798     VERSION:VERSION.dll
 0002:0000079c       \177VERSION_NULL_THUNK_DATA 0045979c     VERSION:VERSION.dll
 0002:000007a0       __imp__timeGetTime@0       004597a0     winmm:WINMM.dll
 0002:000007a4       \177WINMM_NULL_THUNK_DATA  004597a4     winmm:WINMM.dll
 0002:000007a8       __imp__ClosePrinter@4      004597a8     winspool:WINSPOOL.DRV
 0002:000007ac       __imp__OpenPrinterA@12     004597ac     winspool:WINSPOOL.DRV
 0002:000007b0       __imp__DocumentPropertiesA@24 004597b0     winspool:WINSPOOL.DRV
 0002:000007b4       \177WINSPOOL_NULL_THUNK_DATA 004597b4     winspool:WINSPOOL.DRV
 0002:000007b8       __imp__connect@12          004597b8     ws2_32:WS2_32.dll
 0002:000007bc       __imp__gethostbyname@4     004597bc     ws2_32:WS2_32.dll
 0002:000007c0       __imp__inet_addr@4         004597c0     ws2_32:WS2_32.dll
 0002:000007c4       __imp__htons@4             004597c4     ws2_32:WS2_32.dll
 0002:000007c8       __imp__getpeername@12      004597c8     ws2_32:WS2_32.dll
 0002:000007cc       __imp__WSAGetLastError@0   004597cc     ws2_32:WS2_32.dll
 0002:000007d0       __imp__WSACloseEvent@4     004597d0     ws2_32:WS2_32.dll
 0002:000007d4       __imp__WSACreateEvent@0    004597d4     ws2_32:WS2_32.dll
 0002:000007d8       __imp__WSAStartup@8        004597d8     ws2_32:WS2_32.dll
 0002:000007dc       __imp__socket@12           004597dc     ws2_32:WS2_32.dll
 0002:000007e0       __imp__WSACleanup@0        004597e0     ws2_32:WS2_32.dll
 0002:000007e4       __imp__WSAResetEvent@4     004597e4     ws2_32:WS2_32.dll
 0002:000007e8       __imp__WSASetLastError@4   004597e8     ws2_32:WS2_32.dll
 0002:000007ec       __imp__shutdown@8          004597ec     ws2_32:WS2_32.dll
 0002:000007f0       __imp__WSASend@28          004597f0     ws2_32:WS2_32.dll
 0002:000007f4       __imp__closesocket@4       004597f4     ws2_32:WS2_32.dll
 0002:000007f8       __imp__WSARecv@28          004597f8     ws2_32:WS2_32.dll
 0002:000007fc       __imp__gethostname@8       004597fc     ws2_32:WS2_32.dll
 0002:00000800       __imp__WSASocketA@24       00459800     ws2_32:WS2_32.dll
 0002:00000804       __imp__htonl@4             00459804     ws2_32:WS2_32.dll
 0002:00000808       __imp__bind@12             00459808     ws2_32:WS2_32.dll
 0002:0000080c       __imp__ntohs@4             0045980c     ws2_32:WS2_32.dll
 0002:00000810       __imp__WSAEnumNetworkEvents@12 00459810     ws2_32:WS2_32.dll
 0002:00000814       __imp__WSAAccept@20        00459814     ws2_32:WS2_32.dll
 0002:00000818       __imp__WSAEventSelect@12   00459818     ws2_32:WS2_32.dll
 0002:0000081c       __imp__listen@8            0045981c     ws2_32:WS2_32.dll
 0002:00000820       __imp__setsockopt@20       00459820     ws2_32:WS2_32.dll
 0002:00000824       __imp__WSASetEvent@4       00459824     ws2_32:WS2_32.dll
 0002:00000828       __imp__WSAWaitForMultipleEvents@20 00459828     ws2_32:WS2_32.dll
 0002:0000082c       \177WS2_32_NULL_THUNK_DATA 0045982c     ws2_32:WS2_32.dll
 0002:00000830       __imp__GetSaveFileNameA@4  00459830     comdlg32:comdlg32.dll
 0002:00000834       __imp__GetOpenFileNameA@4  00459834     comdlg32:comdlg32.dll
 0002:00000838       __imp__GetFileTitleA@12    00459838     comdlg32:comdlg32.dll
 0002:0000083c       \177comdlg32_NULL_THUNK_DATA 0045983c     comdlg32:comdlg32.dll
 0002:00000840       __imp___CorExeMain@0       00459840     MSCOREE:mscoree.dll
 0002:00000844       \177mscoree_NULL_THUNK_DATA 00459844     MSCOREE:mscoree.dll
 0002:00000848       __imp__CLSIDFromString@8   00459848     ole32:ole32.dll
 0002:0000084c       __imp__SetConvertStg@8     0045984c     ole32:ole32.dll
 0002:00000850       __imp__CoCreateInstance@20 00459850     ole32:ole32.dll
 0002:00000854       __imp__CoDisconnectObject@8 00459854     ole32:ole32.dll
 0002:00000858       __imp__OleDuplicateData@12 00459858     ole32:ole32.dll
 0002:0000085c       __imp__ReleaseStgMedium@4  0045985c     ole32:ole32.dll
 0002:00000860       __imp__CoTaskMemAlloc@4    00459860     ole32:ole32.dll
 0002:00000864       __imp__CreateBindCtx@8     00459864     ole32:ole32.dll
 0002:00000868       __imp__CoTaskMemFree@4     00459868     ole32:ole32.dll
 0002:0000086c       __imp__StringFromGUID2@12  0045986c     ole32:ole32.dll
 0002:00000870       __imp__CoTreatAsClass@8    00459870     ole32:ole32.dll
 0002:00000874       __imp__StringFromCLSID@8   00459874     ole32:ole32.dll
 0002:00000878       __imp__ReadClassStg@8      00459878     ole32:ole32.dll
 0002:0000087c       __imp__ReadFmtUserTypeStg@12 0045987c     ole32:ole32.dll
 0002:00000880       __imp__OleRegGetUserType@12 00459880     ole32:ole32.dll
 0002:00000884       __imp__WriteClassStg@8     00459884     ole32:ole32.dll
 0002:00000888       __imp__WriteFmtUserTypeStg@12 00459888     ole32:ole32.dll
 0002:0000088c       \177ole32_NULL_THUNK_DATA  0045988c     ole32:ole32.dll
 0002:000008ac       ??_C@_0BG@LLHCBFOL@Can?8t?5open?5file?0?5?$CFs?4?6?$AA@ 004598ac     CacheServer.obj
 0002:000008c4       ??_C@_04HOKNCALA@Port?$AA@ 004598c4     CacheServer.obj
 0002:000008cc       ??_C@_04KDEOOPC@Core?$AA@  004598cc     CacheServer.obj
 0002:000008d4       ??_C@_04GHJNJNPO@main?$AA@ 004598d4     CacheServer.obj
 0002:000008dc       ??_C@_0BA@MILPAHIF@CacheServer?4ini?$AA@ 004598dc     CacheServer.obj
 0002:000008ec       ??_C@_02DKCKIIND@?$CFs?$AA@ 004598ec     CacheServer.obj
 0002:000008f0       ??_C@_0BC@FBAMFINP@?$CFY?1?$CFm?1?$CFd?5?$CFH?3?$CFM?3?$CFS?$AA@ 004598f0     CacheServer.obj
 0002:00000904       ??_C@_07NPJJGNLP@SquireD?$AA@ 00459904     CacheServer.obj
 0002:0000090c       ??_C@_0BP@CLKMOBDF@CRTMessenger?4Serialize?3?5?$CFs?$CI?$CFd?$CJ?$AA@ 0045990c     DPCacheSrvr.obj
 0002:0000092c       ??_C@_0DI@EOMAHDPE@CDPCacheSrvr?3?3OnRemoveConnection@ 0045992c     DPCacheSrvr.obj
 0002:00000964       ??_C@_02LEGMIHIM@so?$AA@   00459964     DPCacheSrvr.obj
 0002:00000968       ??_C@_08DMPPIAON@?1?1?$CF04d?1?1?$AA@ 00459968     DPCacheSrvr.obj
 0002:00000974       ??_C@_0BE@JONHPENG@map?1set?$DMT?$DO?5too?5long?$AA@ 00459974     DPCacheSrvr.obj
 0002:00000988       ??_C@_0BM@PAPJHAGI@invalid?5map?1set?$DMT?$DO?5iterator?$AA@ 00459988     DPCacheSrvr.obj
 0002:000009a4       ??_7CDPCacheSrvr@@6B@      004599a4     DPCacheSrvr.obj
 0002:000009b0       ??_7CMclCritSec@@6B@       004599b0     DPClient.obj
 0002:000009b4       ??_7CDPClientArray@@6B@    004599b4     DPClient.obj
 0002:000009b8       ??_C@_0DK@HAKKCLJ@OnQueryDestroyPlayer?5?9?5idPlayer?3@ 004599b8     DPClient.obj
 0002:000009f4       ??_C@_04OCCELDNI@?$CF04d?$AA@ 004599f4     DPClient.obj
 0002:000009fc       ??_7CDPClient@@6B@         004599fc     DPClient.obj
 0002:00000a08       ??_C@_0BJ@HKJKEOAO@destroy?5player?5or?5group?4?$AA@ 00459a08     DPCoreClient.obj
 0002:00000a28       ??_C@_0EP@KJKMHLAA@CDPCoreClient?4OnJoin?3?5server?5not@ 00459a28     DPCoreClient.obj
 0002:00000a78       ??_C@_0CJ@ENOINBAG@CDPCoreClient?3?3OnJoin?5?9?5player?5n@ 00459a78     DPCoreClient.obj
 0002:00000aa4       ??_7CDPCoreClient@@6B@     00459aa4     DPCoreClient.obj
 0002:00000ab0       ??_C@_0BD@OLBABOEK@vector?$DMT?$DO?5too?5long?$AA@ 00459ab0     packetlog.obj
 0002:00000ac4       ??_C@_0BD@NCBNCPIL@?$FLCPacketLog?4Reset?$FN?$AA@ 00459ac4     packetlog.obj
 0002:00000ad8       ??_7CPacketLog@@6B@        00459ad8     packetlog.obj
 0002:00000adc       ??_C@_0CK@CMNPKBJG@?7?7?$CI?$CF3?42f?$CF?$CF?$CJ?7?$CF08X?3?5?$CFd?$CIbytes?$CJ?5?$CFd?$CIp@ 00459adc     packetlog.obj
 0002:00000b08       ??_C@_0CO@LOJNGCDD@?7?$CI?$CF3?42f?$CF?$CF?$CJ?5?$CFd?$CIsocket?$CJ?5?$CFd?$CIbytes?$CJ?5@ 00459b08     packetlog.obj
 0002:00000b38       __real@42c80000            00459b38     packetlog.obj
 0002:00000b3c       __real@4f800000            00459b3c     packetlog.obj
 0002:00000b40       ??_C@_09KLJCJGHB@error?4txt?$AA@ 00459b40     packetlog.obj
 0002:00000b4c       ??_C@_01MCMALHOG@a?$AA@    00459b4c     packetlog.obj
 0002:00000b50       ??_C@_0CO@ONIEHAME@?$AN?6?$AN?6TotalBytesReceived?3?5?$CFd?$CIbytes@ 00459b50     packetlog.obj
 0002:00000b80       ??_7CPlayer@@6B@           00459b80     Player.obj
 0002:00000b84       ??_7CPlayerMng@@6B@        00459b84     Player.obj
 0002:00000b88       ??_7CRTMessenger@@6B@      00459b88     rtmessenger.obj
 0002:00000b90       ?OLE_DATETIME_HALFSECOND@COleDateTimeSpan@ATL@@0NB 00459b90     StdAfx.obj
 0002:00000b98       ?pmField@?$CVarTypeInfo@PATtagCY@@@ATL@@2QQtagVARIANT@@PATtagCY@@Q3@ 00459b98     StdAfx.obj
 0002:00000b9c       ?VT@?$CVarTypeInfo@PATtagCY@@@ATL@@2GB 00459b9c     StdAfx.obj
 0002:00000ba0       ?pmField@?$CVarTypeInfo@TtagCY@@@ATL@@2QQtagVARIANT@@TtagCY@@Q3@ 00459ba0     StdAfx.obj
 0002:00000ba4       ?VT@?$CVarTypeInfo@TtagCY@@@ATL@@2GB 00459ba4     StdAfx.obj
 0002:00000ba8       ?pmField@?$CVarTypeInfo@PAPAUIDispatch@@@ATL@@2QQtagVARIANT@@PAPAUIDispatch@@Q3@ 00459ba8     StdAfx.obj
 0002:00000bac       ?VT@?$CVarTypeInfo@PAPAUIDispatch@@@ATL@@2GB 00459bac     StdAfx.obj
 0002:00000bb0       ?pmField@?$CVarTypeInfo@PAUIDispatch@@@ATL@@2QQtagVARIANT@@PAUIDispatch@@Q3@ 00459bb0     StdAfx.obj
 0002:00000bb4       ?VT@?$CVarTypeInfo@PAUIDispatch@@@ATL@@2GB 00459bb4     StdAfx.obj
 0002:00000bb8       ?pmField@?$CVarTypeInfo@PAPAUIUnknown@@@ATL@@2QQtagVARIANT@@PAPAUIUnknown@@Q3@ 00459bb8     StdAfx.obj
 0002:00000bbc       ?VT@?$CVarTypeInfo@PAPAUIUnknown@@@ATL@@2GB 00459bbc     StdAfx.obj
 0002:00000bc0       ?pmField@?$CVarTypeInfo@PAUIUnknown@@@ATL@@2QQtagVARIANT@@PAUIUnknown@@Q3@ 00459bc0     StdAfx.obj
 0002:00000bc4       ?VT@?$CVarTypeInfo@PAUIUnknown@@@ATL@@2GB 00459bc4     StdAfx.obj
 0002:00000bc8       ?pmField@?$CVarTypeInfo@PAPAG@ATL@@2QQtagVARIANT@@PAPAGQ3@ 00459bc8     StdAfx.obj
 0002:00000bcc       ?VT@?$CVarTypeInfo@PAPAG@ATL@@2GB 00459bcc     StdAfx.obj
 0002:00000bd0       ?pmField@?$CVarTypeInfo@PAG@ATL@@2QQtagVARIANT@@PAGQ3@ 00459bd0     StdAfx.obj
 0002:00000bd4       ?VT@?$CVarTypeInfo@PAG@ATL@@2GB 00459bd4     StdAfx.obj
 0002:00000bd8       ?VT@?$CVarTypeInfo@UtagVARIANT@@@ATL@@2GB 00459bd8     StdAfx.obj
 0002:00000bdc       ?pmField@?$CVarTypeInfo@PAN@ATL@@2QQtagVARIANT@@PANQ3@ 00459bdc     StdAfx.obj
 0002:00000be0       ?VT@?$CVarTypeInfo@PAN@ATL@@2GB 00459be0     StdAfx.obj
 0002:00000be4       ?pmField@?$CVarTypeInfo@N@ATL@@2QQtagVARIANT@@NQ3@ 00459be4     StdAfx.obj
 0002:00000be8       ?VT@?$CVarTypeInfo@N@ATL@@2GB 00459be8     StdAfx.obj
 0002:00000bec       ?pmField@?$CVarTypeInfo@PAM@ATL@@2QQtagVARIANT@@PAMQ3@ 00459bec     StdAfx.obj
 0002:00000bf0       ?VT@?$CVarTypeInfo@PAM@ATL@@2GB 00459bf0     StdAfx.obj
 0002:00000bf4       ?pmField@?$CVarTypeInfo@M@ATL@@2QQtagVARIANT@@MQ3@ 00459bf4     StdAfx.obj
 0002:00000bf8       ?VT@?$CVarTypeInfo@M@ATL@@2GB 00459bf8     StdAfx.obj
 0002:00000bfc       ?pmField@?$CVarTypeInfo@PA_K@ATL@@2QQtagVARIANT@@PA_KQ3@ 00459bfc     StdAfx.obj
 0002:00000c00       ?VT@?$CVarTypeInfo@PA_K@ATL@@2GB 00459c00     StdAfx.obj
 0002:00000c04       ?pmField@?$CVarTypeInfo@_K@ATL@@2QQtagVARIANT@@_KQ3@ 00459c04     StdAfx.obj
 0002:00000c08       ?VT@?$CVarTypeInfo@_K@ATL@@2GB 00459c08     StdAfx.obj
 0002:00000c0c       ?pmField@?$CVarTypeInfo@PA_J@ATL@@2QQtagVARIANT@@PA_JQ3@ 00459c0c     StdAfx.obj
 0002:00000c10       ?VT@?$CVarTypeInfo@PA_J@ATL@@2GB 00459c10     StdAfx.obj
 0002:00000c14       ?pmField@?$CVarTypeInfo@_J@ATL@@2QQtagVARIANT@@_JQ3@ 00459c14     StdAfx.obj
 0002:00000c18       ?VT@?$CVarTypeInfo@_J@ATL@@2GB 00459c18     StdAfx.obj
 0002:00000c1c       ?pmField@?$CVarTypeInfo@PAK@ATL@@2QQtagVARIANT@@PAKQ3@ 00459c1c     StdAfx.obj
 0002:00000c20       ?VT@?$CVarTypeInfo@PAK@ATL@@2GB 00459c20     StdAfx.obj
 0002:00000c24       ?pmField@?$CVarTypeInfo@K@ATL@@2QQtagVARIANT@@KQ3@ 00459c24     StdAfx.obj
 0002:00000c28       ?VT@?$CVarTypeInfo@K@ATL@@2GB 00459c28     StdAfx.obj
 0002:00000c2c       ?pmField@?$CVarTypeInfo@PAJ@ATL@@2QQtagVARIANT@@PAJQ3@ 00459c2c     StdAfx.obj
 0002:00000c30       ?VT@?$CVarTypeInfo@PAJ@ATL@@2GB 00459c30     StdAfx.obj
 0002:00000c34       ?pmField@?$CVarTypeInfo@J@ATL@@2QQtagVARIANT@@JQ3@ 00459c34     StdAfx.obj
 0002:00000c38       ?VT@?$CVarTypeInfo@J@ATL@@2GB 00459c38     StdAfx.obj
 0002:00000c3c       ?pmField@?$CVarTypeInfo@PAI@ATL@@2QQtagVARIANT@@PAIQ3@ 00459c3c     StdAfx.obj
 0002:00000c40       ?VT@?$CVarTypeInfo@PAI@ATL@@2GB 00459c40     StdAfx.obj
 0002:00000c44       ?pmField@?$CVarTypeInfo@I@ATL@@2QQtagVARIANT@@IQ3@ 00459c44     StdAfx.obj
 0002:00000c48       ?VT@?$CVarTypeInfo@I@ATL@@2GB 00459c48     StdAfx.obj
 0002:00000c4c       ?pmField@?$CVarTypeInfo@PAH@ATL@@2QQtagVARIANT@@PAHQ3@ 00459c4c     StdAfx.obj
 0002:00000c50       ?VT@?$CVarTypeInfo@PAH@ATL@@2GB 00459c50     StdAfx.obj
 0002:00000c54       ?pmField@?$CVarTypeInfo@H@ATL@@2QQtagVARIANT@@HQ3@ 00459c54     StdAfx.obj
 0002:00000c58       ?VT@?$CVarTypeInfo@H@ATL@@2GB 00459c58     StdAfx.obj
 0002:00000c5c       ?pmField@?$CVarTypeInfo@G@ATL@@2QQtagVARIANT@@GQ3@ 00459c5c     StdAfx.obj
 0002:00000c60       ?VT@?$CVarTypeInfo@G@ATL@@2GB 00459c60     StdAfx.obj
 0002:00000c64       ?pmField@?$CVarTypeInfo@PAF@ATL@@2QQtagVARIANT@@PAFQ3@ 00459c64     StdAfx.obj
 0002:00000c68       ?VT@?$CVarTypeInfo@PAF@ATL@@2GB 00459c68     StdAfx.obj
 0002:00000c6c       ?pmField@?$CVarTypeInfo@F@ATL@@2QQtagVARIANT@@FQ3@ 00459c6c     StdAfx.obj
 0002:00000c70       ?VT@?$CVarTypeInfo@F@ATL@@2GB 00459c70     StdAfx.obj
 0002:00000c74       ?pmField@?$CVarTypeInfo@PAE@ATL@@2QQtagVARIANT@@PAEQ3@ 00459c74     StdAfx.obj
 0002:00000c78       ?VT@?$CVarTypeInfo@PAE@ATL@@2GB 00459c78     StdAfx.obj
 0002:00000c7c       ?pmField@?$CVarTypeInfo@PAD@ATL@@2QQtagVARIANT@@PADQ3@ 00459c7c     StdAfx.obj
 0002:00000c80       ?VT@?$CVarTypeInfo@PAD@ATL@@2GB 00459c80     StdAfx.obj
 0002:00000c84       ?pmField@?$CVarTypeInfo@E@ATL@@2QQtagVARIANT@@EQ3@ 00459c84     StdAfx.obj
 0002:00000c88       ?VT@?$CVarTypeInfo@E@ATL@@2GB 00459c88     StdAfx.obj
 0002:00000c8c       ?pmField@?$CVarTypeInfo@D@ATL@@2QQtagVARIANT@@DQ3@ 00459c8c     StdAfx.obj
 0002:00000c90       ?VT@?$CVarTypeInfo@D@ATL@@2GB 00459c90     StdAfx.obj
 0002:00000c94       ?end@?$_Iosb@H@std@@2W4_Seekdir@12@B 00459c94     StdAfx.obj
 0002:00000c98       ?cur@?$_Iosb@H@std@@2W4_Seekdir@12@B 00459c98     StdAfx.obj
 0002:00000c9c       ?beg@?$_Iosb@H@std@@2W4_Seekdir@12@B 00459c9c     StdAfx.obj
 0002:00000ca0       ?binary@?$_Iosb@H@std@@2W4_Openmode@12@B 00459ca0     StdAfx.obj
 0002:00000ca4       ?_Noreplace@?$_Iosb@H@std@@2W4_Openmode@12@B 00459ca4     StdAfx.obj
 0002:00000ca8       ?_Nocreate@?$_Iosb@H@std@@2W4_Openmode@12@B 00459ca8     StdAfx.obj
 0002:00000cac       ?trunc@?$_Iosb@H@std@@2W4_Openmode@12@B 00459cac     StdAfx.obj
 0002:00000cb0       ?app@?$_Iosb@H@std@@2W4_Openmode@12@B 00459cb0     StdAfx.obj
 0002:00000cb4       ?ate@?$_Iosb@H@std@@2W4_Openmode@12@B 00459cb4     StdAfx.obj
 0002:00000cb8       ?out@?$_Iosb@H@std@@2W4_Openmode@12@B 00459cb8     StdAfx.obj
 0002:00000cbc       ?in@?$_Iosb@H@std@@2W4_Openmode@12@B 00459cbc     StdAfx.obj
 0002:00000cc0       ?_Hardfail@?$_Iosb@H@std@@2W4_Iostate@12@B 00459cc0     StdAfx.obj
 0002:00000cc4       ?badbit@?$_Iosb@H@std@@2W4_Iostate@12@B 00459cc4     StdAfx.obj
 0002:00000cc8       ?failbit@?$_Iosb@H@std@@2W4_Iostate@12@B 00459cc8     StdAfx.obj
 0002:00000ccc       ?eofbit@?$_Iosb@H@std@@2W4_Iostate@12@B 00459ccc     StdAfx.obj
 0002:00000cd0       ?goodbit@?$_Iosb@H@std@@2W4_Iostate@12@B 00459cd0     StdAfx.obj
 0002:00000cd4       ?floatfield@?$_Iosb@H@std@@2W4_Fmtflags@12@B 00459cd4     StdAfx.obj
 0002:00000cd8       ?basefield@?$_Iosb@H@std@@2W4_Fmtflags@12@B 00459cd8     StdAfx.obj
 0002:00000cdc       ?adjustfield@?$_Iosb@H@std@@2W4_Fmtflags@12@B 00459cdc     StdAfx.obj
 0002:00000ce0       ?_Stdio@?$_Iosb@H@std@@2W4_Fmtflags@12@B 00459ce0     StdAfx.obj
 0002:00000ce4       ?boolalpha@?$_Iosb@H@std@@2W4_Fmtflags@12@B 00459ce4     StdAfx.obj
 0002:00000ce8       ?fixed@?$_Iosb@H@std@@2W4_Fmtflags@12@B 00459ce8     StdAfx.obj
 0002:00000cec       ?scientific@?$_Iosb@H@std@@2W4_Fmtflags@12@B 00459cec     StdAfx.obj
 0002:00000cf0       ?hex@?$_Iosb@H@std@@2W4_Fmtflags@12@B 00459cf0     StdAfx.obj
 0002:00000cf4       ?oct@?$_Iosb@H@std@@2W4_Fmtflags@12@B 00459cf4     StdAfx.obj
 0002:00000cf8       ?dec@?$_Iosb@H@std@@2W4_Fmtflags@12@B 00459cf8     StdAfx.obj
 0002:00000cfc       ?internal@?$_Iosb@H@std@@2W4_Fmtflags@12@B 00459cfc     StdAfx.obj
 0002:00000d00       ?right@?$_Iosb@H@std@@2W4_Fmtflags@12@B 00459d00     StdAfx.obj
 0002:00000d04       ?left@?$_Iosb@H@std@@2W4_Fmtflags@12@B 00459d04     StdAfx.obj
 0002:00000d08       ?showpos@?$_Iosb@H@std@@2W4_Fmtflags@12@B 00459d08     StdAfx.obj
 0002:00000d0c       ?showpoint@?$_Iosb@H@std@@2W4_Fmtflags@12@B 00459d0c     StdAfx.obj
 0002:00000d10       ?showbase@?$_Iosb@H@std@@2W4_Fmtflags@12@B 00459d10     StdAfx.obj
 0002:00000d14       ?uppercase@?$_Iosb@H@std@@2W4_Fmtflags@12@B 00459d14     StdAfx.obj
 0002:00000d18       ?unitbuf@?$_Iosb@H@std@@2W4_Fmtflags@12@B 00459d18     StdAfx.obj
 0002:00000d1c       ?skipws@?$_Iosb@H@std@@2W4_Fmtflags@12@B 00459d1c     StdAfx.obj
 0002:00000d20       ?none@?$_Locbase@H@std@@2HB 00459d20     StdAfx.obj
 0002:00000d24       ?all@?$_Locbase@H@std@@2HB 00459d24     StdAfx.obj
 0002:00000d28       ?messages@?$_Locbase@H@std@@2HB 00459d28     StdAfx.obj
 0002:00000d2c       ?time@?$_Locbase@H@std@@2HB 00459d2c     StdAfx.obj
 0002:00000d30       ?numeric@?$_Locbase@H@std@@2HB 00459d30     StdAfx.obj
 0002:00000d34       ?monetary@?$_Locbase@H@std@@2HB 00459d34     StdAfx.obj
 0002:00000d38       ?ctype@?$_Locbase@H@std@@2HB 00459d38     StdAfx.obj
 0002:00000d3c       ?collate@?$_Locbase@H@std@@2HB 00459d3c     StdAfx.obj
 0002:00000d40       ?szInvalidDateTimeSpan@ATL@@3QBDB 00459d40     StdAfx.obj
 0002:00000d44       ??_C@_0BF@GPPHKJFN@Invalid?5DateTimeSpan?$AA@ 00459d44     StdAfx.obj
 0002:00000d5c       ?szInvalidDateTime@ATL@@3QBDB 00459d5c     StdAfx.obj
 0002:00000d60       ??_C@_0BB@KEKMKJPM@Invalid?5DateTime?$AA@ 00459d60     StdAfx.obj
 0002:00000d78       ?Week@CFileTime@ATL@@2_KB  00459d78     StdAfx.obj
 0002:00000d80       ?Day@CFileTime@ATL@@2_KB   00459d80     StdAfx.obj
 0002:00000d88       ?Hour@CFileTime@ATL@@2_KB  00459d88     StdAfx.obj
 0002:00000d90       ?Minute@CFileTime@ATL@@2_KB 00459d90     StdAfx.obj
 0002:00000d98       ?Second@CFileTime@ATL@@2_KB 00459d98     StdAfx.obj
 0002:00000da0       ?Millisecond@CFileTime@ATL@@2_KB 00459da0     StdAfx.obj
 0002:00000da8       ?c_bIsMFCDLLTraits@?$_MFCDLLTraitsCheck@DV?$StrTraitMFC@DV?$ChTraitsCRT@D@ATL@@@@@_CSTRING_IMPL_@ATL@@2_NB 00459da8     StdAfx.obj
 0002:00000dc0       ?m_tab@CRC32@@0QBIB        00459dc0     crc.obj
 0002:000011c0       ??_7CBuffer@@6B@           0045a1c0     buffer.obj
 0002:000011cc       ??_7CBuffer2@@6B@          0045a1cc     buffer.obj
 0002:000011d8       ??_7CBufferQueue@@6B@      0045a1d8     buffer.obj
 0002:000011dc       ??_C@_0BB@MOGOBHAF@list?$DMT?$DO?5too?5long?$AA@ 0045a1dc     buffer.obj
 0002:000011f0       ??_C@_09PKKCPLIP@bad?5alloc?$AA@ 0045a1f0     buffer.obj
 0002:000011fc       ??_C@_0M@PCENNPGA@?$CFd?4?$CFd?4?$CFd?4?$CFd?$AA@ 0045a1fc     clientsock.obj
 0002:00001208       ??_C@_0BC@JDKBPDDI@INVALID_SOCKET?1?10?$AA@ 0045a208     clientsock.obj
 0002:0000121c       ??_7CClientSock@@6B@       0045a21c     clientsock.obj
 0002:00001250       ??_C@_0BO@KKMDMHBH@CClientSock?4Fetch?3?5replay?3?5?$CFs?$AA@ 0045a250     clientsock.obj
 0002:00001270       ??_C@_08MFOGBBHP@FETCH?1?12?$AA@ 0045a270     clientsock.obj
 0002:0000127c       ??_C@_0CI@ODKLMECE@CClientSocket?4Fetch?3?5ip?5?$DN?5?$CFs?0?5si@ 0045a27c     clientsock.obj
 0002:000012a4       ??_C@_08PHNAHDPN@FETCH?1?10?$AA@ 0045a2a4     clientsock.obj
 0002:000012b0       ??_7CClientSockE@@6B@      0045a2b0     clientsocke.obj
 0002:000012e4       ??_7CDPMng@@6B@            0045a2e4     dpmng.obj
 0002:000012f0       ??_C@_0O@DBHAFALM@NEWSOCKETMSG2?$AA@ 0045a2f0     dpsock.obj
 0002:00001300       ??_C@_0N@NGAJACCO@NEWSOCKETMSG?$AA@ 0045a300     dpsock.obj
 0002:00001310       ??_7CDPSock@@6B@           0045a310     dpsock.obj
 0002:00001314       ??_7CMapChild@@6B@         0045a314     serversock.obj
 0002:00001318       ??_7CServerSock@@6B@       0045a318     serversock.obj
 0002:0000134c       ??_7CMapChildE@@6B@        0045a34c     serversocke.obj
 0002:00001350       ??_7CServerSockE@@6B@      0045a350     serversocke.obj
 0002:00001384       ??_7CSock@@6B@             0045a384     sock.obj
 0002:000013b8       ??_7CTimer@@6B@            0045a3b8     dos2.obj
 0002:000013c4       ??_7CDos2@@6B@             0045a3c4     dos2.obj
 0002:000013c8       ??_7CHeapMng@@6B@          0045a3c8     heapmng.obj
 0002:000013cc       ??_7CMyTrace@@6B@          0045a3cc     MyTrace.obj
 0002:000013d0       ??_C@_06DJIHEMFI@status?$AA@ 0045a3d0     MyTrace.obj
 0002:000013d8       ??_C@_0KB@FMFNHDFD@________________________________@ 0045a3d8     MyTrace.obj
 0002:0000147c       ??_7CJurisdiction@@6B@     0045a47c     ServerDesc.obj
 0002:00001480       ??_7CServerDesc@@6B@       0045a480     ServerDesc.obj
 0002:00001484       ??_7CServerDescArray@@6B@  0045a484     ServerDesc.obj
 0002:00001488       ??_C@_07JADGJGAE@?2Media?2?$AA@ 0045a488     dxutil.obj
 0002:00001490       ??_C@_0BE@LKAAOJGK@DX9SDK?5Samples?5Path?$AA@ 0045a490     dxutil.obj
 0002:000014a4       ??_C@_0BP@HEGLIIKH@Software?2Microsoft?2DirectX?5SDK?$AA@ 0045a4a4     dxutil.obj
 0002:000014c3       ??_C@_00CNPNBAHC@?$AA@     0045a4c3     dxutil.obj
 0002:000014c8       __real@3fb99999a0000000    0045a4c8     dxutil.obj
 0002:000014d0       __real@3f50624dd2f1a9fc    0045a4d0     dxutil.obj
 0002:000014d8       __real@41f0000000000000    0045a4d8     dxutil.obj
 0002:000014e0       __real@0000000000000000    0045a4e0     dxutil.obj
 0002:000014e8       __real@bf800000            0045a4e8     dxutil.obj
 0002:000014ec       __real@00000000            0045a4ec     dxutil.obj
 0002:000014f0       ??_C@_0BK@MEKHEPPF@Could?5not?5find?5readme?4txt?$AA@ 0045a4f0     dxutil.obj
 0002:0000150c       ??_C@_0BD@NHAEFHIC@DirectX?5SDK?5Sample?$AA@ 0045a50c     dxutil.obj
 0002:00001520       ??_C@_04PMOCAHAA@open?$AA@ 0045a520     dxutil.obj
 0002:00001528       ??_C@_0O@MOHFGHHE@ShellExecuteA?$AA@ 0045a528     dxutil.obj
 0002:00001538       ??_C@_0M@KFDNOLCO@shell32?4dll?$AA@ 0045a538     dxutil.obj
 0002:00001544       ??_C@_0M@KCHKBMF@?2readme?4txt?$AA@ 0045a544     dxutil.obj
 0002:00001550       ??_C@_01KICIPPFI@?2?$AA@   0045a550     dxutil.obj
 0002:00001554       ??_C@_0BF@PHKGEBGA@?$CFs?2C?$CL?$CL?2?$CFs?2readme?4txt?$AA@ 0045a554     dxutil.obj
 0002:0000156c       ??_C@_0CI@FDANOHPD@?$HL?$CF8X?9?$CF4X?9?$CF4X?9?$CF2X?$CF2X?9?$CF2X?$CF2X?$CF2X?$CF2X@ 0045a56c     dxutil.obj
 0002:00001594       ??_C@_0DO@OBIAHMKG@?$HL?$CF0?48X?9?$CF0?44X?9?$CF0?44X?9?$CF0?42X?$CF0?42X?9?$CF0@ 0045a594     dxutil.obj
 0002:000015e8       ??_C@_0M@NLEENBFM@_?$CFd?$CF02d?$CF02d?$AA@ 0045a5e8     debug.obj
 0002:000015f4       ??_C@_03OFAPEBGM@?$CFs?6?$AA@ 0045a5f4     debug.obj
 0002:000015f8       ??_C@_0BL@OPOBLKAC@?$CFd?1?$CF2d?1?$CF2d?5?$CF02d?3?$CF02d?3?$CF02d?6?$AA@ 0045a5f8     debug.obj
 0002:00001614       ??_C@_0BH@PMNGKJFP@?5?$CB?3?$DL?0?$CL?9?$DM?$DO?8?1?$CK?$CF?$FO?$DN?$CI?$CJ?$CG?$HM?$CC?$HL?$HN?$AA@ 0045a614     scanner.obj
 0002:0000162c       ??_7CFileIO@@6B@           0045a62c     scanner.obj
 0002:0000165c       ??_7CScanner@@6B@          0045a65c     scanner.obj
 0002:00001674       ??_C@_0DJ@HNOCKBIP@line?$CI?$CFd?$CJ?5?F?D?$MA?O?5?$CFs?$LP?$KB?$LM?$KN?5?$CC?$CFs?$CC?5?$LN?$LK?F?$KO?$LI?$LF@ 0045a674     scanner.obj
 0002:000016b0       ??_C@_0DN@LFHNMKPA@line?$CI?$CFd?$CJ?5?F?D?$MA?O?5?$CFs?$LP?$KB?$LM?$KN?5?$CC?$CFs?$CC?5?$LN?$LK?F?$KO?$LI?$LF@ 0045a6b0     scanner.obj
 0002:000016f0       ??_C@_0BB@BKECMLNK@?$CL?9?$CK?$FO?1?$CF?$DN?$DL?$CI?$CJ?0?8?3?$HL?$HN?4?$AA@ 0045a6f0     scanner.obj
 0002:00001704       ??_C@_02JDPG@rb?$AA@       0045a704     scanner.obj
 0002:00001708       __real@41bfffffff000000    0045a708     timer.obj
 0002:00001710       __real@41ebffffffa00000    0045a710     timer.obj
 0002:00001718       __real@3fc5555555555555    0045a718     timer.obj
 0002:00001720       __real@4147e53000000000    0045a720     timer.obj
 0002:00001728       ??_7CSkipTimer@@6B@        0045a728     timer.obj
 0002:00001734       __real@38000100            0045a734     xutil.obj
 0002:00001738       ??_C@_0CC@DAGMFPKN@?$CFd?1?$CF2d?1?$CF2d?5?5?5?$CF02d?3?$CF02d?3?$CF02d?5?5?5?$CFs@ 0045a738     xutil.obj
 0002:0000175c       ??_C@_01EEMJAFIK@?6?$AA@   0045a75c     exceptionhandler.obj
 0002:00001760       ??_C@_06OJHGLDPL@?$CInull?$CJ?$AA@ 0045a760     exceptionhandler.obj
 0002:00001768       ??_C@_02PHMGELLB@?6?6?$AA@ 0045a768     exceptionhandler.obj
 0002:0000176c       ??_C@_0BB@OMLDONOD@?6?6?5?9?5Registers?6?6?$AA@ 0045a76c     exceptionhandler.obj
 0002:00001780       ??_C@_0N@CLNKCBPC@rCnt?$DN?$CFd?5?$AN?6?$CFs?$AA@ 0045a780     exceptionhandler.obj
 0002:00001790       ?classCOleException@COleException@@2UCRuntimeClass@@B 0045a790     nafxcw:olemisc.obj
 0002:000017ac       ??_C@_0O@MIBDFLDP@COleException?$AA@ 0045a7ac     nafxcw:olemisc.obj
 0002:000017bc       ??_C@_05GIBEAPNE@CLSID?$AA@ 0045a7bc     nafxcw:olemisc.obj
 0002:000017c8       ??_7COleException@@6B@     0045a7c8     nafxcw:olemisc.obj
 0002:000017dc       ??_C@_07JPHDIPNG@DISPLAY?$AA@ 0045a7dc     nafxcw:olemisc.obj
 0002:000017e4       ?classCInvalidArgException@CInvalidArgException@@2UCRuntimeClass@@B 0045a7e4     nafxcw:except.obj
 0002:00001800       ??_C@_0BF@JDJEAIOB@CInvalidArgException?$AA@ 0045a800     nafxcw:except.obj
 0002:00001818       ?classCNotSupportedException@CNotSupportedException@@2UCRuntimeClass@@B 0045a818     nafxcw:except.obj
 0002:00001834       ??_C@_0BH@EAGMGDLP@CNotSupportedException?$AA@ 0045a834     nafxcw:except.obj
 0002:0000184c       ?classCMemoryException@CMemoryException@@2UCRuntimeClass@@B 0045a84c     nafxcw:except.obj
 0002:00001868       ??_C@_0BB@HMFCKMLN@CMemoryException?$AA@ 0045a868     nafxcw:except.obj
 0002:0000187c       ?classCException@CException@@2UCRuntimeClass@@B 0045a87c     nafxcw:except.obj
 0002:00001898       ??_C@_0L@JGHLGBLN@CException?$AA@ 0045a898     nafxcw:except.obj
 0002:000018a8       ??_7CMemoryException@@6B@  0045a8a8     nafxcw:except.obj
 0002:000018c0       ??_7CNotSupportedException@@6B@ 0045a8c0     nafxcw:except.obj
 0002:000018d8       ??_7CInvalidArgException@@6B@ 0045a8d8     nafxcw:except.obj
 0002:000018ec       ?c_bIsMFCDLLTraits@?$_MFCDLLTraitsCheck@_WV?$StrTraitMFC@_WV?$ChTraitsCRT@_W@ATL@@@@@_CSTRING_IMPL_@ATL@@2_NB 0045a8ec     nafxcw:strcore.obj
 0002:000018f4       ??_7CAfxStringMgr@@6B@     0045a8f4     nafxcw:strcore.obj
 0002:00001908       ?_pfnUninitialized@@3Q6AHI@ZA 0045a908     nafxcw:afxmem.obj
 0002:0000192c       ?classCObject@CObject@@2UCRuntimeClass@@B 0045a92c     nafxcw:objcore.obj
 0002:00001948       ??_C@_07BEAIOPAP@CObject?$AA@ 0045a948     nafxcw:objcore.obj
 0002:00001950       ?cbNeverDelete@CRegParser@ATL@@1HB 0045a950     nafxcw:objcore.obj
 0002:00001954       ?rgszNeverDelete@CRegParser@ATL@@1QBQBDB 0045a954     nafxcw:objcore.obj
 0002:00001984       ??_C@_07KJLOKDKB@TypeLib?$AA@ 0045a984     nafxcw:objcore.obj
 0002:0000198c       ??_C@_08KEKAJNJI@Software?$AA@ 0045a98c     nafxcw:objcore.obj
 0002:00001998       ??_C@_06FDHFNJBJ@SYSTEM?$AA@ 0045a998     nafxcw:objcore.obj
 0002:000019a0       ??_C@_08LOPHEHKG@SECURITY?$AA@ 0045a9a0     nafxcw:objcore.obj
 0002:000019ac       ??_C@_03DDIMFGBA@SAM?$AA@  0045a9ac     nafxcw:objcore.obj
 0002:000019b0       ??_C@_04IHBFOLAC@Mime?$AA@ 0045a9b0     nafxcw:objcore.obj
 0002:000019b8       ??_C@_08PPIOJEA@Hardware?$AA@ 0045a9b8     nafxcw:objcore.obj
 0002:000019c4       ??_C@_09JKPGEJCH@Interface?$AA@ 0045a9c4     nafxcw:objcore.obj
 0002:000019d0       ??_C@_08PICKODJL@FileType?$AA@ 0045a9d0     nafxcw:objcore.obj
 0002:000019dc       ??_C@_0BF@HDDNNDFH@Component?5Categories?$AA@ 0045a9dc     nafxcw:objcore.obj
 0002:000019f4       ??_C@_05PDIKPLII@AppID?$AA@ 0045a9f4     nafxcw:objcore.obj
 0002:000019fc       ?MAX_TYPE@CRegParser@ATL@@1HB 0045a9fc     nafxcw:objcore.obj
 0002:00001a00       ?MAX_VALUE@CRegParser@ATL@@1HB 0045aa00     nafxcw:objcore.obj
 0002:00001a04       ??_C@_06JBKGCNBB@Delete?$AA@ 0045aa04     nafxcw:objcore.obj
 0002:00001a0c       ??_C@_08KAAPDIAN@NoRemove?$AA@ 0045aa0c     nafxcw:objcore.obj
 0002:00001a18       ??_C@_0M@DBGDLGLL@ForceRemove?$AA@ 0045aa18     nafxcw:objcore.obj
 0002:00001a24       ??_C@_03LAIAPFCB@Val?$AA@  0045aa24     nafxcw:objcore.obj
 0002:00001a28       ??_C@_01HMGJMAIH@B?$AA@    0045aa28     nafxcw:objcore.obj
 0002:00001a2c       ??_C@_01CKDDGHAB@D?$AA@    0045aa2c     nafxcw:objcore.obj
 0002:00001a30       ??_C@_01PLPBNMEI@M?$AA@    0045aa30     nafxcw:objcore.obj
 0002:00001a34       ??_C@_01CPLAODJH@S?$AA@    0045aa34     nafxcw:objcore.obj
 0002:00001a38       _CLSID_StdGlobalInterfaceTable 0045aa38     nafxcw:objcore.obj
 0002:00001a48       _IID_IAxWinAmbientDispatchEx 0045aa48     nafxcw:objcore.obj
 0002:00001a58       _IID_IAxWinHostWindowLic   0045aa58     nafxcw:objcore.obj
 0002:00001a68       _IID_IDocHostUIHandlerDispatch 0045aa68     nafxcw:objcore.obj
 0002:00001a78       _IID_IInternalConnection   0045aa78     nafxcw:objcore.obj
 0002:00001a88       _IID_IAxWinAmbientDispatch 0045aa88     nafxcw:objcore.obj
 0002:00001a98       _IID_IAxWinHostWindow      0045aa98     nafxcw:objcore.obj
 0002:00001aa8       _IID_IRegistrar            0045aaa8     nafxcw:objcore.obj
 0002:00001ab8       _CLSID_Registrar           0045aab8     nafxcw:objcore.obj
 0002:00001ac8       _LIBID_ATLLib              0045aac8     nafxcw:objcore.obj
 0002:00001ad8       ?pmField@?$CVarTypeInfo@PAPA_W@ATL@@2QQtagVARIANT@@PAPA_WQ3@ 0045aad8     nafxcw:objcore.obj
 0002:00001adc       ?VT@?$CVarTypeInfo@PAPA_W@ATL@@2GB 0045aadc     nafxcw:objcore.obj
 0002:00001ae0       ?pmField@?$CVarTypeInfo@PA_W@ATL@@2QQtagVARIANT@@PA_WQ3@ 0045aae0     nafxcw:objcore.obj
 0002:00001ae4       ?VT@?$CVarTypeInfo@PA_W@ATL@@2GB 0045aae4     nafxcw:objcore.obj
 0002:00001af8       ??_7CInnerUnknown@@6B@     0045aaf8     nafxcw:oleunk.obj
 0002:00001b08       ??_7_AFX_THREAD_STATE@@6B@ 0045ab08     nafxcw:afxstate.obj
 0002:00001b10       ??_7AFX_MODULE_STATE@@6B@  0045ab10     nafxcw:afxstate.obj
 0002:00001b18       ??_7AFX_MODULE_THREAD_STATE@@6B@ 0045ab18     nafxcw:afxstate.obj
 0002:00001b20       ??_7_AFX_BASE_MODULE_STATE@@6B@ 0045ab20     nafxcw:afxstate.obj
 0002:00001b28       ??_7CThreadData@@6B@       0045ab28     nafxcw:afxtls.obj
 0002:00001b30       __real@3fb0000000000000    0045ab30     nafxcw:olevar.obj
 0002:00001b38       __real@3d800000            0045ab38     nafxcw:olevar.obj
 0002:00001b40       __real@bff0000000000000    0045ab40     nafxcw:olevar.obj
 0002:00001b48       ?classCArchiveException@CArchiveException@@2UCRuntimeClass@@B 0045ab48     nafxcw:arcex.obj
 0002:00001b64       ??_C@_0BC@IIDFIFGA@CArchiveException?$AA@ 0045ab64     nafxcw:arcex.obj
 0002:00001b7c       ??_7CArchiveException@@6B@ 0045ab7c     nafxcw:arcex.obj
 0002:00001b90       ??_C@_08PEKOMHKE@combobox?$AA@ 0045ab90     nafxcw:winutil.obj
 0002:00001b9c       ?classCMapPtrToPtr@CMapPtrToPtr@@2UCRuntimeClass@@B 0045ab9c     nafxcw:map_pp.obj
 0002:00001bb8       ??_C@_0N@BBCNFPFP@CMapPtrToPtr?$AA@ 0045abb8     nafxcw:map_pp.obj
 0002:00001bcc       ??_7CMapPtrToPtr@@6B@      0045abcc     nafxcw:map_pp.obj
 0002:00001bd8       ?classCPtrList@CPtrList@@2UCRuntimeClass@@B 0045abd8     nafxcw:list_p.obj
 0002:00001bf4       ??_C@_08DDMLBIJN@CPtrList?$AA@ 0045abf4     nafxcw:list_p.obj
 0002:00001c04       ??_7CPtrList@@6B@          0045ac04     nafxcw:list_p.obj
 0002:00001c10       ?classCWinThread@CWinThread@@2UCRuntimeClass@@B 0045ac10     nafxcw:thrdcore.obj
 0002:00001c2c       ??_C@_0L@EBOINCAD@CWinThread?$AA@ 0045ac2c     nafxcw:thrdcore.obj
 0002:00001c3c       ??_7CWinThread@@6B@        0045ac3c     nafxcw:thrdcore.obj
 0002:00001cb8       ??_C@_0L@NNMBAOBP@CByteArray?$AA@ 0045acb8     nafxcw:array_b.obj
 0002:00001cc8       ??_7CByteArray@@6B@        0045acc8     nafxcw:array_b.obj
 0002:00001cd8       ??_7CArchiveStream@@6B@    0045acd8     nafxcw:arcstrm.obj
 0002:00001d10       ??_C@_02GMHACPFF@?$CFu?$AA@ 0045ad10     nafxcw:dlgdata.obj
 0002:00001d14       ??_C@_03OACELNE@?$CFhd?$AA@ 0045ad14     nafxcw:dlgdata.obj
 0002:00001d18       ??_C@_02DPKJAMEF@?$CFd?$AA@ 0045ad18     nafxcw:dlgdata.obj
 0002:00001d1c       ??_C@_03JALODAI@?$CFld?$AA@ 0045ad1c     nafxcw:dlgdata.obj
 0002:00001d20       ??_C@_03FKNCMABI@?$CFlu?$AA@ 0045ad20     nafxcw:dlgdata.obj
 0002:00001d24       ??_C@_05LLAMLEHD@?$CFI64d?$AA@ 0045ad24     nafxcw:dlgdata.obj
 0002:00001d2c       ??_C@_05OINFJHGD@?$CFI64u?$AA@ 0045ad2c     nafxcw:dlgdata.obj
 0002:00001d34       ?classCCmdTarget@CCmdTarget@@2UCRuntimeClass@@B 0045ad34     nafxcw:cmdtarg.obj
 0002:00001d50       ??_C@_0L@GDEMJNJL@CCmdTarget?$AA@ 0045ad50     nafxcw:cmdtarg.obj
 0002:00001d5c       ?_afxDot@@3QBEB            0045ad5c     nafxcw:cmdtarg.obj
 0002:00001d64       ?_messageEntries@CCmdTarget@@0QBUAFX_MSGMAP_ENTRY@@B 0045ad64     nafxcw:cmdtarg.obj
 0002:00001d7c       ?messageMap@CCmdTarget@@1UAFX_MSGMAP@@B 0045ad7c     nafxcw:cmdtarg.obj
 0002:00001d84       ?_dispatchEntries@CCmdTarget@@0QBUAFX_DISPMAP_ENTRY@@B 0045ad84     nafxcw:cmdtarg.obj
 0002:00001da4       ?dispatchMap@CCmdTarget@@1UAFX_DISPMAP@@B 0045ada4     nafxcw:cmdtarg.obj
 0002:00001db4       ?_eventsinkEntries@CCmdTarget@@0QBUAFX_EVENTSINKMAP_ENTRY@@B 0045adb4     nafxcw:cmdtarg.obj
 0002:00001ddc       ?eventsinkMap@CCmdTarget@@1UAFX_EVENTSINKMAP@@B 0045addc     nafxcw:cmdtarg.obj
 0002:00001de8       ?_interfaceEntries@CCmdTarget@@0QBUAFX_INTERFACEMAP_ENTRY@@B 0045ade8     nafxcw:cmdtarg.obj
 0002:00001df8       ?interfaceMap@CCmdTarget@@1UAFX_INTERFACEMAP@@B 0045adf8     nafxcw:cmdtarg.obj
 0002:00001e00       ?_connectionEntries@CCmdTarget@@0QBUAFX_CONNECTIONMAP_ENTRY@@B 0045ae00     nafxcw:cmdtarg.obj
 0002:00001e08       ?connectionMap@CCmdTarget@@1UAFX_CONNECTIONMAP@@B 0045ae08     nafxcw:cmdtarg.obj
 0002:00001e10       ?_commandEntries@CCmdTarget@@0QBUAFX_OLECMDMAP_ENTRY@@B 0045ae10     nafxcw:cmdtarg.obj
 0002:00001e1c       ?commandMap@CCmdTarget@@1UAFX_OLECMDMAP@@B 0045ae1c     nafxcw:cmdtarg.obj
 0002:00001e28       ??_7CCmdUI@@6B@            0045ae28     nafxcw:cmdtarg.obj
 0002:00001e3c       ??_7CHandleMap@@6B@        0045ae3c     nafxcw:winhand.obj
 0002:00001e40       ?classCWnd@CWnd@@2UCRuntimeClass@@B 0045ae40     nafxcw:wincore.obj
 0002:00001e5c       ??_C@_04DDIMFFOJ@CWnd?$AA@ 0045ae5c     nafxcw:wincore.obj
 0002:00001e64       ?interfaceMap@CWnd@@1UAFX_INTERFACEMAP@@B 0045ae64     nafxcw:wincore.obj
 0002:00001e6c       ?_interfaceEntries@CWnd@@0QBUAFX_INTERFACEMAP_ENTRY@@B 0045ae6c     nafxcw:wincore.obj
 0002:00001e74       ?messageMap@CWnd@@1UAFX_MSGMAP@@B 0045ae74     nafxcw:wincore.obj
 0002:00001e80       ?_messageEntries@CWnd@@0QBUAFX_MSGMAP_ENTRY@@B 0045ae80     nafxcw:wincore.obj
 0002:00002150       ?_afxOldWndProc@@3QBDB     0045b150     nafxcw:wincore.obj
 0002:00002164       ?_afxWnd@@3QBDB            0045b164     nafxcw:wincore.obj
 0002:00002170       ?_afxWndControlBar@@3QBDB  0045b170     nafxcw:wincore.obj
 0002:00002184       ?_afxWndMDIFrame@@3QBDB    0045b184     nafxcw:wincore.obj
 0002:00002194       ?_afxWndFrameOrView@@3QBDB 0045b194     nafxcw:wincore.obj
 0002:000021a8       ?_afxWndOleControl@@3QBDB  0045b1a8     nafxcw:wincore.obj
 0002:000021bc       ??_C@_0BE@NPEOLIBM@EnumDisplayDevicesA?$AA@ 0045b1bc     nafxcw:wincore.obj
 0002:000021d0       ??_C@_0BA@KIAMMEPJ@GetMonitorInfoA?$AA@ 0045b1d0     nafxcw:wincore.obj
 0002:000021e0       ??_C@_0BE@OHNDFFJG@EnumDisplayMonitors?$AA@ 0045b1e0     nafxcw:wincore.obj
 0002:000021f4       ??_C@_0BB@DDMDAIAD@MonitorFromPoint?$AA@ 0045b1f4     nafxcw:wincore.obj
 0002:00002208       ??_C@_0BA@DPLKJPEB@MonitorFromRect?$AA@ 0045b208     nafxcw:wincore.obj
 0002:00002218       ??_C@_0BC@CHFENAPF@MonitorFromWindow?$AA@ 0045b218     nafxcw:wincore.obj
 0002:0000222c       ??_C@_0BB@BFCABEPI@GetSystemMetrics?$AA@ 0045b22c     nafxcw:wincore.obj
 0002:00002240       ??_C@_06KDCOIDGA@USER32?$AA@ 0045b240     nafxcw:wincore.obj
 0002:00002248       ??_C@_1CG@DKEMKFDI@?$AAa?$AAc?$AAc?$AAD?$AAo?$AAD?$AAe?$AAf?$AAa?$AAu?$AAl?$AAt?$AAA?$AAc?$AAt?$AAi?$AAo?$AAn?$AA?$AA@ 0045b248     nafxcw:wincore.obj
 0002:00002270       ??_C@_1BG@JGHKFACA@?$AAa?$AAc?$AAc?$AAH?$AAi?$AAt?$AAT?$AAe?$AAs?$AAt?$AA?$AA@ 0045b270     nafxcw:wincore.obj
 0002:00002288       ??_C@_1BI@NOPLNCPL@?$AAa?$AAc?$AAc?$AAN?$AAa?$AAv?$AAi?$AAg?$AAa?$AAt?$AAe?$AA?$AA@ 0045b288     nafxcw:wincore.obj
 0002:000022a0       ??_C@_1BI@LONMDPCL@?$AAa?$AAc?$AAc?$AAL?$AAo?$AAc?$AAa?$AAt?$AAi?$AAo?$AAn?$AA?$AA@ 0045b2a0     nafxcw:wincore.obj
 0002:000022b8       ??_C@_1BE@HFPLHGCO@?$AAa?$AAc?$AAc?$AAS?$AAe?$AAl?$AAe?$AAc?$AAt?$AA?$AA@ 0045b2b8     nafxcw:wincore.obj
 0002:000022cc       ??_C@_1CC@CJCCELFA@?$AAa?$AAc?$AAc?$AAD?$AAe?$AAf?$AAa?$AAu?$AAl?$AAt?$AAA?$AAc?$AAt?$AAi?$AAo?$AAn?$AA?$AA@ 0045b2cc     nafxcw:wincore.obj
 0002:000022f0       ??_C@_1BK@KFJGMMBL@?$AAa?$AAc?$AAc?$AAS?$AAe?$AAl?$AAe?$AAc?$AAt?$AAi?$AAo?$AAn?$AA?$AA@ 0045b2f0     nafxcw:wincore.obj
 0002:0000230c       ??_C@_1BC@PDPLKEDB@?$AAa?$AAc?$AAc?$AAF?$AAo?$AAc?$AAu?$AAs?$AA?$AA@ 0045b30c     nafxcw:wincore.obj
 0002:00002320       ??_C@_1CI@PLNHFMPJ@?$AAa?$AAc?$AAc?$AAK?$AAe?$AAy?$AAb?$AAo?$AAa?$AAr?$AAd?$AAS?$AAh?$AAo?$AAr?$AAt?$AAc?$AAu?$AAt?$AA?$AA@ 0045b320     nafxcw:wincore.obj
 0002:00002348       ??_C@_1BK@GNALBKBD@?$AAa?$AAc?$AAc?$AAH?$AAe?$AAl?$AAp?$AAT?$AAo?$AAp?$AAi?$AAc?$AA?$AA@ 0045b348     nafxcw:wincore.obj
 0002:00002364       ??_C@_1BA@CKHCDKIA@?$AAa?$AAc?$AAc?$AAH?$AAe?$AAl?$AAp?$AA?$AA@ 0045b364     nafxcw:wincore.obj
 0002:00002374       ??_C@_1BC@EEAFJIFJ@?$AAa?$AAc?$AAc?$AAS?$AAt?$AAa?$AAt?$AAe?$AA?$AA@ 0045b374     nafxcw:wincore.obj
 0002:00002388       ??_C@_1BA@OMPJJAME@?$AAa?$AAc?$AAc?$AAR?$AAo?$AAl?$AAe?$AA?$AA@ 0045b388     nafxcw:wincore.obj
 0002:00002398       ??_C@_1BO@LNDKJAGG@?$AAa?$AAc?$AAc?$AAD?$AAe?$AAs?$AAc?$AAr?$AAi?$AAp?$AAt?$AAi?$AAo?$AAn?$AA?$AA@ 0045b398     nafxcw:wincore.obj
 0002:000023b8       ??_C@_1BC@ENHIGDJB@?$AAa?$AAc?$AAc?$AAV?$AAa?$AAl?$AAu?$AAe?$AA?$AA@ 0045b3b8     nafxcw:wincore.obj
 0002:000023cc       ??_C@_1BA@PLNDADF@?$AAa?$AAc?$AAc?$AAN?$AAa?$AAm?$AAe?$AA?$AA@ 0045b3cc     nafxcw:wincore.obj
 0002:000023dc       ??_C@_1BC@PBFDOIOF@?$AAa?$AAc?$AAc?$AAC?$AAh?$AAi?$AAl?$AAd?$AA?$AA@ 0045b3dc     nafxcw:wincore.obj
 0002:000023f0       ??_C@_1BM@BMIHNMGG@?$AAa?$AAc?$AAc?$AAC?$AAh?$AAi?$AAl?$AAd?$AAC?$AAo?$AAu?$AAn?$AAt?$AA?$AA@ 0045b3f0     nafxcw:wincore.obj
 0002:0000240c       ??_C@_1BE@IPGFMKAP@?$AAa?$AAc?$AAc?$AAP?$AAa?$AAr?$AAe?$AAn?$AAt?$AA?$AA@ 0045b40c     nafxcw:wincore.obj
 0002:00002424       ??_7XAccessible@CWnd@@6B@  0045b424     nafxcw:wincore.obj
 0002:00002498       ??_7XAccessibleServer@CWnd@@6B@ 0045b498     nafxcw:wincore.obj
 0002:000024b4       ??_7CWnd@@6B@              0045b4b4     nafxcw:wincore.obj
 0002:000025e8       ??_7_AFX_HTMLHELP_STATE@@6B@ 0045b5e8     nafxcw:wincore.obj
 0002:000025f0       ??_7CTestCmdUI@@6B@        0045b5f0     nafxcw:wincore.obj
 0002:00002600       __GUID_618736e0_3c3d_11cf_810c_00aa00389b71 0045b600     nafxcw:wincore.obj
 0002:00002610       ??_C@_0BF@IABGBOLM@InitCommonControlsEx?$AA@ 0045b610     nafxcw:wincore.obj
 0002:00002628       ??_C@_0N@BEBEHAMB@COMCTL32?4DLL?$AA@ 0045b628     nafxcw:wincore.obj
 0002:00002638       __GUID_7a7d9dcf_b7a1_4019_9031_258268846980 0045b638     nafxcw:wincore.obj
 0002:00002648       ??_C@_0BD@EOLFNIPD@Afx?3?$CFp?3?$CFx?3?$CFp?3?$CFp?3?$CFp?$AA@ 0045b648     nafxcw:wincore.obj
 0002:0000265c       ??_C@_09NJJHGIHK@Afx?3?$CFp?3?$CFx?$AA@ 0045b65c     nafxcw:wincore.obj
 0002:0000266c       ??_7?$IAccessibleProxyImpl@VCAccessibleProxy@ATL@@@ATL@@6BIAccessibleProxy@@@ 0045b66c     nafxcw:wincore.obj
 0002:00002684       ??_7?$IAccessibleProxyImpl@VCAccessibleProxy@ATL@@@ATL@@6BIAccessible@@@ 0045b684     nafxcw:wincore.obj
 0002:000026f8       ??_7?$CMFCComObject@VCAccessibleProxy@ATL@@@@6B@ 0045b6f8     nafxcw:wincore.obj
 0002:00002710       ??_7?$CMFCComObject@VCAccessibleProxy@ATL@@@@6BIAccessibleProxy@@@ 0045b710     nafxcw:wincore.obj
 0002:00002724       ??_7?$CMFCComObject@VCAccessibleProxy@ATL@@@@6BIAccessible@@@ 0045b724     nafxcw:wincore.obj
 0002:00002798       __GUID_00000114_0000_0000_c000_000000000046 0045b798     nafxcw:wincore.obj
 0002:000027a8       __GUID_00020400_0000_0000_c000_000000000046 0045b7a8     nafxcw:wincore.obj
 0002:000027b8       ?_entries@?1??_GetEntries@CAccessibleProxy@ATL@@SGPBU_ATL_INTMAP_ENTRY@3@XZ@4QBU43@B 0045b7b8     nafxcw:wincore.obj
 0002:000027f4       ??_C@_09EFBFPPGM@HtmlHelpA?$AA@ 0045b7f4     nafxcw:wincore.obj
 0002:00002800       ??_C@_0L@EFKJKBHF@hhctrl?4ocx?$AA@ 0045b800     nafxcw:wincore.obj
 0002:0000280c       ??_C@_06JPEMHIKE@?$CD32768?$AA@ 0045b80c     nafxcw:wincore.obj
 0002:00002814       ??_C@_03MABAFPPL@ime?$AA@  0045b814     nafxcw:wincore.obj
 0002:00002818       ??_C@_0BF@NHDBJBLA@commctrl_DragListMsg?$AA@ 0045b818     nafxcw:wincore.obj
 0002:00002830       ?classCRgn@CRgn@@2UCRuntimeClass@@B 0045b830     nafxcw:wingdi.obj
 0002:0000284c       ??_C@_04PBGMHGNO@CRgn?$AA@ 0045b84c     nafxcw:wingdi.obj
 0002:00002854       ?classCPalette@CPalette@@2UCRuntimeClass@@B 0045b854     nafxcw:wingdi.obj
 0002:00002870       ??_C@_08HMFDPLN@CPalette?$AA@ 0045b870     nafxcw:wingdi.obj
 0002:0000287c       ?classCBitmap@CBitmap@@2UCRuntimeClass@@B 0045b87c     nafxcw:wingdi.obj
 0002:00002898       ??_C@_07GCJEGOGK@CBitmap?$AA@ 0045b898     nafxcw:wingdi.obj
 0002:000028a0       ?classCFont@CFont@@2UCRuntimeClass@@B 0045b8a0     nafxcw:wingdi.obj
 0002:000028bc       ??_C@_05HKBNDGPK@CFont?$AA@ 0045b8bc     nafxcw:wingdi.obj
 0002:000028c4       ?classCBrush@CBrush@@2UCRuntimeClass@@B 0045b8c4     nafxcw:wingdi.obj
 0002:000028e0       ??_C@_06HBIADAKF@CBrush?$AA@ 0045b8e0     nafxcw:wingdi.obj
 0002:000028e8       ?classCPen@CPen@@2UCRuntimeClass@@B 0045b8e8     nafxcw:wingdi.obj
 0002:00002904       ??_C@_04FIOBGKDL@CPen?$AA@ 0045b904     nafxcw:wingdi.obj
 0002:0000290c       ?classCGdiObject@CGdiObject@@2UCRuntimeClass@@B 0045b90c     nafxcw:wingdi.obj
 0002:00002928       ??_C@_0L@EAFIEMIL@CGdiObject?$AA@ 0045b928     nafxcw:wingdi.obj
 0002:00002934       ?classCPaintDC@CPaintDC@@2UCRuntimeClass@@B 0045b934     nafxcw:wingdi.obj
 0002:00002950       ??_C@_08MHGNPJKL@CPaintDC?$AA@ 0045b950     nafxcw:wingdi.obj
 0002:0000295c       ?classCWindowDC@CWindowDC@@2UCRuntimeClass@@B 0045b95c     nafxcw:wingdi.obj
 0002:00002978       ??_C@_09LJMOIHJC@CWindowDC?$AA@ 0045b978     nafxcw:wingdi.obj
 0002:00002984       ?classCClientDC@CClientDC@@2UCRuntimeClass@@B 0045b984     nafxcw:wingdi.obj
 0002:000029a0       ??_C@_09CBCMPBPO@CClientDC?$AA@ 0045b9a0     nafxcw:wingdi.obj
 0002:000029ac       ?classCDC@CDC@@2UCRuntimeClass@@B 0045b9ac     nafxcw:wingdi.obj
 0002:000029c8       ??_C@_03PLNNOOOK@CDC?$AA@  0045b9c8     nafxcw:wingdi.obj
 0002:000029cc       ?classCUserException@CUserException@@2UCRuntimeClass@@B 0045b9cc     nafxcw:wingdi.obj
 0002:000029e8       ??_C@_0P@MCKPIMM@CUserException?$AA@ 0045b9e8     nafxcw:wingdi.obj
 0002:000029f8       ?classCResourceException@CResourceException@@2UCRuntimeClass@@B 0045b9f8     nafxcw:wingdi.obj
 0002:00002a14       ??_C@_0BD@LKICOBNI@CResourceException?$AA@ 0045ba14     nafxcw:wingdi.obj
 0002:00002a28       ??_C@_09JABAGAIB@GetLayout?$AA@ 0045ba28     nafxcw:wingdi.obj
 0002:00002a34       ??_C@_09EKENDDFG@GDI32?4DLL?$AA@ 0045ba34     nafxcw:wingdi.obj
 0002:00002a40       ??_C@_09LOFFEBBD@SetLayout?$AA@ 0045ba40     nafxcw:wingdi.obj
 0002:00002a50       ??_7CResourceException@@6B@ 0045ba50     nafxcw:wingdi.obj
 0002:00002a68       ??_7CUserException@@6B@    0045ba68     nafxcw:wingdi.obj
 0002:00002a80       ??_7CGdiObject@@6B@        0045ba80     nafxcw:wingdi.obj
 0002:00002a94       ??_7CDC@@6B@               0045ba94     nafxcw:wingdi.obj
 0002:00002b14       ??_7CClientDC@@6B@         0045bb14     nafxcw:wingdi.obj
 0002:00002b94       ??_7CWindowDC@@6B@         0045bb94     nafxcw:wingdi.obj
 0002:00002c14       ??_7CPaintDC@@6B@          0045bc14     nafxcw:wingdi.obj
 0002:00002c90       ??_7CBrush@@6B@            0045bc90     nafxcw:wingdi.obj
 0002:00002ca0       ??_7CBitmap@@6B@           0045bca0     nafxcw:wingdi.obj
 0002:00002cb0       ??_7CPen@@6B@              0045bcb0     nafxcw:wingdi.obj
 0002:00002cfc       ?classCMenu@CMenu@@2UCRuntimeClass@@B 0045bcfc     nafxcw:winmenu.obj
 0002:00002d18       ??_C@_05HLGLNGMO@CMenu?$AA@ 0045bd18     nafxcw:winmenu.obj
 0002:00002d24       ??_7CFont@@6B@             0045bd24     nafxcw:winmenu.obj
 0002:00002d34       ??_7CMenu@@6B@             0045bd34     nafxcw:winmenu.obj
 0002:00002d4c       ??_7CChevronOwnerDrawMenu@@6B@ 0045bd4c     nafxcw:winmenu.obj
 0002:00002d60       ?classCWinApp@CWinApp@@2UCRuntimeClass@@B 0045bd60     nafxcw:appcore.obj
 0002:00002d7c       ??_C@_07IKCCILOB@CWinApp?$AA@ 0045bd7c     nafxcw:appcore.obj
 0002:00002d84       ?messageMap@CWinApp@@1UAFX_MSGMAP@@B 0045bd84     nafxcw:appcore.obj
 0002:00002d90       ?_messageEntries@CWinApp@@0QBUAFX_MSGMAP_ENTRY@@B 0045bd90     nafxcw:appcore.obj
 0002:00002df0       ?_afxPreviewEntry@@3QBDB   0045bdf0     nafxcw:appcore.obj
 0002:00002e00       ?_afxPreviewSection@@3QBDB 0045be00     nafxcw:appcore.obj
 0002:00002e0c       ?_afxFileEntry@@3QBDB      0045be0c     nafxcw:appcore.obj
 0002:00002e14       ?_afxFileSection@@3QBDB    0045be14     nafxcw:appcore.obj
 0002:00002e28       ??_C@_03KPOLBBFN@LOC?$AA@  0045be28     nafxcw:appcore.obj
 0002:00002e2c       ??_C@_09FLKFJBLM@ntdll?4dll?$AA@ 0045be2c     nafxcw:appcore.obj
 0002:00002e38       ??_C@_02NJNOFBBI@?$CFx?$AA@ 0045be38     nafxcw:appcore.obj
 0002:00002e3c       ??_C@_0CF@EJNEJPGJ@Control?5Panel?2Desktop?2ResourceLo@ 0045be3c     nafxcw:appcore.obj
 0002:00002e64       ??_C@_0BL@ILHANBAM@GetSystemDefaultUILanguage?$AA@ 0045be64     nafxcw:appcore.obj
 0002:00002e80       ??_C@_0BJ@DKKDGADA@GetUserDefaultUILanguage?$AA@ 0045be80     nafxcw:appcore.obj
 0002:00002e9c       ??_C@_0N@MDJJJHMB@kernel32?4dll?$AA@ 0045be9c     nafxcw:appcore.obj
 0002:00002eac       ??_C@_09KMKHKKMC@NoFileMru?$AA@ 0045beac     nafxcw:appcore.obj
 0002:00002eb8       ??_C@_0N@GNMJFKCB@NoBackButton?$AA@ 0045beb8     nafxcw:appcore.obj
 0002:00002ec8       ??_C@_0M@LIECBDAG@NoPlacesBar?$AA@ 0045bec8     nafxcw:appcore.obj
 0002:00002ed4       ??_C@_0DM@DBCEKDOL@Software?2Microsoft?2Windows?2Curre@ 0045bed4     nafxcw:appcore.obj
 0002:00002f10       ??_C@_0BA@FOHNNHBN@NoEntireNetwork?$AA@ 0045bf10     nafxcw:appcore.obj
 0002:00002f20       ??_C@_0DL@MECMLIJJ@Software?2Microsoft?2Windows?2Curre@ 0045bf20     nafxcw:appcore.obj
 0002:00002f5c       ??_C@_07CDECIAHF@NoClose?$AA@ 0045bf5c     nafxcw:appcore.obj
 0002:00002f64       ??_C@_0BE@BCHLKPOG@NoRecentDocsHistory?$AA@ 0045bf64     nafxcw:appcore.obj
 0002:00002f78       ??_C@_0BH@DOFDNNBH@NoNetConnectDisconnect?$AA@ 0045bf78     nafxcw:appcore.obj
 0002:00002f90       ??_C@_0M@HPPBOEKA@RestrictRun?$AA@ 0045bf90     nafxcw:appcore.obj
 0002:00002f9c       ??_C@_08GALLLFPB@NoDrives?$AA@ 0045bf9c     nafxcw:appcore.obj
 0002:00002fa8       ??_C@_05KIENPOGH@NoRun?$AA@ 0045bfa8     nafxcw:appcore.obj
 0002:00002fb0       ??_C@_0DM@GGDFFNEK@Software?2Microsoft?2Windows?2Curre@ 0045bfb0     nafxcw:appcore.obj
 0002:00002fec       ??_C@_06DAJAKOAL@?$CFs?4dll?$AA@ 0045bfec     nafxcw:appcore.obj
 0002:00002ff4       ??_C@_0L@OMBKCDEG@Automation?$AA@ 0045bff4     nafxcw:appcore.obj
 0002:00003000       ??_C@_09FDIGMGBI@Embedding?$AA@ 0045c000     nafxcw:appcore.obj
 0002:0000300c       ??_C@_03DNKLLMKJ@dde?$AA@  0045c00c     nafxcw:appcore.obj
 0002:00003010       ??_C@_0M@HNMJLFB@Unregserver?$AA@ 0045c010     nafxcw:appcore.obj
 0002:0000301c       ??_C@_0L@HMDBNNKI@Unregister?$AA@ 0045c01c     nafxcw:appcore.obj
 0002:00003028       ??_C@_09HGKEKGLK@Regserver?$AA@ 0045c028     nafxcw:appcore.obj
 0002:00003034       ??_C@_08LFIJLPOM@Register?$AA@ 0045c034     nafxcw:appcore.obj
 0002:00003040       ??_C@_01JBBJJEPG@p?$AA@    0045c040     nafxcw:appcore.obj
 0002:00003044       ??_C@_02BPBMPCEP@pt?$AA@   0045c044     nafxcw:appcore.obj
 0002:0000304c       ??_7CWinApp@@6B@           0045c04c     nafxcw:appcore.obj
 0002:00003108       ??_7CCommandLineInfo@@6B@  0045c108     nafxcw:appcore.obj
 0002:00003118       ?classCPtrArray@CPtrArray@@2UCRuntimeClass@@B 0045c118     nafxcw:array_p.obj
 0002:00003134       ??_C@_09HJIPFFON@CPtrArray?$AA@ 0045c134     nafxcw:array_p.obj
 0002:00003144       ??_7CPtrArray@@6B@         0045c144     nafxcw:array_p.obj
 0002:00003154       ??_7CRgn@@6B@              0045c154     nafxcw:wingdix.obj
 0002:00003160       ??_C@_08CGFBBPDL@software?$AA@ 0045c160     nafxcw:appui3.obj
 0002:0000316c       ??_C@_04LNAHJAOD@?2?4?4?4?$AA@ 0045c16c     nafxcw:filelist.obj
 0002:00003178       ??_7CRecentFileList@@6B@   0045c178     nafxcw:filelist.obj
 0002:00003194       ??_C@_04DKOKMKBE@?$CG?$CFd?5?$AA@ 0045c194     nafxcw:filelist.obj
 0002:0000319c       ??_C@_04JBCKKIAE@1?$CG0?5?$AA@ 0045c19c     nafxcw:filelist.obj
 0002:000031a4       ??_C@_03JDANDILB@?$CFd?5?$AA@ 0045c1a4     nafxcw:filelist.obj
 0002:000031a8       ??_C@_06FHFOAHML@system?$AA@ 0045c1a8     nafxcw:appui2.obj
 0002:000031b0       ??_C@_09OIHOKJLD@Software?2?$AA@ 0045c1b0     nafxcw:appui2.obj
 0002:000031bc       ??_C@_04PKIPNKLG@?4INI?$AA@ 0045c1bc     nafxcw:appinit.obj
 0002:000031c4       ??_C@_04NKLHMAKF@?4HLP?$AA@ 0045c1c4     nafxcw:appinit.obj
 0002:000031cc       ??_C@_04PFNDIDGE@?4CHM?$AA@ 0045c1cc     nafxcw:appinit.obj
 0002:000031d4       ??_C@_0P@IGJNGFKD@NotifyWinEvent?$AA@ 0045c1d4     nafxcw:appinit.obj
 0002:000031e4       ??_C@_0L@GMPLCCII@user32?4dll?$AA@ 0045c1e4     nafxcw:appinit.obj
 0002:000031f0       ?classCFile@CFile@@2UCRuntimeClass@@B 0045c1f0     nafxcw:filecore.obj
 0002:0000320c       ??_C@_05PCLJOFI@CFile?$AA@ 0045c20c     nafxcw:filecore.obj
 0002:00003214       ?hFileNull@CFile@@2QAXA    0045c214     nafxcw:filecore.obj
 0002:00003218       _afxIID_IShellLinkA        0045c218     nafxcw:filecore.obj
 0002:00003228       _afxCLSID_ShellLink        0045c228     nafxcw:filecore.obj
 0002:0000323c       ??_7CFile@@6B@             0045c23c     nafxcw:filecore.obj
 0002:00003294       ??_7CFileException@@6B@    0045c294     nafxcw:filecore.obj
 0002:000032a8       ??_C@_0P@MFAFNMBE@InProcServer32?$AA@ 0045c2a8     nafxcw:filecore.obj
 0002:000032b8       ??_C@_0DD@KLACBBLO@?$HL?$CF08X?9?$CF04X?9?$CF04X?9?$CF02X?$CF02X?9?$CF02X?$CF02@ 0045c2b8     nafxcw:filecore.obj
 0002:000032ec       ??_C@_0BC@JDLGBILA@DllGetClassObject?$AA@ 0045c2ec     nafxcw:filecore.obj
 0002:00003300       ?classCFileException@CFileException@@2UCRuntimeClass@@B 0045c300     nafxcw:filex.obj
 0002:0000331c       ??_C@_0P@ICMFMKFO@CFileException?$AA@ 0045c31c     nafxcw:filex.obj
 0002:0000332c       ?classCDocManager@CDocManager@@2UCRuntimeClass@@B 0045c32c     nafxcw:docmgr.obj
 0002:00003348       ??_C@_0M@BMFFKJNO@CDocManager?$AA@ 0045c348     nafxcw:docmgr.obj
 0002:00003354       ?messageMap@CNewTypeDlg@@1UAFX_MSGMAP@@B 0045c354     nafxcw:docmgr.obj
 0002:0000335c       ?_messageEntries@CNewTypeDlg@@0QBUAFX_MSGMAP_ENTRY@@B 0045c35c     nafxcw:docmgr.obj
 0002:0000338c       ?_afxShellNewValue@@3QBDB  0045c38c     nafxcw:docmgr.obj
 0002:00003390       ?_afxShellNewValueName@@3QBDB 0045c390     nafxcw:docmgr.obj
 0002:0000339c       ?_afxDDEPrintTo@@3QBDB     0045c39c     nafxcw:docmgr.obj
 0002:000033bc       ?_afxDDEPrint@@3QBDB       0045c3bc     nafxcw:docmgr.obj
 0002:000033cc       ?_afxDDEOpen@@3QBDB        0045c3cc     nafxcw:docmgr.obj
 0002:000033dc       ?_afxDDEExec@@3QBDB        0045c3dc     nafxcw:docmgr.obj
 0002:000033e4       ?_afxDDEArg@@3QBDB         0045c3e4     nafxcw:docmgr.obj
 0002:000033ec       ?_afxPrintToArg@@3QBDB     0045c3ec     nafxcw:docmgr.obj
 0002:00003408       ?_afxPrintArg@@3QBDB       0045c408     nafxcw:docmgr.obj
 0002:00003414       ?_afxOpenArg@@3QBDB        0045c414     nafxcw:docmgr.obj
 0002:0000341c       ?_afxCommand@@3QBDB        0045c41c     nafxcw:docmgr.obj
 0002:00003424       ?_afxIconIndexFmt@@3QBDB   0045c424     nafxcw:docmgr.obj
 0002:00003428       ?_afxShellNewFmt@@3QBDB    0045c428     nafxcw:docmgr.obj
 0002:00003434       ?_afxDefaultIconFmt@@3QBDB 0045c434     nafxcw:docmgr.obj
 0002:00003444       ?_afxShellPrintToFmt@@3QBDB 0045c444     nafxcw:docmgr.obj
 0002:00003458       ?_afxShellPrintFmt@@3QBDB  0045c458     nafxcw:docmgr.obj
 0002:0000346c       ?_afxShellOpenFmt@@3QBDB   0045c46c     nafxcw:docmgr.obj
 0002:00003484       ??_7CNewTypeDlg@@6B@       0045c484     nafxcw:docmgr.obj
 0002:000035e4       ??_7CDocManager@@6B@       0045c5e4     nafxcw:docmgr.obj
 0002:00003620       ??_C@_01ICJEACDI@?$DL?$AA@ 0045c620     nafxcw:docmgr.obj
 0002:00003624       ??_C@_03EMIMMIHL@?$CK?4?$CK?$AA@ 0045c624     nafxcw:docmgr.obj
 0002:00003628       ??_C@_03ECGFLOPC@?$CC?0?$CC?$AA@ 0045c628     nafxcw:docmgr.obj
 0002:0000362c       ??_C@_0L@JNJOEJGF@?$FLprintto?$CI?$CC?$AA@ 0045c62c     nafxcw:docmgr.obj
 0002:00003638       ??_C@_08ECBOJFGF@?$FLprint?$CI?$CC?$AA@ 0045c638     nafxcw:docmgr.obj
 0002:00003644       ??_C@_07PPIKNHLO@?$FLopen?$CI?$CC?$AA@ 0045c644     nafxcw:docmgr.obj
 0002:0000364c       ?classCDialog@CDialog@@2UCRuntimeClass@@B 0045c64c     nafxcw:dlgcore.obj
 0002:00003668       ??_C@_07BOOFINFL@CDialog?$AA@ 0045c668     nafxcw:dlgcore.obj
 0002:00003670       ?messageMap@CDialog@@1UAFX_MSGMAP@@B 0045c670     nafxcw:dlgcore.obj
 0002:00003678       ?_messageEntries@CDialog@@0QBUAFX_MSGMAP_ENTRY@@B 0045c678     nafxcw:dlgcore.obj
 0002:0000373c       ??_7CDialog@@6B@           0045c73c     nafxcw:dlgcore.obj
 0002:00003894       ??_C@_04BBNPPDNC@Edit?$AA@ 0045c894     nafxcw:dlgcore.obj
 0002:0000389c       ??_C@_0N@GHCGDJFB@MS?5Shell?5Dlg?$AA@ 0045c89c     nafxcw:dlgcore.obj
 0002:000038ac       ?classCFileDialog@CFileDialog@@2UCRuntimeClass@@B 0045c8ac     nafxcw:dlgfile.obj
 0002:000038c8       ??_C@_0M@NBKOBECK@CFileDialog?$AA@ 0045c8c8     nafxcw:dlgfile.obj
 0002:000038dc       ??_7CFileDialog@@6B@       0045c8dc     nafxcw:dlgfile.obj
 0002:00003a50       ??_C@_0DF@EEPGJILL@ABCDEFGHIJKLMNOPQRSTUVWXYZabcdef@ 0045ca50     nafxcw:dlgtempl.obj
 0002:00003a88       ??_C@_06JIODDOFH@System?$AA@ 0045ca88     nafxcw:dlgtempl.obj
 0002:00003a90       ?messageMap@CCommonDialog@@1UAFX_MSGMAP@@B 0045ca90     nafxcw:dlgcomm.obj
 0002:00003a98       ?_messageEntries@CCommonDialog@@0QBUAFX_MSGMAP_ENTRY@@B 0045ca98     nafxcw:dlgcomm.obj
 0002:00003ae0       ??_C@_0BE@IEIONKOG@commdlg_SetRGBColor?$AA@ 0045cae0     nafxcw:dlgcomm.obj
 0002:00003af4       ??_C@_0N@FIGHHFHB@commdlg_help?$AA@ 0045caf4     nafxcw:dlgcomm.obj
 0002:00003b04       ??_C@_0BA@JPAMGOEO@commdlg_ColorOK?$AA@ 0045cb04     nafxcw:dlgcomm.obj
 0002:00003b14       ??_C@_0BD@BNBCEAFM@commdlg_FileNameOK?$AA@ 0045cb14     nafxcw:dlgcomm.obj
 0002:00003b28       ??_C@_0BH@HGKAGIJK@commdlg_ShareViolation?$AA@ 0045cb28     nafxcw:dlgcomm.obj
 0002:00003b40       ??_C@_0BL@OFBDHBNO@commdlg_LBSelChangedNotify?$AA@ 0045cb40     nafxcw:dlgcomm.obj
 0002:00003b6c       ??_C@_08JCCMCCIL@HH?3mm?3ss?$AA@ 0045cb6c     libcmt:strftime.obj
 0002:00003b78       ??_C@_0BE@CKGJFCPC@dddd?0?5MMMM?5dd?0?5yyyy?$AA@ 0045cb78     libcmt:strftime.obj
 0002:00003b8c       ??_C@_08BPBNCDIB@MM?1dd?1yy?$AA@ 0045cb8c     libcmt:strftime.obj
 0002:00003b98       ??_C@_02CJNFDJBF@PM?$AA@   0045cb98     libcmt:strftime.obj
 0002:00003b9c       ??_C@_02DEDBPAFC@AM?$AA@   0045cb9c     libcmt:strftime.obj
 0002:00003ba0       ??_C@_08EDHMEBNP@December?$AA@ 0045cba0     libcmt:strftime.obj
 0002:00003bac       ??_C@_08HCHEGEOA@November?$AA@ 0045cbac     libcmt:strftime.obj
 0002:00003bb8       ??_C@_07JJNFCEND@October?$AA@ 0045cbb8     libcmt:strftime.obj
 0002:00003bc0       ??_C@_09BHHEALKD@September?$AA@ 0045cbc0     libcmt:strftime.obj
 0002:00003bcc       ??_C@_06LBBHFDDG@August?$AA@ 0045cbcc     libcmt:strftime.obj
 0002:00003bd4       ??_C@_04MIEPOIFP@July?$AA@ 0045cbd4     libcmt:strftime.obj
 0002:00003bdc       ??_C@_04CNLMGBGM@June?$AA@ 0045cbdc     libcmt:strftime.obj
 0002:00003be4       ??_C@_05DMJDNLEJ@April?$AA@ 0045cbe4     libcmt:strftime.obj
 0002:00003bec       ??_C@_05HPCKOFNC@March?$AA@ 0045cbec     libcmt:strftime.obj
 0002:00003bf4       ??_C@_08GNJGEPFN@February?$AA@ 0045cbf4     libcmt:strftime.obj
 0002:00003c00       ??_C@_07CGJPFGJA@January?$AA@ 0045cc00     libcmt:strftime.obj
 0002:00003c08       ??_C@_03MKABNOCG@Dec?$AA@  0045cc08     libcmt:strftime.obj
 0002:00003c0c       ??_C@_03JPJOFNIA@Nov?$AA@  0045cc0c     libcmt:strftime.obj
 0002:00003c10       ??_C@_03BMAOKBAD@Oct?$AA@  0045cc10     libcmt:strftime.obj
 0002:00003c14       ??_C@_03GGCAPAJC@Sep?$AA@  0045cc14     libcmt:strftime.obj
 0002:00003c18       ??_C@_03IFJFEIGA@Aug?$AA@  0045cc18     libcmt:strftime.obj
 0002:00003c1c       ??_C@_03LBGABGKK@Jul?$AA@  0045cc1c     libcmt:strftime.obj
 0002:00003c20       ??_C@_03IDFGHECI@Jun?$AA@  0045cc20     libcmt:strftime.obj
 0002:00003c24       ??_C@_03CNMDKL@May?$AA@    0045cc24     libcmt:strftime.obj
 0002:00003c28       ??_C@_03LEOLGMJP@Apr?$AA@  0045cc28     libcmt:strftime.obj
 0002:00003c2c       ??_C@_03ODNJBKGA@Mar?$AA@  0045cc2c     libcmt:strftime.obj
 0002:00003c30       ??_C@_03HJBDCHOM@Feb?$AA@  0045cc30     libcmt:strftime.obj
 0002:00003c34       ??_C@_03JIHJHPIE@Jan?$AA@  0045cc34     libcmt:strftime.obj
 0002:00003c38       ??_C@_08INBOOONO@Saturday?$AA@ 0045cc38     libcmt:strftime.obj
 0002:00003c44       ??_C@_06JECMNKMI@Friday?$AA@ 0045cc44     libcmt:strftime.obj
 0002:00003c4c       ??_C@_08HACCIKIA@Thursday?$AA@ 0045cc4c     libcmt:strftime.obj
 0002:00003c58       ??_C@_09DLIGFAKA@Wednesday?$AA@ 0045cc58     libcmt:strftime.obj
 0002:00003c64       ??_C@_07BAAGCFCM@Tuesday?$AA@ 0045cc64     libcmt:strftime.obj
 0002:00003c6c       ??_C@_06JLEDEDGH@Monday?$AA@ 0045cc6c     libcmt:strftime.obj
 0002:00003c74       ??_C@_06OOPIFAJ@Sunday?$AA@ 0045cc74     libcmt:strftime.obj
 0002:00003c7c       ??_C@_03FEFJNEK@Sat?$AA@   0045cc7c     libcmt:strftime.obj
 0002:00003c80       ??_C@_03IDIOELNC@Fri?$AA@  0045cc80     libcmt:strftime.obj
 0002:00003c84       ??_C@_03IOFIKPDN@Thu?$AA@  0045cc84     libcmt:strftime.obj
 0002:00003c88       ??_C@_03MHOMLAJA@Wed?$AA@  0045cc88     libcmt:strftime.obj
 0002:00003c8c       ??_C@_03NAGEINEP@Tue?$AA@  0045cc8c     libcmt:strftime.obj
 0002:00003c90       ??_C@_03PDAGKDH@Mon?$AA@   0045cc90     libcmt:strftime.obj
 0002:00003c94       ??_C@_03KOEHGMDN@Sun?$AA@  0045cc94     libcmt:strftime.obj
 0002:00003c98       ??_C@_03EBAPMIKO@a?1p?$AA@ 0045cc98     libcmt:strftime.obj
 0002:00003c9c       ??_C@_05JAMEPDIN@am?1pm?$AA@ 0045cc9c     libcmt:strftime.obj
 0002:00003cd8       ??_7exception@@6B@         0045ccd8     libcmt:stdexcpt.obj
 0002:00003ce0       ??_C@_0BC@EOODALEL@Unknown?5exception?$AA@ 0045cce0     libcmt:stdexcpt.obj
 0002:00003cf8       ??_7bad_cast@@6B@          0045ccf8     libcmt:stdexcpt.obj
 0002:00003d04       ??_7bad_typeid@@6B@        0045cd04     libcmt:stdexcpt.obj
 0002:00003d10       ??_7__non_rtti_object@@6B@ 0045cd10     libcmt:stdexcpt.obj
 0002:00003d1c       ??_7type_info@@6B@         0045cd1c     libcmt:typinfo.obj
 0002:00003ec4       ??_C@_0P@MIGLKIOC@CorExitProcess?$AA@ 0045cec4     libcmt:crt0dat.obj
 0002:00003ed4       ??_C@_0M@MBOPBNBK@mscoree?4dll?$AA@ 0045ced4     libcmt:crt0dat.obj
 0002:00003efc       ??_C@_0CF@GOGNBNAK@Microsoft?5Visual?5C?$CL?$CL?5Runtime?5Lib@ 0045cefc     libcmt:secfail.obj
 0002:00003f24       ??_C@_09KLGCKDOD@Program?3?5?$AA@ 0045cf24     libcmt:secfail.obj
 0002:00003f30       ??_C@_03KHICJKCI@?4?4?4?$AA@ 0045cf30     libcmt:secfail.obj
 0002:00003f34       ??_C@_0BH@DNAGHKFM@?$DMprogram?5name?5unknown?$DO?$AA@ 0045cf34     libcmt:secfail.obj
 0002:00003f50       ??_C@_0KA@JEHFIFGP@A?5buffer?5overrun?5has?5been?5detect@ 0045cf50     libcmt:secfail.obj
 0002:00003ff0       ??_C@_0BJ@MDEKIEOJ@Buffer?5overrun?5detected?$CB?$AA@ 0045cff0     libcmt:secfail.obj
 0002:00004010       ??_C@_0LB@BPLHHLFD@A?5security?5error?5of?5unknown?5caus@ 0045d010     libcmt:secfail.obj
 0002:000040c4       ??_C@_0CD@GMKACBEK@Unknown?5security?5failure?5detecte@ 0045d0c4     libcmt:secfail.obj
 0002:00004278       ??_C@_07LCBHPJJN@LC_TIME?$AA@ 0045d278     libcmt:setlocal.obj
 0002:00004280       ??_C@_0L@DLHIECNL@LC_NUMERIC?$AA@ 0045d280     libcmt:setlocal.obj
 0002:0000428c       ??_C@_0M@MIENIKLA@LC_MONETARY?$AA@ 0045d28c     libcmt:setlocal.obj
 0002:00004298       ??_C@_08EADHIDAD@LC_CTYPE?$AA@ 0045d298     libcmt:setlocal.obj
 0002:000042a4       ??_C@_0L@KFJHEKIK@LC_COLLATE?$AA@ 0045d2a4     libcmt:setlocal.obj
 0002:000042b0       ??_C@_06NEFDFEKB@LC_ALL?$AA@ 0045d2b0     libcmt:setlocal.obj
 0002:000042b8       ??_C@_03EGDHDPFD@_?4?0?$AA@ 0045d2b8     libcmt:setlocal.obj
 0002:000042bc       ??_C@_01LFCBOECM@?4?$AA@   0045d2bc     libcmt:setlocal.obj
 0002:000042c0       ??_C@_01IDAFKMJL@_?$AA@    0045d2c0     libcmt:setlocal.obj
 0002:000042d4       ??_C@_01NEMOKFLO@?$DN?$AA@ 0045d2d4     libcmt:setlocal.obj
 0002:000042d8       ??_C@_02BALPLPBG@?$DN?$DL?$AA@ 0045d2d8     libcmt:setlocal.obj
 0002:00004308       ??_C@_07PEJMOBNF@FlsFree?$AA@ 0045d308     libcmt:tidtable.obj
 0002:00004310       ??_C@_0M@JCPCPOEF@FlsSetValue?$AA@ 0045d310     libcmt:tidtable.obj
 0002:0000431c       ??_C@_0M@GDNOONDI@FlsGetValue?$AA@ 0045d31c     libcmt:tidtable.obj
 0002:00004328       ??_C@_08KNHFBNJ@FlsAlloc?$AA@ 0045d328     libcmt:tidtable.obj
 0002:000043c4       ___dnames                  0045d3c4     libcmt:timeset.obj
 0002:000043dc       ___mnames                  0045d3dc     libcmt:timeset.obj
 0002:00004404       ??_C@_02CLFPBFFP@TZ?$AA@   0045d404     libcmt:tzset.obj
 0002:00004454       ??_C@_05KLBDPFGC@e?$CL000?$AA@ 0045d454     libcmt:cvt.obj
 0002:00004460       __real@3ff0000000000000    0045d460     libcmt:testfdiv.obj
 0002:00004468       __real@4150017ec0000000    0045d468     libcmt:testfdiv.obj
 0002:00004470       __real@4147ffff80000000    0045d470     libcmt:testfdiv.obj
 0002:00004478       ??_C@_0BK@NHEOCAHP@IsProcessorFeaturePresent?$AA@ 0045d478     libcmt:testfdiv.obj
 0002:00004494       ??_C@_08CPNIBGIE@KERNEL32?$AA@ 0045d494     libcmt:testfdiv.obj
 0002:000044b0       ___lookuptable             0045d4b0     libcmt:output.obj
 0002:0000450c       ??_C@_1O@CEDCILHN@?$AA?$CI?$AAn?$AAu?$AAl?$AAl?$AA?$CJ?$AA?$AA@ 0045d50c     libcmt:output.obj
 0002:0000452c       ??_C@_13NOLLCAOD@?$AA?$AA?$AA?$AA@ 0045d52c     libcmt:a_map.obj
 0002:000045c8       ___newctype                0045d5c8     libcmt:ctype.obj
 0002:000048c8       __wctype                   0045d8c8     libcmt:ctype.obj
 0002:00004b14       ??_C@_0P@GGKDKEEG@runtime?5error?5?$AA@ 0045db14     libcmt:crt0msg.obj
 0002:00004b24       ??_C@_02PCIJFNDE@?$AN?6?$AA@ 0045db24     libcmt:crt0msg.obj
 0002:00004b28       ??_C@_0O@MJNIPGOH@TLOSS?5error?$AN?6?$AA@ 0045db28     libcmt:crt0msg.obj
 0002:00004b38       ??_C@_0N@BONNPDHF@SING?5error?$AN?6?$AA@ 0045db38     libcmt:crt0msg.obj
 0002:00004b48       ??_C@_0P@MBDAJNE@DOMAIN?5error?$AN?6?$AA@ 0045db48     libcmt:crt0msg.obj
 0002:00004b58       ??_C@_0KC@BDDGGBEJ@R6029?$AN?6?9?5This?5application?5cannot@ 0045db58     libcmt:crt0msg.obj
 0002:00004bfc       ??_C@_0CF@KJDAIALP@R6028?$AN?6?9?5unable?5to?5initialize?5he@ 0045dbfc     libcmt:crt0msg.obj
 0002:00004c24       ??_C@_0DF@GAKBPDFP@R6027?$AN?6?9?5not?5enough?5space?5for?5lo@ 0045dc24     libcmt:crt0msg.obj
 0002:00004c5c       ??_C@_0DF@IBLNNAIG@R6026?$AN?6?9?5not?5enough?5space?5for?5st@ 0045dc5c     libcmt:crt0msg.obj
 0002:00004c94       ??_C@_0CG@IOHKGFNJ@R6025?$AN?6?9?5pure?5virtual?5function?5c@ 0045dc94     libcmt:crt0msg.obj
 0002:00004cbc       ??_C@_0DF@JIJJFJDC@R6024?$AN?6?9?5not?5enough?5space?5for?5_o@ 0045dcbc     libcmt:crt0msg.obj
 0002:00004cf4       ??_C@_0CJ@EGEJHFME@R6019?$AN?6?9?5unable?5to?5open?5console?5@ 0045dcf4     libcmt:crt0msg.obj
 0002:00004d20       ??_C@_0CB@GNHNIELH@R6018?$AN?6?9?5unexpected?5heap?5error?$AN?6@ 0045dd20     libcmt:crt0msg.obj
 0002:00004d44       ??_C@_0CN@FOLDKNG@R6017?$AN?6?9?5unexpected?5multithread?5@ 0045dd44     libcmt:crt0msg.obj
 0002:00004d74       ??_C@_0CM@FAHFJNHO@R6016?$AN?6?9?5not?5enough?5space?5for?5th@ 0045dd74     libcmt:crt0msg.obj
 0002:00004da0       ??_C@_0JG@LBKMGKLD@?$AN?6This?5application?5has?5requested@ 0045dda0     libcmt:crt0msg.obj
 0002:00004e38       ??_C@_0CM@FLCNIPKK@R6009?$AN?6?9?5not?5enough?5space?5for?5en@ 0045de38     libcmt:crt0msg.obj
 0002:00004e64       ??_C@_0CK@KMMJOAPP@R6008?$AN?6?9?5not?5enough?5space?5for?5ar@ 0045de64     libcmt:crt0msg.obj
 0002:00004e90       ??_C@_0CF@HOHMHDEK@R6002?$AN?6?9?5floating?5point?5not?5load@ 0045de90     libcmt:crt0msg.obj
 0002:00004eb8       ??_C@_0BK@OFGJDLJJ@Runtime?5Error?$CB?6?6Program?3?5?$AA@ 0045deb8     libcmt:crt0msg.obj
 0002:00004ef4       ??_C@_0BI@DFKBFLJE@GetProcessWindowStation?$AA@ 0045def4     libcmt:crtmbox.obj
 0002:00004f0c       ??_C@_0BK@CIDNPOGP@GetUserObjectInformationA?$AA@ 0045df0c     libcmt:crtmbox.obj
 0002:00004f28       ??_C@_0BD@HHGDFDBJ@GetLastActivePopup?$AA@ 0045df28     libcmt:crtmbox.obj
 0002:00004f3c       ??_C@_0BA@HNOPNCHB@GetActiveWindow?$AA@ 0045df3c     libcmt:crtmbox.obj
 0002:00004f4c       ??_C@_0M@CHKKJDAI@MessageBoxA?$AA@ 0045df4c     libcmt:crtmbox.obj
 0002:00004f58       ___rgLocInfo               0045df58     libcmt:getqloc.obj
 0002:000053fc       ??_C@_08PKBIPKE@Paraguay?$AA@ 0045e3fc     libcmt:getqloc.obj
 0002:00005408       ??_C@_07GHBIBIBP@Uruguay?$AA@ 0045e408     libcmt:getqloc.obj
 0002:00005410       ??_C@_05HBNKAPDN@Chile?$AA@ 0045e410     libcmt:getqloc.obj
 0002:00005418       ??_C@_07FEIFIPNF@Ecuador?$AA@ 0045e418     libcmt:getqloc.obj
 0002:00005420       ??_C@_09PGNFPGME@Argentina?$AA@ 0045e420     libcmt:getqloc.obj
 0002:0000542c       ??_C@_04IALPBJF@Peru?$AA@  0045e42c     libcmt:getqloc.obj
 0002:00005434       ??_C@_08IJPLNLKH@Colombia?$AA@ 0045e434     libcmt:getqloc.obj
 0002:00005440       ??_C@_09IDMFKCN@Venezuela?$AA@ 0045e440     libcmt:getqloc.obj
 0002:0000544c       ??_C@_0BD@DNEJOGOK@Dominican?5Republic?$AA@ 0045e44c     libcmt:getqloc.obj
 0002:00005460       ??_C@_0N@LPINDNDB@South?5Africa?$AA@ 0045e460     libcmt:getqloc.obj
 0002:00005470       ??_C@_06BLJPEOBG@Panama?$AA@ 0045e470     libcmt:getqloc.obj
 0002:00005478       ??_C@_0L@BOCNDGON@Luxembourg?$AA@ 0045e478     libcmt:getqloc.obj
 0002:00005484       ??_C@_0L@CONEHKA@Costa?5Rica?$AA@ 0045e484     libcmt:getqloc.obj
 0002:00005490       ??_C@_0M@KGBPELAM@Switzerland?$AA@ 0045e490     libcmt:getqloc.obj
 0002:0000549c       ??_C@_09FJGLIMAG@Guatemala?$AA@ 0045e49c     libcmt:getqloc.obj
 0002:000054a8       ??_C@_06ECHIPDMK@Canada?$AA@ 0045e4a8     libcmt:getqloc.obj
 0002:000054b0       ??_C@_0BG@CCEBNPGH@Spanish?5?9?5Modern?5Sort?$AA@ 0045e4b0     libcmt:getqloc.obj
 0002:000054c8       ??_C@_09EFGJAPAD@Australia?$AA@ 0045e4c8     libcmt:getqloc.obj
 0002:000054d4       ??_C@_07NEKHPBCG@English?$AA@ 0045e4d4     libcmt:getqloc.obj
 0002:000054dc       ??_C@_07LKIIOGFH@Austria?$AA@ 0045e4dc     libcmt:getqloc.obj
 0002:000054e4       ??_C@_06EDDDIONA@German?$AA@ 0045e4e4     libcmt:getqloc.obj
 0002:000054ec       ??_C@_07LIIIOFOA@Belgium?$AA@ 0045e4ec     libcmt:getqloc.obj
 0002:000054f4       ??_C@_06DIAOLLEH@Mexico?$AA@ 0045e4f4     libcmt:getqloc.obj
 0002:000054fc       ??_C@_07PFALJOGE@Spanish?$AA@ 0045e4fc     libcmt:getqloc.obj
 0002:00005504       ??_C@_06FFOOPAJB@Basque?$AA@ 0045e504     libcmt:getqloc.obj
 0002:0000550c       ??_C@_06DGHNDJFJ@Sweden?$AA@ 0045e50c     libcmt:getqloc.obj
 0002:00005514       ??_C@_07OBINPKFN@Swedish?$AA@ 0045e514     libcmt:getqloc.obj
 0002:0000551c       ??_C@_07NCOIHDGC@Iceland?$AA@ 0045e51c     libcmt:getqloc.obj
 0002:00005524       ??_C@_09JHBBDDIA@Icelandic?$AA@ 0045e524     libcmt:getqloc.obj
 0002:00005530       ??_C@_06COBCPIFO@France?$AA@ 0045e530     libcmt:getqloc.obj
 0002:00005538       ??_C@_06GODMCAND@French?$AA@ 0045e538     libcmt:getqloc.obj
 0002:00005540       ??_C@_07MFHPMOED@Finland?$AA@ 0045e540     libcmt:getqloc.obj
 0002:00005548       ??_C@_07MCEAMKOD@Finnish?$AA@ 0045e548     libcmt:getqloc.obj
 0002:00005550       ??_C@_05CBHOCCK@Spain?$AA@ 0045e550     libcmt:getqloc.obj
 0002:00005558       ??_C@_0BL@GIOEGDHB@Spanish?5?9?5Traditional?5Sort?$AA@ 0045e558     libcmt:getqloc.obj
 0002:00005574       ___rglangidNotDefault      0045e574     libcmt:getqloc.obj
 0002:00005588       ___rg_country              0045e588     libcmt:getqloc.obj
 0002:00005640       ??_C@_0O@FMJNFNKE@united?9states?$AA@ 0045e640     libcmt:getqloc.obj
 0002:00005650       ??_C@_0P@NDHFFKCA@united?9kingdom?$AA@ 0045e650     libcmt:getqloc.obj
 0002:00005660       ??_C@_0BC@HHDADLGF@trinidad?5?$CG?5tobago?$AA@ 0045e660     libcmt:getqloc.obj
 0002:00005674       ??_C@_0M@IOAEBDAC@south?9korea?$AA@ 0045e674     libcmt:getqloc.obj
 0002:00005680       ??_C@_0N@FIELFKIJ@south?9africa?$AA@ 0045e680     libcmt:getqloc.obj
 0002:00005690       ??_C@_0M@OPNDHCMC@south?5korea?$AA@ 0045e690     libcmt:getqloc.obj
 0002:0000569c       ??_C@_0N@MDEOEPFI@south?5africa?$AA@ 0045e69c     libcmt:getqloc.obj
 0002:000056ac       ??_C@_06FKAPCJLB@slovak?$AA@ 0045e6ac     libcmt:getqloc.obj
 0002:000056b4       ??_C@_0M@EFJANOAL@puerto?9rico?$AA@ 0045e6b4     libcmt:getqloc.obj
 0002:000056c0       ??_C@_08PGOJKDAI@pr?9china?$AA@ 0045e6c0     libcmt:getqloc.obj
 0002:000056cc       ??_C@_08JHDOMCMI@pr?5china?$AA@ 0045e6cc     libcmt:getqloc.obj
 0002:000056d8       ??_C@_02JHCHFBLL@nz?$AA@   0045e6d8     libcmt:getqloc.obj
 0002:000056dc       ??_C@_0M@LINHDHKP@new?9zealand?$AA@ 0045e6dc     libcmt:getqloc.obj
 0002:000056e8       ??_C@_09IIIPPBDB@hong?9kong?$AA@ 0045e6e8     libcmt:getqloc.obj
 0002:000056f4       ??_C@_07HJLCKBG@holland?$AA@ 0045e6f4     libcmt:getqloc.obj
 0002:000056fc       ??_C@_0O@LEHGMHAG@great?5britain?$AA@ 0045e6fc     libcmt:getqloc.obj
 0002:0000570c       ??_C@_07FACOMELA@england?$AA@ 0045e70c     libcmt:getqloc.obj
 0002:00005714       ??_C@_05JIHCEICB@czech?$AA@ 0045e714     libcmt:getqloc.obj
 0002:0000571c       ??_C@_05BBJOBLGB@china?$AA@ 0045e71c     libcmt:getqloc.obj
 0002:00005724       ??_C@_07GPKPHICP@britain?$AA@ 0045e724     libcmt:getqloc.obj
 0002:0000572c       ??_C@_07MHIPBHMG@america?$AA@ 0045e72c     libcmt:getqloc.obj
 0002:00005738       ___rg_language             0045e738     libcmt:getqloc.obj
 0002:00005940       ??_C@_03KIALPMKC@usa?$AA@  0045e940     libcmt:getqloc.obj
 0002:00005944       ??_C@_02FGJGKGGD@us?$AA@   0045e944     libcmt:getqloc.obj
 0002:00005948       ??_C@_02NEINDODK@uk?$AA@   0045e948     libcmt:getqloc.obj
 0002:0000594c       ??_C@_05JMPCFJFJ@swiss?$AA@ 0045e94c     libcmt:getqloc.obj
 0002:00005954       ??_C@_0BA@HLOCPIOD@swedish?9finland?$AA@ 0045e954     libcmt:getqloc.obj
 0002:00005964       ??_C@_0BC@PKCNIABK@spanish?9venezuela?$AA@ 0045e964     libcmt:getqloc.obj
 0002:00005978       ??_C@_0BA@GBHHMIJI@spanish?9uruguay?$AA@ 0045e978     libcmt:getqloc.obj
 0002:00005988       ??_C@_0BE@BHDOHPMC@spanish?9puerto?5rico?$AA@ 0045e988     libcmt:getqloc.obj
 0002:0000599c       ??_C@_0N@KMOIDGGN@spanish?9peru?$AA@ 0045e99c     libcmt:getqloc.obj
 0002:000059ac       ??_C@_0BB@HMHLPGPH@spanish?9paraguay?$AA@ 0045e9ac     libcmt:getqloc.obj
 0002:000059c0       ??_C@_0P@MCPKNGFD@spanish?9panama?$AA@ 0045e9c0     libcmt:getqloc.obj
 0002:000059d0       ??_C@_0BC@IHOHGAIL@spanish?9nicaragua?$AA@ 0045e9d0     libcmt:getqloc.obj
 0002:000059e4       ??_C@_0P@KLMJDNFJ@spanish?9modern?$AA@ 0045e9e4     libcmt:getqloc.obj
 0002:000059f4       ??_C@_0BA@BPAPGBCM@spanish?9mexican?$AA@ 0045e9f4     libcmt:getqloc.obj
 0002:00005a04       ??_C@_0BB@PDECHHHE@spanish?9honduras?$AA@ 0045ea04     libcmt:getqloc.obj
 0002:00005a18       ??_C@_0BC@KLHKFGDB@spanish?9guatemala?$AA@ 0045ea18     libcmt:getqloc.obj
 0002:00005a2c       ??_C@_0BE@MFOOKJAI@spanish?9el?5salvador?$AA@ 0045ea2c     libcmt:getqloc.obj
 0002:00005a40       ??_C@_0BA@FCOKFPFC@spanish?9ecuador?$AA@ 0045ea40     libcmt:getqloc.obj
 0002:00005a50       ??_C@_0BL@PLMGIMOO@spanish?9dominican?5republic?$AA@ 0045ea50     libcmt:getqloc.obj
 0002:00005a6c       ??_C@_0BD@HLGDNMHB@spanish?9costa?5rica?$AA@ 0045ea6c     libcmt:getqloc.obj
 0002:00005a80       ??_C@_0BB@PKCBKCPE@spanish?9colombia?$AA@ 0045ea80     libcmt:getqloc.obj
 0002:00005a94       ??_C@_0O@MCBIJGNE@spanish?9chile?$AA@ 0045ea94     libcmt:getqloc.obj
 0002:00005aa4       ??_C@_0BA@BEFEIGJJ@spanish?9bolivia?$AA@ 0045eaa4     libcmt:getqloc.obj
 0002:00005ab4       ??_C@_0BC@EMECMPD@spanish?9argentina?$AA@ 0045eab4     libcmt:getqloc.obj
 0002:00005ac8       ??_C@_0BF@EALFLENP@portuguese?9brazilian?$AA@ 0045eac8     libcmt:getqloc.obj
 0002:00005ae0       ??_C@_0BC@HBLEBLNN@norwegian?9nynorsk?$AA@ 0045eae0     libcmt:getqloc.obj
 0002:00005af4       ??_C@_0BB@HMACDDCK@norwegian?9bokmal?$AA@ 0045eaf4     libcmt:getqloc.obj
 0002:00005b08       ??_C@_09BAFFPPHE@norwegian?$AA@ 0045eb08     libcmt:getqloc.obj
 0002:00005b14       ??_C@_0O@EAJFJDFG@italian?9swiss?$AA@ 0045eb14     libcmt:getqloc.obj
 0002:00005b24       ??_C@_0O@CNOMPGD@irish?9english?$AA@ 0045eb24     libcmt:getqloc.obj
 0002:00005b34       ??_C@_0N@EDHBGCKG@german?9swiss?$AA@ 0045eb34     libcmt:getqloc.obj
 0002:00005b44       ??_C@_0BC@JACMHNBP@german?9luxembourg?$AA@ 0045eb44     libcmt:getqloc.obj
 0002:00005b58       ??_C@_0BE@HBGMGFEG@german?9lichtenstein?$AA@ 0045eb58     libcmt:getqloc.obj
 0002:00005b6c       ??_C@_0BA@HKKBIBKL@german?9austrian?$AA@ 0045eb6c     libcmt:getqloc.obj
 0002:00005b7c       ??_C@_0N@GCAEPEBK@french?9swiss?$AA@ 0045eb7c     libcmt:getqloc.obj
 0002:00005b8c       ??_C@_0BC@DJFJJCK@french?9luxembourg?$AA@ 0045eb8c     libcmt:getqloc.obj
 0002:00005ba0       ??_C@_0BA@NNCEDFIC@french?9canadian?$AA@ 0045eba0     libcmt:getqloc.obj
 0002:00005bb0       ??_C@_0P@CMPOCLM@french?9belgian?$AA@ 0045ebb0     libcmt:getqloc.obj
 0002:00005bc0       ??_C@_0M@GHHDJOK@english?9usa?$AA@ 0045ebc0     libcmt:getqloc.obj
 0002:00005bcc       ??_C@_0L@PLDJKEIL@english?9us?$AA@ 0045ebcc     libcmt:getqloc.obj
 0002:00005bd8       ??_C@_0L@HJCCDMNC@english?9uk?$AA@ 0045ebd8     libcmt:getqloc.obj
 0002:00005be4       ??_C@_0BK@CKLIAGJB@english?9trinidad?5y?5tobago?$AA@ 0045ebe4     libcmt:getqloc.obj
 0002:00005c00       ??_C@_0BF@JMJMGNNF@english?9south?5africa?$AA@ 0045ec00     libcmt:getqloc.obj
 0002:00005c18       ??_C@_0L@DKIIFDFD@english?9nz?$AA@ 0045ec18     libcmt:getqloc.obj
 0002:00005c24       ??_C@_0BA@ONHGJCLH@english?9jamaica?$AA@ 0045ec24     libcmt:getqloc.obj
 0002:00005c34       ??_C@_0M@HJBGHOPO@english?9ire?$AA@ 0045ec34     libcmt:getqloc.obj
 0002:00005c40       ??_C@_0BC@LFEKMIFB@english?9caribbean?$AA@ 0045ec40     libcmt:getqloc.obj
 0002:00005c54       ??_C@_0M@OLDPFKHI@english?9can?$AA@ 0045ec54     libcmt:getqloc.obj
 0002:00005c60       ??_C@_0P@OMDEHBMP@english?9belize?$AA@ 0045ec60     libcmt:getqloc.obj
 0002:00005c70       ??_C@_0M@KFHFPFED@english?9aus?$AA@ 0045ec70     libcmt:getqloc.obj
 0002:00005c7c       ??_C@_0BB@MNMBKDFE@english?9american?$AA@ 0045ec7c     libcmt:getqloc.obj
 0002:00005c90       ??_C@_0O@KIDLNNBA@dutch?9belgian?$AA@ 0045ec90     libcmt:getqloc.obj
 0002:00005ca0       ??_C@_0BE@JBKABBMH@chinese?9traditional?$AA@ 0045eca0     libcmt:getqloc.obj
 0002:00005cb4       ??_C@_0BC@MJJMPKCG@chinese?9singapore?$AA@ 0045ecb4     libcmt:getqloc.obj
 0002:00005cc8       ??_C@_0BD@FDKADDCP@chinese?9simplified?$AA@ 0045ecc8     libcmt:getqloc.obj
 0002:00005cdc       ??_C@_0BB@DBEFDDME@chinese?9hongkong?$AA@ 0045ecdc     libcmt:getqloc.obj
 0002:00005cf0       ??_C@_07DHNMFMCI@chinese?$AA@ 0045ecf0     libcmt:getqloc.obj
 0002:00005cf8       ??_C@_03FNDDCHI@chi?$AA@   0045ecf8     libcmt:getqloc.obj
 0002:00005cfc       ??_C@_03BMMIADDJ@chh?$AA@  0045ecfc     libcmt:getqloc.obj
 0002:00005d00       ??_C@_08OAIPJDGI@canadian?$AA@ 0045ed00     libcmt:getqloc.obj
 0002:00005d0c       ??_C@_07HBPMNPNJ@belgian?$AA@ 0045ed0c     libcmt:getqloc.obj
 0002:00005d14       ??_C@_0L@OEKOPBEL@australian?$AA@ 0045ed14     libcmt:getqloc.obj
 0002:00005d20       ??_C@_0BB@MEIMBEDG@american?9english?$AA@ 0045ed20     libcmt:getqloc.obj
 0002:00005d34       ??_C@_0BB@DFMDPDGB@american?5english?$AA@ 0045ed34     libcmt:getqloc.obj
 0002:00005d48       ??_C@_08IJLOKOLL@american?$AA@ 0045ed48     libcmt:getqloc.obj
 0002:00005d54       ??_C@_03NFKLAGEF@OCP?$AA@  0045ed54     libcmt:getqloc.obj
 0002:00005d58       ??_C@_03DFHEHBHG@ACP?$AA@  0045ed58     libcmt:getqloc.obj
 0002:00005d5c       ??_C@_0BC@NFIEMBLL@Norwegian?9Nynorsk?$AA@ 0045ed5c     libcmt:getqloc.obj
 0002:00005d7c       ??_C@_0CG@PKBDLMEO@InitializeCriticalSectionAndSpin@ 0045ed7c     libcmt:initcrit.obj
 0002:00005e5c       ??_C@_06IMKFLFPG@1?$CDQNAN?$AA@ 0045ee5c     libcmt:x10fout.obj
 0002:00005e64       ??_C@_05DNEBIAHO@1?$CDINF?$AA@ 0045ee64     libcmt:x10fout.obj
 0002:00005e6c       ??_C@_05PHHOCPM@1?$CDIND?$AA@ 0045ee6c     libcmt:x10fout.obj
 0002:00005e74       ??_C@_06PGGFOGJG@1?$CDSNAN?$AA@ 0045ee74     libcmt:x10fout.obj
 0002:00005ed8       ??_7logic_error@std@@6B@   0045eed8     libcpmt:string.obj
 0002:00005ee4       ??_7length_error@std@@6B@  0045eee4     libcpmt:string.obj
 0002:00005ef0       ??_7out_of_range@std@@6B@  0045eef0     libcpmt:string.obj
 0002:00005ef8       ??_C@_0BI@CFPLBAOH@invalid?5string?5position?$AA@ 0045eef8     libcpmt:string.obj
 0002:00005f10       ??_C@_0BA@JFNIOLAK@string?5too?5long?$AA@ 0045ef10     libcpmt:string.obj
 0002:00005f7c       __unep@?ffl_dump_recod_function@?A0x3463d5ea@@$$FYGIPAX@Z 0045ef7c     ffl_dumpr:ffl_dump_unexception_filter.obj
 0002:00005f88       __unep@?top_level_filter@ffl_dump_unexception_filter@@$$FCGJPAU_EXCEPTION_POINTERS@@@Z 0045ef88     ffl_dumpr:ffl_dump_unexception_filter.obj
 0002:00005f8c       __unep@?ffl_purecall_handler@?A0x3463d5ea@@$$FYAXXZ 0045ef8c     ffl_dumpr:ffl_dump_unexception_filter.obj
 0002:00005fd8       ??_C@_0BC@BDHGAJGO@SymGetSymFromAddr?$AA@ 0045efd8     ffl_dumpr:ffl_dump_report.obj
 0002:00005fec       ??_C@_0BB@KAOAIDAF@SymGetModuleBase?$AA@ 0045efec     ffl_dumpr:ffl_dump_report.obj
 0002:00006000       ??_C@_0BH@PMEMHADK@SymFunctionTableAccess?$AA@ 0045f000     ffl_dumpr:ffl_dump_report.obj
 0002:00006018       ??_C@_09OJFIDCEK@StackWalk?$AA@ 0045f018     ffl_dumpr:ffl_dump_report.obj
 0002:00006024       ??_C@_0L@GDMHENGB@SymCleanup?$AA@ 0045f024     ffl_dumpr:ffl_dump_report.obj
 0002:00006030       ??_C@_0O@MCMFENKA@SymInitialize?$AA@ 0045f030     ffl_dumpr:ffl_dump_report.obj
 0002:00006040       ??_C@_0BL@LDAADFDN@?$CF08X?5?5?$CF08X?5?5?$CF04X?3?$CF08X?5?$CFs?$AN?6?$AA@ 0045f040     ffl_dumpr:ffl_dump_report.obj
 0002:0000605c       ??_C@_0CL@KBDFDBI@Address?5?5?5Frame?5?5?5?5?5Logical?5addr@ 0045f05c     ffl_dumpr:ffl_dump_report.obj
 0002:00006088       ??_C@_0BA@GKKBADCN@?$AN?6Call?5stack?3?$AN?6?$AA@ 0045f088     ffl_dumpr:ffl_dump_report.obj
 0002:00006098       ??_C@_0P@ELKNLGNN@?$CF04X?3?$CF08X?5?$CFs?$AN?6?$AA@ 0045f098     ffl_dumpr:ffl_dump_report.obj
 0002:000060a8       ??_C@_08JHNKFEBA@?$CFhs?$CL?$CFX?$AN?6?$AA@ 0045f0a8     ffl_dumpr:ffl_dump_report.obj
 0002:000060b4       ??_C@_0N@KCMAFMFB@?$CF08X?5?5?$CF08X?5?5?$AA@ 0045f0b4     ffl_dumpr:ffl_dump_report.obj
 0002:000060c4       ??_C@_0BC@FBBIJJOC@Address?5?5?5Frame?$AN?6?$AA@ 0045f0c4     ffl_dumpr:ffl_dump_report.obj
 0002:000060e8       ??_C@_0N@ELNJIOJD@Flags?3?$CF08X?$AN?6?$AA@ 0045f0e8     ffl_dumpr:ffl_dump_report.obj
 0002:000060f8       ??_C@_0CF@KHDFOJHN@DS?3?$CF04X?5?5ES?3?$CF04X?5?5FS?3?$CF04X?5?5GS?3?$CF0@ 0045f0f8     ffl_dumpr:ffl_dump_report.obj
 0002:00006120       ??_C@_0BN@OFMHGEIJ@SS?3ESP?3?$CF04X?3?$CF08X?5?5EBP?3?$CF08X?$AN?6?$AA@ 0045f120     ffl_dumpr:ffl_dump_report.obj
 0002:00006140       ??_C@_0BD@KMBLAJJH@CS?3EIP?3?$CF04X?3?$CF08X?$AN?6?$AA@ 0045f140     ffl_dumpr:ffl_dump_report.obj
 0002:00006154       ??_C@_0DN@CAIGBFFM@EAX?3?$CF08X?$AN?6EBX?3?$CF08X?$AN?6ECX?3?$CF08X?$AN?6ED@ 0045f154     ffl_dumpr:ffl_dump_report.obj
 0002:00006194       ??_C@_0P@CGKMDHFN@?$AN?6Registers?3?$AN?6?$AA@ 0045f194     ffl_dumpr:ffl_dump_report.obj
 0002:000061a4       ??_C@_0CD@JDCJCBD@Fault?5address?5?3?$CF08X?5?$CF02X?3?$CF08X?5?$CFs@ 0045f1a4     ffl_dumpr:ffl_dump_report.obj
 0002:000061c8       ??_C@_0BL@LDNMONAP@Exception?5code?5?3?5?$CF08X?5?$CFs?$AN?6?$AA@ 0045f1c8     ffl_dumpr:ffl_dump_report.obj
 0002:000061e4       ??_C@_0BO@LOFFIFPK@?$AN?6?$DN?$DN?$DN?$DN?$DN?5?$FLend?5of?5file?$FN?5?$DN?$DN?$DN?$DN?$DN?$AN?6?$AA@ 0045f1e4     ffl_dumpr:ffl_dump_report.obj
 0002:00006208       ??_C@_0EI@MENDDGGP@?$AN?6?$AN?6?$DN?$DN?$DN?$DN?$DN?$DN?$DN?$DN?$DN?$DN?$DN?$DN?$DN?$DN?$DN?$DN?$DN?$DN?5?5?5logged?5@ 0045f208     ffl_dumpr:ffl_dump_report.obj
 0002:00006254       ??_C@_0CF@EAEEKMJG@?$CFd?5MBytes?5user?5address?5space?5fre@ 0045f254     ffl_dumpr:ffl_dump_log.obj
 0002:0000627c       ??_C@_0CA@LCHOPJEK@?$CFd?5MBytes?5user?5address?5space?4?$AN?6?$AA@ 0045f27c     ffl_dumpr:ffl_dump_log.obj
 0002:0000629c       ??_C@_0BO@CJIFIDML@?$CFd?5MBytes?5paging?5file?5free?4?$AN?6?$AA@ 0045f29c     ffl_dumpr:ffl_dump_log.obj
 0002:000062bc       ??_C@_0BJ@BAJBDKMF@?$CFd?5MBytes?5paging?5file?4?$AN?6?$AA@ 0045f2bc     ffl_dumpr:ffl_dump_log.obj
 0002:000062d8       ??_C@_0CC@CEGIFPJL@?$CFd?5MBytes?5physical?5memory?5free?4?$AN@ 0045f2d8     ffl_dumpr:ffl_dump_log.obj
 0002:000062fc       ??_C@_0BN@PBHEHCOH@?$CFd?5MBytes?5physical?5memory?4?$AN?6?$AA@ 0045f2fc     ffl_dumpr:ffl_dump_log.obj
 0002:0000631c       ??_C@_0BG@KCAIBNBE@?$CFd?$CF?$CF?5memory?5in?5use?4?$AN?6?$AA@ 0045f31c     ffl_dumpr:ffl_dump_log.obj
 0002:00006334       ??_C@_0BM@CGPALIEL@?$CFd?5processor?$CIs?$CJ?0?5type?5?$CFd?4?$AN?6?$AA@ 0045f334     ffl_dumpr:ffl_dump_log.obj
 0002:00006350       ??_C@_0BO@KGGOLELO@Operation?5system?5?3?5?$CFs?5?$CI?$CFs?$CJ?4?$AN?6?$AA@ 0045f350     ffl_dumpr:ffl_dump_log.obj
 0002:00006370       ??_C@_0BB@GEKHAOPD@?$CFs?0?5run?5by?5?$CFs?4?$AN?6?$AA@ 0045f370     ffl_dumpr:ffl_dump_log.obj
 0002:0000638c       ??_C@_0BI@JNCPBKJH@Error?5occurred?5at?5?$CFs?4?$AN?6?$AA@ 0045f38c     ffl_dumpr:ffl_dump_log.obj
 0002:000063a4       ??_C@_0CN@DPHIKGID@EFlags?3?50x?$CF08x?5?5ESP?3?50x?$CF08x?5?5Seg@ 0045f3a4     ffl_dumpr:ffl_dump_log.obj
 0002:000063d4       ??_C@_0CN@FNEAJLBC@EIP?3?5?5?5?50x?$CF08x?5?5EBP?3?50x?$CF08x?5?5Seg@ 0045f3d4     ffl_dumpr:ffl_dump_log.obj
 0002:00006404       ??_C@_0CN@HMCEKAPI@EBX?3?5?5?5?50x?$CF08x?5?5ECX?3?50x?$CF08x?5?5EDX@ 0045f404     ffl_dumpr:ffl_dump_log.obj
 0002:00006434       ??_C@_0CN@HFPOGCDG@EDI?3?5?5?5?50x?$CF08x?5?5ESI?3?50x?$CF08x?5?5EAX@ 0045f434     ffl_dumpr:ffl_dump_log.obj
 0002:00006464       ??_C@_0L@BIIJGCKB@Context?3?$AN?6?$AA@ 0045f464     ffl_dumpr:ffl_dump_log.obj
 0002:00006470       ??_C@_0CL@OMKINDCC@Exception?5encountered?5during?5sta@ 0045f470     ffl_dumpr:ffl_dump_log.obj
 0002:0000649c       ??_C@_02HAOIJKIC@?$CFc?$AA@ 0045f49c     ffl_dumpr:ffl_dump_log.obj
 0002:000064a0       ??_C@_09CMIEKKHO@?5?5?5?5?5?5?5?5?5?$AA@ 0045f4a0     ffl_dumpr:ffl_dump_log.obj
 0002:000064ac       ??_C@_05ECIELPFL@?$CF08x?5?$AA@ 0045f4ac     ffl_dumpr:ffl_dump_log.obj
 0002:000064b4       ??_C@_08FCCPIPOA@0x?$CF08x?3?5?$AA@ 0045f4b4     ffl_dumpr:ffl_dump_log.obj
 0002:000064c0       ??_C@_0N@MCABBBJA@?$AN?6?$AN?6Stack?3?$AN?6?$AA@ 0045f4c0     ffl_dumpr:ffl_dump_log.obj
 0002:000064dc       ??_C@_0BN@MIOLEDFL@?5?5?5ProdVer?3?5?5?5?5?$CFd?4?$CFd?4?$CFd?4?$CFd?$AN?6?$AA@ 0045f4dc     ffl_dumpr:ffl_dump_log.obj
 0002:000064fc       ??_C@_0BN@NPPLIEOE@?5?5?5FileVer?3?5?5?5?5?$CFd?4?$CFd?4?$CFd?4?$CFd?$AN?6?$AA@ 0045f4fc     ffl_dumpr:ffl_dump_log.obj
 0002:0000651c       ??_C@_0BE@BINIANHA@?5?5?5FileDesc?3?5?5?5?$CFs?$AN?6?$AA@ 0045f51c     ffl_dumpr:ffl_dump_log.obj
 0002:00006530       ??_C@_0BE@PIDFFMIN@?5?5?5Product?3?5?5?5?5?$CFs?$AN?6?$AA@ 0045f530     ffl_dumpr:ffl_dump_log.obj
 0002:00006544       ??_C@_0BE@KFIOGAPA@?5?5?5Company?3?5?5?5?5?$CFs?$AN?6?$AA@ 0045f544     ffl_dumpr:ffl_dump_log.obj
 0002:00006558       ??_C@_0BH@CPHJCLI@Version?5Information?3?$AN?6?$AA@ 0045f558     ffl_dumpr:ffl_dump_log.obj
 0002:00006570       ??_C@_0CE@LFDKMBCN@File?5Size?3?5?5?$CF?910d?5?5File?5Time?3?5?5?$CF@ 0045f570     ffl_dumpr:ffl_dump_log.obj
 0002:00006594       ??_C@_0CJ@LAGLKJMB@Checksum?3?5?5?50x?$CF08x?5?5Time?5Stamp?3?5@ 0045f594     ffl_dumpr:ffl_dump_log.obj
 0002:000065c0       ??_C@_0CJ@KDNBAJGK@Image?5Base?3?50x?$CF08x?5?5Image?5Size?3?5@ 0045f5c0     ffl_dumpr:ffl_dump_log.obj
 0002:000065ec       ??_C@_04LLEBNMDN@?$CFs?$AN?6?$AA@ 0045f5ec     ffl_dumpr:ffl_dump_log.obj
 0002:000065f4       ??_C@_0M@JNMGKHJJ@Module?5?$CFd?$AN?6?$AA@ 0045f5f4     ffl_dumpr:ffl_dump_log.obj
 0002:00006600       ??_C@_0CA@FBGMDAKE@?$AN?6?$DN?$DN?$DN?$DN?$DN?5?$FL?5end?5of?5file?5?$FN?5?$DN?$DN?$DN?$DN?$DN?$AN?6?$AA@ 0045f600     ffl_dumpr:ffl_dump_log.obj
 0002:00006620       ??_C@_03MMEAEOBL@?$DP?$DP?5?$AA@ 0045f620     ffl_dumpr:ffl_dump_log.obj
 0002:00006624       ??_C@_05CNDJFPDP@?$CF02x?5?$AA@ 0045f624     ffl_dumpr:ffl_dump_log.obj
 0002:0000662c       ??_C@_0BF@PEDFBGMK@?$AN?6Bytes?5at?5CS?3EIP?3?$AN?6?$AA@ 0045f62c     ffl_dumpr:ffl_dump_log.obj
 0002:00006644       ??_C@_0CP@PADPOHII@?$CFs?5location?5?$CF08x?5caused?5an?5acces@ 0045f644     ffl_dumpr:ffl_dump_log.obj
 0002:00006674       ??_C@_08CPFAPHAF@Write?5to?$AA@ 0045f674     ffl_dumpr:ffl_dump_log.obj
 0002:00006680       ??_C@_09JHOILLPP@Read?5from?$AA@ 0045f680     ffl_dumpr:ffl_dump_log.obj
 0002:0000668c       ??_C@_0DH@EDPCCDDF@?$CFs?5caused?5?$CFs?5?$CI0x?$CF08x?$CJ?5?$AN?6in?5modul@ 0045f68c     ffl_dumpr:ffl_dump_log.obj
 0002:000066dc       ??_C@_0BC@MNIKNFKD@MiniDumpWriteDump?$AA@ 0045f6dc     ffl_dumpr:ffl_dump_mini.obj
 0002:00006804       ??_C@_08OANCNLAH@?$CFu?4?$CFu?4?$CFu?$AA@ 0045f804     ffl_dumpr:ffl_dump_common.obj
 0002:00006828       ??_C@_0BI@HKCLIKLE@?$CFd?1?$CFd?1?$CFd?5?$CF02d?3?$CF02d?3?$CF02d?$AA@ 0045f828     ffl_dumpr:ffl_dump_common.obj
 0002:00006840       ??_C@_0P@FOKFNGCC@STACK_OVERFLOW?$AA@ 0045f840     ffl_dumpr:ffl_dump_common.obj
 0002:00006850       ??_C@_0BB@PLLMBPKL@PRIV_INSTRUCTION?$AA@ 0045f850     ffl_dumpr:ffl_dump_common.obj
 0002:00006864       ??_C@_0N@NOODLLAE@INT_OVERFLOW?$AA@ 0045f864     ffl_dumpr:ffl_dump_common.obj
 0002:00006874       ??_C@_0BD@JEAJAPHP@INT_DIVIDE_BY_ZERO?$AA@ 0045f874     ffl_dumpr:ffl_dump_common.obj
 0002:00006888       ??_C@_0O@FPLBLLBA@FLT_UNDERFLOW?$AA@ 0045f888     ffl_dumpr:ffl_dump_common.obj
 0002:00006898       ??_C@_0BA@GJKDALBO@FLT_STACK_CHECK?$AA@ 0045f898     ffl_dumpr:ffl_dump_common.obj
 0002:000068a8       ??_C@_0N@BFKIPAKO@FLT_OVERFLOW?$AA@ 0045f8a8     ffl_dumpr:ffl_dump_common.obj
 0002:000068b8       ??_C@_0BG@KHLFFMKF@FLT_INVALID_OPERATION?$AA@ 0045f8b8     ffl_dumpr:ffl_dump_common.obj
 0002:000068d0       ??_C@_0BD@IOJOCCFC@FLT_INEXACT_RESULT?$AA@ 0045f8d0     ffl_dumpr:ffl_dump_common.obj
 0002:000068e4       ??_C@_0BD@NCECPCDC@FLT_DIVIDE_BY_ZERO?$AA@ 0045f8e4     ffl_dumpr:ffl_dump_common.obj
 0002:000068f8       ??_C@_0BF@DPHAEECF@FLT_DENORMAL_OPERAND?$AA@ 0045f8f8     ffl_dumpr:ffl_dump_common.obj
 0002:00006910       ??_C@_0P@BJHADBBK@INVALID_HANDLE?$AA@ 0045f910     ffl_dumpr:ffl_dump_common.obj
 0002:00006920       ??_C@_0BE@KNOGEHDH@INVALID_DISPOSITION?$AA@ 0045f920     ffl_dumpr:ffl_dump_common.obj
 0002:00006934       ??_C@_0BJ@HONCONAA@NONCONTINUABLE_EXCEPTION?$AA@ 0045f934     ffl_dumpr:ffl_dump_common.obj
 0002:00006950       ??_C@_0BE@PPPKHBFF@ILLEGAL_INSTRUCTION?$AA@ 0045f950     ffl_dumpr:ffl_dump_common.obj
 0002:00006964       ??_C@_0BG@KDAKIDPK@ARRAY_BOUNDS_EXCEEDED?$AA@ 0045f964     ffl_dumpr:ffl_dump_common.obj
 0002:0000697c       ??_C@_0O@EAPDGJDK@IN_PAGE_ERROR?$AA@ 0045f97c     ffl_dumpr:ffl_dump_common.obj
 0002:0000698c       ??_C@_0M@DKKFMHBE@SINGLE_STEP?$AA@ 0045f98c     ffl_dumpr:ffl_dump_common.obj
 0002:00006998       ??_C@_0BB@KOKDBDNI@ACCESS_VIOLATION?$AA@ 0045f998     ffl_dumpr:ffl_dump_common.obj
 0002:000069ac       ??_C@_0L@EGBPFLC@BREAKPOINT?$AA@ 0045f9ac     ffl_dumpr:ffl_dump_common.obj
 0002:000069b8       ??_C@_0L@EECANHFC@GUARD_PAGE?$AA@ 0045f9b8     ffl_dumpr:ffl_dump_common.obj
 0002:000069c4       ??_C@_0BG@IKBJODCC@DATATYPE_MISALIGNMENT?$AA@ 0045f9c4     ffl_dumpr:ffl_dump_common.obj
 0002:000069e0       ??_C@_0BM@CEKPECKE@?2StringFileInfo?2?$CF04x?$CF04x?2?$CFs?$AA@ 0045f9e0     ffl_dumpr:ffl_module_info.obj
 0002:000069fc       ??_C@_0BJ@KPNNKBCP@?2VarFileInfo?2Translation?$AA@ 0045f9fc     ffl_dumpr:ffl_module_info.obj
 0002:00006a18       ??_C@_0M@MNPNDAHP@ProductName?$AA@ 0045fa18     ffl_dumpr:ffl_module_info.obj
 0002:00006a24       ??_C@_0BA@IMJFJNNG@FileDescription?$AA@ 0045fa24     ffl_dumpr:ffl_module_info.obj
 0002:00006a34       ??_C@_0M@DHIAIDA@CompanyName?$AA@ 0045fa34     ffl_dumpr:ffl_module_info.obj
 0002:00006a40       _GUID_ATLVer30             0045fa40     atls:atlbase.obj
 0002:00006a50       _GUID_ATLVer70             0045fa50     atls:atlbase.obj
 0002:00006a60       _GUID_DEVINTERFACE_SERENUM_BUS_ENUMERATOR 0045fa60     uuid:cguid_i.obj
 0002:00006a70       _GUID_DEVINTERFACE_COMPORT 0045fa70     uuid:cguid_i.obj
 0002:00006a80       _GUID_DEVINTERFACE_STORAGEPORT 0045fa80     uuid:cguid_i.obj
 0002:00006a90       _GUID_DEVINTERFACE_CDCHANGER 0045fa90     uuid:cguid_i.obj
 0002:00006aa0       _GUID_DEVINTERFACE_FLOPPY  0045faa0     uuid:cguid_i.obj
 0002:00006ab0       _GUID_DEVINTERFACE_MEDIUMCHANGER 0045fab0     uuid:cguid_i.obj
 0002:00006ac0       _GUID_DEVINTERFACE_VOLUME  0045fac0     uuid:cguid_i.obj
 0002:00006ad0       _GUID_DEVINTERFACE_WRITEONCEDISK 0045fad0     uuid:cguid_i.obj
 0002:00006ae0       _GUID_DEVINTERFACE_TAPE    0045fae0     uuid:cguid_i.obj
 0002:00006af0       _GUID_DEVINTERFACE_PARTITION 0045faf0     uuid:cguid_i.obj
 0002:00006b00       _GUID_DEVINTERFACE_CDROM   0045fb00     uuid:cguid_i.obj
 0002:00006b10       _GUID_DEVINTERFACE_DISK    0045fb10     uuid:cguid_i.obj
 0002:00006b20       _GUID_DEVCLASS_FSFILTER_INFRASTRUCTURE 0045fb20     uuid:cguid_i.obj
 0002:00006b30       _GUID_DEVCLASS_FSFILTER_SYSTEM 0045fb30     uuid:cguid_i.obj
 0002:00006b40       _GUID_DEVCLASS_FSFILTER_COPYPROTECTION 0045fb40     uuid:cguid_i.obj
 0002:00006b50       _GUID_DEVCLASS_FSFILTER_SECURITYENHANCER 0045fb50     uuid:cguid_i.obj
 0002:00006b60       _GUID_DEVCLASS_FSFILTER_OPENFILEBACKUP 0045fb60     uuid:cguid_i.obj
 0002:00006b70       _GUID_DEVCLASS_FSFILTER_PHYSICALQUOTAMANAGEMENT 0045fb70     uuid:cguid_i.obj
 0002:00006b80       _GUID_DEVCLASS_FSFILTER_ENCRYPTION 0045fb80     uuid:cguid_i.obj
 0002:00006b90       _GUID_DEVCLASS_FSFILTER_COMPRESSION 0045fb90     uuid:cguid_i.obj
 0002:00006ba0       _GUID_DEVCLASS_FSFILTER_HSM 0045fba0     uuid:cguid_i.obj
 0002:00006bb0       _GUID_DEVCLASS_FSFILTER_CFSMETADATASERVER 0045fbb0     uuid:cguid_i.obj
 0002:00006bc0       _GUID_DEVCLASS_FSFILTER_SYSTEMRECOVERY 0045fbc0     uuid:cguid_i.obj
 0002:00006bd0       _GUID_DEVCLASS_FSFILTER_QUOTAMANAGEMENT 0045fbd0     uuid:cguid_i.obj
 0002:00006be0       _GUID_DEVCLASS_FSFILTER_CONTENTSCREENER 0045fbe0     uuid:cguid_i.obj
 0002:00006bf0       _GUID_DEVCLASS_FSFILTER_CONTINUOUSBACKUP 0045fbf0     uuid:cguid_i.obj
 0002:00006c00       _GUID_DEVCLASS_FSFILTER_REPLICATION 0045fc00     uuid:cguid_i.obj
 0002:00006c10       _GUID_DEVCLASS_FSFILTER_ANTIVIRUS 0045fc10     uuid:cguid_i.obj
 0002:00006c20       _GUID_DEVCLASS_FSFILTER_UNDELETE 0045fc20     uuid:cguid_i.obj
 0002:00006c30       _GUID_DEVCLASS_FSFILTER_ACTIVITYMONITOR 0045fc30     uuid:cguid_i.obj
 0002:00006c40       _GUID_DEVCLASS_BTRANS      0045fc40     uuid:cguid_i.obj
 0002:00006c50       _GUID_DEVCLASS_WCEUSBS     0045fc50     uuid:cguid_i.obj
 0002:00006c60       _GUID_DEVCLASS_VOLUMESNAPSHOT 0045fc60     uuid:cguid_i.obj
 0002:00006c70       _GUID_DEVCLASS_VOLUME      0045fc70     uuid:cguid_i.obj
 0002:00006c80       _GUID_DEVCLASS_USB         0045fc80     uuid:cguid_i.obj
 0002:00006c90       _GUID_DEVCLASS_UNKNOWN     0045fc90     uuid:cguid_i.obj
 0002:00006ca0       _GUID_DEVCLASS_TAPEDRIVE   0045fca0     uuid:cguid_i.obj
 0002:00006cb0       _GUID_DEVCLASS_SYSTEM      0045fcb0     uuid:cguid_i.obj
 0002:00006cc0       _GUID_DEVCLASS_SOUND       0045fcc0     uuid:cguid_i.obj
 0002:00006cd0       _GUID_DEVCLASS_SMARTCARDREADER 0045fcd0     uuid:cguid_i.obj
 0002:00006ce0       _GUID_DEVCLASS_SECURITYACCELERATOR 0045fce0     uuid:cguid_i.obj
 0002:00006cf0       _GUID_DEVCLASS_SCSIADAPTER 0045fcf0     uuid:cguid_i.obj
 0002:00006d00       _GUID_DEVCLASS_SBP2        0045fd00     uuid:cguid_i.obj
 0002:00006d10       _GUID_DEVCLASS_PROCESSOR   0045fd10     uuid:cguid_i.obj
 0002:00006d20       _GUID_DEVCLASS_PRINTERUPGRADE 0045fd20     uuid:cguid_i.obj
 0002:00006d30       _GUID_DEVCLASS_PRINTER     0045fd30     uuid:cguid_i.obj
 0002:00006d40       _GUID_DEVCLASS_PORTS       0045fd40     uuid:cguid_i.obj
 0002:00006d50       _GUID_DEVCLASS_PNPPRINTERS 0045fd50     uuid:cguid_i.obj
 0002:00006d60       _GUID_DEVCLASS_PCMCIA      0045fd60     uuid:cguid_i.obj
 0002:00006d70       _GUID_DEVCLASS_NODRIVER    0045fd70     uuid:cguid_i.obj
 0002:00006d80       _GUID_DEVCLASS_NETTRANS    0045fd80     uuid:cguid_i.obj
 0002:00006d90       _GUID_DEVCLASS_NETSERVICE  0045fd90     uuid:cguid_i.obj
 0002:00006da0       _GUID_DEVCLASS_NETCLIENT   0045fda0     uuid:cguid_i.obj
 0002:00006db0       _GUID_DEVCLASS_NET         0045fdb0     uuid:cguid_i.obj
 0002:00006dc0       _GUID_DEVCLASS_MULTIPORTSERIAL 0045fdc0     uuid:cguid_i.obj
 0002:00006dd0       _GUID_DEVCLASS_MULTIFUNCTION 0045fdd0     uuid:cguid_i.obj
 0002:00006de0       _GUID_DEVCLASS_MTD         0045fde0     uuid:cguid_i.obj
 0002:00006df0       _GUID_DEVCLASS_MOUSE       0045fdf0     uuid:cguid_i.obj
 0002:00006e00       _GUID_DEVCLASS_MONITOR     0045fe00     uuid:cguid_i.obj
 0002:00006e10       _GUID_DEVCLASS_MODEM       0045fe10     uuid:cguid_i.obj
 0002:00006e20       _GUID_DEVCLASS_MEDIUM_CHANGER 0045fe20     uuid:cguid_i.obj
 0002:00006e30       _GUID_DEVCLASS_MEDIA       0045fe30     uuid:cguid_i.obj
 0002:00006e40       _GUID_DEVCLASS_LEGACYDRIVER 0045fe40     uuid:cguid_i.obj
 0002:00006e50       _GUID_DEVCLASS_KEYBOARD    0045fe50     uuid:cguid_i.obj
 0002:00006e60       _GUID_DEVCLASS_INFRARED    0045fe60     uuid:cguid_i.obj
 0002:00006e70       _GUID_DEVCLASS_INFINIBAND  0045fe70     uuid:cguid_i.obj
 0002:00006e80       _GUID_DEVCLASS_IMAGE       0045fe80     uuid:cguid_i.obj
 0002:00006e90       _GUID_DEVCLASS_HIDCLASS    0045fe90     uuid:cguid_i.obj
 0002:00006ea0       _GUID_DEVCLASS_HDC         0045fea0     uuid:cguid_i.obj
 0002:00006eb0       _GUID_DEVCLASS_GPS         0045feb0     uuid:cguid_i.obj
 0002:00006ec0       _GUID_DEVCLASS_FLOPPYDISK  0045fec0     uuid:cguid_i.obj
 0002:00006ed0       _GUID_DEVCLASS_FDC         0045fed0     uuid:cguid_i.obj
 0002:00006ee0       _GUID_DEVCLASS_ENUM1394    0045fee0     uuid:cguid_i.obj
 0002:00006ef0       _GUID_DEVCLASS_DOT4PRINT   0045fef0     uuid:cguid_i.obj
 0002:00006f00       _GUID_DEVCLASS_DOT4        0045ff00     uuid:cguid_i.obj
 0002:00006f10       _GUID_DEVCLASS_DISPLAY     0045ff10     uuid:cguid_i.obj
 0002:00006f20       _GUID_DEVCLASS_DISKDRIVE   0045ff20     uuid:cguid_i.obj
 0002:00006f30       _GUID_DEVCLASS_DECODER     0045ff30     uuid:cguid_i.obj
 0002:00006f40       _GUID_DEVCLASS_COMPUTER    0045ff40     uuid:cguid_i.obj
 0002:00006f50       _GUID_DEVCLASS_CDROM       0045ff50     uuid:cguid_i.obj
 0002:00006f60       _GUID_DEVCLASS_BLUETOOTH   0045ff60     uuid:cguid_i.obj
 0002:00006f70       _GUID_DEVCLASS_BATTERY     0045ff70     uuid:cguid_i.obj
 0002:00006f80       _GUID_DEVCLASS_AVC         0045ff80     uuid:cguid_i.obj
 0002:00006f90       _GUID_DEVCLASS_APMSUPPORT  0045ff90     uuid:cguid_i.obj
 0002:00006fa0       _GUID_DEVCLASS_ADAPTER     0045ffa0     uuid:cguid_i.obj
 0002:00006fb0       _GUID_DEVCLASS_61883       0045ffb0     uuid:cguid_i.obj
 0002:00006fc0       _GUID_DEVCLASS_1394DEBUG   0045ffc0     uuid:cguid_i.obj
 0002:00006fd0       _GUID_DEVCLASS_1394        0045ffd0     uuid:cguid_i.obj
 0002:00006fe0       _CLSID_ThumbnailUpdater    0045ffe0     uuid:cguid_i.obj
 0002:00006ff0       _CLSID_ThumbnailFCNHandler 0045fff0     uuid:cguid_i.obj
 0002:00007000       _CLSID_GblComponentCategoriesMgr 00460000     uuid:cguid_i.obj
 0002:00007010       _IID_IBoundObjectSite      00460010     uuid:cguid_i.obj
 0002:00007020       _IID_IBoundObject          00460020     uuid:cguid_i.obj
 0002:00007030       __DBCIDGUID                00460030     uuid:cguid_i.obj
 0002:00007040       __DBBMKGUID                00460040     uuid:cguid_i.obj
 0002:00007050       __GUID_NAMEONLY            00460050     uuid:cguid_i.obj
 0002:00007060       _IID_IEntryID              00460060     uuid:cguid_i.obj
 0002:00007070       _IID_ICursorFind           00460070     uuid:cguid_i.obj
 0002:00007080       _IID_INotifyDBEvents       00460080     uuid:cguid_i.obj
 0002:00007090       _IID_ICursorUpdateARow     00460090     uuid:cguid_i.obj
 0002:000070a0       _IID_ICursorScroll         004600a0     uuid:cguid_i.obj
 0002:000070b0       _IID_ICursorMove           004600b0     uuid:cguid_i.obj
 0002:000070c0       _IID_ICursor               004600c0     uuid:cguid_i.obj
 0002:000070d0       _IID_StdOle                004600d0     uuid:cguid_i.obj
 0002:000070e0       _GUID_HANDLE               004600e0     uuid:cguid_i.obj
 0002:000070f0       _GUID_FONTSTRIKETHROUGH    004600f0     uuid:cguid_i.obj
 0002:00007100       _GUID_FONTUNDERSCORE       00460100     uuid:cguid_i.obj
 0002:00007110       _GUID_FONTITALIC           00460110     uuid:cguid_i.obj
 0002:00007120       _GUID_FONTBOLD             00460120     uuid:cguid_i.obj
 0002:00007130       _GUID_FONTSIZE             00460130     uuid:cguid_i.obj
 0002:00007140       _GUID_FONTNAME             00460140     uuid:cguid_i.obj
 0002:00007150       _GUID_CHECKVALUEEXCLUSIVE  00460150     uuid:cguid_i.obj
 0002:00007160       _GUID_OPTIONVALUEEXCLUSIVE 00460160     uuid:cguid_i.obj
 0002:00007170       _GUID_TRISTATE             00460170     uuid:cguid_i.obj
 0002:00007180       _GUID_YSIZE                00460180     uuid:cguid_i.obj
 0002:00007190       _GUID_XSIZE                00460190     uuid:cguid_i.obj
 0002:000071a0       _GUID_YPOS                 004601a0     uuid:cguid_i.obj
 0002:000071b0       _GUID_XPOS                 004601b0     uuid:cguid_i.obj
 0002:000071c0       _GUID_YSIZEPIXEL           004601c0     uuid:cguid_i.obj
 0002:000071d0       _GUID_XSIZEPIXEL           004601d0     uuid:cguid_i.obj
 0002:000071e0       _GUID_YPOSPIXEL            004601e0     uuid:cguid_i.obj
 0002:000071f0       _GUID_XPOSPIXEL            004601f0     uuid:cguid_i.obj
 0002:00007200       _GUID_COLOR                00460200     uuid:cguid_i.obj
 0002:00007210       _GUID_HIMETRIC             00460210     uuid:cguid_i.obj
 0002:00007220       _CLSID_StdPicture          00460220     uuid:cguid_i.obj
 0002:00007230       _CLSID_StdFont             00460230     uuid:cguid_i.obj
 0002:00007240       _CLSID_ConvertVBX          00460240     uuid:cguid_i.obj
 0002:00007250       _CLSID_PersistPropset      00460250     uuid:cguid_i.obj
 0002:00007260       _CLSID_StockPicturePage    00460260     uuid:cguid_i.obj
 0002:00007270       _CLSID_StockColorPage      00460270     uuid:cguid_i.obj
 0002:00007280       _CLSID_StockFontPage       00460280     uuid:cguid_i.obj
 0002:00007290       _CLSID_CPicturePropPage    00460290     uuid:cguid_i.obj
 0002:000072a0       _CLSID_CColorPropPage      004602a0     uuid:cguid_i.obj
 0002:000072b0       _CLSID_CFontPropPage       004602b0     uuid:cguid_i.obj
 0002:000072c0       _IID_IPropertyFrame        004602c0     uuid:cguid_i.obj
 0002:000072d0       _CLSID_AddrControl         004602d0     uuid:cguid_i.obj
 0002:000072e0       _CLSID_CurrentUserClasses  004602e0     uuid:cguid_i.obj
 0002:000072f0       _CLSID_LocalMachineClasses 004602f0     uuid:cguid_i.obj
 0002:00007300       _CLSID_AllClasses          00460300     uuid:cguid_i.obj
 0002:00007310       _IID_IRichEditOleCallback  00460310     uuid:cguid_i.obj
 0002:00007320       _IID_IRichEditOle          00460320     uuid:cguid_i.obj
 0002:00007330       _CLSID_RemoteUnknownPSFactory 00460330     uuid:cguid_i.obj
 0002:00007340       _CLSID_InProcFreeMarshaler 00460340     uuid:cguid_i.obj
 0002:00007350       _CLSID_StdAsyncActManager  00460350     uuid:cguid_i.obj
 0002:00007360       _CLSID_ComBinding          00460360     uuid:cguid_i.obj
 0002:00007370       _CLSID_SynchronizeContainer 00460370     uuid:cguid_i.obj
 0002:00007380       _CLSID_StdEvent            00460380     uuid:cguid_i.obj
 0002:00007390       _CLSID_ManualResetEvent    00460390     uuid:cguid_i.obj
 0002:000073a0       _CLSID_DCOMAccessControl   004603a0     uuid:cguid_i.obj
 0002:000073b0       _CLSID_Picture_Dib         004603b0     uuid:cguid_i.obj
 0002:000073c0       _CLSID_Picture_EnhMetafile 004603c0     uuid:cguid_i.obj
 0002:000073d0       _CLSID_Picture_Metafile    004603d0     uuid:cguid_i.obj
 0002:000073e0       _CLSID_StaticDib           004603e0     uuid:cguid_i.obj
 0002:000073f0       _CLSID_StaticMetafile      004603f0     uuid:cguid_i.obj
 0002:00007400       _CLSID_PSEnumerators       00460400     uuid:cguid_i.obj
 0002:00007410       _CLSID_PSBindCtx           00460410     uuid:cguid_i.obj
 0002:00007420       _CLSID_PSDragDrop          00460420     uuid:cguid_i.obj
 0002:00007430       _CLSID_PSInPlaceFrame      00460430     uuid:cguid_i.obj
 0002:00007440       _CLSID_PSInPlaceActive     00460440     uuid:cguid_i.obj
 0002:00007450       _CLSID_PSClassObject       00460450     uuid:cguid_i.obj
 0002:00007460       _CLSID_PSClientSite        00460460     uuid:cguid_i.obj
 0002:00007470       _CLSID_PSGenObject         00460470     uuid:cguid_i.obj
 0002:00007480       _IID_IDebugStream          00460480     uuid:cguid_i.obj
 0002:00007490       _IID_IDebug                00460490     uuid:cguid_i.obj
 0002:000074a0       _IID_IOlePresObj           004604a0     uuid:cguid_i.obj
 0002:000074b0       _IID_IOleManager           004604b0     uuid:cguid_i.obj
 0002:000074c0       _IID_IEnumCallback         004604c0     uuid:cguid_i.obj
 0002:000074d0       _IID_IEnumHolder           004604d0     uuid:cguid_i.obj
 0002:000074e0       _IID_IEnumGeneric          004604e0     uuid:cguid_i.obj
 0002:000074f0       _IID_IProxy                004604f0     uuid:cguid_i.obj
 0002:00007500       _IID_IStub                 00460500     uuid:cguid_i.obj
 0002:00007510       _CLSID_StdMarshal          00460510     uuid:cguid_i.obj
 0002:00007520       _IID_IDfReserved3          00460520     uuid:cguid_i.obj
 0002:00007530       _IID_IDfReserved2          00460530     uuid:cguid_i.obj
 0002:00007540       _IID_IDfReserved1          00460540     uuid:cguid_i.obj
 0002:00007550       _IID_IInternalMoniker      00460550     uuid:cguid_i.obj
 0002:00007560       _IID_IPSFactory            00460560     uuid:cguid_i.obj
 0002:00007570       _IID_IProxyManager         00460570     uuid:cguid_i.obj
 0002:00007580       _IID_IRpcProxy             00460580     uuid:cguid_i.obj
 0002:00007590       _IID_IStubManager          00460590     uuid:cguid_i.obj
 0002:000075a0       _IID_IRpcStub              004605a0     uuid:cguid_i.obj
 0002:000075b0       _IID_IRpcChannel           004605b0     uuid:cguid_i.obj
 0002:000075c0       _CATID_MARSHALER           004605c0     uuid:cguid_i.obj
 0002:000075d0       _GUID_NULL                 004605d0     uuid:cguid_i.obj
 0002:000075e0       _IID_IEnumOLEVERB          004605e0     uuid:oleidl_i.obj
 0002:000075f0       _IID_IDropTarget           004605f0     uuid:oleidl_i.obj
 0002:00007600       _IID_IDropSource           00460600     uuid:oleidl_i.obj
 0002:00007610       _IID_IViewObject2          00460610     uuid:oleidl_i.obj
 0002:00007620       _IID_IViewObject           00460620     uuid:oleidl_i.obj
 0002:00007630       _IID_IContinue             00460630     uuid:oleidl_i.obj
 0002:00007640       _IID_IOleInPlaceSite       00460640     uuid:oleidl_i.obj
 0002:00007650       _IID_IOleInPlaceObject     00460650     uuid:oleidl_i.obj
 0002:00007660       _IID_IOleInPlaceFrame      00460660     uuid:oleidl_i.obj
 0002:00007670       _IID_IOleInPlaceActiveObject 00460670     uuid:oleidl_i.obj
 0002:00007680       _IID_IOleInPlaceUIWindow   00460680     uuid:oleidl_i.obj
 0002:00007690       _IID_IOleItemContainer     00460690     uuid:oleidl_i.obj
 0002:000076a0       _IID_IOleLink              004606a0     uuid:oleidl_i.obj
 0002:000076b0       _IID_IOleWindow            004606b0     uuid:oleidl_i.obj
 0002:000076c0       _IID_IOleObject            004606c0     uuid:oleidl_i.obj
 0002:000076d0       _IID_IOleClientSite        004606d0     uuid:oleidl_i.obj
 0002:000076e0       _IID_IOleContainer         004606e0     uuid:oleidl_i.obj
 0002:000076f0       _IID_IParseDisplayName     004606f0     uuid:oleidl_i.obj
 0002:00007700       _IID_IOleCacheControl      00460700     uuid:oleidl_i.obj
 0002:00007710       _IID_IOleCache2            00460710     uuid:oleidl_i.obj
 0002:00007720       _IID_IOleCache             00460720     uuid:oleidl_i.obj
 0002:00007730       _IID_IOleAdviseHolder      00460730     uuid:oleidl_i.obj
 0002:00007740       _IID_IClassFactory         00460740     uuid:unknwn_i.obj
 0002:00007750       _IID_AsyncIUnknown         00460750     uuid:unknwn_i.obj
 0002:00007760       _IID_IUnknown              00460760     uuid:unknwn_i.obj
 0002:00007770       _IID_IQuickActivate        00460770     uuid:ocidl_i.obj
 0002:00007780       _IID_IAdviseSinkEx         00460780     uuid:ocidl_i.obj
 0002:00007790       _IID_IPersistPropertyBag2  00460790     uuid:ocidl_i.obj
 0002:000077a0       _IID_IPropertyBag2         004607a0     uuid:ocidl_i.obj
 0002:000077b0       _IID_IPerPropertyBrowsing  004607b0     uuid:ocidl_i.obj
 0002:000077c0       _IID_IObjectWithSite       004607c0     uuid:ocidl_i.obj
 0002:000077d0       _IID_IPointerInactive      004607d0     uuid:ocidl_i.obj
 0002:000077e0       _IID_IOleUndoManager       004607e0     uuid:ocidl_i.obj
 0002:000077f0       _IID_IEnumOleUndoUnits     004607f0     uuid:ocidl_i.obj
 0002:00007800       _IID_IOleParentUndoUnit    00460800     uuid:ocidl_i.obj
 0002:00007810       _IID_IOleUndoUnit          00460810     uuid:ocidl_i.obj
 0002:00007820       _IID_IViewObjectEx         00460820     uuid:ocidl_i.obj
 0002:00007830       _IID_IOleInPlaceSiteWindowless 00460830     uuid:ocidl_i.obj
 0002:00007840       _IID_IOleInPlaceSiteEx     00460840     uuid:ocidl_i.obj
 0002:00007850       _IID_IOleInPlaceObjectWindowless 00460850     uuid:ocidl_i.obj
 0002:00007860       _IID_IPictureDisp          00460860     uuid:ocidl_i.obj
 0002:00007870       _IID_IFontDisp             00460870     uuid:ocidl_i.obj
 0002:00007880       _IID_IFontEventsDisp       00460880     uuid:ocidl_i.obj
 0002:00007890       _IID_IPicture              00460890     uuid:ocidl_i.obj
 0002:000078a0       _IID_IFont                 004608a0     uuid:ocidl_i.obj
 0002:000078b0       _IID_ISimpleFrameSite      004608b0     uuid:ocidl_i.obj
 0002:000078c0       _IID_IPersistPropertyBag   004608c0     uuid:ocidl_i.obj
 0002:000078d0       _IID_IPersistStreamInit    004608d0     uuid:ocidl_i.obj
 0002:000078e0       _IID_IPersistMemory        004608e0     uuid:ocidl_i.obj
 0002:000078f0       _IID_ISpecifyPropertyPages 004608f0     uuid:ocidl_i.obj
 0002:00007900       _IID_IPropertyNotifySink   00460900     uuid:ocidl_i.obj
 0002:00007910       _IID_IPropertyPageSite     00460910     uuid:ocidl_i.obj
 0002:00007920       _IID_IPropertyPage2        00460920     uuid:ocidl_i.obj
 0002:00007930       _IID_IPropertyPage         00460930     uuid:ocidl_i.obj
 0002:00007940       _IID_IOleControlSite       00460940     uuid:ocidl_i.obj
 0002:00007950       _IID_IOleControl           00460950     uuid:ocidl_i.obj
 0002:00007960       _IID_IProvideMultipleClassInfo 00460960     uuid:ocidl_i.obj
 0002:00007970       _IID_IProvideClassInfo2    00460970     uuid:ocidl_i.obj
 0002:00007980       _IID_IProvideClassInfo     00460980     uuid:ocidl_i.obj
 0002:00007990       _IID_IClassFactory2        00460990     uuid:ocidl_i.obj
 0002:000079a0       _IID_IConnectionPointContainer 004609a0     uuid:ocidl_i.obj
 0002:000079b0       _IID_IEnumConnectionPoints 004609b0     uuid:ocidl_i.obj
 0002:000079c0       _IID_IConnectionPoint      004609c0     uuid:ocidl_i.obj
 0002:000079d0       _IID_IEnumConnections      004609d0     uuid:ocidl_i.obj
 0002:000079e0       _IID_IInitializeSpy        004609e0     uuid:objidl_i.obj
 0002:000079f0       _IID_IProcessInitControl   004609f0     uuid:objidl_i.obj
 0002:00007a00       _IID_IComThreadingInfo     00460a00     uuid:objidl_i.obj
 0002:00007a10       _IID_ISurrogateService     00460a10     uuid:objidl_i.obj
 0002:00007a20       _IID_IProcessLock          00460a20     uuid:objidl_i.obj
 0002:00007a30       _IID_IObjContext           00460a30     uuid:objidl_i.obj
 0002:00007a40       _IID_IContext              00460a40     uuid:objidl_i.obj
 0002:00007a50       _IID_IEnumContextProps     00460a50     uuid:objidl_i.obj
 0002:00007a60       _IID_IDummyHICONIncluder   00460a60     uuid:objidl_i.obj
 0002:00007a70       _IID_IThumbnailExtractor   00460a70     uuid:objidl_i.obj
 0002:00007a80       _IID_AsyncIPipeDouble      00460a80     uuid:objidl_i.obj
 0002:00007a90       _IID_IPipeDouble           00460a90     uuid:objidl_i.obj
 0002:00007aa0       _IID_AsyncIPipeLong        00460aa0     uuid:objidl_i.obj
 0002:00007ab0       _IID_IPipeLong             00460ab0     uuid:objidl_i.obj
 0002:00007ac0       _IID_AsyncIPipeByte        00460ac0     uuid:objidl_i.obj
 0002:00007ad0       _IID_IPipeByte             00460ad0     uuid:objidl_i.obj
 0002:00007ae0       _IID_IAddrExclusionControl 00460ae0     uuid:objidl_i.obj
 0002:00007af0       _IID_IAddrTrackingControl  00460af0     uuid:objidl_i.obj
 0002:00007b00       _IID_IForegroundTransfer   00460b00     uuid:objidl_i.obj
 0002:00007b10       _IID_IUrlMon               00460b10     uuid:objidl_i.obj
 0002:00007b20       _IID_IWaitMultiple         00460b20     uuid:objidl_i.obj
 0002:00007b30       _IID_IReleaseMarshalBuffers 00460b30     uuid:objidl_i.obj
 0002:00007b40       _IID_IRpcHelper            00460b40     uuid:objidl_i.obj
 0002:00007b50       _IID_ICallFactory          00460b50     uuid:objidl_i.obj
 0002:00007b60       _IID_IAsyncManager         00460b60     uuid:objidl_i.obj
 0002:00007b70       _IID_ICancelMethodCalls    00460b70     uuid:objidl_i.obj
 0002:00007b80       _IID_ISynchronizeMutex     00460b80     uuid:objidl_i.obj
 0002:00007b90       _IID_ISynchronizeContainer 00460b90     uuid:objidl_i.obj
 0002:00007ba0       _IID_ISynchronizeEvent     00460ba0     uuid:objidl_i.obj
 0002:00007bb0       _IID_ISynchronizeHandle    00460bb0     uuid:objidl_i.obj
 0002:00007bc0       _IID_ISynchronize          00460bc0     uuid:objidl_i.obj
 0002:00007bd0       _IID_IDirectWriterLock     00460bd0     uuid:objidl_i.obj
 0002:00007be0       _IID_IGlobalInterfaceTable 00460be0     uuid:objidl_i.obj
 0002:00007bf0       _IID_ISurrogate            00460bf0     uuid:objidl_i.obj
 0002:00007c00       _IID_IOplockStorage        00460c00     uuid:objidl_i.obj
 0002:00007c10       _IID_ITimeAndNoticeControl 00460c10     uuid:objidl_i.obj
 0002:00007c20       _IID_IBlockingLock         00460c20     uuid:objidl_i.obj
 0002:00007c30       _IID_ILayoutStorage        00460c30     uuid:objidl_i.obj
 0002:00007c40       _IID_IProgressNotify       00460c40     uuid:objidl_i.obj
 0002:00007c50       _IID_IFillLockBytes        00460c50     uuid:objidl_i.obj
 0002:00007c60       _IID_IRpcOptions           00460c60     uuid:objidl_i.obj
 0002:00007c70       _IID_IClassActivator       00460c70     uuid:objidl_i.obj
 0002:00007c80       _IID_IServerSecurity       00460c80     uuid:objidl_i.obj
 0002:00007c90       _IID_IClientSecurity       00460c90     uuid:objidl_i.obj
 0002:00007ca0       _IID_IChannelHook          00460ca0     uuid:objidl_i.obj
 0002:00007cb0       _IID_IPSFactoryBuffer      00460cb0     uuid:objidl_i.obj
 0002:00007cc0       _IID_IRpcStubBuffer        00460cc0     uuid:objidl_i.obj
 0002:00007cd0       _IID_IRpcProxyBuffer       00460cd0     uuid:objidl_i.obj
 0002:00007ce0       _IID_IRpcSyntaxNegotiate   00460ce0     uuid:objidl_i.obj
 0002:00007cf0       _IID_IRpcChannelBuffer3    00460cf0     uuid:objidl_i.obj
 0002:00007d00       _IID_IAsyncRpcChannelBuffer 00460d00     uuid:objidl_i.obj
 0002:00007d10       _IID_IRpcChannelBuffer2    00460d10     uuid:objidl_i.obj
 0002:00007d20       _IID_IRpcChannelBuffer     00460d20     uuid:objidl_i.obj
 0002:00007d30       _IID_IMessageFilter        00460d30     uuid:objidl_i.obj
 0002:00007d40       _IID_IDataAdviseHolder     00460d40     uuid:objidl_i.obj
 0002:00007d50       _IID_IDataObject           00460d50     uuid:objidl_i.obj
 0002:00007d60       _IID_AsyncIAdviseSink2     00460d60     uuid:objidl_i.obj
 0002:00007d70       _IID_IAdviseSink2          00460d70     uuid:objidl_i.obj
 0002:00007d80       _IID_AsyncIAdviseSink      00460d80     uuid:objidl_i.obj
 0002:00007d90       _IID_IAdviseSink           00460d90     uuid:objidl_i.obj
 0002:00007da0       _IID_IRootStorage          00460da0     uuid:objidl_i.obj
 0002:00007db0       _IID_IEnumSTATDATA         00460db0     uuid:objidl_i.obj
 0002:00007dc0       _IID_IEnumFORMATETC        00460dc0     uuid:objidl_i.obj
 0002:00007dd0       _IID_ILockBytes            00460dd0     uuid:objidl_i.obj
 0002:00007de0       _IID_IPersistStorage       00460de0     uuid:objidl_i.obj
 0002:00007df0       _IID_IPersistFile          00460df0     uuid:objidl_i.obj
 0002:00007e00       _IID_IStorage              00460e00     uuid:objidl_i.obj
 0002:00007e10       _IID_IEnumSTATSTG          00460e10     uuid:objidl_i.obj
 0002:00007e20       _IID_IStream               00460e20     uuid:objidl_i.obj
 0002:00007e30       _IID_ISequentialStream     00460e30     uuid:objidl_i.obj
 0002:00007e40       _IID_IEnumString           00460e40     uuid:objidl_i.obj
 0002:00007e50       _IID_IROTData              00460e50     uuid:objidl_i.obj
 0002:00007e60       _IID_IMoniker              00460e60     uuid:objidl_i.obj
 0002:00007e70       _IID_IPersistStream        00460e70     uuid:objidl_i.obj
 0002:00007e80       _IID_IPersist              00460e80     uuid:objidl_i.obj
 0002:00007e90       _IID_IRunningObjectTable   00460e90     uuid:objidl_i.obj
 0002:00007ea0       _IID_IRunnableObject       00460ea0     uuid:objidl_i.obj
 0002:00007eb0       _IID_IEnumMoniker          00460eb0     uuid:objidl_i.obj
 0002:00007ec0       _IID_IBindCtx              00460ec0     uuid:objidl_i.obj
 0002:00007ed0       _IID_IEnumUnknown          00460ed0     uuid:objidl_i.obj
 0002:00007ee0       _IID_IInternalUnknown      00460ee0     uuid:objidl_i.obj
 0002:00007ef0       _IID_AsyncIMultiQI         00460ef0     uuid:objidl_i.obj
 0002:00007f00       _IID_IMultiQI              00460f00     uuid:objidl_i.obj
 0002:00007f10       _IID_IExternalConnection   00460f10     uuid:objidl_i.obj
 0002:00007f20       _IID_IStdMarshalInfo       00460f20     uuid:objidl_i.obj
 0002:00007f30       _IID_IMallocSpy            00460f30     uuid:objidl_i.obj
 0002:00007f40       _IID_IMalloc               00460f40     uuid:objidl_i.obj
 0002:00007f50       _IID_IMarshal2             00460f50     uuid:objidl_i.obj
 0002:00007f60       _IID_IMarshal              00460f60     uuid:objidl_i.obj
 0002:00007f70       _IID_IPropertyBag          00460f70     uuid:oaidl_i.obj
 0002:00007f80       _IID_IErrorLog             00460f80     uuid:oaidl_i.obj
 0002:00007f90       _IID_IRecordInfo           00460f90     uuid:oaidl_i.obj
 0002:00007fa0       _IID_ITypeMarshal          00460fa0     uuid:oaidl_i.obj
 0002:00007fb0       _IID_ITypeFactory          00460fb0     uuid:oaidl_i.obj
 0002:00007fc0       _IID_ISupportErrorInfo     00460fc0     uuid:oaidl_i.obj
 0002:00007fd0       _IID_ICreateErrorInfo      00460fd0     uuid:oaidl_i.obj
 0002:00007fe0       _IID_IErrorInfo            00460fe0     uuid:oaidl_i.obj
 0002:00007ff0       _IID_ITypeChangeEvents     00460ff0     uuid:oaidl_i.obj
 0002:00008000       _IID_ITypeLib2             00461000     uuid:oaidl_i.obj
 0002:00008010       _IID_ITypeLib              00461010     uuid:oaidl_i.obj
 0002:00008020       _IID_ITypeInfo2            00461020     uuid:oaidl_i.obj
 0002:00008030       _IID_ITypeInfo             00461030     uuid:oaidl_i.obj
 0002:00008040       _IID_ITypeComp             00461040     uuid:oaidl_i.obj
 0002:00008050       _IID_IEnumVARIANT          00461050     uuid:oaidl_i.obj
 0002:00008060       _IID_IDispatch             00461060     uuid:oaidl_i.obj
 0002:00008070       _IID_ICreateTypeLib2       00461070     uuid:oaidl_i.obj
 0002:00008080       _IID_ICreateTypeLib        00461080     uuid:oaidl_i.obj
 0002:00008090       _IID_ICreateTypeInfo2      00461090     uuid:oaidl_i.obj
 0002:000080a0       _IID_ICreateTypeInfo       004610a0     uuid:oaidl_i.obj
 0002:000080b0       _SID_SVersionHost          004610b0     uuid:ieguids.obj
 0002:000080c0       _CGID_InternetExplorer     004610c0     uuid:ieguids.obj
 0002:000080d0       _CGID_DownloadHost         004610d0     uuid:ieguids.obj
 0002:000080e0       _CLSID_SubscriptionThrottler 004610e0     uuid:ieguids.obj
 0002:000080f0       _CLSID_HTMLLoadOptions     004610f0     uuid:ieguids.obj
 0002:00008100       _CLSID_InternetZoneManager 00461100     uuid:ieguids.obj
 0002:00008110       _CLSID_InternetSecurityManager 00461110     uuid:ieguids.obj
 0002:00008120       _CLSID_IActiveXSafetyProvider 00461120     uuid:ieguids.obj
 0002:00008130       _CLSID_SoftDistExt         00461130     uuid:ieguids.obj
 0002:00008140       _NAMEDTIMER_DRAW           00461140     uuid:ieguids.obj
 0002:00008150       _IID_IIntDitherer          00461150     uuid:ieguids.obj
 0002:00008160       _CLSID_IntDitherer         00461160     uuid:ieguids.obj
 0002:00008170       _BFID_GRAY_16              00461170     uuid:ieguids.obj
 0002:00008180       _BFID_GRAY_8               00461180     uuid:ieguids.obj
 0002:00008190       _BFID_RGBA_32              00461190     uuid:ieguids.obj
 0002:000081a0       _BFID_RGB_32               004611a0     uuid:ieguids.obj
 0002:000081b0       _BFID_RGB_24               004611b0     uuid:ieguids.obj
 0002:000081c0       _BFID_RGB_565              004611c0     uuid:ieguids.obj
 0002:000081d0       _BFID_RGB_555              004611d0     uuid:ieguids.obj
 0002:000081e0       _BFID_RGB_8                004611e0     uuid:ieguids.obj
 0002:000081f0       _BFID_RGB_4                004611f0     uuid:ieguids.obj
 0002:00008200       _BFID_MONOCHROME           00461200     uuid:ieguids.obj
 0002:00008210       _SID_SHTMLEditServices     00461210     uuid:ieguids.obj
 0002:00008220       _CGID_DocHostCommandHandler 00461220     uuid:ieguids.obj
 0002:00008230       _CLSID_HTMLPluginDocument  00461230     uuid:ieguids.obj
 0002:00008240       _CLSID_HTMLApplication     00461240     uuid:ieguids.obj
 0002:00008250       _CLSID_HTADocument         00461250     uuid:ieguids.obj
 0002:00008260       _CLSID_MHTMLDocument       00461260     uuid:ieguids.obj
 0002:00008270       _CGID_MSHTML               00461270     uuid:ieguids.obj
 0002:00008280       _CLSID_IImageDecodeFilter  00461280     uuid:ieguids.obj
 0002:00008290       _IID_IImgCtx               00461290     uuid:ieguids.obj
 0002:000082a0       _CLSID_IImgCtx             004612a0     uuid:ieguids.obj
 0002:000082b0       _CATID_DesignTimeUIActivatableControl 004612b0     uuid:ieguids.obj
 0002:000082c0       _CATID_SafeForInitializing 004612c0     uuid:ieguids.obj
 0002:000082d0       _CATID_SafeForScripting    004612d0     uuid:ieguids.obj
 0002:000082e0       _CATID_InternetAware       004612e0     uuid:ieguids.obj
 0002:000082f0       _CATID_PersistsToPropertyBag 004612f0     uuid:ieguids.obj
 0002:00008300       _CATID_PersistsToFile      00461300     uuid:ieguids.obj
 0002:00008310       _CATID_PersistsToMemory    00461310     uuid:ieguids.obj
 0002:00008320       _CATID_PersistsToStream    00461320     uuid:ieguids.obj
 0002:00008330       _CATID_PersistsToStreamInit 00461330     uuid:ieguids.obj
 0002:00008340       _CATID_PersistsToStorage   00461340     uuid:ieguids.obj
 0002:00008350       _CATID_PersistsToMoniker   00461350     uuid:ieguids.obj
 0002:00008360       _CATID_RequiresDataPathHost 00461360     uuid:ieguids.obj
 0002:00008370       _CATID_Printable           00461370     uuid:ieguids.obj
 0002:00008380       _CATID_DocObject           00461380     uuid:ieguids.obj
 0002:00008390       _CATID_NeverShowExt        00461390     uuid:ieguids.obj
 0002:000083a0       _CATID_IsShortcut          004613a0     uuid:ieguids.obj
 0002:000083b0       _CATID_Programmable        004613b0     uuid:ieguids.obj
 0002:000083c0       _CATID_Control             004613c0     uuid:ieguids.obj
 0002:000083d0       _CATID_Insertable          004613d0     uuid:ieguids.obj
 0002:000083e0       _CLSID_StdComponentCategoriesMgr 004613e0     uuid:ieguids.obj
 0002:000083f0       _ARRAYID_PathProperties    004613f0     uuid:ieguids.obj
 0002:00008400       _FLAGID_Internet           00461400     uuid:ieguids.obj
 0002:00008410       _OLE_DATAPATH_PENDATA      00461410     uuid:ieguids.obj
 0002:00008420       _OLE_DATAPATH_PALETTE      00461420     uuid:ieguids.obj
 0002:00008430       _OLE_DATAPATH_BIFF         00461430     uuid:ieguids.obj
 0002:00008440       _OLE_DATAPATH_SYLK         00461440     uuid:ieguids.obj
 0002:00008450       _OLE_DATAPATH_DIF          00461450     uuid:ieguids.obj
 0002:00008460       _OLE_DATAPATH_ALLTEXT      00461460     uuid:ieguids.obj
 0002:00008470       _OLE_DATAPATH_POSTSCRIPT   00461470     uuid:ieguids.obj
 0002:00008480       _OLE_DATAPATH_HTML         00461480     uuid:ieguids.obj
 0002:00008490       _OLE_DATAPATH_RTF          00461490     uuid:ieguids.obj
 0002:000084a0       _OLE_DATAPATH_UNICODE      004614a0     uuid:ieguids.obj
 0002:000084b0       _OLE_DATAPATH_ANSITEXT     004614b0     uuid:ieguids.obj
 0002:000084c0       _OLE_DATAPATH_ALLMM        004614c0     uuid:ieguids.obj
 0002:000084d0       _OLE_DATAPATH_VIDEO        004614d0     uuid:ieguids.obj
 0002:000084e0       _OLE_DATAPATH_SOUND        004614e0     uuid:ieguids.obj
 0002:000084f0       _OLE_DATAPATH_RIFF         004614f0     uuid:ieguids.obj
 0002:00008500       _OLE_DATAPATH_WAV          00461500     uuid:ieguids.obj
 0002:00008510       _OLE_DATAPATH_MIDI         00461510     uuid:ieguids.obj
 0002:00008520       _OLE_DATAPATH_BASICAUDIO   00461520     uuid:ieguids.obj
 0002:00008530       _OLE_DATAPATH_QUICKTIME    00461530     uuid:ieguids.obj
 0002:00008540       _OLE_DATAPATH_MPEG         00461540     uuid:ieguids.obj
 0002:00008550       _OLE_DATAPATH_AVI          00461550     uuid:ieguids.obj
 0002:00008560       _OLE_DATAPATH_ALLIMAGE     00461560     uuid:ieguids.obj
 0002:00008570       _OLE_DATAPATH_COMMONIMAGE  00461570     uuid:ieguids.obj
 0002:00008580       _OLE_DATAPATH_EPS          00461580     uuid:ieguids.obj
 0002:00008590       _OLE_DATAPATH_CGM          00461590     uuid:ieguids.obj
 0002:000085a0       _OLE_DATAPATH_PICT         004615a0     uuid:ieguids.obj
 0002:000085b0       _OLE_DATAPATH_PCX          004615b0     uuid:ieguids.obj
 0002:000085c0       _OLE_DATAPATH_XBM          004615c0     uuid:ieguids.obj
 0002:000085d0       _OLE_DATAPATH_TIFF         004615d0     uuid:ieguids.obj
 0002:000085e0       _OLE_DATAPATH_JPEG         004615e0     uuid:ieguids.obj
 0002:000085f0       _OLE_DATAPATH_GIF          004615f0     uuid:ieguids.obj
 0002:00008600       _OLE_DATAPATH_ENHMF        00461600     uuid:ieguids.obj
 0002:00008610       _OLE_DATAPATH_WMF          00461610     uuid:ieguids.obj
 0002:00008620       _OLE_DATAPATH_DIB          00461620     uuid:ieguids.obj
 0002:00008630       _OLE_DATAPATH_BMP          00461630     uuid:ieguids.obj
 0002:00008640       _CLSID_StdHlinkBrowseContext 00461640     uuid:ieguids.obj
 0002:00008650       _CLSID_StdHlink            00461650     uuid:ieguids.obj
 0002:00008660       _GUID_HasPathProperties    00461660     uuid:ieguids.obj
 0002:00008670       _GUID_PathProperty         00461670     uuid:ieguids.obj
 0002:00008680       _SID_SDataPathBrowser      00461680     uuid:ieguids.obj
 0002:00008690       _SID_SContainerDispatch    00461690     uuid:ieguids.obj
 0002:000086a0       _IID_IAccessible           004616a0     uuid:ieguids.obj
 0002:000086b0       _LIBID_Accessibility       004616b0     uuid:ieguids.obj
 0002:000086c0       _CLSID_ClassInstallFilter  004616c0     uuid:ieguids.obj
 0002:000086d0       _CLSID_CdlProtocol         004616d0     uuid:ieguids.obj
 0002:000086e0       _CLSID_DeCompMimeFilter    004616e0     uuid:ieguids.obj
 0002:000086f0       _CLSID_StdEncodingFilterFac 004616f0     uuid:ieguids.obj
 0002:00008700       _CLSID_NotificaitonTest4   00461700     uuid:ieguids.obj
 0002:00008710       _CLSID_NotificaitonTest3   00461710     uuid:ieguids.obj
 0002:00008720       _CLSID_NotificaitonTest2   00461720     uuid:ieguids.obj
 0002:00008730       _CLSID_NotificaitonTest1   00461730     uuid:ieguids.obj
 0002:00008740       _NOTIFICATIONTYPE_START_F  00461740     uuid:ieguids.obj
 0002:00008750       _NOTIFICATIONTYPE_START_E  00461750     uuid:ieguids.obj
 0002:00008760       _NOTIFICATIONTYPE_START_D  00461760     uuid:ieguids.obj
 0002:00008770       _NOTIFICATIONTYPE_START_C  00461770     uuid:ieguids.obj
 0002:00008780       _NOTIFICATIONTYPE_START_B  00461780     uuid:ieguids.obj
 0002:00008790       _NOTIFICATIONTYPE_START_A  00461790     uuid:ieguids.obj
 0002:000087a0       _NOTIFICATIONTYPE_START_9  004617a0     uuid:ieguids.obj
 0002:000087b0       _NOTIFICATIONTYPE_START_8  004617b0     uuid:ieguids.obj
 0002:000087c0       _NOTIFICATIONTYPE_START_7  004617c0     uuid:ieguids.obj
 0002:000087d0       _NOTIFICATIONTYPE_START_6  004617d0     uuid:ieguids.obj
 0002:000087e0       _NOTIFICATIONTYPE_START_5  004617e0     uuid:ieguids.obj
 0002:000087f0       _NOTIFICATIONTYPE_START_4  004617f0     uuid:ieguids.obj
 0002:00008800       _NOTIFICATIONTYPE_START_3  00461800     uuid:ieguids.obj
 0002:00008810       _NOTIFICATIONTYPE_START_2  00461810     uuid:ieguids.obj
 0002:00008820       _NOTIFICATIONTYPE_START_1  00461820     uuid:ieguids.obj
 0002:00008830       _NOTIFICATIONTYPE_START_0  00461830     uuid:ieguids.obj
 0002:00008840       _NOTIFICATIONTYPE_15       00461840     uuid:ieguids.obj
 0002:00008850       _NOTIFICATIONTYPE_14       00461850     uuid:ieguids.obj
 0002:00008860       _NOTIFICATIONTYPE_13       00461860     uuid:ieguids.obj
 0002:00008870       _NOTIFICATIONTYPE_12       00461870     uuid:ieguids.obj
 0002:00008880       _NOTIFICATIONTYPE_11       00461880     uuid:ieguids.obj
 0002:00008890       _NOTIFICATIONTYPE_f        00461890     uuid:ieguids.obj
 0002:000088a0       _NOTIFICATIONTYPE_e        004618a0     uuid:ieguids.obj
 0002:000088b0       _NOTIFICATIONTYPE_d        004618b0     uuid:ieguids.obj
 0002:000088c0       _NOTIFICATIONTYPE_TASKS_ERROR 004618c0     uuid:ieguids.obj
 0002:000088d0       _NOTIFICATIONTYPE_TASKS_STARTED 004618d0     uuid:ieguids.obj
 0002:000088e0       _NOTIFICATIONTYPE_USER_IDLE_END 004618e0     uuid:ieguids.obj
 0002:000088f0       _NOTIFICATIONTYPE_USER_IDLE_BEGIN 004618f0     uuid:ieguids.obj
 0002:00008900       _NOTIFICATIONTYPE_PROGRESS_REPORT 00461900     uuid:ieguids.obj
 0002:00008910       _NOTIFICATIONTYPE_CONFIG_CHANGED 00461910     uuid:ieguids.obj
 0002:00008920       _NOTIFICATIONTYPE_DISCONNECT_FROM_INTERNET 00461920     uuid:ieguids.obj
 0002:00008930       _NOTIFICATIONTYPE_CONNECT_TO_INTERNET 00461930     uuid:ieguids.obj
 0002:00008940       _NOTIFICATIONTYPE_AGENT_INIT 00461940     uuid:ieguids.obj
 0002:00008950       _NOTIFICATIONTYPE_END_REPORT 00461950     uuid:ieguids.obj
 0002:00008960       _NOTIFICATIONTYPE_BEGIN_REPORT 00461960     uuid:ieguids.obj
 0002:00008970       _NOTIFICATIONTYPE_AGENT_START 00461970     uuid:ieguids.obj
 0002:00008980       _NOTIFICATIONTYPE_TASKS_PROGRESS 00461980     uuid:ieguids.obj
 0002:00008990       _NOTIFICATIONTYPE_TASKS_COMPLETED 00461990     uuid:ieguids.obj
 0002:000089a0       _NOTIFICATIONTYPE_TASKS_ABORT 004619a0     uuid:ieguids.obj
 0002:000089b0       _NOTIFICATIONTYPE_TASKS_RESUME 004619b0     uuid:ieguids.obj
 0002:000089c0       _NOTIFICATIONTYPE_TASKS_SUSPEND 004619c0     uuid:ieguids.obj
 0002:000089d0       _NOTIFICATIONTYPE_INET_ONLINE 004619d0     uuid:ieguids.obj
 0002:000089e0       _NOTIFICATIONTYPE_INET_OFFLINE 004619e0     uuid:ieguids.obj
 0002:000089f0       _NOTIFICATIONTYPE_INET_IDLE 004619f0     uuid:ieguids.obj
 0002:00008a00       _NOTIFICATIONTYPE_ALERT    00461a00     uuid:ieguids.obj
 0002:00008a10       _NOTIFICATIONTYPE_TASK     00461a10     uuid:ieguids.obj
 0002:00008a20       _NOTIFICATIONTYPE_ANOUNCMENT 00461a20     uuid:ieguids.obj
 0002:00008a30       _NOTIFICATIONTYPE_NULL     00461a30     uuid:ieguids.obj
 0002:00008a40       _NOTFCOOKIE_SCHEDULE_GROUP_MANUAL 00461a40     uuid:ieguids.obj
 0002:00008a50       _NOTFCOOKIE_SCHEDULE_GROUP_MONTHLY 00461a50     uuid:ieguids.obj
 0002:00008a60       _NOTFCOOKIE_SCHEDULE_GROUP_WEEKLY 00461a60     uuid:ieguids.obj
 0002:00008a70       _NOTFCOOKIE_SCHEDULE_GROUP_DAILY 00461a70     uuid:ieguids.obj
 0002:00008a80       _NOTIFICATIONTYPE_iF       00461a80     uuid:ieguids.obj
 0002:00008a90       _NOTIFICATIONTYPE_iE       00461a90     uuid:ieguids.obj
 0002:00008aa0       _NOTIFICATIONTYPE_iD       00461aa0     uuid:ieguids.obj
 0002:00008ab0       _NOTIFICATIONTYPE_iC       00461ab0     uuid:ieguids.obj
 0002:00008ac0       _NOTIFICATIONTYPE_iB       00461ac0     uuid:ieguids.obj
 0002:00008ad0       _NOTIFICATIONTYPE_iA       00461ad0     uuid:ieguids.obj
 0002:00008ae0       _NOTIFICATIONTYPE_i9       00461ae0     uuid:ieguids.obj
 0002:00008af0       _NOTIFICATIONTYPE_i8       00461af0     uuid:ieguids.obj
 0002:00008b00       _NOTIFICATIONTYPE_i7       00461b00     uuid:ieguids.obj
 0002:00008b10       _NOTIFICATIONTYPE_i6       00461b10     uuid:ieguids.obj
 0002:00008b20       _NOTIFICATIONTYPE_GROUP_DONE 00461b20     uuid:ieguids.obj
 0002:00008b30       _NOTIFICATIONTYPE_GROUP_RESTART 00461b30     uuid:ieguids.obj
 0002:00008b40       _NOTIFICATIONTYPE_GROUP_START 00461b40     uuid:ieguids.obj
 0002:00008b50       _NOTIFICATIONTYPE_ITEM_DONE 00461b50     uuid:ieguids.obj
 0002:00008b60       _NOTIFICATIONTYPE_ITEM_RESTART 00461b60     uuid:ieguids.obj
 0002:00008b70       _NOTIFICATIONTYPE_ITEM_START 00461b70     uuid:ieguids.obj
 0002:00008b80       _CLSID_d                   00461b80     uuid:ieguids.obj
 0002:00008b90       _CLSID_c                   00461b90     uuid:ieguids.obj
 0002:00008ba0       _CLSID_b                   00461ba0     uuid:ieguids.obj
 0002:00008bb0       _CLSID_a                   00461bb0     uuid:ieguids.obj
 0002:00008bc0       _CLSID_9                   00461bc0     uuid:ieguids.obj
 0002:00008bd0       _CLSID_8                   00461bd0     uuid:ieguids.obj
 0002:00008be0       _CLSID_7                   00461be0     uuid:ieguids.obj
 0002:00008bf0       _CLSID_6                   00461bf0     uuid:ieguids.obj
 0002:00008c00       _CLSID_5                   00461c00     uuid:ieguids.obj
 0002:00008c10       _CLSID_4                   00461c10     uuid:ieguids.obj
 0002:00008c20       _CLSID_3                   00461c20     uuid:ieguids.obj
 0002:00008c30       _CLSID_2                   00461c30     uuid:ieguids.obj
 0002:00008c40       _CLSID_1                   00461c40     uuid:ieguids.obj
 0002:00008c50       _CLSID_THREAD_BROADCAST    00461c50     uuid:ieguids.obj
 0002:00008c60       _CLSID_PROCESS_BROADCAST   00461c60     uuid:ieguids.obj
 0002:00008c70       _CLSID_GLOBAL_BROADCAST    00461c70     uuid:ieguids.obj
 0002:00008c80       _IID_IOInetProtocolInfo    00461c80     uuid:ieguids.obj
 0002:00008c90       _IID_IOInetPriority        00461c90     uuid:ieguids.obj
 0002:00008ca0       _IID_IOInetCache           00461ca0     uuid:ieguids.obj
 0002:00008cb0       _IID_IOInetThreadSwitch    00461cb0     uuid:ieguids.obj
 0002:00008cc0       _IID_IOInetSession         00461cc0     uuid:ieguids.obj
 0002:00008cd0       _IID_IOInetProtocolSink    00461cd0     uuid:ieguids.obj
 0002:00008ce0       _IID_IOInetProtocol        00461ce0     uuid:ieguids.obj
 0002:00008cf0       _IID_IOInetProtocolRoot    00461cf0     uuid:ieguids.obj
 0002:00008d00       _IID_IOInetBindClient      00461d00     uuid:ieguids.obj
 0002:00008d10       _IID_IOInetBindInfo        00461d10     uuid:ieguids.obj
 0002:00008d20       _IID_IOInet                00461d20     uuid:ieguids.obj
 0002:00008d30       _IID_INotificationProcessMgr0 00461d30     uuid:ieguids.obj
 0002:00008d40       _IID_INotificationRunning  00461d40     uuid:ieguids.obj
 0002:00008d50       _IID_INotificationPing     00461d50     uuid:ieguids.obj
 0002:00008d60       _IID_INotificationHelper   00461d60     uuid:ieguids.obj
 0002:00008d70       _IID_IEnumNotificationSinkItem 00461d70     uuid:ieguids.obj
 0002:00008d80       _IID_IEnumScheduleGroup    00461d80     uuid:ieguids.obj
 0002:00008d90       _IID_IEnumNotification     00461d90     uuid:ieguids.obj
 0002:00008da0       _IID_INotificationReport   00461da0     uuid:ieguids.obj
 0002:00008db0       _IID_IScheduleGroup        00461db0     uuid:ieguids.obj
 0002:00008dc0       _IID_INotificationSink     00461dc0     uuid:ieguids.obj
 0002:00008dd0       _IID_INotificationMgr      00461dd0     uuid:ieguids.obj
 0002:00008de0       _IID_INotification         00461de0     uuid:ieguids.obj
 0002:00008df0       _IID_IPropertyMap          00461df0     uuid:ieguids.obj
 0002:00008e00       _IID_IEnumPropertyMap      00461e00     uuid:ieguids.obj
 0002:00008e10       _CLSID_WebCheckDefaultProcess 00461e10     uuid:ieguids.obj
 0002:00008e20       _CLSID_StdNotificationMgr  00461e20     uuid:ieguids.obj
 0002:00008e30       _IID_IDebugOut             00461e30     uuid:ieguids.obj
 0002:00008e40       _IID_IDebugRegister        00461e40     uuid:ieguids.obj
 0002:00008e50       _IID_IBindStatusCallbackMsg 00461e50     uuid:ieguids.obj
 0002:00008e60       _IID_IAsyncBindCtx         00461e60     uuid:ieguids.obj
 0002:00008e70       _IID_IBindStatusCallbackHolder 00461e70     uuid:ieguids.obj
 0002:00008e80       _IID_IAsyncMoniker         00461e80     uuid:ieguids.obj
 0002:00008e90       _CLSID_AboutProtocol       00461e90     uuid:ieguids.obj
 0002:00008ea0       _CLSID_ResProtocol         00461ea0     uuid:ieguids.obj
 0002:00008eb0       _CLSID_UrlMkBindCtx        00461eb0     uuid:ieguids.obj
 0002:00008ec0       _CLSID_PSUrlMonProxy       00461ec0     uuid:ieguids.obj
 0002:00008ed0       _CLSID_FileProtocol        00461ed0     uuid:ieguids.obj
 0002:00008ee0       _CLSID_MkProtocol          00461ee0     uuid:ieguids.obj
 0002:00008ef0       _CLSID_HttpSProtocol       00461ef0     uuid:ieguids.obj
 0002:00008f00       _CLSID_GopherProtocol      00461f00     uuid:ieguids.obj
 0002:00008f10       _CLSID_FtpProtocol         00461f10     uuid:ieguids.obj
 0002:00008f20       _CLSID_HttpProtocol        00461f20     uuid:ieguids.obj
 0002:00008f30       _CLSID_StdURLProtocol      00461f30     uuid:ieguids.obj
 0002:00008f40       _CLSID_StdURLMoniker       00461f40     uuid:ieguids.obj
 0002:00008f6c       ??_C@_0DF@FKILAAGL@Load?5failed?5due?5to?5incompatible?5@ 00461f6c     libcmt:checkclr.obj
 0002:00008fa4       ??_C@_0P@GOIJDIPK@GetFileVersion?$AA@ 00461fa4     libcmt:checkclr.obj
 0002:00008fb4       ??_C@_0BG@OFDLOIGJ@GetCORSystemDirectory?$AA@ 00461fb4     libcmt:checkclr.obj
 0002:00008fe0       __load_config_used         00461fe0     libcmt:loadcfg.obj
 0002:0000fb24       ??_R1A@?0A@A@CObject@@8    00468b24     nafxcw:olemisc.obj
 0002:0000fb3c       ??_R1A@?0A@A@CException@@8 00468b3c     nafxcw:olemisc.obj
 0002:0000fb54       ??_R1A@?0A@A@COleException@@8 00468b54     nafxcw:olemisc.obj
 0002:0000fb6c       ??_R2COleException@@8      00468b6c     nafxcw:olemisc.obj
 0002:0000fb7c       ??_R3COleException@@8      00468b7c     nafxcw:olemisc.obj
 0002:0000fb8c       ??_R4COleException@@6B@    00468b8c     nafxcw:olemisc.obj
 0002:0000fba0       ??_R1A@?0A@A@CSimpleException@@8 00468ba0     nafxcw:except.obj
 0002:0000fbb8       ??_R1A@?0A@A@CMemoryException@@8 00468bb8     nafxcw:except.obj
 0002:0000fbd0       ??_R2CMemoryException@@8   00468bd0     nafxcw:except.obj
 0002:0000fbe4       ??_R3CMemoryException@@8   00468be4     nafxcw:except.obj
 0002:0000fbf4       ??_R4CMemoryException@@6B@ 00468bf4     nafxcw:except.obj
 0002:0000fc08       ??_R1A@?0A@A@CNotSupportedException@@8 00468c08     nafxcw:except.obj
 0002:0000fc20       ??_R2CNotSupportedException@@8 00468c20     nafxcw:except.obj
 0002:0000fc34       ??_R3CNotSupportedException@@8 00468c34     nafxcw:except.obj
 0002:0000fc44       ??_R4CNotSupportedException@@6B@ 00468c44     nafxcw:except.obj
 0002:0000fc58       ??_R1A@?0A@A@CInvalidArgException@@8 00468c58     nafxcw:except.obj
 0002:0000fc70       ??_R2CInvalidArgException@@8 00468c70     nafxcw:except.obj
 0002:0000fc84       ??_R3CInvalidArgException@@8 00468c84     nafxcw:except.obj
 0002:0000fc94       ??_R4CInvalidArgException@@6B@ 00468c94     nafxcw:except.obj
 0002:0000fca8       ??_R1A@?0A@A@IAtlStringMgr@ATL@@8 00468ca8     nafxcw:strcore.obj
 0002:0000fcc0       ??_R1A@?0A@A@CAfxStringMgr@@8 00468cc0     nafxcw:strcore.obj
 0002:0000fcd8       ??_R2CAfxStringMgr@@8      00468cd8     nafxcw:strcore.obj
 0002:0000fce4       ??_R3CAfxStringMgr@@8      00468ce4     nafxcw:strcore.obj
 0002:0000fcf4       ??_R4CAfxStringMgr@@6B@    00468cf4     nafxcw:strcore.obj
 0002:0000fd08       ??_R1A@?0A@A@IUnknown@@8   00468d08     nafxcw:oleunk.obj
 0002:0000fd20       ??_R1A@?0A@A@CInnerUnknown@@8 00468d20     nafxcw:oleunk.obj
 0002:0000fd38       ??_R2CInnerUnknown@@8      00468d38     nafxcw:oleunk.obj
 0002:0000fd44       ??_R3CInnerUnknown@@8      00468d44     nafxcw:oleunk.obj
 0002:0000fd54       ??_R4CInnerUnknown@@6B@    00468d54     nafxcw:oleunk.obj
 0002:0000fd68       ??_R1A@?0A@A@CNoTrackObject@@8 00468d68     nafxcw:afxstate.obj
 0002:0000fd80       ??_R1A@?0A@A@_AFX_THREAD_STATE@@8 00468d80     nafxcw:afxstate.obj
 0002:0000fd98       ??_R2_AFX_THREAD_STATE@@8  00468d98     nafxcw:afxstate.obj
 0002:0000fda4       ??_R3_AFX_THREAD_STATE@@8  00468da4     nafxcw:afxstate.obj
 0002:0000fdb4       ??_R4_AFX_THREAD_STATE@@6B@ 00468db4     nafxcw:afxstate.obj
 0002:0000fdc8       ??_R1A@?0A@A@AFX_MODULE_STATE@@8 00468dc8     nafxcw:afxstate.obj
 0002:0000fde0       ??_R2AFX_MODULE_STATE@@8   00468de0     nafxcw:afxstate.obj
 0002:0000fdec       ??_R3AFX_MODULE_STATE@@8   00468dec     nafxcw:afxstate.obj
 0002:0000fdfc       ??_R4AFX_MODULE_STATE@@6B@ 00468dfc     nafxcw:afxstate.obj
 0002:0000fe10       ??_R1A@?0A@A@AFX_MODULE_THREAD_STATE@@8 00468e10     nafxcw:afxstate.obj
 0002:0000fe28       ??_R2AFX_MODULE_THREAD_STATE@@8 00468e28     nafxcw:afxstate.obj
 0002:0000fe34       ??_R3AFX_MODULE_THREAD_STATE@@8 00468e34     nafxcw:afxstate.obj
 0002:0000fe44       ??_R4AFX_MODULE_THREAD_STATE@@6B@ 00468e44     nafxcw:afxstate.obj
 0002:0000fe58       ??_R1A@?0A@A@_AFX_BASE_MODULE_STATE@@8 00468e58     nafxcw:afxstate.obj
 0002:0000fe70       ??_R2_AFX_BASE_MODULE_STATE@@8 00468e70     nafxcw:afxstate.obj
 0002:0000fe80       ??_R3_AFX_BASE_MODULE_STATE@@8 00468e80     nafxcw:afxstate.obj
 0002:0000fe90       ??_R4_AFX_BASE_MODULE_STATE@@6B@ 00468e90     nafxcw:afxstate.obj
 0002:0000fea4       ??_R1A@?0A@A@CThreadData@@8 00468ea4     nafxcw:afxtls.obj
 0002:0000febc       ??_R2CThreadData@@8        00468ebc     nafxcw:afxtls.obj
 0002:0000fec8       ??_R3CThreadData@@8        00468ec8     nafxcw:afxtls.obj
 0002:0000fed8       ??_R4CThreadData@@6B@      00468ed8     nafxcw:afxtls.obj
 0002:0000feec       ??_R1A@?0A@A@CArchiveException@@8 00468eec     nafxcw:arcex.obj
 0002:0000ff04       ??_R2CArchiveException@@8  00468f04     nafxcw:arcex.obj
 0002:0000ff14       ??_R3CArchiveException@@8  00468f14     nafxcw:arcex.obj
 0002:0000ff24       ??_R4CArchiveException@@6B@ 00468f24     nafxcw:arcex.obj
 0002:0000ff38       ??_R1A@?0A@A@CMapPtrToPtr@@8 00468f38     nafxcw:map_pp.obj
 0002:0000ff50       ??_R2CMapPtrToPtr@@8       00468f50     nafxcw:map_pp.obj
 0002:0000ff5c       ??_R3CMapPtrToPtr@@8       00468f5c     nafxcw:map_pp.obj
 0002:0000ff6c       ??_R4CMapPtrToPtr@@6B@     00468f6c     nafxcw:map_pp.obj
 0002:0000ff80       ??_R1A@?0A@A@CPtrList@@8   00468f80     nafxcw:list_p.obj
 0002:0000ff98       ??_R2CPtrList@@8           00468f98     nafxcw:list_p.obj
 0002:0000ffa4       ??_R3CPtrList@@8           00468fa4     nafxcw:list_p.obj
 0002:0000ffb4       ??_R4CPtrList@@6B@         00468fb4     nafxcw:list_p.obj
 0002:0000ffc8       ??_R1A@?0A@A@CCmdTarget@@8 00468fc8     nafxcw:thrdcore.obj
 0002:0000ffe0       ??_R1A@?0A@A@CWinThread@@8 00468fe0     nafxcw:thrdcore.obj
 0002:0000fff8       ??_R2CWinThread@@8         00468ff8     nafxcw:thrdcore.obj
 0002:00010008       ??_R3CWinThread@@8         00469008     nafxcw:thrdcore.obj
 0002:00010018       ??_R4CWinThread@@6B@       00469018     nafxcw:thrdcore.obj
 0002:0001002c       ??_R1A@?0A@A@CByteArray@@8 0046902c     nafxcw:array_b.obj
 0002:00010044       ??_R2CByteArray@@8         00469044     nafxcw:array_b.obj
 0002:00010050       ??_R3CByteArray@@8         00469050     nafxcw:array_b.obj
 0002:00010060       ??_R4CByteArray@@6B@       00469060     nafxcw:array_b.obj
 0002:00010074       ??_R1A@?0A@A@ISequentialStream@@8 00469074     nafxcw:arcstrm.obj
 0002:0001008c       ??_R1A@?0A@A@IStream@@8    0046908c     nafxcw:arcstrm.obj
 0002:000100a4       ??_R1A@?0A@A@CArchiveStream@@8 004690a4     nafxcw:arcstrm.obj
 0002:000100bc       ??_R2CArchiveStream@@8     004690bc     nafxcw:arcstrm.obj
 0002:000100d0       ??_R3CArchiveStream@@8     004690d0     nafxcw:arcstrm.obj
 0002:000100e0       ??_R4CArchiveStream@@6B@   004690e0     nafxcw:arcstrm.obj
 0002:000100f4       ??_R1A@?0A@A@CCmdUI@@8     004690f4     nafxcw:cmdtarg.obj
 0002:0001010c       ??_R2CCmdUI@@8             0046910c     nafxcw:cmdtarg.obj
 0002:00010114       ??_R3CCmdUI@@8             00469114     nafxcw:cmdtarg.obj
 0002:00010124       ??_R4CCmdUI@@6B@           00469124     nafxcw:cmdtarg.obj
 0002:00010138       ??_R1A@?0A@A@CHandleMap@@8 00469138     nafxcw:winhand.obj
 0002:00010150       ??_R2CHandleMap@@8         00469150     nafxcw:winhand.obj
 0002:00010158       ??_R3CHandleMap@@8         00469158     nafxcw:winhand.obj
 0002:00010168       ??_R4CHandleMap@@6B@       00469168     nafxcw:winhand.obj
 0002:0001017c       ??_R1A@?0A@A@XAccessible@CWnd@@8 0046917c     nafxcw:wincore.obj
 0002:00010194       ??_R2XAccessible@CWnd@@8   00469194     nafxcw:wincore.obj
 0002:0001019c       ??_R3XAccessible@CWnd@@8   0046919c     nafxcw:wincore.obj
 0002:000101ac       ??_R4XAccessible@CWnd@@6B@ 004691ac     nafxcw:wincore.obj
 0002:000101c0       ??_R1A@?0A@A@XAccessibleServer@CWnd@@8 004691c0     nafxcw:wincore.obj
 0002:000101d8       ??_R2XAccessibleServer@CWnd@@8 004691d8     nafxcw:wincore.obj
 0002:000101e0       ??_R3XAccessibleServer@CWnd@@8 004691e0     nafxcw:wincore.obj
 0002:000101f0       ??_R4XAccessibleServer@CWnd@@6B@ 004691f0     nafxcw:wincore.obj
 0002:00010204       ??_R1A@?0A@A@CWnd@@8       00469204     nafxcw:wincore.obj
 0002:0001021c       ??_R2CWnd@@8               0046921c     nafxcw:wincore.obj
 0002:0001022c       ??_R3CWnd@@8               0046922c     nafxcw:wincore.obj
 0002:0001023c       ??_R4CWnd@@6B@             0046923c     nafxcw:wincore.obj
 0002:00010250       ??_R1A@?0A@A@_AFX_HTMLHELP_STATE@@8 00469250     nafxcw:wincore.obj
 0002:00010268       ??_R2_AFX_HTMLHELP_STATE@@8 00469268     nafxcw:wincore.obj
 0002:00010274       ??_R3_AFX_HTMLHELP_STATE@@8 00469274     nafxcw:wincore.obj
 0002:00010284       ??_R4_AFX_HTMLHELP_STATE@@6B@ 00469284     nafxcw:wincore.obj
 0002:00010298       ??_R1A@?0A@A@CTestCmdUI@@8 00469298     nafxcw:wincore.obj
 0002:000102b0       ??_R2CTestCmdUI@@8         004692b0     nafxcw:wincore.obj
 0002:000102bc       ??_R3CTestCmdUI@@8         004692bc     nafxcw:wincore.obj
 0002:000102cc       ??_R4CTestCmdUI@@6B@       004692cc     nafxcw:wincore.obj
 0002:000102e0       ??_R4?$IAccessibleProxyImpl@VCAccessibleProxy@ATL@@@ATL@@6BIAccessibleProxy@@@ 004692e0     nafxcw:wincore.obj
 0002:000102f4       ??_R13?0A@1IUnknown@@8     004692f4     nafxcw:wincore.obj
 0002:0001030c       ??_R13?0A@A@IAccessibleProxy@@8 0046930c     nafxcw:wincore.obj
 0002:00010324       ??_R1A@?0A@1IUnknown@@8    00469324     nafxcw:wincore.obj
 0002:0001033c       ??_R1A@?0A@A@IDispatch@@8  0046933c     nafxcw:wincore.obj
 0002:00010354       ??_R1A@?0A@A@IAccessible@@8 00469354     nafxcw:wincore.obj
 0002:0001036c       ??_R1A@?0A@A@?$IAccessibleProxyImpl@VCAccessibleProxy@ATL@@@ATL@@8 0046936c     nafxcw:wincore.obj
 0002:00010384       ??_R2?$IAccessibleProxyImpl@VCAccessibleProxy@ATL@@@ATL@@8 00469384     nafxcw:wincore.obj
 0002:000103a0       ??_R3?$IAccessibleProxyImpl@VCAccessibleProxy@ATL@@@ATL@@8 004693a0     nafxcw:wincore.obj
 0002:000103b0       ??_R4?$IAccessibleProxyImpl@VCAccessibleProxy@ATL@@@ATL@@6BIAccessible@@@ 004693b0     nafxcw:wincore.obj
 0002:000103c4       ??_R4?$CMFCComObject@VCAccessibleProxy@ATL@@@@6B@ 004693c4     nafxcw:wincore.obj
 0002:000103d8       ??_R4?$CMFCComObject@VCAccessibleProxy@ATL@@@@6BIAccessibleProxy@@@ 004693d8     nafxcw:wincore.obj
 0002:000103ec       ??_R1BA@?0A@1IUnknown@@8   004693ec     nafxcw:wincore.obj
 0002:00010404       ??_R1BA@?0A@A@IOleWindow@@8 00469404     nafxcw:wincore.obj
 0002:0001041c       ??_R1BE@?0A@A@CComObjectRootBase@ATL@@8 0046941c     nafxcw:wincore.obj
 0002:00010434       ??_R1BE@?0A@A@?$CComObjectRootEx@VCComSingleThreadModel@ATL@@@ATL@@8 00469434     nafxcw:wincore.obj
 0002:0001044c       ??_R1A@?0A@A@CAccessibleProxy@ATL@@8 0046944c     nafxcw:wincore.obj
 0002:00010464       ??_R1A@?0A@A@?$CMFCComObject@VCAccessibleProxy@ATL@@@@8 00469464     nafxcw:wincore.obj
 0002:0001047c       ??_R2?$CMFCComObject@VCAccessibleProxy@ATL@@@@8 0046947c     nafxcw:wincore.obj
 0002:000104b0       ??_R3?$CMFCComObject@VCAccessibleProxy@ATL@@@@8 004694b0     nafxcw:wincore.obj
 0002:000104c0       ??_R4?$CMFCComObject@VCAccessibleProxy@ATL@@@@6BIAccessible@@@ 004694c0     nafxcw:wincore.obj
 0002:000104d4       ??_R1A@?0A@A@CResourceException@@8 004694d4     nafxcw:wingdi.obj
 0002:000104ec       ??_R2CResourceException@@8 004694ec     nafxcw:wingdi.obj
 0002:00010500       ??_R3CResourceException@@8 00469500     nafxcw:wingdi.obj
 0002:00010510       ??_R4CResourceException@@6B@ 00469510     nafxcw:wingdi.obj
 0002:00010524       ??_R1A@?0A@A@CUserException@@8 00469524     nafxcw:wingdi.obj
 0002:0001053c       ??_R2CUserException@@8     0046953c     nafxcw:wingdi.obj
 0002:00010550       ??_R3CUserException@@8     00469550     nafxcw:wingdi.obj
 0002:00010560       ??_R4CUserException@@6B@   00469560     nafxcw:wingdi.obj
 0002:00010574       ??_R1A@?0A@A@CGdiObject@@8 00469574     nafxcw:wingdi.obj
 0002:0001058c       ??_R2CGdiObject@@8         0046958c     nafxcw:wingdi.obj
 0002:00010598       ??_R3CGdiObject@@8         00469598     nafxcw:wingdi.obj
 0002:000105a8       ??_R4CGdiObject@@6B@       004695a8     nafxcw:wingdi.obj
 0002:000105bc       ??_R1A@?0A@A@CDC@@8        004695bc     nafxcw:wingdi.obj
 0002:000105d4       ??_R2CDC@@8                004695d4     nafxcw:wingdi.obj
 0002:000105e0       ??_R3CDC@@8                004695e0     nafxcw:wingdi.obj
 0002:000105f0       ??_R4CDC@@6B@              004695f0     nafxcw:wingdi.obj
 0002:00010604       ??_R1A@?0A@A@CClientDC@@8  00469604     nafxcw:wingdi.obj
 0002:0001061c       ??_R2CClientDC@@8          0046961c     nafxcw:wingdi.obj
 0002:0001062c       ??_R3CClientDC@@8          0046962c     nafxcw:wingdi.obj
 0002:0001063c       ??_R4CClientDC@@6B@        0046963c     nafxcw:wingdi.obj
 0002:00010650       ??_R1A@?0A@A@CWindowDC@@8  00469650     nafxcw:wingdi.obj
 0002:00010668       ??_R2CWindowDC@@8          00469668     nafxcw:wingdi.obj
 0002:00010678       ??_R3CWindowDC@@8          00469678     nafxcw:wingdi.obj
 0002:00010688       ??_R4CWindowDC@@6B@        00469688     nafxcw:wingdi.obj
 0002:0001069c       ??_R1A@?0A@A@CPaintDC@@8   0046969c     nafxcw:wingdi.obj
 0002:000106b4       ??_R2CPaintDC@@8           004696b4     nafxcw:wingdi.obj
 0002:000106c4       ??_R3CPaintDC@@8           004696c4     nafxcw:wingdi.obj
 0002:000106d4       ??_R4CPaintDC@@6B@         004696d4     nafxcw:wingdi.obj
 0002:000106e8       ??_R1A@?0A@A@CBrush@@8     004696e8     nafxcw:wingdi.obj
 0002:00010700       ??_R2CBrush@@8             00469700     nafxcw:wingdi.obj
 0002:00010710       ??_R3CBrush@@8             00469710     nafxcw:wingdi.obj
 0002:00010720       ??_R4CBrush@@6B@           00469720     nafxcw:wingdi.obj
 0002:00010734       ??_R1A@?0A@A@CBitmap@@8    00469734     nafxcw:wingdi.obj
 0002:0001074c       ??_R2CBitmap@@8            0046974c     nafxcw:wingdi.obj
 0002:0001075c       ??_R3CBitmap@@8            0046975c     nafxcw:wingdi.obj
 0002:0001076c       ??_R4CBitmap@@6B@          0046976c     nafxcw:wingdi.obj
 0002:00010780       ??_R1A@?0A@A@CPen@@8       00469780     nafxcw:wingdi.obj
 0002:00010798       ??_R2CPen@@8               00469798     nafxcw:wingdi.obj
 0002:000107a8       ??_R3CPen@@8               004697a8     nafxcw:wingdi.obj
 0002:000107b8       ??_R4CPen@@6B@             004697b8     nafxcw:wingdi.obj
 0002:000107cc       ??_R1A@?0A@A@CFont@@8      004697cc     nafxcw:winmenu.obj
 0002:000107e4       ??_R2CFont@@8              004697e4     nafxcw:winmenu.obj
 0002:000107f4       ??_R3CFont@@8              004697f4     nafxcw:winmenu.obj
 0002:00010804       ??_R4CFont@@6B@            00469804     nafxcw:winmenu.obj
 0002:00010818       ??_R1A@?0A@A@CMenu@@8      00469818     nafxcw:winmenu.obj
 0002:00010830       ??_R2CMenu@@8              00469830     nafxcw:winmenu.obj
 0002:0001083c       ??_R3CMenu@@8              0046983c     nafxcw:winmenu.obj
 0002:0001084c       ??_R4CMenu@@6B@            0046984c     nafxcw:winmenu.obj
 0002:00010860       ??_R1A@?0A@A@CChevronOwnerDrawMenu@@8 00469860     nafxcw:winmenu.obj
 0002:00010878       ??_R2CChevronOwnerDrawMenu@@8 00469878     nafxcw:winmenu.obj
 0002:00010888       ??_R3CChevronOwnerDrawMenu@@8 00469888     nafxcw:winmenu.obj
 0002:00010898       ??_R4CChevronOwnerDrawMenu@@6B@ 00469898     nafxcw:winmenu.obj
 0002:000108ac       ??_R1A@?0A@A@CWinApp@@8    004698ac     nafxcw:appcore.obj
 0002:000108c4       ??_R2CWinApp@@8            004698c4     nafxcw:appcore.obj
 0002:000108d8       ??_R3CWinApp@@8            004698d8     nafxcw:appcore.obj
 0002:000108e8       ??_R4CWinApp@@6B@          004698e8     nafxcw:appcore.obj
 0002:000108fc       ??_R1A@?0A@A@CCommandLineInfo@@8 004698fc     nafxcw:appcore.obj
 0002:00010914       ??_R2CCommandLineInfo@@8   00469914     nafxcw:appcore.obj
 0002:00010920       ??_R3CCommandLineInfo@@8   00469920     nafxcw:appcore.obj
 0002:00010930       ??_R4CCommandLineInfo@@6B@ 00469930     nafxcw:appcore.obj
 0002:00010944       ??_R1A@?0A@A@CPtrArray@@8  00469944     nafxcw:array_p.obj
 0002:0001095c       ??_R2CPtrArray@@8          0046995c     nafxcw:array_p.obj
 0002:00010968       ??_R3CPtrArray@@8          00469968     nafxcw:array_p.obj
 0002:00010978       ??_R4CPtrArray@@6B@        00469978     nafxcw:array_p.obj
 0002:0001098c       ??_R1A@?0A@A@CRgn@@8       0046998c     nafxcw:wingdix.obj
 0002:000109a4       ??_R2CRgn@@8               004699a4     nafxcw:wingdix.obj
 0002:000109b4       ??_R3CRgn@@8               004699b4     nafxcw:wingdix.obj
 0002:000109c4       ??_R4CRgn@@6B@             004699c4     nafxcw:wingdix.obj
 0002:000109d8       ??_R1A@?0A@A@CRecentFileList@@8 004699d8     nafxcw:filelist.obj
 0002:000109f0       ??_R2CRecentFileList@@8    004699f0     nafxcw:filelist.obj
 0002:000109f8       ??_R3CRecentFileList@@8    004699f8     nafxcw:filelist.obj
 0002:00010a08       ??_R4CRecentFileList@@6B@  00469a08     nafxcw:filelist.obj
 0002:00010a1c       ??_R1A@?0A@A@CFile@@8      00469a1c     nafxcw:filecore.obj
 0002:00010a34       ??_R2CFile@@8              00469a34     nafxcw:filecore.obj
 0002:00010a40       ??_R3CFile@@8              00469a40     nafxcw:filecore.obj
 0002:00010a50       ??_R4CFile@@6B@            00469a50     nafxcw:filecore.obj
 0002:00010a64       ??_R1A@?0A@A@CFileException@@8 00469a64     nafxcw:filecore.obj
 0002:00010a7c       ??_R2CFileException@@8     00469a7c     nafxcw:filecore.obj
 0002:00010a8c       ??_R3CFileException@@8     00469a8c     nafxcw:filecore.obj
 0002:00010a9c       ??_R4CFileException@@6B@   00469a9c     nafxcw:filecore.obj
 0002:00010ab0       ??_R1A@?0A@A@CDialog@@8    00469ab0     nafxcw:docmgr.obj
 0002:00010ac8       ??_R1A@?0A@A@CNewTypeDlg@@8 00469ac8     nafxcw:docmgr.obj
 0002:00010ae0       ??_R2CNewTypeDlg@@8        00469ae0     nafxcw:docmgr.obj
 0002:00010af8       ??_R3CNewTypeDlg@@8        00469af8     nafxcw:docmgr.obj
 0002:00010b08       ??_R4CNewTypeDlg@@6B@      00469b08     nafxcw:docmgr.obj
 0002:00010b1c       ??_R1A@?0A@A@CDocManager@@8 00469b1c     nafxcw:docmgr.obj
 0002:00010b34       ??_R2CDocManager@@8        00469b34     nafxcw:docmgr.obj
 0002:00010b40       ??_R3CDocManager@@8        00469b40     nafxcw:docmgr.obj
 0002:00010b50       ??_R4CDocManager@@6B@      00469b50     nafxcw:docmgr.obj
 0002:00010b64       ??_R2CDialog@@8            00469b64     nafxcw:dlgcore.obj
 0002:00010b78       ??_R3CDialog@@8            00469b78     nafxcw:dlgcore.obj
 0002:00010b88       ??_R4CDialog@@6B@          00469b88     nafxcw:dlgcore.obj
 0002:00010b9c       ??_R1A@?0A@A@CCommonDialog@@8 00469b9c     nafxcw:dlgfile.obj
 0002:00010bb4       ??_R1A@?0A@A@CFileDialog@@8 00469bb4     nafxcw:dlgfile.obj
 0002:00010bcc       ??_R2CFileDialog@@8        00469bcc     nafxcw:dlgfile.obj
 0002:00010be8       ??_R3CFileDialog@@8        00469be8     nafxcw:dlgfile.obj
 0002:00010bf8       ??_R4CFileDialog@@6B@      00469bf8     nafxcw:dlgfile.obj
 0002:00010c0c       ??_R1A@?0A@A@exception@@8  00469c0c     libcmt:stdexcpt.obj
 0002:00010c24       ??_R2exception@@8          00469c24     libcmt:stdexcpt.obj
 0002:00010c2c       ??_R3exception@@8          00469c2c     libcmt:stdexcpt.obj
 0002:00010c3c       ??_R4exception@@6B@        00469c3c     libcmt:stdexcpt.obj
 0002:00010c50       ??_R1A@?0A@A@bad_cast@@8   00469c50     libcmt:stdexcpt.obj
 0002:00010c68       ??_R2bad_cast@@8           00469c68     libcmt:stdexcpt.obj
 0002:00010c74       ??_R3bad_cast@@8           00469c74     libcmt:stdexcpt.obj
 0002:00010c84       ??_R4bad_cast@@6B@         00469c84     libcmt:stdexcpt.obj
 0002:00010c98       ??_R1A@?0A@A@bad_typeid@@8 00469c98     libcmt:stdexcpt.obj
 0002:00010cb0       ??_R2bad_typeid@@8         00469cb0     libcmt:stdexcpt.obj
 0002:00010cbc       ??_R3bad_typeid@@8         00469cbc     libcmt:stdexcpt.obj
 0002:00010ccc       ??_R4bad_typeid@@6B@       00469ccc     libcmt:stdexcpt.obj
 0002:00010ce0       ??_R1A@?0A@A@__non_rtti_object@@8 00469ce0     libcmt:stdexcpt.obj
 0002:00010cf8       ??_R2__non_rtti_object@@8  00469cf8     libcmt:stdexcpt.obj
 0002:00010d08       ??_R3__non_rtti_object@@8  00469d08     libcmt:stdexcpt.obj
 0002:00010d18       ??_R4__non_rtti_object@@6B@ 00469d18     libcmt:stdexcpt.obj
 0002:00010d2c       ??_R1A@?0A@A@type_info@@8  00469d2c     libcmt:typinfo.obj
 0002:00010d44       ??_R2type_info@@8          00469d44     libcmt:typinfo.obj
 0002:00010d4c       ??_R3type_info@@8          00469d4c     libcmt:typinfo.obj
 0002:00010d5c       ??_R4type_info@@6B@        00469d5c     libcmt:typinfo.obj
 0002:00010d70       ??_R1A@?0A@A@logic_error@std@@8 00469d70     libcpmt:string.obj
 0002:00010d88       ??_R2logic_error@std@@8    00469d88     libcpmt:string.obj
 0002:00010d94       ??_R3logic_error@std@@8    00469d94     libcpmt:string.obj
 0002:00010da4       ??_R4logic_error@std@@6B@  00469da4     libcpmt:string.obj
 0002:00010db8       ??_R1A@?0A@A@length_error@std@@8 00469db8     libcpmt:string.obj
 0002:00010dd0       ??_R2length_error@std@@8   00469dd0     libcpmt:string.obj
 0002:00010de0       ??_R3length_error@std@@8   00469de0     libcpmt:string.obj
 0002:00010df0       ??_R4length_error@std@@6B@ 00469df0     libcpmt:string.obj
 0002:00010e04       ??_R1A@?0A@A@out_of_range@std@@8 00469e04     libcpmt:string.obj
 0002:00010e1c       ??_R2out_of_range@std@@8   00469e1c     libcpmt:string.obj
 0002:00010e2c       ??_R3out_of_range@std@@8   00469e2c     libcpmt:string.obj
 0002:00010e3c       ??_R4out_of_range@std@@6B@ 00469e3c     libcpmt:string.obj
 0002:00010e50       ___safe_se_handler_table   00469e50     <linker-defined>
 0002:000112f0       ___rtc_iaa                 0046a2f0     libcmt:initsect.obj
 0002:000112f4       ___rtc_izz                 0046a2f4     libcmt:initsect.obj
 0002:000112f8       ___rtc_taa                 0046a2f8     libcmt:initsect.obj
 0002:000112fc       ___rtc_tzz                 0046a2fc     libcmt:initsect.obj
 0002:000114b4       __CT??_R0?AVexception@@@8??0exception@@QAE@ABV0@@Z12 0046a4b4     DPCacheSrvr.obj
 0002:000114d0       __CT??_R0?AVlogic_error@std@@@8??0logic_error@std@@QAE@ABV01@@Z40 0046a4d0     DPCacheSrvr.obj
 0002:000114ec       __CT??_R0?AVlength_error@std@@@8??0length_error@std@@QAE@ABV01@@Z40 0046a4ec     DPCacheSrvr.obj
 0002:00011508       __CTA3?AVlength_error@std@@ 0046a508     DPCacheSrvr.obj
 0002:00011518       __TI3?AVlength_error@std@@ 0046a518     DPCacheSrvr.obj
 0002:00011570       __CT??_R0?AVout_of_range@std@@@8??0out_of_range@std@@QAE@ABV01@@Z40 0046a570     DPCacheSrvr.obj
 0002:0001158c       __CTA3?AVout_of_range@std@@ 0046a58c     DPCacheSrvr.obj
 0002:0001159c       __TI3?AVout_of_range@std@@ 0046a59c     DPCacheSrvr.obj
 0002:00012ba0       __CT??_R0PAX@84            0046bba0     nafxcw:olemisc.obj
 0002:00012bbc       __CT??_R0PAVCObject@@@84   0046bbbc     nafxcw:olemisc.obj
 0002:00012bd8       __CT??_R0PAVCException@@@84 0046bbd8     nafxcw:olemisc.obj
 0002:00012bf4       __CT??_R0PAVCOleException@@@84 0046bbf4     nafxcw:olemisc.obj
 0002:00012c10       __CTA4PAVCOleException@@   0046bc10     nafxcw:olemisc.obj
 0002:00012c24       __TI4PAVCOleException@@    0046bc24     nafxcw:olemisc.obj
 0002:00012c7c       __CT??_R0PAVCSimpleException@@@84 0046bc7c     nafxcw:except.obj
 0002:00012c98       __CT??_R0PAVCMemoryException@@@84 0046bc98     nafxcw:except.obj
 0002:00012cb4       __CTA5PAVCMemoryException@@ 0046bcb4     nafxcw:except.obj
 0002:00012ccc       __TI5PAVCMemoryException@@ 0046bccc     nafxcw:except.obj
 0002:00012cdc       __CT??_R0PAVCNotSupportedException@@@84 0046bcdc     nafxcw:except.obj
 0002:00012cf8       __CTA5PAVCNotSupportedException@@ 0046bcf8     nafxcw:except.obj
 0002:00012d10       __TI5PAVCNotSupportedException@@ 0046bd10     nafxcw:except.obj
 0002:00012d20       __CT??_R0PAVCInvalidArgException@@@84 0046bd20     nafxcw:except.obj
 0002:00012d3c       __CTA5PAVCInvalidArgException@@ 0046bd3c     nafxcw:except.obj
 0002:00012d54       __TI5PAVCInvalidArgException@@ 0046bd54     nafxcw:except.obj
 0002:000133e8       __CT??_R0PAVCArchiveException@@@84 0046c3e8     nafxcw:arcex.obj
 0002:00013404       __CTA4PAVCArchiveException@@ 0046c404     nafxcw:arcex.obj
 0002:00013418       __TI4PAVCArchiveException@@ 0046c418     nafxcw:arcex.obj
 0002:00013c50       __CT??_R0PAVCResourceException@@@84 0046cc50     nafxcw:wingdi.obj
 0002:00013c6c       __CTA5PAVCResourceException@@ 0046cc6c     nafxcw:wingdi.obj
 0002:00013c84       __TI5PAVCResourceException@@ 0046cc84     nafxcw:wingdi.obj
 0002:00013c94       __CT??_R0PAVCUserException@@@84 0046cc94     nafxcw:wingdi.obj
 0002:00013cb0       __CTA5PAVCUserException@@  0046ccb0     nafxcw:wingdi.obj
 0002:00013cc8       __TI5PAVCUserException@@   0046ccc8     nafxcw:wingdi.obj
 0002:000144a4       __CT??_R0PAVCFileException@@@84 0046d4a4     nafxcw:filex.obj
 0002:000144c0       __CTA4PAVCFileException@@  0046d4c0     nafxcw:filex.obj
 0002:000144d4       __TI4PAVCFileException@@   0046d4d4     nafxcw:filex.obj
 0002:00014a58       ___pobjMapEntryFirst       0046da58     nafxcw:objcore.obj
 0002:00014a5c       ___pobjMapEntryLast        0046da5c     nafxcw:objcore.obj
 0002:00014a60       __IMPORT_DESCRIPTOR_WS2_32 0046da60     ws2_32:WS2_32.dll
 0002:00014a74       __IMPORT_DESCRIPTOR_WINMM  0046da74     winmm:WINMM.dll
 0002:00014a88       __IMPORT_DESCRIPTOR_KERNEL32 0046da88     kernel32:KERNEL32.dll
 0002:00014a9c       __IMPORT_DESCRIPTOR_USER32 0046da9c     user32:USER32.dll
 0002:00014ab0       __IMPORT_DESCRIPTOR_GDI32  0046dab0     gdi32:GDI32.dll
 0002:00014ac4       __IMPORT_DESCRIPTOR_ADVAPI32 0046dac4     advapi32:ADVAPI32.dll
 0002:00014ad8       __IMPORT_DESCRIPTOR_NeuzD  0046dad8     neuzd:NeuzD.dll
 0002:00014aec       __IMPORT_DESCRIPTOR_COMCTL32 0046daec     comctl32:COMCTL32.dll
 0002:00014b00       __IMPORT_DESCRIPTOR_SHLWAPI 0046db00     shlwapi:SHLWAPI.dll
 0002:00014b14       __IMPORT_DESCRIPTOR_OLEACC 0046db14     oleacc:OLEACC.dll
 0002:00014b28       __IMPORT_DESCRIPTOR_WINSPOOL 0046db28     winspool:WINSPOOL.DRV
 0002:00014b3c       __IMPORT_DESCRIPTOR_comdlg32 0046db3c     comdlg32:comdlg32.dll
 0002:00014b50       __IMPORT_DESCRIPTOR_SHELL32 0046db50     shell32:SHELL32.dll
 0002:00014b64       __IMPORT_DESCRIPTOR_ole32  0046db64     ole32:ole32.dll
 0002:00014b78       __IMPORT_DESCRIPTOR_OLEAUT32 0046db78     oleaut32:OLEAUT32.dll
 0002:00014b8c       __IMPORT_DESCRIPTOR_mscoree 0046db8c     MSCOREE:mscoree.dll
 0002:00014ba0       __IMPORT_DESCRIPTOR_VERSION 0046dba0     VERSION:VERSION.dll
 0002:00014bb4       __NULL_IMPORT_DESCRIPTOR   0046dbb4     ws2_32:WS2_32.dll
 0003:00000000       ___xc_a                    00471000     libcmt:crt0init.obj
 0003:00000004       __pfn_check_commonlanguageruntime_version 00471004     libcmt:checkclr.obj
 0003:00000084       ___xc_z                    00471084     libcmt:crt0init.obj
 0003:00000088       ___xi_a                    00471088     libcmt:crt0init.obj
 0003:0000009c       ___xi_z                    0047109c     libcmt:crt0init.obj
 0003:000000a0       ___xp_a                    004710a0     libcmt:crt0init.obj
 0003:000000a8       ___xp_z                    004710a8     libcmt:crt0init.obj
 0003:000000ac       ___xt_a                    004710ac     libcmt:crt0init.obj
 0003:000000b4       ___xt_z                    004710b4     libcmt:crt0init.obj
 0003:000000c0       ?g_pfnGetThreadACP@ATL@@3P6GIXZA 004710c0     CacheServer.obj
 0003:000000c4       ?g_uPort@@3GA              004710c4     CacheServer.obj
 0003:000000cc       ??_R0?AVexception@@@8      004710cc     DPCacheSrvr.obj
 0003:000000e4       ??_R0?AVlogic_error@std@@@8 004710e4     DPCacheSrvr.obj
 0003:00000104       ??_R0?AVlength_error@std@@@8 00471104     DPCacheSrvr.obj
 0003:00000124       ??_R0?AVout_of_range@std@@@8 00471124     DPCacheSrvr.obj
 0003:0000014c       ?_strthunks@ATL@@3U_AtlStringThunks@1@A 0047114c     StdAfx.obj
 0003:00000170       ?CLASS_TABLE@THAI@@3PAW4CLASS@1@A 00471170     scanner.obj
 0003:00000570       ?COMPOSIBLE@INPUT@THAI@@3PAY04_NA 00471570     scanner.obj
 0003:00000580       ?STATE_CHECK@INPUT@THAI@@3PAY0BB@W4TYPE@12@A 00471580     scanner.obj
 0003:00000a08       ?STATE_CHECK@OUTPUT@THAI@@3PAY0BB@W4TYPE@12@A 00471a08     scanner.obj
 0003:00000e90       ?wVTNToneChar@VTN@@3PAY05GA 00471e90     scanner.obj
 0003:00000fb0       ?wVTNCombiningDia@VTN@@3PAGA 00471fb0     scanner.obj
 0003:000013cc       ??_R0?AVCObject@@@8        004723cc     nafxcw:olemisc.obj
 0003:000013e4       ??_R0?AVCException@@@8     004723e4     nafxcw:olemisc.obj
 0003:00001400       ??_R0?AVCOleException@@@8  00472400     nafxcw:olemisc.obj
 0003:0000141c       ??_R0PAX@8                 0047241c     nafxcw:olemisc.obj
 0003:0000142c       ??_R0PAVCObject@@@8        0047242c     nafxcw:olemisc.obj
 0003:00001444       ??_R0PAVCException@@@8     00472444     nafxcw:olemisc.obj
 0003:00001460       ??_R0PAVCOleException@@@8  00472460     nafxcw:olemisc.obj
 0003:0000147c       ??_R0PAVCSimpleException@@@8 0047247c     nafxcw:except.obj
 0003:0000149c       ??_R0PAVCMemoryException@@@8 0047249c     nafxcw:except.obj
 0003:000014bc       ??_R0PAVCNotSupportedException@@@8 004724bc     nafxcw:except.obj
 0003:000014e4       ??_R0PAVCInvalidArgException@@@8 004724e4     nafxcw:except.obj
 0003:00001508       ??_R0?AVCSimpleException@@@8 00472508     nafxcw:except.obj
 0003:00001528       ??_R0?AVCMemoryException@@@8 00472528     nafxcw:except.obj
 0003:00001548       ??_R0?AVCNotSupportedException@@@8 00472548     nafxcw:except.obj
 0003:00001570       ??_R0?AVCInvalidArgException@@@8 00472570     nafxcw:except.obj
 0003:00001594       ??_R0?AUIAtlStringMgr@ATL@@@8 00472594     nafxcw:strcore.obj
 0003:000015b4       ??_R0?AVCAfxStringMgr@@@8  004725b4     nafxcw:strcore.obj
 0003:000015d0       ?_afxNewHandler@@3P6AHI@ZA 004725d0     nafxcw:afxmem.obj
 0003:000015d4       ??_R0?AUIUnknown@@@8       004725d4     nafxcw:oleunk.obj
 0003:000015ec       ??_R0?AVCInnerUnknown@@@8  004725ec     nafxcw:oleunk.obj
 0003:00001608       ??_R0?AVCNoTrackObject@@@8 00472608     nafxcw:afxstate.obj
 0003:00001628       ??_R0?AV_AFX_THREAD_STATE@@@8 00472628     nafxcw:afxstate.obj
 0003:00001648       ??_R0?AVAFX_MODULE_STATE@@@8 00472648     nafxcw:afxstate.obj
 0003:00001668       ??_R0?AVAFX_MODULE_THREAD_STATE@@@8 00472668     nafxcw:afxstate.obj
 0003:00001690       ??_R0?AV_AFX_BASE_MODULE_STATE@@@8 00472690     nafxcw:afxstate.obj
 0003:000016b8       ??_R0?AUCThreadData@@@8    004726b8     nafxcw:afxtls.obj
 0003:000016d4       ??_R0PAVCArchiveException@@@8 004726d4     nafxcw:arccore.obj
 0003:000016f4       ??_R0?AVCArchiveException@@@8 004726f4     nafxcw:arcex.obj
 0003:00001714       ??_R0?AVCMapPtrToPtr@@@8   00472714     nafxcw:map_pp.obj
 0003:00001730       ??_R0?AVCPtrList@@@8       00472730     nafxcw:list_p.obj
 0003:00001748       ??_R0?AVCCmdTarget@@@8     00472748     nafxcw:thrdcore.obj
 0003:00001764       ??_R0?AVCWinThread@@@8     00472764     nafxcw:thrdcore.obj
 0003:00001780       ?classCByteArray@CByteArray@@2UCRuntimeClass@@A 00472780     nafxcw:array_b.obj
 0003:0000179c       ??_R0?AVCByteArray@@@8     0047279c     nafxcw:array_b.obj
 0003:000017b8       ??_R0?AUISequentialStream@@@8 004727b8     nafxcw:arcstrm.obj
 0003:000017d8       ??_R0?AUIStream@@@8        004727d8     nafxcw:arcstrm.obj
 0003:000017f0       ??_R0?AVCArchiveStream@@@8 004727f0     nafxcw:arcstrm.obj
 0003:00001810       ?_dispatchEntryCount@CCmdTarget@@0IA 00472810     nafxcw:cmdtarg.obj
 0003:00001814       ?_dwStockPropMask@CCmdTarget@@0KA 00472814     nafxcw:cmdtarg.obj
 0003:00001818       ?_eventsinkEntryCount@CCmdTarget@@0IA 00472818     nafxcw:cmdtarg.obj
 0003:0000181c       ??_R0?AVCCmdUI@@@8         0047281c     nafxcw:cmdtarg.obj
 0003:00001834       ??_R0?AVCHandleMap@@@8     00472834     nafxcw:winhand.obj
 0003:000018ec       ??_R0?AVXAccessible@CWnd@@@8 004728ec     nafxcw:wincore.obj
 0003:0000190c       ??_R0?AVXAccessibleServer@CWnd@@@8 0047290c     nafxcw:wincore.obj
 0003:00001934       ??_R0?AVCWnd@@@8           00472934     nafxcw:wincore.obj
 0003:00001948       ??_R0?AV_AFX_HTMLHELP_STATE@@@8 00472948     nafxcw:wincore.obj
 0003:0000196c       ??_R0?AVCTestCmdUI@@@8     0047296c     nafxcw:wincore.obj
 0003:00001988       ??_R0PAVCUserException@@@8 00472988     nafxcw:wincore.obj
 0003:000019a8       ??_R0?AUIAccessibleProxy@@@8 004729a8     nafxcw:wincore.obj
 0003:000019c8       ??_R0?AUIDispatch@@@8      004729c8     nafxcw:wincore.obj
 0003:000019e0       ??_R0?AUIAccessible@@@8    004729e0     nafxcw:wincore.obj
 0003:00001a00       ??_R0?AV?$IAccessibleProxyImpl@VCAccessibleProxy@ATL@@@ATL@@@8 00472a00     nafxcw:wincore.obj
 0003:00001a44       ??_R0?AUIOleWindow@@@8     00472a44     nafxcw:wincore.obj
 0003:00001a60       ??_R0?AVCComObjectRootBase@ATL@@@8 00472a60     nafxcw:wincore.obj
 0003:00001a88       ??_R0?AV?$CComObjectRootEx@VCComSingleThreadModel@ATL@@@ATL@@@8 00472a88     nafxcw:wincore.obj
 0003:00001acc       ??_R0?AVCAccessibleProxy@ATL@@@8 00472acc     nafxcw:wincore.obj
 0003:00001af0       ??_R0?AV?$CMFCComObject@VCAccessibleProxy@ATL@@@@@8 00472af0     nafxcw:wincore.obj
 0003:00001b28       ??_R0PAVCResourceException@@@8 00472b28     nafxcw:wingdi.obj
 0003:00001b4c       ??_R0?AVCResourceException@@@8 00472b4c     nafxcw:wingdi.obj
 0003:00001b70       ??_R0?AVCUserException@@@8 00472b70     nafxcw:wingdi.obj
 0003:00001b90       ??_R0?AVCGdiObject@@@8     00472b90     nafxcw:wingdi.obj
 0003:00001bac       ??_R0?AVCDC@@@8            00472bac     nafxcw:wingdi.obj
 0003:00001bc0       ??_R0?AVCClientDC@@@8      00472bc0     nafxcw:wingdi.obj
 0003:00001bd8       ??_R0?AVCWindowDC@@@8      00472bd8     nafxcw:wingdi.obj
 0003:00001bf0       ??_R0?AVCPaintDC@@@8       00472bf0     nafxcw:wingdi.obj
 0003:00001c08       ??_R0?AVCBrush@@@8         00472c08     nafxcw:wingdi.obj
 0003:00001c20       ??_R0?AVCBitmap@@@8        00472c20     nafxcw:wingdi.obj
 0003:00001c38       ??_R0?AVCPen@@@8           00472c38     nafxcw:wingdi.obj
 0003:00001c4c       ??_R0?AVCFont@@@8          00472c4c     nafxcw:winmenu.obj
 0003:00001c60       ??_R0?AVCMenu@@@8          00472c60     nafxcw:winmenu.obj
 0003:00001c74       ??_R0?AVCChevronOwnerDrawMenu@@@8 00472c74     nafxcw:winmenu.obj
 0003:00001c98       ?bStaticInit@CDocManager@@2HA 00472c98     nafxcw:appcore.obj
 0003:00001d24       ??_R0?AVCWinApp@@@8        00472d24     nafxcw:appcore.obj
 0003:00001d3c       ??_R0?AVCCommandLineInfo@@@8 00472d3c     nafxcw:appcore.obj
 0003:00001d5c       ??_R0?AVCPtrArray@@@8      00472d5c     nafxcw:array_p.obj
 0003:00001d74       ??_R0?AVCRgn@@@8           00472d74     nafxcw:wingdix.obj
 0003:00001d88       ??_R0?AVCRecentFileList@@@8 00472d88     nafxcw:filelist.obj
 0003:00001da8       ??_R0?AVCFile@@@8          00472da8     nafxcw:filecore.obj
 0003:00001dbc       ??_R0?AVCFileException@@@8 00472dbc     nafxcw:filecore.obj
 0003:00001ddc       ??_R0PAVCFileException@@@8 00472ddc     nafxcw:filex.obj
 0003:00001dfc       ??_R0?AVCDialog@@@8        00472dfc     nafxcw:docmgr.obj
 0003:00001e14       ??_R0?AVCNewTypeDlg@@@8    00472e14     nafxcw:docmgr.obj
 0003:00001e30       ??_R0?AVCDocManager@@@8    00472e30     nafxcw:docmgr.obj
 0003:00001e4c       ??_R0?AVCCommonDialog@@@8  00472e4c     nafxcw:dlgfile.obj
 0003:00001e68       ??_R0?AVCFileDialog@@@8    00472e68     nafxcw:dlgfile.obj
 0003:00001e84       ___security_cookie         00472e84     libcmt:seccook.obj
 0003:00001e90       __NLG_Destination          00472e90     libcmt:exsup.obj
 0003:00001ea0       ___lc_time_curr            00472ea0     libcmt:strftime.obj
 0003:00001ea8       ___lc_time_c               00472ea8     libcmt:strftime.obj
 0003:00001f60       ?__pMyUnhandledExceptionFilter@@3PAXA 00472f60     libcmt:throw.obj
 0003:00001f64       ??_R0?AVbad_cast@@@8       00472f64     libcmt:stdexcpt.obj
 0003:00001f7c       ??_R0?AVbad_typeid@@@8     00472f7c     libcmt:stdexcpt.obj
 0003:00001f98       ??_R0?AV__non_rtti_object@@@8 00472f98     libcmt:stdexcpt.obj
 0003:00001fb8       ??_R0?AVtype_info@@@8      00472fb8     libcmt:typinfo.obj
 0003:00001fd0       __fltused                  00472fd0     libcmt:fpinit.obj
 0003:00001fd4       __ldused                   00472fd4     libcmt:fpinit.obj
 0003:00001fd8       __FPinit                   00472fd8     libcmt:fpinit.obj
 0003:00001fdc       __FPmtinit                 00472fdc     libcmt:fpinit.obj
 0003:00001fe0       __FPmtterm                 00472fe0     libcmt:fpinit.obj
 0003:00001ff0       __aexit_rtn                00472ff0     libcmt:wincrt0.obj
 0003:00001ff4       ___app_type                00472ff4     libcmt:wincrt0.obj
 0003:00002268       ___initiallocinfo          00473268     libcmt:setlocal.obj
 0003:000022bc       ___ptlocinfo               004732bc     libcmt:setlocal.obj
 0003:000023f8       ___lc_category             004733f8     libcmt:setlocal.obj
 0003:00002440       ___tlsindex                00473440     libcmt:tidtable.obj
 0003:00002454       ?__pInconsistency@@3P6AXXZA 00473454     libcmt:hooks.obj
 0003:00002460       __timezone                 00473460     libcmt:timeset.obj
 0003:00002464       __daylight                 00473464     libcmt:timeset.obj
 0003:00002468       __dstbias                  00473468     libcmt:timeset.obj
 0003:000024f0       __tzname                   004734f0     libcmt:timeset.obj
 0003:00002630       __cfltcvt_tab              00473630     libcmt:cmiscdat.obj
 0003:00002648       __iob                      00473648     libcmt:_file.obj
 0003:000028c8       ___nullstring              004738c8     libcmt:output.obj
 0003:000028cc       ___wnullstring             004738cc     libcmt:output.obj
 0003:000028d0       __amblksiz                 004738d0     libcmt:heapinit.obj
 0003:000028e0       __XcptActTab               004738e0     libcmt:winxfltr.obj
 0003:00002958       __First_FPE_Indx           00473958     libcmt:winxfltr.obj
 0003:0000295c       __Num_FPE                  0047395c     libcmt:winxfltr.obj
 0003:00002960       __XcptActTabSize           00473960     libcmt:winxfltr.obj
 0003:00002964       __XcptActTabCount          00473964     libcmt:winxfltr.obj
 0003:00002970       __pctype                   00473970     libcmt:ctype.obj
 0003:00002974       __pwctype                  00473974     libcmt:ctype.obj
 0003:00002978       ___badioinfo               00473978     libcmt:ioinit.obj
 0003:00002a38       ___lc_clike                00473a38     libcmt:nlsdata2.obj
 0003:00002a40       __lpdays                   00473a40     libcmt:days.obj
 0003:00002a74       __days                     00473a74     libcmt:days.obj
 0003:00002aa8       ___lconv_static_decimal    00473aa8     libcmt:lconv.obj
 0003:00002aac       ___lconv_c                 00473aac     libcmt:lconv.obj
 0003:00002adc       ___lconv                   00473adc     libcmt:lconv.obj
 0003:00002ae0       ___mb_cur_max              00473ae0     libcmt:nlsdata1.obj
 0003:00002ae4       ___decimal_point           00473ae4     libcmt:nlsdata1.obj
 0003:00002ae8       ___decimal_point_length    00473ae8     libcmt:nlsdata1.obj
 0003:00002b20       __pow10pos                 00473b20     libcmt:constpow.obj
 0003:00002c80       __pow10neg                 00473c80     libcmt:constpow.obj
 0003:00002ddc       ?dump_level_@ffl_dump_unexception_filter@@0HA 00473ddc     ffl_dumpr:ffl_dump_unexception_filter.obj
 0003:00002de0       __mep@?ffl_purecall_handler@?A0x3463d5ea@@$$FYAXXZ 00473de0     ffl_dumpr:ffl_dump_unexception_filter.obj
 0003:00002de4       __mep@?make_file_name@?A0x3463d5ea@@$$FYAXPADIPBD1@Z 00473de4     ffl_dumpr:ffl_dump_unexception_filter.obj
 0003:00002de8       __mep@?record@?A0x3463d5ea@@$$FYAXPAUffl_dump_param_t@@PBD@Z 00473de8     ffl_dumpr:ffl_dump_unexception_filter.obj
 0003:00002dec       __mep@?ffl_dump_recod_function@?A0x3463d5ea@@$$FYGIPAX@Z 00473dec     ffl_dumpr:ffl_dump_unexception_filter.obj
 0003:00002df0       __mep@??1ffl_dump_unexception_filter@@$$FQAE@XZ 00473df0     ffl_dumpr:ffl_dump_unexception_filter.obj
 0003:00002df4       __mep@?top_level_filter@ffl_dump_unexception_filter@@$$FCGJPAU_EXCEPTION_POINTERS@@@Z 00473df4     ffl_dumpr:ffl_dump_unexception_filter.obj
 0003:00002df8       __mep@?do_snapping@ffl_dump_unexception_filter@@$$FCAXHPAU_EXCEPTION_POINTERS@@@Z 00473df8     ffl_dumpr:ffl_dump_unexception_filter.obj
 0003:00002dfc       __mep@?install@ffl_dump_unexception_filter@@$$FSAXH@Z 00473dfc     ffl_dumpr:ffl_dump_unexception_filter.obj
 0003:00002e00       __mep@?snapping@ffl_dump_unexception_filter@@$$FSAXH@Z 00473e00     ffl_dumpr:ffl_dump_unexception_filter.obj
 0003:00002e04       __mep@??0ffl_dump_unexception_filter@@$$FQAE@H@Z 00473e04     ffl_dumpr:ffl_dump_unexception_filter.obj
 0003:00002e08       __mep@??1ffl_date_time@@$$FQAE@XZ 00473e08     ffl_dumpr:ffl_date_time.obj
 0003:00002e0c       __mep@?update@ffl_date_time@@$$FQAEXXZ 00473e0c     ffl_dumpr:ffl_date_time.obj
 0003:00002e10       __mep@?year@ffl_date_time@@$$FQBEHXZ 00473e10     ffl_dumpr:ffl_date_time.obj
 0003:00002e14       __mep@?month@ffl_date_time@@$$FQBEHXZ 00473e14     ffl_dumpr:ffl_date_time.obj
 0003:00002e18       __mep@?day@ffl_date_time@@$$FQBEHXZ 00473e18     ffl_dumpr:ffl_date_time.obj
 0003:00002e1c       __mep@?hour@ffl_date_time@@$$FQBEHXZ 00473e1c     ffl_dumpr:ffl_date_time.obj
 0003:00002e20       __mep@?minute@ffl_date_time@@$$FQBEHXZ 00473e20     ffl_dumpr:ffl_date_time.obj
 0003:00002e24       __mep@?second@ffl_date_time@@$$FQBEHXZ 00473e24     ffl_dumpr:ffl_date_time.obj
 0003:00002e28       __mep@?millisecond@ffl_date_time@@$$FQBEHXZ 00473e28     ffl_dumpr:ffl_date_time.obj
 0003:00002e2c       __mep@?day_of_week@ffl_date_time@@$$FQBEHXZ 00473e2c     ffl_dumpr:ffl_date_time.obj
 0003:00002e30       __mep@??0ffl_date_time@@$$FQAE@XZ 00473e30     ffl_dumpr:ffl_date_time.obj
 0003:00002e34       __mep@?ffl_vsnprintf_a@@$$FYAHPADIPBD0@Z 00473e34     ffl_dumpr:ffl_c_string.obj
 0003:00002e38       __mep@?ffl_strncpy_a@@$$FYAHPADIPBDI@Z 00473e38     ffl_dumpr:ffl_c_string.obj
 0003:00002e3c       __mep@?ffl_splitpath_a@@$$FYAHPBDPADI1I1I1I@Z 00473e3c     ffl_dumpr:ffl_c_string.obj
 0003:00002e40       __mep@?ffl_makepath_a@@$$FYAHPADIPBD111@Z 00473e40     ffl_dumpr:ffl_c_string.obj
 0003:00002e44       __mep@?ffl_vsnprintf_w@@$$FYAHPAGIPBGPAD@Z 00473e44     ffl_dumpr:ffl_c_string.obj
 0003:00002e48       __mep@?ffl_strncpy_w@@$$FYAHPAGIPBGI@Z 00473e48     ffl_dumpr:ffl_c_string.obj
 0003:00002e4c       __mep@?ffl_splitpath_w@@$$FYAHPBGPAGI1I1I1I@Z 00473e4c     ffl_dumpr:ffl_c_string.obj
 0003:00002e50       __mep@?ffl_makepath_w@@$$FYAHPAGIPBG111@Z 00473e50     ffl_dumpr:ffl_c_string.obj
 0003:00002e54       __mep@??0ffl_dump_report@@$$FQAE@XZ 00473e54     ffl_dumpr:ffl_dump_report.obj
 0003:00002e58       __mep@??1ffl_dump_report@@$$FQAE@XZ 00473e58     ffl_dumpr:ffl_dump_report.obj
 0003:00002e5c       __mep@?get_logical_address@ffl_dump_report@@$$FAAE_NPAXPADKPAK2@Z 00473e5c     ffl_dumpr:ffl_dump_report.obj
 0003:00002e60       __mep@?inti_imagehlp_func@ffl_dump_report@@$$FAAE_NPAUHINSTANCE__@@@Z 00473e60     ffl_dumpr:ffl_dump_report.obj
 0003:00002e64       __mep@?intel_stack_walk@ffl_dump_report@@$$FAAEXPAVffl_text_file@@PAU_CONTEXT@@@Z 00473e64     ffl_dumpr:ffl_dump_report.obj
 0003:00002e68       __mep@?imagehlp_stack_walk@ffl_dump_report@@$$FAAEXPAVffl_text_file@@PAU_CONTEXT@@PAX@Z 00473e68     ffl_dumpr:ffl_dump_report.obj
 0003:00002e6c       __mep@?generate_exception@ffl_dump_report@@$$FAAEXPAVffl_text_file@@PAUffl_dump_param_t@@@Z 00473e6c     ffl_dumpr:ffl_dump_report.obj
 0003:00002e70       __mep@?report@ffl_dump_report@@$$FAAEXPAVffl_text_file@@PAUffl_dump_param_t@@@Z 00473e70     ffl_dumpr:ffl_dump_report.obj
 0003:00002e74       __mep@?dump@ffl_dump_report@@$$FQAEXPBDPAUffl_dump_param_t@@@Z 00473e74     ffl_dumpr:ffl_dump_report.obj
 0003:00002e78       __mep@?system_information_log@ffl_dump_log@@$$FAAEXPAVffl_text_file@@@Z 00473e78     ffl_dumpr:ffl_dump_log.obj
 0003:00002e7c       __mep@?register_log@ffl_dump_log@@$$FAAEXPAVffl_text_file@@PAU_CONTEXT@@@Z 00473e7c     ffl_dumpr:ffl_dump_log.obj
 0003:00002e80       __mep@?print_module_info@ffl_dump_log@@$$FAAEXPAVffl_text_file@@PBD@Z 00473e80     ffl_dumpr:ffl_dump_log.obj
 0003:00002e84       __mep@?module_info_log@ffl_dump_log@@$$FAAE_NPAVffl_text_file@@PAUHINSTANCE__@@H@Z 00473e84     ffl_dumpr:ffl_dump_log.obj
 0003:00002e88       __mep@?module_list_log@ffl_dump_log@@$$FAAEXPAVffl_text_file@@@Z 00473e88     ffl_dumpr:ffl_dump_log.obj
 0003:00002e8c       __mep@?log@ffl_dump_log@@$$FAAEXPAVffl_text_file@@PAUffl_dump_param_t@@@Z 00473e8c     ffl_dumpr:ffl_dump_log.obj
 0003:00002e90       __mep@?dump@ffl_dump_log@@$$FQAEXPBDPAUffl_dump_param_t@@@Z 00473e90     ffl_dumpr:ffl_dump_log.obj
 0003:00002e94       __mep@?_tcsrchr@@$$J0YAPADPBDI@Z 00473e94     ffl_dumpr:ffl_dump_mini.obj
 0003:00002e98       __mep@?find_dll@ffl_dump_mini@@$$FAAEPAUHINSTANCE__@@XZ 00473e98     ffl_dumpr:ffl_dump_mini.obj
 0003:00002e9c       __mep@?write@ffl_dump_mini@@$$FAAEXPAXPAUffl_dump_param_t@@@Z 00473e9c     ffl_dumpr:ffl_dump_mini.obj
 0003:00002ea0       __mep@?dump@ffl_dump_mini@@$$FQAEXPBDPAUffl_dump_param_t@@@Z 00473ea0     ffl_dumpr:ffl_dump_mini.obj
 0003:00002ea4       __mep@?ffl_get_win_version@@$$FYAXPADI0I@Z 00473ea4     ffl_dumpr:ffl_dump_common.obj
 0003:00002ea8       __mep@?ffl_formating_time@@$$FYAXPADIPAU_FILETIME@@@Z 00473ea8     ffl_dumpr:ffl_dump_common.obj
 0003:00002eac       __mep@?ffl_get_exception_string@@$$FYAPBDK@Z 00473eac     ffl_dumpr:ffl_dump_common.obj
 0003:00002eb0       __mep@??0ffl_text_file@@$$FQAE@XZ 00473eb0     ffl_dumpr:ffl_text_file.obj
 0003:00002eb4       __mep@?create@ffl_text_file@@$$FQAE_NPBDII@Z 00473eb4     ffl_dumpr:ffl_text_file.obj
 0003:00002eb8       __mep@?open@ffl_text_file@@$$FQAE_NPBDII@Z 00473eb8     ffl_dumpr:ffl_text_file.obj
 0003:00002ebc       __mep@?close@ffl_text_file@@$$FQAEXXZ 00473ebc     ffl_dumpr:ffl_text_file.obj
 0003:00002ec0       __mep@?opened@ffl_text_file@@$$FQAE_NXZ 00473ec0     ffl_dumpr:ffl_text_file.obj
 0003:00002ec4       __mep@?write_text@ffl_text_file@@$$FQAEIPBDI@Z 00473ec4     ffl_dumpr:ffl_text_file.obj
 0003:00002ec8       __mep@?read_text@ffl_text_file@@$$FQAEIPADI@Z 00473ec8     ffl_dumpr:ffl_text_file.obj
 0003:00002ecc       __mep@?read_line@ffl_text_file@@$$FQAEIPADI@Z 00473ecc     ffl_dumpr:ffl_text_file.obj
 0003:00002ed0       __mep@?flush@ffl_text_file@@$$FQAE_NXZ 00473ed0     ffl_dumpr:ffl_text_file.obj
 0003:00002ed4       __mep@?size@ffl_text_file@@$$FQAE_KXZ 00473ed4     ffl_dumpr:ffl_text_file.obj
 0003:00002ed8       __mep@??1ffl_text_file@@$$FQAE@XZ 00473ed8     ffl_dumpr:ffl_text_file.obj
 0003:00002edc       __mep@??0ffl_module_info@@$$FQAE@XZ 00473edc     ffl_dumpr:ffl_module_info.obj
 0003:00002ee0       __mep@?company_name@ffl_module_info@@$$FQBEPBDXZ 00473ee0     ffl_dumpr:ffl_module_info.obj
 0003:00002ee4       __mep@?product_name@ffl_module_info@@$$FQBEPBDXZ 00473ee4     ffl_dumpr:ffl_module_info.obj
 0003:00002ee8       __mep@?file_description@ffl_module_info@@$$FQBEPBDXZ 00473ee8     ffl_dumpr:ffl_module_info.obj
 0003:00002eec       __mep@?file_version@ffl_module_info@@$$FQBEPBGXZ 00473eec     ffl_dumpr:ffl_module_info.obj
 0003:00002ef0       __mep@?product_version@ffl_module_info@@$$FQBEPBGXZ 00473ef0     ffl_dumpr:ffl_module_info.obj
 0003:00002ef4       __mep@?query_fixed_info@ffl_module_info@@$$FAAE_NPAXPAUtagVS_FIXEDFILEINFO@@@Z 00473ef4     ffl_dumpr:ffl_module_info.obj
 0003:00002ef8       __mep@?query_string_info@ffl_module_info@@$$FAAE_NPAXPBDPADI@Z 00473ef8     ffl_dumpr:ffl_module_info.obj
 0003:00002efc       __mep@?load_info@ffl_module_info@@$$FQAE_NPBD@Z 00473efc     ffl_dumpr:ffl_module_info.obj
 0003:00002f00       __mep@??0ffl_file@@$$FQAE@XZ 00473f00     ffl_dumpr:ffl_file.obj
 0003:00002f04       __mep@?create@ffl_file@@$$FQAE_NPBDII@Z 00473f04     ffl_dumpr:ffl_file.obj
 0003:00002f08       __mep@?open@ffl_file@@$$FQAE_NPBDII@Z 00473f08     ffl_dumpr:ffl_file.obj
 0003:00002f0c       __mep@?close@ffl_file@@$$FQAEXXZ 00473f0c     ffl_dumpr:ffl_file.obj
 0003:00002f10       __mep@?opened@ffl_file@@$$FQAE_NXZ 00473f10     ffl_dumpr:ffl_file.obj
 0003:00002f14       __mep@?read@ffl_file@@$$FQAEIPAXI@Z 00473f14     ffl_dumpr:ffl_file.obj
 0003:00002f18       __mep@?write@ffl_file@@$$FQAEIPBXI@Z 00473f18     ffl_dumpr:ffl_file.obj
 0003:00002f1c       __mep@?seek@ffl_file@@$$FQAE_J_JH@Z 00473f1c     ffl_dumpr:ffl_file.obj
 0003:00002f20       __mep@?flush@ffl_file@@$$FQAE_NXZ 00473f20     ffl_dumpr:ffl_file.obj
 0003:00002f24       __mep@?size@ffl_file@@$$FQAE_KXZ 00473f24     ffl_dumpr:ffl_file.obj
 0003:00002f28       __mep@??1ffl_file@@$$FQAE@XZ 00473f28     ffl_dumpr:ffl_file.obj
 0003:00002f2c       ?rcDefault@CWindow@ATL@@2UtagRECT@@A 00473f2c     atls:atlbase.obj
 0003:00002f40       ?hMainWnd@@3PAUHWND__@@A   00473f40     CacheServer.obj
 0003:00002f44       ?g_szCoreAddr@@3PADA       00473f44     CacheServer.obj
 0003:00002f58       ?szWindowClass@@3PADA      00473f58     CacheServer.obj
 0003:00002fc0       ?szTitle@@3PADA            00473fc0     CacheServer.obj
 0003:00003024       ?hInst@@3PAUHINSTANCE__@@A 00474024     CacheServer.obj
 0003:0000302c       ?g_DPCacheSrvr@@3VCDPCacheSrvr@@A 0047402c     DPCacheSrvr.obj
 0003:00003048       ?g_DPClientArray@@3VCDPClientArray@@A 00474048     DPClient.obj
 0003:0000309c       ?g_DPCoreClient@@3VCDPCoreClient@@A 0047409c     DPCoreClient.obj
 0003:0000311c       ?s_pLog@CFixedStringMgr@ATL@@2PAVIFixedStringLog@2@A 0047411c     StdAfx.obj
 0003:00003120       ?m_bInitFailed@CAtlBaseModule@ATL@@2_NA 00474120     StdAfx.obj
 0003:00003121       ?s_bWin9x@?1??_AtlInstallStringThunk@ATL@@YAXPAPAXPAX1@Z@4_NA 00474121     StdAfx.obj
 0003:00003124       ??_B?1??_AtlInstallStringThunk@ATL@@YAXPAPAXPAX1@Z@51 00474124     StdAfx.obj
 0003:00003130       ?m_pPool2@CBuffer2@@2PAV?$MemPooler@VCBuffer2@@@@A 00474130     buffer.obj
 0003:00003134       ?m_pPool@CBuffer@@2PAV?$MemPooler@VCBuffer@@@@A 00474134     buffer.obj
 0003:00003138       ?m_pHeapMng@CBuffer@@2PAVCHeapMng@@A 00474138     buffer.obj
 0003:0000313c       ?m_pPool@CClientSock@@2PAV?$MemPooler@VCClientSock@@@@A 0047413c     clientsock.obj
 0003:00003140       ?m_pPool@CClientSockE@@2PAV?$MemPooler@VCClientSockE@@@@A 00474140     clientsocke.obj
 0003:00003144       ?m_pHeapMng@CAr@@2PAVCHeapMng@@A 00474144     ar.obj
 0003:00003150       ?g_MyTrace@@3VCMyTrace@@A  00474150     MyTrace.obj
 0003:0000457c       ?g_codePage@@3GA           0047557c     scanner.obj
 0003:00004580       ?m_dwOldTime@@3KA          00475580     timer.obj
 0003:00004584       ?m_lTime@@3KA              00475584     timer.obj
 0003:00004588       ?g_szExeDir@@3PADA         00475588     xutil.obj
 0003:00004688       ?g_szWorkDir@@3PADA        00475688     xutil.obj
 0003:00004788       ?g_next@@3KA               00475788     xutil.obj
 0003:00004790       ?g_llFreq@@3T_LARGE_INTEGER@@A 00475790     xutil.obj
 0003:00004798       ?g_nMaxTri@@3HA            00475798     xutil.obj
 0003:0000479c       ?g_osVersion@@3W4OSTYPE@@A 0047579c     xutil.obj
 0003:0000c7ac       __afxForceEXCLUDE          0047d7ac     nafxcw:nolib.obj
 0003:0000c7b0       ?_simpleMemoryException@@3VCMemoryException@@A 0047d7b0     nafxcw:except.obj
 0003:0000c848       ?_simpleNotSupportedException@@3VCNotSupportedException@@A 0047d848     nafxcw:except.obj
 0003:0000c8e0       ?_simpleInvalidArgException@@3VCInvalidArgException@@A 0047d8e0     nafxcw:except.obj
 0003:0000c978       ?afxStringManager@@3VCAfxStringMgr@@A 0047d978     nafxcw:strcore.obj
 0003:0000c990       ?WM_DESTROYMODELESS@CDHtmlDialog@@1IA 0047d990     nafxcw:objcore.obj
 0003:0000c994       ?ATL_CREATE_OBJECT@CComApartment@ATL@@2IA 0047d994     nafxcw:objcore.obj
 0003:0000c998       ?_pModule@ATL@@3PAVCComModule@1@A 0047d998     nafxcw:objcore.obj
 0003:0000c99c       ?m_libid@CAtlModule@ATL@@2U_GUID@@A 0047d99c     nafxcw:objcore.obj
 0003:0000c9ac       ?_pAtlModule@ATL@@3PAVCAtlModule@1@A 0047d9ac     nafxcw:objcore.obj
 0003:0000c9b0       ?_pPerfUnRegFunc@ATL@@3P6AJXZA 0047d9b0     nafxcw:objcore.obj
 0003:0000c9b4       ?_pPerfRegFunc@ATL@@3P6AJPAUHINSTANCE__@@@ZA 0047d9b4     nafxcw:objcore.obj
 0003:0000c9b8       ?_pAtlAutoThreadModule@ATL@@3PAUIAtlAutoThreadModule@1@A 0047d9b8     nafxcw:objcore.obj
 0003:0000c9bc       ?_AtlWinModule@ATL@@3VCAtlWinModule@1@A 0047d9bc     nafxcw:objcore.obj
 0003:0000c9e8       ?afxData@@3UAUX_DATA@@A    0047d9e8     nafxcw:auxdata.obj
 0003:0000ca40       ?_afxThreadState@@3V?$CThreadLocal@V_AFX_THREAD_STATE@@@@A 0047da40     nafxcw:afxstate.obj
 0003:0000ca44       ?_afxBaseModuleState@@3V?$CProcessLocal@V_AFX_BASE_MODULE_STATE@@@@A 0047da44     nafxcw:afxstate.obj
 0003:0000ca48       ?_afxTlsRef@@3JA           0047da48     nafxcw:afxtls.obj
 0003:0000ca4c       ?_afxThreadData@@3PAVCThreadSlotData@@A 0047da4c     nafxcw:afxtls.obj
 0003:0000ca50       ?__afxThreadData@@3PAEA    0047da50     nafxcw:afxtls.obj
 0003:0000ca88       ?_afxLockInit@@3PAHA       0047da88     nafxcw:afxcrit.obj
 0003:0000cacc       ?_afxLockInitLock@@3U_RTL_CRITICAL_SECTION@@A 0047dacc     nafxcw:afxcrit.obj
 0003:0000cae8       ?_afxResourceLock@@3PAU_RTL_CRITICAL_SECTION@@A 0047dae8     nafxcw:afxcrit.obj
 0003:0000cc80       ?_afxCriticalInit@@3HA     0047dc80     nafxcw:afxcrit.obj
 0003:0000cc84       ?_init_CByteArray@@3UAFX_CLASSINIT@@A 0047dc84     nafxcw:array_b.obj
 0003:0000cc88       ?_afxGotScrollLines@@3HA   0047dc88     nafxcw:wincore.obj
 0003:0000cc90       ?_afxMsgCache@@3PAUAFX_MSG_CACHE@@A 0047dc90     nafxcw:wincore.obj
 0003:0000e490       _g_pfnGetSystemMetrics     0047f490     nafxcw:wincore.obj
 0003:0000e494       _g_pfnMonitorFromWindow    0047f494     nafxcw:wincore.obj
 0003:0000e498       _g_pfnMonitorFromRect      0047f498     nafxcw:wincore.obj
 0003:0000e49c       _g_pfnMonitorFromPoint     0047f49c     nafxcw:wincore.obj
 0003:0000e4a0       _g_pfnGetMonitorInfo       0047f4a0     nafxcw:wincore.obj
 0003:0000e4a4       _g_pfnEnumDisplayMonitors  0047f4a4     nafxcw:wincore.obj
 0003:0000e4a8       _g_pfnEnumDisplayDevices   0047f4a8     nafxcw:wincore.obj
 0003:0000e4ac       _g_fMultiMonInitDone       0047f4ac     nafxcw:wincore.obj
 0003:0000e4b0       _g_fMultimonPlatformNT     0047f4b0     nafxcw:wincore.obj
 0003:0000e4b4       ?m_pfnNotifyWinEvent@CWnd@@1P6GXKPAUHWND__@@JJ@ZA 0047f4b4     nafxcw:wincore.obj
 0003:0000e4b8       ?m_nMsgDragList@CWnd@@1IB  0047f4b8     nafxcw:wincore.obj
 0003:0000e4c0       ?wndTop@CWnd@@2V1@B        0047f4c0     nafxcw:wincore.obj
 0003:0000e510       ?wndBottom@CWnd@@2V1@B     0047f510     nafxcw:wincore.obj
 0003:0000e560       ?wndTopMost@CWnd@@2V1@B    0047f560     nafxcw:wincore.obj
 0003:0000e5b0       ?wndNoTopMost@CWnd@@2V1@B  0047f5b0     nafxcw:wincore.obj
 0003:0000e604       ?_afxHtmlHelpState@@3V?$CProcessLocal@V_AFX_HTMLHELP_STATE@@@@A 0047f604     nafxcw:wincore.obj
 0003:0000e608       ?_simpleResourceException@@3VCResourceException@@A 0047f608     nafxcw:wingdi.obj
 0003:0000e6a0       ?_simpleUserException@@3VCUserException@@A 0047f6a0     nafxcw:wingdi.obj
 0003:0000e738       ?pStaticDocManager@CDocManager@@2PAV1@A 0047f738     nafxcw:appcore.obj
 0003:0000e73c       ?pStaticList@CDocManager@@2PAVCPtrList@@A 0047f73c     nafxcw:appcore.obj
 0003:0000e740       ?_afxWinState@@3V?$CProcessLocal@V_AFX_WIN_STATE@@@@A 0047f740     nafxcw:appcore.obj
 0003:0000e744       ?_afxDBCS@@3HB             0047f744     nafxcw:afxdbcs.obj
 0003:0000e748       ?_afxWingdixTerm@@3DA      0047f748     nafxcw:wingdix.obj
 0003:0000e74c       ?_afxHalftoneBrush@@3PAUHBRUSH__@@A 0047f74c     nafxcw:wingdix.obj
 0003:0000e750       ?_afxMsgLBSELCHANGE@@3IA   0047f750     nafxcw:dlgcomm.obj
 0003:0000e754       ?_afxMsgSHAREVI@@3IA       0047f754     nafxcw:dlgcomm.obj
 0003:0000e758       ?_afxMsgFILEOK@@3IA        0047f758     nafxcw:dlgcomm.obj
 0003:0000e75c       ?_afxMsgCOLOROK@@3IA       0047f75c     nafxcw:dlgcomm.obj
 0003:0000e760       ?_afxMsgHELP@@3IA          0047f760     nafxcw:dlgcomm.obj
 0003:0000e764       ?_afxMsgSETRGB@@3IA        0047f764     nafxcw:dlgcomm.obj
 0003:0000e768       ___fastflag                0047f768     libcmt:fpinit.obj
 0003:0000e76c       __adjust_fdiv              0047f76c     libcmt:fpinit.obj
 0003:0000e770       ___pPurecall               0047f770     libcmt:purevirt.obj
 0003:0000e774       __aenvptr                  0047f774     libcmt:wincrt0.obj
 0003:0000e778       __wenvptr                  0047f778     libcmt:wincrt0.obj
 0003:0000e77c       ___error_mode              0047f77c     libcmt:wincrt0.obj
 0003:0000e784       __umaskval                 0047f784     libcmt:crt0dat.obj
 0003:0000e788       __osplatform               0047f788     libcmt:crt0dat.obj
 0003:0000e78c       __osver                    0047f78c     libcmt:crt0dat.obj
 0003:0000e790       __winver                   0047f790     libcmt:crt0dat.obj
 0003:0000e794       __winmajor                 0047f794     libcmt:crt0dat.obj
 0003:0000e798       __winminor                 0047f798     libcmt:crt0dat.obj
 0003:0000e79c       ___argc                    0047f79c     libcmt:crt0dat.obj
 0003:0000e7a0       ___argv                    0047f7a0     libcmt:crt0dat.obj
 0003:0000e7a4       ___wargv                   0047f7a4     libcmt:crt0dat.obj
 0003:0000e7a8       __environ                  0047f7a8     libcmt:crt0dat.obj
 0003:0000e7ac       ___initenv                 0047f7ac     libcmt:crt0dat.obj
 0003:0000e7b0       __wenviron                 0047f7b0     libcmt:crt0dat.obj
 0003:0000e7b4       ___winitenv                0047f7b4     libcmt:crt0dat.obj
 0003:0000e7b8       __pgmptr                   0047f7b8     libcmt:crt0dat.obj
 0003:0000e7bc       __wpgmptr                  0047f7bc     libcmt:crt0dat.obj
 0003:0000e7c0       __exitflag                 0047f7c0     libcmt:crt0dat.obj
 0003:0000e7c4       __C_Termination_Done       0047f7c4     libcmt:crt0dat.obj
 0003:0000e7c8       __C_Exit_Done              0047f7c8     libcmt:crt0dat.obj
 0003:0000e7dc       _gpFlsAlloc                0047f7dc     libcmt:tidtable.obj
 0003:0000e7e0       _gpFlsGetValue             0047f7e0     libcmt:tidtable.obj
 0003:0000e7e4       _gpFlsSetValue             0047f7e4     libcmt:tidtable.obj
 0003:0000e7e8       _gpFlsFree                 0047f7e8     libcmt:tidtable.obj
 0003:0000ea20       __cflush                   0047fa20     libcmt:_file.obj
 0003:0000ea24       __stdbuf                   0047fa24     libcmt:_sftbuf.obj
 0003:0000ea2c       ?_pnhHeap@@3P6AHI@ZA       0047fa2c     libcmt:handler.obj
 0003:0000ea30       __newmode                  0047fa30     libcmt:_newmode.obj
 0003:0000ea8c       __adbgmsg                  0047fa8c     libcmt:crt0msg.obj
 0003:0000eb9c       ___lc_handle               0047fb9c     libcmt:nlsdata2.obj
 0003:0000ebb4       ___lc_codepage             0047fbb4     libcmt:nlsdata2.obj
 0003:0000ebb8       ___lc_collate_cp           0047fbb8     libcmt:nlsdata2.obj
 0003:0000ebd0       ___lconv_static_null       0047fbd0     libcmt:lconv.obj
 0003:0000ebd4       ___lc_time_intl            0047fbd4     libcmt:inittime.obj
 0003:0000ebd8       ___lconv_intl              0047fbd8     libcmt:initmon.obj
 0003:0000ec00       ___lc_id                   0047fc00     libcmt:nlsdata3.obj
 0003:0000ec28       __commode                  0047fc28     libcmt:ncommode.obj
 0003:0000ec4c       __fmode                    0047fc4c     libcmt:txtmode.obj
 0003:00012884       ?_AtlBaseModule@ATL@@3VCAtlBaseModule@1@A 00483884     atls:atlbase.obj
 0003:000128c0       ___ctype1                  004838c0     <common>
 0003:000128c4       ___ctype1_refcount         004838c4     <common>
 0003:000128c8       ___lconv_mon_refcount      004838c8     <common>
 0003:000128cc       ___lconv_intl_refcount     004838cc     <common>
 0003:000128d0       ___lconv_num_refcount      004838d0     <common>
 0003:000128d4       __nhandle                  004838d4     <common>
 0003:000128e0       ___pioinfo                 004838e0     <common>
 0003:000129e0       ___sbh_initialized         004839e0     <common>
 0003:000129e4       ___sbh_pHeaderDefer        004839e4     <common>
 0003:000129e8       ___sbh_cntHeaderList       004839e8     <common>
 0003:000129ec       ___sbh_pHeaderList         004839ec     <common>
 0003:000129f0       ___sbh_threshold           004839f0     <common>
 0003:000129f4       ___sbh_pHeaderScan         004839f4     <common>
 0003:000129f8       ___sbh_sizeHeaderList      004839f8     <common>
 0003:000129fc       ___sbh_indGroupDefer       004839fc     <common>
 0003:00012a00       __crtheap                  00483a00     <common>
 0003:00012a04       ___active_heap             00483a04     <common>
 0003:00012a08       ___piob                    00483a08     <common>
 0003:00012a20       __bufin                    00483a20     <common>
 0003:00013a20       __nstream                  00484a20     <common>
 0003:00013a24       ___setlc_active            00484a24     <common>
 0003:00013a28       ___unguarded_readlc_active 00484a28     <common>
 0003:00013a2c       ___env_initialized         00484a2c     <common>
 0003:00013a30       ___onexitend               00484a30     <common>
 0003:00013a34       ___onexitbegin             00484a34     <common>
 0003:00013a38       ___mbctype_initialized     00484a38     <common>
 0003:00013a3c       ___mblcid                  00484a3c     <common>
 0003:00013a40       ___ptmbcinfo               00484a40     <common>
 0003:00013a44       ___ismbcodepage            00484a44     <common>
 0003:00013a60       __mbctype                  00484a60     <common>
 0003:00013b64       ___mbcodepage              00484b64     <common>
 0003:00013b70       ___mbulinfo                00484b70     <common>
 0003:00013b80       __mbcasemap                00484b80     <common>
 0003:00013c80       __acmdln                   00484c80     <common>

 entry point at        0001:0003d71c

 Static symbols

 0001:fffff000       $L185293                   00400000 f   nafxcw:filelist.obj
 0001:fffff000       $L148946                   00400000 f   serversock.obj
 0001:fffff000       $L143275                   00400000 f   clientsocke.obj
 0001:fffff000       $L143123                   00400000 f   buffer.obj
 0001:fffff000       $L153028                   00400000 f   packetlog.obj
 0001:fffff000       $L142708                   00400000 f   scanner.obj
 0001:fffff000       $L148113                   00400000 f   serversock.obj
 0001:fffff000       $L185334                   00400000 f   nafxcw:dlgfile.obj
 0001:fffff000       $L185126                   00400000 f   nafxcw:thrdcore.obj
 0001:fffff000       $L185618                   00400000 f   nafxcw:dlgfile.obj
 0001:fffff000       $L147289                   00400000 f   serversock.obj
 0001:fffff000       $L184235                   00400000 f   nafxcw:dlgcomm.obj
 0001:fffff000       __ehhandler$?_Copy@?$basic_string@DU?$char_traits@D@std@@V?$allocator@D@2@@std@@IAEXII@Z 00400000 f   buffer.obj
 0001:fffff000       $L185139                   00400000 f   nafxcw:thrdcore.obj
 0001:fffff000       $L152324                   00400000 f   packetlog.obj
 0001:fffff000       $L184990                   00400000 f   nafxcw:appui2.obj
 0001:fffff000       $L184974                   00400000 f   nafxcw:appcore.obj
 0001:fffff000       __ehhandler$?_Copy@?$basic_string@DU?$char_traits@D@std@@V?$allocator@D@2@@std@@IAEXII@Z 00400000 f   ServerDesc.obj
 0001:fffff000       __ehhandler$?_Copy@?$basic_string@DU?$char_traits@D@std@@V?$allocator@D@2@@std@@IAEXII@Z 00400000 f   clientsocke.obj
 0001:fffff000       __ehhandler$?_Copy@?$basic_string@DU?$char_traits@D@std@@V?$allocator@D@2@@std@@IAEXII@Z 00400000 f   packetlog.obj
 0001:fffff000       $L143411                   00400000 f   clientsocke.obj
 0001:fffff000       __ehhandler$?_Copy@?$basic_string@DU?$char_traits@D@std@@V?$allocator@D@2@@std@@IAEXII@Z 00400000 f   serversock.obj
 0001:fffff000       $L144506                   00400000 f   ServerDesc.obj
 0001:fffff000       $L143472                   00400000 f   clientsock.obj
 0001:fffff000       $L198288                   00400000 f   nafxcw:wincore.obj
 0001:fffff000       __ehhandler$?_Copy@?$basic_string@DU?$char_traits@D@std@@V?$allocator@D@2@@std@@IAEXII@Z 00400000 f   dpsock.obj
 0001:fffff000       $L144971                   00400000 f   ServerDesc.obj
 0001:fffff000       $L187419                   00400000 f   nafxcw:olevar.obj
 0001:fffff000       $L145085                   00400000 f   ServerDesc.obj
 0001:fffff000       $L143336                   00400000 f   clientsock.obj
 0001:fffff000       $L184819                   00400000 f   nafxcw:appui3.obj
 0001:fffff000       __ehhandler$?_Copy@?$basic_string@DU?$char_traits@D@std@@V?$allocator@D@2@@std@@IAEXII@Z 00400000 f   rtmessenger.obj
 0001:fffff000       __ehhandler$?_Copy@?$basic_string@DU?$char_traits@D@std@@V?$allocator@D@2@@std@@IAEXII@Z 00400000 f   DPCoreClient.obj
 0001:fffff000       $L11745                    00400000 f   libcpmt:string.obj
 0001:fffff000       $L142970                   00400000 f   rtmessenger.obj
 0001:fffff000       $L147687                   00400000 f   dpsock.obj
 0001:fffff000       $L143674                   00400000 f   rtmessenger.obj
 0001:fffff000       __ehhandler$?_Copy@?$basic_string@DU?$char_traits@D@std@@V?$allocator@D@2@@std@@IAEXII@Z 00400000 f   dos2.obj
 0001:fffff000       $L143209                   00400000 f   dos2.obj
 0001:fffff000       $L185487                   00400000 f   nafxcw:olemisc.obj
 0001:fffff000       $L154718                   00400000 f   DPCoreClient.obj
 0001:fffff000       $L143057                   00400000 f   clientsocke.obj
 0001:fffff000       $L143913                   00400000 f   dos2.obj
 0001:fffff000       $L143118                   00400000 f   clientsock.obj
 0001:fffff000       $L155422                   00400000 f   DPCoreClient.obj
 0001:fffff000       __ehhandler$?_Copy@?$basic_string@DU?$char_traits@D@std@@V?$allocator@D@2@@std@@IAEXII@Z 00400000 f   Player.obj
 0001:fffff000       $L144523                   00400000 f   dos2.obj
 0001:fffff000       $L148706                   00400000 f   serversocke.obj
 0001:fffff000       $L147551                   00400000 f   dpsock.obj
 0001:fffff000       __ehhandler$?_Copy@?$basic_string@DU?$char_traits@D@std@@V?$allocator@D@2@@std@@IAEXII@Z 00400000 f   clientsock.obj
 0001:fffff000       $L147873                   00400000 f   serversocke.obj
 0001:fffff000       $L155975                   00400000 f   Player.obj
 0001:fffff000       __ehhandler$?_Copy@?$basic_string@DU?$char_traits@D@std@@V?$allocator@D@2@@std@@IAEXII@Z 00400000 f   DPClient.obj
 0001:fffff000       $L156488                   00400000 f   DPClient.obj
 0001:fffff000       $L185518                   00400000 f   nafxcw:filecore.obj
 0001:fffff000       $L155151                   00400000 f   Player.obj
 0001:fffff000       $L147049                   00400000 f   serversocke.obj
 0001:fffff000       $L11601                    00400000 f   libcpmt:string.obj
 0001:fffff000       $L184867                   00400000 f   nafxcw:filex.obj
 0001:fffff000       $L187058                   00400000 f   nafxcw:docmgr.obj
 0001:fffff000       $L147330                   00400000 f   dpsock.obj
 0001:fffff000       __ehhandler$?_Copy@?$basic_string@DU?$char_traits@D@std@@V?$allocator@D@2@@std@@IAEXII@Z 00400000 f   libcpmt:string.obj
 0001:fffff000       __ehhandler$?_Copy@?$basic_string@DU?$char_traits@D@std@@V?$allocator@D@2@@std@@IAEXII@Z 00400000 f   serversocke.obj
 0001:fffff000       $L157192                   00400000 f   DPClient.obj
 0001:fffff000       $L185600                   00400000 f   nafxcw:filest.obj
 0001:fffff000       $L142769                   00400000 f   buffer.obj
 0001:fffff008       __ehhandler$??0?$CStringT@DV?$StrTraitMFC@DV?$ChTraitsCRT@D@ATL@@@@@ATL@@QAE@PBD@Z 00400008 f   nafxcw:docmgr.obj
 0001:fffff008       __ehhandler$??0?$CStringT@DV?$StrTraitMFC@DV?$ChTraitsCRT@D@ATL@@@@@ATL@@QAE@PBD@Z 00400008 f   nafxcw:filelist.obj
 0001:fffff008       __ehhandler$??0logic_error@std@@QAE@ABV?$basic_string@DU?$char_traits@D@std@@V?$allocator@D@2@@1@@Z 00400008 f   DPClient.obj
 0001:fffff008       __ehhandler$??0logic_error@std@@QAE@ABV?$basic_string@DU?$char_traits@D@std@@V?$allocator@D@2@@1@@Z 00400008 f   serversocke.obj
 0001:fffff008       __ehhandler$??0logic_error@std@@QAE@ABV?$basic_string@DU?$char_traits@D@std@@V?$allocator@D@2@@1@@Z 00400008 f   Player.obj
 0001:fffff008       __ehhandler$??0?$CStringT@DV?$StrTraitMFC@DV?$ChTraitsCRT@D@ATL@@@@@ATL@@QAE@PBD@Z 00400008 f   nafxcw:filecore.obj
 0001:fffff008       __ehhandler$??0logic_error@std@@QAE@ABV01@@Z 00400008 f   Player.obj
 0001:fffff008       __ehhandler$??0logic_error@std@@QAE@ABV01@@Z 00400008 f   serversocke.obj
 0001:fffff008       __ehhandler$??0logic_error@std@@QAE@ABV01@@Z 00400008 f   DPClient.obj
 0001:fffff008       __ehhandler$??0logic_error@std@@QAE@ABV?$basic_string@DU?$char_traits@D@std@@V?$allocator@D@2@@1@@Z 00400008 f   dpsock.obj
 0001:fffff008       __ehhandler$?_Incsize@?$list@PAXV?$allocator@PAX@std@@@std@@IAEXI@Z 00400008 f   dos2.obj
 0001:fffff008       __ehhandler$?_Incsize@?$list@PAXV?$allocator@PAX@std@@@std@@IAEXI@Z 00400008 f   serversocke.obj
 0001:fffff008       __ehhandler$??0logic_error@std@@QAE@ABV01@@Z 00400008 f   DPCoreClient.obj
 0001:fffff008       __ehhandler$??0logic_error@std@@QAE@ABV01@@Z 00400008 f   dos2.obj
 0001:fffff008       __ehhandler$??0logic_error@std@@QAE@ABV?$basic_string@DU?$char_traits@D@std@@V?$allocator@D@2@@1@@Z 00400008 f   clientsock.obj
 0001:fffff008       __ehhandler$??0logic_error@std@@QAE@ABV?$basic_string@DU?$char_traits@D@std@@V?$allocator@D@2@@1@@Z 00400008 f   DPCoreClient.obj
 0001:fffff008       __ehhandler$??0logic_error@std@@QAE@ABV?$basic_string@DU?$char_traits@D@std@@V?$allocator@D@2@@1@@Z 00400008 f   dos2.obj
 0001:fffff008       __ehhandler$??0logic_error@std@@QAE@ABV01@@Z 00400008 f   rtmessenger.obj
 0001:fffff008       __ehhandler$?_Incsize@?$list@PAXV?$allocator@PAX@std@@@std@@IAEXI@Z 00400008 f   dpsock.obj
 0001:fffff008       __ehhandler$??0?$CStringT@DV?$StrTraitMFC@DV?$ChTraitsCRT@D@ATL@@@@@ATL@@QAE@PBD@Z 00400008 f   nafxcw:olemisc.obj
 0001:fffff008       __ehhandler$??0logic_error@std@@QAE@ABV?$basic_string@DU?$char_traits@D@std@@V?$allocator@D@2@@1@@Z 00400008 f   rtmessenger.obj
 0001:fffff008       __ehhandler$??0logic_error@std@@QAE@ABV?$basic_string@DU?$char_traits@D@std@@V?$allocator@D@2@@1@@Z 00400008 f   libcpmt:string.obj
 0001:fffff008       __ehhandler$??0logic_error@std@@QAE@ABV01@@Z 00400008 f   dpsock.obj
 0001:fffff008       __ehhandler$?erase@?$_Tree@V?$_Tmap_traits@KPAVCServerDesc@@U?$less@K@std@@V?$allocator@U?$pair@$$CBKPAVCServerDesc@@@std@@@3@$0A@@std@@@std@@QAE?AViterator@12@V312@@Z 00400008 f   ServerDesc.obj
 0001:fffff008       __ehhandler$?_Incsize@?$list@PAXV?$allocator@PAX@std@@@std@@IAEXI@Z 00400008 f   clientsock.obj
 0001:fffff008       __ehhandler$??0logic_error@std@@QAE@ABV01@@Z 00400008 f   ServerDesc.obj
 0001:fffff008       __ehhandler$??0?$CStringT@DV?$StrTraitMFC@DV?$ChTraitsCRT@D@ATL@@@@@ATL@@QAE@PBD@Z 00400008 f   nafxcw:appui3.obj
 0001:fffff008       __ehhandler$??0logic_error@std@@QAE@ABV?$basic_string@DU?$char_traits@D@std@@V?$allocator@D@2@@1@@Z 00400008 f   ServerDesc.obj
 0001:fffff008       __ehhandler$??0logic_error@std@@QAE@ABV01@@Z 00400008 f   clientsocke.obj
 0001:fffff008       __ehhandler$??0?$CStringT@DV?$StrTraitMFC@DV?$ChTraitsCRT@D@ATL@@@@@ATL@@QAE@PBD@Z 00400008 f   nafxcw:olevar.obj
 0001:fffff008       __ehhandler$??0logic_error@std@@QAE@ABV01@@Z 00400008 f   clientsock.obj
 0001:fffff008       __ehhandler$??0?$CStringT@DV?$StrTraitMFC@DV?$ChTraitsCRT@D@ATL@@@@@ATL@@QAE@PBD@Z 00400008 f   nafxcw:appui2.obj
 0001:fffff008       __ehhandler$??0logic_error@std@@QAE@ABV?$basic_string@DU?$char_traits@D@std@@V?$allocator@D@2@@1@@Z 00400008 f   packetlog.obj
 0001:fffff008       __ehhandler$?_Incsize@?$list@PAXV?$allocator@PAX@std@@@std@@IAEXI@Z 00400008 f   clientsocke.obj
 0001:fffff008       __ehhandler$??0?$CStringT@DV?$StrTraitMFC@DV?$ChTraitsCRT@D@ATL@@@@@ATL@@QAE@PBD@Z 00400008 f   nafxcw:dlgfile.obj
 0001:fffff008       __ehhandler$??0logic_error@std@@QAE@ABV?$basic_string@DU?$char_traits@D@std@@V?$allocator@D@2@@1@@Z 00400008 f   serversock.obj
 0001:fffff008       __ehhandler$??HATL@@YA?AV?$CStringT@DV?$StrTraitMFC@DV?$ChTraitsCRT@D@ATL@@@@@0@ABV10@0@Z 00400008 f   nafxcw:dlgfile.obj
 0001:fffff008       __ehhandler$??0logic_error@std@@QAE@ABV01@@Z 00400008 f   buffer.obj
 0001:fffff008       __ehhandler$??0?$CStringT@DV?$StrTraitMFC@DV?$ChTraitsCRT@D@ATL@@@@@ATL@@QAE@PBD@Z 00400008 f   scanner.obj
 0001:fffff008       __ehhandler$??0logic_error@std@@QAE@ABV01@@Z 00400008 f   serversock.obj
 0001:fffff008       __ehhandler$??0logic_error@std@@QAE@ABV01@@Z 00400008 f   packetlog.obj
 0001:fffff008       __ehhandler$??0logic_error@std@@QAE@ABV?$basic_string@DU?$char_traits@D@std@@V?$allocator@D@2@@1@@Z 00400008 f   buffer.obj
 0001:fffff008       __ehhandler$??0logic_error@std@@QAE@ABV01@@Z 00400008 f   libcpmt:string.obj
 0001:fffff008       __ehhandler$?_Incsize@?$list@PAXV?$allocator@PAX@std@@@std@@IAEXI@Z 00400008 f   serversock.obj
 0001:fffff008       __ehhandler$??0?$CStringT@DV?$StrTraitMFC@DV?$ChTraitsCRT@D@ATL@@@@@ATL@@QAE@PBD@Z 00400008 f   nafxcw:filest.obj
 0001:fffff008       __ehhandler$??0logic_error@std@@QAE@ABV?$basic_string@DU?$char_traits@D@std@@V?$allocator@D@2@@1@@Z 00400008 f   clientsocke.obj
 0001:fffff009       __ehhandler$?CreateObject@?$CThreadLocal@V_AFX_THREAD_STATE@@@@SGPAVCNoTrackObject@@XZ 00400009 f   nafxcw:dlgcomm.obj
 0001:fffff009       __ehhandler$?CreateObject@?$CThreadLocal@V_AFX_THREAD_STATE@@@@SGPAVCNoTrackObject@@XZ 00400009 f   nafxcw:wincore.obj
 0001:fffff009       __ehhandler$?CreateObject@?$CThreadLocal@V_AFX_THREAD_STATE@@@@SGPAVCNoTrackObject@@XZ 00400009 f   nafxcw:thrdcore.obj
 0001:fffff009       __ehhandler$?CreateObject@?$CThreadLocal@VAFX_MODULE_THREAD_STATE@@@@SGPAVCNoTrackObject@@XZ 00400009 f   nafxcw:appcore.obj
 0001:fffff009       __ehhandler$?CreateObject@?$CThreadLocal@VAFX_MODULE_THREAD_STATE@@@@SGPAVCNoTrackObject@@XZ 00400009 f   nafxcw:thrdcore.obj
 0001:fffff00b       __ehhandler$??0CFileException@@QAE@HJPBD@Z 0040000b f   nafxcw:filex.obj
 0001:fffff05f       $L11471                    0040005f f   libcpmt:string.obj
 0001:fffff073       $L141612                   00400073 f   buffer.obj
 0001:fffff073       $L145394                   00400073 f   dpsock.obj
 0001:fffff073       $L142009                   00400073 f   ServerDesc.obj
 0001:fffff073       $L148854                   00400073 f   packetlog.obj
 0001:fffff073       $L145526                   00400073 f   serversock.obj
 0001:fffff073       $L153126                   00400073 f   DPCoreClient.obj
 0001:fffff073       $L152989                   00400073 f   Player.obj
 0001:fffff073       $L141363                   00400073 f   dos2.obj
 0001:fffff073       $L141964                   00400073 f   clientsock.obj
 0001:fffff073       $L141342                   00400073 f   rtmessenger.obj
 0001:fffff073       $L141903                   00400073 f   clientsocke.obj
 0001:fffff073       $L145283                   00400073 f   serversocke.obj
 0001:fffff073       $L154454                   00400073 f   DPClient.obj
 0001:fffff0d3       $L11473                    004000d3 f   libcpmt:string.obj
 0001:fffff10b       $L154456                   0040010b f   DPClient.obj
 0001:fffff10b       $L141905                   0040010b f   clientsocke.obj
 0001:fffff10b       $L141365                   0040010b f   dos2.obj
 0001:fffff10b       $L152991                   0040010b f   Player.obj
 0001:fffff10b       $L153128                   0040010b f   DPCoreClient.obj
 0001:fffff10b       $L141614                   0040010b f   buffer.obj
 0001:fffff10b       $L148856                   0040010b f   packetlog.obj
 0001:fffff10b       $L141344                   0040010b f   rtmessenger.obj
 0001:fffff10b       $L145528                   0040010b f   serversock.obj
 0001:fffff10b       $L142011                   0040010b f   ServerDesc.obj
 0001:fffff10b       $L145396                   0040010b f   dpsock.obj
 0001:fffff10b       $L145285                   0040010b f   serversocke.obj
 0001:fffff10b       $L141966                   0040010b f   clientsock.obj
 0001:000020c3       $L152873                   004030c3 f i DPCacheSrvr.obj
 0001:0000215b       $L152875                   0040315b f i DPCacheSrvr.obj
 0001:00009168       $L149476                   0040a168 f i packetlog.obj
 0001:0000a4a1       $L154428                   0040b4a1 f i packetlog.obj
 0001:0000a4ad       $L154430                   0040b4ad f i packetlog.obj
 0001:0000a741       $L155032                   0040b741 f i packetlog.obj
 0001:0000b412       $L159453                   0040c412 f i packetlog.obj
 0001:0000b4c2       $L159498                   0040c4c2 f i packetlog.obj
 0001:0000bbf0       $L161477                   0040cbf0 f i packetlog.obj
 0001:0000c6c6       $L164507                   0040d6c6 f i packetlog.obj
 0001:0000c77a       $L164509                   0040d77a f i packetlog.obj
 0001:0001d850       ?LogFile@@YAXPBD0W4LOG_TYPE@@@Z 0041e850 f   debug.obj
 0001:0001d900       ?FileOutV@@YAXW4LOG_TYPE@@PBD1PAD@Z 0041e900 f   debug.obj
 0001:0001fc80       ?UpdateTime@@YAXXZ         00420c80 f   timer.obj
 0001:00021eab       $L185494                   00422eab f   nafxcw:olevar.obj
 0001:00022d7a       $L186171                   00423d7a f   nafxcw:olevar.obj
 0001:00023ae2       $L186917                   00424ae2 f   nafxcw:olevar.obj
 0001:00023da2       $L187039                   00424da2 f   nafxcw:olevar.obj
 0001:0002401d       $L187141                   0042501d f   nafxcw:olevar.obj
 0001:00026173       $L184244                   00427173 f   nafxcw:fixalloc.obj
 0001:00026888       _report_failure            00427888 f   libcmt:secchk.obj
 0001:00026ef0       ?CatchGuardHandler@@YA?AW4_EXCEPTION_DISPOSITION@@PAUEHExceptionRecord@@PAUCatchGuardRN@@PAX2@Z 00427ef0 f   libcmt:trnsctrl.obj
 0001:00026ff2       ?TranslatorGuardHandler@@YA?AW4_EXCEPTION_DISPOSITION@@PAUEHExceptionRecord@@PAUTranslatorGuardRN@@PAX2@Z 00427ff2 f   libcmt:trnsctrl.obj
 0001:0002720c       $$$00001                   0042820c f   libcmt:exsup.obj
 0001:0002722c       $$$00003                   0042822c f   libcmt:exsup.obj
 0001:0002722c       __unwind_handler           0042822c f   libcmt:exsup.obj
 0001:0002724e       $$$00005                   0042824e f   libcmt:exsup.obj
 0001:000272b6       $$$00007                   004282b6 f   libcmt:exsup.obj
 0001:000272fa       $$$00011                   004282fa f   libcmt:exsup.obj
 0001:00027641       __store_str                00428641 f   libcmt:strftime.obj
 0001:00027661       __store_number             00428661 f   libcmt:strftime.obj
 0001:00027697       __store_num                00428697 f   libcmt:strftime.obj
 0001:00027710       __expandtime               00428710 f   libcmt:strftime.obj
 0001:00027976       __store_winword            00428976 f   libcmt:strftime.obj
 0001:00028473       __onexit_lk                00429473 f   libcmt:onexit.obj
 0001:00028a4d       $$$00003                   00429a4d f   libcmt:exsup3.obj
 0001:00028ca8       __threadstartex@4          00429ca8 f   libcmt:threadex.obj
 0001:00029740       _$$$00001                  0042a740 f   libcmt:strchr.obj
 0001:0002991e       _flsall                    0042a91e f   libcmt:fflush.obj
 0001:0002a1b5       _fast_error_exit           0042b1b5 f   libcmt:wincrt0.obj
 0001:0002a1d9       _check_managed_app         0042b1d9 f   libcmt:wincrt0.obj
 0001:0002ab80       ?ArrayUnwindFilter@@YAHPAU_EXCEPTION_POINTERS@@@Z 0042bb80 f   libcmt:ehvecdtr.obj
 0001:0002ae74       _getSystemCP               0042be74 f   libcmt:mbctype.obj
 0001:0002aeba       _CPtoLCID                  0042beba f   libcmt:mbctype.obj
 0001:0002aee9       _setSBCS                   0042bee9 f   libcmt:mbctype.obj
 0001:0002af12       _setSBUpLow                0042bf12 f   libcmt:mbctype.obj
 0001:0002b11c       __setmbcp_lk               0042c11c f   libcmt:mbctype.obj
 0001:0002b470       __initterm                 0042c470 f   libcmt:crt0dat.obj
 0001:0002b488       __initterm_e               0042c488 f   libcmt:crt0dat.obj
 0001:0002b510       _doexit                    0042c510 f   libcmt:crt0dat.obj
 0001:0002b8b0       __make__time64_t           0042c8b0 f   libcmt:mktime64.obj
 0001:0002be71       ___updatetlocinfo_lk       0042ce71 f   libcmt:setlocal.obj
 0001:0002c0be       __setlocale_get_all        0042d0be f   libcmt:setlocal.obj
 0001:0002c2f8       __setlocale_set_cat        0042d2f8 f   libcmt:setlocal.obj
 0001:0002c58c       __setlocale_lk             0042d58c f   libcmt:setlocal.obj
 0001:0002ccd8       ?TypeMatch@@YAHPBU_s_HandlerType@@PBU_s_CatchableType@@PBU_s_ThrowInfo@@@Z 0042dcd8 f   libcmt:frame.obj
 0001:0002cd27       ?FrameUnwindFilter@@YAHPAU_EXCEPTION_POINTERS@@@Z 0042dd27 f   libcmt:frame.obj
 0001:0002ce13       ?ExFilterRethrow@@YAHPAU_EXCEPTION_POINTERS@@@Z 0042de13 f   libcmt:frame.obj
 0001:0002ce88       ?AdjustPointer@@YAPAXPAXABUPMD@@@Z 0042de88 f   libcmt:frame.obj
 0001:0002d09c       ?CallCatchBlock@@YAPAXPAUEHExceptionRecord@@PAUEHRegistrationNode@@PAU_CONTEXT@@PBU_s_FuncInfo@@PAXHK@Z 0042e09c f   libcmt:frame.obj
 0001:0002d260       ?BuildCatchObject@@YAXPAUEHExceptionRecord@@PAXPBU_s_HandlerType@@PBU_s_CatchableType@@@Z 0042e260 f   libcmt:frame.obj
 0001:0002d501       ?CatchIt@@YAXPAUEHExceptionRecord@@PAUEHRegistrationNode@@PAU_CONTEXT@@PAXPBU_s_FuncInfo@@PBU_s_HandlerType@@PBU_s_CatchableType@@PBU_s_TryBlockMapEntry@@H1E@Z 0042e501 f   libcmt:frame.obj
 0001:0002d568       ?FindHandlerForForeignException@@YAXPAUEHExceptionRecord@@PAUEHRegistrationNode@@PAU_CONTEXT@@PAXPBU_s_FuncInfo@@HH1@Z 0042e568 f   libcmt:frame.obj
 0001:0002d626       ?FindHandler@@YAXPAUEHExceptionRecord@@PAUEHRegistrationNode@@PAU_CONTEXT@@PAXPBU_s_FuncInfo@@EH1@Z 0042e626 f   libcmt:frame.obj
 0001:0002da98       __tzset_lk                 0042ea98 f   libcmt:tzset.obj
 0001:0002dd40       _cvtdate                   0042ed40 f   libcmt:tzset.obj
 0001:0002def8       __isindst_lk               0042eef8 f   libcmt:tzset.obj
 0001:0002e75b       __shift                    0042f75b f   libcmt:cvt.obj
 0001:0002e778       __cftoe2                   0042f778 f   libcmt:cvt.obj
 0001:0002e896       __cftof2                   0042f896 f   libcmt:cvt.obj
 0001:0002ee66       _write_char                0042fe66 f   libcmt:output.obj
 0001:0002ee99       _write_multi_char          0042fe99 f   libcmt:output.obj
 0001:0002eebd       _write_string              0042febd f   libcmt:output.obj
 0001:0002eef4       _get_int_arg               0042fef4 f   libcmt:output.obj
 0001:0002eefd       _get_int64_arg             0042fefd f   libcmt:output.obj
 0001:0002ef09       _get_short_arg             0042ff09 f   libcmt:output.obj
 0001:00030cc6       _strncnt                   00431cc6 f   libcmt:a_map.obj
 0001:000311d1       _xcptlookup                004321d1 f   libcmt:winxfltr.obj
 0001:0003148d       __hextodec                 0043248d f   libcmt:input.obj
 0001:000314a5       __inc                      004324a5 f   libcmt:input.obj
 0001:000314bb       __un_inc                   004324bb f   libcmt:input.obj
 0001:000314c8       __whiteout                 004324c8 f   libcmt:input.obj
 0001:00033dd0       _parse_cmdline             00434dd0 f   libcmt:stdargv.obj
 0001:00034188       _write_char                00435188 f   libcmt:woutput.obj
 0001:000341ad       _write_multi_char          004351ad f   libcmt:woutput.obj
 0001:000341d2       _write_string              004351d2 f   libcmt:woutput.obj
 0001:0003420f       _get_int_arg               0043520f f   libcmt:woutput.obj
 0001:00034218       _get_int64_arg             00435218 f   libcmt:woutput.obj
 0001:00034ba5       __get_lc_time              00435ba5 f   libcmt:inittime.obj
 0001:000350fb       _fix_grouping              004360fb f   libcmt:initnum.obj
 0001:0003535a       _fix_grouping              0043635a f   libcmt:initmon.obj
 0001:000358e7       _TranslateName             004368e7 f   libcmt:getqloc.obj
 0001:00035947       _GetLcidFromDefault        00436947 f   libcmt:getqloc.obj
 0001:00035961       _ProcessCodePage           00436961 f   libcmt:getqloc.obj
 0001:000359db       _TestDefaultCountry        004369db f   libcmt:getqloc.obj
 0001:000359f9       _crtGetLocaleInfoA@16      004369f9 f   libcmt:getqloc.obj
 0001:00035adc       _LcidFromHexString         00436adc f   libcmt:getqloc.obj
 0001:00035b11       _GetPrimaryLen             00436b11 f   libcmt:getqloc.obj
 0001:00035b2e       _CountryEnumProc@4         00436b2e f   libcmt:getqloc.obj
 0001:00035bc6       _TestDefaultLanguage       00436bc6 f   libcmt:getqloc.obj
 0001:00035c3b       _LangCountryEnumProc@4     00436c3b f   libcmt:getqloc.obj
 0001:00035e59       _LanguageEnumProc@4        00436e59 f   libcmt:getqloc.obj
 0001:00035f28       _GetLcidFromCountry        00436f28 f   libcmt:getqloc.obj
 0001:00035f5f       _GetLcidFromLangCountry    00436f5f f   libcmt:getqloc.obj
 0001:00035fe5       _GetLcidFromLanguage       00436fe5 f   libcmt:getqloc.obj
 0001:00036398       ___crtInitCritSecNoSpinCount@8 00437398 f   libcmt:initcrit.obj
 0001:00036b7e       __abstract_cw              00437b7e f   libcmt:ieee87.obj
 0001:00036c10       __hw_cw                    00437c10 f   libcmt:ieee87.obj
 0001:00036c9e       __abstract_sw              00437c9e f   libcmt:ieee87.obj
 0001:00036f25       __tsopen_lk                00437f25 f   libcmt:open.obj
 0001:00037d16       _x_ismbbtype               00438d16 f   libcmt:ismbbyte.obj
 0001:00038165       _xtoa                      00439165 f   libcmt:xtoa.obj
 0001:0003820e       _x64toa@20                 0043920e f   libcmt:xtoa.obj
 0001:000382c7       _ctrlevent_capture@4       004392c7 f   libcmt:winsig.obj
 0001:00038356       _siglookup                 00439356 f   libcmt:winsig.obj
 0001:00039491       _strncnt                   0043a491 f   libcmt:a_cmp.obj
 0001:00039837       _findenv                   0043a837 f   libcmt:setenv.obj
 0001:00039884       _copy_environ              0043a884 f   libcmt:setenv.obj
 0001:0003e90d       $L184269                   0043f90d f   nafxcw:arcstrm.obj
 0001:0003e966       $L184289                   0043f966 f   nafxcw:arcstrm.obj
 0001:0003ea61       $L184356                   0043fa61 f   nafxcw:arcstrm.obj
 0001:00040219       _$E5                       00441219 f   nafxcw:strcore.obj
 0001:000402b8       $L186468                   004412b8 f   nafxcw:objcore.obj
 0001:000404c6       $L185025                   004414c6 f   nafxcw:thrdcore.obj
 0001:000404d4       $L185027                   004414d4 f   nafxcw:thrdcore.obj
 0001:000404e2       $L185029                   004414e2 f   nafxcw:thrdcore.obj
 0001:00040ba6       $L185420                   00441ba6 f   nafxcw:thrdcore.obj
 0001:000418c2       ?FindSiteOrWnd@@YAPAU__POSITION@@PBVCOleControlContainer@@PBUCOleControlSiteOrWnd@@@Z 004428c2 f   nafxcw:winocc.obj
 0001:00041905       ?FindSiteOrWndWithFocus@@YAPAU__POSITION@@PBVCOleControlContainer@@@Z 00442905 f   nafxcw:winocc.obj
 0001:00042238       $L184273                   00443238 f   nafxcw:winhand.obj
 0001:000426d5       $L197942                   004436d5 f   nafxcw:wincore.obj
 0001:00043854       $L198706                   00444854 f   nafxcw:wincore.obj
 0001:0004385a       $L198707                   0044485a f   nafxcw:wincore.obj
 0001:0004487a       $L199484                   0044587a f   nafxcw:wincore.obj
 0001:00045823       $L200290                   00446823 f   nafxcw:wincore.obj
 0001:00046606       _$E5                       00447606 f   nafxcw:wincore.obj
 0001:00046612       _$E8                       00447612 f   nafxcw:wincore.obj
 0001:00046623       _$E10                      00447623 f   nafxcw:wincore.obj
 0001:0004663b       _$E13                      0044763b f   nafxcw:wincore.obj
 0001:00046653       _$E16                      00447653 f   nafxcw:wincore.obj
 0001:0004666b       _$E19                      0044766b f   nafxcw:wincore.obj
 0001:00046683       _$E6                       00447683 f   nafxcw:wincore.obj
 0001:0004668d       _$E11                      0044768d f   nafxcw:wincore.obj
 0001:00046697       _$E14                      00447697 f   nafxcw:wincore.obj
 0001:000466a1       _$E17                      004476a1 f   nafxcw:wincore.obj
 0001:000466ab       _$E20                      004476ab f   nafxcw:wincore.obj
 0001:0004995f       $L193708                   0044a95f f   nafxcw:dlgcore.obj
 0001:00049afc       $L193808                   0044aafc f   nafxcw:dlgcore.obj
 0001:0004aabf       $L185098                   0044babf f   nafxcw:arccore.obj
 0001:0004ae43       $L184613                   0044be43 f   nafxcw:arcex.obj
 0001:0005042f       _$E5                       0045142f f   nafxcw:except.obj
 0001:0005044c       _$E8                       0045144c f   nafxcw:except.obj
 0001:00050469       _$E11                      00451469 f   nafxcw:except.obj
 0001:00050486       _$E6                       00451486 f   nafxcw:except.obj
 0001:00050490       _$E9                       00451490 f   nafxcw:except.obj
 0001:0005049a       _$E12                      0045149a f   nafxcw:except.obj
 0001:000507d8       _$E5                       004517d8 f   nafxcw:auxdata.obj
 0001:000507ee       _$E6                       004517ee f   nafxcw:auxdata.obj
 0001:00050bd7       _$E5                       00451bd7 f   nafxcw:afxstate.obj
 0001:00050be3       _$E8                       00451be3 f   nafxcw:afxstate.obj
 0001:00050bef       _$E6                       00451bef f   nafxcw:afxstate.obj
 0001:00050bf9       _$E9                       00451bf9 f   nafxcw:afxstate.obj
 0001:00050e22       $L184498                   00451e22 f   nafxcw:afxtls.obj
 0001:00051505       _$E5                       00452505 f   nafxcw:array_b.obj
 0001:00051da3       $L200227                   00452da3 f i nafxcw:wincore.obj
 0001:00051eac       _$E5                       00452eac f   nafxcw:wingdi.obj
 0001:00051ec9       _$E8                       00452ec9 f   nafxcw:wingdi.obj
 0001:00051ee6       _$E6                       00452ee6 f   nafxcw:wingdi.obj
 0001:00051ef0       _$E9                       00452ef0 f   nafxcw:wingdi.obj
 0001:00051f3d       ?_AfxLoadLangDLL@@YAPAUHINSTANCE__@@PBDK@Z 00452f3d f   nafxcw:appcore.obj
 0001:00051fc6       ?_AfxEnumResLangProc@@YGHPAUHINSTANCE__@@PBD1GJ@Z 00452fc6 f   nafxcw:appcore.obj
 0001:00052965       _$E5                       00453965 f   nafxcw:appcore.obj
 0001:00052971       _$E6                       00453971 f   nafxcw:appcore.obj
 0001:000529b2       _$E5                       004539b2 f   nafxcw:afxdbcs.obj
 0001:00053080       $L185015                   00454080 f   nafxcw:appui2.obj
 0001:00055760       $L153842                   00456760 f   CacheServer.obj
 0001:0005576b       __ehhandler$?Script@@YAHPBD@Z 0045676b f   CacheServer.obj
 0001:00055780       $L154143                   00456780 f   CacheServer.obj
 0001:00055788       __ehhandler$??0?$CStringT@DV?$StrTraitMFC@DV?$ChTraitsCRT@D@ATL@@@@@ATL@@QAE@PBD@Z 00456788 f   CacheServer.obj
 0001:000557a0       $L154242                   004567a0 f   CacheServer.obj
 0001:000557a8       __ehhandler$?InitInstance@@YAHPAUHINSTANCE__@@H@Z 004567a8 f   CacheServer.obj
 0001:000557c0       $L151997                   004567c0 f   DPCacheSrvr.obj
 0001:000557c8       $L151998                   004567c8 f   DPCacheSrvr.obj
 0001:000557d0       __ehhandler$?OnAddConnection@CDPCacheSrvr@@AAEXAAVCAr@@KPAEK@Z 004567d0 f   DPCacheSrvr.obj
 0001:000557e0       $L152043                   004567e0 f   DPCacheSrvr.obj
 0001:000557eb       $L152044                   004567eb f   DPCacheSrvr.obj
 0001:000557f6       __ehhandler$?OnRemoveConnection@CDPCacheSrvr@@AAEXK@Z 004567f6 f   DPCacheSrvr.obj
 0001:00055800       $L152099                   00456800 f   DPCacheSrvr.obj
 0001:00055808       __ehhandler$?OnKeepAlive@CDPCacheSrvr@@AAEXAAVCAr@@KPAEK@Z 00456808 f   DPCacheSrvr.obj
 0001:00055820       __ehhandler$?_Copy@?$basic_string@DU?$char_traits@D@std@@V?$allocator@D@2@@std@@IAEXII@Z 00456820 f   DPCacheSrvr.obj
 0001:00055830       $L153573                   00456830 f   DPCacheSrvr.obj
 0001:0005583b       __ehhandler$?UserMessageHandler@CDPCacheSrvr@@UAEXPAUDPMSG_GENERIC@@KK@Z 0045683b f   DPCacheSrvr.obj
 0001:00055850       $L154446                   00456850 f   DPCacheSrvr.obj
 0001:00055858       __ehhandler$??0logic_error@std@@QAE@ABV?$basic_string@DU?$char_traits@D@std@@V?$allocator@D@2@@1@@Z 00456858 f   DPCacheSrvr.obj
 0001:00055870       $L154775                   00456870 f   DPCacheSrvr.obj
 0001:00055878       __ehhandler$?_Insert@?$_Tree@V?$_Tmap_traits@KP8CDPCacheSrvr@@AEXAAVCAr@@KPAEK@ZU?$less@K@std@@V?$allocator@U?$pair@$$CBKP8CDPCacheSrvr@@AEXAAVCAr@@KPAEK@Z@std@@@4@$0A@@std@@@std@@IAE?AViterator@12@_NPAU_Node@?$_Tree_nod@V?$_Tmap_traits@KP8CDPCacheSrvr@@AEXAAVCAr@@KPAEK@ZU?$less@K@std@@V?$allocator@U?$pair@$$CBKP8CDPCacheSrvr@@AEXAAVCAr@@KPAEK@Z@std@@@4@$0A@@std@@@2@ABU?$pair@$$CBKP8CDPCacheSrvr@@AEXAAVCAr@@KPAEK@Z@2@@Z 00456878 f   DPCacheSrvr.obj
 0001:00055890       $L155150                   00456890 f   DPCacheSrvr.obj
 0001:00055898       __ehhandler$??0logic_error@std@@QAE@ABV01@@Z 00456898 f   DPCacheSrvr.obj
 0001:000558b0       $L155264                   004568b0 f   DPCacheSrvr.obj
 0001:000558b8       __ehhandler$?erase@?$_Tree@V?$_Tmap_traits@KP8CDPCacheSrvr@@AEXAAVCAr@@KPAEK@ZU?$less@K@std@@V?$allocator@U?$pair@$$CBKP8CDPCacheSrvr@@AEXAAVCAr@@KPAEK@Z@std@@@4@$0A@@std@@@std@@QAE?AViterator@12@V312@@Z 004568b8 f   DPCacheSrvr.obj
 0001:000558d0       $L156522                   004568d0 f   DPCacheSrvr.obj
 0001:000558d8       __ehhandler$??1CDPCacheSrvr@@UAE@XZ 004568d8 f   DPCacheSrvr.obj
 0001:000558f0       $L156865                   004568f0 f   DPCacheSrvr.obj
 0001:000558f8       $L156866                   004568f8 f   DPCacheSrvr.obj
 0001:00055903       __ehhandler$??0CDPCacheSrvr@@QAE@XZ 00456903 f   DPCacheSrvr.obj
 0001:00055910       $L152466                   00456910 f   DPClient.obj
 0001:0005591b       __ehhandler$?SendJoin@CDPClient@@QAEXPAVCPlayer@@@Z 0045691b f   DPClient.obj
 0001:00055930       $L152972                   00456930 f   DPClient.obj
 0001:0005593b       __ehhandler$??0CDPClientArray@@QAE@XZ 0045693b f   DPClient.obj
 0001:00055950       $L152994                   00456950 f   DPClient.obj
 0001:00055958       __ehhandler$?Free@CDPClientArray@@QAEXXZ 00456958 f   DPClient.obj
 0001:00055970       $L153025                   00456970 f   DPClient.obj
 0001:00055978       __ehhandler$?GetClient@CDPClientArray@@QAEPAVCDPClient@@KKABUD3DXVECTOR3@@@Z 00456978 f   DPClient.obj
 0001:00055990       $L153071                   00456990 f   DPClient.obj
 0001:00055998       __ehhandler$?SendToServer@CDPClientArray@@QAEXKPAXK@Z 00456998 f   DPClient.obj
 0001:000559b0       $L153737                   004569b0 f   DPClient.obj
 0001:000559bb       $L153738                   004569bb f   DPClient.obj
 0001:000559c6       __ehhandler$?OnQueryDestroyPlayer@CDPClient@@AAEXAAVCAr@@KPAXK@Z 004569c6 f   DPClient.obj
 0001:000559d0       $L153808                   004569d0 f   DPClient.obj
 0001:000559db       $L153809                   004569db f   DPClient.obj
 0001:000559e6       __ehhandler$??1CDPClientArray@@UAE@XZ 004569e6 f   DPClient.obj
 0001:000559f0       $L155614                   004569f0 f   DPClient.obj
 0001:000559fb       __ehhandler$?UserMessageHandler@CDPClient@@UAEXPAUDPMSG_GENERIC@@KK@Z 004569fb f   DPClient.obj
 0001:00055a10       $L156817                   00456a10 f   DPClient.obj
 0001:00055a18       __ehhandler$?_Insert@?$_Tree@V?$_Tmap_traits@KPAVCServerDesc@@U?$less@K@std@@V?$allocator@U?$pair@$$CBKPAVCServerDesc@@@std@@@3@$0A@@std@@@std@@IAE?AViterator@12@_NPAU_Node@?$_Tree_nod@V?$_Tmap_traits@KPAVCServerDesc@@U?$less@K@std@@V?$allocator@U?$pair@$$CBKPAVCServerDesc@@@std@@@3@$0A@@std@@@2@ABU?$pair@$$CBKPAVCServerDesc@@@2@@Z 00456a18 f   DPClient.obj
 0001:00055a30       $L157299                   00456a30 f   DPClient.obj
 0001:00055a38       __ehhandler$?_Insert@?$_Tree@V?$_Tmap_traits@KP8CDPClient@@AEXAAVCAr@@KPAXK@ZU?$less@K@std@@V?$allocator@U?$pair@$$CBKP8CDPClient@@AEXAAVCAr@@KPAXK@Z@std@@@4@$0A@@std@@@std@@IAE?AViterator@12@_NPAU_Node@?$_Tree_nod@V?$_Tmap_traits@KP8CDPClient@@AEXAAVCAr@@KPAXK@ZU?$less@K@std@@V?$allocator@U?$pair@$$CBKP8CDPClient@@AEXAAVCAr@@KPAXK@Z@std@@@4@$0A@@std@@@2@ABU?$pair@$$CBKP8CDPClient@@AEXAAVCAr@@KPAXK@Z@2@@Z 00456a38 f   DPClient.obj
 0001:00055a50       $L157683                   00456a50 f   DPClient.obj
 0001:00055a58       __ehhandler$?erase@?$_Tree@V?$_Tmap_traits@KPAVCServerDesc@@U?$less@K@std@@V?$allocator@U?$pair@$$CBKPAVCServerDesc@@@std@@@3@$0A@@std@@@std@@QAE?AViterator@12@V312@@Z 00456a58 f   DPClient.obj
 0001:00055a70       $L158183                   00456a70 f   DPClient.obj
 0001:00055a78       __ehhandler$?erase@?$_Tree@V?$_Tmap_traits@KP8CDPClient@@AEXAAVCAr@@KPAXK@ZU?$less@K@std@@V?$allocator@U?$pair@$$CBKP8CDPClient@@AEXAAVCAr@@KPAXK@Z@std@@@4@$0A@@std@@@std@@QAE?AViterator@12@V312@@Z 00456a78 f   DPClient.obj
 0001:00055a90       $L159708                   00456a90 f   DPClient.obj
 0001:00055a98       __ehhandler$?Remove@CDPClientArray@@QAEHPAVCDPClient@@@Z 00456a98 f   DPClient.obj
 0001:00055ab0       $L160009                   00456ab0 f   DPClient.obj
 0001:00055ab8       __ehhandler$??1CDPClient@@UAE@XZ 00456ab8 f   DPClient.obj
 0001:00055ad0       $L160351                   00456ad0 f   DPClient.obj
 0001:00055ad8       $L160352                   00456ad8 f   DPClient.obj
 0001:00055ae3       __ehhandler$??0CDPClient@@QAE@XZ 00456ae3 f   DPClient.obj
 0001:00055af0       $L160596                   00456af0 f   DPClient.obj
 0001:00055af8       $L160597                   00456af8 f   DPClient.obj
 0001:00055b03       __ehhandler$?Connect@CDPClientArray@@QAEHPAVCServerDesc@@@Z 00456b03 f   DPClient.obj
 0001:00055b10       $L151864                   00456b10 f   DPCoreClient.obj
 0001:00055b1b       __ehhandler$?SendDestroyPlayer@CDPCoreClient@@QAEXPAVCPlayer@@@Z 00456b1b f   DPCoreClient.obj
 0001:00055b30       $L151898                   00456b30 f   DPCoreClient.obj
 0001:00055b3b       __ehhandler$?SendAddPlayer@CDPCoreClient@@QAEXPAVCPlayer@@AAVCRTMessenger@@@Z 00456b3b f   DPCoreClient.obj
 0001:00055b50       $L151989                   00456b50 f   DPCoreClient.obj
 0001:00055b5b       __ehhandler$?OnProcServer@CDPCoreClient@@IAEXAAVCAr@@K@Z 00456b5b f   DPCoreClient.obj
 0001:00055b70       $L152252                   00456b70 f   DPCoreClient.obj
 0001:00055b7b       __ehhandler$?OnProcServerList@CDPCoreClient@@IAEXAAVCAr@@K@Z 00456b7b f   DPCoreClient.obj
 0001:00055b90       $L152276                   00456b90 f   DPCoreClient.obj
 0001:00055b98       __ehhandler$?OnJoin@CDPCoreClient@@IAEXAAVCAr@@K@Z 00456b98 f   DPCoreClient.obj
 0001:00055bb0       $L152353                   00456bb0 f   DPCoreClient.obj
 0001:00055bb8       __ehhandler$?OnLeave@CDPCoreClient@@IAEXAAVCAr@@K@Z 00456bb8 f   DPCoreClient.obj
 0001:00055bd0       $L153824                   00456bd0 f   DPCoreClient.obj
 0001:00055bdb       $L153825                   00456bdb f   DPCoreClient.obj
 0001:00055be6       __ehhandler$?UserMessageHandler@CDPCoreClient@@UAEXPAUDPMSG_GENERIC@@KK@Z 00456be6 f   DPCoreClient.obj
 0001:00055bf0       $L155047                   00456bf0 f   DPCoreClient.obj
 0001:00055bf8       __ehhandler$?_Insert@?$_Tree@V?$_Tmap_traits@KP8CDPCoreClient@@AEXAAVCAr@@K@ZU?$less@K@std@@V?$allocator@U?$pair@$$CBKP8CDPCoreClient@@AEXAAVCAr@@K@Z@std@@@4@$0A@@std@@@std@@IAE?AViterator@12@_NPAU_Node@?$_Tree_nod@V?$_Tmap_traits@KP8CDPCoreClient@@AEXAAVCAr@@K@ZU?$less@K@std@@V?$allocator@U?$pair@$$CBKP8CDPCoreClient@@AEXAAVCAr@@K@Z@std@@@4@$0A@@std@@@2@ABU?$pair@$$CBKP8CDPCoreClient@@AEXAAVCAr@@K@Z@2@@Z 00456bf8 f   DPCoreClient.obj
 0001:00055c10       $L155536                   00456c10 f   DPCoreClient.obj
 0001:00055c18       __ehhandler$?erase@?$_Tree@V?$_Tmap_traits@KP8CDPCoreClient@@AEXAAVCAr@@K@ZU?$less@K@std@@V?$allocator@U?$pair@$$CBKP8CDPCoreClient@@AEXAAVCAr@@K@Z@std@@@4@$0A@@std@@@std@@QAE?AViterator@12@V312@@Z 00456c18 f   DPCoreClient.obj
 0001:00055c30       $L156794                   00456c30 f   DPCoreClient.obj
 0001:00055c38       __ehhandler$??1CDPCoreClient@@UAE@XZ 00456c38 f   DPCoreClient.obj
 0001:00055c50       $L157149                   00456c50 f   DPCoreClient.obj
 0001:00055c58       $L157150                   00456c58 f   DPCoreClient.obj
 0001:00055c63       __ehhandler$??0CDPCoreClient@@QAE@XZ 00456c63 f   DPCoreClient.obj
 0001:00055c70       __ehhandler$?_Copy@?$_Tree@V?$_Tmap_traits@KU_PacketRecvd@@U?$less@K@std@@V?$allocator@U?$pair@$$CBKU_PacketRecvd@@@std@@@3@$0A@@std@@@std@@IAEPAU_Node@?$_Tree_nod@V?$_Tmap_traits@KU_PacketRecvd@@U?$less@K@std@@V?$allocator@U?$pair@$$CBKU_PacketRecvd@@@std@@@3@$0A@@std@@@2@PAU342@0@Z 00456c70 f   packetlog.obj
 0001:00055c80       $L152653                   00456c80 f   packetlog.obj
 0001:00055c88       __ehhandler$?_Insert@?$_Tree@V?$_Tmap_traits@KU_PacketRecvd@@U?$less@K@std@@V?$allocator@U?$pair@$$CBKU_PacketRecvd@@@std@@@3@$0A@@std@@@std@@IAE?AViterator@12@_NPAU_Node@?$_Tree_nod@V?$_Tmap_traits@KU_PacketRecvd@@U?$less@K@std@@V?$allocator@U?$pair@$$CBKU_PacketRecvd@@@std@@@3@$0A@@std@@@2@ABU?$pair@$$CBKU_PacketRecvd@@@2@@Z 00456c88 f   packetlog.obj
 0001:00055ca0       $L153138                   00456ca0 f   packetlog.obj
 0001:00055ca8       __ehhandler$?_Xlen@?$vector@U_PlayerRecvd@@V?$allocator@U_PlayerRecvd@@@std@@@std@@IBEXXZ 00456ca8 f   packetlog.obj
 0001:00055cc0       $L153260                   00456cc0 f   packetlog.obj
 0001:00055cc8       __ehhandler$?_Xlen@?$vector@U_PacketRecvd@@V?$allocator@U_PacketRecvd@@@std@@@std@@IBEXXZ 00456cc8 f   packetlog.obj
 0001:00055ce0       $L153386                   00456ce0 f   packetlog.obj
 0001:00055ce8       __ehhandler$?erase@?$_Tree@V?$_Tmap_traits@KU_PacketRecvd@@U?$less@K@std@@V?$allocator@U?$pair@$$CBKU_PacketRecvd@@@std@@@3@$0A@@std@@@std@@QAE?AViterator@12@V312@@Z 00456ce8 f   packetlog.obj
 0001:00055d00       __ehhandler$?_Insert_n@?$vector@U_PacketRecvd@@V?$allocator@U_PacketRecvd@@@std@@@std@@IAEXViterator@12@IABU_PacketRecvd@@@Z 00456d00 f   packetlog.obj
 0001:00055d10       __ehhandler$??0?$_Tree@V?$_Tmap_traits@KU_PacketRecvd@@U?$less@K@std@@V?$allocator@U?$pair@$$CBKU_PacketRecvd@@@std@@@3@$0A@@std@@@std@@QAE@ABV01@@Z 00456d10 f   packetlog.obj
 0001:00055d20       $L156614                   00456d20 f   packetlog.obj
 0001:00055d31       __ehhandler$??$_Construct@U_PlayerRecvd@@U1@@std@@YAXPAU_PlayerRecvd@@ABU1@@Z 00456d31 f   packetlog.obj
 0001:00055d40       $L156640                   00456d40 f   packetlog.obj
 0001:00055d48       __ehhandler$??$swap@U_PlayerRecvd@@@std@@YAXAAU_PlayerRecvd@@0@Z 00456d48 f   packetlog.obj
 0001:00055d60       $L157111                   00456d60 f   packetlog.obj
 0001:00055d68       __ehhandler$??$_Push_heap@Viterator@?$vector@U_PlayerRecvd@@V?$allocator@U_PlayerRecvd@@@std@@@std@@HU_PlayerRecvd@@P6A_NAAU4@0@Z@std@@YAXViterator@?$vector@U_PlayerRecvd@@V?$allocator@U_PlayerRecvd@@@std@@@0@HHU_PlayerRecvd@@P6A_NAAU3@2@Z@Z 00456d68 f   packetlog.obj
 0001:00055d80       $L157650                   00456d80 f   packetlog.obj
 0001:00055d88       __ehhandler$??$_Rotate@Viterator@?$vector@U_PlayerRecvd@@V?$allocator@U_PlayerRecvd@@@std@@@std@@HU_PlayerRecvd@@@std@@YAXViterator@?$vector@U_PlayerRecvd@@V?$allocator@U_PlayerRecvd@@@std@@@0@00PAHPAU_PlayerRecvd@@@Z 00456d88 f   packetlog.obj
 0001:00055da0       $L158488                   00456da0 f   packetlog.obj
 0001:00055da8       __ehhandler$??$_Adjust_heap@Viterator@?$vector@U_PlayerRecvd@@V?$allocator@U_PlayerRecvd@@@std@@@std@@HU_PlayerRecvd@@P6A_NAAU4@0@Z@std@@YAXViterator@?$vector@U_PlayerRecvd@@V?$allocator@U_PlayerRecvd@@@std@@@0@HHU_PlayerRecvd@@P6A_NAAU3@2@Z@Z 00456da8 f   packetlog.obj
 0001:00055dc0       $L159075                   00456dc0 f   packetlog.obj
 0001:00055dc8       __ehhandler$??$_Pop_heap@Viterator@?$vector@U_PlayerRecvd@@V?$allocator@U_PlayerRecvd@@@std@@@std@@HU_PlayerRecvd@@P6A_NAAU4@0@Z@std@@YAXViterator@?$vector@U_PlayerRecvd@@V?$allocator@U_PlayerRecvd@@@std@@@0@00U_PlayerRecvd@@P6A_NAAU3@2@ZPAH@Z 00456dc8 f   packetlog.obj
 0001:00055de0       $L159454                   00456de0 f   packetlog.obj
 0001:00055df1       __ehhandler$?_Buynode@?$_Tree@V?$_Tmap_traits@KU_PlayerRecvd@@U?$less@K@std@@V?$allocator@U?$pair@$$CBKU_PlayerRecvd@@@std@@@3@$0A@@std@@@std@@IAEPAU_Node@?$_Tree_nod@V?$_Tmap_traits@KU_PlayerRecvd@@U?$less@K@std@@V?$allocator@U?$pair@$$CBKU_PlayerRecvd@@@std@@@3@$0A@@std@@@2@PAU342@00ABU?$pair@$$CBKU_PlayerRecvd@@@2@D@Z 00456df1 f   packetlog.obj
 0001:00055e00       $L159505                   00456e00 f   packetlog.obj
 0001:00055e11       __ehhandler$??$_Uninit_copy@PAU_PlayerRecvd@@PAU1@V?$allocator@U_PlayerRecvd@@@std@@@std@@YAPAU_PlayerRecvd@@PAU1@00AAV?$allocator@U_PlayerRecvd@@@0@U_Nonscalar_ptr_iterator_tag@0@@Z 00456e11 f   packetlog.obj
 0001:00055e20       $L160178                   00456e20 f   packetlog.obj
 0001:00055e28       __ehhandler$?_Insert@?$_Tree@V?$_Tmap_traits@KU_PlayerRecvd@@U?$less@K@std@@V?$allocator@U?$pair@$$CBKU_PlayerRecvd@@@std@@@3@$0A@@std@@@std@@IAE?AViterator@12@_NPAU_Node@?$_Tree_nod@V?$_Tmap_traits@KU_PlayerRecvd@@U?$less@K@std@@V?$allocator@U?$pair@$$CBKU_PlayerRecvd@@@std@@@3@$0A@@std@@@2@ABU?$pair@$$CBKU_PlayerRecvd@@@2@@Z 00456e28 f   packetlog.obj
 0001:00055e40       $L160571                   00456e40 f   packetlog.obj
 0001:00055e48       __ehhandler$?erase@?$_Tree@V?$_Tmap_traits@KU_PlayerRecvd@@U?$less@K@std@@V?$allocator@U?$pair@$$CBKU_PlayerRecvd@@@std@@@3@$0A@@std@@@std@@QAE?AViterator@12@V312@@Z 00456e48 f   packetlog.obj
 0001:00055e60       $L161484                   00456e60 f   packetlog.obj
 0001:00055e71       __ehhandler$??$_Uninit_fill_n@PAU_PlayerRecvd@@IU1@V?$allocator@U_PlayerRecvd@@@std@@@std@@YAXPAU_PlayerRecvd@@IABU1@AAV?$allocator@U_PlayerRecvd@@@0@U_Nonscalar_ptr_iterator_tag@0@@Z 00456e71 f   packetlog.obj
 0001:00055e80       $L163007                   00456e80 f   packetlog.obj
 0001:00055e88       $L163008                   00456e88 f   packetlog.obj
 0001:00055e90       $L163009                   00456e90 f   packetlog.obj
 0001:00055e98       $L163010                   00456e98 f   packetlog.obj
 0001:00055ea0       __ehhandler$?Add@CPacketLog@@QAEXKKK@Z 00456ea0 f   packetlog.obj
 0001:00055eb0       $L164510                   00456eb0 f   packetlog.obj
 0001:00055eb8       __ehhandler$?_Insert_n@?$vector@U_PlayerRecvd@@V?$allocator@U_PlayerRecvd@@@std@@@std@@IAEXViterator@12@IABU_PlayerRecvd@@@Z 00456eb8 f   packetlog.obj
 0001:00055ed0       $L165013                   00456ed0 f   packetlog.obj
 0001:00055ed8       __ehhandler$?Reset@CPacketLog@@QAEXXZ 00456ed8 f   packetlog.obj
 0001:00055ef0       $L165781                   00456ef0 f   packetlog.obj
 0001:00055ef8       $L165782                   00456ef8 f   packetlog.obj
 0001:00055f00       $L165783                   00456f00 f   packetlog.obj
 0001:00055f08       __ehhandler$?Print@CPacketLog@@QAEXXZ 00456f08 f   packetlog.obj
 0001:00055f20       $L167775                   00456f20 f   packetlog.obj
 0001:00055f2e       __ehhandler$?Instance@CPacketLog@@SAPAV1@XZ 00456f2e f   packetlog.obj
 0001:00055f40       $L151963                   00456f40 f   Player.obj
 0001:00055f4b       __ehhandler$?SendKeepAlive@CPlayerMng@@AAEXPAVCPlayer@@@Z 00456f4b f   Player.obj
 0001:00055f60       $L153511                   00456f60 f   Player.obj
 0001:00055f68       __ehhandler$?DestroyGarbage@CPlayerMng@@QAEXXZ 00456f68 f   Player.obj
 0001:00055f80       $L154084                   00456f80 f   Player.obj
 0001:00055f88       __ehhandler$?Clear@CPlayerMng@@QAEXXZ 00456f88 f   Player.obj
 0001:00055fa0       $L154346                   00456fa0 f   Player.obj
 0001:00055fa8       __ehhandler$?DestroyPlayer@CPlayerMng@@QAEXPAVCDPClient@@@Z 00456fa8 f   Player.obj
 0001:00055fc0       $L155484                   00456fc0 f   Player.obj
 0001:00055fc8       __ehhandler$?erase@?$_Tree@V?$_Tmap_traits@KPAVCPlayer@@U?$less@K@std@@V?$allocator@U?$pair@$$CBKPAVCPlayer@@@std@@@3@$0A@@std@@@std@@QAE?AViterator@12@V312@@Z 00456fc8 f   Player.obj
 0001:00055fe0       $L156085                   00456fe0 f   Player.obj
 0001:00055fe8       __ehhandler$?_Insert@?$_Tree@V?$_Tmap_traits@KPAVCPlayer@@U?$less@K@std@@V?$allocator@U?$pair@$$CBKPAVCPlayer@@@std@@@3@$0A@@std@@@std@@IAE?AViterator@12@_NPAU_Node@?$_Tree_nod@V?$_Tmap_traits@KPAVCPlayer@@U?$less@K@std@@V?$allocator@U?$pair@$$CBKPAVCPlayer@@@std@@@3@$0A@@std@@@2@ABU?$pair@$$CBKPAVCPlayer@@@2@@Z 00456fe8 f   Player.obj
 0001:00056000       $L156814                   00457000 f   Player.obj
 0001:00056008       __ehhandler$?RemovePlayer@CPlayerMng@@QAEHK@Z 00457008 f   Player.obj
 0001:00056020       $L157109                   00457020 f   Player.obj
 0001:00056028       __ehhandler$?AddPlayer@CPlayerMng@@QAEHK@Z 00457028 f   Player.obj
 0001:00056040       $L157361                   00457040 f   Player.obj
 0001:0005604b       $L157362                   0045704b f   Player.obj
 0001:00056056       __ehhandler$??1CPlayerMng@@UAE@XZ 00457056 f   Player.obj
 0001:00056060       $L157702                   00457060 f   Player.obj
 0001:0005606b       __ehhandler$??0CPlayerMng@@QAE@XZ 0045706b f   Player.obj
 0001:00056080       $L157933                   00457080 f   Player.obj
 0001:0005608e       __ehhandler$?Instance@CPlayerMng@@SAPAV1@XZ 0045708e f   Player.obj
 0001:000560a0       $L143299                   004570a0 f   rtmessenger.obj
 0001:000560a8       __ehhandler$?_Insert@?$_Tree@V?$_Tmap_traits@KU_Friend@@U?$less@K@std@@V?$allocator@U?$pair@$$CBKU_Friend@@@std@@@3@$0A@@std@@@std@@IAE?AViterator@12@_NPAU_Node@?$_Tree_nod@V?$_Tmap_traits@KU_Friend@@U?$less@K@std@@V?$allocator@U?$pair@$$CBKU_Friend@@@std@@@3@$0A@@std@@@2@ABU?$pair@$$CBKU_Friend@@@2@@Z 004570a8 f   rtmessenger.obj
 0001:000560c0       $L143788                   004570c0 f   rtmessenger.obj
 0001:000560c8       __ehhandler$?erase@?$_Tree@V?$_Tmap_traits@KU_Friend@@U?$less@K@std@@V?$allocator@U?$pair@$$CBKU_Friend@@@std@@@3@$0A@@std@@@std@@QAE?AViterator@12@V312@@Z 004570c8 f   rtmessenger.obj
 0001:000560e0       $L145498                   004570e0 f   rtmessenger.obj
 0001:00056107       __ehhandler$??1CRTMessenger@@UAE@XZ 00457107 f   rtmessenger.obj
 0001:00056120       $L145586                   00457120 f   speedhackchecker.obj
 0001:0005612b       __ehhandler$?sETbaseOfServer@CSpeedHackChecker@@QAEXPAVCDPMng@@K@Z 0045712b f   speedhackchecker.obj
 0001:00056140       $L145619                   00457140 f   speedhackchecker.obj
 0001:0005614b       __ehhandler$?rEQoffsetOfClient@CSpeedHackChecker@@QAEXPAVCDPMng@@K@Z 0045714b f   speedhackchecker.obj
 0001:00056160       $L145643                   00457160 f   speedhackchecker.obj
 0001:0005616b       __ehhandler$?CheckClock@CSpeedHackChecker@@QAEHKPAVCDPMng@@K@Z 0045716b f   speedhackchecker.obj
 0001:00056180       $L139729                   00457180 f   StdAfx.obj
 0001:00056188       __ehhandler$?CompareStringWFake@ATL@@YGHKKPBGH0H@Z 00457188 f   StdAfx.obj
 0001:000561a0       $L139892                   004571a0 f   StdAfx.obj
 0001:000561ab       $L139893                   004571ab f   StdAfx.obj
 0001:000561b6       __ehhandler$?GetEnvironmentVariableWFake@ATL@@YGKPBGPAGK@Z 004571b6 f   StdAfx.obj
 0001:000561c0       $L140000                   004571c0 f   StdAfx.obj
 0001:000561cb       __ehhandler$?GetStringTypeExWFake@ATL@@YGHKKPBGHPAG@Z 004571cb f   StdAfx.obj
 0001:000561e0       $L140267                   004571e0 f   StdAfx.obj
 0001:000561e8       $L140268                   004571e8 f   StdAfx.obj
 0001:000561f3       __ehhandler$?KillProcess@@YAHV?$CStringT@DV?$StrTraitMFC@DV?$ChTraitsCRT@D@ATL@@@@@ATL@@@Z 004571f3 f   StdAfx.obj
 0001:00056200       $L138593                   00457200 f   vutil.obj
 0001:00056208       $L138594                   00457208 f   vutil.obj
 0001:00056210       __ehhandler$?SetStrNull@@YAXAAV?$CStringT@DV?$StrTraitMFC@DV?$ChTraitsCRT@D@ATL@@@@@ATL@@H@Z 00457210 f   vutil.obj
 0001:00056220       $L141221                   00457220 f   buffer.obj
 0001:00056228       __ehhandler$?Clear@CBufferQueue@@QAEXH@Z 00457228 f   buffer.obj
 0001:00056240       $L141397                   00457240 f   buffer.obj
 0001:0005624b       __ehhandler$??1CBufferQueue@@UAE@XZ 0045724b f   buffer.obj
 0001:00056260       $L142987                   00457260 f   buffer.obj
 0001:00056268       __ehhandler$?_Incsize@?$list@PAXV?$allocator@PAX@std@@@std@@IAEXI@Z 00457268 f   buffer.obj
 0001:00056280       $L143456                   00457280 f   buffer.obj
 0001:0005628b       __ehhandler$??0?$MemPooler@VCBuffer@@@@QAE@H@Z 0045728b f   buffer.obj
 0001:000562a0       $L143555                   004572a0 f   buffer.obj
 0001:000562ab       __ehhandler$??0?$MemPooler@VCBuffer2@@@@QAE@H@Z 004572ab f   buffer.obj
 0001:000562c0       $L143681                   004572c0 f   buffer.obj
 0001:000562cb       $L143680                   004572cb f   buffer.obj
 0001:000562d6       __ehhandler$?CreateBuffer@CBufferFactory@@QAEPAVCBuffer@@W4BUFFER_TYPE@@K@Z 004572d6 f   buffer.obj
 0001:000562e0       $L143779                   004572e0 f   buffer.obj
 0001:000562eb       __ehhandler$_$E1           004572eb f   buffer.obj
 0001:00056300       $L143793                   00457300 f   buffer.obj
 0001:0005630b       __ehhandler$_$E3           0045730b f   buffer.obj
 0001:00056320       $L143807                   00457320 f   buffer.obj
 0001:0005632b       __ehhandler$_$E5           0045732b f   buffer.obj
 0001:00056340       $L141412                   00457340 f   clientsock.obj
 0001:00056348       $L141413                   00457348 f   clientsock.obj
 0001:00056353       $L141414                   00457353 f   clientsock.obj
 0001:0005635e       __ehhandler$??0CClientSock@@QAE@K@Z 0045735e f   clientsock.obj
 0001:00056370       $L141441                   00457370 f   clientsock.obj
 0001:00056378       $L141442                   00457378 f   clientsock.obj
 0001:00056383       $L141443                   00457383 f   clientsock.obj
 0001:0005638e       __ehhandler$??1CClientSock@@UAE@XZ 0045738e f   clientsock.obj
 0001:000563a0       $L141469                   004573a0 f   clientsock.obj
 0001:000563a8       $L141470                   004573a8 f   clientsock.obj
 0001:000563b0       __ehhandler$?Send@CClientSock@@UAEXPADKK@Z 004573b0 f   clientsock.obj
 0001:000563c0       $L141537                   004573c0 f   clientsock.obj
 0001:000563c8       __ehhandler$?SendRemnant@CClientSock@@QAEHK@Z 004573c8 f   clientsock.obj
 0001:000563e0       $L143727                   004573e0 f   clientsock.obj
 0001:000563eb       __ehhandler$??0?$MemPooler@VCClientSock@@@@QAE@H@Z 004573eb f   clientsock.obj
 0001:00056400       $L143828                   00457400 f   clientsock.obj
 0001:0005640b       __ehhandler$_$E1           0045740b f   clientsock.obj
 0001:00056420       $L141258                   00457420 f   clientsocke.obj
 0001:00056428       $L141259                   00457428 f   clientsocke.obj
 0001:00056433       __ehhandler$??0CClientSockE@@QAE@K@Z 00457433 f   clientsocke.obj
 0001:00056440       $L141433                   00457440 f   clientsocke.obj
 0001:00056448       __ehhandler$??1CClientSockE@@UAE@XZ 00457448 f   clientsocke.obj
 0001:00056460       $L141443                   00457460 f   clientsocke.obj
 0001:00056468       __ehhandler$?Send@CClientSockE@@UAEXPADKK@Z 00457468 f   clientsocke.obj
 0001:00056480       $L141481                   00457480 f   clientsocke.obj
 0001:00056488       __ehhandler$?SendRemnant@CClientSockE@@QAEHK@Z 00457488 f   clientsocke.obj
 0001:000564a0       $L143666                   004574a0 f   clientsocke.obj
 0001:000564ab       __ehhandler$??0?$MemPooler@VCClientSockE@@@@QAE@H@Z 004574ab f   clientsocke.obj
 0001:000564c0       $L143767                   004574c0 f   clientsocke.obj
 0001:000564cb       __ehhandler$_$E1           004574cb f   clientsocke.obj
 0001:000564e0       $L144712                   004574e0 f   dpmng.obj
 0001:000564eb       __ehhandler$?CreateDPObject@CDPMng@@QAEHH@Z 004574eb f   dpmng.obj
 0001:00056500       $L147003                   00457500 f   dpsock.obj
 0001:0005650b       $L147004                   0045750b f   dpsock.obj
 0001:00056516       __ehhandler$??0CDPSock@@QAE@XZ 00457516 f   dpsock.obj
 0001:00056520       $L147124                   00457520 f   dpsock.obj
 0001:0005652b       __ehhandler$?CreateServerE@CDPSock@@QAEHK@Z 0045752b f   dpsock.obj
 0001:00056540       $L147208                   00457540 f   dpsock.obj
 0001:0005654b       $L147209                   0045754b f   dpsock.obj
 0001:00056556       $L147210                   00457556 f   dpsock.obj
 0001:00056561       __ehhandler$??1CDPSock@@UAE@XZ 00457561 f   dpsock.obj
 0001:00056570       $L148202                   00457570 f   dpsock.obj
 0001:0005657b       __ehhandler$?CreateServer@CDPSock@@QAEHK@Z 0045757b f   dpsock.obj
 0001:00056590       $L148252                   00457590 f   dpsock.obj
 0001:0005659b       __ehhandler$?JoinToServer@CDPSock@@QAEHKK@Z 0045759b f   dpsock.obj
 0001:000565b0       $L148327                   004575b0 f   dpsock.obj
 0001:000565bb       __ehhandler$?JoinToServerE@CDPSock@@QAEHKK@Z 004575bb f   dpsock.obj
 0001:000565d0       $L144711                   004575d0 f   serversock.obj
 0001:000565d8       __ehhandler$?Shutdown@CServerSock@@UAEHI@Z 004575d8 f   serversock.obj
 0001:000565f0       $L144759                   004575f0 f   serversock.obj
 0001:000565f8       __ehhandler$?GetPeerAddr@CServerSock@@UAEJKPAXPAK@Z 004575f8 f   serversock.obj
 0001:00056610       $L144809                   00457610 f   serversock.obj
 0001:00056618       __ehhandler$?GetPeerAddr@CServerSock@@UAEKK@Z 00457618 f   serversock.obj
 0001:00056630       $L145733                   00457630 f   serversock.obj
 0001:00056638       $L145734                   00457638 f   serversock.obj
 0001:00056640       __ehhandler$?Send@CServerSock@@UAEXPADKK@Z 00457640 f   serversock.obj
 0001:00056650       $L146298                   00457650 f   serversock.obj
 0001:00056658       __ehhandler$?CloseAllChild@CServerSock@@QAEXXZ 00457658 f   serversock.obj
 0001:00056670       $L147622                   00457670 f   serversock.obj
 0001:00056678       __ehhandler$?erase@?$_Tree@V?$_Tmap_traits@KPAVCClientSock@@U?$less@K@std@@V?$allocator@U?$pair@$$CBKPAVCClientSock@@@std@@@3@$0A@@std@@@std@@QAE?AViterator@12@V312@@Z 00457678 f   serversock.obj
 0001:00056690       $L148223                   00457690 f   serversock.obj
 0001:00056698       __ehhandler$?_Insert@?$_Tree@V?$_Tmap_traits@KPAVCClientSock@@U?$less@K@std@@V?$allocator@U?$pair@$$CBKPAVCClientSock@@@std@@@3@$0A@@std@@@std@@IAE?AViterator@12@_NPAU_Node@?$_Tree_nod@V?$_Tmap_traits@KPAVCClientSock@@U?$less@K@std@@V?$allocator@U?$pair@$$CBKPAVCClientSock@@@std@@@3@$0A@@std@@@2@ABU?$pair@$$CBKPAVCClientSock@@@2@@Z 00457698 f   serversock.obj
 0001:000566b0       $L149091                   004576b0 f   serversock.obj
 0001:000566b8       __ehhandler$?CloseChild@CServerSock@@QAEHI@Z 004576b8 f   serversock.obj
 0001:000566d0       $L150310                   004576d0 f   serversock.obj
 0001:000566d8       __ehhandler$??0CServerSock@@QAE@K@Z 004576d8 f   serversock.obj
 0001:000566f0       $L150647                   004576f0 f   serversock.obj
 0001:000566f8       $L150648                   004576f8 f   serversock.obj
 0001:00056703       __ehhandler$??1CServerSock@@UAE@XZ 00457703 f   serversock.obj
 0001:00056710       $L150889                   00457710 f   serversock.obj
 0001:0005671b       __ehhandler$?AddChild@CServerSock@@QAEPAVCClientSock@@I@Z 0045771b f   serversock.obj
 0001:00056730       $L145492                   00457730 f   serversocke.obj
 0001:00056738       $L145493                   00457738 f   serversocke.obj
 0001:00056740       __ehhandler$?Send@CServerSockE@@UAEXPADKK@Z 00457740 f   serversocke.obj
 0001:00056750       $L146057                   00457750 f   serversocke.obj
 0001:00056758       __ehhandler$?CloseAllChild@CServerSockE@@QAEXXZ 00457758 f   serversocke.obj
 0001:00056770       $L147382                   00457770 f   serversocke.obj
 0001:00056778       __ehhandler$?erase@?$_Tree@V?$_Tmap_traits@KPAVCClientSockE@@U?$less@K@std@@V?$allocator@U?$pair@$$CBKPAVCClientSockE@@@std@@@3@$0A@@std@@@std@@QAE?AViterator@12@V312@@Z 00457778 f   serversocke.obj
 0001:00056790       $L147983                   00457790 f   serversocke.obj
 0001:00056798       __ehhandler$?_Insert@?$_Tree@V?$_Tmap_traits@KPAVCClientSockE@@U?$less@K@std@@V?$allocator@U?$pair@$$CBKPAVCClientSockE@@@std@@@3@$0A@@std@@@std@@IAE?AViterator@12@_NPAU_Node@?$_Tree_nod@V?$_Tmap_traits@KPAVCClientSockE@@U?$less@K@std@@V?$allocator@U?$pair@$$CBKPAVCClientSockE@@@std@@@3@$0A@@std@@@2@ABU?$pair@$$CBKPAVCClientSockE@@@2@@Z 00457798 f   serversocke.obj
 0001:000567b0       $L148851                   004577b0 f   serversocke.obj
 0001:000567b8       __ehhandler$?CloseChild@CServerSockE@@QAEHI@Z 004577b8 f   serversocke.obj
 0001:000567d0       $L150070                   004577d0 f   serversocke.obj
 0001:000567d8       __ehhandler$??0CServerSockE@@QAE@K@Z 004577d8 f   serversocke.obj
 0001:000567f0       $L150409                   004577f0 f   serversocke.obj
 0001:000567f8       __ehhandler$??1CServerSockE@@UAE@XZ 004577f8 f   serversocke.obj
 0001:00056810       $L150651                   00457810 f   serversocke.obj
 0001:0005681b       __ehhandler$?AddChild@CServerSockE@@QAEPAVCClientSockE@@I@Z 0045781b f   serversocke.obj
 0001:00056830       $L138429                   00457830 f   ar.obj
 0001:0005683b       __ehhandler$_$E1           0045783b f   ar.obj
 0001:00056850       $L143538                   00457850 f   dos2.obj
 0001:00056858       __ehhandler$?_Insert@?$_Tree@V?$_Tmap_traits@KPAU_CONNECTIONREQUEST2@@U?$less@K@std@@V?$allocator@U?$pair@$$CBKPAU_CONNECTIONREQUEST2@@@std@@@3@$0A@@std@@@std@@IAE?AViterator@12@_NPAU_Node@?$_Tree_nod@V?$_Tmap_traits@KPAU_CONNECTIONREQUEST2@@U?$less@K@std@@V?$allocator@U?$pair@$$CBKPAU_CONNECTIONREQUEST2@@@std@@@3@$0A@@std@@@2@ABU?$pair@$$CBKPAU_CONNECTIONREQUEST2@@@2@@Z 00457858 f   dos2.obj
 0001:00056870       $L144027                   00457870 f   dos2.obj
 0001:00056878       __ehhandler$?erase@?$_Tree@V?$_Tmap_traits@KPAU_CONNECTIONREQUEST2@@U?$less@K@std@@V?$allocator@U?$pair@$$CBKPAU_CONNECTIONREQUEST2@@@std@@@3@$0A@@std@@@std@@QAE?AViterator@12@V312@@Z 00457878 f   dos2.obj
 0001:00056890       $L145579                   00457890 f   dos2.obj
 0001:000568b7       $L145580                   004578b7 f   dos2.obj
 0001:000568c2       __ehhandler$??1CDos2@@UAE@XZ 004578c2 f   dos2.obj
 0001:000568d0       $L146275                   004578d0 f   dos2.obj
 0001:000568db       __ehhandler$??0?$MemPooler@U_CONNECTIONREQUEST2@@@@QAE@H@Z 004578db f   dos2.obj
 0001:000568f0       $L146378                   004578f0 f   dos2.obj
 0001:000568fb       $L146379                   004578fb f   dos2.obj
 0001:00056906       $L146380                   00457906 f   dos2.obj
 0001:00056911       __ehhandler$??0CDos2@@QAE@XZ 00457911 f   dos2.obj
 0001:00056920       $L143028                   00457920 f   ServerDesc.obj
 0001:00056928       __ehhandler$?Free@CServerDescArray@@QAEXXZ 00457928 f   ServerDesc.obj
 0001:00056940       $L144103                   00457940 f   ServerDesc.obj
 0001:0005694b       __ehhandler$??1CServerDesc@@UAE@XZ 0045794b f   ServerDesc.obj
 0001:00056960       $L144835                   00457960 f   ServerDesc.obj
 0001:00056968       __ehhandler$?_Incsize@?$list@PAVCJurisdiction@@V?$allocator@PAVCJurisdiction@@@std@@@std@@IAEXI@Z 00457968 f   ServerDesc.obj
 0001:00056980       $L146581                   00457980 f   ServerDesc.obj
 0001:000569a7       $L146582                   004579a7 f   ServerDesc.obj
 0001:000569b2       __ehhandler$??1CServerDescArray@@UAE@XZ 004579b2 f   ServerDesc.obj
 0001:000569c0       $L142592                   004579c0 f   scanner.obj
 0001:000569c8       __ehhandler$?GetToken@CScanner@@UAEHH@Z 004579c8 f   scanner.obj
 0001:000569e0       $L142796                   004579e0 f   scanner.obj
 0001:000569e8       $L142797                   004579e8 f   scanner.obj
 0001:000569f0       __ehhandler$?Load@CScanner@@QAEHPBDH@Z 004579f0 f   scanner.obj
 0001:00056a00       $L142902                   00457a00 f   scanner.obj
 0001:00056a08       $L142903                   00457a08 f   scanner.obj
 0001:00056a10       __ehhandler$?Load_FileIO@CScanner@@QAEHPBDH@Z 00457a10 f   scanner.obj
 0001:00056a20       $L138550                   00457a20 f   xutil.obj
 0001:00056a28       __ehhandler$?GetNumberFormatEx@@YA?AV?$CStringT@DV?$StrTraitMFC@DV?$ChTraitsCRT@D@ATL@@@@@ATL@@PBD@Z 00457a28 f   xutil.obj
 0001:00056a32       $L185028                   00457a32 f   nafxcw:olemisc.obj
 0001:00056a3b       __ehhandler$?AfxThrowOleException@@YGXJ@Z 00457a3b f   nafxcw:olemisc.obj
 0001:00056a45       $L185509                   00457a45 f   nafxcw:olemisc.obj
 0001:00056a50       __ehhandler$?AfxMergeMenus@@YGPAUHMENU__@@PAU1@0PAJHH@Z 00457a50 f   nafxcw:olemisc.obj
 0001:00056a5a       $L184402                   00457a5a f   nafxcw:except.obj
 0001:00056a63       __ehhandler$?CreateObject@?$CThreadLocal@V_AFX_THREAD_STATE@@@@SGPAVCNoTrackObject@@XZ 00457a63 f   nafxcw:except.obj
 0001:00056a6d       $L185932                   00457a6d f   nafxcw:strcore.obj
 0001:00056a78       $L185933                   00457a78 f   nafxcw:strcore.obj
 0001:00056a83       __ehhandler$??$?5DV?$StrTraitMFC@DV?$ChTraitsCRT@D@ATL@@@@@@YGAAVCArchive@@AAV0@AAV?$CStringT@DV?$StrTraitMFC@DV?$ChTraitsCRT@D@ATL@@@@@ATL@@@Z 00457a83 f   nafxcw:strcore.obj
 0001:00056a8d       $L186024                   00457a8d f   nafxcw:strcore.obj
 0001:00056a98       $L186025                   00457a98 f   nafxcw:strcore.obj
 0001:00056aa3       __ehhandler$??$?5_WV?$StrTraitMFC@_WV?$ChTraitsCRT@_W@ATL@@@@@@YGAAVCArchive@@AAV0@AAV?$CStringT@_WV?$StrTraitMFC@_WV?$ChTraitsCRT@_W@ATL@@@@@ATL@@@Z 00457aa3 f   nafxcw:strcore.obj
 0001:00056aad       __ehhandler$?CreateObject@CRuntimeClass@@QAEPAVCObject@@XZ 00457aad f   nafxcw:objcore.obj
 0001:00056ab7       $L186790                   00457ab7 f   nafxcw:objcore.obj
 0001:00056abf       __ehhandler$?CompareStringWFake@ATL@@YGHKKPB_WH0H@Z 00457abf f   nafxcw:objcore.obj
 0001:00056ac9       $L186843                   00457ac9 f   nafxcw:objcore.obj
 0001:00056ad4       $L186844                   00457ad4 f   nafxcw:objcore.obj
 0001:00056adf       __ehhandler$?GetEnvironmentVariableWFake@ATL@@YGKPB_WPA_WK@Z 00457adf f   nafxcw:objcore.obj
 0001:00056ae9       $L186918                   00457ae9 f   nafxcw:objcore.obj
 0001:00056af4       __ehhandler$?GetStringTypeExWFake@ATL@@YGHKKPB_WHPAG@Z 00457af4 f   nafxcw:objcore.obj
 0001:00056afe       $L184471                   00457afe f   nafxcw:afxstate.obj
 0001:00056b0c       __ehhandler$??1AFX_MODULE_STATE@@UAE@XZ 00457b0c f   nafxcw:afxstate.obj
 0001:00056b16       $L184546                   00457b16 f   nafxcw:appui1.obj
 0001:00056b1e       __ehhandler$?AfxMessageBox@@YGHIII@Z 00457b1e f   nafxcw:appui1.obj
 0001:00056b28       __ehhandler$?GetData@CProcessLocalObject@@QAEPAVCNoTrackObject@@P6GPAV2@XZ@Z 00457b28 f   nafxcw:afxtls.obj
 0001:00056b32       $L184710                   00457b32 f   nafxcw:afxtls.obj
 0001:00056b42       __ehhandler$?GetData@CThreadLocalObject@@QAEPAVCNoTrackObject@@P6GPAV2@XZ@Z 00457b42 f   nafxcw:afxtls.obj
 0001:00056b4c       __ehhandler$?_AfxCompareSafeArrays@@YGHPAUtagSAFEARRAY@@0@Z 00457b4c f   nafxcw:olevar.obj
 0001:00056b56       $L186172                   00457b56 f   nafxcw:olevar.obj
 0001:00056b5e       __ehhandler$??4COleCurrency@@QAEABV0@ABUtagVARIANT@@@Z 00457b5e f   nafxcw:olevar.obj
 0001:00056b68       $L186616                   00457b68 f   nafxcw:olevar.obj
 0001:00056b70       __ehhandler$??6@YGAAVCArchive@@AAV0@VCComBSTR@ATL@@@Z 00457b70 f   nafxcw:olevar.obj
 0001:00056b7a       __ehhandler$?Create@COleSafeArray@@QAEXGKPAK@Z 00457b7a f   nafxcw:olevar.obj
 0001:00056b84       $L187040                   00457b84 f   nafxcw:olevar.obj
 0001:00056b8c       __ehhandler$??6@YGAAVCArchive@@AAV0@VCOleVariant@@@Z 00457b8c f   nafxcw:olevar.obj
 0001:00056b96       __ehhandler$??5@YGAAVCArchive@@AAV0@AAVCOleVariant@@@Z 00457b96 f   nafxcw:olevar.obj
 0001:00056ba0       $L187236                   00457ba0 f   nafxcw:olevar.obj
 0001:00056ba8       __ehhandler$?DDX_Text@@YGXPAVCDataExchange@@HAAUtagDEC@@@Z 00457ba8 f   nafxcw:olevar.obj
 0001:00056bb2       $L187302                   00457bb2 f   nafxcw:olevar.obj
 0001:00056bbd       __ehhandler$?DDX_Text@@YGXPAVCDataExchange@@HAAU_GUID@@@Z 00457bbd f   nafxcw:olevar.obj
 0001:00056bc7       $L187397                   00457bc7 f   nafxcw:olevar.obj
 0001:00056bcf       __ehhandler$??0?$CStringT@DV?$StrTraitMFC@DV?$ChTraitsCRT@D@ATL@@@@@ATL@@QAE@PB_W@Z 00457bcf f   nafxcw:olevar.obj
 0001:00056bd9       $L187445                   00457bd9 f   nafxcw:olevar.obj
 0001:00056be1       __ehhandler$?ParseCurrency@COleCurrency@@QAEHPBDKK@Z 00457be1 f   nafxcw:olevar.obj
 0001:00056beb       $L187527                   00457beb f   nafxcw:olevar.obj
 0001:00056bf3       $L187531                   00457bf3 f   nafxcw:olevar.obj
 0001:00056bfb       __ehhandler$?Format@COleCurrency@@QBE?AV?$CStringT@DV?$StrTraitMFC@DV?$ChTraitsCRT@D@ATL@@@@@ATL@@KK@Z 00457bfb f   nafxcw:olevar.obj
 0001:00056c05       $L187650                   00457c05 f   nafxcw:olevar.obj
 0001:00056c0d       $L187651                   00457c0d f   nafxcw:olevar.obj
 0001:00056c15       __ehhandler$?DDX_Text@@YGXPAVCDataExchange@@HAAVCOleCurrency@@@Z 00457c15 f   nafxcw:olevar.obj
 0001:00056c1f       $L187735                   00457c1f f   nafxcw:olevar.obj
 0001:00056c27       $L187736                   00457c27 f   nafxcw:olevar.obj
 0001:00056c2f       $L187737                   00457c2f f   nafxcw:olevar.obj
 0001:00056c37       $L187738                   00457c37 f   nafxcw:olevar.obj
 0001:00056c3f       __ehhandler$?Format@COleDateTime@ATL@@QBE?AV?$CStringT@DV?$StrTraitMFC@DV?$ChTraitsCRT@D@ATL@@@@@2@KK@Z 00457c3f f   nafxcw:olevar.obj
 0001:00056c49       $L187938                   00457c49 f   nafxcw:olevar.obj
 0001:00056c51       $L187939                   00457c51 f   nafxcw:olevar.obj
 0001:00056c59       __ehhandler$?DDX_Text@@YGXPAVCDataExchange@@HAAVCOleDateTime@ATL@@@Z 00457c59 f   nafxcw:olevar.obj
 0001:00056c63       $L188020                   00457c63 f   nafxcw:olevar.obj
 0001:00056c6b       $L188021                   00457c6b f   nafxcw:olevar.obj
 0001:00056c73       __ehhandler$?DDX_Text@@YGXPAVCDataExchange@@HAAU_FILETIME@@@Z 00457c73 f   nafxcw:olevar.obj
 0001:00056c7d       $L185040                   00457c7d f   nafxcw:arccore.obj
 0001:00056c85       __ehhandler$?FromName@CRuntimeClass@@SGPAU1@PB_W@Z 00457c85 f   nafxcw:arccore.obj
 0001:00056c8f       __ehhandler$?ReadString@CArchive@@QAEPADPADI@Z 00457c8f f   nafxcw:arccore.obj
 0001:00056c99       $L185154                   00457c99 f   nafxcw:arccore.obj
 0001:00056ca4       __ehhandler$??1CArchive@@QAE@XZ 00457ca4 f   nafxcw:arccore.obj
 0001:00056cae       $L185271                   00457cae f   nafxcw:arccore.obj
 0001:00056cb9       $L185272                   00457cb9 f   nafxcw:arccore.obj
 0001:00056cc1       __ehhandler$??0CArchive@@QAE@PAVCFile@@IHPAX@Z 00457cc1 f   nafxcw:arccore.obj
 0001:00056ccb       $L184614                   00457ccb f   nafxcw:arcex.obj
 0001:00056cd3       $L184615                   00457cd3 f   nafxcw:arcex.obj
 0001:00056cdb       __ehhandler$?GetErrorMessage@CArchiveException@@UAEHPADIPAI@Z 00457cdb f   nafxcw:arcex.obj
 0001:00056ce5       $L184735                   00457ce5 f   nafxcw:arcex.obj
 0001:00056cf0       __ehhandler$??0CArchiveException@@QAE@HPBD@Z 00457cf0 f   nafxcw:arcex.obj
 0001:00056cfa       $L184797                   00457cfa f   nafxcw:arcex.obj
 0001:00056d03       __ehhandler$?AfxThrowArchiveException@@YGXHPBD@Z 00457d03 f   nafxcw:arcex.obj
 0001:00056d0d       __ehhandler$?AfxTermThread@@YGXPAUHINSTANCE__@@@Z 00457d0d f   nafxcw:thrdcore.obj
 0001:00056d17       $L185052                   00457d17 f   nafxcw:thrdcore.obj
 0001:00056d1f       __ehhandler$??1CWinThread@@UAE@XZ 00457d1f f   nafxcw:thrdcore.obj
 0001:00056d29       $L185251                   00457d29 f   nafxcw:thrdcore.obj
 0001:00056d31       __ehhandler$??0CWinThread@@QAE@P6AIPAX@Z0@Z 00457d31 f   nafxcw:thrdcore.obj
 0001:00056d3b       $L185266                   00457d3b f   nafxcw:thrdcore.obj
 0001:00056d43       __ehhandler$??0CWinThread@@QAE@XZ 00457d43 f   nafxcw:thrdcore.obj
 0001:00056d4d       $L185421                   00457d4d f   nafxcw:thrdcore.obj
 0001:00056d55       __ehhandler$?_AfxThreadEntry@@YGIPAX@Z 00457d55 f   nafxcw:thrdcore.obj
 0001:00056d5f       $L185465                   00457d5f f   nafxcw:thrdcore.obj
 0001:00056d68       __ehhandler$?AfxBeginThread@@YGPAVCWinThread@@P6AIPAX@Z0HIKPAU_SECURITY_ATTRIBUTES@@@Z 00457d68 f   nafxcw:thrdcore.obj
 0001:00056d72       __ehhandler$?Read@CArchiveStream@@UAGJPAXKPAK@Z 00457d72 f   nafxcw:arcstrm.obj
 0001:00056d7c       __ehhandler$?Write@CArchiveStream@@UAGJPBXKPAK@Z 00457d7c f   nafxcw:arcstrm.obj
 0001:00056d86       __ehhandler$?Seek@CArchiveStream@@UAGJT_LARGE_INTEGER@@KPAT_ULARGE_INTEGER@@@Z 00457d86 f   nafxcw:arcstrm.obj
 0001:00056d90       $L193615                   00457d90 f   nafxcw:dlgdata.obj
 0001:00056d9b       __ehhandler$?_AfxFailMinMaxWithFormat@@YGXPAVCDataExchange@@_J1PBDI@Z 00457d9b f   nafxcw:dlgdata.obj
 0001:00056da5       $L193705                   00457da5 f   nafxcw:dlgdata.obj
 0001:00056dad       __ehhandler$?DDV_MaxChars@@YGXPAVCDataExchange@@ABV?$CStringT@DV?$StrTraitMFC@DV?$ChTraitsCRT@D@ATL@@@@@ATL@@H@Z 00457dad f   nafxcw:dlgdata.obj
 0001:00056db7       $L193778                   00457db7 f   nafxcw:dlgdata.obj
 0001:00056dbf       __ehhandler$?AfxFailMaxChars@@YGXPAVCDataExchange@@H@Z 00457dbf f   nafxcw:dlgdata.obj
 0001:00056dc9       $L193841                   00457dc9 f   nafxcw:dlgdata.obj
 0001:00056dd1       __ehhandler$?AfxFailRadio@@YGXPAVCDataExchange@@@Z 00457dd1 f   nafxcw:dlgdata.obj
 0001:00056ddb       $L194586                   00457ddb f   nafxcw:winocc.obj
 0001:00056de3       __ehhandler$?GetWindowTextA@CWnd@@QBEHPADH@Z 00457de3 f   nafxcw:winocc.obj
 0001:00056ded       $L194653                   00457ded f   nafxcw:winocc.obj
 0001:00056df5       __ehhandler$?GetWindowTextLengthA@CWnd@@QBEHXZ 00457df5 f   nafxcw:winocc.obj
 0001:00056dff       $L184453                   00457dff f   nafxcw:apphelp.obj
 0001:00056e07       __ehhandler$?AfxFormatStrings@@YGXAAV?$CStringT@DV?$StrTraitMFC@DV?$ChTraitsCRT@D@ATL@@@@@ATL@@IPBQBDH@Z 00457e07 f   nafxcw:apphelp.obj
 0001:00056e11       $L184234                   00457e11 f   nafxcw:winhand.obj
 0001:00056e1c       $L184235                   00457e1c f   nafxcw:winhand.obj
 0001:00056e27       $L184236                   00457e27 f   nafxcw:winhand.obj
 0001:00056e32       __ehhandler$??0CHandleMap@@QAE@PAUCRuntimeClass@@P6GXPAVCObject@@@Z2IH@Z 00457e32 f   nafxcw:winhand.obj
 0001:00056e3c       __ehhandler$?FromHandle@CHandleMap@@QAEPAVCObject@@PAX@Z 00457e3c f   nafxcw:winhand.obj
 0001:00056e46       $L184321                   00457e46 f   nafxcw:winhand.obj
 0001:00056e51       $L184322                   00457e51 f   nafxcw:winhand.obj
 0001:00056e5c       $L184323                   00457e5c f   nafxcw:winhand.obj
 0001:00056e67       __ehhandler$??1CHandleMap@@UAE@XZ 00457e67 f   nafxcw:winhand.obj
 0001:00056e71       __ehhandler$?AfxRegisterClass@@YGHPAUtagWNDCLASSA@@@Z 00457e71 f   nafxcw:wincore.obj
 0001:00056e7b       __ehhandler$?UpdateData@CWnd@@QAEHH@Z 00457e7b f   nafxcw:wincore.obj
 0001:00056e85       $L198839                   00457e85 f   nafxcw:wincore.obj
 0001:00056e8e       __ehhandler$?CreateObject@CWnd@@SGPAVCObject@@XZ 00457e8e f   nafxcw:wincore.obj
 0001:00056e98       $L198865                   00457e98 f   nafxcw:wincore.obj
 0001:00056ea4       __ehhandler$?Construct@?$ConstructDestruct@VCWnd@@@@SGXPAVCObject@@@Z 00457ea4 f   nafxcw:wincore.obj
 0001:00056eae       $L199024                   00457eae f   nafxcw:wincore.obj
 0001:00056eb8       __ehhandler$?afxMapHWND@@YGPAVCHandleMap@@H@Z 00457eb8 f   nafxcw:wincore.obj
 0001:00056ec2       $L199218                   00457ec2 f   nafxcw:wincore.obj
 0001:00056eca       __ehhandler$?OnPaint@CWnd@@IAEXXZ 00457eca f   nafxcw:wincore.obj
 0001:00056ed4       __ehhandler$?AfxCallWndProc@@YGJPAVCWnd@@PAUHWND__@@IIJ@Z 00457ed4 f   nafxcw:wincore.obj
 0001:00056ede       $L199515                   00457ede f   nafxcw:wincore.obj
 0001:00056ee6       __ehhandler$??1CWnd@@UAE@XZ 00457ee6 f   nafxcw:wincore.obj
 0001:00056ef0       $L199592                   00457ef0 f   nafxcw:wincore.obj
 0001:00056ef8       __ehhandler$?ReflectLastMsg@CWnd@@KGHPAUHWND__@@PAJ@Z 00457ef8 f   nafxcw:wincore.obj
 0001:00056f02       $L199667                   00457f02 f   nafxcw:wincore.obj
 0001:00056f0d       __ehhandler$?UpdateDialogControls@CWnd@@QAEXPAVCCmdTarget@@H@Z 00457f0d f   nafxcw:wincore.obj
 0001:00056f17       $L200078                   00457f17 f   nafxcw:wincore.obj
 0001:00056f1f       $L200079                   00457f1f f   nafxcw:wincore.obj
 0001:00056f27       __ehhandler$?GetAccessibleName@CWnd@@QAEJUtagVARIANT@@PAPA_W@Z 00457f27 f   nafxcw:wincore.obj
 0001:00056f31       $L200228                   00457f31 f   nafxcw:wincore.obj
 0001:00056f3b       __ehhandler$?CreateInstance@?$CMFCComObject@VCAccessibleProxy@ATL@@@@SGJPAPAV1@@Z 00457f3b f   nafxcw:wincore.obj
 0001:00056f45       __ehhandler$?_AfxActivationWndProc@@YGJPAUHWND__@@IIJ@Z 00457f45 f   nafxcw:wincore.obj
 0001:00056f4f       $L200372                   00457f4f f   nafxcw:wincore.obj
 0001:00056f57       $L200373                   00457f57 f   nafxcw:wincore.obj
 0001:00056f5f       $L200374                   00457f5f f   nafxcw:wincore.obj
 0001:00056f67       __ehhandler$?OnWndMsg@CWnd@@MAEHIIJPAJ@Z 00457f67 f   nafxcw:wincore.obj
 0001:00056f71       $L200435                   00457f71 f   nafxcw:wincore.obj
 0001:00056f79       __ehhandler$?CreateAccessibleProxy@CWnd@@UAEJIJPAJ@Z 00457f79 f   nafxcw:wincore.obj
 0001:00056f83       $L200488                   00457f83 f   nafxcw:wincore.obj
 0001:00056f8b       __ehhandler$?WinHelpA@CWnd@@UAEXKI@Z 00457f8b f   nafxcw:wincore.obj
 0001:00056f95       $L200518                   00457f95 f   nafxcw:wincore.obj
 0001:00056f9d       __ehhandler$?HtmlHelpA@CWnd@@UAEXKI@Z 00457f9d f   nafxcw:wincore.obj
 0001:00056fa7       $L184344                   00457fa7 f   nafxcw:arcobj.obj
 0001:00056fb0       $L184345                   00457fb0 f   nafxcw:arcobj.obj
 0001:00056fb9       __ehhandler$?MapObject@CArchive@@QAEXPBVCObject@@@Z 00457fb9 f   nafxcw:arcobj.obj
 0001:00056fc3       $L184453                   00457fc3 f   nafxcw:arcobj.obj
 0001:00056fcc       __ehhandler$?ReadClass@CArchive@@QAEPAUCRuntimeClass@@PBU2@PAIPAK@Z 00457fcc f   nafxcw:arcobj.obj
 0001:00056fd6       $L186206                   00457fd6 f   nafxcw:wingdi.obj
 0001:00056fe0       __ehhandler$?afxMapHDC@@YGPAVCHandleMap@@H@Z 00457fe0 f   nafxcw:wingdi.obj
 0001:00056fea       $L186246                   00457fea f   nafxcw:wingdi.obj
 0001:00056ff2       __ehhandler$??0CClientDC@@QAE@PAVCWnd@@@Z 00457ff2 f   nafxcw:wingdi.obj
 0001:00056ffc       $L186267                   00457ffc f   nafxcw:wingdi.obj
 0001:00057004       __ehhandler$??1CClientDC@@UAE@XZ 00458004 f   nafxcw:wingdi.obj
 0001:0005700e       $L186276                   0045800e f   nafxcw:wingdi.obj
 0001:00057016       __ehhandler$??0CWindowDC@@QAE@PAVCWnd@@@Z 00458016 f   nafxcw:wingdi.obj
 0001:00057020       $L186297                   00458020 f   nafxcw:wingdi.obj
 0001:00057028       __ehhandler$??1CWindowDC@@UAE@XZ 00458028 f   nafxcw:wingdi.obj
 0001:00057032       $L186306                   00458032 f   nafxcw:wingdi.obj
 0001:0005703a       __ehhandler$??0CPaintDC@@QAE@PAVCWnd@@@Z 0045803a f   nafxcw:wingdi.obj
 0001:00057044       $L186320                   00458044 f   nafxcw:wingdi.obj
 0001:0005704c       __ehhandler$??1CPaintDC@@UAE@XZ 0045804c f   nafxcw:wingdi.obj
 0001:00057056       $L186333                   00458056 f   nafxcw:wingdi.obj
 0001:00057060       __ehhandler$?afxMapHGDIOBJ@@YGPAVCHandleMap@@H@Z 00458060 f   nafxcw:wingdi.obj
 0001:0005706a       $L186550                   0045806a f   nafxcw:wingdi.obj
 0001:00057072       __ehhandler$??0CPen@@QAE@HHK@Z 00458072 f   nafxcw:wingdi.obj
 0001:0005707c       $L186564                   0045807c f   nafxcw:wingdi.obj
 0001:00057084       __ehhandler$??0CPen@@QAE@HHPBUtagLOGBRUSH@@HPBK@Z 00458084 f   nafxcw:wingdi.obj
 0001:0005708e       $L186578                   0045808e f   nafxcw:wingdi.obj
 0001:00057096       __ehhandler$??0CBrush@@QAE@K@Z 00458096 f   nafxcw:wingdi.obj
 0001:000570a0       $L186592                   004580a0 f   nafxcw:wingdi.obj
 0001:000570a8       __ehhandler$??0CBrush@@QAE@HK@Z 004580a8 f   nafxcw:wingdi.obj
 0001:000570b2       $L186606                   004580b2 f   nafxcw:wingdi.obj
 0001:000570ba       __ehhandler$??0CBrush@@QAE@PAVCBitmap@@@Z 004580ba f   nafxcw:wingdi.obj
 0001:000570c4       $L186666                   004580c4 f   nafxcw:wingdi.obj
 0001:000570cc       $L186667                   004580cc f   nafxcw:wingdi.obj
 0001:000570d4       $L186668                   004580d4 f   nafxcw:wingdi.obj
 0001:000570dc       $L186669                   004580dc f   nafxcw:wingdi.obj
 0001:000570e4       $L186670                   004580e4 f   nafxcw:wingdi.obj
 0001:000570ec       __ehhandler$?AfxGetGrayBitmap@@YGXABVCBitmap@@PAV1@K@Z 004580ec f   nafxcw:wingdi.obj
 0001:000570f6       $L186965                   004580f6 f   nafxcw:wingdi.obj
 0001:000570fe       $L186966                   004580fe f   nafxcw:wingdi.obj
 0001:00057106       $L186967                   00458106 f   nafxcw:wingdi.obj
 0001:0005710e       $L186968                   0045810e f   nafxcw:wingdi.obj
 0001:00057116       $L186969                   00458116 f   nafxcw:wingdi.obj
 0001:0005711e       __ehhandler$?AfxDrawGrayBitmap@@YGXPAVCDC@@HHABVCBitmap@@K@Z 0045811e f   nafxcw:wingdi.obj
 0001:00057128       $L187175                   00458128 f   nafxcw:wingdi.obj
 0001:00057130       $L187176                   00458130 f   nafxcw:wingdi.obj
 0001:00057138       $L187177                   00458138 f   nafxcw:wingdi.obj
 0001:00057140       $L187178                   00458140 f   nafxcw:wingdi.obj
 0001:00057148       $L187179                   00458148 f   nafxcw:wingdi.obj
 0001:00057150       __ehhandler$?AfxGetDitheredBitmap@@YGXABVCBitmap@@PAV1@KK@Z 00458150 f   nafxcw:wingdi.obj
 0001:0005715a       $L187525                   0045815a f   nafxcw:wingdi.obj
 0001:00057162       $L187526                   00458162 f   nafxcw:wingdi.obj
 0001:0005716a       $L187527                   0045816a f   nafxcw:wingdi.obj
 0001:00057172       $L187528                   00458172 f   nafxcw:wingdi.obj
 0001:0005717a       __ehhandler$?AfxDrawDitheredBitmap@@YGXPAVCDC@@HHABVCBitmap@@KK@Z 0045817a f   nafxcw:wingdi.obj
 0001:00057184       __ehhandler$?Alloc@CFixedAlloc@@QAEPAXXZ 00458184 f   nafxcw:fixalloc.obj
 0001:0005718e       $L184810                   0045818e f   nafxcw:winmenu.obj
 0001:00057198       __ehhandler$?afxMapHMENU@@YGPAVCHandleMap@@H@Z 00458198 f   nafxcw:winmenu.obj
 0001:000571a2       $L184916                   004581a2 f   nafxcw:winmenu.obj
 0001:000571ad       $L184917                   004581ad f   nafxcw:winmenu.obj
 0001:000571bb       __ehhandler$??0CChevronOwnerDrawMenu@@QAE@XZ 004581bb f   nafxcw:winmenu.obj
 0001:000571c5       $L184966                   004581c5 f   nafxcw:winmenu.obj
 0001:000571cd       __ehhandler$??1CChevronOwnerDrawMenu@@UAE@XZ 004581cd f   nafxcw:winmenu.obj
 0001:000571d7       $L185004                   004581d7 f   nafxcw:winmenu.obj
 0001:000571df       $L185005                   004581df f   nafxcw:winmenu.obj
 0001:000571e7       $L185006                   004581e7 f   nafxcw:winmenu.obj
 0001:000571ef       __ehhandler$?DrawItem@CChevronOwnerDrawMenu@@UAEXPAUtagDRAWITEMSTRUCT@@@Z 004581ef f   nafxcw:winmenu.obj
 0001:000571f9       $L185279                   004581f9 f   nafxcw:winmenu.obj
 0001:00057201       $L185280                   00458201 f   nafxcw:winmenu.obj
 0001:00057209       __ehhandler$?MeasureItem@CChevronOwnerDrawMenu@@UAEXPAUtagMEASUREITEMSTRUCT@@@Z 00458209 f   nafxcw:winmenu.obj
 0001:00057213       $L184858                   00458213 f   nafxcw:appcore.obj
 0001:0005721d       __ehhandler$?LoadStdProfileSettings@CWinApp@@IAEXI@Z 0045821d f   nafxcw:appcore.obj
 0001:00057227       $L184902                   00458227 f   nafxcw:appcore.obj
 0001:0005722f       __ehhandler$??1CWinApp@@UAE@XZ 0045822f f   nafxcw:appcore.obj
 0001:00057239       $L185271                   00458239 f   nafxcw:appcore.obj
 0001:00057241       __ehhandler$??0CWinApp@@QAE@PBD@Z 00458241 f   nafxcw:appcore.obj
 0001:0005724b       $L184482                   0045824b f   nafxcw:wingdix.obj
 0001:00057253       $L184483                   00458253 f   nafxcw:wingdix.obj
 0001:0005725b       $L184484                   0045825b f   nafxcw:wingdix.obj
 0001:00057263       $L184485                   00458263 f   nafxcw:wingdix.obj
 0001:0005726b       $L184486                   0045826b f   nafxcw:wingdix.obj
 0001:00057273       __ehhandler$?DrawDragRect@CDC@@QAEXPBUtagRECT@@UtagSIZE@@01PAVCBrush@@2@Z 00458273 f   nafxcw:wingdix.obj
 0001:0005727d       $L184849                   0045827d f   nafxcw:appui3.obj
 0001:00057288       __ehhandler$?GetProfileStringA@CWinApp@@QAE?AV?$CStringT@DV?$StrTraitMFC@DV?$ChTraitsCRT@D@ATL@@@@@ATL@@PBD00@Z 00458288 f   nafxcw:appui3.obj
 0001:00057292       $L184947                   00458292 f   nafxcw:appui3.obj
 0001:0005729a       __ehhandler$?GetProfileBinary@CWinApp@@QAEHPBD0PAPAEPAI@Z 0045829a f   nafxcw:appui3.obj
 0001:000572a4       $L185049                   004582a4 f   nafxcw:filelist.obj
 0001:000572ac       __ehhandler$??HATL@@YA?AV?$CStringT@DV?$StrTraitMFC@DV?$ChTraitsCRT@D@ATL@@@@@0@ABV10@0@Z 004582ac f   nafxcw:filelist.obj
 0001:000572b6       $L185169                   004582b6 f   nafxcw:filelist.obj
 0001:000572be       __ehhandler$?ReadList@CRecentFileList@@UAEXXZ 004582be f   nafxcw:filelist.obj
 0001:000572c8       $L185232                   004582c8 f   nafxcw:filelist.obj
 0001:000572d3       $L185233                   004582d3 f   nafxcw:filelist.obj
 0001:000572de       $L185234                   004582de f   nafxcw:filelist.obj
 0001:000572e9       __ehhandler$??0CRecentFileList@@QAE@IPBD0HH@Z 004582e9 f   nafxcw:filelist.obj
 0001:000572f3       $L185317                   004582f3 f   nafxcw:filelist.obj
 0001:000572fe       $L185318                   004582fe f   nafxcw:filelist.obj
 0001:00057309       $L185319                   00458309 f   nafxcw:filelist.obj
 0001:00057314       __ehhandler$?UpdateMenu@CRecentFileList@@UAEXPAVCCmdUI@@@Z 00458314 f   nafxcw:filelist.obj
 0001:0005731e       $L184559                   0045831e f   nafxcw:appui2.obj
 0001:00057327       $L184558                   00458327 f   nafxcw:appui2.obj
 0001:00057330       __ehhandler$?ProcessShellCommand@CWinApp@@QAEHAAVCCommandLineInfo@@@Z 00458330 f   nafxcw:appui2.obj
 0001:0005733a       $L184603                   0045833a f   nafxcw:appui2.obj
 0001:00057343       __ehhandler$?AddDocTemplate@CWinApp@@QAEXPAVCDocTemplate@@@Z 00458343 f   nafxcw:appui2.obj
 0001:0005734d       $L184878                   0045834d f   nafxcw:appui2.obj
 0001:00057355       __ehhandler$??HATL@@YA?AV?$CStringT@DV?$StrTraitMFC@DV?$ChTraitsCRT@D@ATL@@@@@0@ABV10@PBD@Z 00458355 f   nafxcw:appui2.obj
 0001:0005735f       $L185016                   0045835f f   nafxcw:appui2.obj
 0001:0005736a       __ehhandler$?AfxDelRegTreeHelper@@YGJPAUHKEY__@@ABV?$CStringT@DV?$StrTraitMFC@DV?$ChTraitsCRT@D@ATL@@@@@ATL@@@Z 0045836a f   nafxcw:appui2.obj
 0001:00057374       $L185058                   00458374 f   nafxcw:appui2.obj
 0001:0005737c       $L185059                   0045837c f   nafxcw:appui2.obj
 0001:00057384       __ehhandler$?EnableShellOpen@CWinApp@@IAEXXZ 00458384 f   nafxcw:appui2.obj
 0001:0005738e       $L185150                   0045838e f   nafxcw:appui2.obj
 0001:00057399       $L185151                   00458399 f   nafxcw:appui2.obj
 0001:000573a4       $L185152                   004583a4 f   nafxcw:appui2.obj
 0001:000573af       __ehhandler$?Unregister@CWinApp@@UAEHXZ 004583af f   nafxcw:appui2.obj
 0001:000573b9       $L185142                   004583b9 f   nafxcw:filecore.obj
 0001:000573c4       __ehhandler$??1CFile@@UAE@XZ 004583c4 f   nafxcw:filecore.obj
 0001:000573ce       $L185311                   004583ce f   nafxcw:filecore.obj
 0001:000573d9       __ehhandler$?AfxFullPath@@YGHPADPBD@Z 004583d9 f   nafxcw:filecore.obj
 0001:000573e3       $L185486                   004583e3 f   nafxcw:filecore.obj
 0001:000573ee       __ehhandler$??0CFileException@@QAE@HJPBD@Z 004583ee f   nafxcw:filecore.obj
 0001:000573f8       $L185539                   004583f8 f   nafxcw:filecore.obj
 0001:00057403       $L185540                   00458403 f   nafxcw:filecore.obj
 0001:0005740b       __ehhandler$??0CFile@@QAE@PBDI@Z 0045840b f   nafxcw:filecore.obj
 0001:00057415       $L185606                   00458415 f   nafxcw:filecore.obj
 0001:0005741d       $L185607                   0045841d f   nafxcw:filecore.obj
 0001:00057425       __ehhandler$?GetClassObject@AFX_COM@@QAEJABU_GUID@@0PAPAX@Z 00458425 f   nafxcw:filecore.obj
 0001:0005742f       $L184751                   0045842f f   nafxcw:filex.obj
 0001:00057437       $L184752                   00458437 f   nafxcw:filex.obj
 0001:0005743f       __ehhandler$?GetErrorMessage@CFileException@@UAEHPADIPAI@Z 0045843f f   nafxcw:filex.obj
 0001:00057449       $L184929                   00458449 f   nafxcw:filex.obj
 0001:00057452       __ehhandler$?AfxThrowFileException@@YGXHJPBD@Z 00458452 f   nafxcw:filex.obj
 0001:0005745c       $L185393                   0045845c f   nafxcw:docmgr.obj
 0001:00057467       __ehhandler$?OnFileNew@CDocManager@@UAEXXZ 00458467 f   nafxcw:docmgr.obj
 0001:00057471       $L185466                   00458471 f   nafxcw:docmgr.obj
 0001:0005747c       __ehhandler$??1CDocManager@@UAE@XZ 0045847c f   nafxcw:docmgr.obj
 0001:00057486       $L185778                   00458486 f   nafxcw:docmgr.obj
 0001:0005748e       __ehhandler$?OnInitDialog@CNewTypeDlg@@MAEHXZ 0045848e f   nafxcw:docmgr.obj
 0001:00057498       $L185891                   00458498 f   nafxcw:docmgr.obj
 0001:000574a0       __ehhandler$?OnFileOpen@CDocManager@@UAEXXZ 004584a0 f   nafxcw:docmgr.obj
 0001:000574aa       $L186403                   004584aa f   nafxcw:docmgr.obj
 0001:000574b2       $L186404                   004584b2 f   nafxcw:docmgr.obj
 0001:000574ba       $L186405                   004584ba f   nafxcw:docmgr.obj
 0001:000574c2       $L186406                   004584c2 f   nafxcw:docmgr.obj
 0001:000574ca       $L186407                   004584ca f   nafxcw:docmgr.obj
 0001:000574d2       __ehhandler$?UnregisterShellFileTypes@CDocManager@@QAEXXZ 004584d2 f   nafxcw:docmgr.obj
 0001:000574dc       $L186811                   004584dc f   nafxcw:docmgr.obj
 0001:000574e4       $L186812                   004584e4 f   nafxcw:docmgr.obj
 0001:000574ec       $L186813                   004584ec f   nafxcw:docmgr.obj
 0001:000574f4       $L186814                   004584f4 f   nafxcw:docmgr.obj
 0001:000574fc       __ehhandler$?_AfxAppendFilterSuffix@@YGXAAV?$CStringT@DV?$StrTraitMFC@DV?$ChTraitsCRT@D@ATL@@@@@ATL@@AAUtagOFNA@@PAVCDocTemplate@@PAV12@@Z 004584fc f   nafxcw:docmgr.obj
 0001:00057506       $L187079                   00458506 f   nafxcw:docmgr.obj
 0001:0005750e       $L187080                   0045850e f   nafxcw:docmgr.obj
 0001:00057516       $L187081                   00458516 f   nafxcw:docmgr.obj
 0001:0005751e       $L187082                   0045851e f   nafxcw:docmgr.obj
 0001:00057526       $L187083                   00458526 f   nafxcw:docmgr.obj
 0001:0005752e       $L187084                   0045852e f   nafxcw:docmgr.obj
 0001:00057536       $L187085                   00458536 f   nafxcw:docmgr.obj
 0001:0005753e       $L187086                   0045853e f   nafxcw:docmgr.obj
 0001:00057546       $L187087                   00458546 f   nafxcw:docmgr.obj
 0001:0005754e       $L187088                   0045854e f   nafxcw:docmgr.obj
 0001:00057556       __ehhandler$?RegisterShellFileTypes@CDocManager@@UAEXH@Z 00458556 f   nafxcw:docmgr.obj
 0001:00057560       $L188823                   00458560 f   nafxcw:docmgr.obj
 0001:0005756b       $L188824                   0045856b f   nafxcw:docmgr.obj
 0001:00057576       $L188825                   00458576 f   nafxcw:docmgr.obj
 0001:00057581       $L188826                   00458581 f   nafxcw:docmgr.obj
 0001:0005758c       $L188827                   0045858c f   nafxcw:docmgr.obj
 0001:00057597       __ehhandler$?DoPromptFileName@CDocManager@@UAEHAAV?$CStringT@DV?$StrTraitMFC@DV?$ChTraitsCRT@D@ATL@@@@@ATL@@IKHPAVCDocTemplate@@@Z 00458597 f   nafxcw:docmgr.obj
 0001:000575a1       $L189152                   004585a1 f   nafxcw:docmgr.obj
 0001:000575a9       $L189153                   004585a9 f   nafxcw:docmgr.obj
 0001:000575b1       $L189155                   004585b1 f   nafxcw:docmgr.obj
 0001:000575b9       $L189157                   004585b9 f   nafxcw:docmgr.obj
 0001:000575c1       $L189159                   004585c1 f   nafxcw:docmgr.obj
 0001:000575c9       $L189160                   004585c9 f   nafxcw:docmgr.obj
 0001:000575d1       $L189161                   004585d1 f   nafxcw:docmgr.obj
 0001:000575d9       $L189163                   004585d9 f   nafxcw:docmgr.obj
 0001:000575e1       $L189164                   004585e1 f   nafxcw:docmgr.obj
 0001:000575e9       $L189165                   004585e9 f   nafxcw:docmgr.obj
 0001:000575f1       $L189167                   004585f1 f   nafxcw:docmgr.obj
 0001:000575f9       $L189168                   004585f9 f   nafxcw:docmgr.obj
 0001:00057601       $L189169                   00458601 f   nafxcw:docmgr.obj
 0001:00057609       $L189171                   00458609 f   nafxcw:docmgr.obj
 0001:00057611       $L189172                   00458611 f   nafxcw:docmgr.obj
 0001:00057619       $L189173                   00458619 f   nafxcw:docmgr.obj
 0001:00057621       __ehhandler$?OnDDECommand@CDocManager@@UAEHPAD@Z 00458621 f   nafxcw:docmgr.obj
 0001:0005762b       $L185386                   0045862b f   nafxcw:filest.obj
 0001:00057636       __ehhandler$?GetFileName@CFile@@UBE?AV?$CStringT@DV?$StrTraitMFC@DV?$ChTraitsCRT@D@ATL@@@@@ATL@@XZ 00458636 f   nafxcw:filest.obj
 0001:00057640       $L185483                   00458640 f   nafxcw:filest.obj
 0001:0005764b       __ehhandler$?GetFileTitle@CFile@@UBE?AV?$CStringT@DV?$StrTraitMFC@DV?$ChTraitsCRT@D@ATL@@@@@ATL@@XZ 0045864b f   nafxcw:filest.obj
 0001:00057655       $L193410                   00458655 f   nafxcw:dlgcore.obj
 0001:0005765d       __ehhandler$??1CDialog@@UAE@XZ 0045865d f   nafxcw:dlgcore.obj
 0001:00057667       $L193425                   00458667 f   nafxcw:dlgcore.obj
 0001:0005766f       __ehhandler$?OnPaint@CDialog@@IAEXXZ 0045866f f   nafxcw:dlgcore.obj
 0001:00057679       $L193709                   00458679 f   nafxcw:dlgcore.obj
 0001:00057681       $L193710                   00458681 f   nafxcw:dlgcore.obj
 0001:00057689       __ehhandler$?CreateDlgIndirect@CWnd@@IAEHPBUDLGTEMPLATE@@PAV1@PAUHINSTANCE__@@@Z 00458689 f   nafxcw:dlgcore.obj
 0001:00057693       __ehhandler$?DoModal@CDialog@@UAEHXZ 00458693 f   nafxcw:dlgcore.obj
 0001:0005769d       $L185189                   0045869d f   nafxcw:dlgfile.obj
 0001:000576a5       __ehhandler$?GetFolderPath@CFileDialog@@QBE?AV?$CStringT@DV?$StrTraitMFC@DV?$ChTraitsCRT@D@ATL@@@@@ATL@@XZ 004586a5 f   nafxcw:dlgfile.obj
 0001:000576af       $L185428                   004586af f   nafxcw:dlgfile.obj
 0001:000576b7       __ehhandler$??HATL@@YA?AV?$CStringT@DV?$StrTraitMFC@DV?$ChTraitsCRT@D@ATL@@@@@0@ABV10@D@Z 004586b7 f   nafxcw:dlgfile.obj
 0001:000576c1       $L185522                   004586c1 f   nafxcw:dlgfile.obj
 0001:000576cc       $L185523                   004586cc f   nafxcw:dlgfile.obj
 0001:000576da       __ehhandler$??0CFileDialog@@QAE@HPBD0K0PAVCWnd@@K@Z 004586da f   nafxcw:dlgfile.obj
 0001:000576e4       $L185639                   004586e4 f   nafxcw:dlgfile.obj
 0001:000576ec       __ehhandler$?GetPathName@CFileDialog@@QBE?AV?$CStringT@DV?$StrTraitMFC@DV?$ChTraitsCRT@D@ATL@@@@@ATL@@XZ 004586ec f   nafxcw:dlgfile.obj
 0001:000576f6       $L185768                   004586f6 f   nafxcw:dlgfile.obj
 0001:000576fe       __ehhandler$?GetFileName@CFileDialog@@QBE?AV?$CStringT@DV?$StrTraitMFC@DV?$ChTraitsCRT@D@ATL@@@@@ATL@@XZ 004586fe f   nafxcw:dlgfile.obj
 0001:00057708       $L185870                   00458708 f   nafxcw:dlgfile.obj
 0001:00057710       __ehhandler$?GetFileExt@CFileDialog@@QBE?AV?$CStringT@DV?$StrTraitMFC@DV?$ChTraitsCRT@D@ATL@@@@@ATL@@XZ 00458710 f   nafxcw:dlgfile.obj
 0001:0005771a       $L185986                   0045871a f   nafxcw:dlgfile.obj
 0001:00057722       __ehhandler$?GetFileTitle@CFileDialog@@QBE?AV?$CStringT@DV?$StrTraitMFC@DV?$ChTraitsCRT@D@ATL@@@@@ATL@@XZ 00458722 f   nafxcw:dlgfile.obj
 0001:0005772c       $L186025                   0045872c f   nafxcw:dlgfile.obj
 0001:00057734       $L186026                   00458734 f   nafxcw:dlgfile.obj
 0001:0005773c       $L186027                   0045873c f   nafxcw:dlgfile.obj
 0001:00057744       $L186028                   00458744 f   nafxcw:dlgfile.obj
 0001:0005774c       $L186029                   0045874c f   nafxcw:dlgfile.obj
 0001:00057754       __ehhandler$?GetNextPathName@CFileDialog@@QBE?AV?$CStringT@DV?$StrTraitMFC@DV?$ChTraitsCRT@D@ATL@@@@@ATL@@AAPAU__POSITION@@@Z 00458754 f   nafxcw:dlgfile.obj
 0001:0005775e       $L184740                   0045875e f   nafxcw:dlgtempl.obj
 0001:00057766       __ehhandler$?GetSizeInPixels@CDialogTemplate@@QBEXPAUtagSIZE@@@Z 00458766 f   nafxcw:dlgtempl.obj
 0001:00057770       $L11665                    00458770 f   libcpmt:string.obj
 0001:00057778       __ehhandler$?_Xran@_String_base@std@@QBEXXZ 00458778 f   libcpmt:string.obj
 0001:00057782       $L11876                    00458782 f   libcpmt:string.obj
 0001:0005778a       __ehhandler$?_Xlen@_String_base@std@@QBEXXZ 0045878a f   libcpmt:string.obj
 0001:000577a0       _$E1                       004587a0 f   DPCacheSrvr.obj
 0001:000577c0       _$E1                       004587c0 f   DPClient.obj
 0001:000577e0       _$E1                       004587e0 f   DPCoreClient.obj
 0001:00057800       _$E1                       00458800 f   buffer.obj
 0001:00057870       _$E3                       00458870 f   buffer.obj
 0001:000578e0       _$E5                       004588e0 f   buffer.obj
 0001:00057940       _$E1                       00458940 f   clientsock.obj
 0001:000579b0       _$E1                       004589b0 f   clientsocke.obj
 0001:00057a20       _$E1                       00458a20 f   ar.obj
 0001:00057a80       _$E2                       00458a80 f   MyTrace.obj
 0001:00057a96       _$E1                       00458a96 f   nafxcw:objcore.obj
 0001:00057aac       _$E5                       00458aac f   atls:atlbase.obj
 0001:00057ac2       _$E1                       00458ac2 f   atls:atlbase.obj
 0001:00057ae0       _$E2                       00458ae0 f   DPCacheSrvr.obj
 0001:00057af0       _$E2                       00458af0 f   DPClient.obj
 0001:00057b00       _$E2                       00458b00 f   DPCoreClient.obj
 0001:00057b10       _$E2                       00458b10 f   packetlog.obj
 0001:00057b20       _$E2                       00458b20 f   Player.obj
 0001:00057b30       _$E3                       00458b30 f   MyTrace.obj
 0001:00057b3a       _$E2                       00458b3a f   nafxcw:objcore.obj
 0001:00057b44       _$E6                       00458b44 f   atls:atlbase.obj
 0001:00057b4e       _$E2                       00458b4e f   atls:atlbase.obj
