 CoreServer

 Timestamp is 525dbe21 (Tue Oct 15 18:13:53 2013)

 Preferred load address is 00400000

 Start         Length     Name                   Class
 0001:00000000 000689feH .text                   CODE
 0001:000689fe 00000cf8H .text$AFX_AUX           CODE
 0001:000696f6 000001c9H .text$AFX_CMNCTL        CODE
 0001:000698bf 00000a7aH .text$AFX_COL1          CODE
 0001:0006a339 000002e2H .text$AFX_COL2          CODE
 0001:0006a61b 0000abefH .text$AFX_CORE1         CODE
 0001:0007520a 000034f6H .text$AFX_CORE2         CODE
 0001:00078700 00002355H .text$AFX_CORE3         CODE
 0001:0007aa55 00000751H .text$AFX_CORE4         CODE
 0001:0007b1a6 00003df8H .text$AFX_INIT          CODE
 0001:0007ef9e 000014d6H .text$AFX_OLE1          CODE
 0001:00080474 000000ecH .text$AFX_TERM          CODE
 0001:00080560 000045feH .text$x                 CODE
 0001:00084b60 000005e8H .text$yc                CODE
 0001:00085150 00000148H .text$yd                CODE
 0002:00000000 00000890H .idata$5                DATA
 0002:00000890 0000ecc8H .rdata                  DATA
 0002:0000f558 00000087H .rdata$debug            DATA
 0002:0000f5e0 00000298H .rdata$ilfixup          DATA
 0002:0000f878 0000132cH .rdata$r                DATA
 0002:00010bb0 00000920H .rdata$sxdata           DATA
 0002:000114d0 00000004H .rtc$IAA                DATA
 0002:000114d4 00000004H .rtc$IZZ                DATA
 0002:000114d8 00000004H .rtc$TAA                DATA
 0002:000114dc 00000004H .rtc$TZZ                DATA
 0002:000114e0 00006454H .xdata$x                DATA
 0002:00017934 00000004H ATL$__a                 DATA
 0002:00017938 00000004H ATL$__z                 DATA
 0002:0001793c 00000154H .idata$2                DATA
 0002:00017a90 00000014H .idata$3                DATA
 0002:00017aa4 00000890H .idata$4                DATA
 0002:00018334 00002118H .idata$6                DATA
 0002:0001a44c 00000000H .edata                  DATA
 0003:00000000 00000004H .CRT$XCA                DATA
 0003:00000004 00000004H .CRT$XCA0               DATA
 0003:00000008 00000004H .CRT$XCAA               DATA
 0003:0000000c 0000000cH .CRT$XCC                DATA
 0003:00000018 00000008H .CRT$XCL                DATA
 0003:00000020 00000094H .CRT$XCU                DATA
 0003:000000b4 00000004H .CRT$XCZ                DATA
 0003:000000b8 00000004H .CRT$XIA                DATA
 0003:000000bc 0000000cH .CRT$XIC                DATA
 0003:000000c8 00000004H .CRT$XIY                DATA
 0003:000000cc 00000004H .CRT$XIZ                DATA
 0003:000000d0 00000004H .CRT$XPA                DATA
 0003:000000d4 00000004H .CRT$XPX                DATA
 0003:000000d8 00000004H .CRT$XPZ                DATA
 0003:000000dc 00000004H .CRT$XTA                DATA
 0003:000000e0 00000004H .CRT$XTB                DATA
 0003:000000e4 00000004H .CRT$XTZ                DATA
 0003:000000f0 00002f7cH .data                   DATA
 0003:00003080 000144e4H .bss                    DATA
 0004:00000000 000001a8H .rsrc$01                DATA
 0004:000001b0 00000600H .rsrc$02                DATA

  Address         Publics by Value              Rva+Base     Lib:Object

 0000:00000000       __except_list              00000000     <absolute>
 0000:00000248       ___safe_se_handler_count   00000248     <absolute>
 0000:00000000       ___ImageBase               00400000     <linker-defined>
 0001:00000000       ??2@YAPAXIPAX@Z            00401000 f i CoreServer.obj
 0001:00000010       ??3@YAXPAX0@Z              00401010 f i CoreServer.obj
 0001:00000020       ?InterlockedExchangePointer@@YGPAXPAPAXPAX@Z 00401020 f i CoreServer.obj
 0001:00000030       ?_AtlGetThreadACPFake@ATL@@YGIXZ 00401030 f i CoreServer.obj
 0001:000000b0       ?_AtlGetThreadACPReal@ATL@@YGIXZ 004010b0 f i CoreServer.obj
 0001:000000c0       ??6CAr@@QAEAAV0@K@Z        004010c0 f i CoreServer.obj
 0001:000000e0       ?_AtlGetThreadACPThunk@ATL@@YGIXZ 004010e0 f i CoreServer.obj
 0001:00000150       ?_AtlGetConversionACP@ATL@@YGIXZ 00401150 f i CoreServer.obj
 0001:00000160       ?StartServer@CDPMng@@QAEHGHW4BUFFER_TYPE@@@Z 00401160 f i CoreServer.obj
 0001:000001b0       ?ConnectToServer@CDPMng@@QAEHPBDGHW4BUFFER_TYPE@@@Z 004011b0 f i CoreServer.obj
 0001:00000200       ?Send@CDPMng@@QAEHPAXKK@Z  00401200 f i CoreServer.obj
 0001:00000220       ?SetKey@CServerDesc@@QAEXK@Z 00401220 f i CoreServer.obj
 0001:00000240       ?GetKey@CServerDesc@@QAEKXZ 00401240 f i CoreServer.obj
 0001:00000250       ?AtlThrow@ATL@@YGXJ@Z      00401250 f i CoreServer.obj
 0001:00000270       ?_AtlGetStringResourceImage@ATL@@YAPBUATLSTRINGRESOURCEIMAGE@1@PAUHINSTANCE__@@PAUHRSRC__@@I@Z 00401270 f i CoreServer.obj
 0001:000002d0       ?AtlGetStringResourceImage@ATL@@YAPBUATLSTRINGRESOURCEIMAGE@1@PAUHINSTANCE__@@I@Z 004012d0 f i CoreServer.obj
 0001:00000310       ?data@CStringData@ATL@@QAEPAXXZ 00401310 f i CoreServer.obj
 0001:00000320       ?IsLocked@CStringData@ATL@@QBE_NXZ 00401320 f i CoreServer.obj
 0001:00000330       ?IsShared@CStringData@ATL@@QBE_NXZ 00401330 f i CoreServer.obj
 0001:00000340       ?Release@CStringData@ATL@@QAEXXZ 00401340 f i CoreServer.obj
 0001:00000360       ??0CTime@ATL@@QAE@_J@Z     00401360 f i CoreServer.obj
 0001:00000380       ??0CTime@ATL@@QAE@HHHHHHH@Z 00401380 f i CoreServer.obj
 0001:00000400       ??MCTime@ATL@@QBE_NV01@@Z  00401400 f i CoreServer.obj
 0001:00000420       ??OCTime@ATL@@QBE_NV01@@Z  00401420 f i CoreServer.obj
 0001:00000440       ??PCTime@ATL@@QBE_NV01@@Z  00401440 f i CoreServer.obj
 0001:00000460       ?SendHdr@CDPCacheSrvr@@QAEXKKK@Z 00401460 f i CoreServer.obj
 0001:00000550       ?Initialize@CMyTrace@@QAEXPAUHWND__@@PBDKK@Z 00401550 f i CoreServer.obj
 0001:000005a0       ?InitLanguageFromResource@@YAXPAUHINSTANCE__@@@Z 004015a0 f   CoreServer.obj
 0001:00000630       ??0CRect@@QAE@XZ           00401630 f i CoreServer.obj
 0001:00000640       ?SetRect@CRect@@QAEXHHHH@Z 00401640 f i CoreServer.obj
 0001:00000660       ??0?$pair@$$CBKPAVCServerDesc@@@std@@QAE@ABKABQAVCServerDesc@@@Z 00401660 f i CoreServer.obj
 0001:00000680       ??R?$less@K@std@@QBE_NABK0@Z 00401680 f i CoreServer.obj
 0001:000006a0       ?_Isnil@?$_Tree@V?$_Tmap_traits@KPAVCServerDesc@@U?$less@K@std@@V?$allocator@U?$pair@$$CBKPAVCServerDesc@@@std@@@3@$0A@@std@@@std@@KAAADPAU_Node@?$_Tree_nod@V?$_Tmap_traits@KPAVCServerDesc@@U?$less@K@std@@V?$allocator@U?$pair@$$CBKPAVCServerDesc@@@std@@@3@$0A@@std@@@2@@Z 004016a0 f i CoreServer.obj
 0001:000006b0       ?_Left@?$_Tree@V?$_Tmap_traits@KPAVCServerDesc@@U?$less@K@std@@V?$allocator@U?$pair@$$CBKPAVCServerDesc@@@std@@@3@$0A@@std@@@std@@KAAAPAU_Node@?$_Tree_nod@V?$_Tmap_traits@KPAVCServerDesc@@U?$less@K@std@@V?$allocator@U?$pair@$$CBKPAVCServerDesc@@@std@@@3@$0A@@std@@@2@PAU342@@Z 004016b0 f i CoreServer.obj
 0001:000006c0       ?_Right@?$_Tree@V?$_Tmap_traits@KPAVCServerDesc@@U?$less@K@std@@V?$allocator@U?$pair@$$CBKPAVCServerDesc@@@std@@@3@$0A@@std@@@std@@KAAAPAU_Node@?$_Tree_nod@V?$_Tmap_traits@KPAVCServerDesc@@U?$less@K@std@@V?$allocator@U?$pair@$$CBKPAVCServerDesc@@@std@@@3@$0A@@std@@@2@PAU342@@Z 004016c0 f i CoreServer.obj
 0001:000006d0       ?_Lmost@?$_Tree@V?$_Tmap_traits@KPAVCServerDesc@@U?$less@K@std@@V?$allocator@U?$pair@$$CBKPAVCServerDesc@@@std@@@3@$0A@@std@@@std@@IAEAAPAU_Node@?$_Tree_nod@V?$_Tmap_traits@KPAVCServerDesc@@U?$less@K@std@@V?$allocator@U?$pair@$$CBKPAVCServerDesc@@@std@@@3@$0A@@std@@@2@XZ 004016d0 f i CoreServer.obj
 0001:000006e0       ?_Kfn@?$_Tmap_traits@KPAVCServerDesc@@U?$less@K@std@@V?$allocator@U?$pair@$$CBKPAVCServerDesc@@@std@@@3@$0A@@std@@SAABKABU?$pair@$$CBKPAVCServerDesc@@@2@@Z 004016e0 f i CoreServer.obj
 0001:000006f0       ??8const_iterator@?$_Tree@V?$_Tmap_traits@KPAVCServerDesc@@U?$less@K@std@@V?$allocator@U?$pair@$$CBKPAVCServerDesc@@@std@@@3@$0A@@std@@@std@@QBE_NABV012@@Z 004016f0 f i CoreServer.obj
 0001:00000700       ?_Mynode@const_iterator@?$_Tree@V?$_Tmap_traits@KPAVCServerDesc@@U?$less@K@std@@V?$allocator@U?$pair@$$CBKPAVCServerDesc@@@std@@@3@$0A@@std@@@std@@QBEPAU_Node@?$_Tree_nod@V?$_Tmap_traits@KPAVCServerDesc@@U?$less@K@std@@V?$allocator@U?$pair@$$CBKPAVCServerDesc@@@std@@@3@$0A@@std@@@3@XZ 00401700 f i CoreServer.obj
 0001:00000710       ??0?$pair@Viterator@?$_Tree@V?$_Tmap_traits@KPAVCServerDesc@@U?$less@K@std@@V?$allocator@U?$pair@$$CBKPAVCServerDesc@@@std@@@3@$0A@@std@@@std@@_N@std@@QAE@ABViterator@?$_Tree@V?$_Tmap_traits@KPAVCServerDesc@@U?$less@K@std@@V?$allocator@U?$pair@$$CBKPAVCServerDesc@@@std@@@3@$0A@@std@@@1@AB_N@Z 00401710 f i CoreServer.obj
 0001:00000730       ?StringCompare@?$ChTraitsCRT@D@ATL@@SAHPBD0@Z 00401730 f i CoreServer.obj
 0001:00000740       ?_Nextnode@?$list@PAVCJurisdiction@@V?$allocator@PAVCJurisdiction@@@std@@@std@@KAAAPAU_Node@?$_List_nod@PAVCJurisdiction@@V?$allocator@PAVCJurisdiction@@@std@@@2@PAU342@@Z 00401740 f i CoreServer.obj
 0001:00000750       ?_Prevnode@?$list@PAVCJurisdiction@@V?$allocator@PAVCJurisdiction@@@std@@@std@@KAAAPAU_Node@?$_List_nod@PAVCJurisdiction@@V?$allocator@PAVCJurisdiction@@@std@@@2@PAU342@@Z 00401750 f i CoreServer.obj
 0001:00000760       ?_Color@?$_Tree@V?$_Tmap_traits@KPAVCServerDesc@@U?$less@K@std@@V?$allocator@U?$pair@$$CBKPAVCServerDesc@@@std@@@3@$0A@@std@@@std@@KAAADPAU_Node@?$_Tree_nod@V?$_Tmap_traits@KPAVCServerDesc@@U?$less@K@std@@V?$allocator@U?$pair@$$CBKPAVCServerDesc@@@std@@@3@$0A@@std@@@2@@Z 00401760 f i CoreServer.obj
 0001:00000770       ?_Parent@?$_Tree@V?$_Tmap_traits@KPAVCServerDesc@@U?$less@K@std@@V?$allocator@U?$pair@$$CBKPAVCServerDesc@@@std@@@3@$0A@@std@@@std@@KAAAPAU_Node@?$_Tree_nod@V?$_Tmap_traits@KPAVCServerDesc@@U?$less@K@std@@V?$allocator@U?$pair@$$CBKPAVCServerDesc@@@std@@@3@$0A@@std@@@2@PAU342@@Z 00401770 f i CoreServer.obj
 0001:00000780       ?_Myval@?$_Tree@V?$_Tmap_traits@KPAVCServerDesc@@U?$less@K@std@@V?$allocator@U?$pair@$$CBKPAVCServerDesc@@@std@@@3@$0A@@std@@@std@@KAAAU?$pair@$$CBKPAVCServerDesc@@@2@PAU_Node@?$_Tree_nod@V?$_Tmap_traits@KPAVCServerDesc@@U?$less@K@std@@V?$allocator@U?$pair@$$CBKPAVCServerDesc@@@std@@@3@$0A@@std@@@2@@Z 00401780 f i CoreServer.obj
 0001:00000790       ?_Rmost@?$_Tree@V?$_Tmap_traits@KPAVCServerDesc@@U?$less@K@std@@V?$allocator@U?$pair@$$CBKPAVCServerDesc@@@std@@@3@$0A@@std@@@std@@IAEAAPAU_Node@?$_Tree_nod@V?$_Tmap_traits@KPAVCServerDesc@@U?$less@K@std@@V?$allocator@U?$pair@$$CBKPAVCServerDesc@@@std@@@3@$0A@@std@@@2@XZ 00401790 f i CoreServer.obj
 0001:000007a0       ??0const_iterator@?$_Tree@V?$_Tmap_traits@KPAVCServerDesc@@U?$less@K@std@@V?$allocator@U?$pair@$$CBKPAVCServerDesc@@@std@@@3@$0A@@std@@@std@@QAE@PAU_Node@?$_Tree_nod@V?$_Tmap_traits@KPAVCServerDesc@@U?$less@K@std@@V?$allocator@U?$pair@$$CBKPAVCServerDesc@@@std@@@3@$0A@@std@@@2@@Z 004017a0 f i CoreServer.obj
 0001:000007b0       ?_Mynode@const_iterator@?$list@PAVCJurisdiction@@V?$allocator@PAVCJurisdiction@@@std@@@std@@QBEPAU_Node@?$_List_nod@PAVCJurisdiction@@V?$allocator@PAVCJurisdiction@@@std@@@3@XZ 004017b0 f i CoreServer.obj
 0001:000007c0       ?_Nextnode@?$list@PAXV?$allocator@PAX@std@@@std@@KAAAPAU_Node@?$_List_nod@PAXV?$allocator@PAX@std@@@2@PAU342@@Z 004017c0 f i CoreServer.obj
 0001:000007d0       ?_Prevnode@?$list@PAXV?$allocator@PAX@std@@@std@@KAAAPAU_Node@?$_List_nod@PAXV?$allocator@PAX@std@@@2@PAU342@@Z 004017d0 f i CoreServer.obj
 0001:000007e0       ?deallocate@?$allocator@U_Node@?$_List_nod@PAXV?$allocator@PAX@std@@@std@@@std@@QAEXPAU_Node@?$_List_nod@PAXV?$allocator@PAX@std@@@2@I@Z 004017e0 f i CoreServer.obj
 0001:000007f0       ?deallocate@?$allocator@U_Node@?$_List_nod@PAVCJurisdiction@@V?$allocator@PAVCJurisdiction@@@std@@@std@@@std@@QAEXPAU_Node@?$_List_nod@PAVCJurisdiction@@V?$allocator@PAVCJurisdiction@@@std@@@2@I@Z 004017f0 f i CoreServer.obj
 0001:00000800       ?max_size@?$allocator@U?$pair@$$CBKPAVCServerDesc@@@std@@@std@@QBEIXZ 00401800 f i CoreServer.obj
 0001:00000810       ?deallocate@?$allocator@U_Node@?$_Tree_nod@V?$_Tmap_traits@KPAVCServerDesc@@U?$less@K@std@@V?$allocator@U?$pair@$$CBKPAVCServerDesc@@@std@@@3@$0A@@std@@@std@@@std@@QAEXPAU_Node@?$_Tree_nod@V?$_Tmap_traits@KPAVCServerDesc@@U?$less@K@std@@V?$allocator@U?$pair@$$CBKPAVCServerDesc@@@std@@@3@$0A@@std@@@2@I@Z 00401810 f i CoreServer.obj
 0001:00000820       ??0const_iterator@?$list@PAVCJurisdiction@@V?$allocator@PAVCJurisdiction@@@std@@@std@@QAE@PAU_Node@?$_List_nod@PAVCJurisdiction@@V?$allocator@PAVCJurisdiction@@@std@@@2@@Z 00401820 f i CoreServer.obj
 0001:00000830       ??0_Node@?$_Tree_nod@V?$_Tmap_traits@KPAVCServerDesc@@U?$less@K@std@@V?$allocator@U?$pair@$$CBKPAVCServerDesc@@@std@@@3@$0A@@std@@@std@@QAE@PAU012@00ABU?$pair@$$CBKPAVCServerDesc@@@2@D@Z 00401830 f i CoreServer.obj
 0001:00000870       ??Econst_iterator@?$list@PAXV?$allocator@PAX@std@@@std@@QAEAAV012@XZ 00401870 f i CoreServer.obj
 0001:00000880       ??8const_iterator@?$list@PAXV?$allocator@PAX@std@@@std@@QBE_NABV012@@Z 00401880 f i CoreServer.obj
 0001:00000890       ??0_Node@?$_List_nod@PAVCJurisdiction@@V?$allocator@PAVCJurisdiction@@@std@@@std@@QAE@PAU012@0ABQAVCJurisdiction@@@Z 00401890 f i CoreServer.obj
 0001:000008b0       ?_Myval@?$list@PAXV?$allocator@PAX@std@@@std@@KAAAPAXPAU_Node@?$_List_nod@PAXV?$allocator@PAX@std@@@2@@Z 004018b0 f i CoreServer.obj
 0001:000008c0       ?max_size@?$allocator@PAVCJurisdiction@@@std@@QBEIXZ 004018c0 f i CoreServer.obj
 0001:000008d0       ?_Max@?$_Tree@V?$_Tmap_traits@KPAVCServerDesc@@U?$less@K@std@@V?$allocator@U?$pair@$$CBKPAVCServerDesc@@@std@@@3@$0A@@std@@@std@@KAPAU_Node@?$_Tree_nod@V?$_Tmap_traits@KPAVCServerDesc@@U?$less@K@std@@V?$allocator@U?$pair@$$CBKPAVCServerDesc@@@std@@@3@$0A@@std@@@2@PAU342@@Z 004018d0 f i CoreServer.obj
 0001:000008f0       ??0const_iterator@?$list@PAXV?$allocator@PAX@std@@@std@@QAE@PAU_Node@?$_List_nod@PAXV?$allocator@PAX@std@@@2@@Z 004018f0 f i CoreServer.obj
 0001:00000900       ??$_Destroy@U_Node@?$_List_nod@PAXV?$allocator@PAX@std@@@std@@@std@@YAXPAU_Node@?$_List_nod@PAXV?$allocator@PAX@std@@@0@@Z 00401900 f i CoreServer.obj
 0001:00000910       ??$_Destroy@PAU_Node@?$_List_nod@PAXV?$allocator@PAX@std@@@std@@@std@@YAXPAPAU_Node@?$_List_nod@PAXV?$allocator@PAX@std@@@0@@Z 00401910 f i CoreServer.obj
 0001:00000920       ??$_Allocate@U_Node@?$_List_nod@PAVCJurisdiction@@V?$allocator@PAVCJurisdiction@@@std@@@std@@@std@@YAPAU_Node@?$_List_nod@PAVCJurisdiction@@V?$allocator@PAVCJurisdiction@@@std@@@0@IPAU120@@Z 00401920 f i CoreServer.obj
 0001:00000940       ??$_Allocate@U_Node@?$_Tree_nod@V?$_Tmap_traits@KPAVCServerDesc@@U?$less@K@std@@V?$allocator@U?$pair@$$CBKPAVCServerDesc@@@std@@@3@$0A@@std@@@std@@@std@@YAPAU_Node@?$_Tree_nod@V?$_Tmap_traits@KPAVCServerDesc@@U?$less@K@std@@V?$allocator@U?$pair@$$CBKPAVCServerDesc@@@std@@@3@$0A@@std@@@0@IPAU120@@Z 00401940 f i CoreServer.obj
 0001:00000960       ?assign@?$char_traits@D@std@@SAXAADABD@Z 00401960 f i CoreServer.obj
 0001:00000970       ?length@?$char_traits@D@std@@SAIPBD@Z 00401970 f i CoreServer.obj
 0001:00000990       ?copy@?$char_traits@D@std@@SAPADPADPBDI@Z 00401990 f i CoreServer.obj
 0001:000009c0       ?move@?$char_traits@D@std@@SAPADPADPBDI@Z 004019c0 f i CoreServer.obj
 0001:000009d0       ?Enter@CMclCritSec@@QAEXXZ 004019d0 f i CoreServer.obj
 0001:000009e0       ?Leave@CMclCritSec@@QAEXXZ 004019e0 f i CoreServer.obj
 0001:000009f0       ?Start@CTickCount@@QAEXXZ  004019f0 f i CoreServer.obj
 0001:00000a20       ??B?$CSimpleStringT@D$0A@@ATL@@QBEPBDXZ 00401a20 f i CoreServer.obj
 0001:00000a30       ?size@?$basic_string@DU?$char_traits@D@std@@V?$allocator@D@2@@std@@QBEIXZ 00401a30 f i CoreServer.obj
 0001:00000a40       ?GetString@?$CSimpleStringT@D$0A@@ATL@@QBEPBDXZ 00401a40 f i CoreServer.obj
 0001:00000a50       ?StringLength@?$CSimpleStringT@D$0A@@ATL@@SAHPBD@Z 00401a50 f i CoreServer.obj
 0001:00000a70       ?GetData@?$CSimpleStringT@D$0A@@ATL@@ABEPAUCStringData@2@XZ 00401a70 f i CoreServer.obj
 0001:00000a80       ?SetLength@?$CSimpleStringT@D$0A@@ATL@@AAEXH@Z 00401a80 f i CoreServer.obj
 0001:00000ab0       ?FindStringResourceInstance@?$StrTraitMFC@DV?$ChTraitsCRT@D@ATL@@@@SAPAUHINSTANCE__@@I@Z 00401ab0 f i CoreServer.obj
 0001:00000ac0       ?GetDefaultManager@?$StrTraitMFC@DV?$ChTraitsCRT@D@ATL@@@@SAPAUIAtlStringMgr@ATL@@XZ 00401ac0 f i CoreServer.obj
 0001:00000ad0       ?_Myptr@?$basic_string@DU?$char_traits@D@std@@V?$allocator@D@2@@std@@QBEPBDXZ 00401ad0 f i CoreServer.obj
 0001:00000ae0       ??0?$allocator@D@std@@QAE@ABV01@@Z 00401ae0 f i CoreServer.obj
 0001:00000af0       ?Attach@?$CSimpleStringT@D$0A@@ATL@@AAEXPAUCStringData@2@@Z 00401af0 f i CoreServer.obj
 0001:00000b00       ?GetBaseTypeLength@?$ChTraitsCRT@D@ATL@@SAHPBGH@Z 00401b00 f i CoreServer.obj
 0001:00000b30       ?ConvertToBaseType@?$ChTraitsCRT@D@ATL@@SAXPADHPBGH@Z 00401b30 f i CoreServer.obj
 0001:00000b60       ?_Myptr@?$basic_string@DU?$char_traits@D@std@@V?$allocator@D@2@@std@@QAEPADXZ 00401b60 f i CoreServer.obj
 0001:00000b70       ?deallocate@?$allocator@D@std@@QAEXPADI@Z 00401b70 f i CoreServer.obj
 0001:00000b80       ?CopyChars@?$CSimpleStringT@D$0A@@ATL@@SAXPADPBDH@Z 00401b80 f i CoreServer.obj
 0001:00000ba0       ?CopyCharsOverlapped@?$CSimpleStringT@D$0A@@ATL@@SAXPADPBDH@Z 00401ba0 f i CoreServer.obj
 0001:00000bb0       ?ThrowMemoryException@?$CSimpleStringT@D$0A@@ATL@@KAXXZ 00401bb0 f i CoreServer.obj
 0001:00000bc0       ?Fork@?$CSimpleStringT@D$0A@@ATL@@AAEXH@Z 00401bc0 f i CoreServer.obj
 0001:00000c40       ?Reallocate@?$CSimpleStringT@D$0A@@ATL@@AAEXH@Z 00401c40 f i CoreServer.obj
 0001:00000c70       ?_Inside@?$basic_string@DU?$char_traits@D@std@@V?$allocator@D@2@@std@@IAE_NPBD@Z 00401c70 f i CoreServer.obj
 0001:00000cb0       ??0?$allocator@D@std@@QAE@XZ 00401cb0 f i CoreServer.obj
 0001:00000cc0       ?max_size@?$allocator@D@std@@QBEIXZ 00401cc0 f i CoreServer.obj
 0001:00000cd0       ??$_Allocate@D@std@@YAPADIPAD@Z 00401cd0 f i CoreServer.obj
 0001:00000ce0       ??0CJurisdiction@@QAE@XZ   00401ce0 f i CoreServer.obj
 0001:00000d20       ??_GCJurisdiction@@UAEPAXI@Z 00401d20 f i CoreServer.obj
 0001:00000d20       ??_ECJurisdiction@@UAEPAXI@Z 00401d20 f i CoreServer.obj
 0001:00000d40       ?GetTickCount@CTime@ATL@@SG?AV12@XZ 00401d40 f i CoreServer.obj
 0001:00000d60       ?OnTimer@@YAXG@Z           00401d60 f   CoreServer.obj
 0001:00001180       ?Compare@?$CStringT@DV?$StrTraitMFC@DV?$ChTraitsCRT@D@ATL@@@@@ATL@@QBEHPBD@Z 00402180 f i CoreServer.obj
 0001:000011a0       ?_Key@?$_Tree@V?$_Tmap_traits@KPAVCServerDesc@@U?$less@K@std@@V?$allocator@U?$pair@$$CBKPAVCServerDesc@@@std@@@3@$0A@@std@@@std@@KAABKPAU_Node@?$_Tree_nod@V?$_Tmap_traits@KPAVCServerDesc@@U?$less@K@std@@V?$allocator@U?$pair@$$CBKPAVCServerDesc@@@std@@@3@$0A@@std@@@2@@Z 004021a0 f i CoreServer.obj
 0001:000011b0       ?_Root@?$_Tree@V?$_Tmap_traits@KPAVCServerDesc@@U?$less@K@std@@V?$allocator@U?$pair@$$CBKPAVCServerDesc@@@std@@@3@$0A@@std@@@std@@IAEAAPAU_Node@?$_Tree_nod@V?$_Tmap_traits@KPAVCServerDesc@@U?$less@K@std@@V?$allocator@U?$pair@$$CBKPAVCServerDesc@@@std@@@3@$0A@@std@@@2@XZ 004021b0 f i CoreServer.obj
 0001:000011c0       ??0iterator@?$_Tree@V?$_Tmap_traits@KPAVCServerDesc@@U?$less@K@std@@V?$allocator@U?$pair@$$CBKPAVCServerDesc@@@std@@@3@$0A@@std@@@std@@QAE@PAU_Node@?$_Tree_nod@V?$_Tmap_traits@KPAVCServerDesc@@U?$less@K@std@@V?$allocator@U?$pair@$$CBKPAVCServerDesc@@@std@@@3@$0A@@std@@@2@@Z 004021c0 f i CoreServer.obj
 0001:000011d0       ?max_size@?$_Tree@V?$_Tmap_traits@KPAVCServerDesc@@U?$less@K@std@@V?$allocator@U?$pair@$$CBKPAVCServerDesc@@@std@@@3@$0A@@std@@@std@@QBEIXZ 004021d0 f i CoreServer.obj
 0001:000011e0       ?_Lrotate@?$_Tree@V?$_Tmap_traits@KPAVCServerDesc@@U?$less@K@std@@V?$allocator@U?$pair@$$CBKPAVCServerDesc@@@std@@@3@$0A@@std@@@std@@IAEXPAU_Node@?$_Tree_nod@V?$_Tmap_traits@KPAVCServerDesc@@U?$less@K@std@@V?$allocator@U?$pair@$$CBKPAVCServerDesc@@@std@@@3@$0A@@std@@@2@@Z 004021e0 f i CoreServer.obj
 0001:00001240       ?_Rrotate@?$_Tree@V?$_Tmap_traits@KPAVCServerDesc@@U?$less@K@std@@V?$allocator@U?$pair@$$CBKPAVCServerDesc@@@std@@@3@$0A@@std@@@std@@IAEXPAU_Node@?$_Tree_nod@V?$_Tmap_traits@KPAVCServerDesc@@U?$less@K@std@@V?$allocator@U?$pair@$$CBKPAVCServerDesc@@@std@@@3@$0A@@std@@@2@@Z 00402240 f i CoreServer.obj
 0001:000012a0       ??0iterator@?$list@PAVCJurisdiction@@V?$allocator@PAVCJurisdiction@@@std@@@std@@QAE@PAU_Node@?$_List_nod@PAVCJurisdiction@@V?$allocator@PAVCJurisdiction@@@std@@@2@@Z 004022a0 f i CoreServer.obj
 0001:000012b0       ??Eiterator@?$list@PAXV?$allocator@PAX@std@@@std@@QAEAAV012@XZ 004022b0 f i CoreServer.obj
 0001:000012c0       ??9const_iterator@?$list@PAXV?$allocator@PAX@std@@@std@@QBE_NABV012@@Z 004022c0 f i CoreServer.obj
 0001:000012e0       ?destroy@?$allocator@U_Node@?$_List_nod@PAXV?$allocator@PAX@std@@@std@@@std@@QAEXPAU_Node@?$_List_nod@PAXV?$allocator@PAX@std@@@2@@Z 004022e0 f i CoreServer.obj
 0001:000012f0       ?destroy@?$allocator@PAU_Node@?$_List_nod@PAXV?$allocator@PAX@std@@@std@@@std@@QAEXPAPAU_Node@?$_List_nod@PAXV?$allocator@PAX@std@@@2@@Z 004022f0 f i CoreServer.obj
 0001:00001300       ?max_size@?$list@PAVCJurisdiction@@V?$allocator@PAVCJurisdiction@@@std@@@std@@QBEIXZ 00402300 f i CoreServer.obj
 0001:00001310       ?allocate@?$allocator@U_Node@?$_List_nod@PAVCJurisdiction@@V?$allocator@PAVCJurisdiction@@@std@@@std@@@std@@QAEPAU_Node@?$_List_nod@PAVCJurisdiction@@V?$allocator@PAVCJurisdiction@@@std@@@2@I@Z 00402310 f i CoreServer.obj
 0001:00001330       ?allocate@?$allocator@U_Node@?$_Tree_nod@V?$_Tmap_traits@KPAVCServerDesc@@U?$less@K@std@@V?$allocator@U?$pair@$$CBKPAVCServerDesc@@@std@@@3@$0A@@std@@@std@@@std@@QAEPAU_Node@?$_Tree_nod@V?$_Tmap_traits@KPAVCServerDesc@@U?$less@K@std@@V?$allocator@U?$pair@$$CBKPAVCServerDesc@@@std@@@3@$0A@@std@@@2@I@Z 00402330 f i CoreServer.obj
 0001:00001350       ?_Dec@const_iterator@?$_Tree@V?$_Tmap_traits@KPAVCServerDesc@@U?$less@K@std@@V?$allocator@U?$pair@$$CBKPAVCServerDesc@@@std@@@3@$0A@@std@@@std@@QAEXXZ 00402350 f i CoreServer.obj
 0001:000013b0       ??0iterator@?$list@PAXV?$allocator@PAX@std@@@std@@QAE@PAU_Node@?$_List_nod@PAXV?$allocator@PAX@std@@@2@@Z 004023b0 f i CoreServer.obj
 0001:000013c0       ??Dconst_iterator@?$list@PAXV?$allocator@PAX@std@@@std@@QBEABQAXXZ 004023c0 f i CoreServer.obj
 0001:000013d0       ?GetLength@?$CSimpleStringT@D$0A@@ATL@@QBEHXZ 004023d0 f i CoreServer.obj
 0001:000013e0       ??0?$CSimpleStringT@D$0A@@ATL@@QAE@PAUIAtlStringMgr@1@@Z 004023e0 f i CoreServer.obj
 0001:00001400       ??1?$CSimpleStringT@D$0A@@ATL@@QAE@XZ 00402400 f i CoreServer.obj
 0001:00001420       ?ReleaseBufferSetLength@?$CSimpleStringT@D$0A@@ATL@@QAEXH@Z 00402420 f i CoreServer.obj
 0001:00001450       ??0?$_String_val@DV?$allocator@D@std@@@std@@IAE@V?$allocator@D@1@@Z 00402450 f i CoreServer.obj
 0001:00001460       ?Empty@?$CSimpleStringT@D$0A@@ATL@@QAEXXZ 00402460 f i CoreServer.obj
 0001:000014d0       ?PrepareWrite2@?$CSimpleStringT@D$0A@@ATL@@AAEXH@Z 004024d0 f i CoreServer.obj
 0001:00001520       ?_Eos@?$basic_string@DU?$char_traits@D@std@@V?$allocator@D@2@@std@@IAEXI@Z 00402520 f i CoreServer.obj
 0001:00001540       ?max_size@?$basic_string@DU?$char_traits@D@std@@V?$allocator@D@2@@std@@QBEIXZ 00402540 f i CoreServer.obj
 0001:00001550       ?allocate@?$allocator@D@std@@QAEPADI@Z 00402550 f i CoreServer.obj
 0001:00001560       ?WndProc@@YGJPAUHWND__@@IIJ@Z 00402560 f   CoreServer.obj
 0001:000016c0       ??8ATL@@YA_NABV?$CStringT@DV?$StrTraitMFC@DV?$ChTraitsCRT@D@ATL@@@@@0@PBD@Z 004026c0 f i CoreServer.obj
 0001:000016e0       ?begin@?$_Tree@V?$_Tmap_traits@KPAVCServerDesc@@U?$less@K@std@@V?$allocator@U?$pair@$$CBKPAVCServerDesc@@@std@@@3@$0A@@std@@@std@@QAE?AViterator@12@XZ 004026e0 f i CoreServer.obj
 0001:000016f0       ?end@?$list@PAVCJurisdiction@@V?$allocator@PAVCJurisdiction@@@std@@@std@@QAE?AViterator@12@XZ 004026f0 f i CoreServer.obj
 0001:00001700       ?begin@?$list@PAXV?$allocator@PAX@std@@@std@@QAE?AViterator@12@XZ 00402700 f i CoreServer.obj
 0001:00001710       ?end@?$list@PAXV?$allocator@PAX@std@@@std@@QAE?AViterator@12@XZ 00402710 f i CoreServer.obj
 0001:00001720       ?clear@?$list@PAXV?$allocator@PAX@std@@@std@@QAEXXZ 00402720 f i CoreServer.obj
 0001:00001760       ?_Tidy@?$list@PAXV?$allocator@PAX@std@@@std@@IAEXXZ 00402760 f i CoreServer.obj
 0001:00001780       ?_Buynode@?$list@PAVCJurisdiction@@V?$allocator@PAVCJurisdiction@@@std@@@std@@IAEPAU_Node@?$_List_nod@PAVCJurisdiction@@V?$allocator@PAVCJurisdiction@@@std@@@2@PAU342@0ABQAVCJurisdiction@@@Z 00402780 f i CoreServer.obj
 0001:000017b0       ?_Buynode@?$_Tree@V?$_Tmap_traits@KPAVCServerDesc@@U?$less@K@std@@V?$allocator@U?$pair@$$CBKPAVCServerDesc@@@std@@@3@$0A@@std@@@std@@IAEPAU_Node@?$_Tree_nod@V?$_Tmap_traits@KPAVCServerDesc@@U?$less@K@std@@V?$allocator@U?$pair@$$CBKPAVCServerDesc@@@std@@@3@$0A@@std@@@2@PAU342@00ABU?$pair@$$CBKPAVCServerDesc@@@2@D@Z 004027b0 f i CoreServer.obj
 0001:000017f0       ??Fconst_iterator@?$_Tree@V?$_Tmap_traits@KPAVCServerDesc@@U?$less@K@std@@V?$allocator@U?$pair@$$CBKPAVCServerDesc@@@std@@@3@$0A@@std@@@std@@QAEAAV012@XZ 004027f0 f i CoreServer.obj
 0001:00001800       ??Diterator@?$list@PAXV?$allocator@PAX@std@@@std@@QBEAAPAXXZ 00402800 f i CoreServer.obj
 0001:00001810       ??1?$CStringT@DV?$StrTraitMFC@DV?$ChTraitsCRT@D@ATL@@@@@ATL@@QAE@XZ 00402810 f i CoreServer.obj
 0001:00001830       ?PrepareWrite@?$CSimpleStringT@D$0A@@ATL@@AAEPADH@Z 00402830 f i CoreServer.obj
 0001:00001860       ?_Tidy@?$basic_string@DU?$char_traits@D@std@@V?$allocator@D@2@@std@@IAEX_NI@Z 00402860 f i CoreServer.obj
 0001:000018c0       ?erase@?$basic_string@DU?$char_traits@D@std@@V?$allocator@D@2@@std@@QAEAAV12@II@Z 004028c0 f i CoreServer.obj
 0001:00001940       ?_Copy@?$basic_string@DU?$char_traits@D@std@@V?$allocator@D@2@@std@@IAEXII@Z 00402940 f i CoreServer.obj
 0001:00001a80       ?MyRegisterClass@@YAGPAUHINSTANCE__@@@Z 00402a80 f   CoreServer.obj
 0001:00001b10       ??1?$list@PAXV?$allocator@PAX@std@@@std@@QAE@XZ 00402b10 f i CoreServer.obj
 0001:00001b30       ?Destroy@?$MemPooler@VCGuildMember@@@@IAEXXZ 00402b30 f i CoreServer.obj
 0001:00001ba0       ?Destroy@?$MemPooler@VCGuild@@@@IAEXXZ 00402ba0 f i CoreServer.obj
 0001:00001c10       ??Fiterator@?$_Tree@V?$_Tmap_traits@KPAVCServerDesc@@U?$less@K@std@@V?$allocator@U?$pair@$$CBKPAVCServerDesc@@@std@@@3@$0A@@std@@@std@@QAEAAV012@XZ 00402c10 f i CoreServer.obj
 0001:00001c20       ?Destroy@?$MemPooler@VCPlayer@@@@IAEXXZ 00402c20 f i CoreServer.obj
 0001:00001c90       ?Destroy@?$MemPooler@VCParty@@@@IAEXXZ 00402c90 f i CoreServer.obj
 0001:00001d00       ?GetBuffer@?$CSimpleStringT@D$0A@@ATL@@QAEPADH@Z 00402d00 f i CoreServer.obj
 0001:00001d30       ??1?$basic_string@DU?$char_traits@D@std@@V?$allocator@D@2@@std@@QAE@XZ 00402d30 f i CoreServer.obj
 0001:00001d60       ?LoadStringA@?$CStringT@DV?$StrTraitMFC@DV?$ChTraitsCRT@D@ATL@@@@@ATL@@QAEHPAUHINSTANCE__@@I@Z 00402d60 f i CoreServer.obj
 0001:00001e30       ?SetString@?$CSimpleStringT@D$0A@@ATL@@QAEXPBDH@Z 00402e30 f i CoreServer.obj
 0001:00001ed0       ?_Grow@?$basic_string@DU?$char_traits@D@std@@V?$allocator@D@2@@std@@IAE_NI_N@Z 00402ed0 f i CoreServer.obj
 0001:00001fa0       ??1?$MemPooler@VCGuildMember@@@@QAE@XZ 00402fa0 f i CoreServer.obj
 0001:00001fd0       ??1?$MemPooler@VCGuild@@@@QAE@XZ 00402fd0 f i CoreServer.obj
 0001:00002000       ??1?$MemPooler@VCPlayer@@@@QAE@XZ 00403000 f i CoreServer.obj
 0001:00002030       ??1?$MemPooler@VCParty@@@@QAE@XZ 00403030 f i CoreServer.obj
 0001:00002060       ??1logic_error@std@@UAE@XZ 00403060 f i CoreServer.obj
 0001:000020a0       ?what@logic_error@std@@UBEPBDXZ 004030a0 f i CoreServer.obj
 0001:000020b0       ??_Elogic_error@std@@UAEPAXI@Z 004030b0 f i CoreServer.obj
 0001:000020b0       ??_Glogic_error@std@@UAEPAXI@Z 004030b0 f i CoreServer.obj
 0001:000020d0       ?LoadStringA@?$CStringT@DV?$StrTraitMFC@DV?$ChTraitsCRT@D@ATL@@@@@ATL@@QAEHI@Z 004030d0 f i CoreServer.obj
 0001:00002100       ?CheckImplicitLoad@?$CStringT@DV?$StrTraitMFC@DV?$ChTraitsCRT@D@ATL@@@@@ATL@@AAE_NPBX@Z 00403100 f i CoreServer.obj
 0001:00002140       ?assign@?$basic_string@DU?$char_traits@D@std@@V?$allocator@D@2@@std@@QAEAAV12@ABV12@II@Z 00403140 f i CoreServer.obj
 0001:00002230       ?SetString@?$CSimpleStringT@D$0A@@ATL@@QAEXPBD@Z 00403230 f i CoreServer.obj
 0001:00002270       ?assign@?$basic_string@DU?$char_traits@D@std@@V?$allocator@D@2@@std@@QAEAAV12@PBDI@Z 00403270 f i CoreServer.obj
 0001:00002360       ??_G?$MemPooler@VCParty@@@@QAEPAXI@Z 00403360 f i CoreServer.obj
 0001:00002380       ??_G?$MemPooler@VCPlayer@@@@QAEPAXI@Z 00403380 f i CoreServer.obj
 0001:000023a0       ??_G?$MemPooler@VCGuildMember@@@@QAEPAXI@Z 004033a0 f i CoreServer.obj
 0001:000023c0       ??_G?$MemPooler@VCGuild@@@@QAEPAXI@Z 004033c0 f i CoreServer.obj
 0001:000023e0       ??0?$basic_string@DU?$char_traits@D@std@@V?$allocator@D@2@@std@@QAE@ABV01@@Z 004033e0 f i CoreServer.obj
 0001:00002410       ??4?$CSimpleStringT@D$0A@@ATL@@QAEAAV01@PBD@Z 00403410 f i CoreServer.obj
 0001:00002450       ?assign@?$basic_string@DU?$char_traits@D@std@@V?$allocator@D@2@@std@@QAEAAV12@PBD@Z 00403450 f i CoreServer.obj
 0001:00002480       ??0?$basic_string@DU?$char_traits@D@std@@V?$allocator@D@2@@std@@QAE@PBD@Z 00403480 f i CoreServer.obj
 0001:000024c0       ?ExitInstance@@YAXXZ       004034c0 f   CoreServer.obj
 0001:000025c0       ??0logic_error@std@@QAE@ABV?$basic_string@DU?$char_traits@D@std@@V?$allocator@D@2@@1@@Z 004035c0 f i CoreServer.obj
 0001:00002620       ??0length_error@std@@QAE@ABV?$basic_string@DU?$char_traits@D@std@@V?$allocator@D@2@@1@@Z 00403620 f i CoreServer.obj
 0001:00002640       ??_Glength_error@std@@UAEPAXI@Z 00403640 f i CoreServer.obj
 0001:00002640       ??_Elength_error@std@@UAEPAXI@Z 00403640 f i CoreServer.obj
 0001:00002660       ??1length_error@std@@UAE@XZ 00403660 f i CoreServer.obj
 0001:000026a0       ??4?$CStringT@DV?$StrTraitMFC@DV?$ChTraitsCRT@D@ATL@@@@@ATL@@QAEAAV01@PBD@Z 004036a0 f i CoreServer.obj
 0001:000026e0       ?_Insert@?$_Tree@V?$_Tmap_traits@KPAVCServerDesc@@U?$less@K@std@@V?$allocator@U?$pair@$$CBKPAVCServerDesc@@@std@@@3@$0A@@std@@@std@@IAE?AViterator@12@_NPAU_Node@?$_Tree_nod@V?$_Tmap_traits@KPAVCServerDesc@@U?$less@K@std@@V?$allocator@U?$pair@$$CBKPAVCServerDesc@@@std@@@3@$0A@@std@@@2@ABU?$pair@$$CBKPAVCServerDesc@@@2@@Z 004036e0 f i CoreServer.obj
 0001:00002890       ??0logic_error@std@@QAE@ABV01@@Z 00403890 f i CoreServer.obj
 0001:00002900       ??0length_error@std@@QAE@ABV01@@Z 00403900 f i CoreServer.obj
 0001:00002920       ?_Incsize@?$list@PAVCJurisdiction@@V?$allocator@PAVCJurisdiction@@@std@@@std@@IAEXI@Z 00403920 f i CoreServer.obj
 0001:000029c0       ??0?$CStringT@DV?$StrTraitMFC@DV?$ChTraitsCRT@D@ATL@@@@@ATL@@QAE@PBD@Z 004039c0 f i CoreServer.obj
 0001:00002a70       ?Format@CTime@ATL@@QBE?AV?$CStringT@DV?$StrTraitMFC@DV?$ChTraitsCRT@D@ATL@@@@@2@PBD@Z 00403a70 f i CoreServer.obj
 0001:00002b00       ?insert@?$_Tree@V?$_Tmap_traits@KPAVCServerDesc@@U?$less@K@std@@V?$allocator@U?$pair@$$CBKPAVCServerDesc@@@std@@@3@$0A@@std@@@std@@QAE?AU?$pair@Viterator@?$_Tree@V?$_Tmap_traits@KPAVCServerDesc@@U?$less@K@std@@V?$allocator@U?$pair@$$CBKPAVCServerDesc@@@std@@@3@$0A@@std@@@std@@_N@2@ABU?$pair@$$CBKPAVCServerDesc@@@2@@Z 00403b00 f i CoreServer.obj
 0001:00002bc0       ?_Insert@?$list@PAVCJurisdiction@@V?$allocator@PAVCJurisdiction@@@std@@@std@@QAEXViterator@12@ABQAVCJurisdiction@@@Z 00403bc0 f i CoreServer.obj
 0001:00002c00       ?push_back@?$list@PAVCJurisdiction@@V?$allocator@PAVCJurisdiction@@@std@@@std@@QAEXABQAVCJurisdiction@@@Z 00403c00 f i CoreServer.obj
 0001:00002c40       ?Script@@YAHPBD@Z          00403c40 f   CoreServer.obj
 0001:00003000       ?InitInstance@@YAHPAUHINSTANCE__@@H@Z 00404000 f   CoreServer.obj
 0001:00003280       _WinMain@16                00404280 f   CoreServer.obj
 0001:00003340       ?IsStoring@CAr@@QBEHXZ     00404340 f i DPCacheSrvr.obj
 0001:00003350       ??6CAr@@QAEAAV0@E@Z        00404350 f i DPCacheSrvr.obj
 0001:00003370       ??6CAr@@QAEAAV0@G@Z        00404370 f i DPCacheSrvr.obj
 0001:00003390       ??6CAr@@QAEAAV0@J@Z        00404390 f i DPCacheSrvr.obj
 0001:000033b0       ??6CAr@@QAEAAV0@M@Z        004043b0 f i DPCacheSrvr.obj
 0001:000033d0       ??5CAr@@QAEAAV0@AAE@Z      004043d0 f i DPCacheSrvr.obj
 0001:00003400       ??5CAr@@QAEAAV0@AAK@Z      00404400 f i DPCacheSrvr.obj
 0001:00003440       ??5CAr@@QAEAAV0@AAJ@Z      00404440 f i DPCacheSrvr.obj
 0001:00003480       ??6@YAAAVCAr@@AAV0@UD3DXVECTOR3@@@Z 00404480 f i DPCacheSrvr.obj
 0001:000034a0       ?GetState@CRTMessenger@@QAEKXZ 004044a0 f i DPCacheSrvr.obj
 0001:000034b0       ?SetState@CRTMessenger@@QAEXK@Z 004044b0 f i DPCacheSrvr.obj
 0001:000034c0       ?IsCompleted@CGuildVote@@QBE_NXZ 004044c0 f i DPCacheSrvr.obj
 0001:000034d0       ?SetComplete@CGuildVote@@QAEXXZ 004044d0 f i DPCacheSrvr.obj
 0001:000034e0       ?GetVoteSelect@CGuildVote@@QAEAAUGUILD_VOTE_SELECT@@H@Z 004044e0 f i DPCacheSrvr.obj
 0001:00003500       ??0_GUILD_MEMBER_INFO@@QAE@XZ 00404500 f i DPCacheSrvr.obj
 0001:00003510       ?IsMember@CGuild@@QAEHK@Z  00404510 f i DPCacheSrvr.obj
 0001:00003530       ?IsMaster@CGuild@@QAEHK@Z  00404530 f i DPCacheSrvr.obj
 0001:00003550       ?IsCmdCap@CGuild@@QAEHHK@Z 00404550 f i DPCacheSrvr.obj
 0001:00003570       ??0CTimeSpan@ATL@@QAE@JHHH@Z 00404570 f i DPCacheSrvr.obj
 0001:000035d0       ?GetTimeSpan@CTimeSpan@ATL@@QBE_JXZ 004045d0 f i DPCacheSrvr.obj
 0001:000035e0       ??YCTime@ATL@@QAEAAV01@VCTimeSpan@1@@Z 004045e0 f i DPCacheSrvr.obj
 0001:00003600       ?IsMember@CParty@@QAEHK@Z  00404600 f i DPCacheSrvr.obj
 0001:00003620       ?IsLeader@CParty@@QAEHK@Z  00404620 f i DPCacheSrvr.obj
 0001:00003640       ?GetSizeofMember@CParty@@QAEHXZ 00404640 f i DPCacheSrvr.obj
 0001:00003650       ?GetLevel@CParty@@QAEHXZ   00404650 f i DPCacheSrvr.obj
 0001:00003660       ?GetPlayerId@CParty@@QAEKH@Z 00404660 f i DPCacheSrvr.obj
 0001:00003670       ?IsDecl@CGuildWar@@QAEHK@Z 00404670 f i DPCacheSrvr.obj
 0001:00003690       ?SendGMSay@CDPCacheSrvr@@QAEXPBD00PAVCPlayer@@@Z 00404690 f   DPCacheSrvr.obj
 0001:000037d0       ?SendFriendJoin@CDPCacheSrvr@@QAEXPAVCPlayer@@0@Z 004047d0 f   DPCacheSrvr.obj
 0001:00003930       ?SendFriendLogOut@CDPCacheSrvr@@QAEXPAVCPlayer@@K@Z 00404930 f   DPCacheSrvr.obj
 0001:00003a50       ?SendFriendIntercept@CDPCacheSrvr@@QAEXPAVCPlayer@@0@Z 00404a50 f   DPCacheSrvr.obj
 0001:00003c90       ?SendFriendIntercept@CDPCacheSrvr@@QAEXPAVCPlayer@@K@Z 00404c90 f   DPCacheSrvr.obj
 0001:00003dd0       ?SendOneFriendState@CDPCacheSrvr@@QAEXPAVCPlayer@@KK@Z 00404dd0 f   DPCacheSrvr.obj
 0001:00003f00       ?SendModifyMode@CDPCacheSrvr@@QAEXKEKPAVCPlayer@@@Z 00404f00 f   DPCacheSrvr.obj
 0001:00004060       ?SendTeleportPlayer@CDPCacheSrvr@@QAEXKPAVCPlayer@@@Z 00405060 f   DPCacheSrvr.obj
 0001:00004180       ?SendKillPlayer@CDPCacheSrvr@@QAEXPAVCPlayer@@@Z 00405180 f   DPCacheSrvr.obj
 0001:000041a0       ?SendGetPlayerAddr@CDPCacheSrvr@@QAEXPBD0PAVCPlayer@@@Z 004051a0 f   DPCacheSrvr.obj
 0001:000042c0       ?SendGetPlayerCount@CDPCacheSrvr@@QAEXGPAVCPlayer@@@Z 004052c0 f   DPCacheSrvr.obj
 0001:000043e0       ?SendGetCorePlayer@CDPCacheSrvr@@QAEXPAVCPlayer@@@Z 004053e0 f   DPCacheSrvr.obj
 0001:000044e0       ?SendTagResult@CDPCacheSrvr@@QAEXPAVCPlayer@@E@Z 004054e0 f   DPCacheSrvr.obj
 0001:00004600       ?SendGuild@CDPCacheSrvr@@QAEXPAVCGuild@@PAVCPlayer@@@Z 00405600 f   DPCacheSrvr.obj
 0001:00004730       ?SendAddGuildMember@CDPCacheSrvr@@QAEXABU_GUILD_MEMBER_INFO@@PBDKPAVCPlayer@@@Z 00405730 f   DPCacheSrvr.obj
 0001:00004880       ?SendRemoveGuildMember@CDPCacheSrvr@@QAEXKKPAVCPlayer@@@Z 00405880 f   DPCacheSrvr.obj
 0001:000049c0       ?SendGuildNickName@CDPCacheSrvr@@QAEXKPBDPAVCPlayer@@@Z 004059c0 f   DPCacheSrvr.obj
 0001:00004af0       ?SendChgMaster@CDPCacheSrvr@@QAEXKKPAVCPlayer@@@Z 00405af0 f   DPCacheSrvr.obj
 0001:00004c20       ?SendGuildChat@CDPCacheSrvr@@QAEXPBD0PAVCPlayer@@K@Z 00405c20 f   DPCacheSrvr.obj
 0001:00004d60       ?SendGuildMemberLogin@CDPCacheSrvr@@QAEXPAVCPlayer@@EKK@Z 00405d60 f   DPCacheSrvr.obj
 0001:00004ec0       ?SendErrorParty@CDPCacheSrvr@@QAEXKPAVCPlayer@@@Z 00405ec0 f   DPCacheSrvr.obj
 0001:00004fe0       ?SendAddFriend@CDPCacheSrvr@@QAEXKKJEPADPAVCPlayer@@@Z 00405fe0 f   DPCacheSrvr.obj
 0001:00005170       ?SendAddFriendNotFound@CDPCacheSrvr@@QAEXPADPAVCPlayer@@@Z 00406170 f   DPCacheSrvr.obj
 0001:00005280       ?SendBlock@CDPCacheSrvr@@QAEXEPADPAVCPlayer@@@Z 00406280 f   DPCacheSrvr.obj
 0001:000053b0       ??_GCGuildWar@@QAEPAXI@Z   004063b0 f i DPCacheSrvr.obj
 0001:000053d0       ?SendDeclWar@CDPCacheSrvr@@AAEXKPBDPAVCPlayer@@@Z 004063d0 f   DPCacheSrvr.obj
 0001:00005500       ?SendQueryTruce@CDPCacheSrvr@@QAEXPAVCPlayer@@@Z 00406500 f   DPCacheSrvr.obj
 0001:000055f0       ?SendBuyingInfo@CDPCacheSrvr@@QAEXPAU_BUYING_INFO2@@PAVCPlayer@@@Z 004065f0 f   DPCacheSrvr.obj
 0001:00005700       ?SendSnoop@CDPCacheSrvr@@QAEXPBDPAVCPlayer@@@Z 00406700 f   DPCacheSrvr.obj
 0001:00005810       ?SendUpdatePlayerData@CDPCacheSrvr@@QAEXKPAU_PlayerData@@PAVCPlayer@@@Z 00406810 f   DPCacheSrvr.obj
 0001:00005940       ?SendLogout@CDPCacheSrvr@@QAEXKPAVCPlayer@@@Z 00406940 f   DPCacheSrvr.obj
 0001:00005a60       ?size@?$_Tree@V?$_Tmap_traits@KPAVCServerDesc@@U?$less@K@std@@V?$allocator@U?$pair@$$CBKPAVCServerDesc@@@std@@@3@$0A@@std@@@std@@QBEIXZ 00406a60 f i DPCacheSrvr.obj
 0001:00005a70       ?size@?$_Tree@V?$_Tmap_traits@KU_Friend@@U?$less@K@std@@V?$allocator@U?$pair@$$CBKU_Friend@@@std@@@3@$0A@@std@@@std@@QBEIXZ 00406a70 f i DPCacheSrvr.obj
 0001:00005a80       ?size@?$vector@KV?$allocator@K@std@@@std@@QBEIXZ 00406a80 f i DPCacheSrvr.obj
 0001:00005aa0       ?Free@?$MemPooler@VCGuildMember@@@@QAEHPAVCGuildMember@@@Z 00406aa0 f i DPCacheSrvr.obj
 0001:00005af0       ?size@?$_Tree@V?$_Tmap_traits@KPAVCGuildMember@@U?$less@K@std@@V?$allocator@U?$pair@$$CBKPAVCGuildMember@@@std@@@3@$0A@@std@@@std@@QBEIXZ 00406af0 f i DPCacheSrvr.obj
 0001:00005b00       ??0?$pair@$$CBKP8CDPCacheSrvr@@AEXAAVCAr@@KKK@Z@std@@QAE@ABKABQ8CDPCacheSrvr@@AEXAAVCAr@@KKK@Z@Z 00406b00 f i DPCacheSrvr.obj
 0001:00005b20       ??0?$allocator@K@std@@QAE@XZ 00406b20 f i DPCacheSrvr.obj
 0001:00005b30       ??8const_iterator@?$_Tree@V?$_Tmap_traits@KU_Friend@@U?$less@K@std@@V?$allocator@U?$pair@$$CBKU_Friend@@@std@@@3@$0A@@std@@@std@@QBE_NABV012@@Z 00406b30 f i DPCacheSrvr.obj
 0001:00005b40       ?capacity@?$vector@KV?$allocator@K@std@@@std@@QBEIXZ 00406b40 f i DPCacheSrvr.obj
 0001:00005b60       ?_Isnil@?$_Tree@V?$_Tmap_traits@KP8CDPCacheSrvr@@AEXAAVCAr@@KKK@ZU?$less@K@std@@V?$allocator@U?$pair@$$CBKP8CDPCacheSrvr@@AEXAAVCAr@@KKK@Z@std@@@4@$0A@@std@@@std@@KAAADPAU_Node@?$_Tree_nod@V?$_Tmap_traits@KP8CDPCacheSrvr@@AEXAAVCAr@@KKK@ZU?$less@K@std@@V?$allocator@U?$pair@$$CBKP8CDPCacheSrvr@@AEXAAVCAr@@KKK@Z@std@@@4@$0A@@std@@@2@@Z 00406b60 f i DPCacheSrvr.obj
 0001:00005b70       ?_Left@?$_Tree@V?$_Tmap_traits@KP8CDPCacheSrvr@@AEXAAVCAr@@KKK@ZU?$less@K@std@@V?$allocator@U?$pair@$$CBKP8CDPCacheSrvr@@AEXAAVCAr@@KKK@Z@std@@@4@$0A@@std@@@std@@KAAAPAU_Node@?$_Tree_nod@V?$_Tmap_traits@KP8CDPCacheSrvr@@AEXAAVCAr@@KKK@ZU?$less@K@std@@V?$allocator@U?$pair@$$CBKP8CDPCacheSrvr@@AEXAAVCAr@@KKK@Z@std@@@4@$0A@@std@@@2@PAU342@@Z 00406b70 f i DPCacheSrvr.obj
 0001:00005b80       ?_Right@?$_Tree@V?$_Tmap_traits@KP8CDPCacheSrvr@@AEXAAVCAr@@KKK@ZU?$less@K@std@@V?$allocator@U?$pair@$$CBKP8CDPCacheSrvr@@AEXAAVCAr@@KKK@Z@std@@@4@$0A@@std@@@std@@KAAAPAU_Node@?$_Tree_nod@V?$_Tmap_traits@KP8CDPCacheSrvr@@AEXAAVCAr@@KKK@ZU?$less@K@std@@V?$allocator@U?$pair@$$CBKP8CDPCacheSrvr@@AEXAAVCAr@@KKK@Z@std@@@4@$0A@@std@@@2@PAU342@@Z 00406b80 f i DPCacheSrvr.obj
 0001:00005b90       ?_Kfn@?$_Tmap_traits@KP8CDPCacheSrvr@@AEXAAVCAr@@KKK@ZU?$less@K@std@@V?$allocator@U?$pair@$$CBKP8CDPCacheSrvr@@AEXAAVCAr@@KKK@Z@std@@@4@$0A@@std@@SAABKABU?$pair@$$CBKP8CDPCacheSrvr@@AEXAAVCAr@@KKK@Z@2@@Z 00406b90 f i DPCacheSrvr.obj
 0001:00005ba0       ??0?$allocator@U?$pair@$$CBKP8CDPCacheSrvr@@AEXAAVCAr@@KKK@Z@std@@@std@@QAE@XZ 00406ba0 f i DPCacheSrvr.obj
 0001:00005bb0       ??8const_iterator@?$_Tree@V?$_Tmap_traits@KP8CDPCacheSrvr@@AEXAAVCAr@@KKK@ZU?$less@K@std@@V?$allocator@U?$pair@$$CBKP8CDPCacheSrvr@@AEXAAVCAr@@KKK@Z@std@@@4@$0A@@std@@@std@@QBE_NABV012@@Z 00406bb0 f i DPCacheSrvr.obj
 0001:00005bc0       ?_Mynode@const_iterator@?$_Tree@V?$_Tmap_traits@KP8CDPCacheSrvr@@AEXAAVCAr@@KKK@ZU?$less@K@std@@V?$allocator@U?$pair@$$CBKP8CDPCacheSrvr@@AEXAAVCAr@@KKK@Z@std@@@4@$0A@@std@@@std@@QBEPAU_Node@?$_Tree_nod@V?$_Tmap_traits@KP8CDPCacheSrvr@@AEXAAVCAr@@KKK@ZU?$less@K@std@@V?$allocator@U?$pair@$$CBKP8CDPCacheSrvr@@AEXAAVCAr@@KKK@Z@std@@@4@$0A@@std@@@3@XZ 00406bc0 f i DPCacheSrvr.obj
 0001:00005bd0       ??0?$pair@Viterator@?$_Tree@V?$_Tmap_traits@KP8CDPCacheSrvr@@AEXAAVCAr@@KKK@ZU?$less@K@std@@V?$allocator@U?$pair@$$CBKP8CDPCacheSrvr@@AEXAAVCAr@@KKK@Z@std@@@4@$0A@@std@@@std@@_N@std@@QAE@ABViterator@?$_Tree@V?$_Tmap_traits@KP8CDPCacheSrvr@@AEXAAVCAr@@KKK@ZU?$less@K@std@@V?$allocator@U?$pair@$$CBKP8CDPCacheSrvr@@AEXAAVCAr@@KKK@Z@std@@@4@$0A@@std@@@1@AB_N@Z 00406bd0 f i DPCacheSrvr.obj
 0001:00005bf0       ??8const_iterator@?$_Tree@V?$_Tmap_traits@KPAVCGuildMember@@U?$less@K@std@@V?$allocator@U?$pair@$$CBKPAVCGuildMember@@@std@@@3@$0A@@std@@@std@@QBE_NABV012@@Z 00406bf0 f i DPCacheSrvr.obj
 0001:00005c00       ??0?$allocator@K@std@@QAE@ABV01@@Z 00406c00 f i DPCacheSrvr.obj
 0001:00005c10       ?deallocate@?$allocator@K@std@@QAEXPAKI@Z 00406c10 f i DPCacheSrvr.obj
 0001:00005c20       ?_Left@?$_Tree@V?$_Tmap_traits@KU_Friend@@U?$less@K@std@@V?$allocator@U?$pair@$$CBKU_Friend@@@std@@@3@$0A@@std@@@std@@KAAAPAU_Node@?$_Tree_nod@V?$_Tmap_traits@KU_Friend@@U?$less@K@std@@V?$allocator@U?$pair@$$CBKU_Friend@@@std@@@3@$0A@@std@@@2@PAU342@@Z 00406c20 f i DPCacheSrvr.obj
 0001:00005c30       ??0const_iterator@?$_Tree@V?$_Tmap_traits@KU_Friend@@U?$less@K@std@@V?$allocator@U?$pair@$$CBKU_Friend@@@std@@@3@$0A@@std@@@std@@QAE@PAU_Node@?$_Tree_nod@V?$_Tmap_traits@KU_Friend@@U?$less@K@std@@V?$allocator@U?$pair@$$CBKU_Friend@@@std@@@3@$0A@@std@@@2@@Z 00406c30 f i DPCacheSrvr.obj
 0001:00005c40       ?_Left@?$_Tree@V?$_Tmap_traits@KPAVCGuildMember@@U?$less@K@std@@V?$allocator@U?$pair@$$CBKPAVCGuildMember@@@std@@@3@$0A@@std@@@std@@KAAAPAU_Node@?$_Tree_nod@V?$_Tmap_traits@KPAVCGuildMember@@U?$less@K@std@@V?$allocator@U?$pair@$$CBKPAVCGuildMember@@@std@@@3@$0A@@std@@@2@PAU342@@Z 00406c40 f i DPCacheSrvr.obj
 0001:00005c50       ??Dconst_iterator@?$_Tree@V?$_Tmap_traits@KPAVCServerDesc@@U?$less@K@std@@V?$allocator@U?$pair@$$CBKPAVCServerDesc@@@std@@@3@$0A@@std@@@std@@QBEABU?$pair@$$CBKPAVCServerDesc@@@2@XZ 00406c50 f i DPCacheSrvr.obj
 0001:00005c60       ?_Color@?$_Tree@V?$_Tmap_traits@KP8CDPCacheSrvr@@AEXAAVCAr@@KKK@ZU?$less@K@std@@V?$allocator@U?$pair@$$CBKP8CDPCacheSrvr@@AEXAAVCAr@@KKK@Z@std@@@4@$0A@@std@@@std@@KAAADPAU_Node@?$_Tree_nod@V?$_Tmap_traits@KP8CDPCacheSrvr@@AEXAAVCAr@@KKK@ZU?$less@K@std@@V?$allocator@U?$pair@$$CBKP8CDPCacheSrvr@@AEXAAVCAr@@KKK@Z@std@@@4@$0A@@std@@@2@@Z 00406c60 f i DPCacheSrvr.obj
 0001:00005c70       ?_Parent@?$_Tree@V?$_Tmap_traits@KP8CDPCacheSrvr@@AEXAAVCAr@@KKK@ZU?$less@K@std@@V?$allocator@U?$pair@$$CBKP8CDPCacheSrvr@@AEXAAVCAr@@KKK@Z@std@@@4@$0A@@std@@@std@@KAAAPAU_Node@?$_Tree_nod@V?$_Tmap_traits@KP8CDPCacheSrvr@@AEXAAVCAr@@KKK@ZU?$less@K@std@@V?$allocator@U?$pair@$$CBKP8CDPCacheSrvr@@AEXAAVCAr@@KKK@Z@std@@@4@$0A@@std@@@2@PAU342@@Z 00406c70 f i DPCacheSrvr.obj
 0001:00005c80       ?_Myval@?$_Tree@V?$_Tmap_traits@KP8CDPCacheSrvr@@AEXAAVCAr@@KKK@ZU?$less@K@std@@V?$allocator@U?$pair@$$CBKP8CDPCacheSrvr@@AEXAAVCAr@@KKK@Z@std@@@4@$0A@@std@@@std@@KAAAU?$pair@$$CBKP8CDPCacheSrvr@@AEXAAVCAr@@KKK@Z@2@PAU_Node@?$_Tree_nod@V?$_Tmap_traits@KP8CDPCacheSrvr@@AEXAAVCAr@@KKK@ZU?$less@K@std@@V?$allocator@U?$pair@$$CBKP8CDPCacheSrvr@@AEXAAVCAr@@KKK@Z@std@@@4@$0A@@std@@@2@@Z 00406c80 f i DPCacheSrvr.obj
 0001:00005c90       ?_Lmost@?$_Tree@V?$_Tmap_traits@KP8CDPCacheSrvr@@AEXAAVCAr@@KKK@ZU?$less@K@std@@V?$allocator@U?$pair@$$CBKP8CDPCacheSrvr@@AEXAAVCAr@@KKK@Z@std@@@4@$0A@@std@@@std@@IAEAAPAU_Node@?$_Tree_nod@V?$_Tmap_traits@KP8CDPCacheSrvr@@AEXAAVCAr@@KKK@ZU?$less@K@std@@V?$allocator@U?$pair@$$CBKP8CDPCacheSrvr@@AEXAAVCAr@@KKK@Z@std@@@4@$0A@@std@@@2@XZ 00406c90 f i DPCacheSrvr.obj
 0001:00005ca0       ?_Rmost@?$_Tree@V?$_Tmap_traits@KP8CDPCacheSrvr@@AEXAAVCAr@@KKK@ZU?$less@K@std@@V?$allocator@U?$pair@$$CBKP8CDPCacheSrvr@@AEXAAVCAr@@KKK@Z@std@@@4@$0A@@std@@@std@@IAEAAPAU_Node@?$_Tree_nod@V?$_Tmap_traits@KP8CDPCacheSrvr@@AEXAAVCAr@@KKK@ZU?$less@K@std@@V?$allocator@U?$pair@$$CBKP8CDPCacheSrvr@@AEXAAVCAr@@KKK@Z@std@@@4@$0A@@std@@@2@XZ 00406ca0 f i DPCacheSrvr.obj
 0001:00005cb0       ??0?$allocator@U?$pair@$$CBKP8CDPCacheSrvr@@AEXAAVCAr@@KKK@Z@std@@@std@@QAE@ABV01@@Z 00406cb0 f i DPCacheSrvr.obj
 0001:00005cc0       ?deallocate@?$allocator@U_Node@?$_Tree_nod@V?$_Tmap_traits@KP8CDPCacheSrvr@@AEXAAVCAr@@KKK@ZU?$less@K@std@@V?$allocator@U?$pair@$$CBKP8CDPCacheSrvr@@AEXAAVCAr@@KKK@Z@std@@@4@$0A@@std@@@std@@@std@@QAEXPAU_Node@?$_Tree_nod@V?$_Tmap_traits@KP8CDPCacheSrvr@@AEXAAVCAr@@KKK@ZU?$less@K@std@@V?$allocator@U?$pair@$$CBKP8CDPCacheSrvr@@AEXAAVCAr@@KKK@Z@std@@@4@$0A@@std@@@2@I@Z 00406cc0 f i DPCacheSrvr.obj
 0001:00005cd0       ??0const_iterator@?$_Tree@V?$_Tmap_traits@KP8CDPCacheSrvr@@AEXAAVCAr@@KKK@ZU?$less@K@std@@V?$allocator@U?$pair@$$CBKP8CDPCacheSrvr@@AEXAAVCAr@@KKK@Z@std@@@4@$0A@@std@@@std@@QAE@PAU_Node@?$_Tree_nod@V?$_Tmap_traits@KP8CDPCacheSrvr@@AEXAAVCAr@@KKK@ZU?$less@K@std@@V?$allocator@U?$pair@$$CBKP8CDPCacheSrvr@@AEXAAVCAr@@KKK@Z@std@@@4@$0A@@std@@@2@@Z 00406cd0 f i DPCacheSrvr.obj
 0001:00005ce0       ??Dconst_iterator@?$_Tree@V?$_Tmap_traits@KP8CDPCacheSrvr@@AEXAAVCAr@@KKK@ZU?$less@K@std@@V?$allocator@U?$pair@$$CBKP8CDPCacheSrvr@@AEXAAVCAr@@KKK@Z@std@@@4@$0A@@std@@@std@@QBEABU?$pair@$$CBKP8CDPCacheSrvr@@AEXAAVCAr@@KKK@Z@2@XZ 00406ce0 f i DPCacheSrvr.obj
 0001:00005cf0       ??0const_iterator@?$_Tree@V?$_Tmap_traits@KPAVCGuildMember@@U?$less@K@std@@V?$allocator@U?$pair@$$CBKPAVCGuildMember@@@std@@@3@$0A@@std@@@std@@QAE@PAU_Node@?$_Tree_nod@V?$_Tmap_traits@KPAVCGuildMember@@U?$less@K@std@@V?$allocator@U?$pair@$$CBKPAVCGuildMember@@@std@@@3@$0A@@std@@@2@@Z 00406cf0 f i DPCacheSrvr.obj
 0001:00005d00       ??0?$pair@Viterator@?$_Tree@V?$_Tmap_traits@KPAVCServerDesc@@U?$less@K@std@@V?$allocator@U?$pair@$$CBKPAVCServerDesc@@@std@@@3@$0A@@std@@@std@@V123@@std@@QAE@ABViterator@?$_Tree@V?$_Tmap_traits@KPAVCServerDesc@@U?$less@K@std@@V?$allocator@U?$pair@$$CBKPAVCServerDesc@@@std@@@3@$0A@@std@@@1@0@Z 00406d00 f i DPCacheSrvr.obj
 0001:00005d20       ??0?$pair@Viterator@?$_Tree@V?$_Tmap_traits@KU_Friend@@U?$less@K@std@@V?$allocator@U?$pair@$$CBKU_Friend@@@std@@@3@$0A@@std@@@std@@V123@@std@@QAE@ABViterator@?$_Tree@V?$_Tmap_traits@KU_Friend@@U?$less@K@std@@V?$allocator@U?$pair@$$CBKU_Friend@@@std@@@3@$0A@@std@@@1@0@Z 00406d20 f i DPCacheSrvr.obj
 0001:00005d40       ??Yiterator@?$vector@KV?$allocator@K@std@@@std@@QAEAAV012@H@Z 00406d40 f i DPCacheSrvr.obj
 0001:00005d60       ??Dconst_iterator@?$vector@KV?$allocator@K@std@@@std@@QBEABKXZ 00406d60 f i DPCacheSrvr.obj
 0001:00005d70       ?max_size@?$allocator@K@std@@QBEIXZ 00406d70 f i DPCacheSrvr.obj
 0001:00005d80       ?_Min@?$_Tree@V?$_Tmap_traits@KPAVCServerDesc@@U?$less@K@std@@V?$allocator@U?$pair@$$CBKPAVCServerDesc@@@std@@@3@$0A@@std@@@std@@KAPAU_Node@?$_Tree_nod@V?$_Tmap_traits@KPAVCServerDesc@@U?$less@K@std@@V?$allocator@U?$pair@$$CBKPAVCServerDesc@@@std@@@3@$0A@@std@@@2@PAU342@@Z 00406d80 f i DPCacheSrvr.obj
 0001:00005da0       ?_Root@?$_Tree@V?$_Tmap_traits@KPAVCServerDesc@@U?$less@K@std@@V?$allocator@U?$pair@$$CBKPAVCServerDesc@@@std@@@3@$0A@@std@@@std@@IBEAAPAU_Node@?$_Tree_nod@V?$_Tmap_traits@KPAVCServerDesc@@U?$less@K@std@@V?$allocator@U?$pair@$$CBKPAVCServerDesc@@@std@@@3@$0A@@std@@@2@XZ 00406da0 f i DPCacheSrvr.obj
 0001:00005db0       ?_Color@?$_Tree@V?$_Tmap_traits@KU_Friend@@U?$less@K@std@@V?$allocator@U?$pair@$$CBKU_Friend@@@std@@@3@$0A@@std@@@std@@KAAADPAU_Node@?$_Tree_nod@V?$_Tmap_traits@KU_Friend@@U?$less@K@std@@V?$allocator@U?$pair@$$CBKU_Friend@@@std@@@3@$0A@@std@@@2@@Z 00406db0 f i DPCacheSrvr.obj
 0001:00005dc0       ?_Isnil@?$_Tree@V?$_Tmap_traits@KU_Friend@@U?$less@K@std@@V?$allocator@U?$pair@$$CBKU_Friend@@@std@@@3@$0A@@std@@@std@@KAAADPAU_Node@?$_Tree_nod@V?$_Tmap_traits@KU_Friend@@U?$less@K@std@@V?$allocator@U?$pair@$$CBKU_Friend@@@std@@@3@$0A@@std@@@2@@Z 00406dc0 f i DPCacheSrvr.obj
 0001:00005dd0       ?_Parent@?$_Tree@V?$_Tmap_traits@KU_Friend@@U?$less@K@std@@V?$allocator@U?$pair@$$CBKU_Friend@@@std@@@3@$0A@@std@@@std@@KAAAPAU_Node@?$_Tree_nod@V?$_Tmap_traits@KU_Friend@@U?$less@K@std@@V?$allocator@U?$pair@$$CBKU_Friend@@@std@@@3@$0A@@std@@@2@PAU342@@Z 00406dd0 f i DPCacheSrvr.obj
 0001:00005de0       ?_Right@?$_Tree@V?$_Tmap_traits@KU_Friend@@U?$less@K@std@@V?$allocator@U?$pair@$$CBKU_Friend@@@std@@@3@$0A@@std@@@std@@KAAAPAU_Node@?$_Tree_nod@V?$_Tmap_traits@KU_Friend@@U?$less@K@std@@V?$allocator@U?$pair@$$CBKU_Friend@@@std@@@3@$0A@@std@@@2@PAU342@@Z 00406de0 f i DPCacheSrvr.obj
 0001:00005df0       ?_Myval@?$_Tree@V?$_Tmap_traits@KU_Friend@@U?$less@K@std@@V?$allocator@U?$pair@$$CBKU_Friend@@@std@@@3@$0A@@std@@@std@@KAAAU?$pair@$$CBKU_Friend@@@2@PAU_Node@?$_Tree_nod@V?$_Tmap_traits@KU_Friend@@U?$less@K@std@@V?$allocator@U?$pair@$$CBKU_Friend@@@std@@@3@$0A@@std@@@2@@Z 00406df0 f i DPCacheSrvr.obj
 0001:00005e00       ?_Max@?$_Tree@V?$_Tmap_traits@KU_Friend@@U?$less@K@std@@V?$allocator@U?$pair@$$CBKU_Friend@@@std@@@3@$0A@@std@@@std@@KAPAU_Node@?$_Tree_nod@V?$_Tmap_traits@KU_Friend@@U?$less@K@std@@V?$allocator@U?$pair@$$CBKU_Friend@@@std@@@3@$0A@@std@@@2@PAU342@@Z 00406e00 f i DPCacheSrvr.obj
 0001:00005e20       ?_Min@?$_Tree@V?$_Tmap_traits@KU_Friend@@U?$less@K@std@@V?$allocator@U?$pair@$$CBKU_Friend@@@std@@@3@$0A@@std@@@std@@KAPAU_Node@?$_Tree_nod@V?$_Tmap_traits@KU_Friend@@U?$less@K@std@@V?$allocator@U?$pair@$$CBKU_Friend@@@std@@@3@$0A@@std@@@2@PAU342@@Z 00406e20 f i DPCacheSrvr.obj
 0001:00005e40       ?_Rmost@?$_Tree@V?$_Tmap_traits@KU_Friend@@U?$less@K@std@@V?$allocator@U?$pair@$$CBKU_Friend@@@std@@@3@$0A@@std@@@std@@IAEAAPAU_Node@?$_Tree_nod@V?$_Tmap_traits@KU_Friend@@U?$less@K@std@@V?$allocator@U?$pair@$$CBKU_Friend@@@std@@@3@$0A@@std@@@2@XZ 00406e40 f i DPCacheSrvr.obj
 0001:00005e50       ?_Root@?$_Tree@V?$_Tmap_traits@KU_Friend@@U?$less@K@std@@V?$allocator@U?$pair@$$CBKU_Friend@@@std@@@3@$0A@@std@@@std@@IAEAAPAU_Node@?$_Tree_nod@V?$_Tmap_traits@KU_Friend@@U?$less@K@std@@V?$allocator@U?$pair@$$CBKU_Friend@@@std@@@3@$0A@@std@@@2@XZ 00406e50 f i DPCacheSrvr.obj
 0001:00005e60       ?_Rrotate@?$_Tree@V?$_Tmap_traits@KU_Friend@@U?$less@K@std@@V?$allocator@U?$pair@$$CBKU_Friend@@@std@@@3@$0A@@std@@@std@@IAEXPAU_Node@?$_Tree_nod@V?$_Tmap_traits@KU_Friend@@U?$less@K@std@@V?$allocator@U?$pair@$$CBKU_Friend@@@std@@@3@$0A@@std@@@2@@Z 00406e60 f i DPCacheSrvr.obj
 0001:00005ec0       ?deallocate@?$allocator@U_Node@?$_Tree_nod@V?$_Tmap_traits@KU_Friend@@U?$less@K@std@@V?$allocator@U?$pair@$$CBKU_Friend@@@std@@@3@$0A@@std@@@std@@@std@@QAEXPAU_Node@?$_Tree_nod@V?$_Tmap_traits@KU_Friend@@U?$less@K@std@@V?$allocator@U?$pair@$$CBKU_Friend@@@std@@@3@$0A@@std@@@2@I@Z 00406ec0 f i DPCacheSrvr.obj
 0001:00005ed0       ?_Mynode@const_iterator@?$_Tree@V?$_Tmap_traits@KU_Friend@@U?$less@K@std@@V?$allocator@U?$pair@$$CBKU_Friend@@@std@@@3@$0A@@std@@@std@@QBEPAU_Node@?$_Tree_nod@V?$_Tmap_traits@KU_Friend@@U?$less@K@std@@V?$allocator@U?$pair@$$CBKU_Friend@@@std@@@3@$0A@@std@@@3@XZ 00406ed0 f i DPCacheSrvr.obj
 0001:00005ee0       ?_Isnil@?$_Tree@V?$_Tmap_traits@KPAVCGuildMember@@U?$less@K@std@@V?$allocator@U?$pair@$$CBKPAVCGuildMember@@@std@@@3@$0A@@std@@@std@@KAAADPAU_Node@?$_Tree_nod@V?$_Tmap_traits@KPAVCGuildMember@@U?$less@K@std@@V?$allocator@U?$pair@$$CBKPAVCGuildMember@@@std@@@3@$0A@@std@@@2@@Z 00406ee0 f i DPCacheSrvr.obj
 0001:00005ef0       ?_Parent@?$_Tree@V?$_Tmap_traits@KPAVCGuildMember@@U?$less@K@std@@V?$allocator@U?$pair@$$CBKPAVCGuildMember@@@std@@@3@$0A@@std@@@std@@KAAAPAU_Node@?$_Tree_nod@V?$_Tmap_traits@KPAVCGuildMember@@U?$less@K@std@@V?$allocator@U?$pair@$$CBKPAVCGuildMember@@@std@@@3@$0A@@std@@@2@PAU342@@Z 00406ef0 f i DPCacheSrvr.obj
 0001:00005f00       ?_Right@?$_Tree@V?$_Tmap_traits@KPAVCGuildMember@@U?$less@K@std@@V?$allocator@U?$pair@$$CBKPAVCGuildMember@@@std@@@3@$0A@@std@@@std@@KAAAPAU_Node@?$_Tree_nod@V?$_Tmap_traits@KPAVCGuildMember@@U?$less@K@std@@V?$allocator@U?$pair@$$CBKPAVCGuildMember@@@std@@@3@$0A@@std@@@2@PAU342@@Z 00406f00 f i DPCacheSrvr.obj
 0001:00005f10       ?_Myval@?$_Tree@V?$_Tmap_traits@KPAVCGuildMember@@U?$less@K@std@@V?$allocator@U?$pair@$$CBKPAVCGuildMember@@@std@@@3@$0A@@std@@@std@@KAAAU?$pair@$$CBKPAVCGuildMember@@@2@PAU_Node@?$_Tree_nod@V?$_Tmap_traits@KPAVCGuildMember@@U?$less@K@std@@V?$allocator@U?$pair@$$CBKPAVCGuildMember@@@std@@@3@$0A@@std@@@2@@Z 00406f10 f i DPCacheSrvr.obj
 0001:00005f20       ?_Min@?$_Tree@V?$_Tmap_traits@KPAVCGuildMember@@U?$less@K@std@@V?$allocator@U?$pair@$$CBKPAVCGuildMember@@@std@@@3@$0A@@std@@@std@@KAPAU_Node@?$_Tree_nod@V?$_Tmap_traits@KPAVCGuildMember@@U?$less@K@std@@V?$allocator@U?$pair@$$CBKPAVCGuildMember@@@std@@@3@$0A@@std@@@2@PAU342@@Z 00406f20 f i DPCacheSrvr.obj
 0001:00005f40       ?_Root@?$_Tree@V?$_Tmap_traits@KP8CDPCacheSrvr@@AEXAAVCAr@@KKK@ZU?$less@K@std@@V?$allocator@U?$pair@$$CBKP8CDPCacheSrvr@@AEXAAVCAr@@KKK@Z@std@@@4@$0A@@std@@@std@@IBEAAPAU_Node@?$_Tree_nod@V?$_Tmap_traits@KP8CDPCacheSrvr@@AEXAAVCAr@@KKK@ZU?$less@K@std@@V?$allocator@U?$pair@$$CBKP8CDPCacheSrvr@@AEXAAVCAr@@KKK@Z@std@@@4@$0A@@std@@@2@XZ 00406f40 f i DPCacheSrvr.obj
 0001:00005f50       ?max_size@?$allocator@U?$pair@$$CBKP8CDPCacheSrvr@@AEXAAVCAr@@KKK@Z@std@@@std@@QBEIXZ 00406f50 f i DPCacheSrvr.obj
 0001:00005f60       ??0const_iterator@?$vector@KV?$allocator@K@std@@@std@@QAE@PAK@Z 00406f60 f i DPCacheSrvr.obj
 0001:00005f70       ??Gconst_iterator@?$vector@KV?$allocator@K@std@@@std@@QBEHABV012@@Z 00406f70 f i DPCacheSrvr.obj
 0001:00005f80       ??0_Node@?$_Tree_nod@V?$_Tmap_traits@KP8CDPCacheSrvr@@AEXAAVCAr@@KKK@ZU?$less@K@std@@V?$allocator@U?$pair@$$CBKP8CDPCacheSrvr@@AEXAAVCAr@@KKK@Z@std@@@4@$0A@@std@@@std@@QAE@PAU012@00ABU?$pair@$$CBKP8CDPCacheSrvr@@AEXAAVCAr@@KKK@Z@2@D@Z 00406f80 f i DPCacheSrvr.obj
 0001:00005fc0       ?_Root@?$_Tree@V?$_Tmap_traits@KU_Friend@@U?$less@K@std@@V?$allocator@U?$pair@$$CBKU_Friend@@@std@@@3@$0A@@std@@@std@@IBEAAPAU_Node@?$_Tree_nod@V?$_Tmap_traits@KU_Friend@@U?$less@K@std@@V?$allocator@U?$pair@$$CBKU_Friend@@@std@@@3@$0A@@std@@@2@XZ 00406fc0 f i DPCacheSrvr.obj
 0001:00005fd0       ?_Max@?$_Tree@V?$_Tmap_traits@KP8CDPCacheSrvr@@AEXAAVCAr@@KKK@ZU?$less@K@std@@V?$allocator@U?$pair@$$CBKP8CDPCacheSrvr@@AEXAAVCAr@@KKK@Z@std@@@4@$0A@@std@@@std@@KAPAU_Node@?$_Tree_nod@V?$_Tmap_traits@KP8CDPCacheSrvr@@AEXAAVCAr@@KKK@ZU?$less@K@std@@V?$allocator@U?$pair@$$CBKP8CDPCacheSrvr@@AEXAAVCAr@@KKK@Z@std@@@4@$0A@@std@@@2@PAU342@@Z 00406fd0 f i DPCacheSrvr.obj
 0001:00005ff0       ?_Min@?$_Tree@V?$_Tmap_traits@KP8CDPCacheSrvr@@AEXAAVCAr@@KKK@ZU?$less@K@std@@V?$allocator@U?$pair@$$CBKP8CDPCacheSrvr@@AEXAAVCAr@@KKK@Z@std@@@4@$0A@@std@@@std@@KAPAU_Node@?$_Tree_nod@V?$_Tmap_traits@KP8CDPCacheSrvr@@AEXAAVCAr@@KKK@ZU?$less@K@std@@V?$allocator@U?$pair@$$CBKP8CDPCacheSrvr@@AEXAAVCAr@@KKK@Z@std@@@4@$0A@@std@@@2@PAU342@@Z 00406ff0 f i DPCacheSrvr.obj
 0001:00006010       ?_Mynode@const_iterator@?$list@PAXV?$allocator@PAX@std@@@std@@QBEPAU_Node@?$_List_nod@PAXV?$allocator@PAX@std@@@3@XZ 00407010 f i DPCacheSrvr.obj
 0001:00006020       ?_Kfn@?$_Tmap_traits@KU_Friend@@U?$less@K@std@@V?$allocator@U?$pair@$$CBKU_Friend@@@std@@@3@$0A@@std@@SAABKABU?$pair@$$CBKU_Friend@@@2@@Z 00407020 f i DPCacheSrvr.obj
 0001:00006030       ??0?$_Tmap_traits@KP8CDPCacheSrvr@@AEXAAVCAr@@KKK@ZU?$less@K@std@@V?$allocator@U?$pair@$$CBKP8CDPCacheSrvr@@AEXAAVCAr@@KKK@Z@std@@@4@$0A@@std@@QAE@U?$less@K@1@@Z 00407030 f i DPCacheSrvr.obj
 0001:00006040       ??0_Node@?$_List_nod@PAXV?$allocator@PAX@std@@@std@@QAE@PAU012@0ABQAX@Z 00407040 f i DPCacheSrvr.obj
 0001:00006060       ?max_size@?$allocator@PAX@std@@QBEIXZ 00407060 f i DPCacheSrvr.obj
 0001:00006070       ?_Inc@const_iterator@?$_Tree@V?$_Tmap_traits@KP8CDPCacheSrvr@@AEXAAVCAr@@KKK@ZU?$less@K@std@@V?$allocator@U?$pair@$$CBKP8CDPCacheSrvr@@AEXAAVCAr@@KKK@Z@std@@@4@$0A@@std@@@std@@QAEXXZ 00407070 f i DPCacheSrvr.obj
 0001:000060d0       ??$_Allocate@K@std@@YAPAKIPAK@Z 004070d0 f i DPCacheSrvr.obj
 0001:000060f0       ??$swap@D@std@@YAXAAD0@Z   004070f0 f i DPCacheSrvr.obj
 0001:00006110       ??$fill@PAKK@std@@YAXPAK0ABK@Z 00407110 f i DPCacheSrvr.obj
 0001:00006130       ??$_Destroy@PAU_Node@?$_Tree_nod@V?$_Tmap_traits@KP8CDPCacheSrvr@@AEXAAVCAr@@KKK@ZU?$less@K@std@@V?$allocator@U?$pair@$$CBKP8CDPCacheSrvr@@AEXAAVCAr@@KKK@Z@std@@@4@$0A@@std@@@std@@@std@@YAXPAPAU_Node@?$_Tree_nod@V?$_Tmap_traits@KP8CDPCacheSrvr@@AEXAAVCAr@@KKK@ZU?$less@K@std@@V?$allocator@U?$pair@$$CBKP8CDPCacheSrvr@@AEXAAVCAr@@KKK@Z@std@@@4@$0A@@std@@@0@@Z 00407130 f i DPCacheSrvr.obj
 0001:00006140       ??$_Destroy@U_Node@?$_Tree_nod@V?$_Tmap_traits@KPAVCServerDesc@@U?$less@K@std@@V?$allocator@U?$pair@$$CBKPAVCServerDesc@@@std@@@3@$0A@@std@@@std@@@std@@YAXPAU_Node@?$_Tree_nod@V?$_Tmap_traits@KPAVCServerDesc@@U?$less@K@std@@V?$allocator@U?$pair@$$CBKPAVCServerDesc@@@std@@@3@$0A@@std@@@0@@Z 00407140 f i DPCacheSrvr.obj
 0001:00006150       ??$_Destroy@U_Node@?$_Tree_nod@V?$_Tmap_traits@KU_Friend@@U?$less@K@std@@V?$allocator@U?$pair@$$CBKU_Friend@@@std@@@3@$0A@@std@@@std@@@std@@YAXPAU_Node@?$_Tree_nod@V?$_Tmap_traits@KU_Friend@@U?$less@K@std@@V?$allocator@U?$pair@$$CBKU_Friend@@@std@@@3@$0A@@std@@@0@@Z 00407150 f i DPCacheSrvr.obj
 0001:00006160       ??$?0U?$pair@$$CBKP8CDPCacheSrvr@@AEXAAVCAr@@KKK@Z@std@@@?$allocator@PAU_Node@?$_Tree_nod@V?$_Tmap_traits@KP8CDPCacheSrvr@@AEXAAVCAr@@KKK@ZU?$less@K@std@@V?$allocator@U?$pair@$$CBKP8CDPCacheSrvr@@AEXAAVCAr@@KKK@Z@std@@@4@$0A@@std@@@std@@@std@@QAE@ABV?$allocator@U?$pair@$$CBKP8CDPCacheSrvr@@AEXAAVCAr@@KKK@Z@std@@@1@@Z 00407160 f i DPCacheSrvr.obj
 0001:00006170       ??$_Allocate@U_Node@?$_Tree_nod@V?$_Tmap_traits@KP8CDPCacheSrvr@@AEXAAVCAr@@KKK@ZU?$less@K@std@@V?$allocator@U?$pair@$$CBKP8CDPCacheSrvr@@AEXAAVCAr@@KKK@Z@std@@@4@$0A@@std@@@std@@@std@@YAPAU_Node@?$_Tree_nod@V?$_Tmap_traits@KP8CDPCacheSrvr@@AEXAAVCAr@@KKK@ZU?$less@K@std@@V?$allocator@U?$pair@$$CBKP8CDPCacheSrvr@@AEXAAVCAr@@KKK@Z@std@@@4@$0A@@std@@@0@IPAU120@@Z 00407170 f i DPCacheSrvr.obj
 0001:00006190       ??$?0U?$pair@$$CBKP8CDPCacheSrvr@@AEXAAVCAr@@KKK@Z@std@@@?$allocator@U_Node@?$_Tree_nod@V?$_Tmap_traits@KP8CDPCacheSrvr@@AEXAAVCAr@@KKK@ZU?$less@K@std@@V?$allocator@U?$pair@$$CBKP8CDPCacheSrvr@@AEXAAVCAr@@KKK@Z@std@@@4@$0A@@std@@@std@@@std@@QAE@ABV?$allocator@U?$pair@$$CBKP8CDPCacheSrvr@@AEXAAVCAr@@KKK@Z@std@@@1@@Z 00407190 f i DPCacheSrvr.obj
 0001:000061a0       ??$_Destroy@U_Node@?$_Tree_nod@V?$_Tmap_traits@KP8CDPCacheSrvr@@AEXAAVCAr@@KKK@ZU?$less@K@std@@V?$allocator@U?$pair@$$CBKP8CDPCacheSrvr@@AEXAAVCAr@@KKK@Z@std@@@4@$0A@@std@@@std@@@std@@YAXPAU_Node@?$_Tree_nod@V?$_Tmap_traits@KP8CDPCacheSrvr@@AEXAAVCAr@@KKK@ZU?$less@K@std@@V?$allocator@U?$pair@$$CBKP8CDPCacheSrvr@@AEXAAVCAr@@KKK@Z@std@@@4@$0A@@std@@@0@@Z 004071a0 f i DPCacheSrvr.obj
 0001:000061b0       ??$_Construct@PAU_Node@?$_Tree_nod@V?$_Tmap_traits@KP8CDPCacheSrvr@@AEXAAVCAr@@KKK@ZU?$less@K@std@@V?$allocator@U?$pair@$$CBKP8CDPCacheSrvr@@AEXAAVCAr@@KKK@Z@std@@@4@$0A@@std@@@std@@PAU123@@std@@YAXPAPAU_Node@?$_Tree_nod@V?$_Tmap_traits@KP8CDPCacheSrvr@@AEXAAVCAr@@KKK@ZU?$less@K@std@@V?$allocator@U?$pair@$$CBKP8CDPCacheSrvr@@AEXAAVCAr@@KKK@Z@std@@@4@$0A@@std@@@0@ABQAU120@@Z 004071b0 f i DPCacheSrvr.obj
 0001:000061d0       ??$_Allocate@U_Node@?$_List_nod@PAXV?$allocator@PAX@std@@@std@@@std@@YAPAU_Node@?$_List_nod@PAXV?$allocator@PAX@std@@@0@IPAU120@@Z 004071d0 f i DPCacheSrvr.obj
 0001:000061f0       ??$_Iter_cat@Viterator@?$_Tree@V?$_Tmap_traits@KPAVCServerDesc@@U?$less@K@std@@V?$allocator@U?$pair@$$CBKPAVCServerDesc@@@std@@@3@$0A@@std@@@std@@@std@@YA?AUbidirectional_iterator_tag@0@ABViterator@?$_Tree@V?$_Tmap_traits@KPAVCServerDesc@@U?$less@K@std@@V?$allocator@U?$pair@$$CBKPAVCServerDesc@@@std@@@3@$0A@@std@@@0@@Z 004071f0 f i DPCacheSrvr.obj
 0001:00006200       ??$_Iter_cat@Viterator@?$_Tree@V?$_Tmap_traits@KU_Friend@@U?$less@K@std@@V?$allocator@U?$pair@$$CBKU_Friend@@@std@@@3@$0A@@std@@@std@@@std@@YA?AUbidirectional_iterator_tag@0@ABViterator@?$_Tree@V?$_Tmap_traits@KU_Friend@@U?$less@K@std@@V?$allocator@U?$pair@$$CBKU_Friend@@@std@@@3@$0A@@std@@@0@@Z 00407200 f i DPCacheSrvr.obj
 0001:00006210       ??$_Destroy_range@KV?$allocator@K@std@@@std@@YAXPAK0AAV?$allocator@K@0@U_Scalar_ptr_iterator_tag@0@@Z 00407210 f i DPCacheSrvr.obj
 0001:00006220       ??$_Copy_backward_opt@PAKPAK@std@@YAPAKPAK00U_Scalar_ptr_iterator_tag@0@@Z 00407220 f i DPCacheSrvr.obj
 0001:00006250       ??$fill_n@PAKIK@std@@YAXPAKIABK@Z 00407250 f i DPCacheSrvr.obj
 0001:00006270       ??$_Uninit_copy@KK@std@@YAPAKPAK00AAV?$allocator@K@0@U_Scalar_ptr_iterator_tag@0@@Z 00407270 f i DPCacheSrvr.obj
 0001:000062a0       ?_Ptr_cat@std@@YA?AU_Scalar_ptr_iterator_tag@1@PAK0@Z 004072a0 f i DPCacheSrvr.obj
 0001:000062b0       ??0CMclAutoLock@@QAE@AAVCMclCritSec@@@Z 004072b0 f i DPCacheSrvr.obj
 0001:000062d0       ??1CMclAutoLock@@QAE@XZ    004072d0 f i DPCacheSrvr.obj
 0001:000062e0       ??6CAr@@QAEAAV0@H@Z        004072e0 f i DPCacheSrvr.obj
 0001:00006300       ??6CAr@@QAEAAV0@I@Z        00407300 f i DPCacheSrvr.obj
 0001:00006320       ??6CAr@@QAEAAV0@F@Z        00407320 f i DPCacheSrvr.obj
 0001:00006340       ??5CAr@@QAEAAV0@AAH@Z      00407340 f i DPCacheSrvr.obj
 0001:00006380       ??3CGuildMember@@SAXPAX@Z  00407380 f i DPCacheSrvr.obj
 0001:000063c0       ?GetSize@CGuild@@QAEHXZ    004073c0 f i DPCacheSrvr.obj
 0001:000063d0       ?Serialize@CGuildRank@@QAEXAAVCAr@@@Z 004073d0 f i DPCacheSrvr.obj
 0001:000064c0       ?Lock@CPlayer@@QAEXXZ      004074c0 f i DPCacheSrvr.obj
 0001:000064d0       ?Unlock@CPlayer@@QAEXXZ    004074d0 f i DPCacheSrvr.obj
 0001:000064e0       ?OnAddPlayer@CDPCacheSrvr@@AAEXAAVCAr@@KKK@Z 004074e0 f   DPCacheSrvr.obj
 0001:000067f0       ?OnQueryRemovePlayer@CDPCacheSrvr@@AAEXAAVCAr@@KKK@Z 004077f0 f   DPCacheSrvr.obj
 0001:00006890       ?SendWhisper@CDPCacheSrvr@@QAEXPBD0KK0PAVCPlayer@@H@Z 00407890 f   DPCacheSrvr.obj
 0001:00006a30       ?SendSay@CDPCacheSrvr@@QAEXPBD0KK0PAVCPlayer@@H@Z 00407a30 f   DPCacheSrvr.obj
 0001:00006bd0       ?SendFriendNoIntercept@CDPCacheSrvr@@QAEXPAVCPlayer@@0H@Z 00407bd0 f   DPCacheSrvr.obj
 0001:00006d20       ?SendFriendNoIntercept@CDPCacheSrvr@@QAEXPAVCPlayer@@KH@Z 00407d20 f   DPCacheSrvr.obj
 0001:00006e50       ?SendSummonPlayer@CDPCacheSrvr@@QAEXKKKABUD3DXVECTOR3@@PAVCPlayer@@H@Z 00407e50 f   DPCacheSrvr.obj
 0001:00006ff0       ?SendSystem@CDPCacheSrvr@@QAEXPBD@Z 00407ff0 f   DPCacheSrvr.obj
 0001:000070e0       ?SendCaption@CDPCacheSrvr@@QAEXPBDKH@Z 004080e0 f   DPCacheSrvr.obj
 0001:00007220       ?SendGameRate@CDPCacheSrvr@@QAEXME@Z 00408220 f   DPCacheSrvr.obj
 0001:00007350       ?SendDefinedText@CDPCacheSrvr@@QAAXHKKPBDZZ 00408350 f   DPCacheSrvr.obj
 0001:000074a0       ?OnSendTag@CDPCacheSrvr@@AAEXAAVCAr@@KKK@Z 004084a0 f   DPCacheSrvr.obj
 0001:000075d0       ?OnPartyChangeLeader@CDPCacheSrvr@@AAEXAAVCAr@@KKK@Z 004085d0 f   DPCacheSrvr.obj
 0001:00007790       ?OnAddPartyMember@CDPCacheSrvr@@AAEXAAVCAr@@KKK@Z 00408790 f   DPCacheSrvr.obj
 0001:00007ad0       ?OnRemovePartyMember@CDPCacheSrvr@@AAEXAAVCAr@@KKK@Z 00408ad0 f   DPCacheSrvr.obj
 0001:00007d40       ?OnPartyChangeName@CDPCacheSrvr@@AAEXAAVCAr@@KKK@Z 00408d40 f   DPCacheSrvr.obj
 0001:00007ee0       ?OnPartyChangeItemMode@CDPCacheSrvr@@AAEXAAVCAr@@KKK@Z 00408ee0 f   DPCacheSrvr.obj
 0001:00008000       ?OnPartyChangeExpMode@CDPCacheSrvr@@AAEXAAVCAr@@KKK@Z 00409000 f   DPCacheSrvr.obj
 0001:00008130       ?OnPartyChangeTroup@CDPCacheSrvr@@AAEXAAVCAr@@KKK@Z 00409130 f   DPCacheSrvr.obj
 0001:000083c0       ?OnGuildAuthority@CDPCacheSrvr@@QAEXAAVCAr@@KKK@Z 004093c0 f   DPCacheSrvr.obj
 0001:00008540       ?SendGuildMemberLv@CDPCacheSrvr@@QAEXKHPAVCPlayer@@@Z 00409540 f   DPCacheSrvr.obj
 0001:00008670       ?SendGuildClass@CDPCacheSrvr@@QAEXKHPAVCPlayer@@@Z 00409670 f   DPCacheSrvr.obj
 0001:000087a0       ?SendGuildSetName@CDPCacheSrvr@@QAEXKPBD@Z 004097a0 f   DPCacheSrvr.obj
 0001:000088c0       ?SendGuildMsgControl@CDPCacheSrvr@@QAEXPAU_SGuildMsgHeader@@KE@Z 004098c0 f   DPCacheSrvr.obj
 0001:00008a00       ?SendGuildMemberGameJoin@CDPCacheSrvr@@QAEXPAVCPlayer@@HQAK1@Z 00409a00 f   DPCacheSrvr.obj
 0001:00008b50       ?SendGuildError@CDPCacheSrvr@@QAEXPAVCPlayer@@H@Z 00409b50 f   DPCacheSrvr.obj
 0001:00008c70       ?OnAddFriend@CDPCacheSrvr@@AAEXAAVCAr@@KKK@Z 00409c70 f   DPCacheSrvr.obj
 0001:00008e70       ?OnFriendInterceptState@CDPCacheSrvr@@AAEXAAVCAr@@KKK@Z 00409e70 f   DPCacheSrvr.obj
 0001:00008fe0       ?SendSurrender@CDPCacheSrvr@@AAEXKKPBDHPAVCPlayer@@@Z 00409fe0 f   DPCacheSrvr.obj
 0001:00009150       ?OnQueryTruce@CDPCacheSrvr@@AAEXAAVCAr@@KKK@Z 0040a150 f   DPCacheSrvr.obj
 0001:00009290       ?OnAcptTruce@CDPCacheSrvr@@AAEXAAVCAr@@KKK@Z 0040a290 f   DPCacheSrvr.obj
 0001:000093b0       ?OnDeclWar@CDPCacheSrvr@@AAEXAAVCAr@@KKK@Z 0040a3b0 f   DPCacheSrvr.obj
 0001:00009680       ?SendAcptWar@CDPCacheSrvr@@AAEXKKK@Z 0040a680 f   DPCacheSrvr.obj
 0001:000097d0       ?SendWarEnd@CDPCacheSrvr@@QAEXKHHH@Z 0040a7d0 f   DPCacheSrvr.obj
 0001:00009930       ?SendWarDead@CDPCacheSrvr@@QAEXKPBDHPAVCPlayer@@@Z 0040a930 f   DPCacheSrvr.obj
 0001:00009a80       ?OnAddVote@CDPCacheSrvr@@AAEXAAVCAr@@KKK@Z 0040aa80 f   DPCacheSrvr.obj
 0001:00009bc0       ?OnRemoveVote@CDPCacheSrvr@@AAEXAAVCAr@@KKK@Z 0040abc0 f   DPCacheSrvr.obj
 0001:00009cc0       ?OnCloseVote@CDPCacheSrvr@@AAEXAAVCAr@@KKK@Z 0040acc0 f   DPCacheSrvr.obj
 0001:00009dc0       ?OnCastVote@CDPCacheSrvr@@AAEXAAVCAr@@KKK@Z 0040adc0 f   DPCacheSrvr.obj
 0001:00009f60       ?SendUpdateGuildRank@CDPCacheSrvr@@QAEXXZ 0040af60 f   DPCacheSrvr.obj
 0001:0000a060       ?SendSetPlayerName@CDPCacheSrvr@@QAEXKPBD@Z 0040b060 f   DPCacheSrvr.obj
 0001:0000a180       ?SendQuizSystemMessage@CDPCacheSrvr@@QAEXHHHH@Z 0040b180 f   DPCacheSrvr.obj
 0001:0000a2e0       ??9const_iterator@?$_Tree@V?$_Tmap_traits@KU_Friend@@U?$less@K@std@@V?$allocator@U?$pair@$$CBKU_Friend@@@std@@@3@$0A@@std@@@std@@QBE_NABV012@@Z 0040b2e0 f i DPCacheSrvr.obj
 0001:0000a300       ??9const_iterator@?$_Tree@V?$_Tmap_traits@KPAVCServerDesc@@U?$less@K@std@@V?$allocator@U?$pair@$$CBKPAVCServerDesc@@@std@@@3@$0A@@std@@@std@@QBE_NABV012@@Z 0040b300 f i DPCacheSrvr.obj
 0001:0000a320       ??9const_iterator@?$_Tree@V?$_Tmap_traits@KP8CDPCacheSrvr@@AEXAAVCAr@@KKK@ZU?$less@K@std@@V?$allocator@U?$pair@$$CBKP8CDPCacheSrvr@@AEXAAVCAr@@KKK@Z@std@@@4@$0A@@std@@@std@@QBE_NABV012@@Z 0040b320 f i DPCacheSrvr.obj
 0001:0000a340       ??9const_iterator@?$_Tree@V?$_Tmap_traits@KPAVCGuildMember@@U?$less@K@std@@V?$allocator@U?$pair@$$CBKPAVCGuildMember@@@std@@@3@$0A@@std@@@std@@QBE_NABV012@@Z 0040b340 f i DPCacheSrvr.obj
 0001:0000a360       ?_Lmost@?$_Tree@V?$_Tmap_traits@KU_Friend@@U?$less@K@std@@V?$allocator@U?$pair@$$CBKU_Friend@@@std@@@3@$0A@@std@@@std@@IAEAAPAU_Node@?$_Tree_nod@V?$_Tmap_traits@KU_Friend@@U?$less@K@std@@V?$allocator@U?$pair@$$CBKU_Friend@@@std@@@3@$0A@@std@@@2@XZ 0040b360 f i DPCacheSrvr.obj
 0001:0000a370       ??0iterator@?$_Tree@V?$_Tmap_traits@KU_Friend@@U?$less@K@std@@V?$allocator@U?$pair@$$CBKU_Friend@@@std@@@3@$0A@@std@@@std@@QAE@PAU_Node@?$_Tree_nod@V?$_Tmap_traits@KU_Friend@@U?$less@K@std@@V?$allocator@U?$pair@$$CBKU_Friend@@@std@@@3@$0A@@std@@@2@@Z 0040b370 f i DPCacheSrvr.obj
 0001:0000a380       ??0?$_Vector_val@KV?$allocator@K@std@@@std@@IAE@V?$allocator@K@1@@Z 0040b380 f i DPCacheSrvr.obj
 0001:0000a390       ?_Lmost@?$_Tree@V?$_Tmap_traits@KPAVCGuildMember@@U?$less@K@std@@V?$allocator@U?$pair@$$CBKPAVCGuildMember@@@std@@@3@$0A@@std@@@std@@IAEAAPAU_Node@?$_Tree_nod@V?$_Tmap_traits@KPAVCGuildMember@@U?$less@K@std@@V?$allocator@U?$pair@$$CBKPAVCGuildMember@@@std@@@3@$0A@@std@@@2@XZ 0040b390 f i DPCacheSrvr.obj
 0001:0000a3a0       ??Diterator@?$_Tree@V?$_Tmap_traits@KPAVCServerDesc@@U?$less@K@std@@V?$allocator@U?$pair@$$CBKPAVCServerDesc@@@std@@@3@$0A@@std@@@std@@QBEAAU?$pair@$$CBKPAVCServerDesc@@@2@XZ 0040b3a0 f i DPCacheSrvr.obj
 0001:0000a3b0       ?_Key@?$_Tree@V?$_Tmap_traits@KP8CDPCacheSrvr@@AEXAAVCAr@@KKK@ZU?$less@K@std@@V?$allocator@U?$pair@$$CBKP8CDPCacheSrvr@@AEXAAVCAr@@KKK@Z@std@@@4@$0A@@std@@@std@@KAABKPAU_Node@?$_Tree_nod@V?$_Tmap_traits@KP8CDPCacheSrvr@@AEXAAVCAr@@KKK@ZU?$less@K@std@@V?$allocator@U?$pair@$$CBKP8CDPCacheSrvr@@AEXAAVCAr@@KKK@Z@std@@@4@$0A@@std@@@2@@Z 0040b3b0 f i DPCacheSrvr.obj
 0001:0000a3c0       ?_Root@?$_Tree@V?$_Tmap_traits@KP8CDPCacheSrvr@@AEXAAVCAr@@KKK@ZU?$less@K@std@@V?$allocator@U?$pair@$$CBKP8CDPCacheSrvr@@AEXAAVCAr@@KKK@Z@std@@@4@$0A@@std@@@std@@IAEAAPAU_Node@?$_Tree_nod@V?$_Tmap_traits@KP8CDPCacheSrvr@@AEXAAVCAr@@KKK@ZU?$less@K@std@@V?$allocator@U?$pair@$$CBKP8CDPCacheSrvr@@AEXAAVCAr@@KKK@Z@std@@@4@$0A@@std@@@2@XZ 0040b3c0 f i DPCacheSrvr.obj
 0001:0000a3d0       ??0iterator@?$_Tree@V?$_Tmap_traits@KP8CDPCacheSrvr@@AEXAAVCAr@@KKK@ZU?$less@K@std@@V?$allocator@U?$pair@$$CBKP8CDPCacheSrvr@@AEXAAVCAr@@KKK@Z@std@@@4@$0A@@std@@@std@@QAE@PAU_Node@?$_Tree_nod@V?$_Tmap_traits@KP8CDPCacheSrvr@@AEXAAVCAr@@KKK@ZU?$less@K@std@@V?$allocator@U?$pair@$$CBKP8CDPCacheSrvr@@AEXAAVCAr@@KKK@Z@std@@@4@$0A@@std@@@2@@Z 0040b3d0 f i DPCacheSrvr.obj
 0001:0000a3e0       ??Diterator@?$_Tree@V?$_Tmap_traits@KP8CDPCacheSrvr@@AEXAAVCAr@@KKK@ZU?$less@K@std@@V?$allocator@U?$pair@$$CBKP8CDPCacheSrvr@@AEXAAVCAr@@KKK@Z@std@@@4@$0A@@std@@@std@@QBEAAU?$pair@$$CBKP8CDPCacheSrvr@@AEXAAVCAr@@KKK@Z@2@XZ 0040b3e0 f i DPCacheSrvr.obj
 0001:0000a3f0       ??0iterator@?$_Tree@V?$_Tmap_traits@KPAVCGuildMember@@U?$less@K@std@@V?$allocator@U?$pair@$$CBKPAVCGuildMember@@@std@@@3@$0A@@std@@@std@@QAE@PAU_Node@?$_Tree_nod@V?$_Tmap_traits@KPAVCGuildMember@@U?$less@K@std@@V?$allocator@U?$pair@$$CBKPAVCGuildMember@@@std@@@3@$0A@@std@@@2@@Z 0040b3f0 f i DPCacheSrvr.obj
 0001:0000a400       ??Diterator@?$vector@KV?$allocator@K@std@@@std@@QBEAAKXZ 0040b400 f i DPCacheSrvr.obj
 0001:0000a410       ??Hiterator@?$vector@KV?$allocator@K@std@@@std@@QBE?AV012@H@Z 0040b410 f i DPCacheSrvr.obj
 0001:0000a430       ?allocate@?$allocator@K@std@@QAEPAKI@Z 0040b430 f i DPCacheSrvr.obj
 0001:0000a450       ?_Lbound@?$_Tree@V?$_Tmap_traits@KPAVCServerDesc@@U?$less@K@std@@V?$allocator@U?$pair@$$CBKPAVCServerDesc@@@std@@@3@$0A@@std@@@std@@IBEPAU_Node@?$_Tree_nod@V?$_Tmap_traits@KPAVCServerDesc@@U?$less@K@std@@V?$allocator@U?$pair@$$CBKPAVCServerDesc@@@std@@@3@$0A@@std@@@2@ABK@Z 0040b450 f i DPCacheSrvr.obj
 0001:0000a480       ??Dconst_iterator@?$_Tree@V?$_Tmap_traits@KU_Friend@@U?$less@K@std@@V?$allocator@U?$pair@$$CBKU_Friend@@@std@@@3@$0A@@std@@@std@@QBEABU?$pair@$$CBKU_Friend@@@2@XZ 0040b480 f i DPCacheSrvr.obj
 0001:0000a490       ?_Inc@const_iterator@?$_Tree@V?$_Tmap_traits@KU_Friend@@U?$less@K@std@@V?$allocator@U?$pair@$$CBKU_Friend@@@std@@@3@$0A@@std@@@std@@QAEXXZ 0040b490 f i DPCacheSrvr.obj
 0001:0000a4f0       ?max_size@?$vector@KV?$allocator@K@std@@@std@@QBEIXZ 0040b4f0 f i DPCacheSrvr.obj
 0001:0000a500       ?_Inc@const_iterator@?$_Tree@V?$_Tmap_traits@KPAVCServerDesc@@U?$less@K@std@@V?$allocator@U?$pair@$$CBKPAVCServerDesc@@@std@@@3@$0A@@std@@@std@@QAEXXZ 0040b500 f i DPCacheSrvr.obj
 0001:0000a560       ?max_size@?$_Tree@V?$_Tmap_traits@KP8CDPCacheSrvr@@AEXAAVCAr@@KKK@ZU?$less@K@std@@V?$allocator@U?$pair@$$CBKP8CDPCacheSrvr@@AEXAAVCAr@@KKK@Z@std@@@4@$0A@@std@@@std@@QBEIXZ 0040b560 f i DPCacheSrvr.obj
 0001:0000a570       ?_Lbound@?$_Tree@V?$_Tmap_traits@KP8CDPCacheSrvr@@AEXAAVCAr@@KKK@ZU?$less@K@std@@V?$allocator@U?$pair@$$CBKP8CDPCacheSrvr@@AEXAAVCAr@@KKK@Z@std@@@4@$0A@@std@@@std@@IBEPAU_Node@?$_Tree_nod@V?$_Tmap_traits@KP8CDPCacheSrvr@@AEXAAVCAr@@KKK@ZU?$less@K@std@@V?$allocator@U?$pair@$$CBKP8CDPCacheSrvr@@AEXAAVCAr@@KKK@Z@std@@@4@$0A@@std@@@2@ABK@Z 0040b570 f i DPCacheSrvr.obj
 0001:0000a5a0       ?_Lrotate@?$_Tree@V?$_Tmap_traits@KP8CDPCacheSrvr@@AEXAAVCAr@@KKK@ZU?$less@K@std@@V?$allocator@U?$pair@$$CBKP8CDPCacheSrvr@@AEXAAVCAr@@KKK@Z@std@@@4@$0A@@std@@@std@@IAEXPAU_Node@?$_Tree_nod@V?$_Tmap_traits@KP8CDPCacheSrvr@@AEXAAVCAr@@KKK@ZU?$less@K@std@@V?$allocator@U?$pair@$$CBKP8CDPCacheSrvr@@AEXAAVCAr@@KKK@Z@std@@@4@$0A@@std@@@2@@Z 0040b5a0 f i DPCacheSrvr.obj
 0001:0000a600       ?_Rrotate@?$_Tree@V?$_Tmap_traits@KP8CDPCacheSrvr@@AEXAAVCAr@@KKK@ZU?$less@K@std@@V?$allocator@U?$pair@$$CBKP8CDPCacheSrvr@@AEXAAVCAr@@KKK@Z@std@@@4@$0A@@std@@@std@@IAEXPAU_Node@?$_Tree_nod@V?$_Tmap_traits@KP8CDPCacheSrvr@@AEXAAVCAr@@KKK@ZU?$less@K@std@@V?$allocator@U?$pair@$$CBKP8CDPCacheSrvr@@AEXAAVCAr@@KKK@Z@std@@@4@$0A@@std@@@2@@Z 0040b600 f i DPCacheSrvr.obj
 0001:0000a660       ?destroy@?$allocator@PAU_Node@?$_Tree_nod@V?$_Tmap_traits@KP8CDPCacheSrvr@@AEXAAVCAr@@KKK@ZU?$less@K@std@@V?$allocator@U?$pair@$$CBKP8CDPCacheSrvr@@AEXAAVCAr@@KKK@Z@std@@@4@$0A@@std@@@std@@@std@@QAEXPAPAU_Node@?$_Tree_nod@V?$_Tmap_traits@KP8CDPCacheSrvr@@AEXAAVCAr@@KKK@ZU?$less@K@std@@V?$allocator@U?$pair@$$CBKP8CDPCacheSrvr@@AEXAAVCAr@@KKK@Z@std@@@4@$0A@@std@@@2@@Z 0040b660 f i DPCacheSrvr.obj
 0001:0000a670       ??Dconst_iterator@?$_Tree@V?$_Tmap_traits@KPAVCGuildMember@@U?$less@K@std@@V?$allocator@U?$pair@$$CBKPAVCGuildMember@@@std@@@3@$0A@@std@@@std@@QBEABU?$pair@$$CBKPAVCGuildMember@@@2@XZ 0040b670 f i DPCacheSrvr.obj
 0001:0000a680       ?_Inc@const_iterator@?$_Tree@V?$_Tmap_traits@KPAVCGuildMember@@U?$less@K@std@@V?$allocator@U?$pair@$$CBKPAVCGuildMember@@@std@@@3@$0A@@std@@@std@@QAEXXZ 0040b680 f i DPCacheSrvr.obj
 0001:0000a6e0       ??0iterator@?$vector@KV?$allocator@K@std@@@std@@QAE@PAK@Z 0040b6e0 f i DPCacheSrvr.obj
 0001:0000a6f0       ??Giterator@?$vector@KV?$allocator@K@std@@@std@@QBEHABVconst_iterator@12@@Z 0040b6f0 f i DPCacheSrvr.obj
 0001:0000a700       ?_Ubound@?$_Tree@V?$_Tmap_traits@KPAVCServerDesc@@U?$less@K@std@@V?$allocator@U?$pair@$$CBKPAVCServerDesc@@@std@@@3@$0A@@std@@@std@@IBEPAU_Node@?$_Tree_nod@V?$_Tmap_traits@KPAVCServerDesc@@U?$less@K@std@@V?$allocator@U?$pair@$$CBKPAVCServerDesc@@@std@@@3@$0A@@std@@@2@ABK@Z 0040b700 f i DPCacheSrvr.obj
 0001:0000a730       ?destroy@?$allocator@U_Node@?$_Tree_nod@V?$_Tmap_traits@KPAVCServerDesc@@U?$less@K@std@@V?$allocator@U?$pair@$$CBKPAVCServerDesc@@@std@@@3@$0A@@std@@@std@@@std@@QAEXPAU_Node@?$_Tree_nod@V?$_Tmap_traits@KPAVCServerDesc@@U?$less@K@std@@V?$allocator@U?$pair@$$CBKPAVCServerDesc@@@std@@@3@$0A@@std@@@2@@Z 0040b730 f i DPCacheSrvr.obj
 0001:0000a740       ?_Lrotate@?$_Tree@V?$_Tmap_traits@KU_Friend@@U?$less@K@std@@V?$allocator@U?$pair@$$CBKU_Friend@@@std@@@3@$0A@@std@@@std@@IAEXPAU_Node@?$_Tree_nod@V?$_Tmap_traits@KU_Friend@@U?$less@K@std@@V?$allocator@U?$pair@$$CBKU_Friend@@@std@@@3@$0A@@std@@@2@@Z 0040b740 f i DPCacheSrvr.obj
 0001:0000a7a0       ?destroy@?$allocator@U_Node@?$_Tree_nod@V?$_Tmap_traits@KU_Friend@@U?$less@K@std@@V?$allocator@U?$pair@$$CBKU_Friend@@@std@@@3@$0A@@std@@@std@@@std@@QAEXPAU_Node@?$_Tree_nod@V?$_Tmap_traits@KU_Friend@@U?$less@K@std@@V?$allocator@U?$pair@$$CBKU_Friend@@@std@@@3@$0A@@std@@@2@@Z 0040b7a0 f i DPCacheSrvr.obj
 0001:0000a7b0       ?allocate@?$allocator@U_Node@?$_Tree_nod@V?$_Tmap_traits@KP8CDPCacheSrvr@@AEXAAVCAr@@KKK@ZU?$less@K@std@@V?$allocator@U?$pair@$$CBKP8CDPCacheSrvr@@AEXAAVCAr@@KKK@Z@std@@@4@$0A@@std@@@std@@@std@@QAEPAU_Node@?$_Tree_nod@V?$_Tmap_traits@KP8CDPCacheSrvr@@AEXAAVCAr@@KKK@ZU?$less@K@std@@V?$allocator@U?$pair@$$CBKP8CDPCacheSrvr@@AEXAAVCAr@@KKK@Z@std@@@4@$0A@@std@@@2@I@Z 0040b7b0 f i DPCacheSrvr.obj
 0001:0000a7d0       ?_Dec@const_iterator@?$_Tree@V?$_Tmap_traits@KP8CDPCacheSrvr@@AEXAAVCAr@@KKK@ZU?$less@K@std@@V?$allocator@U?$pair@$$CBKP8CDPCacheSrvr@@AEXAAVCAr@@KKK@Z@std@@@4@$0A@@std@@@std@@QAEXXZ 0040b7d0 f i DPCacheSrvr.obj
 0001:0000a830       ?_Key@?$_Tree@V?$_Tmap_traits@KU_Friend@@U?$less@K@std@@V?$allocator@U?$pair@$$CBKU_Friend@@@std@@@3@$0A@@std@@@std@@KAABKPAU_Node@?$_Tree_nod@V?$_Tmap_traits@KU_Friend@@U?$less@K@std@@V?$allocator@U?$pair@$$CBKU_Friend@@@std@@@3@$0A@@std@@@2@@Z 0040b830 f i DPCacheSrvr.obj
 0001:0000a840       ??0?$_Tree_nod@V?$_Tmap_traits@KP8CDPCacheSrvr@@AEXAAVCAr@@KKK@ZU?$less@K@std@@V?$allocator@U?$pair@$$CBKP8CDPCacheSrvr@@AEXAAVCAr@@KKK@Z@std@@@4@$0A@@std@@@std@@IAE@ABU?$less@K@1@V?$allocator@U?$pair@$$CBKP8CDPCacheSrvr@@AEXAAVCAr@@KKK@Z@std@@@1@@Z 0040b840 f i DPCacheSrvr.obj
 0001:0000a850       ?destroy@?$allocator@U_Node@?$_Tree_nod@V?$_Tmap_traits@KP8CDPCacheSrvr@@AEXAAVCAr@@KKK@ZU?$less@K@std@@V?$allocator@U?$pair@$$CBKP8CDPCacheSrvr@@AEXAAVCAr@@KKK@Z@std@@@4@$0A@@std@@@std@@@std@@QAEXPAU_Node@?$_Tree_nod@V?$_Tmap_traits@KP8CDPCacheSrvr@@AEXAAVCAr@@KKK@ZU?$less@K@std@@V?$allocator@U?$pair@$$CBKP8CDPCacheSrvr@@AEXAAVCAr@@KKK@Z@std@@@4@$0A@@std@@@2@@Z 0040b850 f i DPCacheSrvr.obj
 0001:0000a860       ?construct@?$allocator@PAU_Node@?$_Tree_nod@V?$_Tmap_traits@KP8CDPCacheSrvr@@AEXAAVCAr@@KKK@ZU?$less@K@std@@V?$allocator@U?$pair@$$CBKP8CDPCacheSrvr@@AEXAAVCAr@@KKK@Z@std@@@4@$0A@@std@@@std@@@std@@QAEXPAPAU_Node@?$_Tree_nod@V?$_Tmap_traits@KP8CDPCacheSrvr@@AEXAAVCAr@@KKK@ZU?$less@K@std@@V?$allocator@U?$pair@$$CBKP8CDPCacheSrvr@@AEXAAVCAr@@KKK@Z@std@@@4@$0A@@std@@@2@ABQAU342@@Z 0040b860 f i DPCacheSrvr.obj
 0001:0000a880       ?max_size@?$list@PAXV?$allocator@PAX@std@@@std@@QBEIXZ 0040b880 f i DPCacheSrvr.obj
 0001:0000a890       ?allocate@?$allocator@U_Node@?$_List_nod@PAXV?$allocator@PAX@std@@@std@@@std@@QAEPAU_Node@?$_List_nod@PAXV?$allocator@PAX@std@@@2@I@Z 0040b890 f i DPCacheSrvr.obj
 0001:0000a8b0       ??Econst_iterator@?$_Tree@V?$_Tmap_traits@KP8CDPCacheSrvr@@AEXAAVCAr@@KKK@ZU?$less@K@std@@V?$allocator@U?$pair@$$CBKP8CDPCacheSrvr@@AEXAAVCAr@@KKK@Z@std@@@4@$0A@@std@@@std@@QAEAAV012@XZ 0040b8b0 f i DPCacheSrvr.obj
 0001:0000a8c0       ??$_Destroy_range@KV?$allocator@K@std@@@std@@YAXPAK0AAV?$allocator@K@0@@Z 0040b8c0 f i DPCacheSrvr.obj
 0001:0000a8d0       ??$copy_backward@PAKPAK@std@@YAPAKPAK00@Z 0040b8d0 f i DPCacheSrvr.obj
 0001:0000a900       ??$_Uninit_fill_n@KIK@std@@YAXPAKIABKAAV?$allocator@K@0@U_Scalar_ptr_iterator_tag@0@@Z 0040b900 f i DPCacheSrvr.obj
 0001:0000a920       ??$_Uninitialized_copy@PAKPAKV?$allocator@K@std@@@std@@YAPAKPAK00AAV?$allocator@K@0@@Z 0040b920 f i DPCacheSrvr.obj
 0001:0000a950       ?OnGuildPenya@CDPCacheSrvr@@QAEXAAVCAr@@KKK@Z 0040b950 f   DPCacheSrvr.obj
 0001:0000aac0       ??8ATL@@YA_NABV?$CStringT@DV?$StrTraitMFC@DV?$ChTraitsCRT@D@ATL@@@@@0@0@Z 0040bac0 f i DPCacheSrvr.obj
 0001:0000aae0       ?end@?$_Tree@V?$_Tmap_traits@KPAVCServerDesc@@U?$less@K@std@@V?$allocator@U?$pair@$$CBKPAVCServerDesc@@@std@@@3@$0A@@std@@@std@@QAE?AViterator@12@XZ 0040bae0 f i DPCacheSrvr.obj
 0001:0000aaf0       ?begin@?$_Tree@V?$_Tmap_traits@KU_Friend@@U?$less@K@std@@V?$allocator@U?$pair@$$CBKU_Friend@@@std@@@3@$0A@@std@@@std@@QAE?AViterator@12@XZ 0040baf0 f i DPCacheSrvr.obj
 0001:0000ab00       ?end@?$_Tree@V?$_Tmap_traits@KU_Friend@@U?$less@K@std@@V?$allocator@U?$pair@$$CBKU_Friend@@@std@@@3@$0A@@std@@@std@@QAE?AViterator@12@XZ 0040bb00 f i DPCacheSrvr.obj
 0001:0000ab10       ?begin@?$_Tree@V?$_Tmap_traits@KPAVCGuildMember@@U?$less@K@std@@V?$allocator@U?$pair@$$CBKPAVCGuildMember@@@std@@@3@$0A@@std@@@std@@QAE?AViterator@12@XZ 0040bb10 f i DPCacheSrvr.obj
 0001:0000ab20       ?end@?$_Tree@V?$_Tmap_traits@KPAVCGuildMember@@U?$less@K@std@@V?$allocator@U?$pair@$$CBKPAVCGuildMember@@@std@@@3@$0A@@std@@@std@@QAE?AViterator@12@XZ 0040bb20 f i DPCacheSrvr.obj
 0001:0000ab30       ??Citerator@?$_Tree@V?$_Tmap_traits@KPAVCServerDesc@@U?$less@K@std@@V?$allocator@U?$pair@$$CBKPAVCServerDesc@@@std@@@3@$0A@@std@@@std@@QBEPAU?$pair@$$CBKPAVCServerDesc@@@2@XZ 0040bb30 f i DPCacheSrvr.obj
 0001:0000ab40       ?end@?$_Tree@V?$_Tmap_traits@KP8CDPCacheSrvr@@AEXAAVCAr@@KKK@ZU?$less@K@std@@V?$allocator@U?$pair@$$CBKP8CDPCacheSrvr@@AEXAAVCAr@@KKK@Z@std@@@4@$0A@@std@@@std@@QAE?AViterator@12@XZ 0040bb40 f i DPCacheSrvr.obj
 0001:0000ab50       ??Citerator@?$_Tree@V?$_Tmap_traits@KP8CDPCacheSrvr@@AEXAAVCAr@@KKK@ZU?$less@K@std@@V?$allocator@U?$pair@$$CBKP8CDPCacheSrvr@@AEXAAVCAr@@KKK@Z@std@@@4@$0A@@std@@@std@@QBEPAU?$pair@$$CBKP8CDPCacheSrvr@@AEXAAVCAr@@KKK@Z@2@XZ 0040bb50 f i DPCacheSrvr.obj
 0001:0000ab60       ?lower_bound@?$_Tree@V?$_Tmap_traits@KPAVCServerDesc@@U?$less@K@std@@V?$allocator@U?$pair@$$CBKPAVCServerDesc@@@std@@@3@$0A@@std@@@std@@QAE?AViterator@12@ABK@Z 0040bb60 f i DPCacheSrvr.obj
 0001:0000aba0       ??Diterator@?$_Tree@V?$_Tmap_traits@KU_Friend@@U?$less@K@std@@V?$allocator@U?$pair@$$CBKU_Friend@@@std@@@3@$0A@@std@@@std@@QBEAAU?$pair@$$CBKU_Friend@@@2@XZ 0040bba0 f i DPCacheSrvr.obj
 0001:0000abb0       ??Econst_iterator@?$_Tree@V?$_Tmap_traits@KU_Friend@@U?$less@K@std@@V?$allocator@U?$pair@$$CBKU_Friend@@@std@@@3@$0A@@std@@@std@@QAEAAV012@XZ 0040bbb0 f i DPCacheSrvr.obj
 0001:0000abc0       ?begin@?$vector@KV?$allocator@K@std@@@std@@QAE?AViterator@12@XZ 0040bbc0 f i DPCacheSrvr.obj
 0001:0000abd0       ?end@?$vector@KV?$allocator@K@std@@@std@@QAE?AViterator@12@XZ 0040bbd0 f i DPCacheSrvr.obj
 0001:0000abe0       ??Econst_iterator@?$_Tree@V?$_Tmap_traits@KPAVCServerDesc@@U?$less@K@std@@V?$allocator@U?$pair@$$CBKPAVCServerDesc@@@std@@@3@$0A@@std@@@std@@QAEAAV012@XZ 0040bbe0 f i DPCacheSrvr.obj
 0001:0000abf0       ?begin@?$_Tree@V?$_Tmap_traits@KP8CDPCacheSrvr@@AEXAAVCAr@@KKK@ZU?$less@K@std@@V?$allocator@U?$pair@$$CBKP8CDPCacheSrvr@@AEXAAVCAr@@KKK@Z@std@@@4@$0A@@std@@@std@@QAE?AViterator@12@XZ 0040bbf0 f i DPCacheSrvr.obj
 0001:0000ac00       ?lower_bound@?$_Tree@V?$_Tmap_traits@KP8CDPCacheSrvr@@AEXAAVCAr@@KKK@ZU?$less@K@std@@V?$allocator@U?$pair@$$CBKP8CDPCacheSrvr@@AEXAAVCAr@@KKK@Z@std@@@4@$0A@@std@@@std@@QAE?AViterator@12@ABK@Z 0040bc00 f i DPCacheSrvr.obj
 0001:0000ac40       ??Diterator@?$_Tree@V?$_Tmap_traits@KPAVCGuildMember@@U?$less@K@std@@V?$allocator@U?$pair@$$CBKPAVCGuildMember@@@std@@@3@$0A@@std@@@std@@QBEAAU?$pair@$$CBKPAVCGuildMember@@@2@XZ 0040bc40 f i DPCacheSrvr.obj
 0001:0000ac50       ??Econst_iterator@?$_Tree@V?$_Tmap_traits@KPAVCGuildMember@@U?$less@K@std@@V?$allocator@U?$pair@$$CBKPAVCGuildMember@@@std@@@3@$0A@@std@@@std@@QAEAAV012@XZ 0040bc50 f i DPCacheSrvr.obj
 0001:0000ac60       ?upper_bound@?$_Tree@V?$_Tmap_traits@KPAVCServerDesc@@U?$less@K@std@@V?$allocator@U?$pair@$$CBKPAVCServerDesc@@@std@@@3@$0A@@std@@@std@@QAE?AViterator@12@ABK@Z 0040bc60 f i DPCacheSrvr.obj
 0001:0000aca0       ?_Destroy@?$vector@KV?$allocator@K@std@@@std@@IAEXPAK0@Z 0040bca0 f i DPCacheSrvr.obj
 0001:0000acb0       ?_Buynode@?$_Tree@V?$_Tmap_traits@KP8CDPCacheSrvr@@AEXAAVCAr@@KKK@ZU?$less@K@std@@V?$allocator@U?$pair@$$CBKP8CDPCacheSrvr@@AEXAAVCAr@@KKK@Z@std@@@4@$0A@@std@@@std@@IAEPAU_Node@?$_Tree_nod@V?$_Tmap_traits@KP8CDPCacheSrvr@@AEXAAVCAr@@KKK@ZU?$less@K@std@@V?$allocator@U?$pair@$$CBKP8CDPCacheSrvr@@AEXAAVCAr@@KKK@Z@std@@@4@$0A@@std@@@2@PAU342@00ABU?$pair@$$CBKP8CDPCacheSrvr@@AEXAAVCAr@@KKK@Z@2@D@Z 0040bcb0 f i DPCacheSrvr.obj
 0001:0000acf0       ??Fconst_iterator@?$_Tree@V?$_Tmap_traits@KP8CDPCacheSrvr@@AEXAAVCAr@@KKK@ZU?$less@K@std@@V?$allocator@U?$pair@$$CBKP8CDPCacheSrvr@@AEXAAVCAr@@KKK@Z@std@@@4@$0A@@std@@@std@@QAEAAV012@XZ 0040bcf0 f i DPCacheSrvr.obj
 0001:0000ad00       ?_Erase@?$_Tree@V?$_Tmap_traits@KPAVCServerDesc@@U?$less@K@std@@V?$allocator@U?$pair@$$CBKPAVCServerDesc@@@std@@@3@$0A@@std@@@std@@IAEXPAU_Node@?$_Tree_nod@V?$_Tmap_traits@KPAVCServerDesc@@U?$less@K@std@@V?$allocator@U?$pair@$$CBKPAVCServerDesc@@@std@@@3@$0A@@std@@@2@@Z 0040bd00 f i DPCacheSrvr.obj
 0001:0000ad40       ?_Erase@?$_Tree@V?$_Tmap_traits@KU_Friend@@U?$less@K@std@@V?$allocator@U?$pair@$$CBKU_Friend@@@std@@@3@$0A@@std@@@std@@IAEXPAU_Node@?$_Tree_nod@V?$_Tmap_traits@KU_Friend@@U?$less@K@std@@V?$allocator@U?$pair@$$CBKU_Friend@@@std@@@3@$0A@@std@@@2@@Z 0040bd40 f i DPCacheSrvr.obj
 0001:0000ad80       ?_Lbound@?$_Tree@V?$_Tmap_traits@KU_Friend@@U?$less@K@std@@V?$allocator@U?$pair@$$CBKU_Friend@@@std@@@3@$0A@@std@@@std@@IBEPAU_Node@?$_Tree_nod@V?$_Tmap_traits@KU_Friend@@U?$less@K@std@@V?$allocator@U?$pair@$$CBKU_Friend@@@std@@@3@$0A@@std@@@2@ABK@Z 0040bd80 f i DPCacheSrvr.obj
 0001:0000adb0       ?_Ubound@?$_Tree@V?$_Tmap_traits@KU_Friend@@U?$less@K@std@@V?$allocator@U?$pair@$$CBKU_Friend@@@std@@@3@$0A@@std@@@std@@IBEPAU_Node@?$_Tree_nod@V?$_Tmap_traits@KU_Friend@@U?$less@K@std@@V?$allocator@U?$pair@$$CBKU_Friend@@@std@@@3@$0A@@std@@@2@ABK@Z 0040bdb0 f i DPCacheSrvr.obj
 0001:0000ade0       ?_Buynode@?$_Tree@V?$_Tmap_traits@KP8CDPCacheSrvr@@AEXAAVCAr@@KKK@ZU?$less@K@std@@V?$allocator@U?$pair@$$CBKP8CDPCacheSrvr@@AEXAAVCAr@@KKK@Z@std@@@4@$0A@@std@@@std@@IAEPAU_Node@?$_Tree_nod@V?$_Tmap_traits@KP8CDPCacheSrvr@@AEXAAVCAr@@KKK@ZU?$less@K@std@@V?$allocator@U?$pair@$$CBKP8CDPCacheSrvr@@AEXAAVCAr@@KKK@Z@std@@@4@$0A@@std@@@2@XZ 0040bde0 f i DPCacheSrvr.obj
 0001:0000ae20       ??0?$_Tree_ptr@V?$_Tmap_traits@KP8CDPCacheSrvr@@AEXAAVCAr@@KKK@ZU?$less@K@std@@V?$allocator@U?$pair@$$CBKP8CDPCacheSrvr@@AEXAAVCAr@@KKK@Z@std@@@4@$0A@@std@@@std@@IAE@ABU?$less@K@1@V?$allocator@U?$pair@$$CBKP8CDPCacheSrvr@@AEXAAVCAr@@KKK@Z@std@@@1@@Z 0040be20 f i DPCacheSrvr.obj
 0001:0000ae30       ?_Buynode@?$list@PAXV?$allocator@PAX@std@@@std@@IAEPAU_Node@?$_List_nod@PAXV?$allocator@PAX@std@@@2@PAU342@0ABQAX@Z 0040be30 f i DPCacheSrvr.obj
 0001:0000ae60       ?_Erase@?$_Tree@V?$_Tmap_traits@KP8CDPCacheSrvr@@AEXAAVCAr@@KKK@ZU?$less@K@std@@V?$allocator@U?$pair@$$CBKP8CDPCacheSrvr@@AEXAAVCAr@@KKK@Z@std@@@4@$0A@@std@@@std@@IAEXPAU_Node@?$_Tree_nod@V?$_Tmap_traits@KP8CDPCacheSrvr@@AEXAAVCAr@@KKK@ZU?$less@K@std@@V?$allocator@U?$pair@$$CBKP8CDPCacheSrvr@@AEXAAVCAr@@KKK@Z@std@@@4@$0A@@std@@@2@@Z 0040be60 f i DPCacheSrvr.obj
 0001:0000aea0       ??Eiterator@?$_Tree@V?$_Tmap_traits@KP8CDPCacheSrvr@@AEXAAVCAr@@KKK@ZU?$less@K@std@@V?$allocator@U?$pair@$$CBKP8CDPCacheSrvr@@AEXAAVCAr@@KKK@Z@std@@@4@$0A@@std@@@std@@QAEAAV012@XZ 0040bea0 f i DPCacheSrvr.obj
 0001:0000aeb0       ??$_Uninitialized_fill_n@PAKIKV?$allocator@K@std@@@std@@YAXPAKIABKAAV?$allocator@K@0@@Z 0040beb0 f i DPCacheSrvr.obj
 0001:0000aed0       ??$_Ucopy@PAK@?$vector@KV?$allocator@K@std@@@std@@IAEPAKPAK00@Z 0040bed0 f i DPCacheSrvr.obj
 0001:0000af00       ??0?$CStringT@DV?$StrTraitMFC@DV?$ChTraitsCRT@D@ATL@@@@@ATL@@QAE@XZ 0040bf00 f i DPCacheSrvr.obj
 0001:0000af20       ??Citerator@?$_Tree@V?$_Tmap_traits@KU_Friend@@U?$less@K@std@@V?$allocator@U?$pair@$$CBKU_Friend@@@std@@@3@$0A@@std@@@std@@QBEPAU?$pair@$$CBKU_Friend@@@2@XZ 0040bf20 f i DPCacheSrvr.obj
 0001:0000af30       ??Eiterator@?$_Tree@V?$_Tmap_traits@KU_Friend@@U?$less@K@std@@V?$allocator@U?$pair@$$CBKU_Friend@@@std@@@3@$0A@@std@@@std@@QAEAAV012@XZ 0040bf30 f i DPCacheSrvr.obj
 0001:0000af40       ??A?$vector@KV?$allocator@K@std@@@std@@QAEAAKI@Z 0040bf40 f i DPCacheSrvr.obj
 0001:0000af50       ??Eiterator@?$_Tree@V?$_Tmap_traits@KPAVCServerDesc@@U?$less@K@std@@V?$allocator@U?$pair@$$CBKPAVCServerDesc@@@std@@@3@$0A@@std@@@std@@QAEAAV012@XZ 0040bf50 f i DPCacheSrvr.obj
 0001:0000af60       ?find@?$_Tree@V?$_Tmap_traits@KP8CDPCacheSrvr@@AEXAAVCAr@@KKK@ZU?$less@K@std@@V?$allocator@U?$pair@$$CBKP8CDPCacheSrvr@@AEXAAVCAr@@KKK@Z@std@@@4@$0A@@std@@@std@@QAE?AViterator@12@ABK@Z 0040bf60 f i DPCacheSrvr.obj
 0001:0000afd0       ??Citerator@?$_Tree@V?$_Tmap_traits@KPAVCGuildMember@@U?$less@K@std@@V?$allocator@U?$pair@$$CBKPAVCGuildMember@@@std@@@3@$0A@@std@@@std@@QBEPAU?$pair@$$CBKPAVCGuildMember@@@2@XZ 0040bfd0 f i DPCacheSrvr.obj
 0001:0000afe0       ??Eiterator@?$_Tree@V?$_Tmap_traits@KPAVCGuildMember@@U?$less@K@std@@V?$allocator@U?$pair@$$CBKPAVCGuildMember@@@std@@@3@$0A@@std@@@std@@QAEAAV012@XZ 0040bfe0 f i DPCacheSrvr.obj
 0001:0000aff0       ?equal_range@?$_Tree@V?$_Tmap_traits@KPAVCServerDesc@@U?$less@K@std@@V?$allocator@U?$pair@$$CBKPAVCServerDesc@@@std@@@3@$0A@@std@@@std@@QAE?AU?$pair@Viterator@?$_Tree@V?$_Tmap_traits@KPAVCServerDesc@@U?$less@K@std@@V?$allocator@U?$pair@$$CBKPAVCServerDesc@@@std@@@3@$0A@@std@@@std@@V123@@2@ABK@Z 0040bff0 f i DPCacheSrvr.obj
 0001:0000b060       ?_Tidy@?$vector@KV?$allocator@K@std@@@std@@IAEXXZ 0040c060 f i DPCacheSrvr.obj
 0001:0000b090       ?_Ufill@?$vector@KV?$allocator@K@std@@@std@@IAEPAKPAKIABK@Z 0040c090 f i DPCacheSrvr.obj
 0001:0000b0c0       ??Fiterator@?$_Tree@V?$_Tmap_traits@KP8CDPCacheSrvr@@AEXAAVCAr@@KKK@ZU?$less@K@std@@V?$allocator@U?$pair@$$CBKP8CDPCacheSrvr@@AEXAAVCAr@@KKK@Z@std@@@4@$0A@@std@@@std@@QAEAAV012@XZ 0040c0c0 f i DPCacheSrvr.obj
 0001:0000b0d0       ?clear@?$_Tree@V?$_Tmap_traits@KPAVCServerDesc@@U?$less@K@std@@V?$allocator@U?$pair@$$CBKPAVCServerDesc@@@std@@@3@$0A@@std@@@std@@QAEXXZ 0040c0d0 f i DPCacheSrvr.obj
 0001:0000b100       ?clear@?$_Tree@V?$_Tmap_traits@KU_Friend@@U?$less@K@std@@V?$allocator@U?$pair@$$CBKU_Friend@@@std@@@3@$0A@@std@@@std@@QAEXXZ 0040c100 f i DPCacheSrvr.obj
 0001:0000b130       ?lower_bound@?$_Tree@V?$_Tmap_traits@KU_Friend@@U?$less@K@std@@V?$allocator@U?$pair@$$CBKU_Friend@@@std@@@3@$0A@@std@@@std@@QAE?AViterator@12@ABK@Z 0040c130 f i DPCacheSrvr.obj
 0001:0000b170       ?upper_bound@?$_Tree@V?$_Tmap_traits@KU_Friend@@U?$less@K@std@@V?$allocator@U?$pair@$$CBKU_Friend@@@std@@@3@$0A@@std@@@std@@QAE?AViterator@12@ABK@Z 0040c170 f i DPCacheSrvr.obj
 0001:0000b1b0       ??Eiterator@?$_Tree@V?$_Tmap_traits@KU_Friend@@U?$less@K@std@@V?$allocator@U?$pair@$$CBKU_Friend@@@std@@@3@$0A@@std@@@std@@QAE?AV012@H@Z 0040c1b0 f i DPCacheSrvr.obj
 0001:0000b1d0       ??Eiterator@?$_Tree@V?$_Tmap_traits@KPAVCServerDesc@@U?$less@K@std@@V?$allocator@U?$pair@$$CBKPAVCServerDesc@@@std@@@3@$0A@@std@@@std@@QAE?AV012@H@Z 0040c1d0 f i DPCacheSrvr.obj
 0001:0000b1f0       ?_Init@?$_Tree@V?$_Tmap_traits@KP8CDPCacheSrvr@@AEXAAVCAr@@KKK@ZU?$less@K@std@@V?$allocator@U?$pair@$$CBKP8CDPCacheSrvr@@AEXAAVCAr@@KKK@Z@std@@@4@$0A@@std@@@std@@IAEXXZ 0040c1f0 f i DPCacheSrvr.obj
 0001:0000b220       ??0?$_Tree_val@V?$_Tmap_traits@KP8CDPCacheSrvr@@AEXAAVCAr@@KKK@ZU?$less@K@std@@V?$allocator@U?$pair@$$CBKP8CDPCacheSrvr@@AEXAAVCAr@@KKK@Z@std@@@4@$0A@@std@@@std@@IAE@ABU?$less@K@1@V?$allocator@U?$pair@$$CBKP8CDPCacheSrvr@@AEXAAVCAr@@KKK@Z@std@@@1@@Z 0040c220 f i DPCacheSrvr.obj
 0001:0000b230       ?clear@?$_Tree@V?$_Tmap_traits@KP8CDPCacheSrvr@@AEXAAVCAr@@KKK@ZU?$less@K@std@@V?$allocator@U?$pair@$$CBKP8CDPCacheSrvr@@AEXAAVCAr@@KKK@Z@std@@@4@$0A@@std@@@std@@QAEXXZ 0040c230 f i DPCacheSrvr.obj
 0001:0000b260       ??Eiterator@?$_Tree@V?$_Tmap_traits@KP8CDPCacheSrvr@@AEXAAVCAr@@KKK@ZU?$less@K@std@@V?$allocator@U?$pair@$$CBKP8CDPCacheSrvr@@AEXAAVCAr@@KKK@Z@std@@@4@$0A@@std@@@std@@QAE?AV012@H@Z 0040c260 f i DPCacheSrvr.obj
 0001:0000b280       ??$_Distance2@Viterator@?$_Tree@V?$_Tmap_traits@KPAVCServerDesc@@U?$less@K@std@@V?$allocator@U?$pair@$$CBKPAVCServerDesc@@@std@@@3@$0A@@std@@@std@@I@std@@YAXViterator@?$_Tree@V?$_Tmap_traits@KPAVCServerDesc@@U?$less@K@std@@V?$allocator@U?$pair@$$CBKPAVCServerDesc@@@std@@@3@$0A@@std@@@0@0AAIUbidirectional_iterator_tag@0@@Z 0040c280 f i DPCacheSrvr.obj
 0001:0000b2b0       ??$_Distance2@Viterator@?$_Tree@V?$_Tmap_traits@KU_Friend@@U?$less@K@std@@V?$allocator@U?$pair@$$CBKU_Friend@@@std@@@3@$0A@@std@@@std@@I@std@@YAXViterator@?$_Tree@V?$_Tmap_traits@KU_Friend@@U?$less@K@std@@V?$allocator@U?$pair@$$CBKU_Friend@@@std@@@3@$0A@@std@@@0@0AAIUbidirectional_iterator_tag@0@@Z 0040c2b0 f i DPCacheSrvr.obj
 0001:0000b2e0       ?GetHandler@CDPCacheSrvr@@AAEP81@AEXAAVCAr@@KKK@ZK@Z 0040c2e0 f i DPCacheSrvr.obj
 0001:0000b310       ?UserMessageHandler@CDPCacheSrvr@@UAEXPAUDPMSG_GENERIC@@KK@Z 0040c310 f   DPCacheSrvr.obj
 0001:0000b410       ?SendProcServerList@CDPCacheSrvr@@QAEXK@Z 0040c410 f   DPCacheSrvr.obj
 0001:0000b560       ?OnDestroyGuild@CDPCacheSrvr@@QAEXAAVCAr@@KKK@Z 0040c560 f   DPCacheSrvr.obj
 0001:0000b780       ?OnRemoveGuildMember@CDPCacheSrvr@@QAEXAAVCAr@@KKK@Z 0040c780 f   DPCacheSrvr.obj
 0001:0000ba60       ?OnGuildMemberLv@CDPCacheSrvr@@QAEXAAVCAr@@KKK@Z 0040ca60 f   DPCacheSrvr.obj
 0001:0000bda0       ?OnGuildClass@CDPCacheSrvr@@QAEXAAVCAr@@KKK@Z 0040cda0 f   DPCacheSrvr.obj
 0001:0000c020       ?OnChgMaster@CDPCacheSrvr@@QAEXAAVCAr@@KKK@Z 0040d020 f   DPCacheSrvr.obj
 0001:0000c2b0       ?OnGuildNickName@CDPCacheSrvr@@QAEXAAVCAr@@KKK@Z 0040d2b0 f   DPCacheSrvr.obj
 0001:0000c530       ?SendSurrender@CDPCacheSrvr@@AAEXKPAVCGuild@@0KPBDH@Z 0040d530 f   DPCacheSrvr.obj
 0001:0000c620       ?OnAcptWar@CDPCacheSrvr@@AAEXAAVCAr@@KKK@Z 0040d620 f   DPCacheSrvr.obj
 0001:0000c9e0       ??1?$vector@KV?$allocator@K@std@@@std@@QAE@XZ 0040d9e0 f i DPCacheSrvr.obj
 0001:0000ca10       ?equal_range@?$_Tree@V?$_Tmap_traits@KU_Friend@@U?$less@K@std@@V?$allocator@U?$pair@$$CBKU_Friend@@@std@@@3@$0A@@std@@@std@@QAE?AU?$pair@Viterator@?$_Tree@V?$_Tmap_traits@KU_Friend@@U?$less@K@std@@V?$allocator@U?$pair@$$CBKU_Friend@@@std@@@3@$0A@@std@@@std@@V123@@2@ABK@Z 0040da10 f i DPCacheSrvr.obj
 0001:0000ca80       ??0?$_Tree@V?$_Tmap_traits@KP8CDPCacheSrvr@@AEXAAVCAr@@KKK@ZU?$less@K@std@@V?$allocator@U?$pair@$$CBKP8CDPCacheSrvr@@AEXAAVCAr@@KKK@Z@std@@@4@$0A@@std@@@std@@QAE@ABU?$less@K@1@ABV?$allocator@U?$pair@$$CBKP8CDPCacheSrvr@@AEXAAVCAr@@KKK@Z@std@@@1@@Z 0040da80 f i DPCacheSrvr.obj
 0001:0000cab0       ??$_Distance@Viterator@?$_Tree@V?$_Tmap_traits@KPAVCServerDesc@@U?$less@K@std@@V?$allocator@U?$pair@$$CBKPAVCServerDesc@@@std@@@3@$0A@@std@@@std@@I@std@@YAXViterator@?$_Tree@V?$_Tmap_traits@KPAVCServerDesc@@U?$less@K@std@@V?$allocator@U?$pair@$$CBKPAVCServerDesc@@@std@@@3@$0A@@std@@@0@0AAI@Z 0040dab0 f i DPCacheSrvr.obj
 0001:0000caf0       ??$_Distance@Viterator@?$_Tree@V?$_Tmap_traits@KU_Friend@@U?$less@K@std@@V?$allocator@U?$pair@$$CBKU_Friend@@@std@@@3@$0A@@std@@@std@@I@std@@YAXViterator@?$_Tree@V?$_Tmap_traits@KU_Friend@@U?$less@K@std@@V?$allocator@U?$pair@$$CBKU_Friend@@@std@@@3@$0A@@std@@@0@0AAI@Z 0040daf0 f i DPCacheSrvr.obj
 0001:0000cb30       ?OnSurrender@CDPCacheSrvr@@AAEXAAVCAr@@KKK@Z 0040db30 f   DPCacheSrvr.obj
 0001:0000cdb0       ??0out_of_range@std@@QAE@ABV?$basic_string@DU?$char_traits@D@std@@V?$allocator@D@2@@1@@Z 0040ddb0 f i DPCacheSrvr.obj
 0001:0000cdd0       ??_Gout_of_range@std@@UAEPAXI@Z 0040ddd0 f i DPCacheSrvr.obj
 0001:0000cdd0       ??_Eout_of_range@std@@UAEPAXI@Z 0040ddd0 f i DPCacheSrvr.obj
 0001:0000cdf0       ??1out_of_range@std@@UAE@XZ 0040ddf0 f i DPCacheSrvr.obj
 0001:0000ce30       ?OnGuildSetName@CDPCacheSrvr@@QAEXAAVCAr@@KKK@Z 0040de30 f   DPCacheSrvr.obj
 0001:0000d070       ?_Insert@?$_Tree@V?$_Tmap_traits@KP8CDPCacheSrvr@@AEXAAVCAr@@KKK@ZU?$less@K@std@@V?$allocator@U?$pair@$$CBKP8CDPCacheSrvr@@AEXAAVCAr@@KKK@Z@std@@@4@$0A@@std@@@std@@IAE?AViterator@12@_NPAU_Node@?$_Tree_nod@V?$_Tmap_traits@KP8CDPCacheSrvr@@AEXAAVCAr@@KKK@ZU?$less@K@std@@V?$allocator@U?$pair@$$CBKP8CDPCacheSrvr@@AEXAAVCAr@@KKK@Z@std@@@4@$0A@@std@@@2@ABU?$pair@$$CBKP8CDPCacheSrvr@@AEXAAVCAr@@KKK@Z@2@@Z 0040e070 f i DPCacheSrvr.obj
 0001:0000d220       ?erase@?$_Tree@V?$_Tmap_traits@KPAVCServerDesc@@U?$less@K@std@@V?$allocator@U?$pair@$$CBKPAVCServerDesc@@@std@@@3@$0A@@std@@@std@@QAE?AViterator@12@V312@@Z 0040e220 f i DPCacheSrvr.obj
 0001:0000d4e0       ??0out_of_range@std@@QAE@ABV01@@Z 0040e4e0 f i DPCacheSrvr.obj
 0001:0000d500       ?erase@?$_Tree@V?$_Tmap_traits@KU_Friend@@U?$less@K@std@@V?$allocator@U?$pair@$$CBKU_Friend@@@std@@@3@$0A@@std@@@std@@QAE?AViterator@12@V312@@Z 0040e500 f i DPCacheSrvr.obj
 0001:0000d7c0       ?_Xlen@?$vector@KV?$allocator@K@std@@@std@@IBEXXZ 0040e7c0 f i DPCacheSrvr.obj
 0001:0000d830       ?erase@?$_Tree@V?$_Tmap_traits@KP8CDPCacheSrvr@@AEXAAVCAr@@KKK@ZU?$less@K@std@@V?$allocator@U?$pair@$$CBKP8CDPCacheSrvr@@AEXAAVCAr@@KKK@Z@std@@@4@$0A@@std@@@std@@QAE?AViterator@12@V312@@Z 0040e830 f i DPCacheSrvr.obj
 0001:0000daf0       ?_Incsize@?$list@PAXV?$allocator@PAX@std@@@std@@IAEXI@Z 0040eaf0 f i DPCacheSrvr.obj
 0001:0000db90       ?insert@?$_Tree@V?$_Tmap_traits@KP8CDPCacheSrvr@@AEXAAVCAr@@KKK@ZU?$less@K@std@@V?$allocator@U?$pair@$$CBKP8CDPCacheSrvr@@AEXAAVCAr@@KKK@Z@std@@@4@$0A@@std@@@std@@QAE?AU?$pair@Viterator@?$_Tree@V?$_Tmap_traits@KP8CDPCacheSrvr@@AEXAAVCAr@@KKK@ZU?$less@K@std@@V?$allocator@U?$pair@$$CBKP8CDPCacheSrvr@@AEXAAVCAr@@KKK@Z@std@@@4@$0A@@std@@@std@@_N@2@ABU?$pair@$$CBKP8CDPCacheSrvr@@AEXAAVCAr@@KKK@Z@2@@Z 0040eb90 f i DPCacheSrvr.obj
 0001:0000dc50       ?erase@?$_Tree@V?$_Tmap_traits@KPAVCServerDesc@@U?$less@K@std@@V?$allocator@U?$pair@$$CBKPAVCServerDesc@@@std@@@3@$0A@@std@@@std@@QAE?AViterator@12@V312@0@Z 0040ec50 f i DPCacheSrvr.obj
 0001:0000dd10       ?erase@?$_Tree@V?$_Tmap_traits@KU_Friend@@U?$less@K@std@@V?$allocator@U?$pair@$$CBKU_Friend@@@std@@@3@$0A@@std@@@std@@QAE?AViterator@12@V312@0@Z 0040ed10 f i DPCacheSrvr.obj
 0001:0000ddd0       ?_Buy@?$vector@KV?$allocator@K@std@@@std@@IAE_NI@Z 0040edd0 f i DPCacheSrvr.obj
 0001:0000de20       ?_Insert_n@?$vector@KV?$allocator@K@std@@@std@@IAEXViterator@12@IABK@Z 0040ee20 f i DPCacheSrvr.obj
 0001:0000e000       ?erase@?$_Tree@V?$_Tmap_traits@KP8CDPCacheSrvr@@AEXAAVCAr@@KKK@ZU?$less@K@std@@V?$allocator@U?$pair@$$CBKP8CDPCacheSrvr@@AEXAAVCAr@@KKK@Z@std@@@4@$0A@@std@@@std@@QAE?AViterator@12@V312@0@Z 0040f000 f i DPCacheSrvr.obj
 0001:0000e0c0       ?_Insert@?$list@PAXV?$allocator@PAX@std@@@std@@QAEXViterator@12@ABQAX@Z 0040f0c0 f i DPCacheSrvr.obj
 0001:0000e100       ?OnAddConnection@CDPCacheSrvr@@AAEXK@Z 0040f100 f   DPCacheSrvr.obj
 0001:0000e240       ?erase@?$_Tree@V?$_Tmap_traits@KPAVCServerDesc@@U?$less@K@std@@V?$allocator@U?$pair@$$CBKPAVCServerDesc@@@std@@@3@$0A@@std@@@std@@QAEIABK@Z 0040f240 f i DPCacheSrvr.obj
 0001:0000e2a0       ?erase@?$_Tree@V?$_Tmap_traits@KU_Friend@@U?$less@K@std@@V?$allocator@U?$pair@$$CBKU_Friend@@@std@@@3@$0A@@std@@@std@@QAEIABK@Z 0040f2a0 f i DPCacheSrvr.obj
 0001:0000e300       ??0?$vector@KV?$allocator@K@std@@@std@@QAE@XZ 0040f300 f i DPCacheSrvr.obj
 0001:0000e310       ?insert@?$vector@KV?$allocator@K@std@@@std@@QAE?AViterator@12@V312@ABK@Z 0040f310 f i DPCacheSrvr.obj
 0001:0000e360       ?_Tidy@?$_Tree@V?$_Tmap_traits@KP8CDPCacheSrvr@@AEXAAVCAr@@KKK@ZU?$less@K@std@@V?$allocator@U?$pair@$$CBKP8CDPCacheSrvr@@AEXAAVCAr@@KKK@Z@std@@@4@$0A@@std@@@std@@IAEXXZ 0040f360 f i DPCacheSrvr.obj
 0001:0000e390       ?push_back@?$list@PAXV?$allocator@PAX@std@@@std@@QAEXABQAX@Z 0040f390 f i DPCacheSrvr.obj
 0001:0000e3d0       ?RemoveFriend@CRTMessenger@@QAEXK@Z 0040f3d0 f i DPCacheSrvr.obj
 0001:0000e3e0       ?OnRemoveConnection@CDPCacheSrvr@@AAEXK@Z 0040f3e0 f   DPCacheSrvr.obj
 0001:0000e460       ?OnRemoveFriend@CDPCacheSrvr@@AAEXAAVCAr@@KKK@Z 0040f460 f   DPCacheSrvr.obj
 0001:0000e670       ?push_back@?$vector@KV?$allocator@K@std@@@std@@QAEXABK@Z 0040f670 f i DPCacheSrvr.obj
 0001:0000e6c0       ??1?$_Tree@V?$_Tmap_traits@KP8CDPCacheSrvr@@AEXAAVCAr@@KKK@ZU?$less@K@std@@V?$allocator@U?$pair@$$CBKP8CDPCacheSrvr@@AEXAAVCAr@@KKK@Z@std@@@4@$0A@@std@@@std@@QAE@XZ 0040f6c0 f i DPCacheSrvr.obj
 0001:0000e6f0       ?Create@?$MemPooler@VCGuildMember@@@@IAEXXZ 0040f6f0 f i DPCacheSrvr.obj
 0001:0000e780       ??1?$map@KP8CDPCacheSrvr@@AEXAAVCAr@@KKK@ZU?$less@K@std@@V?$allocator@U?$pair@$$CBKP8CDPCacheSrvr@@AEXAAVCAr@@KKK@Z@std@@@4@@std@@QAE@XZ 0040f780 f i DPCacheSrvr.obj
 0001:0000e7b0       ??1CDPCacheSrvr@@UAE@XZ    0040f7b0 f   DPCacheSrvr.obj
 0001:0000e840       ?SysMessageHandler@CDPCacheSrvr@@UAEXPAUDPMSG_GENERIC@@KK@Z 0040f840 f   DPCacheSrvr.obj
 0001:0000e870       ?SendFriendState@CDPCacheSrvr@@QAEXPAVCPlayer@@@Z 0040f870 f   DPCacheSrvr.obj
 0001:0000ecc0       ?SendSetFriendState@CDPCacheSrvr@@QAEXPAVCPlayer@@@Z 0040fcc0 f   DPCacheSrvr.obj
 0001:0000f010       ?OnGetFriendState@CDPCacheSrvr@@AAEXAAVCAr@@KKK@Z 00410010 f   DPCacheSrvr.obj
 0001:0000f0a0       ?OnSetFrinedState@CDPCacheSrvr@@AAEXAAVCAr@@KKK@Z 004100a0 f   DPCacheSrvr.obj
 0001:0000f170       ?Alloc@?$MemPooler@VCGuildMember@@@@QAEPAVCGuildMember@@XZ 00410170 f i DPCacheSrvr.obj
 0001:0000f1b0       ??0?$map@KP8CDPCacheSrvr@@AEXAAVCAr@@KKK@ZU?$less@K@std@@V?$allocator@U?$pair@$$CBKP8CDPCacheSrvr@@AEXAAVCAr@@KKK@Z@std@@@4@@std@@QAE@XZ 004101b0 f i DPCacheSrvr.obj
 0001:0000f1e0       ??2CGuildMember@@SAPAXI@Z  004101e0 f i DPCacheSrvr.obj
 0001:0000f220       ??_ECDPCacheSrvr@@UAEPAXI@Z 00410220 f i DPCacheSrvr.obj
 0001:0000f220       ??_GCDPCacheSrvr@@UAEPAXI@Z 00410220 f i DPCacheSrvr.obj
 0001:0000f240       ?OnAddGuildMember@CDPCacheSrvr@@QAEXAAVCAr@@KKK@Z 00410240 f   DPCacheSrvr.obj
 0001:0000f650       ??0CDPCacheSrvr@@QAE@XZ    00410650 f   DPCacheSrvr.obj
 0001:0000fb40       ??6CAr@@QAEAAV0@N@Z        00410b40 f i DPCoreSrvr.obj
 0001:0000fb70       ??5CAr@@QAEAAV0@AAM@Z      00410b70 f i DPCoreSrvr.obj
 0001:0000fbb0       ??5@YAAAVCAr@@AAV0@AAUD3DXVECTOR3@@@Z 00410bb0 f i DPCoreSrvr.obj
 0001:0000fbd0       ??6@YAAAVCAr@@AAV0@_J@Z    00410bd0 f i DPCoreSrvr.obj
 0001:0000fbf0       ?GetIdofMulti@CServerDesc@@QAEKXZ 00410bf0 f i DPCoreSrvr.obj
 0001:0000fc00       ??0INSTACNEDUNGEON_INFO@@QAE@KK@Z 00410c00 f i DPCoreSrvr.obj
 0001:0000fc20       ?Serialize@INSTACNEDUNGEON_INFO@@QAEXAAVCAr@@@Z 00410c20 f i DPCoreSrvr.obj
 0001:0000fcc0       ??0COOLTIME_INFO@@QAE@XZ   00410cc0 f i DPCoreSrvr.obj
 0001:0000fce0       ?Serialize@COOLTIME_INFO@@QAEXAAVCAr@@@Z 00410ce0 f i DPCoreSrvr.obj
 0001:0000fdc0       ?SetEnvironmentEffect@CEnvironment@@QAEXH@Z 00410dc0 f i DPCoreSrvr.obj
 0001:0000fdd0       ?OnSystem@CDPCoreSrvr@@AAEXAAVCAr@@KKKK@Z 00410dd0 f   DPCoreSrvr.obj
 0001:0000fe20       ?OnFallRain@CDPCoreSrvr@@AAEXAAVCAr@@KKKK@Z 00410e20 f   DPCoreSrvr.obj
 0001:0000fe40       ?OnGuildMsgControl@CDPCoreSrvr@@QAEXAAVCAr@@KKKK@Z 00410e40 f   DPCoreSrvr.obj
 0001:0000fec0       ??_H@YGXPAXIHP6EPAX0@Z@Z   00410ec0 f i DPCoreSrvr.obj
 0001:0000fef0       ?UpdateWantedList@CDPCoreSrvr@@QAEXXZ 00410ef0 f   DPCoreSrvr.obj
 0001:0000ff00       ?Free@?$MemPooler@VCGuild@@@@QAEHPAVCGuild@@@Z 00410f00 f i DPCoreSrvr.obj
 0001:0000ff50       ??8const_iterator@?$_Tree@V?$_Tmap_traits@KPAVCCtrl@@U?$less@K@std@@V?$allocator@U?$pair@$$CBKPAVCCtrl@@@std@@@3@$0A@@std@@@std@@QBE_NABV012@@Z 00410f50 f i DPCoreSrvr.obj
 0001:0000ff60       ??0?$pair@$$CBKP8CDPCoreSrvr@@AEXAAVCAr@@KKKK@Z@std@@QAE@ABKABQ8CDPCoreSrvr@@AEXAAVCAr@@KKKK@Z@Z 00410f60 f i DPCoreSrvr.obj
 0001:0000ff80       ??0?$pair@$$CBKK@std@@QAE@ABK0@Z 00410f80 f i DPCoreSrvr.obj
 0001:0000ffa0       ?_Isnil@?$_Tree@V?$_Tmap_traits@KPAVCCtrl@@U?$less@K@std@@V?$allocator@U?$pair@$$CBKPAVCCtrl@@@std@@@3@$0A@@std@@@std@@KAAADPAU_Node@?$_Tree_nod@V?$_Tmap_traits@KPAVCCtrl@@U?$less@K@std@@V?$allocator@U?$pair@$$CBKPAVCCtrl@@@std@@@3@$0A@@std@@@2@@Z 00410fa0 f i DPCoreSrvr.obj
 0001:0000ffb0       ?_Left@?$_Tree@V?$_Tmap_traits@KPAVCCtrl@@U?$less@K@std@@V?$allocator@U?$pair@$$CBKPAVCCtrl@@@std@@@3@$0A@@std@@@std@@KAAAPAU_Node@?$_Tree_nod@V?$_Tmap_traits@KPAVCCtrl@@U?$less@K@std@@V?$allocator@U?$pair@$$CBKPAVCCtrl@@@std@@@3@$0A@@std@@@2@PAU342@@Z 00410fb0 f i DPCoreSrvr.obj
 0001:0000ffc0       ?_Right@?$_Tree@V?$_Tmap_traits@KPAVCCtrl@@U?$less@K@std@@V?$allocator@U?$pair@$$CBKPAVCCtrl@@@std@@@3@$0A@@std@@@std@@KAAAPAU_Node@?$_Tree_nod@V?$_Tmap_traits@KPAVCCtrl@@U?$less@K@std@@V?$allocator@U?$pair@$$CBKPAVCCtrl@@@std@@@3@$0A@@std@@@2@PAU342@@Z 00410fc0 f i DPCoreSrvr.obj
 0001:0000ffd0       ??0?$allocator@U?$pair@$$CBKPAVCCtrl@@@std@@@std@@QAE@XZ 00410fd0 f i DPCoreSrvr.obj
 0001:0000ffe0       ?_Mynode@const_iterator@?$_Tree@V?$_Tmap_traits@KPAVCCtrl@@U?$less@K@std@@V?$allocator@U?$pair@$$CBKPAVCCtrl@@@std@@@3@$0A@@std@@@std@@QBEPAU_Node@?$_Tree_nod@V?$_Tmap_traits@KPAVCCtrl@@U?$less@K@std@@V?$allocator@U?$pair@$$CBKPAVCCtrl@@@std@@@3@$0A@@std@@@3@XZ 00410fe0 f i DPCoreSrvr.obj
 0001:0000fff0       ?_Isnil@?$_Tree@V?$_Tmap_traits@KKU?$less@K@std@@V?$allocator@U?$pair@$$CBKK@std@@@2@$0A@@std@@@std@@KAAADPAU_Node@?$_Tree_nod@V?$_Tmap_traits@KKU?$less@K@std@@V?$allocator@U?$pair@$$CBKK@std@@@2@$0A@@std@@@2@@Z 00410ff0 f i DPCoreSrvr.obj
 0001:00010000       ?_Left@?$_Tree@V?$_Tmap_traits@KKU?$less@K@std@@V?$allocator@U?$pair@$$CBKK@std@@@2@$0A@@std@@@std@@KAAAPAU_Node@?$_Tree_nod@V?$_Tmap_traits@KKU?$less@K@std@@V?$allocator@U?$pair@$$CBKK@std@@@2@$0A@@std@@@2@PAU342@@Z 00411000 f i DPCoreSrvr.obj
 0001:00010010       ?_Right@?$_Tree@V?$_Tmap_traits@KKU?$less@K@std@@V?$allocator@U?$pair@$$CBKK@std@@@2@$0A@@std@@@std@@KAAAPAU_Node@?$_Tree_nod@V?$_Tmap_traits@KKU?$less@K@std@@V?$allocator@U?$pair@$$CBKK@std@@@2@$0A@@std@@@2@PAU342@@Z 00411010 f i DPCoreSrvr.obj
 0001:00010020       ?_Kfn@?$_Tmap_traits@KKU?$less@K@std@@V?$allocator@U?$pair@$$CBKK@std@@@2@$0A@@std@@SAABKABU?$pair@$$CBKK@2@@Z 00411020 f i DPCoreSrvr.obj
 0001:00010030       ??0?$allocator@U?$pair@$$CBKK@std@@@std@@QAE@XZ 00411030 f i DPCoreSrvr.obj
 0001:00010040       ?_Isnil@?$_Tree@V?$_Tmap_traits@KP8CDPCoreSrvr@@AEXAAVCAr@@KKKK@ZU?$less@K@std@@V?$allocator@U?$pair@$$CBKP8CDPCoreSrvr@@AEXAAVCAr@@KKKK@Z@std@@@4@$0A@@std@@@std@@KAAADPAU_Node@?$_Tree_nod@V?$_Tmap_traits@KP8CDPCoreSrvr@@AEXAAVCAr@@KKKK@ZU?$less@K@std@@V?$allocator@U?$pair@$$CBKP8CDPCoreSrvr@@AEXAAVCAr@@KKKK@Z@std@@@4@$0A@@std@@@2@@Z 00411040 f i DPCoreSrvr.obj
 0001:00010050       ?_Left@?$_Tree@V?$_Tmap_traits@KP8CDPCoreSrvr@@AEXAAVCAr@@KKKK@ZU?$less@K@std@@V?$allocator@U?$pair@$$CBKP8CDPCoreSrvr@@AEXAAVCAr@@KKKK@Z@std@@@4@$0A@@std@@@std@@KAAAPAU_Node@?$_Tree_nod@V?$_Tmap_traits@KP8CDPCoreSrvr@@AEXAAVCAr@@KKKK@ZU?$less@K@std@@V?$allocator@U?$pair@$$CBKP8CDPCoreSrvr@@AEXAAVCAr@@KKKK@Z@std@@@4@$0A@@std@@@2@PAU342@@Z 00411050 f i DPCoreSrvr.obj
 0001:00010060       ?_Right@?$_Tree@V?$_Tmap_traits@KP8CDPCoreSrvr@@AEXAAVCAr@@KKKK@ZU?$less@K@std@@V?$allocator@U?$pair@$$CBKP8CDPCoreSrvr@@AEXAAVCAr@@KKKK@Z@std@@@4@$0A@@std@@@std@@KAAAPAU_Node@?$_Tree_nod@V?$_Tmap_traits@KP8CDPCoreSrvr@@AEXAAVCAr@@KKKK@ZU?$less@K@std@@V?$allocator@U?$pair@$$CBKP8CDPCoreSrvr@@AEXAAVCAr@@KKKK@Z@std@@@4@$0A@@std@@@2@PAU342@@Z 00411060 f i DPCoreSrvr.obj
 0001:00010070       ?_Kfn@?$_Tmap_traits@KP8CDPCoreSrvr@@AEXAAVCAr@@KKKK@ZU?$less@K@std@@V?$allocator@U?$pair@$$CBKP8CDPCoreSrvr@@AEXAAVCAr@@KKKK@Z@std@@@4@$0A@@std@@SAABKABU?$pair@$$CBKP8CDPCoreSrvr@@AEXAAVCAr@@KKKK@Z@2@@Z 00411070 f i DPCoreSrvr.obj
 0001:00010080       ??0?$allocator@U?$pair@$$CBKP8CDPCoreSrvr@@AEXAAVCAr@@KKKK@Z@std@@@std@@QAE@XZ 00411080 f i DPCoreSrvr.obj
 0001:00010090       ??8const_iterator@?$_Tree@V?$_Tmap_traits@KP8CDPCoreSrvr@@AEXAAVCAr@@KKKK@ZU?$less@K@std@@V?$allocator@U?$pair@$$CBKP8CDPCoreSrvr@@AEXAAVCAr@@KKKK@Z@std@@@4@$0A@@std@@@std@@QBE_NABV012@@Z 00411090 f i DPCoreSrvr.obj
 0001:000100a0       ?_Mynode@const_iterator@?$_Tree@V?$_Tmap_traits@KP8CDPCoreSrvr@@AEXAAVCAr@@KKKK@ZU?$less@K@std@@V?$allocator@U?$pair@$$CBKP8CDPCoreSrvr@@AEXAAVCAr@@KKKK@Z@std@@@4@$0A@@std@@@std@@QBEPAU_Node@?$_Tree_nod@V?$_Tmap_traits@KP8CDPCoreSrvr@@AEXAAVCAr@@KKKK@ZU?$less@K@std@@V?$allocator@U?$pair@$$CBKP8CDPCoreSrvr@@AEXAAVCAr@@KKKK@Z@std@@@4@$0A@@std@@@3@XZ 004110a0 f i DPCoreSrvr.obj
 0001:000100b0       ??8const_iterator@?$_Tree@V?$_Tmap_traits@KKU?$less@K@std@@V?$allocator@U?$pair@$$CBKK@std@@@2@$0A@@std@@@std@@QBE_NABV012@@Z 004110b0 f i DPCoreSrvr.obj
 0001:000100c0       ?_Mynode@const_iterator@?$_Tree@V?$_Tmap_traits@KKU?$less@K@std@@V?$allocator@U?$pair@$$CBKK@std@@@2@$0A@@std@@@std@@QBEPAU_Node@?$_Tree_nod@V?$_Tmap_traits@KKU?$less@K@std@@V?$allocator@U?$pair@$$CBKK@std@@@2@$0A@@std@@@3@XZ 004110c0 f i DPCoreSrvr.obj
 0001:000100d0       ??0?$pair@Viterator@?$_Tree@V?$_Tmap_traits@KP8CDPCoreSrvr@@AEXAAVCAr@@KKKK@ZU?$less@K@std@@V?$allocator@U?$pair@$$CBKP8CDPCoreSrvr@@AEXAAVCAr@@KKKK@Z@std@@@4@$0A@@std@@@std@@_N@std@@QAE@ABViterator@?$_Tree@V?$_Tmap_traits@KP8CDPCoreSrvr@@AEXAAVCAr@@KKKK@ZU?$less@K@std@@V?$allocator@U?$pair@$$CBKP8CDPCoreSrvr@@AEXAAVCAr@@KKKK@Z@std@@@4@$0A@@std@@@1@AB_N@Z 004110d0 f i DPCoreSrvr.obj
 0001:000100f0       ??0?$pair@Viterator@?$_Tree@V?$_Tmap_traits@KKU?$less@K@std@@V?$allocator@U?$pair@$$CBKK@std@@@2@$0A@@std@@@std@@_N@std@@QAE@ABViterator@?$_Tree@V?$_Tmap_traits@KKU?$less@K@std@@V?$allocator@U?$pair@$$CBKK@std@@@2@$0A@@std@@@1@AB_N@Z 004110f0 f i DPCoreSrvr.obj
 0001:00010110       ??8const_iterator@?$_Tree@V?$_Tset_traits@KU?$less@K@std@@V?$allocator@K@2@$0A@@std@@@std@@QBE_NABV012@@Z 00411110 f i DPCoreSrvr.obj
 0001:00010120       ?_Left@?$_Tree@V?$_Tset_traits@KU?$less@K@std@@V?$allocator@K@2@$0A@@std@@@std@@KAAAPAU_Node@?$_Tree_nod@V?$_Tset_traits@KU?$less@K@std@@V?$allocator@K@2@$0A@@std@@@2@PAU342@@Z 00411120 f i DPCoreSrvr.obj
 0001:00010130       ?_Myval@?$_Tree@V?$_Tset_traits@KU?$less@K@std@@V?$allocator@K@2@$0A@@std@@@std@@KAAAKPAU_Node@?$_Tree_nod@V?$_Tset_traits@KU?$less@K@std@@V?$allocator@K@2@$0A@@std@@@2@@Z 00411130 f i DPCoreSrvr.obj
 0001:00010140       ?_Color@?$_Tree@V?$_Tmap_traits@KPAVCCtrl@@U?$less@K@std@@V?$allocator@U?$pair@$$CBKPAVCCtrl@@@std@@@3@$0A@@std@@@std@@KAAADPAU_Node@?$_Tree_nod@V?$_Tmap_traits@KPAVCCtrl@@U?$less@K@std@@V?$allocator@U?$pair@$$CBKPAVCCtrl@@@std@@@3@$0A@@std@@@2@@Z 00411140 f i DPCoreSrvr.obj
 0001:00010150       ?_Parent@?$_Tree@V?$_Tmap_traits@KPAVCCtrl@@U?$less@K@std@@V?$allocator@U?$pair@$$CBKPAVCCtrl@@@std@@@3@$0A@@std@@@std@@KAAAPAU_Node@?$_Tree_nod@V?$_Tmap_traits@KPAVCCtrl@@U?$less@K@std@@V?$allocator@U?$pair@$$CBKPAVCCtrl@@@std@@@3@$0A@@std@@@2@PAU342@@Z 00411150 f i DPCoreSrvr.obj
 0001:00010160       ?_Lmost@?$_Tree@V?$_Tmap_traits@KPAVCCtrl@@U?$less@K@std@@V?$allocator@U?$pair@$$CBKPAVCCtrl@@@std@@@3@$0A@@std@@@std@@IAEAAPAU_Node@?$_Tree_nod@V?$_Tmap_traits@KPAVCCtrl@@U?$less@K@std@@V?$allocator@U?$pair@$$CBKPAVCCtrl@@@std@@@3@$0A@@std@@@2@XZ 00411160 f i DPCoreSrvr.obj
 0001:00010170       ?_Rmost@?$_Tree@V?$_Tmap_traits@KPAVCCtrl@@U?$less@K@std@@V?$allocator@U?$pair@$$CBKPAVCCtrl@@@std@@@3@$0A@@std@@@std@@IAEAAPAU_Node@?$_Tree_nod@V?$_Tmap_traits@KPAVCCtrl@@U?$less@K@std@@V?$allocator@U?$pair@$$CBKPAVCCtrl@@@std@@@3@$0A@@std@@@2@XZ 00411170 f i DPCoreSrvr.obj
 0001:00010180       ??0?$allocator@U?$pair@$$CBKPAVCCtrl@@@std@@@std@@QAE@ABV01@@Z 00411180 f i DPCoreSrvr.obj
 0001:00010190       ?deallocate@?$allocator@U_Node@?$_Tree_nod@V?$_Tmap_traits@KPAVCCtrl@@U?$less@K@std@@V?$allocator@U?$pair@$$CBKPAVCCtrl@@@std@@@3@$0A@@std@@@std@@@std@@QAEXPAU_Node@?$_Tree_nod@V?$_Tmap_traits@KPAVCCtrl@@U?$less@K@std@@V?$allocator@U?$pair@$$CBKPAVCCtrl@@@std@@@3@$0A@@std@@@2@I@Z 00411190 f i DPCoreSrvr.obj
 0001:000101a0       ??0const_iterator@?$_Tree@V?$_Tmap_traits@KPAVCCtrl@@U?$less@K@std@@V?$allocator@U?$pair@$$CBKPAVCCtrl@@@std@@@3@$0A@@std@@@std@@QAE@PAU_Node@?$_Tree_nod@V?$_Tmap_traits@KPAVCCtrl@@U?$less@K@std@@V?$allocator@U?$pair@$$CBKPAVCCtrl@@@std@@@3@$0A@@std@@@2@@Z 004111a0 f i DPCoreSrvr.obj
 0001:000101b0       ??9const_iterator@?$_Tree@V?$_Tmap_traits@KPAVCCtrl@@U?$less@K@std@@V?$allocator@U?$pair@$$CBKPAVCCtrl@@@std@@@3@$0A@@std@@@std@@QBE_NABV012@@Z 004111b0 f i DPCoreSrvr.obj
 0001:000101d0       ?_Color@?$_Tree@V?$_Tmap_traits@KKU?$less@K@std@@V?$allocator@U?$pair@$$CBKK@std@@@2@$0A@@std@@@std@@KAAADPAU_Node@?$_Tree_nod@V?$_Tmap_traits@KKU?$less@K@std@@V?$allocator@U?$pair@$$CBKK@std@@@2@$0A@@std@@@2@@Z 004111d0 f i DPCoreSrvr.obj
 0001:000101e0       ?_Parent@?$_Tree@V?$_Tmap_traits@KKU?$less@K@std@@V?$allocator@U?$pair@$$CBKK@std@@@2@$0A@@std@@@std@@KAAAPAU_Node@?$_Tree_nod@V?$_Tmap_traits@KKU?$less@K@std@@V?$allocator@U?$pair@$$CBKK@std@@@2@$0A@@std@@@2@PAU342@@Z 004111e0 f i DPCoreSrvr.obj
 0001:000101f0       ?_Myval@?$_Tree@V?$_Tmap_traits@KKU?$less@K@std@@V?$allocator@U?$pair@$$CBKK@std@@@2@$0A@@std@@@std@@KAAAU?$pair@$$CBKK@2@PAU_Node@?$_Tree_nod@V?$_Tmap_traits@KKU?$less@K@std@@V?$allocator@U?$pair@$$CBKK@std@@@2@$0A@@std@@@2@@Z 004111f0 f i DPCoreSrvr.obj
 0001:00010200       ?_Lmost@?$_Tree@V?$_Tmap_traits@KKU?$less@K@std@@V?$allocator@U?$pair@$$CBKK@std@@@2@$0A@@std@@@std@@IAEAAPAU_Node@?$_Tree_nod@V?$_Tmap_traits@KKU?$less@K@std@@V?$allocator@U?$pair@$$CBKK@std@@@2@$0A@@std@@@2@XZ 00411200 f i DPCoreSrvr.obj
 0001:00010210       ?_Rmost@?$_Tree@V?$_Tmap_traits@KKU?$less@K@std@@V?$allocator@U?$pair@$$CBKK@std@@@2@$0A@@std@@@std@@IAEAAPAU_Node@?$_Tree_nod@V?$_Tmap_traits@KKU?$less@K@std@@V?$allocator@U?$pair@$$CBKK@std@@@2@$0A@@std@@@2@XZ 00411210 f i DPCoreSrvr.obj
 0001:00010220       ??0?$allocator@U?$pair@$$CBKK@std@@@std@@QAE@ABV01@@Z 00411220 f i DPCoreSrvr.obj
 0001:00010230       ?deallocate@?$allocator@U_Node@?$_Tree_nod@V?$_Tmap_traits@KKU?$less@K@std@@V?$allocator@U?$pair@$$CBKK@std@@@2@$0A@@std@@@std@@@std@@QAEXPAU_Node@?$_Tree_nod@V?$_Tmap_traits@KKU?$less@K@std@@V?$allocator@U?$pair@$$CBKK@std@@@2@$0A@@std@@@2@I@Z 00411230 f i DPCoreSrvr.obj
 0001:00010240       ?_Color@?$_Tree@V?$_Tmap_traits@KP8CDPCoreSrvr@@AEXAAVCAr@@KKKK@ZU?$less@K@std@@V?$allocator@U?$pair@$$CBKP8CDPCoreSrvr@@AEXAAVCAr@@KKKK@Z@std@@@4@$0A@@std@@@std@@KAAADPAU_Node@?$_Tree_nod@V?$_Tmap_traits@KP8CDPCoreSrvr@@AEXAAVCAr@@KKKK@ZU?$less@K@std@@V?$allocator@U?$pair@$$CBKP8CDPCoreSrvr@@AEXAAVCAr@@KKKK@Z@std@@@4@$0A@@std@@@2@@Z 00411240 f i DPCoreSrvr.obj
 0001:00010250       ?_Parent@?$_Tree@V?$_Tmap_traits@KP8CDPCoreSrvr@@AEXAAVCAr@@KKKK@ZU?$less@K@std@@V?$allocator@U?$pair@$$CBKP8CDPCoreSrvr@@AEXAAVCAr@@KKKK@Z@std@@@4@$0A@@std@@@std@@KAAAPAU_Node@?$_Tree_nod@V?$_Tmap_traits@KP8CDPCoreSrvr@@AEXAAVCAr@@KKKK@ZU?$less@K@std@@V?$allocator@U?$pair@$$CBKP8CDPCoreSrvr@@AEXAAVCAr@@KKKK@Z@std@@@4@$0A@@std@@@2@PAU342@@Z 00411250 f i DPCoreSrvr.obj
 0001:00010260       ?_Myval@?$_Tree@V?$_Tmap_traits@KP8CDPCoreSrvr@@AEXAAVCAr@@KKKK@ZU?$less@K@std@@V?$allocator@U?$pair@$$CBKP8CDPCoreSrvr@@AEXAAVCAr@@KKKK@Z@std@@@4@$0A@@std@@@std@@KAAAU?$pair@$$CBKP8CDPCoreSrvr@@AEXAAVCAr@@KKKK@Z@2@PAU_Node@?$_Tree_nod@V?$_Tmap_traits@KP8CDPCoreSrvr@@AEXAAVCAr@@KKKK@ZU?$less@K@std@@V?$allocator@U?$pair@$$CBKP8CDPCoreSrvr@@AEXAAVCAr@@KKKK@Z@std@@@4@$0A@@std@@@2@@Z 00411260 f i DPCoreSrvr.obj
 0001:00010270       ?_Lmost@?$_Tree@V?$_Tmap_traits@KP8CDPCoreSrvr@@AEXAAVCAr@@KKKK@ZU?$less@K@std@@V?$allocator@U?$pair@$$CBKP8CDPCoreSrvr@@AEXAAVCAr@@KKKK@Z@std@@@4@$0A@@std@@@std@@IAEAAPAU_Node@?$_Tree_nod@V?$_Tmap_traits@KP8CDPCoreSrvr@@AEXAAVCAr@@KKKK@ZU?$less@K@std@@V?$allocator@U?$pair@$$CBKP8CDPCoreSrvr@@AEXAAVCAr@@KKKK@Z@std@@@4@$0A@@std@@@2@XZ 00411270 f i DPCoreSrvr.obj
 0001:00010280       ?_Rmost@?$_Tree@V?$_Tmap_traits@KP8CDPCoreSrvr@@AEXAAVCAr@@KKKK@ZU?$less@K@std@@V?$allocator@U?$pair@$$CBKP8CDPCoreSrvr@@AEXAAVCAr@@KKKK@Z@std@@@4@$0A@@std@@@std@@IAEAAPAU_Node@?$_Tree_nod@V?$_Tmap_traits@KP8CDPCoreSrvr@@AEXAAVCAr@@KKKK@ZU?$less@K@std@@V?$allocator@U?$pair@$$CBKP8CDPCoreSrvr@@AEXAAVCAr@@KKKK@Z@std@@@4@$0A@@std@@@2@XZ 00411280 f i DPCoreSrvr.obj
 0001:00010290       ??0?$allocator@U?$pair@$$CBKP8CDPCoreSrvr@@AEXAAVCAr@@KKKK@Z@std@@@std@@QAE@ABV01@@Z 00411290 f i DPCoreSrvr.obj
 0001:000102a0       ?deallocate@?$allocator@U_Node@?$_Tree_nod@V?$_Tmap_traits@KP8CDPCoreSrvr@@AEXAAVCAr@@KKKK@ZU?$less@K@std@@V?$allocator@U?$pair@$$CBKP8CDPCoreSrvr@@AEXAAVCAr@@KKKK@Z@std@@@4@$0A@@std@@@std@@@std@@QAEXPAU_Node@?$_Tree_nod@V?$_Tmap_traits@KP8CDPCoreSrvr@@AEXAAVCAr@@KKKK@ZU?$less@K@std@@V?$allocator@U?$pair@$$CBKP8CDPCoreSrvr@@AEXAAVCAr@@KKKK@Z@std@@@4@$0A@@std@@@2@I@Z 004112a0 f i DPCoreSrvr.obj
 0001:000102b0       ??0const_iterator@?$_Tree@V?$_Tmap_traits@KP8CDPCoreSrvr@@AEXAAVCAr@@KKKK@ZU?$less@K@std@@V?$allocator@U?$pair@$$CBKP8CDPCoreSrvr@@AEXAAVCAr@@KKKK@Z@std@@@4@$0A@@std@@@std@@QAE@PAU_Node@?$_Tree_nod@V?$_Tmap_traits@KP8CDPCoreSrvr@@AEXAAVCAr@@KKKK@ZU?$less@K@std@@V?$allocator@U?$pair@$$CBKP8CDPCoreSrvr@@AEXAAVCAr@@KKKK@Z@std@@@4@$0A@@std@@@2@@Z 004112b0 f i DPCoreSrvr.obj
 0001:000102c0       ??Dconst_iterator@?$_Tree@V?$_Tmap_traits@KP8CDPCoreSrvr@@AEXAAVCAr@@KKKK@ZU?$less@K@std@@V?$allocator@U?$pair@$$CBKP8CDPCoreSrvr@@AEXAAVCAr@@KKKK@Z@std@@@4@$0A@@std@@@std@@QBEABU?$pair@$$CBKP8CDPCoreSrvr@@AEXAAVCAr@@KKKK@Z@2@XZ 004112c0 f i DPCoreSrvr.obj
 0001:000102d0       ??0const_iterator@?$_Tree@V?$_Tmap_traits@KKU?$less@K@std@@V?$allocator@U?$pair@$$CBKK@std@@@2@$0A@@std@@@std@@QAE@PAU_Node@?$_Tree_nod@V?$_Tmap_traits@KKU?$less@K@std@@V?$allocator@U?$pair@$$CBKK@std@@@2@$0A@@std@@@2@@Z 004112d0 f i DPCoreSrvr.obj
 0001:000102e0       ??Dconst_iterator@?$_Tree@V?$_Tmap_traits@KKU?$less@K@std@@V?$allocator@U?$pair@$$CBKK@std@@@2@$0A@@std@@@std@@QBEABU?$pair@$$CBKK@2@XZ 004112e0 f i DPCoreSrvr.obj
 0001:000102f0       ??0const_iterator@?$_Tree@V?$_Tset_traits@KU?$less@K@std@@V?$allocator@K@2@$0A@@std@@@std@@QAE@PAU_Node@?$_Tree_nod@V?$_Tset_traits@KU?$less@K@std@@V?$allocator@K@2@$0A@@std@@@2@@Z 004112f0 f i DPCoreSrvr.obj
 0001:00010300       ??0?$pair@Viterator@?$_Tree@V?$_Tmap_traits@KKU?$less@K@std@@V?$allocator@U?$pair@$$CBKK@std@@@2@$0A@@std@@@std@@V123@@std@@QAE@ABViterator@?$_Tree@V?$_Tmap_traits@KKU?$less@K@std@@V?$allocator@U?$pair@$$CBKK@std@@@2@$0A@@std@@@1@0@Z 00411300 f i DPCoreSrvr.obj
 0001:00010320       ??0D3DXVECTOR3@@QAE@XZ     00411320 f i DPCoreSrvr.obj
 0001:00010330       ?_Isnil@?$_Tree@V?$_Tset_traits@KU?$less@K@std@@V?$allocator@K@2@$0A@@std@@@std@@KAAADPAU_Node@?$_Tree_nod@V?$_Tset_traits@KU?$less@K@std@@V?$allocator@K@2@$0A@@std@@@2@@Z 00411330 f i DPCoreSrvr.obj
 0001:00010340       ?_Parent@?$_Tree@V?$_Tset_traits@KU?$less@K@std@@V?$allocator@K@2@$0A@@std@@@std@@KAAAPAU_Node@?$_Tree_nod@V?$_Tset_traits@KU?$less@K@std@@V?$allocator@K@2@$0A@@std@@@2@PAU342@@Z 00411340 f i DPCoreSrvr.obj
 0001:00010350       ?_Right@?$_Tree@V?$_Tset_traits@KU?$less@K@std@@V?$allocator@K@2@$0A@@std@@@std@@KAAAPAU_Node@?$_Tree_nod@V?$_Tset_traits@KU?$less@K@std@@V?$allocator@K@2@$0A@@std@@@2@PAU342@@Z 00411350 f i DPCoreSrvr.obj
 0001:00010360       ?_Min@?$_Tree@V?$_Tset_traits@KU?$less@K@std@@V?$allocator@K@2@$0A@@std@@@std@@KAPAU_Node@?$_Tree_nod@V?$_Tset_traits@KU?$less@K@std@@V?$allocator@K@2@$0A@@std@@@2@PAU342@@Z 00411360 f i DPCoreSrvr.obj
 0001:00010380       ?_Max@?$_Tree@V?$_Tmap_traits@KPAVCCtrl@@U?$less@K@std@@V?$allocator@U?$pair@$$CBKPAVCCtrl@@@std@@@3@$0A@@std@@@std@@KAPAU_Node@?$_Tree_nod@V?$_Tmap_traits@KPAVCCtrl@@U?$less@K@std@@V?$allocator@U?$pair@$$CBKPAVCCtrl@@@std@@@3@$0A@@std@@@2@PAU342@@Z 00411380 f i DPCoreSrvr.obj
 0001:000103a0       ?_Min@?$_Tree@V?$_Tmap_traits@KPAVCCtrl@@U?$less@K@std@@V?$allocator@U?$pair@$$CBKPAVCCtrl@@@std@@@3@$0A@@std@@@std@@KAPAU_Node@?$_Tree_nod@V?$_Tmap_traits@KPAVCCtrl@@U?$less@K@std@@V?$allocator@U?$pair@$$CBKPAVCCtrl@@@std@@@3@$0A@@std@@@2@PAU342@@Z 004113a0 f i DPCoreSrvr.obj
 0001:000103c0       ?_Max@?$_Tree@V?$_Tmap_traits@KKU?$less@K@std@@V?$allocator@U?$pair@$$CBKK@std@@@2@$0A@@std@@@std@@KAPAU_Node@?$_Tree_nod@V?$_Tmap_traits@KKU?$less@K@std@@V?$allocator@U?$pair@$$CBKK@std@@@2@$0A@@std@@@2@PAU342@@Z 004113c0 f i DPCoreSrvr.obj
 0001:000103e0       ?_Min@?$_Tree@V?$_Tmap_traits@KKU?$less@K@std@@V?$allocator@U?$pair@$$CBKK@std@@@2@$0A@@std@@@std@@KAPAU_Node@?$_Tree_nod@V?$_Tmap_traits@KKU?$less@K@std@@V?$allocator@U?$pair@$$CBKK@std@@@2@$0A@@std@@@2@PAU342@@Z 004113e0 f i DPCoreSrvr.obj
 0001:00010400       ?_Root@?$_Tree@V?$_Tmap_traits@KKU?$less@K@std@@V?$allocator@U?$pair@$$CBKK@std@@@2@$0A@@std@@@std@@IBEAAPAU_Node@?$_Tree_nod@V?$_Tmap_traits@KKU?$less@K@std@@V?$allocator@U?$pair@$$CBKK@std@@@2@$0A@@std@@@2@XZ 00411400 f i DPCoreSrvr.obj
 0001:00010410       ?max_size@?$allocator@U?$pair@$$CBKK@std@@@std@@QBEIXZ 00411410 f i DPCoreSrvr.obj
 0001:00010420       ?_Root@?$_Tree@V?$_Tmap_traits@KP8CDPCoreSrvr@@AEXAAVCAr@@KKKK@ZU?$less@K@std@@V?$allocator@U?$pair@$$CBKP8CDPCoreSrvr@@AEXAAVCAr@@KKKK@Z@std@@@4@$0A@@std@@@std@@IBEAAPAU_Node@?$_Tree_nod@V?$_Tmap_traits@KP8CDPCoreSrvr@@AEXAAVCAr@@KKKK@ZU?$less@K@std@@V?$allocator@U?$pair@$$CBKP8CDPCoreSrvr@@AEXAAVCAr@@KKKK@Z@std@@@4@$0A@@std@@@2@XZ 00411420 f i DPCoreSrvr.obj
 0001:00010430       ?max_size@?$allocator@U?$pair@$$CBKP8CDPCoreSrvr@@AEXAAVCAr@@KKKK@Z@std@@@std@@QBEIXZ 00411430 f i DPCoreSrvr.obj
 0001:00010440       ?_Dec@const_iterator@?$_Tree@V?$_Tmap_traits@KKU?$less@K@std@@V?$allocator@U?$pair@$$CBKK@std@@@2@$0A@@std@@@std@@QAEXXZ 00411440 f i DPCoreSrvr.obj
 0001:000104a0       ??0_Node@?$_Tree_nod@V?$_Tmap_traits@KKU?$less@K@std@@V?$allocator@U?$pair@$$CBKK@std@@@2@$0A@@std@@@std@@QAE@PAU012@00ABU?$pair@$$CBKK@2@D@Z 004114a0 f i DPCoreSrvr.obj
 0001:000104e0       ??0_Node@?$_Tree_nod@V?$_Tmap_traits@KP8CDPCoreSrvr@@AEXAAVCAr@@KKKK@ZU?$less@K@std@@V?$allocator@U?$pair@$$CBKP8CDPCoreSrvr@@AEXAAVCAr@@KKKK@Z@std@@@4@$0A@@std@@@std@@QAE@PAU012@00ABU?$pair@$$CBKP8CDPCoreSrvr@@AEXAAVCAr@@KKKK@Z@2@D@Z 004114e0 f i DPCoreSrvr.obj
 0001:00010520       ?_Max@?$_Tree@V?$_Tmap_traits@KP8CDPCoreSrvr@@AEXAAVCAr@@KKKK@ZU?$less@K@std@@V?$allocator@U?$pair@$$CBKP8CDPCoreSrvr@@AEXAAVCAr@@KKKK@Z@std@@@4@$0A@@std@@@std@@KAPAU_Node@?$_Tree_nod@V?$_Tmap_traits@KP8CDPCoreSrvr@@AEXAAVCAr@@KKKK@ZU?$less@K@std@@V?$allocator@U?$pair@$$CBKP8CDPCoreSrvr@@AEXAAVCAr@@KKKK@Z@std@@@4@$0A@@std@@@2@PAU342@@Z 00411520 f i DPCoreSrvr.obj
 0001:00010540       ?_Min@?$_Tree@V?$_Tmap_traits@KP8CDPCoreSrvr@@AEXAAVCAr@@KKKK@ZU?$less@K@std@@V?$allocator@U?$pair@$$CBKP8CDPCoreSrvr@@AEXAAVCAr@@KKKK@Z@std@@@4@$0A@@std@@@std@@KAPAU_Node@?$_Tree_nod@V?$_Tmap_traits@KP8CDPCoreSrvr@@AEXAAVCAr@@KKKK@ZU?$less@K@std@@V?$allocator@U?$pair@$$CBKP8CDPCoreSrvr@@AEXAAVCAr@@KKKK@Z@std@@@4@$0A@@std@@@2@PAU342@@Z 00411540 f i DPCoreSrvr.obj
 0001:00010560       ??0?$_Tmap_traits@KPAVCCtrl@@U?$less@K@std@@V?$allocator@U?$pair@$$CBKPAVCCtrl@@@std@@@3@$0A@@std@@QAE@U?$less@K@1@@Z 00411560 f i DPCoreSrvr.obj
 0001:00010570       ?_Inc@const_iterator@?$_Tree@V?$_Tmap_traits@KPAVCCtrl@@U?$less@K@std@@V?$allocator@U?$pair@$$CBKPAVCCtrl@@@std@@@3@$0A@@std@@@std@@QAEXXZ 00411570 f i DPCoreSrvr.obj
 0001:000105d0       ??0?$_Tmap_traits@KKU?$less@K@std@@V?$allocator@U?$pair@$$CBKK@std@@@2@$0A@@std@@QAE@U?$less@K@1@@Z 004115d0 f i DPCoreSrvr.obj
 0001:000105e0       ??0?$_Tmap_traits@KP8CDPCoreSrvr@@AEXAAVCAr@@KKKK@ZU?$less@K@std@@V?$allocator@U?$pair@$$CBKP8CDPCoreSrvr@@AEXAAVCAr@@KKKK@Z@std@@@4@$0A@@std@@QAE@U?$less@K@1@@Z 004115e0 f i DPCoreSrvr.obj
 0001:000105f0       ?_Inc@const_iterator@?$_Tree@V?$_Tmap_traits@KKU?$less@K@std@@V?$allocator@U?$pair@$$CBKK@std@@@2@$0A@@std@@@std@@QAEXXZ 004115f0 f i DPCoreSrvr.obj
 0001:00010650       ?_Inc@const_iterator@?$_Tree@V?$_Tmap_traits@KP8CDPCoreSrvr@@AEXAAVCAr@@KKKK@ZU?$less@K@std@@V?$allocator@U?$pair@$$CBKP8CDPCoreSrvr@@AEXAAVCAr@@KKKK@Z@std@@@4@$0A@@std@@@std@@QAEXXZ 00411650 f i DPCoreSrvr.obj
 0001:000106b0       ??$_Destroy@PAU_Node@?$_Tree_nod@V?$_Tmap_traits@KPAVCCtrl@@U?$less@K@std@@V?$allocator@U?$pair@$$CBKPAVCCtrl@@@std@@@3@$0A@@std@@@std@@@std@@YAXPAPAU_Node@?$_Tree_nod@V?$_Tmap_traits@KPAVCCtrl@@U?$less@K@std@@V?$allocator@U?$pair@$$CBKPAVCCtrl@@@std@@@3@$0A@@std@@@0@@Z 004116b0 f i DPCoreSrvr.obj
 0001:000106c0       ??$_Destroy@PAU_Node@?$_Tree_nod@V?$_Tmap_traits@KKU?$less@K@std@@V?$allocator@U?$pair@$$CBKK@std@@@2@$0A@@std@@@std@@@std@@YAXPAPAU_Node@?$_Tree_nod@V?$_Tmap_traits@KKU?$less@K@std@@V?$allocator@U?$pair@$$CBKK@std@@@2@$0A@@std@@@0@@Z 004116c0 f i DPCoreSrvr.obj
 0001:000106d0       ??$_Destroy@PAU_Node@?$_Tree_nod@V?$_Tmap_traits@KP8CDPCoreSrvr@@AEXAAVCAr@@KKKK@ZU?$less@K@std@@V?$allocator@U?$pair@$$CBKP8CDPCoreSrvr@@AEXAAVCAr@@KKKK@Z@std@@@4@$0A@@std@@@std@@@std@@YAXPAPAU_Node@?$_Tree_nod@V?$_Tmap_traits@KP8CDPCoreSrvr@@AEXAAVCAr@@KKKK@ZU?$less@K@std@@V?$allocator@U?$pair@$$CBKP8CDPCoreSrvr@@AEXAAVCAr@@KKKK@Z@std@@@4@$0A@@std@@@0@@Z 004116d0 f i DPCoreSrvr.obj
 0001:000106e0       ??$?0U?$pair@$$CBKPAVCCtrl@@@std@@@?$allocator@PAU_Node@?$_Tree_nod@V?$_Tmap_traits@KPAVCCtrl@@U?$less@K@std@@V?$allocator@U?$pair@$$CBKPAVCCtrl@@@std@@@3@$0A@@std@@@std@@@std@@QAE@ABV?$allocator@U?$pair@$$CBKPAVCCtrl@@@std@@@1@@Z 004116e0 f i DPCoreSrvr.obj
 0001:000106f0       ??$_Allocate@U_Node@?$_Tree_nod@V?$_Tmap_traits@KPAVCCtrl@@U?$less@K@std@@V?$allocator@U?$pair@$$CBKPAVCCtrl@@@std@@@3@$0A@@std@@@std@@@std@@YAPAU_Node@?$_Tree_nod@V?$_Tmap_traits@KPAVCCtrl@@U?$less@K@std@@V?$allocator@U?$pair@$$CBKPAVCCtrl@@@std@@@3@$0A@@std@@@0@IPAU120@@Z 004116f0 f i DPCoreSrvr.obj
 0001:00010710       ??$_Destroy@U_Node@?$_Tree_nod@V?$_Tmap_traits@KPAVCCtrl@@U?$less@K@std@@V?$allocator@U?$pair@$$CBKPAVCCtrl@@@std@@@3@$0A@@std@@@std@@@std@@YAXPAU_Node@?$_Tree_nod@V?$_Tmap_traits@KPAVCCtrl@@U?$less@K@std@@V?$allocator@U?$pair@$$CBKPAVCCtrl@@@std@@@3@$0A@@std@@@0@@Z 00411710 f i DPCoreSrvr.obj
 0001:00010720       ??$?0U?$pair@$$CBKK@std@@@?$allocator@PAU_Node@?$_Tree_nod@V?$_Tmap_traits@KKU?$less@K@std@@V?$allocator@U?$pair@$$CBKK@std@@@2@$0A@@std@@@std@@@std@@QAE@ABV?$allocator@U?$pair@$$CBKK@std@@@1@@Z 00411720 f i DPCoreSrvr.obj
 0001:00010730       ??$_Allocate@U_Node@?$_Tree_nod@V?$_Tmap_traits@KKU?$less@K@std@@V?$allocator@U?$pair@$$CBKK@std@@@2@$0A@@std@@@std@@@std@@YAPAU_Node@?$_Tree_nod@V?$_Tmap_traits@KKU?$less@K@std@@V?$allocator@U?$pair@$$CBKK@std@@@2@$0A@@std@@@0@IPAU120@@Z 00411730 f i DPCoreSrvr.obj
 0001:00010750       ??$_Destroy@U_Node@?$_Tree_nod@V?$_Tmap_traits@KKU?$less@K@std@@V?$allocator@U?$pair@$$CBKK@std@@@2@$0A@@std@@@std@@@std@@YAXPAU_Node@?$_Tree_nod@V?$_Tmap_traits@KKU?$less@K@std@@V?$allocator@U?$pair@$$CBKK@std@@@2@$0A@@std@@@0@@Z 00411750 f i DPCoreSrvr.obj
 0001:00010760       ??$?0U?$pair@$$CBKP8CDPCoreSrvr@@AEXAAVCAr@@KKKK@Z@std@@@?$allocator@PAU_Node@?$_Tree_nod@V?$_Tmap_traits@KP8CDPCoreSrvr@@AEXAAVCAr@@KKKK@ZU?$less@K@std@@V?$allocator@U?$pair@$$CBKP8CDPCoreSrvr@@AEXAAVCAr@@KKKK@Z@std@@@4@$0A@@std@@@std@@@std@@QAE@ABV?$allocator@U?$pair@$$CBKP8CDPCoreSrvr@@AEXAAVCAr@@KKKK@Z@std@@@1@@Z 00411760 f i DPCoreSrvr.obj
 0001:00010770       ??$_Allocate@U_Node@?$_Tree_nod@V?$_Tmap_traits@KP8CDPCoreSrvr@@AEXAAVCAr@@KKKK@ZU?$less@K@std@@V?$allocator@U?$pair@$$CBKP8CDPCoreSrvr@@AEXAAVCAr@@KKKK@Z@std@@@4@$0A@@std@@@std@@@std@@YAPAU_Node@?$_Tree_nod@V?$_Tmap_traits@KP8CDPCoreSrvr@@AEXAAVCAr@@KKKK@ZU?$less@K@std@@V?$allocator@U?$pair@$$CBKP8CDPCoreSrvr@@AEXAAVCAr@@KKKK@Z@std@@@4@$0A@@std@@@0@IPAU120@@Z 00411770 f i DPCoreSrvr.obj
 0001:00010790       ??$?0U?$pair@$$CBKPAVCCtrl@@@std@@@?$allocator@U_Node@?$_Tree_nod@V?$_Tmap_traits@KPAVCCtrl@@U?$less@K@std@@V?$allocator@U?$pair@$$CBKPAVCCtrl@@@std@@@3@$0A@@std@@@std@@@std@@QAE@ABV?$allocator@U?$pair@$$CBKPAVCCtrl@@@std@@@1@@Z 00411790 f i DPCoreSrvr.obj
 0001:000107a0       ??$_Construct@PAU_Node@?$_Tree_nod@V?$_Tmap_traits@KPAVCCtrl@@U?$less@K@std@@V?$allocator@U?$pair@$$CBKPAVCCtrl@@@std@@@3@$0A@@std@@@std@@PAU123@@std@@YAXPAPAU_Node@?$_Tree_nod@V?$_Tmap_traits@KPAVCCtrl@@U?$less@K@std@@V?$allocator@U?$pair@$$CBKPAVCCtrl@@@std@@@3@$0A@@std@@@0@ABQAU120@@Z 004117a0 f i DPCoreSrvr.obj
 0001:000107c0       ??$?0U?$pair@$$CBKK@std@@@?$allocator@U_Node@?$_Tree_nod@V?$_Tmap_traits@KKU?$less@K@std@@V?$allocator@U?$pair@$$CBKK@std@@@2@$0A@@std@@@std@@@std@@QAE@ABV?$allocator@U?$pair@$$CBKK@std@@@1@@Z 004117c0 f i DPCoreSrvr.obj
 0001:000107d0       ??$_Construct@PAU_Node@?$_Tree_nod@V?$_Tmap_traits@KKU?$less@K@std@@V?$allocator@U?$pair@$$CBKK@std@@@2@$0A@@std@@@std@@PAU123@@std@@YAXPAPAU_Node@?$_Tree_nod@V?$_Tmap_traits@KKU?$less@K@std@@V?$allocator@U?$pair@$$CBKK@std@@@2@$0A@@std@@@0@ABQAU120@@Z 004117d0 f i DPCoreSrvr.obj
 0001:000107f0       ??$?0U?$pair@$$CBKP8CDPCoreSrvr@@AEXAAVCAr@@KKKK@Z@std@@@?$allocator@U_Node@?$_Tree_nod@V?$_Tmap_traits@KP8CDPCoreSrvr@@AEXAAVCAr@@KKKK@ZU?$less@K@std@@V?$allocator@U?$pair@$$CBKP8CDPCoreSrvr@@AEXAAVCAr@@KKKK@Z@std@@@4@$0A@@std@@@std@@@std@@QAE@ABV?$allocator@U?$pair@$$CBKP8CDPCoreSrvr@@AEXAAVCAr@@KKKK@Z@std@@@1@@Z 004117f0 f i DPCoreSrvr.obj
 0001:00010800       ??$_Destroy@U_Node@?$_Tree_nod@V?$_Tmap_traits@KP8CDPCoreSrvr@@AEXAAVCAr@@KKKK@ZU?$less@K@std@@V?$allocator@U?$pair@$$CBKP8CDPCoreSrvr@@AEXAAVCAr@@KKKK@Z@std@@@4@$0A@@std@@@std@@@std@@YAXPAU_Node@?$_Tree_nod@V?$_Tmap_traits@KP8CDPCoreSrvr@@AEXAAVCAr@@KKKK@ZU?$less@K@std@@V?$allocator@U?$pair@$$CBKP8CDPCoreSrvr@@AEXAAVCAr@@KKKK@Z@std@@@4@$0A@@std@@@0@@Z 00411800 f i DPCoreSrvr.obj
 0001:00010810       ??$_Construct@PAU_Node@?$_Tree_nod@V?$_Tmap_traits@KP8CDPCoreSrvr@@AEXAAVCAr@@KKKK@ZU?$less@K@std@@V?$allocator@U?$pair@$$CBKP8CDPCoreSrvr@@AEXAAVCAr@@KKKK@Z@std@@@4@$0A@@std@@@std@@PAU123@@std@@YAXPAPAU_Node@?$_Tree_nod@V?$_Tmap_traits@KP8CDPCoreSrvr@@AEXAAVCAr@@KKKK@ZU?$less@K@std@@V?$allocator@U?$pair@$$CBKP8CDPCoreSrvr@@AEXAAVCAr@@KKKK@Z@std@@@4@$0A@@std@@@0@ABQAU120@@Z 00411810 f i DPCoreSrvr.obj
 0001:00010830       ??$_Iter_cat@Viterator@?$_Tree@V?$_Tmap_traits@KKU?$less@K@std@@V?$allocator@U?$pair@$$CBKK@std@@@2@$0A@@std@@@std@@@std@@YA?AUbidirectional_iterator_tag@0@ABViterator@?$_Tree@V?$_Tmap_traits@KKU?$less@K@std@@V?$allocator@U?$pair@$$CBKK@std@@@2@$0A@@std@@@0@@Z 00411830 f i DPCoreSrvr.obj
 0001:00010840       ??0CMclCritSec@@QAE@XZ     00411840 f i DPCoreSrvr.obj
 0001:00010860       ??1CMclCritSec@@UAE@XZ     00411860 f i DPCoreSrvr.obj
 0001:00010880       ??_GCMclCritSec@@UAEPAXI@Z 00411880 f i DPCoreSrvr.obj
 0001:00010880       ??_ECMclCritSec@@UAEPAXI@Z 00411880 f i DPCoreSrvr.obj
 0001:000108b0       ?GetTickCount@CTickCount@@QAE_JXZ 004118b0 f i DPCoreSrvr.obj
 0001:000108e0       ??3CGuild@@SAXPAX@Z        004118e0 f i DPCoreSrvr.obj
 0001:00010920       ??0CIdStack@@QAE@XZ        00411920 f i DPCoreSrvr.obj
 0001:00010950       ??1CIdStack@@UAE@XZ        00411950 f i DPCoreSrvr.obj
 0001:00010970       ?GetIdBlock@CIdStack@@QAEKK@Z 00411970 f i DPCoreSrvr.obj
 0001:000109a0       ??_GCIdStack@@UAEPAXI@Z    004119a0 f i DPCoreSrvr.obj
 0001:000109a0       ??_ECIdStack@@UAEPAXI@Z    004119a0 f i DPCoreSrvr.obj
 0001:000109c0       ?SendQueryTickCount@CDPCoreSrvr@@QAEXKKN@Z 004119c0 f   DPCoreSrvr.obj
 0001:00010b50       ?SendRecharge@CDPCoreSrvr@@QAEXKK@Z 00411b50 f   DPCoreSrvr.obj
 0001:00010cc0       ?OnRecharge@CDPCoreSrvr@@AAEXAAVCAr@@KKKK@Z 00411cc0 f   DPCoreSrvr.obj
 0001:00010d00       ?SendDuplicate@CDPCoreSrvr@@QAEXK@Z 00411d00 f   DPCoreSrvr.obj
 0001:00010e00       ?OnWhisper@CDPCoreSrvr@@AAEXAAVCAr@@KKKK@Z 00411e00 f   DPCoreSrvr.obj
 0001:00010ff0       ?OnSay@CDPCoreSrvr@@AAEXAAVCAr@@KKKK@Z 00411ff0 f   DPCoreSrvr.obj
 0001:00011130       ?OnModifyMode@CDPCoreSrvr@@AAEXAAVCAr@@KKKK@Z 00412130 f   DPCoreSrvr.obj
 0001:00011250       ?OnSummonPlayer@CDPCoreSrvr@@AAEXAAVCAr@@KKKK@Z 00412250 f   DPCoreSrvr.obj
 0001:000113a0       ?OnTeleportPlayer@CDPCoreSrvr@@AAEXAAVCAr@@KKKK@Z 004123a0 f   DPCoreSrvr.obj
 0001:00011480       ?OnKillPlayer@CDPCoreSrvr@@AAEXAAVCAr@@KKKK@Z 00412480 f   DPCoreSrvr.obj
 0001:00011550       ?OnGetPlayerAddr@CDPCoreSrvr@@AAEXAAVCAr@@KKKK@Z 00412550 f   DPCoreSrvr.obj
 0001:00011630       ?OnGetPlayerCount@CDPCoreSrvr@@AAEXAAVCAr@@KKKK@Z 00412630 f   DPCoreSrvr.obj
 0001:000116d0       ?OnCaption@CDPCoreSrvr@@AAEXAAVCAr@@KKKK@Z 004126d0 f   DPCoreSrvr.obj
 0001:00011760       ?OnGetCorePlayer@CDPCoreSrvr@@AAEXAAVCAr@@KKKK@Z 00412760 f   DPCoreSrvr.obj
 0001:000117f0       ?OnAddPartyExp@CDPCoreSrvr@@AAEXAAVCAr@@KKKK@Z 004127f0 f   DPCoreSrvr.obj
 0001:00011b90       ?OnRemovePartyPoint@CDPCoreSrvr@@AAEXAAVCAr@@KKKK@Z 00412b90 f   DPCoreSrvr.obj
 0001:00011d50       ?OnPartyLevel@CDPCoreSrvr@@AAEXAAVCAr@@KKKK@Z 00412d50 f   DPCoreSrvr.obj
 0001:00012000       ?OnGameRate@CDPCoreSrvr@@AAEXAAVCAr@@KKKK@Z 00413000 f   DPCoreSrvr.obj
 0001:00012190       ?OnLoadConstant@CDPCoreSrvr@@AAEXAAVCAr@@KKKK@Z 00413190 f   DPCoreSrvr.obj
 0001:00012290       ?OnSetMonsterRespawn@CDPCoreSrvr@@AAEXAAVCAr@@KKKK@Z 00413290 f   DPCoreSrvr.obj
 0001:00012520       ?SendShout@CDPCoreSrvr@@QAEXKPBDK@Z 00413520 f   DPCoreSrvr.obj
 0001:00012660       ?SendPartyChat@CDPCoreSrvr@@QAEXKPBD0K@Z 00413660 f   DPCoreSrvr.obj
 0001:000127c0       ?SendPlayMusic@CDPCoreSrvr@@QAEXKKK@Z 004137c0 f   DPCoreSrvr.obj
 0001:00012910       ?SendPlaySound@CDPCoreSrvr@@QAEXKKK@Z 00413910 f   DPCoreSrvr.obj
 0001:00012a60       ?SendSetPartyMode@CDPCoreSrvr@@QAEXKHHJK@Z 00413a60 f   DPCoreSrvr.obj
 0001:00012c00       ?SendRemoveParty@CDPCoreSrvr@@QAEXKKK@Z 00413c00 f   DPCoreSrvr.obj
 0001:00012d60       ?SendPartyChangeTroup@CDPCoreSrvr@@QAEXKPBD@Z 00413d60 f   DPCoreSrvr.obj
 0001:00012ea0       ?SendPartyChangeName@CDPCoreSrvr@@QAEXKPBD@Z 00413ea0 f   DPCoreSrvr.obj
 0001:00012fe0       ?SendPartyChangeExpMode@CDPCoreSrvr@@QAEXKH@Z 00413fe0 f   DPCoreSrvr.obj
 0001:00013120       ?SendPartyChangeItemMode@CDPCoreSrvr@@QAEXKH@Z 00414120 f   DPCoreSrvr.obj
 0001:00013260       ?SendAddPartyMember@CDPCoreSrvr@@QAEXKKJJEKJJE@Z 00414260 f   DPCoreSrvr.obj
 0001:00013470       ?SendAddFriend@CDPCoreSrvr@@QAEXKKEEJJ@Z 00414470 f   DPCoreSrvr.obj
 0001:00013630       ?SendRemoveFriend@CDPCoreSrvr@@QAEXKK@Z 00414630 f   DPCoreSrvr.obj
 0001:00013770       ?SendEnvironmentEffect@CDPCoreSrvr@@QAEXXZ 00414770 f   DPCoreSrvr.obj
 0001:00013880       ?SendGuildAuthority@CDPCoreSrvr@@QAEXKQAK@Z 00414880 f   DPCoreSrvr.obj
 0001:000139c0       ?SendGuildPenya@CDPCoreSrvr@@QAEXKKK@Z 004149c0 f   DPCoreSrvr.obj
 0001:00013b20       ?SendChgMaster@CDPCoreSrvr@@QAEXKKK@Z 00414b20 f   DPCoreSrvr.obj
 0001:00013c80       ?SendGuildSetName@CDPCoreSrvr@@QAEXKPBDKEE@Z 00414c80 f   DPCoreSrvr.obj
 0001:00013e10       ?SendCreateGuild@CDPCoreSrvr@@QAEXPAU_GUILD_MEMBER_INFO@@HKPBD@Z 00414e10 f   DPCoreSrvr.obj
 0001:00013f80       ?SendDestroyGuild@CDPCoreSrvr@@QAEXK@Z 00414f80 f   DPCoreSrvr.obj
 0001:000140a0       ?SendAddGuildMember@CDPCoreSrvr@@QAEXABU_GUILD_MEMBER_INFO@@K@Z 004150a0 f   DPCoreSrvr.obj
 0001:000141e0       ?SendRemoveGuildMember@CDPCoreSrvr@@QAEXKK@Z 004151e0 f   DPCoreSrvr.obj
 0001:00014320       ?SendGuildMemberLv@CDPCoreSrvr@@QAEXKHK@Z 00415320 f   DPCoreSrvr.obj
 0001:00014480       ?SendGuildClass@CDPCoreSrvr@@QAEXKHK@Z 00415480 f   DPCoreSrvr.obj
 0001:000145e0       ?SendGuildNickName@CDPCoreSrvr@@QAEXKPBDK@Z 004155e0 f   DPCoreSrvr.obj
 0001:00014740       ?SendGuildMemberLogOut@CDPCoreSrvr@@QAEXKK@Z 00415740 f   DPCoreSrvr.obj
 0001:00014880       ?SendAcptWar@CDPCoreSrvr@@QAEXKKK@Z 00415880 f   DPCoreSrvr.obj
 0001:000149e0       ?SendWarDead@CDPCoreSrvr@@QAEXKH@Z 004159e0 f   DPCoreSrvr.obj
 0001:00014b20       ?SendWarEnd@CDPCoreSrvr@@QAEXKHHH@Z 00415b20 f   DPCoreSrvr.obj
 0001:00014ca0       ?SendSurrender@CDPCoreSrvr@@QAEXKKH@Z 00415ca0 f   DPCoreSrvr.obj
 0001:00014e00       ?OnWarMasterAbsent@CDPCoreSrvr@@QAEXAAVCAr@@KKKK@Z 00415e00 f   DPCoreSrvr.obj
 0001:00014ec0       ?OnWarTimeout@CDPCoreSrvr@@QAEXAAVCAr@@KKKK@Z 00415ec0 f   DPCoreSrvr.obj
 0001:00014fc0       ?SendWarMasterAbsent@CDPCoreSrvr@@QAEXKH@Z 00415fc0 f   DPCoreSrvr.obj
 0001:00015100       ?SendSetFriendState@CDPCoreSrvr@@QAEXKK@Z 00416100 f   DPCoreSrvr.obj
 0001:00015240       ?SendFriendInterceptState@CDPCoreSrvr@@QAEXKK@Z 00416240 f   DPCoreSrvr.obj
 0001:00015380       ?SendChangeLeader@CDPCoreSrvr@@QAEXKK@Z 00416380 f   DPCoreSrvr.obj
 0001:000154c0       ?OnAddFriendNameReqest@CDPCoreSrvr@@QAEXAAVCAr@@KKKK@Z 004164c0 f   DPCoreSrvr.obj
 0001:00015630       ?OnBlock@CDPCoreSrvr@@QAEXAAVCAr@@KKKK@Z 00416630 f   DPCoreSrvr.obj
 0001:00015730       ?SendAddVoteResult@CDPCoreSrvr@@QAEXAAUVOTE_INSERTED_INFO@@@Z 00416730 f   DPCoreSrvr.obj
 0001:00015840       ?SendAddRemoveVote@CDPCoreSrvr@@QAEXKK@Z 00416840 f   DPCoreSrvr.obj
 0001:000159c0       ?SendAddCloseVote@CDPCoreSrvr@@QAEXKK@Z 004169c0 f   DPCoreSrvr.obj
 0001:00015b40       ?SendAddCastVote@CDPCoreSrvr@@QAEXKKE@Z 00416b40 f   DPCoreSrvr.obj
 0001:00015cc0       ?OnGuildLogo@CDPCoreSrvr@@AAEXAAVCAr@@KKKK@Z 00416cc0 f   DPCoreSrvr.obj
 0001:00015ec0       ?OnGuildContribution@CDPCoreSrvr@@AAEXAAVCAr@@KKKK@Z 00416ec0 f   DPCoreSrvr.obj
 0001:00016090       ?OnGuildNotice@CDPCoreSrvr@@AAEXAAVCAr@@KKKK@Z 00417090 f   DPCoreSrvr.obj
 0001:00016260       ?OnGuildRealPenya@CDPCoreSrvr@@AAEXAAVCAr@@KKKK@Z 00417260 f   DPCoreSrvr.obj
 0001:00016430       ?OnWCWantedGold@CDPCoreSrvr@@QAEXAAVCAr@@KKKK@Z 00417430 f   DPCoreSrvr.obj
 0001:000164c0       ?SendCWWantedList@CDPCoreSrvr@@QAEXK@Z 004174c0 f   DPCoreSrvr.obj
 0001:000165d0       ?OnSetPartyDuel@CDPCoreSrvr@@QAEXAAVCAr@@KKKK@Z 004175d0 f   DPCoreSrvr.obj
 0001:000166b0       ?SendSetPlayerName@CDPCoreSrvr@@QAEXKPBDKH@Z 004176b0 f   DPCoreSrvr.obj
 0001:00016820       ?SendDestroyPlayer@CDPCoreSrvr@@QAEXKK@Z 00417820 f   DPCoreSrvr.obj
 0001:00016950       ?OnQuerySetGuildName@CDPCoreSrvr@@QAEXAAVCAr@@KKKK@Z 00417950 f   DPCoreSrvr.obj
 0001:00016ad0       ?OnChat@CDPCoreSrvr@@AAEXAAVCAr@@KKKK@Z 00417ad0 f   DPCoreSrvr.obj
 0001:00016c20       ?OnGCRemoveParty@CDPCoreSrvr@@AAEXAAVCAr@@KKKK@Z 00417c20 f   DPCoreSrvr.obj
 0001:00016d30       ?OnGCAddParty@CDPCoreSrvr@@AAEXAAVCAr@@KKKK@Z 00417d30 f   DPCoreSrvr.obj
 0001:00017040       ?SendSetSnoop@CDPCoreSrvr@@QAEXKKH@Z 00418040 f   DPCoreSrvr.obj
 0001:000171a0       ?OnSetSnoopGuild@CDPCoreSrvr@@AAEXAAVCAr@@KKKK@Z 004181a0 f   DPCoreSrvr.obj
 0001:00017250       ?SendRemoveUser@CDPCoreSrvr@@QAEXK@Z 00418250 f   DPCoreSrvr.obj
 0001:00017370       ?SendEvent@CDPCoreSrvr@@QAEXK@Z 00418370 f   DPCoreSrvr.obj
 0001:00017490       ?SendGuildCombatState@CDPCoreSrvr@@QAEXXZ 00418490 f   DPCoreSrvr.obj
 0001:000175c0       ?OnPing@CDPCoreSrvr@@AAEXAAVCAr@@KKKK@Z 004185c0 f   DPCoreSrvr.obj
 0001:00017730       ?SendInstanceDungeonAllInfo@CDPCoreSrvr@@QAEXHPAVCInstanceDungeonBase@@K@Z 00418730 f   DPCoreSrvr.obj
 0001:00017870       ?OnInstanceDungeonCreate@CDPCoreSrvr@@AAEXAAVCAr@@KKKK@Z 00418870 f   DPCoreSrvr.obj
 0001:000178e0       ?SendInstanceDungeonCreate@CDPCoreSrvr@@QAEXHKAAUINSTACNEDUNGEON_INFO@@@Z 004188e0 f   DPCoreSrvr.obj
 0001:00017a40       ?OnInstanceDungeonDestroy@CDPCoreSrvr@@AAEXAAVCAr@@KKKK@Z 00418a40 f   DPCoreSrvr.obj
 0001:00017ab0       ?SendInstanceDungeonDestroy@CDPCoreSrvr@@QAEXHKAAUINSTACNEDUNGEON_INFO@@@Z 00418ab0 f   DPCoreSrvr.obj
 0001:00017c10       ?OnInstanceDungeonSetCoolTimeInfo@CDPCoreSrvr@@AAEXAAVCAr@@KKKK@Z 00418c10 f   DPCoreSrvr.obj
 0001:00017cb0       ?SendInstanceDungeonSetCoolTimeInfo@CDPCoreSrvr@@QAEXKHKUCOOLTIME_INFO@@@Z 00418cb0 f   DPCoreSrvr.obj
 0001:00017e20       ?SendInstanceDungeonDeleteCoolTimeInfo@CDPCoreSrvr@@QAEXHK@Z 00418e20 f   DPCoreSrvr.obj
 0001:00017f60       ?OnQuizSystemMessage@CDPCoreSrvr@@AAEXAAVCAr@@KKKK@Z 00418f60 f   DPCoreSrvr.obj
 0001:00017fe0       ??9const_iterator@?$_Tree@V?$_Tmap_traits@KP8CDPCoreSrvr@@AEXAAVCAr@@KKKK@ZU?$less@K@std@@V?$allocator@U?$pair@$$CBKP8CDPCoreSrvr@@AEXAAVCAr@@KKKK@Z@std@@@4@$0A@@std@@@std@@QBE_NABV012@@Z 00418fe0 f i DPCoreSrvr.obj
 0001:00018000       ??9const_iterator@?$_Tree@V?$_Tmap_traits@KKU?$less@K@std@@V?$allocator@U?$pair@$$CBKK@std@@@2@$0A@@std@@@std@@QBE_NABV012@@Z 00419000 f i DPCoreSrvr.obj
 0001:00018020       ??9const_iterator@?$_Tree@V?$_Tset_traits@KU?$less@K@std@@V?$allocator@K@2@$0A@@std@@@std@@QBE_NABV012@@Z 00419020 f i DPCoreSrvr.obj
 0001:00018040       ?_Lmost@?$_Tree@V?$_Tset_traits@KU?$less@K@std@@V?$allocator@K@2@$0A@@std@@@std@@IAEAAPAU_Node@?$_Tree_nod@V?$_Tset_traits@KU?$less@K@std@@V?$allocator@K@2@$0A@@std@@@2@XZ 00419040 f i DPCoreSrvr.obj
 0001:00018050       ?_Root@?$_Tree@V?$_Tmap_traits@KPAVCCtrl@@U?$less@K@std@@V?$allocator@U?$pair@$$CBKPAVCCtrl@@@std@@@3@$0A@@std@@@std@@IAEAAPAU_Node@?$_Tree_nod@V?$_Tmap_traits@KPAVCCtrl@@U?$less@K@std@@V?$allocator@U?$pair@$$CBKPAVCCtrl@@@std@@@3@$0A@@std@@@2@XZ 00419050 f i DPCoreSrvr.obj
 0001:00018060       ??0iterator@?$_Tree@V?$_Tmap_traits@KPAVCCtrl@@U?$less@K@std@@V?$allocator@U?$pair@$$CBKPAVCCtrl@@@std@@@3@$0A@@std@@@std@@QAE@PAU_Node@?$_Tree_nod@V?$_Tmap_traits@KPAVCCtrl@@U?$less@K@std@@V?$allocator@U?$pair@$$CBKPAVCCtrl@@@std@@@3@$0A@@std@@@2@@Z 00419060 f i DPCoreSrvr.obj
 0001:00018070       ?_Key@?$_Tree@V?$_Tmap_traits@KKU?$less@K@std@@V?$allocator@U?$pair@$$CBKK@std@@@2@$0A@@std@@@std@@KAABKPAU_Node@?$_Tree_nod@V?$_Tmap_traits@KKU?$less@K@std@@V?$allocator@U?$pair@$$CBKK@std@@@2@$0A@@std@@@2@@Z 00419070 f i DPCoreSrvr.obj
 0001:00018080       ?_Root@?$_Tree@V?$_Tmap_traits@KKU?$less@K@std@@V?$allocator@U?$pair@$$CBKK@std@@@2@$0A@@std@@@std@@IAEAAPAU_Node@?$_Tree_nod@V?$_Tmap_traits@KKU?$less@K@std@@V?$allocator@U?$pair@$$CBKK@std@@@2@$0A@@std@@@2@XZ 00419080 f i DPCoreSrvr.obj
 0001:00018090       ?_Key@?$_Tree@V?$_Tmap_traits@KP8CDPCoreSrvr@@AEXAAVCAr@@KKKK@ZU?$less@K@std@@V?$allocator@U?$pair@$$CBKP8CDPCoreSrvr@@AEXAAVCAr@@KKKK@Z@std@@@4@$0A@@std@@@std@@KAABKPAU_Node@?$_Tree_nod@V?$_Tmap_traits@KP8CDPCoreSrvr@@AEXAAVCAr@@KKKK@ZU?$less@K@std@@V?$allocator@U?$pair@$$CBKP8CDPCoreSrvr@@AEXAAVCAr@@KKKK@Z@std@@@4@$0A@@std@@@2@@Z 00419090 f i DPCoreSrvr.obj
 0001:000180a0       ?_Root@?$_Tree@V?$_Tmap_traits@KP8CDPCoreSrvr@@AEXAAVCAr@@KKKK@ZU?$less@K@std@@V?$allocator@U?$pair@$$CBKP8CDPCoreSrvr@@AEXAAVCAr@@KKKK@Z@std@@@4@$0A@@std@@@std@@IAEAAPAU_Node@?$_Tree_nod@V?$_Tmap_traits@KP8CDPCoreSrvr@@AEXAAVCAr@@KKKK@ZU?$less@K@std@@V?$allocator@U?$pair@$$CBKP8CDPCoreSrvr@@AEXAAVCAr@@KKKK@Z@std@@@4@$0A@@std@@@2@XZ 004190a0 f i DPCoreSrvr.obj
 0001:000180b0       ??0iterator@?$_Tree@V?$_Tmap_traits@KP8CDPCoreSrvr@@AEXAAVCAr@@KKKK@ZU?$less@K@std@@V?$allocator@U?$pair@$$CBKP8CDPCoreSrvr@@AEXAAVCAr@@KKKK@Z@std@@@4@$0A@@std@@@std@@QAE@PAU_Node@?$_Tree_nod@V?$_Tmap_traits@KP8CDPCoreSrvr@@AEXAAVCAr@@KKKK@ZU?$less@K@std@@V?$allocator@U?$pair@$$CBKP8CDPCoreSrvr@@AEXAAVCAr@@KKKK@Z@std@@@4@$0A@@std@@@2@@Z 004190b0 f i DPCoreSrvr.obj
 0001:000180c0       ??Diterator@?$_Tree@V?$_Tmap_traits@KP8CDPCoreSrvr@@AEXAAVCAr@@KKKK@ZU?$less@K@std@@V?$allocator@U?$pair@$$CBKP8CDPCoreSrvr@@AEXAAVCAr@@KKKK@Z@std@@@4@$0A@@std@@@std@@QBEAAU?$pair@$$CBKP8CDPCoreSrvr@@AEXAAVCAr@@KKKK@Z@2@XZ 004190c0 f i DPCoreSrvr.obj
 0001:000180d0       ??0iterator@?$_Tree@V?$_Tmap_traits@KKU?$less@K@std@@V?$allocator@U?$pair@$$CBKK@std@@@2@$0A@@std@@@std@@QAE@PAU_Node@?$_Tree_nod@V?$_Tmap_traits@KKU?$less@K@std@@V?$allocator@U?$pair@$$CBKK@std@@@2@$0A@@std@@@2@@Z 004190d0 f i DPCoreSrvr.obj
 0001:000180e0       ??Diterator@?$_Tree@V?$_Tmap_traits@KKU?$less@K@std@@V?$allocator@U?$pair@$$CBKK@std@@@2@$0A@@std@@@std@@QBEAAU?$pair@$$CBKK@2@XZ 004190e0 f i DPCoreSrvr.obj
 0001:000180f0       ??0iterator@?$_Tree@V?$_Tset_traits@KU?$less@K@std@@V?$allocator@K@2@$0A@@std@@@std@@QAE@PAU_Node@?$_Tree_nod@V?$_Tset_traits@KU?$less@K@std@@V?$allocator@K@2@$0A@@std@@@2@@Z 004190f0 f i DPCoreSrvr.obj
 0001:00018100       ??Dconst_iterator@?$_Tree@V?$_Tset_traits@KU?$less@K@std@@V?$allocator@K@2@$0A@@std@@@std@@QBEABKXZ 00419100 f i DPCoreSrvr.obj
 0001:00018110       ?_Lrotate@?$_Tree@V?$_Tmap_traits@KPAVCCtrl@@U?$less@K@std@@V?$allocator@U?$pair@$$CBKPAVCCtrl@@@std@@@3@$0A@@std@@@std@@IAEXPAU_Node@?$_Tree_nod@V?$_Tmap_traits@KPAVCCtrl@@U?$less@K@std@@V?$allocator@U?$pair@$$CBKPAVCCtrl@@@std@@@3@$0A@@std@@@2@@Z 00419110 f i DPCoreSrvr.obj
 0001:00018170       ?_Rrotate@?$_Tree@V?$_Tmap_traits@KPAVCCtrl@@U?$less@K@std@@V?$allocator@U?$pair@$$CBKPAVCCtrl@@@std@@@3@$0A@@std@@@std@@IAEXPAU_Node@?$_Tree_nod@V?$_Tmap_traits@KPAVCCtrl@@U?$less@K@std@@V?$allocator@U?$pair@$$CBKPAVCCtrl@@@std@@@3@$0A@@std@@@2@@Z 00419170 f i DPCoreSrvr.obj
 0001:000181d0       ?destroy@?$allocator@PAU_Node@?$_Tree_nod@V?$_Tmap_traits@KPAVCCtrl@@U?$less@K@std@@V?$allocator@U?$pair@$$CBKPAVCCtrl@@@std@@@3@$0A@@std@@@std@@@std@@QAEXPAPAU_Node@?$_Tree_nod@V?$_Tmap_traits@KPAVCCtrl@@U?$less@K@std@@V?$allocator@U?$pair@$$CBKPAVCCtrl@@@std@@@3@$0A@@std@@@2@@Z 004191d0 f i DPCoreSrvr.obj
 0001:000181e0       ?max_size@?$_Tree@V?$_Tmap_traits@KKU?$less@K@std@@V?$allocator@U?$pair@$$CBKK@std@@@2@$0A@@std@@@std@@QBEIXZ 004191e0 f i DPCoreSrvr.obj
 0001:000181f0       ?_Lbound@?$_Tree@V?$_Tmap_traits@KKU?$less@K@std@@V?$allocator@U?$pair@$$CBKK@std@@@2@$0A@@std@@@std@@IBEPAU_Node@?$_Tree_nod@V?$_Tmap_traits@KKU?$less@K@std@@V?$allocator@U?$pair@$$CBKK@std@@@2@$0A@@std@@@2@ABK@Z 004191f0 f i DPCoreSrvr.obj
 0001:00018220       ?_Lrotate@?$_Tree@V?$_Tmap_traits@KKU?$less@K@std@@V?$allocator@U?$pair@$$CBKK@std@@@2@$0A@@std@@@std@@IAEXPAU_Node@?$_Tree_nod@V?$_Tmap_traits@KKU?$less@K@std@@V?$allocator@U?$pair@$$CBKK@std@@@2@$0A@@std@@@2@@Z 00419220 f i DPCoreSrvr.obj
 0001:00018280       ?_Rrotate@?$_Tree@V?$_Tmap_traits@KKU?$less@K@std@@V?$allocator@U?$pair@$$CBKK@std@@@2@$0A@@std@@@std@@IAEXPAU_Node@?$_Tree_nod@V?$_Tmap_traits@KKU?$less@K@std@@V?$allocator@U?$pair@$$CBKK@std@@@2@$0A@@std@@@2@@Z 00419280 f i DPCoreSrvr.obj
 0001:000182e0       ?destroy@?$allocator@PAU_Node@?$_Tree_nod@V?$_Tmap_traits@KKU?$less@K@std@@V?$allocator@U?$pair@$$CBKK@std@@@2@$0A@@std@@@std@@@std@@QAEXPAPAU_Node@?$_Tree_nod@V?$_Tmap_traits@KKU?$less@K@std@@V?$allocator@U?$pair@$$CBKK@std@@@2@$0A@@std@@@2@@Z 004192e0 f i DPCoreSrvr.obj
 0001:000182f0       ?max_size@?$_Tree@V?$_Tmap_traits@KP8CDPCoreSrvr@@AEXAAVCAr@@KKKK@ZU?$less@K@std@@V?$allocator@U?$pair@$$CBKP8CDPCoreSrvr@@AEXAAVCAr@@KKKK@Z@std@@@4@$0A@@std@@@std@@QBEIXZ 004192f0 f i DPCoreSrvr.obj
 0001:00018300       ?_Lbound@?$_Tree@V?$_Tmap_traits@KP8CDPCoreSrvr@@AEXAAVCAr@@KKKK@ZU?$less@K@std@@V?$allocator@U?$pair@$$CBKP8CDPCoreSrvr@@AEXAAVCAr@@KKKK@Z@std@@@4@$0A@@std@@@std@@IBEPAU_Node@?$_Tree_nod@V?$_Tmap_traits@KP8CDPCoreSrvr@@AEXAAVCAr@@KKKK@ZU?$less@K@std@@V?$allocator@U?$pair@$$CBKP8CDPCoreSrvr@@AEXAAVCAr@@KKKK@Z@std@@@4@$0A@@std@@@2@ABK@Z 00419300 f i DPCoreSrvr.obj
 0001:00018330       ?_Lrotate@?$_Tree@V?$_Tmap_traits@KP8CDPCoreSrvr@@AEXAAVCAr@@KKKK@ZU?$less@K@std@@V?$allocator@U?$pair@$$CBKP8CDPCoreSrvr@@AEXAAVCAr@@KKKK@Z@std@@@4@$0A@@std@@@std@@IAEXPAU_Node@?$_Tree_nod@V?$_Tmap_traits@KP8CDPCoreSrvr@@AEXAAVCAr@@KKKK@ZU?$less@K@std@@V?$allocator@U?$pair@$$CBKP8CDPCoreSrvr@@AEXAAVCAr@@KKKK@Z@std@@@4@$0A@@std@@@2@@Z 00419330 f i DPCoreSrvr.obj
 0001:00018390       ?_Rrotate@?$_Tree@V?$_Tmap_traits@KP8CDPCoreSrvr@@AEXAAVCAr@@KKKK@ZU?$less@K@std@@V?$allocator@U?$pair@$$CBKP8CDPCoreSrvr@@AEXAAVCAr@@KKKK@Z@std@@@4@$0A@@std@@@std@@IAEXPAU_Node@?$_Tree_nod@V?$_Tmap_traits@KP8CDPCoreSrvr@@AEXAAVCAr@@KKKK@ZU?$less@K@std@@V?$allocator@U?$pair@$$CBKP8CDPCoreSrvr@@AEXAAVCAr@@KKKK@Z@std@@@4@$0A@@std@@@2@@Z 00419390 f i DPCoreSrvr.obj
 0001:000183f0       ?destroy@?$allocator@PAU_Node@?$_Tree_nod@V?$_Tmap_traits@KP8CDPCoreSrvr@@AEXAAVCAr@@KKKK@ZU?$less@K@std@@V?$allocator@U?$pair@$$CBKP8CDPCoreSrvr@@AEXAAVCAr@@KKKK@Z@std@@@4@$0A@@std@@@std@@@std@@QAEXPAPAU_Node@?$_Tree_nod@V?$_Tmap_traits@KP8CDPCoreSrvr@@AEXAAVCAr@@KKKK@ZU?$less@K@std@@V?$allocator@U?$pair@$$CBKP8CDPCoreSrvr@@AEXAAVCAr@@KKKK@Z@std@@@4@$0A@@std@@@2@@Z 004193f0 f i DPCoreSrvr.obj
 0001:00018400       ??Fconst_iterator@?$_Tree@V?$_Tmap_traits@KKU?$less@K@std@@V?$allocator@U?$pair@$$CBKK@std@@@2@$0A@@std@@@std@@QAEAAV012@XZ 00419400 f i DPCoreSrvr.obj
 0001:00018410       ?_Inc@const_iterator@?$_Tree@V?$_Tset_traits@KU?$less@K@std@@V?$allocator@K@2@$0A@@std@@@std@@QAEXXZ 00419410 f i DPCoreSrvr.obj
 0001:00018470       ?allocate@?$allocator@U_Node@?$_Tree_nod@V?$_Tmap_traits@KPAVCCtrl@@U?$less@K@std@@V?$allocator@U?$pair@$$CBKPAVCCtrl@@@std@@@3@$0A@@std@@@std@@@std@@QAEPAU_Node@?$_Tree_nod@V?$_Tmap_traits@KPAVCCtrl@@U?$less@K@std@@V?$allocator@U?$pair@$$CBKPAVCCtrl@@@std@@@3@$0A@@std@@@2@I@Z 00419470 f i DPCoreSrvr.obj
 0001:00018490       ?destroy@?$allocator@U_Node@?$_Tree_nod@V?$_Tmap_traits@KPAVCCtrl@@U?$less@K@std@@V?$allocator@U?$pair@$$CBKPAVCCtrl@@@std@@@3@$0A@@std@@@std@@@std@@QAEXPAU_Node@?$_Tree_nod@V?$_Tmap_traits@KPAVCCtrl@@U?$less@K@std@@V?$allocator@U?$pair@$$CBKPAVCCtrl@@@std@@@3@$0A@@std@@@2@@Z 00419490 f i DPCoreSrvr.obj
 0001:000184a0       ?_Ubound@?$_Tree@V?$_Tmap_traits@KKU?$less@K@std@@V?$allocator@U?$pair@$$CBKK@std@@@2@$0A@@std@@@std@@IBEPAU_Node@?$_Tree_nod@V?$_Tmap_traits@KKU?$less@K@std@@V?$allocator@U?$pair@$$CBKK@std@@@2@$0A@@std@@@2@ABK@Z 004194a0 f i DPCoreSrvr.obj
 0001:000184d0       ?allocate@?$allocator@U_Node@?$_Tree_nod@V?$_Tmap_traits@KKU?$less@K@std@@V?$allocator@U?$pair@$$CBKK@std@@@2@$0A@@std@@@std@@@std@@QAEPAU_Node@?$_Tree_nod@V?$_Tmap_traits@KKU?$less@K@std@@V?$allocator@U?$pair@$$CBKK@std@@@2@$0A@@std@@@2@I@Z 004194d0 f i DPCoreSrvr.obj
 0001:000184f0       ?destroy@?$allocator@U_Node@?$_Tree_nod@V?$_Tmap_traits@KKU?$less@K@std@@V?$allocator@U?$pair@$$CBKK@std@@@2@$0A@@std@@@std@@@std@@QAEXPAU_Node@?$_Tree_nod@V?$_Tmap_traits@KKU?$less@K@std@@V?$allocator@U?$pair@$$CBKK@std@@@2@$0A@@std@@@2@@Z 004194f0 f i DPCoreSrvr.obj
 0001:00018500       ?allocate@?$allocator@U_Node@?$_Tree_nod@V?$_Tmap_traits@KP8CDPCoreSrvr@@AEXAAVCAr@@KKKK@ZU?$less@K@std@@V?$allocator@U?$pair@$$CBKP8CDPCoreSrvr@@AEXAAVCAr@@KKKK@Z@std@@@4@$0A@@std@@@std@@@std@@QAEPAU_Node@?$_Tree_nod@V?$_Tmap_traits@KP8CDPCoreSrvr@@AEXAAVCAr@@KKKK@ZU?$less@K@std@@V?$allocator@U?$pair@$$CBKP8CDPCoreSrvr@@AEXAAVCAr@@KKKK@Z@std@@@4@$0A@@std@@@2@I@Z 00419500 f i DPCoreSrvr.obj
 0001:00018520       ?_Dec@const_iterator@?$_Tree@V?$_Tmap_traits@KP8CDPCoreSrvr@@AEXAAVCAr@@KKKK@ZU?$less@K@std@@V?$allocator@U?$pair@$$CBKP8CDPCoreSrvr@@AEXAAVCAr@@KKKK@Z@std@@@4@$0A@@std@@@std@@QAEXXZ 00419520 f i DPCoreSrvr.obj
 0001:00018580       ??0?$_Tree_nod@V?$_Tmap_traits@KPAVCCtrl@@U?$less@K@std@@V?$allocator@U?$pair@$$CBKPAVCCtrl@@@std@@@3@$0A@@std@@@std@@IAE@ABU?$less@K@1@V?$allocator@U?$pair@$$CBKPAVCCtrl@@@std@@@1@@Z 00419580 f i DPCoreSrvr.obj
 0001:00018590       ?construct@?$allocator@PAU_Node@?$_Tree_nod@V?$_Tmap_traits@KPAVCCtrl@@U?$less@K@std@@V?$allocator@U?$pair@$$CBKPAVCCtrl@@@std@@@3@$0A@@std@@@std@@@std@@QAEXPAPAU_Node@?$_Tree_nod@V?$_Tmap_traits@KPAVCCtrl@@U?$less@K@std@@V?$allocator@U?$pair@$$CBKPAVCCtrl@@@std@@@3@$0A@@std@@@2@ABQAU342@@Z 00419590 f i DPCoreSrvr.obj
 0001:000185b0       ??Econst_iterator@?$_Tree@V?$_Tmap_traits@KPAVCCtrl@@U?$less@K@std@@V?$allocator@U?$pair@$$CBKPAVCCtrl@@@std@@@3@$0A@@std@@@std@@QAEAAV012@XZ 004195b0 f i DPCoreSrvr.obj
 0001:000185c0       ??0?$_Tree_nod@V?$_Tmap_traits@KKU?$less@K@std@@V?$allocator@U?$pair@$$CBKK@std@@@2@$0A@@std@@@std@@IAE@ABU?$less@K@1@V?$allocator@U?$pair@$$CBKK@std@@@1@@Z 004195c0 f i DPCoreSrvr.obj
 0001:000185d0       ?construct@?$allocator@PAU_Node@?$_Tree_nod@V?$_Tmap_traits@KKU?$less@K@std@@V?$allocator@U?$pair@$$CBKK@std@@@2@$0A@@std@@@std@@@std@@QAEXPAPAU_Node@?$_Tree_nod@V?$_Tmap_traits@KKU?$less@K@std@@V?$allocator@U?$pair@$$CBKK@std@@@2@$0A@@std@@@2@ABQAU342@@Z 004195d0 f i DPCoreSrvr.obj
 0001:000185f0       ??0?$_Tree_nod@V?$_Tmap_traits@KP8CDPCoreSrvr@@AEXAAVCAr@@KKKK@ZU?$less@K@std@@V?$allocator@U?$pair@$$CBKP8CDPCoreSrvr@@AEXAAVCAr@@KKKK@Z@std@@@4@$0A@@std@@@std@@IAE@ABU?$less@K@1@V?$allocator@U?$pair@$$CBKP8CDPCoreSrvr@@AEXAAVCAr@@KKKK@Z@std@@@1@@Z 004195f0 f i DPCoreSrvr.obj
 0001:00018600       ?destroy@?$allocator@U_Node@?$_Tree_nod@V?$_Tmap_traits@KP8CDPCoreSrvr@@AEXAAVCAr@@KKKK@ZU?$less@K@std@@V?$allocator@U?$pair@$$CBKP8CDPCoreSrvr@@AEXAAVCAr@@KKKK@Z@std@@@4@$0A@@std@@@std@@@std@@QAEXPAU_Node@?$_Tree_nod@V?$_Tmap_traits@KP8CDPCoreSrvr@@AEXAAVCAr@@KKKK@ZU?$less@K@std@@V?$allocator@U?$pair@$$CBKP8CDPCoreSrvr@@AEXAAVCAr@@KKKK@Z@std@@@4@$0A@@std@@@2@@Z 00419600 f i DPCoreSrvr.obj
 0001:00018610       ?construct@?$allocator@PAU_Node@?$_Tree_nod@V?$_Tmap_traits@KP8CDPCoreSrvr@@AEXAAVCAr@@KKKK@ZU?$less@K@std@@V?$allocator@U?$pair@$$CBKP8CDPCoreSrvr@@AEXAAVCAr@@KKKK@Z@std@@@4@$0A@@std@@@std@@@std@@QAEXPAPAU_Node@?$_Tree_nod@V?$_Tmap_traits@KP8CDPCoreSrvr@@AEXAAVCAr@@KKKK@ZU?$less@K@std@@V?$allocator@U?$pair@$$CBKP8CDPCoreSrvr@@AEXAAVCAr@@KKKK@Z@std@@@4@$0A@@std@@@2@ABQAU342@@Z 00419610 f i DPCoreSrvr.obj
 0001:00018630       ??Econst_iterator@?$_Tree@V?$_Tmap_traits@KKU?$less@K@std@@V?$allocator@U?$pair@$$CBKK@std@@@2@$0A@@std@@@std@@QAEAAV012@XZ 00419630 f i DPCoreSrvr.obj
 0001:00018640       ??Econst_iterator@?$_Tree@V?$_Tmap_traits@KP8CDPCoreSrvr@@AEXAAVCAr@@KKKK@ZU?$less@K@std@@V?$allocator@U?$pair@$$CBKP8CDPCoreSrvr@@AEXAAVCAr@@KKKK@Z@std@@@4@$0A@@std@@@std@@QAEAAV012@XZ 00419640 f i DPCoreSrvr.obj
 0001:00018650       ?OnJoin@CDPCoreSrvr@@AAEXAAVCAr@@KKKK@Z 00419650 f   DPCoreSrvr.obj
 0001:00018790       ?OnShout@CDPCoreSrvr@@AAEXAAVCAr@@KKKK@Z 00419790 f   DPCoreSrvr.obj
 0001:00018810       ?OnPartySkillUse@CDPCoreSrvr@@AAEXAAVCAr@@KKKK@Z 00419810 f   DPCoreSrvr.obj
 0001:00018a00       ?OnPartyChat@CDPCoreSrvr@@AAEXAAVCAr@@KKKK@Z 00419a00 f   DPCoreSrvr.obj
 0001:00018b60       ?OnStopRain@CDPCoreSrvr@@AAEXAAVCAr@@KKKK@Z 00419b60 f   DPCoreSrvr.obj
 0001:00018b90       ?OnSetSnoop@CDPCoreSrvr@@AAEXAAVCAr@@KKKK@Z 00419b90 f   DPCoreSrvr.obj
 0001:00018ca0       ?OnGCState@CDPCoreSrvr@@AAEXAAVCAr@@KKKK@Z 00419ca0 f   DPCoreSrvr.obj
 0001:00018ce0       ?begin@?$_Tree@V?$_Tset_traits@KU?$less@K@std@@V?$allocator@K@2@$0A@@std@@@std@@QAE?AViterator@12@XZ 00419ce0 f i DPCoreSrvr.obj
 0001:00018cf0       ?end@?$_Tree@V?$_Tset_traits@KU?$less@K@std@@V?$allocator@K@2@$0A@@std@@@std@@QAE?AViterator@12@XZ 00419cf0 f i DPCoreSrvr.obj
 0001:00018d00       ?end@?$_Tree@V?$_Tmap_traits@KPAVCCtrl@@U?$less@K@std@@V?$allocator@U?$pair@$$CBKPAVCCtrl@@@std@@@3@$0A@@std@@@std@@QAE?AViterator@12@XZ 00419d00 f i DPCoreSrvr.obj
 0001:00018d10       ?end@?$_Tree@V?$_Tmap_traits@KKU?$less@K@std@@V?$allocator@U?$pair@$$CBKK@std@@@2@$0A@@std@@@std@@QAE?AViterator@12@XZ 00419d10 f i DPCoreSrvr.obj
 0001:00018d20       ?end@?$_Tree@V?$_Tmap_traits@KP8CDPCoreSrvr@@AEXAAVCAr@@KKKK@ZU?$less@K@std@@V?$allocator@U?$pair@$$CBKP8CDPCoreSrvr@@AEXAAVCAr@@KKKK@Z@std@@@4@$0A@@std@@@std@@QAE?AViterator@12@XZ 00419d20 f i DPCoreSrvr.obj
 0001:00018d30       ??Citerator@?$_Tree@V?$_Tmap_traits@KP8CDPCoreSrvr@@AEXAAVCAr@@KKKK@ZU?$less@K@std@@V?$allocator@U?$pair@$$CBKP8CDPCoreSrvr@@AEXAAVCAr@@KKKK@Z@std@@@4@$0A@@std@@@std@@QBEPAU?$pair@$$CBKP8CDPCoreSrvr@@AEXAAVCAr@@KKKK@Z@2@XZ 00419d30 f i DPCoreSrvr.obj
 0001:00018d40       ??Citerator@?$_Tree@V?$_Tmap_traits@KKU?$less@K@std@@V?$allocator@U?$pair@$$CBKK@std@@@2@$0A@@std@@@std@@QBEPAU?$pair@$$CBKK@2@XZ 00419d40 f i DPCoreSrvr.obj
 0001:00018d50       ??Diterator@?$_Tree@V?$_Tset_traits@KU?$less@K@std@@V?$allocator@K@2@$0A@@std@@@std@@QBEAAKXZ 00419d50 f i DPCoreSrvr.obj
 0001:00018d60       ?begin@?$_Tree@V?$_Tmap_traits@KPAVCCtrl@@U?$less@K@std@@V?$allocator@U?$pair@$$CBKPAVCCtrl@@@std@@@3@$0A@@std@@@std@@QAE?AViterator@12@XZ 00419d60 f i DPCoreSrvr.obj
 0001:00018d70       ?begin@?$_Tree@V?$_Tmap_traits@KKU?$less@K@std@@V?$allocator@U?$pair@$$CBKK@std@@@2@$0A@@std@@@std@@QAE?AViterator@12@XZ 00419d70 f i DPCoreSrvr.obj
 0001:00018d80       ?lower_bound@?$_Tree@V?$_Tmap_traits@KKU?$less@K@std@@V?$allocator@U?$pair@$$CBKK@std@@@2@$0A@@std@@@std@@QAE?AViterator@12@ABK@Z 00419d80 f i DPCoreSrvr.obj
 0001:00018dc0       ?begin@?$_Tree@V?$_Tmap_traits@KP8CDPCoreSrvr@@AEXAAVCAr@@KKKK@ZU?$less@K@std@@V?$allocator@U?$pair@$$CBKP8CDPCoreSrvr@@AEXAAVCAr@@KKKK@Z@std@@@4@$0A@@std@@@std@@QAE?AViterator@12@XZ 00419dc0 f i DPCoreSrvr.obj
 0001:00018dd0       ?lower_bound@?$_Tree@V?$_Tmap_traits@KP8CDPCoreSrvr@@AEXAAVCAr@@KKKK@ZU?$less@K@std@@V?$allocator@U?$pair@$$CBKP8CDPCoreSrvr@@AEXAAVCAr@@KKKK@Z@std@@@4@$0A@@std@@@std@@QAE?AViterator@12@ABK@Z 00419dd0 f i DPCoreSrvr.obj
 0001:00018e10       ??Fiterator@?$_Tree@V?$_Tmap_traits@KKU?$less@K@std@@V?$allocator@U?$pair@$$CBKK@std@@@2@$0A@@std@@@std@@QAEAAV012@XZ 00419e10 f i DPCoreSrvr.obj
 0001:00018e20       ??Econst_iterator@?$_Tree@V?$_Tset_traits@KU?$less@K@std@@V?$allocator@K@2@$0A@@std@@@std@@QAEAAV012@XZ 00419e20 f i DPCoreSrvr.obj
 0001:00018e30       ?upper_bound@?$_Tree@V?$_Tmap_traits@KKU?$less@K@std@@V?$allocator@U?$pair@$$CBKK@std@@@2@$0A@@std@@@std@@QAE?AViterator@12@ABK@Z 00419e30 f i DPCoreSrvr.obj
 0001:00018e70       ?_Buynode@?$_Tree@V?$_Tmap_traits@KKU?$less@K@std@@V?$allocator@U?$pair@$$CBKK@std@@@2@$0A@@std@@@std@@IAEPAU_Node@?$_Tree_nod@V?$_Tmap_traits@KKU?$less@K@std@@V?$allocator@U?$pair@$$CBKK@std@@@2@$0A@@std@@@2@PAU342@00ABU?$pair@$$CBKK@2@D@Z 00419e70 f i DPCoreSrvr.obj
 0001:00018eb0       ?_Buynode@?$_Tree@V?$_Tmap_traits@KP8CDPCoreSrvr@@AEXAAVCAr@@KKKK@ZU?$less@K@std@@V?$allocator@U?$pair@$$CBKP8CDPCoreSrvr@@AEXAAVCAr@@KKKK@Z@std@@@4@$0A@@std@@@std@@IAEPAU_Node@?$_Tree_nod@V?$_Tmap_traits@KP8CDPCoreSrvr@@AEXAAVCAr@@KKKK@ZU?$less@K@std@@V?$allocator@U?$pair@$$CBKP8CDPCoreSrvr@@AEXAAVCAr@@KKKK@Z@std@@@4@$0A@@std@@@2@PAU342@00ABU?$pair@$$CBKP8CDPCoreSrvr@@AEXAAVCAr@@KKKK@Z@2@D@Z 00419eb0 f i DPCoreSrvr.obj
 0001:00018ef0       ??Fconst_iterator@?$_Tree@V?$_Tmap_traits@KP8CDPCoreSrvr@@AEXAAVCAr@@KKKK@ZU?$less@K@std@@V?$allocator@U?$pair@$$CBKP8CDPCoreSrvr@@AEXAAVCAr@@KKKK@Z@std@@@4@$0A@@std@@@std@@QAEAAV012@XZ 00419ef0 f i DPCoreSrvr.obj
 0001:00018f00       ?_Erase@?$_Tree@V?$_Tmap_traits@KPAVCCtrl@@U?$less@K@std@@V?$allocator@U?$pair@$$CBKPAVCCtrl@@@std@@@3@$0A@@std@@@std@@IAEXPAU_Node@?$_Tree_nod@V?$_Tmap_traits@KPAVCCtrl@@U?$less@K@std@@V?$allocator@U?$pair@$$CBKPAVCCtrl@@@std@@@3@$0A@@std@@@2@@Z 00419f00 f i DPCoreSrvr.obj
 0001:00018f40       ?_Buynode@?$_Tree@V?$_Tmap_traits@KPAVCCtrl@@U?$less@K@std@@V?$allocator@U?$pair@$$CBKPAVCCtrl@@@std@@@3@$0A@@std@@@std@@IAEPAU_Node@?$_Tree_nod@V?$_Tmap_traits@KPAVCCtrl@@U?$less@K@std@@V?$allocator@U?$pair@$$CBKPAVCCtrl@@@std@@@3@$0A@@std@@@2@XZ 00419f40 f i DPCoreSrvr.obj
 0001:00018f80       ??0?$_Tree_ptr@V?$_Tmap_traits@KPAVCCtrl@@U?$less@K@std@@V?$allocator@U?$pair@$$CBKPAVCCtrl@@@std@@@3@$0A@@std@@@std@@IAE@ABU?$less@K@1@V?$allocator@U?$pair@$$CBKPAVCCtrl@@@std@@@1@@Z 00419f80 f i DPCoreSrvr.obj
 0001:00018f90       ??Eiterator@?$_Tree@V?$_Tmap_traits@KPAVCCtrl@@U?$less@K@std@@V?$allocator@U?$pair@$$CBKPAVCCtrl@@@std@@@3@$0A@@std@@@std@@QAEAAV012@XZ 00419f90 f i DPCoreSrvr.obj
 0001:00018fa0       ?_Erase@?$_Tree@V?$_Tmap_traits@KKU?$less@K@std@@V?$allocator@U?$pair@$$CBKK@std@@@2@$0A@@std@@@std@@IAEXPAU_Node@?$_Tree_nod@V?$_Tmap_traits@KKU?$less@K@std@@V?$allocator@U?$pair@$$CBKK@std@@@2@$0A@@std@@@2@@Z 00419fa0 f i DPCoreSrvr.obj
 0001:00018fe0       ?_Buynode@?$_Tree@V?$_Tmap_traits@KKU?$less@K@std@@V?$allocator@U?$pair@$$CBKK@std@@@2@$0A@@std@@@std@@IAEPAU_Node@?$_Tree_nod@V?$_Tmap_traits@KKU?$less@K@std@@V?$allocator@U?$pair@$$CBKK@std@@@2@$0A@@std@@@2@XZ 00419fe0 f i DPCoreSrvr.obj
 0001:00019020       ??0?$_Tree_ptr@V?$_Tmap_traits@KKU?$less@K@std@@V?$allocator@U?$pair@$$CBKK@std@@@2@$0A@@std@@@std@@IAE@ABU?$less@K@1@V?$allocator@U?$pair@$$CBKK@std@@@1@@Z 0041a020 f i DPCoreSrvr.obj
 0001:00019030       ?_Buynode@?$_Tree@V?$_Tmap_traits@KP8CDPCoreSrvr@@AEXAAVCAr@@KKKK@ZU?$less@K@std@@V?$allocator@U?$pair@$$CBKP8CDPCoreSrvr@@AEXAAVCAr@@KKKK@Z@std@@@4@$0A@@std@@@std@@IAEPAU_Node@?$_Tree_nod@V?$_Tmap_traits@KP8CDPCoreSrvr@@AEXAAVCAr@@KKKK@ZU?$less@K@std@@V?$allocator@U?$pair@$$CBKP8CDPCoreSrvr@@AEXAAVCAr@@KKKK@Z@std@@@4@$0A@@std@@@2@XZ 0041a030 f i DPCoreSrvr.obj
 0001:00019070       ??0?$_Tree_ptr@V?$_Tmap_traits@KP8CDPCoreSrvr@@AEXAAVCAr@@KKKK@ZU?$less@K@std@@V?$allocator@U?$pair@$$CBKP8CDPCoreSrvr@@AEXAAVCAr@@KKKK@Z@std@@@4@$0A@@std@@@std@@IAE@ABU?$less@K@1@V?$allocator@U?$pair@$$CBKP8CDPCoreSrvr@@AEXAAVCAr@@KKKK@Z@std@@@1@@Z 0041a070 f i DPCoreSrvr.obj
 0001:00019080       ??Eiterator@?$_Tree@V?$_Tmap_traits@KKU?$less@K@std@@V?$allocator@U?$pair@$$CBKK@std@@@2@$0A@@std@@@std@@QAEAAV012@XZ 0041a080 f i DPCoreSrvr.obj
 0001:00019090       ?_Erase@?$_Tree@V?$_Tmap_traits@KP8CDPCoreSrvr@@AEXAAVCAr@@KKKK@ZU?$less@K@std@@V?$allocator@U?$pair@$$CBKP8CDPCoreSrvr@@AEXAAVCAr@@KKKK@Z@std@@@4@$0A@@std@@@std@@IAEXPAU_Node@?$_Tree_nod@V?$_Tmap_traits@KP8CDPCoreSrvr@@AEXAAVCAr@@KKKK@ZU?$less@K@std@@V?$allocator@U?$pair@$$CBKP8CDPCoreSrvr@@AEXAAVCAr@@KKKK@Z@std@@@4@$0A@@std@@@2@@Z 0041a090 f i DPCoreSrvr.obj
 0001:000190d0       ??Eiterator@?$_Tree@V?$_Tmap_traits@KP8CDPCoreSrvr@@AEXAAVCAr@@KKKK@ZU?$less@K@std@@V?$allocator@U?$pair@$$CBKP8CDPCoreSrvr@@AEXAAVCAr@@KKKK@Z@std@@@4@$0A@@std@@@std@@QAEAAV012@XZ 0041a0d0 f i DPCoreSrvr.obj
 0001:000190e0       ??$_Distance2@Viterator@?$_Tree@V?$_Tmap_traits@KKU?$less@K@std@@V?$allocator@U?$pair@$$CBKK@std@@@2@$0A@@std@@@std@@I@std@@YAXViterator@?$_Tree@V?$_Tmap_traits@KKU?$less@K@std@@V?$allocator@U?$pair@$$CBKK@std@@@2@$0A@@std@@@0@0AAIUbidirectional_iterator_tag@0@@Z 0041a0e0 f i DPCoreSrvr.obj
 0001:00019110       ?GetWorldSrvrDPID@CDPCoreSrvr@@AAEKKKABUD3DXVECTOR3@@@Z 0041a110 f i DPCoreSrvr.obj
 0001:00019180       ?OnWCWantedReward@CDPCoreSrvr@@QAEXAAVCAr@@KKKK@Z 0041a180 f   DPCoreSrvr.obj
 0001:000194b0       ?find@?$_Tree@V?$_Tmap_traits@KPAVCServerDesc@@U?$less@K@std@@V?$allocator@U?$pair@$$CBKPAVCServerDesc@@@std@@@3@$0A@@std@@@std@@QAE?AViterator@12@ABK@Z 0041a4b0 f i DPCoreSrvr.obj
 0001:00019520       ?find@?$_Tree@V?$_Tmap_traits@KKU?$less@K@std@@V?$allocator@U?$pair@$$CBKK@std@@@2@$0A@@std@@@std@@QAE?AViterator@12@ABK@Z 0041a520 f i DPCoreSrvr.obj
 0001:00019590       ?find@?$_Tree@V?$_Tmap_traits@KP8CDPCoreSrvr@@AEXAAVCAr@@KKKK@ZU?$less@K@std@@V?$allocator@U?$pair@$$CBKP8CDPCoreSrvr@@AEXAAVCAr@@KKKK@Z@std@@@4@$0A@@std@@@std@@QAE?AViterator@12@ABK@Z 0041a590 f i DPCoreSrvr.obj
 0001:00019600       ??Eiterator@?$_Tree@V?$_Tset_traits@KU?$less@K@std@@V?$allocator@K@2@$0A@@std@@@std@@QAEAAV012@XZ 0041a600 f i DPCoreSrvr.obj
 0001:00019610       ?equal_range@?$_Tree@V?$_Tmap_traits@KKU?$less@K@std@@V?$allocator@U?$pair@$$CBKK@std@@@2@$0A@@std@@@std@@QAE?AU?$pair@Viterator@?$_Tree@V?$_Tmap_traits@KKU?$less@K@std@@V?$allocator@U?$pair@$$CBKK@std@@@2@$0A@@std@@@std@@V123@@2@ABK@Z 0041a610 f i DPCoreSrvr.obj
 0001:00019680       ??Fiterator@?$_Tree@V?$_Tmap_traits@KP8CDPCoreSrvr@@AEXAAVCAr@@KKKK@ZU?$less@K@std@@V?$allocator@U?$pair@$$CBKP8CDPCoreSrvr@@AEXAAVCAr@@KKKK@Z@std@@@4@$0A@@std@@@std@@QAEAAV012@XZ 0041a680 f i DPCoreSrvr.obj
 0001:00019690       ?clear@?$_Tree@V?$_Tmap_traits@KPAVCCtrl@@U?$less@K@std@@V?$allocator@U?$pair@$$CBKPAVCCtrl@@@std@@@3@$0A@@std@@@std@@QAEXXZ 0041a690 f i DPCoreSrvr.obj
 0001:000196c0       ?_Init@?$_Tree@V?$_Tmap_traits@KPAVCCtrl@@U?$less@K@std@@V?$allocator@U?$pair@$$CBKPAVCCtrl@@@std@@@3@$0A@@std@@@std@@IAEXXZ 0041a6c0 f i DPCoreSrvr.obj
 0001:000196f0       ??0?$_Tree_val@V?$_Tmap_traits@KPAVCCtrl@@U?$less@K@std@@V?$allocator@U?$pair@$$CBKPAVCCtrl@@@std@@@3@$0A@@std@@@std@@IAE@ABU?$less@K@1@V?$allocator@U?$pair@$$CBKPAVCCtrl@@@std@@@1@@Z 0041a6f0 f i DPCoreSrvr.obj
 0001:00019700       ??Eiterator@?$_Tree@V?$_Tmap_traits@KPAVCCtrl@@U?$less@K@std@@V?$allocator@U?$pair@$$CBKPAVCCtrl@@@std@@@3@$0A@@std@@@std@@QAE?AV012@H@Z 0041a700 f i DPCoreSrvr.obj
 0001:00019720       ?clear@?$_Tree@V?$_Tmap_traits@KKU?$less@K@std@@V?$allocator@U?$pair@$$CBKK@std@@@2@$0A@@std@@@std@@QAEXXZ 0041a720 f i DPCoreSrvr.obj
 0001:00019750       ?_Init@?$_Tree@V?$_Tmap_traits@KKU?$less@K@std@@V?$allocator@U?$pair@$$CBKK@std@@@2@$0A@@std@@@std@@IAEXXZ 0041a750 f i DPCoreSrvr.obj
 0001:00019780       ??0?$_Tree_val@V?$_Tmap_traits@KKU?$less@K@std@@V?$allocator@U?$pair@$$CBKK@std@@@2@$0A@@std@@@std@@IAE@ABU?$less@K@1@V?$allocator@U?$pair@$$CBKK@std@@@1@@Z 0041a780 f i DPCoreSrvr.obj
 0001:00019790       ?_Init@?$_Tree@V?$_Tmap_traits@KP8CDPCoreSrvr@@AEXAAVCAr@@KKKK@ZU?$less@K@std@@V?$allocator@U?$pair@$$CBKP8CDPCoreSrvr@@AEXAAVCAr@@KKKK@Z@std@@@4@$0A@@std@@@std@@IAEXXZ 0041a790 f i DPCoreSrvr.obj
 0001:000197c0       ??0?$_Tree_val@V?$_Tmap_traits@KP8CDPCoreSrvr@@AEXAAVCAr@@KKKK@ZU?$less@K@std@@V?$allocator@U?$pair@$$CBKP8CDPCoreSrvr@@AEXAAVCAr@@KKKK@Z@std@@@4@$0A@@std@@@std@@IAE@ABU?$less@K@1@V?$allocator@U?$pair@$$CBKP8CDPCoreSrvr@@AEXAAVCAr@@KKKK@Z@std@@@1@@Z 0041a7c0 f i DPCoreSrvr.obj
 0001:000197d0       ??Eiterator@?$_Tree@V?$_Tmap_traits@KKU?$less@K@std@@V?$allocator@U?$pair@$$CBKK@std@@@2@$0A@@std@@@std@@QAE?AV012@H@Z 0041a7d0 f i DPCoreSrvr.obj
 0001:000197f0       ?clear@?$_Tree@V?$_Tmap_traits@KP8CDPCoreSrvr@@AEXAAVCAr@@KKKK@ZU?$less@K@std@@V?$allocator@U?$pair@$$CBKP8CDPCoreSrvr@@AEXAAVCAr@@KKKK@Z@std@@@4@$0A@@std@@@std@@QAEXXZ 0041a7f0 f i DPCoreSrvr.obj
 0001:00019820       ??Eiterator@?$_Tree@V?$_Tmap_traits@KP8CDPCoreSrvr@@AEXAAVCAr@@KKKK@ZU?$less@K@std@@V?$allocator@U?$pair@$$CBKP8CDPCoreSrvr@@AEXAAVCAr@@KKKK@Z@std@@@4@$0A@@std@@@std@@QAE?AV012@H@Z 0041a820 f i DPCoreSrvr.obj
 0001:00019840       ??$_Distance@Viterator@?$_Tree@V?$_Tmap_traits@KKU?$less@K@std@@V?$allocator@U?$pair@$$CBKK@std@@@2@$0A@@std@@@std@@I@std@@YAXViterator@?$_Tree@V?$_Tmap_traits@KKU?$less@K@std@@V?$allocator@U?$pair@$$CBKK@std@@@2@$0A@@std@@@0@0AAI@Z 0041a840 f i DPCoreSrvr.obj
 0001:00019880       ?GetHandler@CDPCoreSrvr@@AAEP81@AEXAAVCAr@@KKKK@ZK@Z 0041a880 f i DPCoreSrvr.obj
 0001:000198c0       ?GetWorldSrvrDPID@CDPCoreSrvr@@AAEKK@Z 0041a8c0 f i DPCoreSrvr.obj
 0001:000198f0       ?GetIdofMulti@CDPCoreSrvr@@AAEKK@Z 0041a8f0 f i DPCoreSrvr.obj
 0001:00019930       ?UserMessageHandler@CDPCoreSrvr@@UAEXPAUDPMSG_GENERIC@@KK@Z 0041a930 f   DPCoreSrvr.obj
 0001:00019b10       ?OnGMSay@CDPCoreSrvr@@AAEXAAVCAr@@KKKK@Z 0041ab10 f   DPCoreSrvr.obj
 0001:00019c50       ?OnPlayMusic@CDPCoreSrvr@@AAEXAAVCAr@@KKKK@Z 0041ac50 f   DPCoreSrvr.obj
 0001:00019d70       ?OnPlaySound@CDPCoreSrvr@@AAEXAAVCAr@@KKKK@Z 0041ad70 f   DPCoreSrvr.obj
 0001:00019e90       ?OnGuildChat@CDPCoreSrvr@@QAEXAAVCAr@@KKKK@Z 0041ae90 f   DPCoreSrvr.obj
 0001:0001a0c0       ?OnWarDead@CDPCoreSrvr@@QAEXAAVCAr@@KKKK@Z 0041b0c0 f   DPCoreSrvr.obj
 0001:0001a2f0       ??0?$_Tree@V?$_Tmap_traits@KPAVCCtrl@@U?$less@K@std@@V?$allocator@U?$pair@$$CBKPAVCCtrl@@@std@@@3@$0A@@std@@@std@@QAE@ABU?$less@K@1@ABV?$allocator@U?$pair@$$CBKPAVCCtrl@@@std@@@1@@Z 0041b2f0 f i DPCoreSrvr.obj
 0001:0001a320       ??0?$_Tree@V?$_Tmap_traits@KKU?$less@K@std@@V?$allocator@U?$pair@$$CBKK@std@@@2@$0A@@std@@@std@@QAE@ABU?$less@K@1@ABV?$allocator@U?$pair@$$CBKK@std@@@1@@Z 0041b320 f i DPCoreSrvr.obj
 0001:0001a350       ??0?$_Tree@V?$_Tmap_traits@KP8CDPCoreSrvr@@AEXAAVCAr@@KKKK@ZU?$less@K@std@@V?$allocator@U?$pair@$$CBKP8CDPCoreSrvr@@AEXAAVCAr@@KKKK@Z@std@@@4@$0A@@std@@@std@@QAE@ABU?$less@K@1@ABV?$allocator@U?$pair@$$CBKP8CDPCoreSrvr@@AEXAAVCAr@@KKKK@Z@std@@@1@@Z 0041b350 f i DPCoreSrvr.obj
 0001:0001a380       ?_Insert@?$_Tree@V?$_Tmap_traits@KKU?$less@K@std@@V?$allocator@U?$pair@$$CBKK@std@@@2@$0A@@std@@@std@@IAE?AViterator@12@_NPAU_Node@?$_Tree_nod@V?$_Tmap_traits@KKU?$less@K@std@@V?$allocator@U?$pair@$$CBKK@std@@@2@$0A@@std@@@2@ABU?$pair@$$CBKK@2@@Z 0041b380 f i DPCoreSrvr.obj
 0001:0001a530       ?_Insert@?$_Tree@V?$_Tmap_traits@KP8CDPCoreSrvr@@AEXAAVCAr@@KKKK@ZU?$less@K@std@@V?$allocator@U?$pair@$$CBKP8CDPCoreSrvr@@AEXAAVCAr@@KKKK@Z@std@@@4@$0A@@std@@@std@@IAE?AViterator@12@_NPAU_Node@?$_Tree_nod@V?$_Tmap_traits@KP8CDPCoreSrvr@@AEXAAVCAr@@KKKK@ZU?$less@K@std@@V?$allocator@U?$pair@$$CBKP8CDPCoreSrvr@@AEXAAVCAr@@KKKK@Z@std@@@4@$0A@@std@@@2@ABU?$pair@$$CBKP8CDPCoreSrvr@@AEXAAVCAr@@KKKK@Z@2@@Z 0041b530 f i DPCoreSrvr.obj
 0001:0001a6e0       ?erase@?$_Tree@V?$_Tmap_traits@KPAVCCtrl@@U?$less@K@std@@V?$allocator@U?$pair@$$CBKPAVCCtrl@@@std@@@3@$0A@@std@@@std@@QAE?AViterator@12@V312@@Z 0041b6e0 f i DPCoreSrvr.obj
 0001:0001a9a0       ?erase@?$_Tree@V?$_Tmap_traits@KKU?$less@K@std@@V?$allocator@U?$pair@$$CBKK@std@@@2@$0A@@std@@@std@@QAE?AViterator@12@V312@@Z 0041b9a0 f i DPCoreSrvr.obj
 0001:0001ac60       ?erase@?$_Tree@V?$_Tmap_traits@KP8CDPCoreSrvr@@AEXAAVCAr@@KKKK@ZU?$less@K@std@@V?$allocator@U?$pair@$$CBKP8CDPCoreSrvr@@AEXAAVCAr@@KKKK@Z@std@@@4@$0A@@std@@@std@@QAE?AViterator@12@V312@@Z 0041bc60 f i DPCoreSrvr.obj
 0001:0001af20       ?insert@?$_Tree@V?$_Tmap_traits@KKU?$less@K@std@@V?$allocator@U?$pair@$$CBKK@std@@@2@$0A@@std@@@std@@QAE?AU?$pair@Viterator@?$_Tree@V?$_Tmap_traits@KKU?$less@K@std@@V?$allocator@U?$pair@$$CBKK@std@@@2@$0A@@std@@@std@@_N@2@ABU?$pair@$$CBKK@2@@Z 0041bf20 f i DPCoreSrvr.obj
 0001:0001afe0       ?insert@?$_Tree@V?$_Tmap_traits@KP8CDPCoreSrvr@@AEXAAVCAr@@KKKK@ZU?$less@K@std@@V?$allocator@U?$pair@$$CBKP8CDPCoreSrvr@@AEXAAVCAr@@KKKK@Z@std@@@4@$0A@@std@@@std@@QAE?AU?$pair@Viterator@?$_Tree@V?$_Tmap_traits@KP8CDPCoreSrvr@@AEXAAVCAr@@KKKK@ZU?$less@K@std@@V?$allocator@U?$pair@$$CBKP8CDPCoreSrvr@@AEXAAVCAr@@KKKK@Z@std@@@4@$0A@@std@@@std@@_N@2@ABU?$pair@$$CBKP8CDPCoreSrvr@@AEXAAVCAr@@KKKK@Z@2@@Z 0041bfe0 f i DPCoreSrvr.obj
 0001:0001b0a0       ?erase@?$_Tree@V?$_Tmap_traits@KPAVCCtrl@@U?$less@K@std@@V?$allocator@U?$pair@$$CBKPAVCCtrl@@@std@@@3@$0A@@std@@@std@@QAE?AViterator@12@V312@0@Z 0041c0a0 f i DPCoreSrvr.obj
 0001:0001b160       ?_Tidy@?$_Tree@V?$_Tmap_traits@KPAVCCtrl@@U?$less@K@std@@V?$allocator@U?$pair@$$CBKPAVCCtrl@@@std@@@3@$0A@@std@@@std@@IAEXXZ 0041c160 f i DPCoreSrvr.obj
 0001:0001b190       ?erase@?$_Tree@V?$_Tmap_traits@KKU?$less@K@std@@V?$allocator@U?$pair@$$CBKK@std@@@2@$0A@@std@@@std@@QAE?AViterator@12@V312@0@Z 0041c190 f i DPCoreSrvr.obj
 0001:0001b250       ?_Tidy@?$_Tree@V?$_Tmap_traits@KKU?$less@K@std@@V?$allocator@U?$pair@$$CBKK@std@@@2@$0A@@std@@@std@@IAEXXZ 0041c250 f i DPCoreSrvr.obj
 0001:0001b280       ?erase@?$_Tree@V?$_Tmap_traits@KP8CDPCoreSrvr@@AEXAAVCAr@@KKKK@ZU?$less@K@std@@V?$allocator@U?$pair@$$CBKP8CDPCoreSrvr@@AEXAAVCAr@@KKKK@Z@std@@@4@$0A@@std@@@std@@QAE?AViterator@12@V312@0@Z 0041c280 f i DPCoreSrvr.obj
 0001:0001b340       ?OnAddConnection@CDPCoreSrvr@@AAEXAAVCAr@@KKKK@Z 0041c340 f   DPCoreSrvr.obj
 0001:0001b630       ??1?$_Tree@V?$_Tmap_traits@KPAVCCtrl@@U?$less@K@std@@V?$allocator@U?$pair@$$CBKPAVCCtrl@@@std@@@3@$0A@@std@@@std@@QAE@XZ 0041c630 f i DPCoreSrvr.obj
 0001:0001b660       ??1?$_Tree@V?$_Tmap_traits@KKU?$less@K@std@@V?$allocator@U?$pair@$$CBKK@std@@@2@$0A@@std@@@std@@QAE@XZ 0041c660 f i DPCoreSrvr.obj
 0001:0001b690       ?erase@?$_Tree@V?$_Tmap_traits@KKU?$less@K@std@@V?$allocator@U?$pair@$$CBKK@std@@@2@$0A@@std@@@std@@QAEIABK@Z 0041c690 f i DPCoreSrvr.obj
 0001:0001b6f0       ?_Tidy@?$_Tree@V?$_Tmap_traits@KP8CDPCoreSrvr@@AEXAAVCAr@@KKKK@ZU?$less@K@std@@V?$allocator@U?$pair@$$CBKP8CDPCoreSrvr@@AEXAAVCAr@@KKKK@Z@std@@@4@$0A@@std@@@std@@IAEXXZ 0041c6f0 f i DPCoreSrvr.obj
 0001:0001b720       ??1?$map@KKU?$less@K@std@@V?$allocator@U?$pair@$$CBKK@std@@@2@@std@@QAE@XZ 0041c720 f i DPCoreSrvr.obj
 0001:0001b750       ??1?$map@KPAVCCtrl@@U?$less@K@std@@V?$allocator@U?$pair@$$CBKPAVCCtrl@@@std@@@3@@std@@QAE@XZ 0041c750 f i DPCoreSrvr.obj
 0001:0001b780       ?OnRemoveConnection@CDPCoreSrvr@@AAEXK@Z 0041c780 f   DPCoreSrvr.obj
 0001:0001b860       ??0?$map@KPAVCCtrl@@U?$less@K@std@@V?$allocator@U?$pair@$$CBKPAVCCtrl@@@std@@@3@@std@@QAE@XZ 0041c860 f i DPCoreSrvr.obj
 0001:0001b890       ??0?$map@KKU?$less@K@std@@V?$allocator@U?$pair@$$CBKK@std@@@2@@std@@QAE@XZ 0041c890 f i DPCoreSrvr.obj
 0001:0001b8c0       ??1?$_Tree@V?$_Tmap_traits@KP8CDPCoreSrvr@@AEXAAVCAr@@KKKK@ZU?$less@K@std@@V?$allocator@U?$pair@$$CBKP8CDPCoreSrvr@@AEXAAVCAr@@KKKK@Z@std@@@4@$0A@@std@@@std@@QAE@XZ 0041c8c0 f i DPCoreSrvr.obj
 0001:0001b8f0       ?Create@?$MemPooler@VCGuild@@@@IAEXXZ 0041c8f0 f i DPCoreSrvr.obj
 0001:0001b980       ??0CObjMap@@QAE@XZ         0041c980 f i DPCoreSrvr.obj
 0001:0001ba00       ??1CObjMap@@QAE@XZ         0041ca00 f i DPCoreSrvr.obj
 0001:0001ba80       ??1?$map@KP8CDPCoreSrvr@@AEXAAVCAr@@KKKK@ZU?$less@K@std@@V?$allocator@U?$pair@$$CBKP8CDPCoreSrvr@@AEXAAVCAr@@KKKK@Z@std@@@4@@std@@QAE@XZ 0041ca80 f i DPCoreSrvr.obj
 0001:0001bab0       ??1CDPCoreSrvr@@UAE@XZ     0041cab0 f   DPCoreSrvr.obj
 0001:0001bba0       ?SysMessageHandler@CDPCoreSrvr@@UAEXPAUDPMSG_GENERIC@@KK@Z 0041cba0 f   DPCoreSrvr.obj
 0001:0001bbc0       ?Alloc@?$MemPooler@VCGuild@@@@QAEPAVCGuild@@XZ 0041cbc0 f i DPCoreSrvr.obj
 0001:0001bc00       ??0?$map@KP8CDPCoreSrvr@@AEXAAVCAr@@KKKK@ZU?$less@K@std@@V?$allocator@U?$pair@$$CBKP8CDPCoreSrvr@@AEXAAVCAr@@KKKK@Z@std@@@4@@std@@QAE@XZ 0041cc00 f i DPCoreSrvr.obj
 0001:0001bc30       ??2CGuild@@SAPAXI@Z        0041cc30 f i DPCoreSrvr.obj
 0001:0001bc70       ??_GCDPCoreSrvr@@UAEPAXI@Z 0041cc70 f i DPCoreSrvr.obj
 0001:0001bc70       ??_ECDPCoreSrvr@@UAEPAXI@Z 0041cc70 f i DPCoreSrvr.obj
 0001:0001bc90       ?OnCreateGuild@CDPCoreSrvr@@QAEXAAVCAr@@KKKK@Z 0041cc90 f   DPCoreSrvr.obj
 0001:0001bfe0       ??0CDPCoreSrvr@@QAE@XZ     0041cfe0 f   DPCoreSrvr.obj
 0001:0001c7e0       ??0_PlayerData@@QAE@XZ     0041d7e0 f i DPDatabaseClient.obj
 0001:0001c800       ?OnPartyName@CDPDatabaseClient@@AAEXAAVCAr@@@Z 0041d800 f   DPDatabaseClient.obj
 0001:0001c890       ?SendDestroyGuild@CDPDatabaseClient@@QAEXKK@Z 0041d890 f   DPDatabaseClient.obj
 0001:0001c9a0       ?SendAddGuildMember@CDPDatabaseClient@@QAEXKKK@Z 0041d9a0 f   DPDatabaseClient.obj
 0001:0001cad0       ?SendRemoveGuildMember@CDPDatabaseClient@@QAEXKKK@Z 0041dad0 f   DPDatabaseClient.obj
 0001:0001cc00       ?SendGuildNickName@CDPDatabaseClient@@QAEXKPBD@Z 0041dc00 f   DPDatabaseClient.obj
 0001:0001cd00       ?SendChgMaster@CDPDatabaseClient@@QAEXKK@Z 0041dd00 f   DPDatabaseClient.obj
 0001:0001ce10       ?SendAcptWar@CDPDatabaseClient@@QAEXKKK@Z 0041de10 f   DPDatabaseClient.obj
 0001:0001cf40       ?SendSurrender@CDPDatabaseClient@@QAEXKKK@Z 0041df40 f   DPDatabaseClient.obj
 0001:0001d070       ?SendWarDead@CDPDatabaseClient@@QAEXKK@Z 0041e070 f   DPDatabaseClient.obj
 0001:0001d180       ?SendWarMasterAbsent@CDPDatabaseClient@@QAEXKK@Z 0041e180 f   DPDatabaseClient.obj
 0001:0001d290       ?SendGuildLogo@CDPDatabaseClient@@QAEXKK@Z 0041e290 f   DPDatabaseClient.obj
 0001:0001d3a0       ?SendGuildNotice@CDPDatabaseClient@@QAEXKPBD@Z 0041e3a0 f   DPDatabaseClient.obj
 0001:0001d4a0       ?SendGuildAuthority@CDPDatabaseClient@@QAEXKQAK@Z 0041e4a0 f   DPDatabaseClient.obj
 0001:0001d5a0       ?SendGuildPenya@CDPDatabaseClient@@QAEXKQAK@Z 0041e5a0 f   DPDatabaseClient.obj
 0001:0001d6a0       ?SendGuildSetName@CDPDatabaseClient@@QAEXKPAD@Z 0041e6a0 f   DPDatabaseClient.obj
 0001:0001d7a0       ?SendAddPartyName@CDPDatabaseClient@@QAEXKPBD@Z 0041e7a0 f   DPDatabaseClient.obj
 0001:0001d8a0       ?SendTag@CDPDatabaseClient@@QAEXKKPBD@Z 0041e8a0 f   DPDatabaseClient.obj
 0001:0001d9c0       ?SendAddVote@CDPDatabaseClient@@QAEXKPBD0QAY0BF@D@Z 0041e9c0 f   DPDatabaseClient.obj
 0001:0001daf0       ?SendRemoveVote@CDPDatabaseClient@@QAEXK@Z 0041eaf0 f   DPDatabaseClient.obj
 0001:0001dbd0       ?SendCloseVote@CDPDatabaseClient@@QAEXK@Z 0041ebd0 f   DPDatabaseClient.obj
 0001:0001dcb0       ?SendCastVote@CDPDatabaseClient@@QAEXKE@Z 0041ecb0 f   DPDatabaseClient.obj
 0001:0001ddc0       ?OnTCList@CDPDatabaseClient@@AAEXAAVCAr@@@Z 0041edc0 f   DPDatabaseClient.obj
 0001:0001ddd0       ?SendSnoopGuild@CDPDatabaseClient@@QAEXKKPBD@Z 0041edd0 f   DPDatabaseClient.obj
 0001:0001def0       ?QueryAddMessenger@CDPDatabaseClient@@QAEXKK@Z 0041eef0 f   DPDatabaseClient.obj
 0001:0001e000       ?QueryDeleteMessenger@CDPDatabaseClient@@QAEXKK@Z 0041f000 f   DPDatabaseClient.obj
 0001:0001e110       ??0?$pair@$$CBKP8CDPDatabaseClient@@AEXAAVCAr@@@Z@std@@QAE@ABKABQ8CDPDatabaseClient@@AEXAAVCAr@@@Z@Z 0041f110 f i DPDatabaseClient.obj
 0001:0001e130       ??0?$allocator@V?$basic_string@DU?$char_traits@D@std@@V?$allocator@D@2@@std@@@std@@QAE@XZ 0041f130 f i DPDatabaseClient.obj
 0001:0001e140       ?_Isnil@?$_Tree@V?$_Tmap_traits@KHU?$less@K@std@@V?$allocator@U?$pair@$$CBKH@std@@@2@$0A@@std@@@std@@KAAADPAU_Node@?$_Tree_nod@V?$_Tmap_traits@KHU?$less@K@std@@V?$allocator@U?$pair@$$CBKH@std@@@2@$0A@@std@@@2@@Z 0041f140 f i DPDatabaseClient.obj
 0001:0001e150       ?_Left@?$_Tree@V?$_Tmap_traits@KHU?$less@K@std@@V?$allocator@U?$pair@$$CBKH@std@@@2@$0A@@std@@@std@@KAAAPAU_Node@?$_Tree_nod@V?$_Tmap_traits@KHU?$less@K@std@@V?$allocator@U?$pair@$$CBKH@std@@@2@$0A@@std@@@2@PAU342@@Z 0041f150 f i DPDatabaseClient.obj
 0001:0001e160       ?_Right@?$_Tree@V?$_Tmap_traits@KHU?$less@K@std@@V?$allocator@U?$pair@$$CBKH@std@@@2@$0A@@std@@@std@@KAAAPAU_Node@?$_Tree_nod@V?$_Tmap_traits@KHU?$less@K@std@@V?$allocator@U?$pair@$$CBKH@std@@@2@$0A@@std@@@2@PAU342@@Z 0041f160 f i DPDatabaseClient.obj
 0001:0001e170       ?_Lmost@?$_Tree@V?$_Tmap_traits@KHU?$less@K@std@@V?$allocator@U?$pair@$$CBKH@std@@@2@$0A@@std@@@std@@IAEAAPAU_Node@?$_Tree_nod@V?$_Tmap_traits@KHU?$less@K@std@@V?$allocator@U?$pair@$$CBKH@std@@@2@$0A@@std@@@2@XZ 0041f170 f i DPDatabaseClient.obj
 0001:0001e180       ?_Kfn@?$_Tmap_traits@KHU?$less@K@std@@V?$allocator@U?$pair@$$CBKH@std@@@2@$0A@@std@@SAABKABU?$pair@$$CBKH@2@@Z 0041f180 f i DPDatabaseClient.obj
 0001:0001e190       ??0?$allocator@U?$pair@$$CBKH@std@@@std@@QAE@XZ 0041f190 f i DPDatabaseClient.obj
 0001:0001e1a0       ?_Isnil@?$_Tree@V?$_Tmap_traits@KP8CDPDatabaseClient@@AEXAAVCAr@@@ZU?$less@K@std@@V?$allocator@U?$pair@$$CBKP8CDPDatabaseClient@@AEXAAVCAr@@@Z@std@@@4@$0A@@std@@@std@@KAAADPAU_Node@?$_Tree_nod@V?$_Tmap_traits@KP8CDPDatabaseClient@@AEXAAVCAr@@@ZU?$less@K@std@@V?$allocator@U?$pair@$$CBKP8CDPDatabaseClient@@AEXAAVCAr@@@Z@std@@@4@$0A@@std@@@2@@Z 0041f1a0 f i DPDatabaseClient.obj
 0001:0001e1b0       ?_Left@?$_Tree@V?$_Tmap_traits@KP8CDPDatabaseClient@@AEXAAVCAr@@@ZU?$less@K@std@@V?$allocator@U?$pair@$$CBKP8CDPDatabaseClient@@AEXAAVCAr@@@Z@std@@@4@$0A@@std@@@std@@KAAAPAU_Node@?$_Tree_nod@V?$_Tmap_traits@KP8CDPDatabaseClient@@AEXAAVCAr@@@ZU?$less@K@std@@V?$allocator@U?$pair@$$CBKP8CDPDatabaseClient@@AEXAAVCAr@@@Z@std@@@4@$0A@@std@@@2@PAU342@@Z 0041f1b0 f i DPDatabaseClient.obj
 0001:0001e1c0       ?_Right@?$_Tree@V?$_Tmap_traits@KP8CDPDatabaseClient@@AEXAAVCAr@@@ZU?$less@K@std@@V?$allocator@U?$pair@$$CBKP8CDPDatabaseClient@@AEXAAVCAr@@@Z@std@@@4@$0A@@std@@@std@@KAAAPAU_Node@?$_Tree_nod@V?$_Tmap_traits@KP8CDPDatabaseClient@@AEXAAVCAr@@@ZU?$less@K@std@@V?$allocator@U?$pair@$$CBKP8CDPDatabaseClient@@AEXAAVCAr@@@Z@std@@@4@$0A@@std@@@2@PAU342@@Z 0041f1c0 f i DPDatabaseClient.obj
 0001:0001e1d0       ?_Kfn@?$_Tmap_traits@KP8CDPDatabaseClient@@AEXAAVCAr@@@ZU?$less@K@std@@V?$allocator@U?$pair@$$CBKP8CDPDatabaseClient@@AEXAAVCAr@@@Z@std@@@4@$0A@@std@@SAABKABU?$pair@$$CBKP8CDPDatabaseClient@@AEXAAVCAr@@@Z@2@@Z 0041f1d0 f i DPDatabaseClient.obj
 0001:0001e1e0       ??0?$allocator@U?$pair@$$CBKP8CDPDatabaseClient@@AEXAAVCAr@@@Z@std@@@std@@QAE@XZ 0041f1e0 f i DPDatabaseClient.obj
 0001:0001e1f0       ??8const_iterator@?$_Tree@V?$_Tmap_traits@KP8CDPDatabaseClient@@AEXAAVCAr@@@ZU?$less@K@std@@V?$allocator@U?$pair@$$CBKP8CDPDatabaseClient@@AEXAAVCAr@@@Z@std@@@4@$0A@@std@@@std@@QBE_NABV012@@Z 0041f1f0 f i DPDatabaseClient.obj
 0001:0001e200       ?_Mynode@const_iterator@?$_Tree@V?$_Tmap_traits@KP8CDPDatabaseClient@@AEXAAVCAr@@@ZU?$less@K@std@@V?$allocator@U?$pair@$$CBKP8CDPDatabaseClient@@AEXAAVCAr@@@Z@std@@@4@$0A@@std@@@std@@QBEPAU_Node@?$_Tree_nod@V?$_Tmap_traits@KP8CDPDatabaseClient@@AEXAAVCAr@@@ZU?$less@K@std@@V?$allocator@U?$pair@$$CBKP8CDPDatabaseClient@@AEXAAVCAr@@@Z@std@@@4@$0A@@std@@@3@XZ 0041f200 f i DPDatabaseClient.obj
 0001:0001e210       ??0?$pair@Viterator@?$_Tree@V?$_Tmap_traits@KP8CDPDatabaseClient@@AEXAAVCAr@@@ZU?$less@K@std@@V?$allocator@U?$pair@$$CBKP8CDPDatabaseClient@@AEXAAVCAr@@@Z@std@@@4@$0A@@std@@@std@@_N@std@@QAE@ABViterator@?$_Tree@V?$_Tmap_traits@KP8CDPDatabaseClient@@AEXAAVCAr@@@ZU?$less@K@std@@V?$allocator@U?$pair@$$CBKP8CDPDatabaseClient@@AEXAAVCAr@@@Z@std@@@4@$0A@@std@@@1@AB_N@Z 0041f210 f i DPDatabaseClient.obj
 0001:0001e230       ??0?$pair@Viterator@?$_Tree@V?$_Tmap_traits@KHU?$less@K@std@@V?$allocator@U?$pair@$$CBKH@std@@@2@$0A@@std@@@std@@_N@std@@QAE@ABViterator@?$_Tree@V?$_Tmap_traits@KHU?$less@K@std@@V?$allocator@U?$pair@$$CBKH@std@@@2@$0A@@std@@@1@AB_N@Z 0041f230 f i DPDatabaseClient.obj
 0001:0001e250       ??8const_iterator@?$_Tree@V?$_Tmap_traits@KHU?$less@K@std@@V?$allocator@U?$pair@$$CBKH@std@@@2@$0A@@std@@@std@@QBE_NABV012@@Z 0041f250 f i DPDatabaseClient.obj
 0001:0001e260       ?_Mynode@const_iterator@?$_Tree@V?$_Tmap_traits@KHU?$less@K@std@@V?$allocator@U?$pair@$$CBKH@std@@@2@$0A@@std@@@std@@QBEPAU_Node@?$_Tree_nod@V?$_Tmap_traits@KHU?$less@K@std@@V?$allocator@U?$pair@$$CBKH@std@@@2@$0A@@std@@@3@XZ 0041f260 f i DPDatabaseClient.obj
 0001:0001e270       ??0?$allocator@V?$basic_string@DU?$char_traits@D@std@@V?$allocator@D@2@@std@@@std@@QAE@ABV01@@Z 0041f270 f i DPDatabaseClient.obj
 0001:0001e280       ?deallocate@?$allocator@V?$basic_string@DU?$char_traits@D@std@@V?$allocator@D@2@@std@@@std@@QAEXPAV?$basic_string@DU?$char_traits@D@std@@V?$allocator@D@2@@2@I@Z 0041f280 f i DPDatabaseClient.obj
 0001:0001e290       ?_Color@?$_Tree@V?$_Tmap_traits@KHU?$less@K@std@@V?$allocator@U?$pair@$$CBKH@std@@@2@$0A@@std@@@std@@KAAADPAU_Node@?$_Tree_nod@V?$_Tmap_traits@KHU?$less@K@std@@V?$allocator@U?$pair@$$CBKH@std@@@2@$0A@@std@@@2@@Z 0041f290 f i DPDatabaseClient.obj
 0001:0001e2a0       ?_Parent@?$_Tree@V?$_Tmap_traits@KHU?$less@K@std@@V?$allocator@U?$pair@$$CBKH@std@@@2@$0A@@std@@@std@@KAAAPAU_Node@?$_Tree_nod@V?$_Tmap_traits@KHU?$less@K@std@@V?$allocator@U?$pair@$$CBKH@std@@@2@$0A@@std@@@2@PAU342@@Z 0041f2a0 f i DPDatabaseClient.obj
 0001:0001e2b0       ?_Myval@?$_Tree@V?$_Tmap_traits@KHU?$less@K@std@@V?$allocator@U?$pair@$$CBKH@std@@@2@$0A@@std@@@std@@KAAAU?$pair@$$CBKH@2@PAU_Node@?$_Tree_nod@V?$_Tmap_traits@KHU?$less@K@std@@V?$allocator@U?$pair@$$CBKH@std@@@2@$0A@@std@@@2@@Z 0041f2b0 f i DPDatabaseClient.obj
 0001:0001e2c0       ?_Rmost@?$_Tree@V?$_Tmap_traits@KHU?$less@K@std@@V?$allocator@U?$pair@$$CBKH@std@@@2@$0A@@std@@@std@@IAEAAPAU_Node@?$_Tree_nod@V?$_Tmap_traits@KHU?$less@K@std@@V?$allocator@U?$pair@$$CBKH@std@@@2@$0A@@std@@@2@XZ 0041f2c0 f i DPDatabaseClient.obj
 0001:0001e2d0       ??0?$allocator@U?$pair@$$CBKH@std@@@std@@QAE@ABV01@@Z 0041f2d0 f i DPDatabaseClient.obj
 0001:0001e2e0       ?deallocate@?$allocator@U_Node@?$_Tree_nod@V?$_Tmap_traits@KHU?$less@K@std@@V?$allocator@U?$pair@$$CBKH@std@@@2@$0A@@std@@@std@@@std@@QAEXPAU_Node@?$_Tree_nod@V?$_Tmap_traits@KHU?$less@K@std@@V?$allocator@U?$pair@$$CBKH@std@@@2@$0A@@std@@@2@I@Z 0041f2e0 f i DPDatabaseClient.obj
 0001:0001e2f0       ?_Color@?$_Tree@V?$_Tmap_traits@KP8CDPDatabaseClient@@AEXAAVCAr@@@ZU?$less@K@std@@V?$allocator@U?$pair@$$CBKP8CDPDatabaseClient@@AEXAAVCAr@@@Z@std@@@4@$0A@@std@@@std@@KAAADPAU_Node@?$_Tree_nod@V?$_Tmap_traits@KP8CDPDatabaseClient@@AEXAAVCAr@@@ZU?$less@K@std@@V?$allocator@U?$pair@$$CBKP8CDPDatabaseClient@@AEXAAVCAr@@@Z@std@@@4@$0A@@std@@@2@@Z 0041f2f0 f i DPDatabaseClient.obj
 0001:0001e300       ?_Parent@?$_Tree@V?$_Tmap_traits@KP8CDPDatabaseClient@@AEXAAVCAr@@@ZU?$less@K@std@@V?$allocator@U?$pair@$$CBKP8CDPDatabaseClient@@AEXAAVCAr@@@Z@std@@@4@$0A@@std@@@std@@KAAAPAU_Node@?$_Tree_nod@V?$_Tmap_traits@KP8CDPDatabaseClient@@AEXAAVCAr@@@ZU?$less@K@std@@V?$allocator@U?$pair@$$CBKP8CDPDatabaseClient@@AEXAAVCAr@@@Z@std@@@4@$0A@@std@@@2@PAU342@@Z 0041f300 f i DPDatabaseClient.obj
 0001:0001e310       ?_Myval@?$_Tree@V?$_Tmap_traits@KP8CDPDatabaseClient@@AEXAAVCAr@@@ZU?$less@K@std@@V?$allocator@U?$pair@$$CBKP8CDPDatabaseClient@@AEXAAVCAr@@@Z@std@@@4@$0A@@std@@@std@@KAAAU?$pair@$$CBKP8CDPDatabaseClient@@AEXAAVCAr@@@Z@2@PAU_Node@?$_Tree_nod@V?$_Tmap_traits@KP8CDPDatabaseClient@@AEXAAVCAr@@@ZU?$less@K@std@@V?$allocator@U?$pair@$$CBKP8CDPDatabaseClient@@AEXAAVCAr@@@Z@std@@@4@$0A@@std@@@2@@Z 0041f310 f i DPDatabaseClient.obj
 0001:0001e320       ?_Lmost@?$_Tree@V?$_Tmap_traits@KP8CDPDatabaseClient@@AEXAAVCAr@@@ZU?$less@K@std@@V?$allocator@U?$pair@$$CBKP8CDPDatabaseClient@@AEXAAVCAr@@@Z@std@@@4@$0A@@std@@@std@@IAEAAPAU_Node@?$_Tree_nod@V?$_Tmap_traits@KP8CDPDatabaseClient@@AEXAAVCAr@@@ZU?$less@K@std@@V?$allocator@U?$pair@$$CBKP8CDPDatabaseClient@@AEXAAVCAr@@@Z@std@@@4@$0A@@std@@@2@XZ 0041f320 f i DPDatabaseClient.obj
 0001:0001e330       ?_Rmost@?$_Tree@V?$_Tmap_traits@KP8CDPDatabaseClient@@AEXAAVCAr@@@ZU?$less@K@std@@V?$allocator@U?$pair@$$CBKP8CDPDatabaseClient@@AEXAAVCAr@@@Z@std@@@4@$0A@@std@@@std@@IAEAAPAU_Node@?$_Tree_nod@V?$_Tmap_traits@KP8CDPDatabaseClient@@AEXAAVCAr@@@ZU?$less@K@std@@V?$allocator@U?$pair@$$CBKP8CDPDatabaseClient@@AEXAAVCAr@@@Z@std@@@4@$0A@@std@@@2@XZ 0041f330 f i DPDatabaseClient.obj
 0001:0001e340       ??0?$allocator@U?$pair@$$CBKP8CDPDatabaseClient@@AEXAAVCAr@@@Z@std@@@std@@QAE@ABV01@@Z 0041f340 f i DPDatabaseClient.obj
 0001:0001e350       ?deallocate@?$allocator@U_Node@?$_Tree_nod@V?$_Tmap_traits@KP8CDPDatabaseClient@@AEXAAVCAr@@@ZU?$less@K@std@@V?$allocator@U?$pair@$$CBKP8CDPDatabaseClient@@AEXAAVCAr@@@Z@std@@@4@$0A@@std@@@std@@@std@@QAEXPAU_Node@?$_Tree_nod@V?$_Tmap_traits@KP8CDPDatabaseClient@@AEXAAVCAr@@@ZU?$less@K@std@@V?$allocator@U?$pair@$$CBKP8CDPDatabaseClient@@AEXAAVCAr@@@Z@std@@@4@$0A@@std@@@2@I@Z 0041f350 f i DPDatabaseClient.obj
 0001:0001e360       ??0const_iterator@?$_Tree@V?$_Tmap_traits@KP8CDPDatabaseClient@@AEXAAVCAr@@@ZU?$less@K@std@@V?$allocator@U?$pair@$$CBKP8CDPDatabaseClient@@AEXAAVCAr@@@Z@std@@@4@$0A@@std@@@std@@QAE@PAU_Node@?$_Tree_nod@V?$_Tmap_traits@KP8CDPDatabaseClient@@AEXAAVCAr@@@ZU?$less@K@std@@V?$allocator@U?$pair@$$CBKP8CDPDatabaseClient@@AEXAAVCAr@@@Z@std@@@4@$0A@@std@@@2@@Z 0041f360 f i DPDatabaseClient.obj
 0001:0001e370       ??Dconst_iterator@?$_Tree@V?$_Tmap_traits@KP8CDPDatabaseClient@@AEXAAVCAr@@@ZU?$less@K@std@@V?$allocator@U?$pair@$$CBKP8CDPDatabaseClient@@AEXAAVCAr@@@Z@std@@@4@$0A@@std@@@std@@QBEABU?$pair@$$CBKP8CDPDatabaseClient@@AEXAAVCAr@@@Z@2@XZ 0041f370 f i DPDatabaseClient.obj
 0001:0001e380       ??0const_iterator@?$_Tree@V?$_Tmap_traits@KHU?$less@K@std@@V?$allocator@U?$pair@$$CBKH@std@@@2@$0A@@std@@@std@@QAE@PAU_Node@?$_Tree_nod@V?$_Tmap_traits@KHU?$less@K@std@@V?$allocator@U?$pair@$$CBKH@std@@@2@$0A@@std@@@2@@Z 0041f380 f i DPDatabaseClient.obj
 0001:0001e390       ??Dconst_iterator@?$_Tree@V?$_Tmap_traits@KHU?$less@K@std@@V?$allocator@U?$pair@$$CBKH@std@@@2@$0A@@std@@@std@@QBEABU?$pair@$$CBKH@2@XZ 0041f390 f i DPDatabaseClient.obj
 0001:0001e3a0       ?max_size@?$allocator@V?$basic_string@DU?$char_traits@D@std@@V?$allocator@D@2@@std@@@std@@QBEIXZ 0041f3a0 f i DPDatabaseClient.obj
 0001:0001e3b0       ?_Min@?$_Tree@V?$_Tmap_traits@KHU?$less@K@std@@V?$allocator@U?$pair@$$CBKH@std@@@2@$0A@@std@@@std@@KAPAU_Node@?$_Tree_nod@V?$_Tmap_traits@KHU?$less@K@std@@V?$allocator@U?$pair@$$CBKH@std@@@2@$0A@@std@@@2@PAU342@@Z 0041f3b0 f i DPDatabaseClient.obj
 0001:0001e3d0       ?max_size@?$allocator@U?$pair@$$CBKH@std@@@std@@QBEIXZ 0041f3d0 f i DPDatabaseClient.obj
 0001:0001e3e0       ?_Root@?$_Tree@V?$_Tmap_traits@KP8CDPDatabaseClient@@AEXAAVCAr@@@ZU?$less@K@std@@V?$allocator@U?$pair@$$CBKP8CDPDatabaseClient@@AEXAAVCAr@@@Z@std@@@4@$0A@@std@@@std@@IBEAAPAU_Node@?$_Tree_nod@V?$_Tmap_traits@KP8CDPDatabaseClient@@AEXAAVCAr@@@ZU?$less@K@std@@V?$allocator@U?$pair@$$CBKP8CDPDatabaseClient@@AEXAAVCAr@@@Z@std@@@4@$0A@@std@@@2@XZ 0041f3e0 f i DPDatabaseClient.obj
 0001:0001e3f0       ?max_size@?$allocator@U?$pair@$$CBKP8CDPDatabaseClient@@AEXAAVCAr@@@Z@std@@@std@@QBEIXZ 0041f3f0 f i DPDatabaseClient.obj
 0001:0001e400       ??0_Node@?$_Tree_nod@V?$_Tmap_traits@KHU?$less@K@std@@V?$allocator@U?$pair@$$CBKH@std@@@2@$0A@@std@@@std@@QAE@PAU012@00ABU?$pair@$$CBKH@2@D@Z 0041f400 f i DPDatabaseClient.obj
 0001:0001e440       ??0_Node@?$_Tree_nod@V?$_Tmap_traits@KP8CDPDatabaseClient@@AEXAAVCAr@@@ZU?$less@K@std@@V?$allocator@U?$pair@$$CBKP8CDPDatabaseClient@@AEXAAVCAr@@@Z@std@@@4@$0A@@std@@@std@@QAE@PAU012@00ABU?$pair@$$CBKP8CDPDatabaseClient@@AEXAAVCAr@@@Z@2@D@Z 0041f440 f i DPDatabaseClient.obj
 0001:0001e480       ?_Max@?$_Tree@V?$_Tmap_traits@KHU?$less@K@std@@V?$allocator@U?$pair@$$CBKH@std@@@2@$0A@@std@@@std@@KAPAU_Node@?$_Tree_nod@V?$_Tmap_traits@KHU?$less@K@std@@V?$allocator@U?$pair@$$CBKH@std@@@2@$0A@@std@@@2@PAU342@@Z 0041f480 f i DPDatabaseClient.obj
 0001:0001e4a0       ?_Max@?$_Tree@V?$_Tmap_traits@KP8CDPDatabaseClient@@AEXAAVCAr@@@ZU?$less@K@std@@V?$allocator@U?$pair@$$CBKP8CDPDatabaseClient@@AEXAAVCAr@@@Z@std@@@4@$0A@@std@@@std@@KAPAU_Node@?$_Tree_nod@V?$_Tmap_traits@KP8CDPDatabaseClient@@AEXAAVCAr@@@ZU?$less@K@std@@V?$allocator@U?$pair@$$CBKP8CDPDatabaseClient@@AEXAAVCAr@@@Z@std@@@4@$0A@@std@@@2@PAU342@@Z 0041f4a0 f i DPDatabaseClient.obj
 0001:0001e4c0       ?_Min@?$_Tree@V?$_Tmap_traits@KP8CDPDatabaseClient@@AEXAAVCAr@@@ZU?$less@K@std@@V?$allocator@U?$pair@$$CBKP8CDPDatabaseClient@@AEXAAVCAr@@@Z@std@@@4@$0A@@std@@@std@@KAPAU_Node@?$_Tree_nod@V?$_Tmap_traits@KP8CDPDatabaseClient@@AEXAAVCAr@@@ZU?$less@K@std@@V?$allocator@U?$pair@$$CBKP8CDPDatabaseClient@@AEXAAVCAr@@@Z@std@@@4@$0A@@std@@@2@PAU342@@Z 0041f4c0 f i DPDatabaseClient.obj
 0001:0001e4e0       ??0?$_Tmap_traits@KHU?$less@K@std@@V?$allocator@U?$pair@$$CBKH@std@@@2@$0A@@std@@QAE@U?$less@K@1@@Z 0041f4e0 f i DPDatabaseClient.obj
 0001:0001e4f0       ??0?$_Tmap_traits@KP8CDPDatabaseClient@@AEXAAVCAr@@@ZU?$less@K@std@@V?$allocator@U?$pair@$$CBKP8CDPDatabaseClient@@AEXAAVCAr@@@Z@std@@@4@$0A@@std@@QAE@U?$less@K@1@@Z 0041f4f0 f i DPDatabaseClient.obj
 0001:0001e500       ?_Inc@const_iterator@?$_Tree@V?$_Tmap_traits@KP8CDPDatabaseClient@@AEXAAVCAr@@@ZU?$less@K@std@@V?$allocator@U?$pair@$$CBKP8CDPDatabaseClient@@AEXAAVCAr@@@Z@std@@@4@$0A@@std@@@std@@QAEXXZ 0041f500 f i DPDatabaseClient.obj
 0001:0001e560       ??$?0$$CBKK@?$pair@$$CBKH@std@@QAE@ABU?$pair@$$CBKK@1@@Z 0041f560 f i DPDatabaseClient.obj
 0001:0001e580       ??$_Allocate@V?$basic_string@DU?$char_traits@D@std@@V?$allocator@D@2@@std@@@std@@YAPAV?$basic_string@DU?$char_traits@D@std@@V?$allocator@D@2@@0@IPAV10@@Z 0041f580 f i DPDatabaseClient.obj
 0001:0001e5a0       ??$_Destroy@PAU_Node@?$_Tree_nod@V?$_Tmap_traits@KHU?$less@K@std@@V?$allocator@U?$pair@$$CBKH@std@@@2@$0A@@std@@@std@@@std@@YAXPAPAU_Node@?$_Tree_nod@V?$_Tmap_traits@KHU?$less@K@std@@V?$allocator@U?$pair@$$CBKH@std@@@2@$0A@@std@@@0@@Z 0041f5a0 f i DPDatabaseClient.obj
 0001:0001e5b0       ??$_Destroy@PAU_Node@?$_Tree_nod@V?$_Tmap_traits@KP8CDPDatabaseClient@@AEXAAVCAr@@@ZU?$less@K@std@@V?$allocator@U?$pair@$$CBKP8CDPDatabaseClient@@AEXAAVCAr@@@Z@std@@@4@$0A@@std@@@std@@@std@@YAXPAPAU_Node@?$_Tree_nod@V?$_Tmap_traits@KP8CDPDatabaseClient@@AEXAAVCAr@@@ZU?$less@K@std@@V?$allocator@U?$pair@$$CBKP8CDPDatabaseClient@@AEXAAVCAr@@@Z@std@@@4@$0A@@std@@@0@@Z 0041f5b0 f i DPDatabaseClient.obj
 0001:0001e5c0       ??$?0U?$pair@$$CBKH@std@@@?$allocator@PAU_Node@?$_Tree_nod@V?$_Tmap_traits@KHU?$less@K@std@@V?$allocator@U?$pair@$$CBKH@std@@@2@$0A@@std@@@std@@@std@@QAE@ABV?$allocator@U?$pair@$$CBKH@std@@@1@@Z 0041f5c0 f i DPDatabaseClient.obj
 0001:0001e5d0       ??$_Allocate@U_Node@?$_Tree_nod@V?$_Tmap_traits@KHU?$less@K@std@@V?$allocator@U?$pair@$$CBKH@std@@@2@$0A@@std@@@std@@@std@@YAPAU_Node@?$_Tree_nod@V?$_Tmap_traits@KHU?$less@K@std@@V?$allocator@U?$pair@$$CBKH@std@@@2@$0A@@std@@@0@IPAU120@@Z 0041f5d0 f i DPDatabaseClient.obj
 0001:0001e5f0       ??$?0U?$pair@$$CBKP8CDPDatabaseClient@@AEXAAVCAr@@@Z@std@@@?$allocator@PAU_Node@?$_Tree_nod@V?$_Tmap_traits@KP8CDPDatabaseClient@@AEXAAVCAr@@@ZU?$less@K@std@@V?$allocator@U?$pair@$$CBKP8CDPDatabaseClient@@AEXAAVCAr@@@Z@std@@@4@$0A@@std@@@std@@@std@@QAE@ABV?$allocator@U?$pair@$$CBKP8CDPDatabaseClient@@AEXAAVCAr@@@Z@std@@@1@@Z 0041f5f0 f i DPDatabaseClient.obj
 0001:0001e600       ??$_Allocate@U_Node@?$_Tree_nod@V?$_Tmap_traits@KP8CDPDatabaseClient@@AEXAAVCAr@@@ZU?$less@K@std@@V?$allocator@U?$pair@$$CBKP8CDPDatabaseClient@@AEXAAVCAr@@@Z@std@@@4@$0A@@std@@@std@@@std@@YAPAU_Node@?$_Tree_nod@V?$_Tmap_traits@KP8CDPDatabaseClient@@AEXAAVCAr@@@ZU?$less@K@std@@V?$allocator@U?$pair@$$CBKP8CDPDatabaseClient@@AEXAAVCAr@@@Z@std@@@4@$0A@@std@@@0@IPAU120@@Z 0041f600 f i DPDatabaseClient.obj
 0001:0001e620       ??$?0U?$pair@$$CBKH@std@@@?$allocator@U_Node@?$_Tree_nod@V?$_Tmap_traits@KHU?$less@K@std@@V?$allocator@U?$pair@$$CBKH@std@@@2@$0A@@std@@@std@@@std@@QAE@ABV?$allocator@U?$pair@$$CBKH@std@@@1@@Z 0041f620 f i DPDatabaseClient.obj
 0001:0001e630       ??$_Destroy@U_Node@?$_Tree_nod@V?$_Tmap_traits@KHU?$less@K@std@@V?$allocator@U?$pair@$$CBKH@std@@@2@$0A@@std@@@std@@@std@@YAXPAU_Node@?$_Tree_nod@V?$_Tmap_traits@KHU?$less@K@std@@V?$allocator@U?$pair@$$CBKH@std@@@2@$0A@@std@@@0@@Z 0041f630 f i DPDatabaseClient.obj
 0001:0001e640       ??$_Construct@PAU_Node@?$_Tree_nod@V?$_Tmap_traits@KHU?$less@K@std@@V?$allocator@U?$pair@$$CBKH@std@@@2@$0A@@std@@@std@@PAU123@@std@@YAXPAPAU_Node@?$_Tree_nod@V?$_Tmap_traits@KHU?$less@K@std@@V?$allocator@U?$pair@$$CBKH@std@@@2@$0A@@std@@@0@ABQAU120@@Z 0041f640 f i DPDatabaseClient.obj
 0001:0001e660       ??$?0U?$pair@$$CBKP8CDPDatabaseClient@@AEXAAVCAr@@@Z@std@@@?$allocator@U_Node@?$_Tree_nod@V?$_Tmap_traits@KP8CDPDatabaseClient@@AEXAAVCAr@@@ZU?$less@K@std@@V?$allocator@U?$pair@$$CBKP8CDPDatabaseClient@@AEXAAVCAr@@@Z@std@@@4@$0A@@std@@@std@@@std@@QAE@ABV?$allocator@U?$pair@$$CBKP8CDPDatabaseClient@@AEXAAVCAr@@@Z@std@@@1@@Z 0041f660 f i DPDatabaseClient.obj
 0001:0001e670       ??$_Destroy@U_Node@?$_Tree_nod@V?$_Tmap_traits@KP8CDPDatabaseClient@@AEXAAVCAr@@@ZU?$less@K@std@@V?$allocator@U?$pair@$$CBKP8CDPDatabaseClient@@AEXAAVCAr@@@Z@std@@@4@$0A@@std@@@std@@@std@@YAXPAU_Node@?$_Tree_nod@V?$_Tmap_traits@KP8CDPDatabaseClient@@AEXAAVCAr@@@ZU?$less@K@std@@V?$allocator@U?$pair@$$CBKP8CDPDatabaseClient@@AEXAAVCAr@@@Z@std@@@4@$0A@@std@@@0@@Z 0041f670 f i DPDatabaseClient.obj
 0001:0001e680       ??$_Construct@PAU_Node@?$_Tree_nod@V?$_Tmap_traits@KP8CDPDatabaseClient@@AEXAAVCAr@@@ZU?$less@K@std@@V?$allocator@U?$pair@$$CBKP8CDPDatabaseClient@@AEXAAVCAr@@@Z@std@@@4@$0A@@std@@@std@@PAU123@@std@@YAXPAPAU_Node@?$_Tree_nod@V?$_Tmap_traits@KP8CDPDatabaseClient@@AEXAAVCAr@@@ZU?$less@K@std@@V?$allocator@U?$pair@$$CBKP8CDPDatabaseClient@@AEXAAVCAr@@@Z@std@@@4@$0A@@std@@@0@ABQAU120@@Z 0041f680 f i DPDatabaseClient.obj
 0001:0001e6a0       ??$_Ptr_cat@PAV?$basic_string@DU?$char_traits@D@std@@V?$allocator@D@2@@std@@PAV12@@std@@YA?AU_Nonscalar_ptr_iterator_tag@0@AAPAV?$basic_string@DU?$char_traits@D@std@@V?$allocator@D@2@@0@0@Z 0041f6a0 f i DPDatabaseClient.obj
 0001:0001e6b0       ?NotifyProcessStart@@YAXK@Z 0041f6b0 f i DPDatabaseClient.obj
 0001:0001e6e0       ??0_BUYING_INFO@@QAE@XZ    0041f6e0 f i DPDatabaseClient.obj
 0001:0001e710       ??0_BUYING_INFO2@@QAE@XZ   0041f710 f i DPDatabaseClient.obj
 0001:0001e750       ?SendCreateGuild@CDPDatabaseClient@@QAEXPAU_GUILD_MEMBER_INFO@@HKPBD@Z 0041f750 f   DPDatabaseClient.obj
 0001:0001e880       ?SendGuildMemberLv@CDPDatabaseClient@@QAEXKH@Z 0041f880 f   DPDatabaseClient.obj
 0001:0001e990       ?SendGuildClass@CDPDatabaseClient@@QAEXKH@Z 0041f990 f   DPDatabaseClient.obj
 0001:0001eaa0       ?OnGlobalData@CDPDatabaseClient@@AAEXAAVCAr@@@Z 0041faa0 f   DPDatabaseClient.obj
 0001:0001eb10       ?OnInsertTagResult@CDPDatabaseClient@@AAEXAAVCAr@@@Z 0041fb10 f   DPDatabaseClient.obj
 0001:0001ebc0       ?OnAddVoteResult@CDPDatabaseClient@@QAEXAAVCAr@@@Z 0041fbc0 f   DPDatabaseClient.obj
 0001:0001eca0       ?OnUpdateGuildRankFinish@CDPDatabaseClient@@QAEXAAVCAr@@@Z 0041fca0 f   DPDatabaseClient.obj
 0001:0001ecc0       ?OnGuildMemberTime@CDPDatabaseClient@@AAEXAAVCAr@@@Z 0041fcc0 f   DPDatabaseClient.obj
 0001:0001ee70       ?OnBuyingInfo@CDPDatabaseClient@@AAEXAAVCAr@@@Z 0041fe70 f   DPDatabaseClient.obj
 0001:0001ef60       ?SendCTWanted@CDPDatabaseClient@@QAEXEKHJPBD@Z 0041ff60 f   DPDatabaseClient.obj
 0001:0001f0c0       ?OnSetPlayerName@CDPDatabaseClient@@AAEXAAVCAr@@@Z 004200c0 f   DPDatabaseClient.obj
 0001:0001f210       ?QueryUpdateMessenger@CDPDatabaseClient@@QAEXKKH@Z 00420210 f   DPDatabaseClient.obj
 0001:0001f340       ??9const_iterator@?$_Tree@V?$_Tmap_traits@KP8CDPDatabaseClient@@AEXAAVCAr@@@ZU?$less@K@std@@V?$allocator@U?$pair@$$CBKP8CDPDatabaseClient@@AEXAAVCAr@@@Z@std@@@4@$0A@@std@@@std@@QBE_NABV012@@Z 00420340 f i DPDatabaseClient.obj
 0001:0001f360       ??9const_iterator@?$_Tree@V?$_Tmap_traits@KHU?$less@K@std@@V?$allocator@U?$pair@$$CBKH@std@@@2@$0A@@std@@@std@@QBE_NABV012@@Z 00420360 f i DPDatabaseClient.obj
 0001:0001f380       ?_Key@?$_Tree@V?$_Tmap_traits@KHU?$less@K@std@@V?$allocator@U?$pair@$$CBKH@std@@@2@$0A@@std@@@std@@KAABKPAU_Node@?$_Tree_nod@V?$_Tmap_traits@KHU?$less@K@std@@V?$allocator@U?$pair@$$CBKH@std@@@2@$0A@@std@@@2@@Z 00420380 f i DPDatabaseClient.obj
 0001:0001f390       ?_Root@?$_Tree@V?$_Tmap_traits@KHU?$less@K@std@@V?$allocator@U?$pair@$$CBKH@std@@@2@$0A@@std@@@std@@IAEAAPAU_Node@?$_Tree_nod@V?$_Tmap_traits@KHU?$less@K@std@@V?$allocator@U?$pair@$$CBKH@std@@@2@$0A@@std@@@2@XZ 00420390 f i DPDatabaseClient.obj
 0001:0001f3a0       ?_Key@?$_Tree@V?$_Tmap_traits@KP8CDPDatabaseClient@@AEXAAVCAr@@@ZU?$less@K@std@@V?$allocator@U?$pair@$$CBKP8CDPDatabaseClient@@AEXAAVCAr@@@Z@std@@@4@$0A@@std@@@std@@KAABKPAU_Node@?$_Tree_nod@V?$_Tmap_traits@KP8CDPDatabaseClient@@AEXAAVCAr@@@ZU?$less@K@std@@V?$allocator@U?$pair@$$CBKP8CDPDatabaseClient@@AEXAAVCAr@@@Z@std@@@4@$0A@@std@@@2@@Z 004203a0 f i DPDatabaseClient.obj
 0001:0001f3b0       ?_Root@?$_Tree@V?$_Tmap_traits@KP8CDPDatabaseClient@@AEXAAVCAr@@@ZU?$less@K@std@@V?$allocator@U?$pair@$$CBKP8CDPDatabaseClient@@AEXAAVCAr@@@Z@std@@@4@$0A@@std@@@std@@IAEAAPAU_Node@?$_Tree_nod@V?$_Tmap_traits@KP8CDPDatabaseClient@@AEXAAVCAr@@@ZU?$less@K@std@@V?$allocator@U?$pair@$$CBKP8CDPDatabaseClient@@AEXAAVCAr@@@Z@std@@@4@$0A@@std@@@2@XZ 004203b0 f i DPDatabaseClient.obj
 0001:0001f3c0       ??0iterator@?$_Tree@V?$_Tmap_traits@KP8CDPDatabaseClient@@AEXAAVCAr@@@ZU?$less@K@std@@V?$allocator@U?$pair@$$CBKP8CDPDatabaseClient@@AEXAAVCAr@@@Z@std@@@4@$0A@@std@@@std@@QAE@PAU_Node@?$_Tree_nod@V?$_Tmap_traits@KP8CDPDatabaseClient@@AEXAAVCAr@@@ZU?$less@K@std@@V?$allocator@U?$pair@$$CBKP8CDPDatabaseClient@@AEXAAVCAr@@@Z@std@@@4@$0A@@std@@@2@@Z 004203c0 f i DPDatabaseClient.obj
 0001:0001f3d0       ??Diterator@?$_Tree@V?$_Tmap_traits@KP8CDPDatabaseClient@@AEXAAVCAr@@@ZU?$less@K@std@@V?$allocator@U?$pair@$$CBKP8CDPDatabaseClient@@AEXAAVCAr@@@Z@std@@@4@$0A@@std@@@std@@QBEAAU?$pair@$$CBKP8CDPDatabaseClient@@AEXAAVCAr@@@Z@2@XZ 004203d0 f i DPDatabaseClient.obj
 0001:0001f3e0       ??0iterator@?$_Tree@V?$_Tmap_traits@KHU?$less@K@std@@V?$allocator@U?$pair@$$CBKH@std@@@2@$0A@@std@@@std@@QAE@PAU_Node@?$_Tree_nod@V?$_Tmap_traits@KHU?$less@K@std@@V?$allocator@U?$pair@$$CBKH@std@@@2@$0A@@std@@@2@@Z 004203e0 f i DPDatabaseClient.obj
 0001:0001f3f0       ??Diterator@?$_Tree@V?$_Tmap_traits@KHU?$less@K@std@@V?$allocator@U?$pair@$$CBKH@std@@@2@$0A@@std@@@std@@QBEAAU?$pair@$$CBKH@2@XZ 004203f0 f i DPDatabaseClient.obj
 0001:0001f400       ??0?$_Vector_val@V?$basic_string@DU?$char_traits@D@std@@V?$allocator@D@2@@std@@V?$allocator@V?$basic_string@DU?$char_traits@D@std@@V?$allocator@D@2@@std@@@2@@std@@IAE@V?$allocator@V?$basic_string@DU?$char_traits@D@std@@V?$allocator@D@2@@std@@@1@@Z 00420400 f i DPDatabaseClient.obj
 0001:0001f410       ?allocate@?$allocator@V?$basic_string@DU?$char_traits@D@std@@V?$allocator@D@2@@std@@@std@@QAEPAV?$basic_string@DU?$char_traits@D@std@@V?$allocator@D@2@@2@I@Z 00420410 f i DPDatabaseClient.obj
 0001:0001f430       ?max_size@?$_Tree@V?$_Tmap_traits@KHU?$less@K@std@@V?$allocator@U?$pair@$$CBKH@std@@@2@$0A@@std@@@std@@QBEIXZ 00420430 f i DPDatabaseClient.obj
 0001:0001f440       ?_Lrotate@?$_Tree@V?$_Tmap_traits@KHU?$less@K@std@@V?$allocator@U?$pair@$$CBKH@std@@@2@$0A@@std@@@std@@IAEXPAU_Node@?$_Tree_nod@V?$_Tmap_traits@KHU?$less@K@std@@V?$allocator@U?$pair@$$CBKH@std@@@2@$0A@@std@@@2@@Z 00420440 f i DPDatabaseClient.obj
 0001:0001f4a0       ?_Rrotate@?$_Tree@V?$_Tmap_traits@KHU?$less@K@std@@V?$allocator@U?$pair@$$CBKH@std@@@2@$0A@@std@@@std@@IAEXPAU_Node@?$_Tree_nod@V?$_Tmap_traits@KHU?$less@K@std@@V?$allocator@U?$pair@$$CBKH@std@@@2@$0A@@std@@@2@@Z 004204a0 f i DPDatabaseClient.obj
 0001:0001f500       ?destroy@?$allocator@PAU_Node@?$_Tree_nod@V?$_Tmap_traits@KHU?$less@K@std@@V?$allocator@U?$pair@$$CBKH@std@@@2@$0A@@std@@@std@@@std@@QAEXPAPAU_Node@?$_Tree_nod@V?$_Tmap_traits@KHU?$less@K@std@@V?$allocator@U?$pair@$$CBKH@std@@@2@$0A@@std@@@2@@Z 00420500 f i DPDatabaseClient.obj
 0001:0001f510       ?max_size@?$_Tree@V?$_Tmap_traits@KP8CDPDatabaseClient@@AEXAAVCAr@@@ZU?$less@K@std@@V?$allocator@U?$pair@$$CBKP8CDPDatabaseClient@@AEXAAVCAr@@@Z@std@@@4@$0A@@std@@@std@@QBEIXZ 00420510 f i DPDatabaseClient.obj
 0001:0001f520       ?_Lbound@?$_Tree@V?$_Tmap_traits@KP8CDPDatabaseClient@@AEXAAVCAr@@@ZU?$less@K@std@@V?$allocator@U?$pair@$$CBKP8CDPDatabaseClient@@AEXAAVCAr@@@Z@std@@@4@$0A@@std@@@std@@IBEPAU_Node@?$_Tree_nod@V?$_Tmap_traits@KP8CDPDatabaseClient@@AEXAAVCAr@@@ZU?$less@K@std@@V?$allocator@U?$pair@$$CBKP8CDPDatabaseClient@@AEXAAVCAr@@@Z@std@@@4@$0A@@std@@@2@ABK@Z 00420520 f i DPDatabaseClient.obj
 0001:0001f550       ?_Lrotate@?$_Tree@V?$_Tmap_traits@KP8CDPDatabaseClient@@AEXAAVCAr@@@ZU?$less@K@std@@V?$allocator@U?$pair@$$CBKP8CDPDatabaseClient@@AEXAAVCAr@@@Z@std@@@4@$0A@@std@@@std@@IAEXPAU_Node@?$_Tree_nod@V?$_Tmap_traits@KP8CDPDatabaseClient@@AEXAAVCAr@@@ZU?$less@K@std@@V?$allocator@U?$pair@$$CBKP8CDPDatabaseClient@@AEXAAVCAr@@@Z@std@@@4@$0A@@std@@@2@@Z 00420550 f i DPDatabaseClient.obj
 0001:0001f5b0       ?_Rrotate@?$_Tree@V?$_Tmap_traits@KP8CDPDatabaseClient@@AEXAAVCAr@@@ZU?$less@K@std@@V?$allocator@U?$pair@$$CBKP8CDPDatabaseClient@@AEXAAVCAr@@@Z@std@@@4@$0A@@std@@@std@@IAEXPAU_Node@?$_Tree_nod@V?$_Tmap_traits@KP8CDPDatabaseClient@@AEXAAVCAr@@@ZU?$less@K@std@@V?$allocator@U?$pair@$$CBKP8CDPDatabaseClient@@AEXAAVCAr@@@Z@std@@@4@$0A@@std@@@2@@Z 004205b0 f i DPDatabaseClient.obj
 0001:0001f610       ?destroy@?$allocator@PAU_Node@?$_Tree_nod@V?$_Tmap_traits@KP8CDPDatabaseClient@@AEXAAVCAr@@@ZU?$less@K@std@@V?$allocator@U?$pair@$$CBKP8CDPDatabaseClient@@AEXAAVCAr@@@Z@std@@@4@$0A@@std@@@std@@@std@@QAEXPAPAU_Node@?$_Tree_nod@V?$_Tmap_traits@KP8CDPDatabaseClient@@AEXAAVCAr@@@ZU?$less@K@std@@V?$allocator@U?$pair@$$CBKP8CDPDatabaseClient@@AEXAAVCAr@@@Z@std@@@4@$0A@@std@@@2@@Z 00420610 f i DPDatabaseClient.obj
 0001:0001f620       ?_Inc@const_iterator@?$_Tree@V?$_Tmap_traits@KHU?$less@K@std@@V?$allocator@U?$pair@$$CBKH@std@@@2@$0A@@std@@@std@@QAEXXZ 00420620 f i DPDatabaseClient.obj
 0001:0001f680       ?max_size@?$vector@V?$basic_string@DU?$char_traits@D@std@@V?$allocator@D@2@@std@@V?$allocator@V?$basic_string@DU?$char_traits@D@std@@V?$allocator@D@2@@std@@@2@@std@@QBEIXZ 00420680 f i DPDatabaseClient.obj
 0001:0001f690       ?allocate@?$allocator@U_Node@?$_Tree_nod@V?$_Tmap_traits@KHU?$less@K@std@@V?$allocator@U?$pair@$$CBKH@std@@@2@$0A@@std@@@std@@@std@@QAEPAU_Node@?$_Tree_nod@V?$_Tmap_traits@KHU?$less@K@std@@V?$allocator@U?$pair@$$CBKH@std@@@2@$0A@@std@@@2@I@Z 00420690 f i DPDatabaseClient.obj
 0001:0001f6b0       ?allocate@?$allocator@U_Node@?$_Tree_nod@V?$_Tmap_traits@KP8CDPDatabaseClient@@AEXAAVCAr@@@ZU?$less@K@std@@V?$allocator@U?$pair@$$CBKP8CDPDatabaseClient@@AEXAAVCAr@@@Z@std@@@4@$0A@@std@@@std@@@std@@QAEPAU_Node@?$_Tree_nod@V?$_Tmap_traits@KP8CDPDatabaseClient@@AEXAAVCAr@@@ZU?$less@K@std@@V?$allocator@U?$pair@$$CBKP8CDPDatabaseClient@@AEXAAVCAr@@@Z@std@@@4@$0A@@std@@@2@I@Z 004206b0 f i DPDatabaseClient.obj
 0001:0001f6d0       ?_Dec@const_iterator@?$_Tree@V?$_Tmap_traits@KP8CDPDatabaseClient@@AEXAAVCAr@@@ZU?$less@K@std@@V?$allocator@U?$pair@$$CBKP8CDPDatabaseClient@@AEXAAVCAr@@@Z@std@@@4@$0A@@std@@@std@@QAEXXZ 004206d0 f i DPDatabaseClient.obj
 0001:0001f730       ?_Dec@const_iterator@?$_Tree@V?$_Tmap_traits@KHU?$less@K@std@@V?$allocator@U?$pair@$$CBKH@std@@@2@$0A@@std@@@std@@QAEXXZ 00420730 f i DPDatabaseClient.obj
 0001:0001f790       ??0?$_Tree_nod@V?$_Tmap_traits@KHU?$less@K@std@@V?$allocator@U?$pair@$$CBKH@std@@@2@$0A@@std@@@std@@IAE@ABU?$less@K@1@V?$allocator@U?$pair@$$CBKH@std@@@1@@Z 00420790 f i DPDatabaseClient.obj
 0001:0001f7a0       ?destroy@?$allocator@U_Node@?$_Tree_nod@V?$_Tmap_traits@KHU?$less@K@std@@V?$allocator@U?$pair@$$CBKH@std@@@2@$0A@@std@@@std@@@std@@QAEXPAU_Node@?$_Tree_nod@V?$_Tmap_traits@KHU?$less@K@std@@V?$allocator@U?$pair@$$CBKH@std@@@2@$0A@@std@@@2@@Z 004207a0 f i DPDatabaseClient.obj
 0001:0001f7b0       ?construct@?$allocator@PAU_Node@?$_Tree_nod@V?$_Tmap_traits@KHU?$less@K@std@@V?$allocator@U?$pair@$$CBKH@std@@@2@$0A@@std@@@std@@@std@@QAEXPAPAU_Node@?$_Tree_nod@V?$_Tmap_traits@KHU?$less@K@std@@V?$allocator@U?$pair@$$CBKH@std@@@2@$0A@@std@@@2@ABQAU342@@Z 004207b0 f i DPDatabaseClient.obj
 0001:0001f7d0       ??0?$_Tree_nod@V?$_Tmap_traits@KP8CDPDatabaseClient@@AEXAAVCAr@@@ZU?$less@K@std@@V?$allocator@U?$pair@$$CBKP8CDPDatabaseClient@@AEXAAVCAr@@@Z@std@@@4@$0A@@std@@@std@@IAE@ABU?$less@K@1@V?$allocator@U?$pair@$$CBKP8CDPDatabaseClient@@AEXAAVCAr@@@Z@std@@@1@@Z 004207d0 f i DPDatabaseClient.obj
 0001:0001f7e0       ?destroy@?$allocator@U_Node@?$_Tree_nod@V?$_Tmap_traits@KP8CDPDatabaseClient@@AEXAAVCAr@@@ZU?$less@K@std@@V?$allocator@U?$pair@$$CBKP8CDPDatabaseClient@@AEXAAVCAr@@@Z@std@@@4@$0A@@std@@@std@@@std@@QAEXPAU_Node@?$_Tree_nod@V?$_Tmap_traits@KP8CDPDatabaseClient@@AEXAAVCAr@@@ZU?$less@K@std@@V?$allocator@U?$pair@$$CBKP8CDPDatabaseClient@@AEXAAVCAr@@@Z@std@@@4@$0A@@std@@@2@@Z 004207e0 f i DPDatabaseClient.obj
 0001:0001f7f0       ?construct@?$allocator@PAU_Node@?$_Tree_nod@V?$_Tmap_traits@KP8CDPDatabaseClient@@AEXAAVCAr@@@ZU?$less@K@std@@V?$allocator@U?$pair@$$CBKP8CDPDatabaseClient@@AEXAAVCAr@@@Z@std@@@4@$0A@@std@@@std@@@std@@QAEXPAPAU_Node@?$_Tree_nod@V?$_Tmap_traits@KP8CDPDatabaseClient@@AEXAAVCAr@@@ZU?$less@K@std@@V?$allocator@U?$pair@$$CBKP8CDPDatabaseClient@@AEXAAVCAr@@@Z@std@@@4@$0A@@std@@@2@ABQAU342@@Z 004207f0 f i DPDatabaseClient.obj
 0001:0001f810       ??Econst_iterator@?$_Tree@V?$_Tmap_traits@KP8CDPDatabaseClient@@AEXAAVCAr@@@ZU?$less@K@std@@V?$allocator@U?$pair@$$CBKP8CDPDatabaseClient@@AEXAAVCAr@@@Z@std@@@4@$0A@@std@@@std@@QAEAAV012@XZ 00420810 f i DPDatabaseClient.obj
 0001:0001f820       ?SysMessageHandler@CDPDatabaseClient@@UAEXPAUDPMSG_GENERIC@@KK@Z 00420820 f   DPDatabaseClient.obj
 0001:0001f850       ?begin@?$_Tree@V?$_Tmap_traits@KHU?$less@K@std@@V?$allocator@U?$pair@$$CBKH@std@@@2@$0A@@std@@@std@@QAE?AViterator@12@XZ 00420850 f i DPDatabaseClient.obj
 0001:0001f860       ?end@?$_Tree@V?$_Tmap_traits@KHU?$less@K@std@@V?$allocator@U?$pair@$$CBKH@std@@@2@$0A@@std@@@std@@QAE?AViterator@12@XZ 00420860 f i DPDatabaseClient.obj
 0001:0001f870       ?end@?$_Tree@V?$_Tmap_traits@KP8CDPDatabaseClient@@AEXAAVCAr@@@ZU?$less@K@std@@V?$allocator@U?$pair@$$CBKP8CDPDatabaseClient@@AEXAAVCAr@@@Z@std@@@4@$0A@@std@@@std@@QAE?AViterator@12@XZ 00420870 f i DPDatabaseClient.obj
 0001:0001f880       ??Citerator@?$_Tree@V?$_Tmap_traits@KP8CDPDatabaseClient@@AEXAAVCAr@@@ZU?$less@K@std@@V?$allocator@U?$pair@$$CBKP8CDPDatabaseClient@@AEXAAVCAr@@@Z@std@@@4@$0A@@std@@@std@@QBEPAU?$pair@$$CBKP8CDPDatabaseClient@@AEXAAVCAr@@@Z@2@XZ 00420880 f i DPDatabaseClient.obj
 0001:0001f890       ??Citerator@?$_Tree@V?$_Tmap_traits@KHU?$less@K@std@@V?$allocator@U?$pair@$$CBKH@std@@@2@$0A@@std@@@std@@QBEPAU?$pair@$$CBKH@2@XZ 00420890 f i DPDatabaseClient.obj
 0001:0001f8a0       ?begin@?$_Tree@V?$_Tmap_traits@KP8CDPDatabaseClient@@AEXAAVCAr@@@ZU?$less@K@std@@V?$allocator@U?$pair@$$CBKP8CDPDatabaseClient@@AEXAAVCAr@@@Z@std@@@4@$0A@@std@@@std@@QAE?AViterator@12@XZ 004208a0 f i DPDatabaseClient.obj
 0001:0001f8b0       ?lower_bound@?$_Tree@V?$_Tmap_traits@KP8CDPDatabaseClient@@AEXAAVCAr@@@ZU?$less@K@std@@V?$allocator@U?$pair@$$CBKP8CDPDatabaseClient@@AEXAAVCAr@@@Z@std@@@4@$0A@@std@@@std@@QAE?AViterator@12@ABK@Z 004208b0 f i DPDatabaseClient.obj
 0001:0001f8f0       ??Econst_iterator@?$_Tree@V?$_Tmap_traits@KHU?$less@K@std@@V?$allocator@U?$pair@$$CBKH@std@@@2@$0A@@std@@@std@@QAEAAV012@XZ 004208f0 f i DPDatabaseClient.obj
 0001:0001f900       ?_Buynode@?$_Tree@V?$_Tmap_traits@KHU?$less@K@std@@V?$allocator@U?$pair@$$CBKH@std@@@2@$0A@@std@@@std@@IAEPAU_Node@?$_Tree_nod@V?$_Tmap_traits@KHU?$less@K@std@@V?$allocator@U?$pair@$$CBKH@std@@@2@$0A@@std@@@2@PAU342@00ABU?$pair@$$CBKH@2@D@Z 00420900 f i DPDatabaseClient.obj
 0001:0001f940       ?_Buynode@?$_Tree@V?$_Tmap_traits@KP8CDPDatabaseClient@@AEXAAVCAr@@@ZU?$less@K@std@@V?$allocator@U?$pair@$$CBKP8CDPDatabaseClient@@AEXAAVCAr@@@Z@std@@@4@$0A@@std@@@std@@IAEPAU_Node@?$_Tree_nod@V?$_Tmap_traits@KP8CDPDatabaseClient@@AEXAAVCAr@@@ZU?$less@K@std@@V?$allocator@U?$pair@$$CBKP8CDPDatabaseClient@@AEXAAVCAr@@@Z@std@@@4@$0A@@std@@@2@PAU342@00ABU?$pair@$$CBKP8CDPDatabaseClient@@AEXAAVCAr@@@Z@2@D@Z 00420940 f i DPDatabaseClient.obj
 0001:0001f980       ??Fconst_iterator@?$_Tree@V?$_Tmap_traits@KP8CDPDatabaseClient@@AEXAAVCAr@@@ZU?$less@K@std@@V?$allocator@U?$pair@$$CBKP8CDPDatabaseClient@@AEXAAVCAr@@@Z@std@@@4@$0A@@std@@@std@@QAEAAV012@XZ 00420980 f i DPDatabaseClient.obj
 0001:0001f990       ??Fconst_iterator@?$_Tree@V?$_Tmap_traits@KHU?$less@K@std@@V?$allocator@U?$pair@$$CBKH@std@@@2@$0A@@std@@@std@@QAEAAV012@XZ 00420990 f i DPDatabaseClient.obj
 0001:0001f9a0       ?_Buynode@?$_Tree@V?$_Tmap_traits@KHU?$less@K@std@@V?$allocator@U?$pair@$$CBKH@std@@@2@$0A@@std@@@std@@IAEPAU_Node@?$_Tree_nod@V?$_Tmap_traits@KHU?$less@K@std@@V?$allocator@U?$pair@$$CBKH@std@@@2@$0A@@std@@@2@XZ 004209a0 f i DPDatabaseClient.obj
 0001:0001f9e0       ??0?$_Tree_ptr@V?$_Tmap_traits@KHU?$less@K@std@@V?$allocator@U?$pair@$$CBKH@std@@@2@$0A@@std@@@std@@IAE@ABU?$less@K@1@V?$allocator@U?$pair@$$CBKH@std@@@1@@Z 004209e0 f i DPDatabaseClient.obj
 0001:0001f9f0       ?_Buynode@?$_Tree@V?$_Tmap_traits@KP8CDPDatabaseClient@@AEXAAVCAr@@@ZU?$less@K@std@@V?$allocator@U?$pair@$$CBKP8CDPDatabaseClient@@AEXAAVCAr@@@Z@std@@@4@$0A@@std@@@std@@IAEPAU_Node@?$_Tree_nod@V?$_Tmap_traits@KP8CDPDatabaseClient@@AEXAAVCAr@@@ZU?$less@K@std@@V?$allocator@U?$pair@$$CBKP8CDPDatabaseClient@@AEXAAVCAr@@@Z@std@@@4@$0A@@std@@@2@XZ 004209f0 f i DPDatabaseClient.obj
 0001:0001fa30       ??0?$_Tree_ptr@V?$_Tmap_traits@KP8CDPDatabaseClient@@AEXAAVCAr@@@ZU?$less@K@std@@V?$allocator@U?$pair@$$CBKP8CDPDatabaseClient@@AEXAAVCAr@@@Z@std@@@4@$0A@@std@@@std@@IAE@ABU?$less@K@1@V?$allocator@U?$pair@$$CBKP8CDPDatabaseClient@@AEXAAVCAr@@@Z@std@@@1@@Z 00420a30 f i DPDatabaseClient.obj
 0001:0001fa40       ?_Erase@?$_Tree@V?$_Tmap_traits@KHU?$less@K@std@@V?$allocator@U?$pair@$$CBKH@std@@@2@$0A@@std@@@std@@IAEXPAU_Node@?$_Tree_nod@V?$_Tmap_traits@KHU?$less@K@std@@V?$allocator@U?$pair@$$CBKH@std@@@2@$0A@@std@@@2@@Z 00420a40 f i DPDatabaseClient.obj
 0001:0001fa80       ?_Erase@?$_Tree@V?$_Tmap_traits@KP8CDPDatabaseClient@@AEXAAVCAr@@@ZU?$less@K@std@@V?$allocator@U?$pair@$$CBKP8CDPDatabaseClient@@AEXAAVCAr@@@Z@std@@@4@$0A@@std@@@std@@IAEXPAU_Node@?$_Tree_nod@V?$_Tmap_traits@KP8CDPDatabaseClient@@AEXAAVCAr@@@ZU?$less@K@std@@V?$allocator@U?$pair@$$CBKP8CDPDatabaseClient@@AEXAAVCAr@@@Z@std@@@4@$0A@@std@@@2@@Z 00420a80 f i DPDatabaseClient.obj
 0001:0001fac0       ??Eiterator@?$_Tree@V?$_Tmap_traits@KP8CDPDatabaseClient@@AEXAAVCAr@@@ZU?$less@K@std@@V?$allocator@U?$pair@$$CBKP8CDPDatabaseClient@@AEXAAVCAr@@@Z@std@@@4@$0A@@std@@@std@@QAEAAV012@XZ 00420ac0 f i DPDatabaseClient.obj
 0001:0001fad0       ?find@?$_Tree@V?$_Tmap_traits@KP8CDPDatabaseClient@@AEXAAVCAr@@@ZU?$less@K@std@@V?$allocator@U?$pair@$$CBKP8CDPDatabaseClient@@AEXAAVCAr@@@Z@std@@@4@$0A@@std@@@std@@QAE?AViterator@12@ABK@Z 00420ad0 f i DPDatabaseClient.obj
 0001:0001fb40       ??Eiterator@?$_Tree@V?$_Tmap_traits@KHU?$less@K@std@@V?$allocator@U?$pair@$$CBKH@std@@@2@$0A@@std@@@std@@QAEAAV012@XZ 00420b40 f i DPDatabaseClient.obj
 0001:0001fb50       ??Fiterator@?$_Tree@V?$_Tmap_traits@KP8CDPDatabaseClient@@AEXAAVCAr@@@ZU?$less@K@std@@V?$allocator@U?$pair@$$CBKP8CDPDatabaseClient@@AEXAAVCAr@@@Z@std@@@4@$0A@@std@@@std@@QAEAAV012@XZ 00420b50 f i DPDatabaseClient.obj
 0001:0001fb60       ??Fiterator@?$_Tree@V?$_Tmap_traits@KHU?$less@K@std@@V?$allocator@U?$pair@$$CBKH@std@@@2@$0A@@std@@@std@@QAEAAV012@XZ 00420b60 f i DPDatabaseClient.obj
 0001:0001fb70       ?_Init@?$_Tree@V?$_Tmap_traits@KHU?$less@K@std@@V?$allocator@U?$pair@$$CBKH@std@@@2@$0A@@std@@@std@@IAEXXZ 00420b70 f i DPDatabaseClient.obj
 0001:0001fba0       ??0?$_Tree_val@V?$_Tmap_traits@KHU?$less@K@std@@V?$allocator@U?$pair@$$CBKH@std@@@2@$0A@@std@@@std@@IAE@ABU?$less@K@1@V?$allocator@U?$pair@$$CBKH@std@@@1@@Z 00420ba0 f i DPDatabaseClient.obj
 0001:0001fbb0       ?_Init@?$_Tree@V?$_Tmap_traits@KP8CDPDatabaseClient@@AEXAAVCAr@@@ZU?$less@K@std@@V?$allocator@U?$pair@$$CBKP8CDPDatabaseClient@@AEXAAVCAr@@@Z@std@@@4@$0A@@std@@@std@@IAEXXZ 00420bb0 f i DPDatabaseClient.obj
 0001:0001fbe0       ??0?$_Tree_val@V?$_Tmap_traits@KP8CDPDatabaseClient@@AEXAAVCAr@@@ZU?$less@K@std@@V?$allocator@U?$pair@$$CBKP8CDPDatabaseClient@@AEXAAVCAr@@@Z@std@@@4@$0A@@std@@@std@@IAE@ABU?$less@K@1@V?$allocator@U?$pair@$$CBKP8CDPDatabaseClient@@AEXAAVCAr@@@Z@std@@@1@@Z 00420be0 f i DPDatabaseClient.obj
 0001:0001fbf0       ?clear@?$_Tree@V?$_Tmap_traits@KHU?$less@K@std@@V?$allocator@U?$pair@$$CBKH@std@@@2@$0A@@std@@@std@@QAEXXZ 00420bf0 f i DPDatabaseClient.obj
 0001:0001fc20       ?clear@?$_Tree@V?$_Tmap_traits@KP8CDPDatabaseClient@@AEXAAVCAr@@@ZU?$less@K@std@@V?$allocator@U?$pair@$$CBKP8CDPDatabaseClient@@AEXAAVCAr@@@Z@std@@@4@$0A@@std@@@std@@QAEXXZ 00420c20 f i DPDatabaseClient.obj
 0001:0001fc50       ??Eiterator@?$_Tree@V?$_Tmap_traits@KP8CDPDatabaseClient@@AEXAAVCAr@@@ZU?$less@K@std@@V?$allocator@U?$pair@$$CBKP8CDPDatabaseClient@@AEXAAVCAr@@@Z@std@@@4@$0A@@std@@@std@@QAE?AV012@H@Z 00420c50 f i DPDatabaseClient.obj
 0001:0001fc70       ??Eiterator@?$_Tree@V?$_Tmap_traits@KHU?$less@K@std@@V?$allocator@U?$pair@$$CBKH@std@@@2@$0A@@std@@@std@@QAE?AV012@H@Z 00420c70 f i DPDatabaseClient.obj
 0001:0001fc90       ?GetHandler@CDPDatabaseClient@@AAEP81@AEXAAVCAr@@@ZK@Z 00420c90 f i DPDatabaseClient.obj
 0001:0001fcc0       ?UserMessageHandler@CDPDatabaseClient@@UAEXPAUDPMSG_GENERIC@@KK@Z 00420cc0 f   DPDatabaseClient.obj
 0001:0001fda0       ?OnDelPlayer@CDPDatabaseClient@@AAEXAAVCAr@@@Z 00420da0 f   DPDatabaseClient.obj
 0001:0001ffa0       ??0?$_Tree@V?$_Tmap_traits@KHU?$less@K@std@@V?$allocator@U?$pair@$$CBKH@std@@@2@$0A@@std@@@std@@QAE@ABU?$less@K@1@ABV?$allocator@U?$pair@$$CBKH@std@@@1@@Z 00420fa0 f i DPDatabaseClient.obj
 0001:0001ffd0       ??0?$_Tree@V?$_Tmap_traits@KP8CDPDatabaseClient@@AEXAAVCAr@@@ZU?$less@K@std@@V?$allocator@U?$pair@$$CBKP8CDPDatabaseClient@@AEXAAVCAr@@@Z@std@@@4@$0A@@std@@@std@@QAE@ABU?$less@K@1@ABV?$allocator@U?$pair@$$CBKP8CDPDatabaseClient@@AEXAAVCAr@@@Z@std@@@1@@Z 00420fd0 f i DPDatabaseClient.obj
 0001:00020000       ??_G?$basic_string@DU?$char_traits@D@std@@V?$allocator@D@2@@std@@QAEPAXI@Z 00421000 f i DPDatabaseClient.obj
 0001:00020040       ??$_Destroy@V?$basic_string@DU?$char_traits@D@std@@V?$allocator@D@2@@std@@@std@@YAXPAV?$basic_string@DU?$char_traits@D@std@@V?$allocator@D@2@@0@@Z 00421040 f i DPDatabaseClient.obj
 0001:00020070       ?destroy@?$allocator@V?$basic_string@DU?$char_traits@D@std@@V?$allocator@D@2@@std@@@std@@QAEXPAV?$basic_string@DU?$char_traits@D@std@@V?$allocator@D@2@@2@@Z 00421070 f i DPDatabaseClient.obj
 0001:000200a0       ?_Insert@?$_Tree@V?$_Tmap_traits@KHU?$less@K@std@@V?$allocator@U?$pair@$$CBKH@std@@@2@$0A@@std@@@std@@IAE?AViterator@12@_NPAU_Node@?$_Tree_nod@V?$_Tmap_traits@KHU?$less@K@std@@V?$allocator@U?$pair@$$CBKH@std@@@2@$0A@@std@@@2@ABU?$pair@$$CBKH@2@@Z 004210a0 f i DPDatabaseClient.obj
 0001:00020250       ?_Insert@?$_Tree@V?$_Tmap_traits@KP8CDPDatabaseClient@@AEXAAVCAr@@@ZU?$less@K@std@@V?$allocator@U?$pair@$$CBKP8CDPDatabaseClient@@AEXAAVCAr@@@Z@std@@@4@$0A@@std@@@std@@IAE?AViterator@12@_NPAU_Node@?$_Tree_nod@V?$_Tmap_traits@KP8CDPDatabaseClient@@AEXAAVCAr@@@ZU?$less@K@std@@V?$allocator@U?$pair@$$CBKP8CDPDatabaseClient@@AEXAAVCAr@@@Z@std@@@4@$0A@@std@@@2@ABU?$pair@$$CBKP8CDPDatabaseClient@@AEXAAVCAr@@@Z@2@@Z 00421250 f i DPDatabaseClient.obj
 0001:00020400       ?_Xlen@?$vector@V?$basic_string@DU?$char_traits@D@std@@V?$allocator@D@2@@std@@V?$allocator@V?$basic_string@DU?$char_traits@D@std@@V?$allocator@D@2@@std@@@2@@std@@IBEXXZ 00421400 f i DPDatabaseClient.obj
 0001:00020470       ?erase@?$_Tree@V?$_Tmap_traits@KHU?$less@K@std@@V?$allocator@U?$pair@$$CBKH@std@@@2@$0A@@std@@@std@@QAE?AViterator@12@V312@@Z 00421470 f i DPDatabaseClient.obj
 0001:00020730       ?erase@?$_Tree@V?$_Tmap_traits@KP8CDPDatabaseClient@@AEXAAVCAr@@@ZU?$less@K@std@@V?$allocator@U?$pair@$$CBKP8CDPDatabaseClient@@AEXAAVCAr@@@Z@std@@@4@$0A@@std@@@std@@QAE?AViterator@12@V312@@Z 00421730 f i DPDatabaseClient.obj
 0001:000209f0       ??$_Destroy_range@V?$basic_string@DU?$char_traits@D@std@@V?$allocator@D@2@@std@@V?$allocator@V?$basic_string@DU?$char_traits@D@std@@V?$allocator@D@2@@std@@@2@@std@@YAXPAV?$basic_string@DU?$char_traits@D@std@@V?$allocator@D@2@@0@0AAV?$allocator@V?$basic_string@DU?$char_traits@D@std@@V?$allocator@D@2@@std@@@0@U_Nonscalar_ptr_iterator_tag@0@@Z 004219f0 f i DPDatabaseClient.obj
 0001:00020a30       ?SendWarEnd@CDPDatabaseClient@@QAEXKKKHHHVCTime@ATL@@HHHH@Z 00421a30 f   DPDatabaseClient.obj
 0001:00020cc0       ?insert@?$_Tree@V?$_Tmap_traits@KHU?$less@K@std@@V?$allocator@U?$pair@$$CBKH@std@@@2@$0A@@std@@@std@@QAE?AU?$pair@Viterator@?$_Tree@V?$_Tmap_traits@KHU?$less@K@std@@V?$allocator@U?$pair@$$CBKH@std@@@2@$0A@@std@@@std@@_N@2@ABU?$pair@$$CBKH@2@@Z 00421cc0 f i DPDatabaseClient.obj
 0001:00020d80       ?insert@?$_Tree@V?$_Tmap_traits@KP8CDPDatabaseClient@@AEXAAVCAr@@@ZU?$less@K@std@@V?$allocator@U?$pair@$$CBKP8CDPDatabaseClient@@AEXAAVCAr@@@Z@std@@@4@$0A@@std@@@std@@QAE?AU?$pair@Viterator@?$_Tree@V?$_Tmap_traits@KP8CDPDatabaseClient@@AEXAAVCAr@@@ZU?$less@K@std@@V?$allocator@U?$pair@$$CBKP8CDPDatabaseClient@@AEXAAVCAr@@@Z@std@@@4@$0A@@std@@@std@@_N@2@ABU?$pair@$$CBKP8CDPDatabaseClient@@AEXAAVCAr@@@Z@2@@Z 00421d80 f i DPDatabaseClient.obj
 0001:00020e40       ?_Buy@?$vector@V?$basic_string@DU?$char_traits@D@std@@V?$allocator@D@2@@std@@V?$allocator@V?$basic_string@DU?$char_traits@D@std@@V?$allocator@D@2@@std@@@2@@std@@IAE_NI@Z 00421e40 f i DPDatabaseClient.obj
 0001:00020e90       ?erase@?$_Tree@V?$_Tmap_traits@KHU?$less@K@std@@V?$allocator@U?$pair@$$CBKH@std@@@2@$0A@@std@@@std@@QAE?AViterator@12@V312@0@Z 00421e90 f i DPDatabaseClient.obj
 0001:00020f50       ?erase@?$_Tree@V?$_Tmap_traits@KP8CDPDatabaseClient@@AEXAAVCAr@@@ZU?$less@K@std@@V?$allocator@U?$pair@$$CBKP8CDPDatabaseClient@@AEXAAVCAr@@@Z@std@@@4@$0A@@std@@@std@@QAE?AViterator@12@V312@0@Z 00421f50 f i DPDatabaseClient.obj
 0001:00021010       ??$_Destroy_range@V?$basic_string@DU?$char_traits@D@std@@V?$allocator@D@2@@std@@V?$allocator@V?$basic_string@DU?$char_traits@D@std@@V?$allocator@D@2@@std@@@2@@std@@YAXPAV?$basic_string@DU?$char_traits@D@std@@V?$allocator@D@2@@0@0AAV?$allocator@V?$basic_string@DU?$char_traits@D@std@@V?$allocator@D@2@@std@@@0@@Z 00422010 f i DPDatabaseClient.obj
 0001:00021030       ??0?$vector@V?$basic_string@DU?$char_traits@D@std@@V?$allocator@D@2@@std@@V?$allocator@V?$basic_string@DU?$char_traits@D@std@@V?$allocator@D@2@@std@@@2@@std@@QAE@XZ 00422030 f i DPDatabaseClient.obj
 0001:00021040       ?_Tidy@?$_Tree@V?$_Tmap_traits@KHU?$less@K@std@@V?$allocator@U?$pair@$$CBKH@std@@@2@$0A@@std@@@std@@IAEXXZ 00422040 f i DPDatabaseClient.obj
 0001:00021070       ?_Tidy@?$_Tree@V?$_Tmap_traits@KP8CDPDatabaseClient@@AEXAAVCAr@@@ZU?$less@K@std@@V?$allocator@U?$pair@$$CBKP8CDPDatabaseClient@@AEXAAVCAr@@@Z@std@@@4@$0A@@std@@@std@@IAEXXZ 00422070 f i DPDatabaseClient.obj
 0001:000210a0       ?_Destroy@?$vector@V?$basic_string@DU?$char_traits@D@std@@V?$allocator@D@2@@std@@V?$allocator@V?$basic_string@DU?$char_traits@D@std@@V?$allocator@D@2@@std@@@2@@std@@IAEXPAV?$basic_string@DU?$char_traits@D@std@@V?$allocator@D@2@@2@0@Z 004220a0 f i DPDatabaseClient.obj
 0001:000210c0       ?OnRemovePlayerFriend@CDPDatabaseClient@@QAEXAAVCAr@@@Z 004220c0 f   DPDatabaseClient.obj
 0001:00021190       ??1?$_Tree@V?$_Tmap_traits@KHU?$less@K@std@@V?$allocator@U?$pair@$$CBKH@std@@@2@$0A@@std@@@std@@QAE@XZ 00422190 f i DPDatabaseClient.obj
 0001:000211c0       ??1?$_Tree@V?$_Tmap_traits@KP8CDPDatabaseClient@@AEXAAVCAr@@@ZU?$less@K@std@@V?$allocator@U?$pair@$$CBKP8CDPDatabaseClient@@AEXAAVCAr@@@Z@std@@@4@$0A@@std@@@std@@QAE@XZ 004221c0 f i DPDatabaseClient.obj
 0001:000211f0       ?_Tidy@?$vector@V?$basic_string@DU?$char_traits@D@std@@V?$allocator@D@2@@std@@V?$allocator@V?$basic_string@DU?$char_traits@D@std@@V?$allocator@D@2@@std@@@2@@std@@IAEXXZ 004221f0 f i DPDatabaseClient.obj
 0001:00021230       ??1?$map@KP8CDPDatabaseClient@@AEXAAVCAr@@@ZU?$less@K@std@@V?$allocator@U?$pair@$$CBKP8CDPDatabaseClient@@AEXAAVCAr@@@Z@std@@@4@@std@@QAE@XZ 00422230 f i DPDatabaseClient.obj
 0001:00021260       ??1CDPDatabaseClient@@UAE@XZ 00422260 f   DPDatabaseClient.obj
 0001:000212e0       ??1?$map@KHU?$less@K@std@@V?$allocator@U?$pair@$$CBKH@std@@@2@@std@@QAE@XZ 004222e0 f i DPDatabaseClient.obj
 0001:00021310       ??0?$map@KHU?$less@K@std@@V?$allocator@U?$pair@$$CBKH@std@@@2@@std@@QAE@XZ 00422310 f i DPDatabaseClient.obj
 0001:00021340       ??0?$map@KP8CDPDatabaseClient@@AEXAAVCAr@@@ZU?$less@K@std@@V?$allocator@U?$pair@$$CBKP8CDPDatabaseClient@@AEXAAVCAr@@@Z@std@@@4@@std@@QAE@XZ 00422340 f i DPDatabaseClient.obj
 0001:00021370       ??1?$vector@V?$basic_string@DU?$char_traits@D@std@@V?$allocator@D@2@@std@@V?$allocator@V?$basic_string@DU?$char_traits@D@std@@V?$allocator@D@2@@std@@@2@@std@@QAE@XZ 00422370 f i DPDatabaseClient.obj
 0001:000213b0       ??_GCDPDatabaseClient@@UAEPAXI@Z 004223b0 f i DPDatabaseClient.obj
 0001:000213b0       ??_ECDPDatabaseClient@@UAEPAXI@Z 004223b0 f i DPDatabaseClient.obj
 0001:000213d0       ?OnUpdatePlayerData@CDPDatabaseClient@@AAEXAAVCAr@@@Z 004223d0 f   DPDatabaseClient.obj
 0001:00021740       ?OnEventNotice@CDPDatabaseClient@@AAEXAAVCAr@@@Z 00422740 f   DPDatabaseClient.obj
 0001:00021810       ??0CDPDatabaseClient@@QAE@XZ 00422810 f   DPDatabaseClient.obj
 0001:00021a40       ?OnAddConnection@CDPLoginSrvr@@AAEXK@Z 00422a40 f   dploginsrvr.obj
 0001:00021a60       ?OnRemoveConnection@CDPLoginSrvr@@AAEXK@Z 00422a60 f   dploginsrvr.obj
 0001:00021aa0       ?SendQueryRemovePlayer@CDPLoginSrvr@@QAEXPBD@Z 00422aa0 f   dploginsrvr.obj
 0001:00021b70       ??0?$pair@$$CBKP8CDPLoginSrvr@@AEXAAVCAr@@@Z@std@@QAE@ABKABQ8CDPLoginSrvr@@AEXAAVCAr@@@Z@Z 00422b70 f i dploginsrvr.obj
 0001:00021b90       ?_Isnil@?$_Tree@V?$_Tmap_traits@KP8CDPLoginSrvr@@AEXAAVCAr@@@ZU?$less@K@std@@V?$allocator@U?$pair@$$CBKP8CDPLoginSrvr@@AEXAAVCAr@@@Z@std@@@4@$0A@@std@@@std@@KAAADPAU_Node@?$_Tree_nod@V?$_Tmap_traits@KP8CDPLoginSrvr@@AEXAAVCAr@@@ZU?$less@K@std@@V?$allocator@U?$pair@$$CBKP8CDPLoginSrvr@@AEXAAVCAr@@@Z@std@@@4@$0A@@std@@@2@@Z 00422b90 f i dploginsrvr.obj
 0001:00021ba0       ?_Left@?$_Tree@V?$_Tmap_traits@KP8CDPLoginSrvr@@AEXAAVCAr@@@ZU?$less@K@std@@V?$allocator@U?$pair@$$CBKP8CDPLoginSrvr@@AEXAAVCAr@@@Z@std@@@4@$0A@@std@@@std@@KAAAPAU_Node@?$_Tree_nod@V?$_Tmap_traits@KP8CDPLoginSrvr@@AEXAAVCAr@@@ZU?$less@K@std@@V?$allocator@U?$pair@$$CBKP8CDPLoginSrvr@@AEXAAVCAr@@@Z@std@@@4@$0A@@std@@@2@PAU342@@Z 00422ba0 f i dploginsrvr.obj
 0001:00021bb0       ?_Right@?$_Tree@V?$_Tmap_traits@KP8CDPLoginSrvr@@AEXAAVCAr@@@ZU?$less@K@std@@V?$allocator@U?$pair@$$CBKP8CDPLoginSrvr@@AEXAAVCAr@@@Z@std@@@4@$0A@@std@@@std@@KAAAPAU_Node@?$_Tree_nod@V?$_Tmap_traits@KP8CDPLoginSrvr@@AEXAAVCAr@@@ZU?$less@K@std@@V?$allocator@U?$pair@$$CBKP8CDPLoginSrvr@@AEXAAVCAr@@@Z@std@@@4@$0A@@std@@@2@PAU342@@Z 00422bb0 f i dploginsrvr.obj
 0001:00021bc0       ?_Kfn@?$_Tmap_traits@KP8CDPLoginSrvr@@AEXAAVCAr@@@ZU?$less@K@std@@V?$allocator@U?$pair@$$CBKP8CDPLoginSrvr@@AEXAAVCAr@@@Z@std@@@4@$0A@@std@@SAABKABU?$pair@$$CBKP8CDPLoginSrvr@@AEXAAVCAr@@@Z@2@@Z 00422bc0 f i dploginsrvr.obj
 0001:00021bd0       ??0?$allocator@U?$pair@$$CBKP8CDPLoginSrvr@@AEXAAVCAr@@@Z@std@@@std@@QAE@XZ 00422bd0 f i dploginsrvr.obj
 0001:00021be0       ??8const_iterator@?$_Tree@V?$_Tmap_traits@KP8CDPLoginSrvr@@AEXAAVCAr@@@ZU?$less@K@std@@V?$allocator@U?$pair@$$CBKP8CDPLoginSrvr@@AEXAAVCAr@@@Z@std@@@4@$0A@@std@@@std@@QBE_NABV012@@Z 00422be0 f i dploginsrvr.obj
 0001:00021bf0       ?_Mynode@const_iterator@?$_Tree@V?$_Tmap_traits@KP8CDPLoginSrvr@@AEXAAVCAr@@@ZU?$less@K@std@@V?$allocator@U?$pair@$$CBKP8CDPLoginSrvr@@AEXAAVCAr@@@Z@std@@@4@$0A@@std@@@std@@QBEPAU_Node@?$_Tree_nod@V?$_Tmap_traits@KP8CDPLoginSrvr@@AEXAAVCAr@@@ZU?$less@K@std@@V?$allocator@U?$pair@$$CBKP8CDPLoginSrvr@@AEXAAVCAr@@@Z@std@@@4@$0A@@std@@@3@XZ 00422bf0 f i dploginsrvr.obj
 0001:00021c00       ??0?$pair@Viterator@?$_Tree@V?$_Tmap_traits@KP8CDPLoginSrvr@@AEXAAVCAr@@@ZU?$less@K@std@@V?$allocator@U?$pair@$$CBKP8CDPLoginSrvr@@AEXAAVCAr@@@Z@std@@@4@$0A@@std@@@std@@_N@std@@QAE@ABViterator@?$_Tree@V?$_Tmap_traits@KP8CDPLoginSrvr@@AEXAAVCAr@@@ZU?$less@K@std@@V?$allocator@U?$pair@$$CBKP8CDPLoginSrvr@@AEXAAVCAr@@@Z@std@@@4@$0A@@std@@@1@AB_N@Z 00422c00 f i dploginsrvr.obj
 0001:00021c20       ?_Color@?$_Tree@V?$_Tmap_traits@KP8CDPLoginSrvr@@AEXAAVCAr@@@ZU?$less@K@std@@V?$allocator@U?$pair@$$CBKP8CDPLoginSrvr@@AEXAAVCAr@@@Z@std@@@4@$0A@@std@@@std@@KAAADPAU_Node@?$_Tree_nod@V?$_Tmap_traits@KP8CDPLoginSrvr@@AEXAAVCAr@@@ZU?$less@K@std@@V?$allocator@U?$pair@$$CBKP8CDPLoginSrvr@@AEXAAVCAr@@@Z@std@@@4@$0A@@std@@@2@@Z 00422c20 f i dploginsrvr.obj
 0001:00021c30       ?_Parent@?$_Tree@V?$_Tmap_traits@KP8CDPLoginSrvr@@AEXAAVCAr@@@ZU?$less@K@std@@V?$allocator@U?$pair@$$CBKP8CDPLoginSrvr@@AEXAAVCAr@@@Z@std@@@4@$0A@@std@@@std@@KAAAPAU_Node@?$_Tree_nod@V?$_Tmap_traits@KP8CDPLoginSrvr@@AEXAAVCAr@@@ZU?$less@K@std@@V?$allocator@U?$pair@$$CBKP8CDPLoginSrvr@@AEXAAVCAr@@@Z@std@@@4@$0A@@std@@@2@PAU342@@Z 00422c30 f i dploginsrvr.obj
 0001:00021c40       ?_Myval@?$_Tree@V?$_Tmap_traits@KP8CDPLoginSrvr@@AEXAAVCAr@@@ZU?$less@K@std@@V?$allocator@U?$pair@$$CBKP8CDPLoginSrvr@@AEXAAVCAr@@@Z@std@@@4@$0A@@std@@@std@@KAAAU?$pair@$$CBKP8CDPLoginSrvr@@AEXAAVCAr@@@Z@2@PAU_Node@?$_Tree_nod@V?$_Tmap_traits@KP8CDPLoginSrvr@@AEXAAVCAr@@@ZU?$less@K@std@@V?$allocator@U?$pair@$$CBKP8CDPLoginSrvr@@AEXAAVCAr@@@Z@std@@@4@$0A@@std@@@2@@Z 00422c40 f i dploginsrvr.obj
 0001:00021c50       ?_Lmost@?$_Tree@V?$_Tmap_traits@KP8CDPLoginSrvr@@AEXAAVCAr@@@ZU?$less@K@std@@V?$allocator@U?$pair@$$CBKP8CDPLoginSrvr@@AEXAAVCAr@@@Z@std@@@4@$0A@@std@@@std@@IAEAAPAU_Node@?$_Tree_nod@V?$_Tmap_traits@KP8CDPLoginSrvr@@AEXAAVCAr@@@ZU?$less@K@std@@V?$allocator@U?$pair@$$CBKP8CDPLoginSrvr@@AEXAAVCAr@@@Z@std@@@4@$0A@@std@@@2@XZ 00422c50 f i dploginsrvr.obj
 0001:00021c60       ?_Rmost@?$_Tree@V?$_Tmap_traits@KP8CDPLoginSrvr@@AEXAAVCAr@@@ZU?$less@K@std@@V?$allocator@U?$pair@$$CBKP8CDPLoginSrvr@@AEXAAVCAr@@@Z@std@@@4@$0A@@std@@@std@@IAEAAPAU_Node@?$_Tree_nod@V?$_Tmap_traits@KP8CDPLoginSrvr@@AEXAAVCAr@@@ZU?$less@K@std@@V?$allocator@U?$pair@$$CBKP8CDPLoginSrvr@@AEXAAVCAr@@@Z@std@@@4@$0A@@std@@@2@XZ 00422c60 f i dploginsrvr.obj
 0001:00021c70       ??0?$allocator@U?$pair@$$CBKP8CDPLoginSrvr@@AEXAAVCAr@@@Z@std@@@std@@QAE@ABV01@@Z 00422c70 f i dploginsrvr.obj
 0001:00021c80       ?deallocate@?$allocator@U_Node@?$_Tree_nod@V?$_Tmap_traits@KP8CDPLoginSrvr@@AEXAAVCAr@@@ZU?$less@K@std@@V?$allocator@U?$pair@$$CBKP8CDPLoginSrvr@@AEXAAVCAr@@@Z@std@@@4@$0A@@std@@@std@@@std@@QAEXPAU_Node@?$_Tree_nod@V?$_Tmap_traits@KP8CDPLoginSrvr@@AEXAAVCAr@@@ZU?$less@K@std@@V?$allocator@U?$pair@$$CBKP8CDPLoginSrvr@@AEXAAVCAr@@@Z@std@@@4@$0A@@std@@@2@I@Z 00422c80 f i dploginsrvr.obj
 0001:00021c90       ??0const_iterator@?$_Tree@V?$_Tmap_traits@KP8CDPLoginSrvr@@AEXAAVCAr@@@ZU?$less@K@std@@V?$allocator@U?$pair@$$CBKP8CDPLoginSrvr@@AEXAAVCAr@@@Z@std@@@4@$0A@@std@@@std@@QAE@PAU_Node@?$_Tree_nod@V?$_Tmap_traits@KP8CDPLoginSrvr@@AEXAAVCAr@@@ZU?$less@K@std@@V?$allocator@U?$pair@$$CBKP8CDPLoginSrvr@@AEXAAVCAr@@@Z@std@@@4@$0A@@std@@@2@@Z 00422c90 f i dploginsrvr.obj
 0001:00021ca0       ??Dconst_iterator@?$_Tree@V?$_Tmap_traits@KP8CDPLoginSrvr@@AEXAAVCAr@@@ZU?$less@K@std@@V?$allocator@U?$pair@$$CBKP8CDPLoginSrvr@@AEXAAVCAr@@@Z@std@@@4@$0A@@std@@@std@@QBEABU?$pair@$$CBKP8CDPLoginSrvr@@AEXAAVCAr@@@Z@2@XZ 00422ca0 f i dploginsrvr.obj
 0001:00021cb0       ?_Root@?$_Tree@V?$_Tmap_traits@KP8CDPLoginSrvr@@AEXAAVCAr@@@ZU?$less@K@std@@V?$allocator@U?$pair@$$CBKP8CDPLoginSrvr@@AEXAAVCAr@@@Z@std@@@4@$0A@@std@@@std@@IBEAAPAU_Node@?$_Tree_nod@V?$_Tmap_traits@KP8CDPLoginSrvr@@AEXAAVCAr@@@ZU?$less@K@std@@V?$allocator@U?$pair@$$CBKP8CDPLoginSrvr@@AEXAAVCAr@@@Z@std@@@4@$0A@@std@@@2@XZ 00422cb0 f i dploginsrvr.obj
 0001:00021cc0       ?max_size@?$allocator@U?$pair@$$CBKP8CDPLoginSrvr@@AEXAAVCAr@@@Z@std@@@std@@QBEIXZ 00422cc0 f i dploginsrvr.obj
 0001:00021cd0       ??0_Node@?$_Tree_nod@V?$_Tmap_traits@KP8CDPLoginSrvr@@AEXAAVCAr@@@ZU?$less@K@std@@V?$allocator@U?$pair@$$CBKP8CDPLoginSrvr@@AEXAAVCAr@@@Z@std@@@4@$0A@@std@@@std@@QAE@PAU012@00ABU?$pair@$$CBKP8CDPLoginSrvr@@AEXAAVCAr@@@Z@2@D@Z 00422cd0 f i dploginsrvr.obj
 0001:00021d10       ?_Max@?$_Tree@V?$_Tmap_traits@KP8CDPLoginSrvr@@AEXAAVCAr@@@ZU?$less@K@std@@V?$allocator@U?$pair@$$CBKP8CDPLoginSrvr@@AEXAAVCAr@@@Z@std@@@4@$0A@@std@@@std@@KAPAU_Node@?$_Tree_nod@V?$_Tmap_traits@KP8CDPLoginSrvr@@AEXAAVCAr@@@ZU?$less@K@std@@V?$allocator@U?$pair@$$CBKP8CDPLoginSrvr@@AEXAAVCAr@@@Z@std@@@4@$0A@@std@@@2@PAU342@@Z 00422d10 f i dploginsrvr.obj
 0001:00021d30       ?_Min@?$_Tree@V?$_Tmap_traits@KP8CDPLoginSrvr@@AEXAAVCAr@@@ZU?$less@K@std@@V?$allocator@U?$pair@$$CBKP8CDPLoginSrvr@@AEXAAVCAr@@@Z@std@@@4@$0A@@std@@@std@@KAPAU_Node@?$_Tree_nod@V?$_Tmap_traits@KP8CDPLoginSrvr@@AEXAAVCAr@@@ZU?$less@K@std@@V?$allocator@U?$pair@$$CBKP8CDPLoginSrvr@@AEXAAVCAr@@@Z@std@@@4@$0A@@std@@@2@PAU342@@Z 00422d30 f i dploginsrvr.obj
 0001:00021d50       ??0?$_Tmap_traits@KP8CDPLoginSrvr@@AEXAAVCAr@@@ZU?$less@K@std@@V?$allocator@U?$pair@$$CBKP8CDPLoginSrvr@@AEXAAVCAr@@@Z@std@@@4@$0A@@std@@QAE@U?$less@K@1@@Z 00422d50 f i dploginsrvr.obj
 0001:00021d60       ?_Inc@const_iterator@?$_Tree@V?$_Tmap_traits@KP8CDPLoginSrvr@@AEXAAVCAr@@@ZU?$less@K@std@@V?$allocator@U?$pair@$$CBKP8CDPLoginSrvr@@AEXAAVCAr@@@Z@std@@@4@$0A@@std@@@std@@QAEXXZ 00422d60 f i dploginsrvr.obj
 0001:00021dc0       ??$_Destroy@PAU_Node@?$_Tree_nod@V?$_Tmap_traits@KP8CDPLoginSrvr@@AEXAAVCAr@@@ZU?$less@K@std@@V?$allocator@U?$pair@$$CBKP8CDPLoginSrvr@@AEXAAVCAr@@@Z@std@@@4@$0A@@std@@@std@@@std@@YAXPAPAU_Node@?$_Tree_nod@V?$_Tmap_traits@KP8CDPLoginSrvr@@AEXAAVCAr@@@ZU?$less@K@std@@V?$allocator@U?$pair@$$CBKP8CDPLoginSrvr@@AEXAAVCAr@@@Z@std@@@4@$0A@@std@@@0@@Z 00422dc0 f i dploginsrvr.obj
 0001:00021dd0       ??$?0U?$pair@$$CBKP8CDPLoginSrvr@@AEXAAVCAr@@@Z@std@@@?$allocator@PAU_Node@?$_Tree_nod@V?$_Tmap_traits@KP8CDPLoginSrvr@@AEXAAVCAr@@@ZU?$less@K@std@@V?$allocator@U?$pair@$$CBKP8CDPLoginSrvr@@AEXAAVCAr@@@Z@std@@@4@$0A@@std@@@std@@@std@@QAE@ABV?$allocator@U?$pair@$$CBKP8CDPLoginSrvr@@AEXAAVCAr@@@Z@std@@@1@@Z 00422dd0 f i dploginsrvr.obj
 0001:00021de0       ??$_Allocate@U_Node@?$_Tree_nod@V?$_Tmap_traits@KP8CDPLoginSrvr@@AEXAAVCAr@@@ZU?$less@K@std@@V?$allocator@U?$pair@$$CBKP8CDPLoginSrvr@@AEXAAVCAr@@@Z@std@@@4@$0A@@std@@@std@@@std@@YAPAU_Node@?$_Tree_nod@V?$_Tmap_traits@KP8CDPLoginSrvr@@AEXAAVCAr@@@ZU?$less@K@std@@V?$allocator@U?$pair@$$CBKP8CDPLoginSrvr@@AEXAAVCAr@@@Z@std@@@4@$0A@@std@@@0@IPAU120@@Z 00422de0 f i dploginsrvr.obj
 0001:00021e00       ??$?0U?$pair@$$CBKP8CDPLoginSrvr@@AEXAAVCAr@@@Z@std@@@?$allocator@U_Node@?$_Tree_nod@V?$_Tmap_traits@KP8CDPLoginSrvr@@AEXAAVCAr@@@ZU?$less@K@std@@V?$allocator@U?$pair@$$CBKP8CDPLoginSrvr@@AEXAAVCAr@@@Z@std@@@4@$0A@@std@@@std@@@std@@QAE@ABV?$allocator@U?$pair@$$CBKP8CDPLoginSrvr@@AEXAAVCAr@@@Z@std@@@1@@Z 00422e00 f i dploginsrvr.obj
 0001:00021e10       ??$_Destroy@U_Node@?$_Tree_nod@V?$_Tmap_traits@KP8CDPLoginSrvr@@AEXAAVCAr@@@ZU?$less@K@std@@V?$allocator@U?$pair@$$CBKP8CDPLoginSrvr@@AEXAAVCAr@@@Z@std@@@4@$0A@@std@@@std@@@std@@YAXPAU_Node@?$_Tree_nod@V?$_Tmap_traits@KP8CDPLoginSrvr@@AEXAAVCAr@@@ZU?$less@K@std@@V?$allocator@U?$pair@$$CBKP8CDPLoginSrvr@@AEXAAVCAr@@@Z@std@@@4@$0A@@std@@@0@@Z 00422e10 f i dploginsrvr.obj
 0001:00021e20       ??$_Construct@PAU_Node@?$_Tree_nod@V?$_Tmap_traits@KP8CDPLoginSrvr@@AEXAAVCAr@@@ZU?$less@K@std@@V?$allocator@U?$pair@$$CBKP8CDPLoginSrvr@@AEXAAVCAr@@@Z@std@@@4@$0A@@std@@@std@@PAU123@@std@@YAXPAPAU_Node@?$_Tree_nod@V?$_Tmap_traits@KP8CDPLoginSrvr@@AEXAAVCAr@@@ZU?$less@K@std@@V?$allocator@U?$pair@$$CBKP8CDPLoginSrvr@@AEXAAVCAr@@@Z@std@@@4@$0A@@std@@@0@ABQAU120@@Z 00422e20 f i dploginsrvr.obj
 0001:00021e40       ?SysMessageHandler@CDPLoginSrvr@@UAEXPAUDPMSG_GENERIC@@KK@Z 00422e40 f   dploginsrvr.obj
 0001:00021ea0       ?OnQueryTickCount@CDPLoginSrvr@@AAEXAAVCAr@@@Z 00422ea0 f   dploginsrvr.obj
 0001:00021ff0       ?OnPreJoin@CDPLoginSrvr@@AAEXAAVCAr@@@Z 00422ff0 f   dploginsrvr.obj
 0001:00022230       ?OnLeave@CDPLoginSrvr@@AAEXAAVCAr@@@Z 00423230 f   dploginsrvr.obj
 0001:000222d0       ??9const_iterator@?$_Tree@V?$_Tmap_traits@KP8CDPLoginSrvr@@AEXAAVCAr@@@ZU?$less@K@std@@V?$allocator@U?$pair@$$CBKP8CDPLoginSrvr@@AEXAAVCAr@@@Z@std@@@4@$0A@@std@@@std@@QBE_NABV012@@Z 004232d0 f i dploginsrvr.obj
 0001:000222f0       ?_Key@?$_Tree@V?$_Tmap_traits@KP8CDPLoginSrvr@@AEXAAVCAr@@@ZU?$less@K@std@@V?$allocator@U?$pair@$$CBKP8CDPLoginSrvr@@AEXAAVCAr@@@Z@std@@@4@$0A@@std@@@std@@KAABKPAU_Node@?$_Tree_nod@V?$_Tmap_traits@KP8CDPLoginSrvr@@AEXAAVCAr@@@ZU?$less@K@std@@V?$allocator@U?$pair@$$CBKP8CDPLoginSrvr@@AEXAAVCAr@@@Z@std@@@4@$0A@@std@@@2@@Z 004232f0 f i dploginsrvr.obj
 0001:00022300       ?_Root@?$_Tree@V?$_Tmap_traits@KP8CDPLoginSrvr@@AEXAAVCAr@@@ZU?$less@K@std@@V?$allocator@U?$pair@$$CBKP8CDPLoginSrvr@@AEXAAVCAr@@@Z@std@@@4@$0A@@std@@@std@@IAEAAPAU_Node@?$_Tree_nod@V?$_Tmap_traits@KP8CDPLoginSrvr@@AEXAAVCAr@@@ZU?$less@K@std@@V?$allocator@U?$pair@$$CBKP8CDPLoginSrvr@@AEXAAVCAr@@@Z@std@@@4@$0A@@std@@@2@XZ 00423300 f i dploginsrvr.obj
 0001:00022310       ??0iterator@?$_Tree@V?$_Tmap_traits@KP8CDPLoginSrvr@@AEXAAVCAr@@@ZU?$less@K@std@@V?$allocator@U?$pair@$$CBKP8CDPLoginSrvr@@AEXAAVCAr@@@Z@std@@@4@$0A@@std@@@std@@QAE@PAU_Node@?$_Tree_nod@V?$_Tmap_traits@KP8CDPLoginSrvr@@AEXAAVCAr@@@ZU?$less@K@std@@V?$allocator@U?$pair@$$CBKP8CDPLoginSrvr@@AEXAAVCAr@@@Z@std@@@4@$0A@@std@@@2@@Z 00423310 f i dploginsrvr.obj
 0001:00022320       ??Diterator@?$_Tree@V?$_Tmap_traits@KP8CDPLoginSrvr@@AEXAAVCAr@@@ZU?$less@K@std@@V?$allocator@U?$pair@$$CBKP8CDPLoginSrvr@@AEXAAVCAr@@@Z@std@@@4@$0A@@std@@@std@@QBEAAU?$pair@$$CBKP8CDPLoginSrvr@@AEXAAVCAr@@@Z@2@XZ 00423320 f i dploginsrvr.obj
 0001:00022330       ?max_size@?$_Tree@V?$_Tmap_traits@KP8CDPLoginSrvr@@AEXAAVCAr@@@ZU?$less@K@std@@V?$allocator@U?$pair@$$CBKP8CDPLoginSrvr@@AEXAAVCAr@@@Z@std@@@4@$0A@@std@@@std@@QBEIXZ 00423330 f i dploginsrvr.obj
 0001:00022340       ?_Lbound@?$_Tree@V?$_Tmap_traits@KP8CDPLoginSrvr@@AEXAAVCAr@@@ZU?$less@K@std@@V?$allocator@U?$pair@$$CBKP8CDPLoginSrvr@@AEXAAVCAr@@@Z@std@@@4@$0A@@std@@@std@@IBEPAU_Node@?$_Tree_nod@V?$_Tmap_traits@KP8CDPLoginSrvr@@AEXAAVCAr@@@ZU?$less@K@std@@V?$allocator@U?$pair@$$CBKP8CDPLoginSrvr@@AEXAAVCAr@@@Z@std@@@4@$0A@@std@@@2@ABK@Z 00423340 f i dploginsrvr.obj
 0001:00022370       ?_Lrotate@?$_Tree@V?$_Tmap_traits@KP8CDPLoginSrvr@@AEXAAVCAr@@@ZU?$less@K@std@@V?$allocator@U?$pair@$$CBKP8CDPLoginSrvr@@AEXAAVCAr@@@Z@std@@@4@$0A@@std@@@std@@IAEXPAU_Node@?$_Tree_nod@V?$_Tmap_traits@KP8CDPLoginSrvr@@AEXAAVCAr@@@ZU?$less@K@std@@V?$allocator@U?$pair@$$CBKP8CDPLoginSrvr@@AEXAAVCAr@@@Z@std@@@4@$0A@@std@@@2@@Z 00423370 f i dploginsrvr.obj
 0001:000223d0       ?_Rrotate@?$_Tree@V?$_Tmap_traits@KP8CDPLoginSrvr@@AEXAAVCAr@@@ZU?$less@K@std@@V?$allocator@U?$pair@$$CBKP8CDPLoginSrvr@@AEXAAVCAr@@@Z@std@@@4@$0A@@std@@@std@@IAEXPAU_Node@?$_Tree_nod@V?$_Tmap_traits@KP8CDPLoginSrvr@@AEXAAVCAr@@@ZU?$less@K@std@@V?$allocator@U?$pair@$$CBKP8CDPLoginSrvr@@AEXAAVCAr@@@Z@std@@@4@$0A@@std@@@2@@Z 004233d0 f i dploginsrvr.obj
 0001:00022430       ?destroy@?$allocator@PAU_Node@?$_Tree_nod@V?$_Tmap_traits@KP8CDPLoginSrvr@@AEXAAVCAr@@@ZU?$less@K@std@@V?$allocator@U?$pair@$$CBKP8CDPLoginSrvr@@AEXAAVCAr@@@Z@std@@@4@$0A@@std@@@std@@@std@@QAEXPAPAU_Node@?$_Tree_nod@V?$_Tmap_traits@KP8CDPLoginSrvr@@AEXAAVCAr@@@ZU?$less@K@std@@V?$allocator@U?$pair@$$CBKP8CDPLoginSrvr@@AEXAAVCAr@@@Z@std@@@4@$0A@@std@@@2@@Z 00423430 f i dploginsrvr.obj
 0001:00022440       ?allocate@?$allocator@U_Node@?$_Tree_nod@V?$_Tmap_traits@KP8CDPLoginSrvr@@AEXAAVCAr@@@ZU?$less@K@std@@V?$allocator@U?$pair@$$CBKP8CDPLoginSrvr@@AEXAAVCAr@@@Z@std@@@4@$0A@@std@@@std@@@std@@QAEPAU_Node@?$_Tree_nod@V?$_Tmap_traits@KP8CDPLoginSrvr@@AEXAAVCAr@@@ZU?$less@K@std@@V?$allocator@U?$pair@$$CBKP8CDPLoginSrvr@@AEXAAVCAr@@@Z@std@@@4@$0A@@std@@@2@I@Z 00423440 f i dploginsrvr.obj
 0001:00022460       ?_Dec@const_iterator@?$_Tree@V?$_Tmap_traits@KP8CDPLoginSrvr@@AEXAAVCAr@@@ZU?$less@K@std@@V?$allocator@U?$pair@$$CBKP8CDPLoginSrvr@@AEXAAVCAr@@@Z@std@@@4@$0A@@std@@@std@@QAEXXZ 00423460 f i dploginsrvr.obj
 0001:000224c0       ??0?$_Tree_nod@V?$_Tmap_traits@KP8CDPLoginSrvr@@AEXAAVCAr@@@ZU?$less@K@std@@V?$allocator@U?$pair@$$CBKP8CDPLoginSrvr@@AEXAAVCAr@@@Z@std@@@4@$0A@@std@@@std@@IAE@ABU?$less@K@1@V?$allocator@U?$pair@$$CBKP8CDPLoginSrvr@@AEXAAVCAr@@@Z@std@@@1@@Z 004234c0 f i dploginsrvr.obj
 0001:000224d0       ?destroy@?$allocator@U_Node@?$_Tree_nod@V?$_Tmap_traits@KP8CDPLoginSrvr@@AEXAAVCAr@@@ZU?$less@K@std@@V?$allocator@U?$pair@$$CBKP8CDPLoginSrvr@@AEXAAVCAr@@@Z@std@@@4@$0A@@std@@@std@@@std@@QAEXPAU_Node@?$_Tree_nod@V?$_Tmap_traits@KP8CDPLoginSrvr@@AEXAAVCAr@@@ZU?$less@K@std@@V?$allocator@U?$pair@$$CBKP8CDPLoginSrvr@@AEXAAVCAr@@@Z@std@@@4@$0A@@std@@@2@@Z 004234d0 f i dploginsrvr.obj
 0001:000224e0       ?construct@?$allocator@PAU_Node@?$_Tree_nod@V?$_Tmap_traits@KP8CDPLoginSrvr@@AEXAAVCAr@@@ZU?$less@K@std@@V?$allocator@U?$pair@$$CBKP8CDPLoginSrvr@@AEXAAVCAr@@@Z@std@@@4@$0A@@std@@@std@@@std@@QAEXPAPAU_Node@?$_Tree_nod@V?$_Tmap_traits@KP8CDPLoginSrvr@@AEXAAVCAr@@@ZU?$less@K@std@@V?$allocator@U?$pair@$$CBKP8CDPLoginSrvr@@AEXAAVCAr@@@Z@std@@@4@$0A@@std@@@2@ABQAU342@@Z 004234e0 f i dploginsrvr.obj
 0001:00022500       ??Econst_iterator@?$_Tree@V?$_Tmap_traits@KP8CDPLoginSrvr@@AEXAAVCAr@@@ZU?$less@K@std@@V?$allocator@U?$pair@$$CBKP8CDPLoginSrvr@@AEXAAVCAr@@@Z@std@@@4@$0A@@std@@@std@@QAEAAV012@XZ 00423500 f i dploginsrvr.obj
 0001:00022510       ?end@?$_Tree@V?$_Tmap_traits@KP8CDPLoginSrvr@@AEXAAVCAr@@@ZU?$less@K@std@@V?$allocator@U?$pair@$$CBKP8CDPLoginSrvr@@AEXAAVCAr@@@Z@std@@@4@$0A@@std@@@std@@QAE?AViterator@12@XZ 00423510 f i dploginsrvr.obj
 0001:00022520       ??Citerator@?$_Tree@V?$_Tmap_traits@KP8CDPLoginSrvr@@AEXAAVCAr@@@ZU?$less@K@std@@V?$allocator@U?$pair@$$CBKP8CDPLoginSrvr@@AEXAAVCAr@@@Z@std@@@4@$0A@@std@@@std@@QBEPAU?$pair@$$CBKP8CDPLoginSrvr@@AEXAAVCAr@@@Z@2@XZ 00423520 f i dploginsrvr.obj
 0001:00022530       ?begin@?$_Tree@V?$_Tmap_traits@KP8CDPLoginSrvr@@AEXAAVCAr@@@ZU?$less@K@std@@V?$allocator@U?$pair@$$CBKP8CDPLoginSrvr@@AEXAAVCAr@@@Z@std@@@4@$0A@@std@@@std@@QAE?AViterator@12@XZ 00423530 f i dploginsrvr.obj
 0001:00022540       ?lower_bound@?$_Tree@V?$_Tmap_traits@KP8CDPLoginSrvr@@AEXAAVCAr@@@ZU?$less@K@std@@V?$allocator@U?$pair@$$CBKP8CDPLoginSrvr@@AEXAAVCAr@@@Z@std@@@4@$0A@@std@@@std@@QAE?AViterator@12@ABK@Z 00423540 f i dploginsrvr.obj
 0001:00022580       ?_Buynode@?$_Tree@V?$_Tmap_traits@KP8CDPLoginSrvr@@AEXAAVCAr@@@ZU?$less@K@std@@V?$allocator@U?$pair@$$CBKP8CDPLoginSrvr@@AEXAAVCAr@@@Z@std@@@4@$0A@@std@@@std@@IAEPAU_Node@?$_Tree_nod@V?$_Tmap_traits@KP8CDPLoginSrvr@@AEXAAVCAr@@@ZU?$less@K@std@@V?$allocator@U?$pair@$$CBKP8CDPLoginSrvr@@AEXAAVCAr@@@Z@std@@@4@$0A@@std@@@2@PAU342@00ABU?$pair@$$CBKP8CDPLoginSrvr@@AEXAAVCAr@@@Z@2@D@Z 00423580 f i dploginsrvr.obj
 0001:000225c0       ??Fconst_iterator@?$_Tree@V?$_Tmap_traits@KP8CDPLoginSrvr@@AEXAAVCAr@@@ZU?$less@K@std@@V?$allocator@U?$pair@$$CBKP8CDPLoginSrvr@@AEXAAVCAr@@@Z@std@@@4@$0A@@std@@@std@@QAEAAV012@XZ 004235c0 f i dploginsrvr.obj
 0001:000225d0       ?_Buynode@?$_Tree@V?$_Tmap_traits@KP8CDPLoginSrvr@@AEXAAVCAr@@@ZU?$less@K@std@@V?$allocator@U?$pair@$$CBKP8CDPLoginSrvr@@AEXAAVCAr@@@Z@std@@@4@$0A@@std@@@std@@IAEPAU_Node@?$_Tree_nod@V?$_Tmap_traits@KP8CDPLoginSrvr@@AEXAAVCAr@@@ZU?$less@K@std@@V?$allocator@U?$pair@$$CBKP8CDPLoginSrvr@@AEXAAVCAr@@@Z@std@@@4@$0A@@std@@@2@XZ 004235d0 f i dploginsrvr.obj
 0001:00022610       ??0?$_Tree_ptr@V?$_Tmap_traits@KP8CDPLoginSrvr@@AEXAAVCAr@@@ZU?$less@K@std@@V?$allocator@U?$pair@$$CBKP8CDPLoginSrvr@@AEXAAVCAr@@@Z@std@@@4@$0A@@std@@@std@@IAE@ABU?$less@K@1@V?$allocator@U?$pair@$$CBKP8CDPLoginSrvr@@AEXAAVCAr@@@Z@std@@@1@@Z 00423610 f i dploginsrvr.obj
 0001:00022620       ?_Erase@?$_Tree@V?$_Tmap_traits@KP8CDPLoginSrvr@@AEXAAVCAr@@@ZU?$less@K@std@@V?$allocator@U?$pair@$$CBKP8CDPLoginSrvr@@AEXAAVCAr@@@Z@std@@@4@$0A@@std@@@std@@IAEXPAU_Node@?$_Tree_nod@V?$_Tmap_traits@KP8CDPLoginSrvr@@AEXAAVCAr@@@ZU?$less@K@std@@V?$allocator@U?$pair@$$CBKP8CDPLoginSrvr@@AEXAAVCAr@@@Z@std@@@4@$0A@@std@@@2@@Z 00423620 f i dploginsrvr.obj
 0001:00022660       ??Eiterator@?$_Tree@V?$_Tmap_traits@KP8CDPLoginSrvr@@AEXAAVCAr@@@ZU?$less@K@std@@V?$allocator@U?$pair@$$CBKP8CDPLoginSrvr@@AEXAAVCAr@@@Z@std@@@4@$0A@@std@@@std@@QAEAAV012@XZ 00423660 f i dploginsrvr.obj
 0001:00022670       ?find@?$_Tree@V?$_Tmap_traits@KP8CDPLoginSrvr@@AEXAAVCAr@@@ZU?$less@K@std@@V?$allocator@U?$pair@$$CBKP8CDPLoginSrvr@@AEXAAVCAr@@@Z@std@@@4@$0A@@std@@@std@@QAE?AViterator@12@ABK@Z 00423670 f i dploginsrvr.obj
 0001:000226e0       ??Fiterator@?$_Tree@V?$_Tmap_traits@KP8CDPLoginSrvr@@AEXAAVCAr@@@ZU?$less@K@std@@V?$allocator@U?$pair@$$CBKP8CDPLoginSrvr@@AEXAAVCAr@@@Z@std@@@4@$0A@@std@@@std@@QAEAAV012@XZ 004236e0 f i dploginsrvr.obj
 0001:000226f0       ?_Init@?$_Tree@V?$_Tmap_traits@KP8CDPLoginSrvr@@AEXAAVCAr@@@ZU?$less@K@std@@V?$allocator@U?$pair@$$CBKP8CDPLoginSrvr@@AEXAAVCAr@@@Z@std@@@4@$0A@@std@@@std@@IAEXXZ 004236f0 f i dploginsrvr.obj
 0001:00022720       ??0?$_Tree_val@V?$_Tmap_traits@KP8CDPLoginSrvr@@AEXAAVCAr@@@ZU?$less@K@std@@V?$allocator@U?$pair@$$CBKP8CDPLoginSrvr@@AEXAAVCAr@@@Z@std@@@4@$0A@@std@@@std@@IAE@ABU?$less@K@1@V?$allocator@U?$pair@$$CBKP8CDPLoginSrvr@@AEXAAVCAr@@@Z@std@@@1@@Z 00423720 f i dploginsrvr.obj
 0001:00022730       ?clear@?$_Tree@V?$_Tmap_traits@KP8CDPLoginSrvr@@AEXAAVCAr@@@ZU?$less@K@std@@V?$allocator@U?$pair@$$CBKP8CDPLoginSrvr@@AEXAAVCAr@@@Z@std@@@4@$0A@@std@@@std@@QAEXXZ 00423730 f i dploginsrvr.obj
 0001:00022760       ??Eiterator@?$_Tree@V?$_Tmap_traits@KP8CDPLoginSrvr@@AEXAAVCAr@@@ZU?$less@K@std@@V?$allocator@U?$pair@$$CBKP8CDPLoginSrvr@@AEXAAVCAr@@@Z@std@@@4@$0A@@std@@@std@@QAE?AV012@H@Z 00423760 f i dploginsrvr.obj
 0001:00022780       ?GetHandler@CDPLoginSrvr@@AAEP81@AEXAAVCAr@@@ZK@Z 00423780 f i dploginsrvr.obj
 0001:000227b0       ?UserMessageHandler@CDPLoginSrvr@@UAEXPAUDPMSG_GENERIC@@KK@Z 004237b0 f   dploginsrvr.obj
 0001:00022890       ??0?$_Tree@V?$_Tmap_traits@KP8CDPLoginSrvr@@AEXAAVCAr@@@ZU?$less@K@std@@V?$allocator@U?$pair@$$CBKP8CDPLoginSrvr@@AEXAAVCAr@@@Z@std@@@4@$0A@@std@@@std@@QAE@ABU?$less@K@1@ABV?$allocator@U?$pair@$$CBKP8CDPLoginSrvr@@AEXAAVCAr@@@Z@std@@@1@@Z 00423890 f i dploginsrvr.obj
 0001:000228c0       ?_Insert@?$_Tree@V?$_Tmap_traits@KP8CDPLoginSrvr@@AEXAAVCAr@@@ZU?$less@K@std@@V?$allocator@U?$pair@$$CBKP8CDPLoginSrvr@@AEXAAVCAr@@@Z@std@@@4@$0A@@std@@@std@@IAE?AViterator@12@_NPAU_Node@?$_Tree_nod@V?$_Tmap_traits@KP8CDPLoginSrvr@@AEXAAVCAr@@@ZU?$less@K@std@@V?$allocator@U?$pair@$$CBKP8CDPLoginSrvr@@AEXAAVCAr@@@Z@std@@@4@$0A@@std@@@2@ABU?$pair@$$CBKP8CDPLoginSrvr@@AEXAAVCAr@@@Z@2@@Z 004238c0 f i dploginsrvr.obj
 0001:00022a70       ?erase@?$_Tree@V?$_Tmap_traits@KP8CDPLoginSrvr@@AEXAAVCAr@@@ZU?$less@K@std@@V?$allocator@U?$pair@$$CBKP8CDPLoginSrvr@@AEXAAVCAr@@@Z@std@@@4@$0A@@std@@@std@@QAE?AViterator@12@V312@@Z 00423a70 f i dploginsrvr.obj
 0001:00022d30       ?insert@?$_Tree@V?$_Tmap_traits@KP8CDPLoginSrvr@@AEXAAVCAr@@@ZU?$less@K@std@@V?$allocator@U?$pair@$$CBKP8CDPLoginSrvr@@AEXAAVCAr@@@Z@std@@@4@$0A@@std@@@std@@QAE?AU?$pair@Viterator@?$_Tree@V?$_Tmap_traits@KP8CDPLoginSrvr@@AEXAAVCAr@@@ZU?$less@K@std@@V?$allocator@U?$pair@$$CBKP8CDPLoginSrvr@@AEXAAVCAr@@@Z@std@@@4@$0A@@std@@@std@@_N@2@ABU?$pair@$$CBKP8CDPLoginSrvr@@AEXAAVCAr@@@Z@2@@Z 00423d30 f i dploginsrvr.obj
 0001:00022df0       ?erase@?$_Tree@V?$_Tmap_traits@KP8CDPLoginSrvr@@AEXAAVCAr@@@ZU?$less@K@std@@V?$allocator@U?$pair@$$CBKP8CDPLoginSrvr@@AEXAAVCAr@@@Z@std@@@4@$0A@@std@@@std@@QAE?AViterator@12@V312@0@Z 00423df0 f i dploginsrvr.obj
 0001:00022eb0       ?_Tidy@?$_Tree@V?$_Tmap_traits@KP8CDPLoginSrvr@@AEXAAVCAr@@@ZU?$less@K@std@@V?$allocator@U?$pair@$$CBKP8CDPLoginSrvr@@AEXAAVCAr@@@Z@std@@@4@$0A@@std@@@std@@IAEXXZ 00423eb0 f i dploginsrvr.obj
 0001:00022ee0       ??1?$_Tree@V?$_Tmap_traits@KP8CDPLoginSrvr@@AEXAAVCAr@@@ZU?$less@K@std@@V?$allocator@U?$pair@$$CBKP8CDPLoginSrvr@@AEXAAVCAr@@@Z@std@@@4@$0A@@std@@@std@@QAE@XZ 00423ee0 f i dploginsrvr.obj
 0001:00022f10       ??1?$map@KP8CDPLoginSrvr@@AEXAAVCAr@@@ZU?$less@K@std@@V?$allocator@U?$pair@$$CBKP8CDPLoginSrvr@@AEXAAVCAr@@@Z@std@@@4@@std@@QAE@XZ 00423f10 f i dploginsrvr.obj
 0001:00022f40       ??1CDPLoginSrvr@@UAE@XZ    00423f40 f   dploginsrvr.obj
 0001:00022fc0       ??0?$map@KP8CDPLoginSrvr@@AEXAAVCAr@@@ZU?$less@K@std@@V?$allocator@U?$pair@$$CBKP8CDPLoginSrvr@@AEXAAVCAr@@@Z@std@@@4@@std@@QAE@XZ 00423fc0 f i dploginsrvr.obj
 0001:00022ff0       ??0CDPLoginSrvr@@QAE@XZ    00423ff0 f   dploginsrvr.obj
 0001:000230d0       ??_GCDPLoginSrvr@@UAEPAXI@Z 004240d0 f i dploginsrvr.obj
 0001:000230d0       ??_ECDPLoginSrvr@@UAEPAXI@Z 004240d0 f i dploginsrvr.obj
 0001:000230f0       ??0CTime@ATL@@QAE@XZ       004240f0 f i Player.obj
 0001:00023100       ?IsTagSendable@CPlayer@@QAE?AW4TAG_RESULT@@K@Z 00424100 f   Player.obj
 0001:00023130       ?AddCache@CPlayerMng@@QAEHK@Z 00424130 f   Player.obj
 0001:00023140       ?GetCount@CPlayerMng@@QAEKXZ 00424140 f   Player.obj
 0001:00023150       ?Free@?$MemPooler@VCPlayer@@@@QAEHPAVCPlayer@@@Z 00424150 f i Player.obj
 0001:000231a0       ??0?$pair@$$CBKPAVCPlayer@@@std@@QAE@ABKABQAVCPlayer@@@Z 004241a0 f i Player.obj
 0001:000231c0       ?_Isnil@?$_Tree@V?$_Tmap_traits@KPAVCPlayer@@U?$less@K@std@@V?$allocator@U?$pair@$$CBKPAVCPlayer@@@std@@@3@$0A@@std@@@std@@KAAADPAU_Node@?$_Tree_nod@V?$_Tmap_traits@KPAVCPlayer@@U?$less@K@std@@V?$allocator@U?$pair@$$CBKPAVCPlayer@@@std@@@3@$0A@@std@@@2@@Z 004241c0 f i Player.obj
 0001:000231d0       ?_Left@?$_Tree@V?$_Tmap_traits@KPAVCPlayer@@U?$less@K@std@@V?$allocator@U?$pair@$$CBKPAVCPlayer@@@std@@@3@$0A@@std@@@std@@KAAAPAU_Node@?$_Tree_nod@V?$_Tmap_traits@KPAVCPlayer@@U?$less@K@std@@V?$allocator@U?$pair@$$CBKPAVCPlayer@@@std@@@3@$0A@@std@@@2@PAU342@@Z 004241d0 f i Player.obj
 0001:000231e0       ?_Right@?$_Tree@V?$_Tmap_traits@KPAVCPlayer@@U?$less@K@std@@V?$allocator@U?$pair@$$CBKPAVCPlayer@@@std@@@3@$0A@@std@@@std@@KAAAPAU_Node@?$_Tree_nod@V?$_Tmap_traits@KPAVCPlayer@@U?$less@K@std@@V?$allocator@U?$pair@$$CBKPAVCPlayer@@@std@@@3@$0A@@std@@@2@PAU342@@Z 004241e0 f i Player.obj
 0001:000231f0       ?_Lmost@?$_Tree@V?$_Tmap_traits@KPAVCPlayer@@U?$less@K@std@@V?$allocator@U?$pair@$$CBKPAVCPlayer@@@std@@@3@$0A@@std@@@std@@IAEAAPAU_Node@?$_Tree_nod@V?$_Tmap_traits@KPAVCPlayer@@U?$less@K@std@@V?$allocator@U?$pair@$$CBKPAVCPlayer@@@std@@@3@$0A@@std@@@2@XZ 004241f0 f i Player.obj
 0001:00023200       ?_Rmost@?$_Tree@V?$_Tmap_traits@KPAVCPlayer@@U?$less@K@std@@V?$allocator@U?$pair@$$CBKPAVCPlayer@@@std@@@3@$0A@@std@@@std@@IAEAAPAU_Node@?$_Tree_nod@V?$_Tmap_traits@KPAVCPlayer@@U?$less@K@std@@V?$allocator@U?$pair@$$CBKPAVCPlayer@@@std@@@3@$0A@@std@@@2@XZ 00424200 f i Player.obj
 0001:00023210       ?_Kfn@?$_Tmap_traits@KPAVCPlayer@@U?$less@K@std@@V?$allocator@U?$pair@$$CBKPAVCPlayer@@@std@@@3@$0A@@std@@SAABKABU?$pair@$$CBKPAVCPlayer@@@2@@Z 00424210 f i Player.obj
 0001:00023220       ??0?$allocator@U?$pair@$$CBKPAVCPlayer@@@std@@@std@@QAE@XZ 00424220 f i Player.obj
 0001:00023230       ?_Kfn@?$_Tset_traits@KU?$less@K@std@@V?$allocator@K@2@$0A@@std@@SAABKABK@Z 00424230 f i Player.obj
 0001:00023240       ??0const_iterator@?$_Tree@V?$_Tmap_traits@KPAVCPlayer@@U?$less@K@std@@V?$allocator@U?$pair@$$CBKPAVCPlayer@@@std@@@3@$0A@@std@@@std@@QAE@XZ 00424240 f i Player.obj
 0001:00023250       ??8const_iterator@?$_Tree@V?$_Tmap_traits@KPAVCPlayer@@U?$less@K@std@@V?$allocator@U?$pair@$$CBKPAVCPlayer@@@std@@@3@$0A@@std@@@std@@QBE_NABV012@@Z 00424250 f i Player.obj
 0001:00023260       ?_Mynode@const_iterator@?$_Tree@V?$_Tmap_traits@KPAVCPlayer@@U?$less@K@std@@V?$allocator@U?$pair@$$CBKPAVCPlayer@@@std@@@3@$0A@@std@@@std@@QBEPAU_Node@?$_Tree_nod@V?$_Tmap_traits@KPAVCPlayer@@U?$less@K@std@@V?$allocator@U?$pair@$$CBKPAVCPlayer@@@std@@@3@$0A@@std@@@3@XZ 00424260 f i Player.obj
 0001:00023270       ??0?$pair@Viterator@?$_Tree@V?$_Tmap_traits@KPAVCPlayer@@U?$less@K@std@@V?$allocator@U?$pair@$$CBKPAVCPlayer@@@std@@@3@$0A@@std@@@std@@_N@std@@QAE@ABViterator@?$_Tree@V?$_Tmap_traits@KPAVCPlayer@@U?$less@K@std@@V?$allocator@U?$pair@$$CBKPAVCPlayer@@@std@@@3@$0A@@std@@@1@AB_N@Z 00424270 f i Player.obj
 0001:00023290       ?_Mynode@const_iterator@?$_Tree@V?$_Tset_traits@KU?$less@K@std@@V?$allocator@K@2@$0A@@std@@@std@@QBEPAU_Node@?$_Tree_nod@V?$_Tset_traits@KU?$less@K@std@@V?$allocator@K@2@$0A@@std@@@3@XZ 00424290 f i Player.obj
 0001:000232a0       ??0?$pair@Viterator@?$_Tree@V?$_Tset_traits@KU?$less@K@std@@V?$allocator@K@2@$0A@@std@@@std@@_N@std@@QAE@ABViterator@?$_Tree@V?$_Tset_traits@KU?$less@K@std@@V?$allocator@K@2@$0A@@std@@@1@AB_N@Z 004242a0 f i Player.obj
 0001:000232c0       ??0?$allocator@PAX@std@@QAE@XZ 004242c0 f i Player.obj
 0001:000232d0       ?_Color@?$_Tree@V?$_Tmap_traits@KPAVCPlayer@@U?$less@K@std@@V?$allocator@U?$pair@$$CBKPAVCPlayer@@@std@@@3@$0A@@std@@@std@@KAAADPAU_Node@?$_Tree_nod@V?$_Tmap_traits@KPAVCPlayer@@U?$less@K@std@@V?$allocator@U?$pair@$$CBKPAVCPlayer@@@std@@@3@$0A@@std@@@2@@Z 004242d0 f i Player.obj
 0001:000232e0       ?_Parent@?$_Tree@V?$_Tmap_traits@KPAVCPlayer@@U?$less@K@std@@V?$allocator@U?$pair@$$CBKPAVCPlayer@@@std@@@3@$0A@@std@@@std@@KAAAPAU_Node@?$_Tree_nod@V?$_Tmap_traits@KPAVCPlayer@@U?$less@K@std@@V?$allocator@U?$pair@$$CBKPAVCPlayer@@@std@@@3@$0A@@std@@@2@PAU342@@Z 004242e0 f i Player.obj
 0001:000232f0       ?_Myval@?$_Tree@V?$_Tmap_traits@KPAVCPlayer@@U?$less@K@std@@V?$allocator@U?$pair@$$CBKPAVCPlayer@@@std@@@3@$0A@@std@@@std@@KAAAU?$pair@$$CBKPAVCPlayer@@@2@PAU_Node@?$_Tree_nod@V?$_Tmap_traits@KPAVCPlayer@@U?$less@K@std@@V?$allocator@U?$pair@$$CBKPAVCPlayer@@@std@@@3@$0A@@std@@@2@@Z 004242f0 f i Player.obj
 0001:00023300       ??0?$allocator@U?$pair@$$CBKPAVCPlayer@@@std@@@std@@QAE@ABV01@@Z 00424300 f i Player.obj
 0001:00023310       ?deallocate@?$allocator@U_Node@?$_Tree_nod@V?$_Tmap_traits@KPAVCPlayer@@U?$less@K@std@@V?$allocator@U?$pair@$$CBKPAVCPlayer@@@std@@@3@$0A@@std@@@std@@@std@@QAEXPAU_Node@?$_Tree_nod@V?$_Tmap_traits@KPAVCPlayer@@U?$less@K@std@@V?$allocator@U?$pair@$$CBKPAVCPlayer@@@std@@@3@$0A@@std@@@2@I@Z 00424310 f i Player.obj
 0001:00023320       ?_Color@?$_Tree@V?$_Tset_traits@KU?$less@K@std@@V?$allocator@K@2@$0A@@std@@@std@@KAAADPAU_Node@?$_Tree_nod@V?$_Tset_traits@KU?$less@K@std@@V?$allocator@K@2@$0A@@std@@@2@@Z 00424320 f i Player.obj
 0001:00023330       ?_Rmost@?$_Tree@V?$_Tset_traits@KU?$less@K@std@@V?$allocator@K@2@$0A@@std@@@std@@IAEAAPAU_Node@?$_Tree_nod@V?$_Tset_traits@KU?$less@K@std@@V?$allocator@K@2@$0A@@std@@@2@XZ 00424330 f i Player.obj
 0001:00023340       ?deallocate@?$allocator@U_Node@?$_Tree_nod@V?$_Tset_traits@KU?$less@K@std@@V?$allocator@K@2@$0A@@std@@@std@@@std@@QAEXPAU_Node@?$_Tree_nod@V?$_Tset_traits@KU?$less@K@std@@V?$allocator@K@2@$0A@@std@@@2@I@Z 00424340 f i Player.obj
 0001:00023350       ??0const_iterator@?$_Tree@V?$_Tmap_traits@KPAVCPlayer@@U?$less@K@std@@V?$allocator@U?$pair@$$CBKPAVCPlayer@@@std@@@3@$0A@@std@@@std@@QAE@PAU_Node@?$_Tree_nod@V?$_Tmap_traits@KPAVCPlayer@@U?$less@K@std@@V?$allocator@U?$pair@$$CBKPAVCPlayer@@@std@@@3@$0A@@std@@@2@@Z 00424350 f i Player.obj
 0001:00023360       ??Dconst_iterator@?$_Tree@V?$_Tmap_traits@KPAVCPlayer@@U?$less@K@std@@V?$allocator@U?$pair@$$CBKPAVCPlayer@@@std@@@3@$0A@@std@@@std@@QBEABU?$pair@$$CBKPAVCPlayer@@@2@XZ 00424360 f i Player.obj
 0001:00023370       ??0?$pair@Viterator@?$_Tree@V?$_Tmap_traits@KPAVCPlayer@@U?$less@K@std@@V?$allocator@U?$pair@$$CBKPAVCPlayer@@@std@@@3@$0A@@std@@@std@@V123@@std@@QAE@ABViterator@?$_Tree@V?$_Tmap_traits@KPAVCPlayer@@U?$less@K@std@@V?$allocator@U?$pair@$$CBKPAVCPlayer@@@std@@@3@$0A@@std@@@1@0@Z 00424370 f i Player.obj
 0001:00023390       ??0?$pair@Viterator@?$_Tree@V?$_Tset_traits@KU?$less@K@std@@V?$allocator@K@2@$0A@@std@@@std@@V123@@std@@QAE@ABViterator@?$_Tree@V?$_Tset_traits@KU?$less@K@std@@V?$allocator@K@2@$0A@@std@@@1@0@Z 00424390 f i Player.obj
 0001:000233b0       ??0?$allocator@PAX@std@@QAE@ABV01@@Z 004243b0 f i Player.obj
 0001:000233c0       ?_Max@?$_Tree@V?$_Tmap_traits@KPAVCPlayer@@U?$less@K@std@@V?$allocator@U?$pair@$$CBKPAVCPlayer@@@std@@@3@$0A@@std@@@std@@KAPAU_Node@?$_Tree_nod@V?$_Tmap_traits@KPAVCPlayer@@U?$less@K@std@@V?$allocator@U?$pair@$$CBKPAVCPlayer@@@std@@@3@$0A@@std@@@2@PAU342@@Z 004243c0 f i Player.obj
 0001:000233e0       ?_Min@?$_Tree@V?$_Tmap_traits@KPAVCPlayer@@U?$less@K@std@@V?$allocator@U?$pair@$$CBKPAVCPlayer@@@std@@@3@$0A@@std@@@std@@KAPAU_Node@?$_Tree_nod@V?$_Tmap_traits@KPAVCPlayer@@U?$less@K@std@@V?$allocator@U?$pair@$$CBKPAVCPlayer@@@std@@@3@$0A@@std@@@2@PAU342@@Z 004243e0 f i Player.obj
 0001:00023400       ?_Root@?$_Tree@V?$_Tmap_traits@KPAVCPlayer@@U?$less@K@std@@V?$allocator@U?$pair@$$CBKPAVCPlayer@@@std@@@3@$0A@@std@@@std@@IBEAAPAU_Node@?$_Tree_nod@V?$_Tmap_traits@KPAVCPlayer@@U?$less@K@std@@V?$allocator@U?$pair@$$CBKPAVCPlayer@@@std@@@3@$0A@@std@@@2@XZ 00424400 f i Player.obj
 0001:00023410       ?max_size@?$allocator@U?$pair@$$CBKPAVCPlayer@@@std@@@std@@QBEIXZ 00424410 f i Player.obj
 0001:00023420       ?_Max@?$_Tree@V?$_Tset_traits@KU?$less@K@std@@V?$allocator@K@2@$0A@@std@@@std@@KAPAU_Node@?$_Tree_nod@V?$_Tset_traits@KU?$less@K@std@@V?$allocator@K@2@$0A@@std@@@2@PAU342@@Z 00424420 f i Player.obj
 0001:00023440       ?_Root@?$_Tree@V?$_Tset_traits@KU?$less@K@std@@V?$allocator@K@2@$0A@@std@@@std@@IBEAAPAU_Node@?$_Tree_nod@V?$_Tset_traits@KU?$less@K@std@@V?$allocator@K@2@$0A@@std@@@2@XZ 00424440 f i Player.obj
 0001:00023450       ?_Dec@const_iterator@?$_Tree@V?$_Tmap_traits@KPAVCPlayer@@U?$less@K@std@@V?$allocator@U?$pair@$$CBKPAVCPlayer@@@std@@@3@$0A@@std@@@std@@QAEXXZ 00424450 f i Player.obj
 0001:000234b0       ?_Dec@const_iterator@?$_Tree@V?$_Tset_traits@KU?$less@K@std@@V?$allocator@K@2@$0A@@std@@@std@@QAEXXZ 004244b0 f i Player.obj
 0001:00023510       ??0_Node@?$_Tree_nod@V?$_Tmap_traits@KPAVCPlayer@@U?$less@K@std@@V?$allocator@U?$pair@$$CBKPAVCPlayer@@@std@@@3@$0A@@std@@@std@@QAE@PAU012@00ABU?$pair@$$CBKPAVCPlayer@@@2@D@Z 00424510 f i Player.obj
 0001:00023550       ??0_Node@?$_Tree_nod@V?$_Tset_traits@KU?$less@K@std@@V?$allocator@K@2@$0A@@std@@@std@@QAE@PAU012@00ABKD@Z 00424550 f i Player.obj
 0001:00023580       ??0?$_Tmap_traits@KPAVCPlayer@@U?$less@K@std@@V?$allocator@U?$pair@$$CBKPAVCPlayer@@@std@@@3@$0A@@std@@QAE@U?$less@K@1@@Z 00424580 f i Player.obj
 0001:00023590       ??0?$_Tset_traits@KU?$less@K@std@@V?$allocator@K@2@$0A@@std@@QAE@U?$less@K@1@@Z 00424590 f i Player.obj
 0001:000235a0       ??$?0KPAVCPlayer@@@?$pair@$$CBKPAVCPlayer@@@std@@QAE@ABU?$pair@KPAVCPlayer@@@1@@Z 004245a0 f i Player.obj
 0001:000235c0       ??$_Destroy@U_Node@?$_Tree_nod@V?$_Tmap_traits@KPAVCPlayer@@U?$less@K@std@@V?$allocator@U?$pair@$$CBKPAVCPlayer@@@std@@@3@$0A@@std@@@std@@@std@@YAXPAU_Node@?$_Tree_nod@V?$_Tmap_traits@KPAVCPlayer@@U?$less@K@std@@V?$allocator@U?$pair@$$CBKPAVCPlayer@@@std@@@3@$0A@@std@@@0@@Z 004245c0 f i Player.obj
 0001:000235d0       ??$_Destroy@PAU_Node@?$_Tree_nod@V?$_Tmap_traits@KPAVCPlayer@@U?$less@K@std@@V?$allocator@U?$pair@$$CBKPAVCPlayer@@@std@@@3@$0A@@std@@@std@@@std@@YAXPAPAU_Node@?$_Tree_nod@V?$_Tmap_traits@KPAVCPlayer@@U?$less@K@std@@V?$allocator@U?$pair@$$CBKPAVCPlayer@@@std@@@3@$0A@@std@@@0@@Z 004245d0 f i Player.obj
 0001:000235e0       ??$_Destroy@PAU_Node@?$_Tree_nod@V?$_Tset_traits@KU?$less@K@std@@V?$allocator@K@2@$0A@@std@@@std@@@std@@YAXPAPAU_Node@?$_Tree_nod@V?$_Tset_traits@KU?$less@K@std@@V?$allocator@K@2@$0A@@std@@@0@@Z 004245e0 f i Player.obj
 0001:000235f0       ??$?0PAX@?$allocator@PAU_Node@?$_List_nod@PAXV?$allocator@PAX@std@@@std@@@std@@QAE@ABV?$allocator@PAX@1@@Z 004245f0 f i Player.obj
 0001:00023600       ??$_Construct@PAU_Node@?$_List_nod@PAXV?$allocator@PAX@std@@@std@@PAU123@@std@@YAXPAPAU_Node@?$_List_nod@PAXV?$allocator@PAX@std@@@0@ABQAU120@@Z 00424600 f i Player.obj
 0001:00023620       ??$?0U?$pair@$$CBKPAVCPlayer@@@std@@@?$allocator@PAU_Node@?$_Tree_nod@V?$_Tmap_traits@KPAVCPlayer@@U?$less@K@std@@V?$allocator@U?$pair@$$CBKPAVCPlayer@@@std@@@3@$0A@@std@@@std@@@std@@QAE@ABV?$allocator@U?$pair@$$CBKPAVCPlayer@@@std@@@1@@Z 00424620 f i Player.obj
 0001:00023630       ??$_Allocate@U_Node@?$_Tree_nod@V?$_Tmap_traits@KPAVCPlayer@@U?$less@K@std@@V?$allocator@U?$pair@$$CBKPAVCPlayer@@@std@@@3@$0A@@std@@@std@@@std@@YAPAU_Node@?$_Tree_nod@V?$_Tmap_traits@KPAVCPlayer@@U?$less@K@std@@V?$allocator@U?$pair@$$CBKPAVCPlayer@@@std@@@3@$0A@@std@@@0@IPAU120@@Z 00424630 f i Player.obj
 0001:00023650       ??$?0K@?$allocator@PAU_Node@?$_Tree_nod@V?$_Tset_traits@KU?$less@K@std@@V?$allocator@K@2@$0A@@std@@@std@@@std@@QAE@ABV?$allocator@K@1@@Z 00424650 f i Player.obj
 0001:00023660       ??$_Allocate@U_Node@?$_Tree_nod@V?$_Tset_traits@KU?$less@K@std@@V?$allocator@K@2@$0A@@std@@@std@@@std@@YAPAU_Node@?$_Tree_nod@V?$_Tset_traits@KU?$less@K@std@@V?$allocator@K@2@$0A@@std@@@0@IPAU120@@Z 00424660 f i Player.obj
 0001:00023680       ??$_Destroy@U_Node@?$_Tree_nod@V?$_Tset_traits@KU?$less@K@std@@V?$allocator@K@2@$0A@@std@@@std@@@std@@YAXPAU_Node@?$_Tree_nod@V?$_Tset_traits@KU?$less@K@std@@V?$allocator@K@2@$0A@@std@@@0@@Z 00424680 f i Player.obj
 0001:00023690       ??$?0PAX@?$allocator@U_Node@?$_List_nod@PAXV?$allocator@PAX@std@@@std@@@std@@QAE@ABV?$allocator@PAX@1@@Z 00424690 f i Player.obj
 0001:000236a0       ??$?0U?$pair@$$CBKPAVCPlayer@@@std@@@?$allocator@U_Node@?$_Tree_nod@V?$_Tmap_traits@KPAVCPlayer@@U?$less@K@std@@V?$allocator@U?$pair@$$CBKPAVCPlayer@@@std@@@3@$0A@@std@@@std@@@std@@QAE@ABV?$allocator@U?$pair@$$CBKPAVCPlayer@@@std@@@1@@Z 004246a0 f i Player.obj
 0001:000236b0       ??$_Construct@PAU_Node@?$_Tree_nod@V?$_Tmap_traits@KPAVCPlayer@@U?$less@K@std@@V?$allocator@U?$pair@$$CBKPAVCPlayer@@@std@@@3@$0A@@std@@@std@@PAU123@@std@@YAXPAPAU_Node@?$_Tree_nod@V?$_Tmap_traits@KPAVCPlayer@@U?$less@K@std@@V?$allocator@U?$pair@$$CBKPAVCPlayer@@@std@@@3@$0A@@std@@@0@ABQAU120@@Z 004246b0 f i Player.obj
 0001:000236d0       ??$?0K@?$allocator@U_Node@?$_Tree_nod@V?$_Tset_traits@KU?$less@K@std@@V?$allocator@K@2@$0A@@std@@@std@@@std@@QAE@ABV?$allocator@K@1@@Z 004246d0 f i Player.obj
 0001:000236e0       ??$_Construct@PAU_Node@?$_Tree_nod@V?$_Tset_traits@KU?$less@K@std@@V?$allocator@K@2@$0A@@std@@@std@@PAU123@@std@@YAXPAPAU_Node@?$_Tree_nod@V?$_Tset_traits@KU?$less@K@std@@V?$allocator@K@2@$0A@@std@@@0@ABQAU120@@Z 004246e0 f i Player.obj
 0001:00023700       ??0?$pair@KPAVCPlayer@@@std@@QAE@ABKABQAVCPlayer@@@Z 00424700 f i Player.obj
 0001:00023720       ??$_Iter_cat@Viterator@?$_Tree@V?$_Tmap_traits@KPAVCPlayer@@U?$less@K@std@@V?$allocator@U?$pair@$$CBKPAVCPlayer@@@std@@@3@$0A@@std@@@std@@@std@@YA?AUbidirectional_iterator_tag@0@ABViterator@?$_Tree@V?$_Tmap_traits@KPAVCPlayer@@U?$less@K@std@@V?$allocator@U?$pair@$$CBKPAVCPlayer@@@std@@@3@$0A@@std@@@0@@Z 00424720 f i Player.obj
 0001:00023730       ??$_Iter_cat@Viterator@?$_Tree@V?$_Tset_traits@KU?$less@K@std@@V?$allocator@K@2@$0A@@std@@@std@@@std@@YA?AUbidirectional_iterator_tag@0@ABViterator@?$_Tree@V?$_Tset_traits@KU?$less@K@std@@V?$allocator@K@2@$0A@@std@@@0@@Z 00424730 f i Player.obj
 0001:00023740       ??3CPlayer@@SAXPAX@Z       00424740 f i Player.obj
 0001:00023780       ??0CPlayer@@QAE@KPBD0@Z    00424780 f   Player.obj
 0001:00023860       ??1CPlayer@@UAE@XZ         00424860 f   Player.obj
 0001:000238c0       ??0iterator@?$_Tree@V?$_Tmap_traits@KPAVCPlayer@@U?$less@K@std@@V?$allocator@U?$pair@$$CBKPAVCPlayer@@@std@@@3@$0A@@std@@@std@@QAE@XZ 004248c0 f i Player.obj
 0001:000238d0       ??9const_iterator@?$_Tree@V?$_Tmap_traits@KPAVCPlayer@@U?$less@K@std@@V?$allocator@U?$pair@$$CBKPAVCPlayer@@@std@@@3@$0A@@std@@@std@@QBE_NABV012@@Z 004248d0 f i Player.obj
 0001:000238f0       ?_Key@?$_Tree@V?$_Tmap_traits@KPAVCPlayer@@U?$less@K@std@@V?$allocator@U?$pair@$$CBKPAVCPlayer@@@std@@@3@$0A@@std@@@std@@KAABKPAU_Node@?$_Tree_nod@V?$_Tmap_traits@KPAVCPlayer@@U?$less@K@std@@V?$allocator@U?$pair@$$CBKPAVCPlayer@@@std@@@3@$0A@@std@@@2@@Z 004248f0 f i Player.obj
 0001:00023900       ?_Root@?$_Tree@V?$_Tmap_traits@KPAVCPlayer@@U?$less@K@std@@V?$allocator@U?$pair@$$CBKPAVCPlayer@@@std@@@3@$0A@@std@@@std@@IAEAAPAU_Node@?$_Tree_nod@V?$_Tmap_traits@KPAVCPlayer@@U?$less@K@std@@V?$allocator@U?$pair@$$CBKPAVCPlayer@@@std@@@3@$0A@@std@@@2@XZ 00424900 f i Player.obj
 0001:00023910       ?_Key@?$_Tree@V?$_Tset_traits@KU?$less@K@std@@V?$allocator@K@2@$0A@@std@@@std@@KAABKPAU_Node@?$_Tree_nod@V?$_Tset_traits@KU?$less@K@std@@V?$allocator@K@2@$0A@@std@@@2@@Z 00424910 f i Player.obj
 0001:00023920       ?_Root@?$_Tree@V?$_Tset_traits@KU?$less@K@std@@V?$allocator@K@2@$0A@@std@@@std@@IAEAAPAU_Node@?$_Tree_nod@V?$_Tset_traits@KU?$less@K@std@@V?$allocator@K@2@$0A@@std@@@2@XZ 00424920 f i Player.obj
 0001:00023930       ??0iterator@?$_Tree@V?$_Tmap_traits@KPAVCPlayer@@U?$less@K@std@@V?$allocator@U?$pair@$$CBKPAVCPlayer@@@std@@@3@$0A@@std@@@std@@QAE@PAU_Node@?$_Tree_nod@V?$_Tmap_traits@KPAVCPlayer@@U?$less@K@std@@V?$allocator@U?$pair@$$CBKPAVCPlayer@@@std@@@3@$0A@@std@@@2@@Z 00424930 f i Player.obj
 0001:00023940       ??Diterator@?$_Tree@V?$_Tmap_traits@KPAVCPlayer@@U?$less@K@std@@V?$allocator@U?$pair@$$CBKPAVCPlayer@@@std@@@3@$0A@@std@@@std@@QBEAAU?$pair@$$CBKPAVCPlayer@@@2@XZ 00424940 f i Player.obj
 0001:00023950       ?max_size@?$_Tree@V?$_Tmap_traits@KPAVCPlayer@@U?$less@K@std@@V?$allocator@U?$pair@$$CBKPAVCPlayer@@@std@@@3@$0A@@std@@@std@@QBEIXZ 00424950 f i Player.obj
 0001:00023960       ?_Lbound@?$_Tree@V?$_Tmap_traits@KPAVCPlayer@@U?$less@K@std@@V?$allocator@U?$pair@$$CBKPAVCPlayer@@@std@@@3@$0A@@std@@@std@@IBEPAU_Node@?$_Tree_nod@V?$_Tmap_traits@KPAVCPlayer@@U?$less@K@std@@V?$allocator@U?$pair@$$CBKPAVCPlayer@@@std@@@3@$0A@@std@@@2@ABK@Z 00424960 f i Player.obj
 0001:00023990       ?_Lrotate@?$_Tree@V?$_Tmap_traits@KPAVCPlayer@@U?$less@K@std@@V?$allocator@U?$pair@$$CBKPAVCPlayer@@@std@@@3@$0A@@std@@@std@@IAEXPAU_Node@?$_Tree_nod@V?$_Tmap_traits@KPAVCPlayer@@U?$less@K@std@@V?$allocator@U?$pair@$$CBKPAVCPlayer@@@std@@@3@$0A@@std@@@2@@Z 00424990 f i Player.obj
 0001:000239f0       ?_Rrotate@?$_Tree@V?$_Tmap_traits@KPAVCPlayer@@U?$less@K@std@@V?$allocator@U?$pair@$$CBKPAVCPlayer@@@std@@@3@$0A@@std@@@std@@IAEXPAU_Node@?$_Tree_nod@V?$_Tmap_traits@KPAVCPlayer@@U?$less@K@std@@V?$allocator@U?$pair@$$CBKPAVCPlayer@@@std@@@3@$0A@@std@@@2@@Z 004249f0 f i Player.obj
 0001:00023a50       ?destroy@?$allocator@U_Node@?$_Tree_nod@V?$_Tmap_traits@KPAVCPlayer@@U?$less@K@std@@V?$allocator@U?$pair@$$CBKPAVCPlayer@@@std@@@3@$0A@@std@@@std@@@std@@QAEXPAU_Node@?$_Tree_nod@V?$_Tmap_traits@KPAVCPlayer@@U?$less@K@std@@V?$allocator@U?$pair@$$CBKPAVCPlayer@@@std@@@3@$0A@@std@@@2@@Z 00424a50 f i Player.obj
 0001:00023a60       ?destroy@?$allocator@PAU_Node@?$_Tree_nod@V?$_Tmap_traits@KPAVCPlayer@@U?$less@K@std@@V?$allocator@U?$pair@$$CBKPAVCPlayer@@@std@@@3@$0A@@std@@@std@@@std@@QAEXPAPAU_Node@?$_Tree_nod@V?$_Tmap_traits@KPAVCPlayer@@U?$less@K@std@@V?$allocator@U?$pair@$$CBKPAVCPlayer@@@std@@@3@$0A@@std@@@2@@Z 00424a60 f i Player.obj
 0001:00023a70       ?max_size@?$_Tree@V?$_Tset_traits@KU?$less@K@std@@V?$allocator@K@2@$0A@@std@@@std@@QBEIXZ 00424a70 f i Player.obj
 0001:00023a80       ?_Lbound@?$_Tree@V?$_Tset_traits@KU?$less@K@std@@V?$allocator@K@2@$0A@@std@@@std@@IBEPAU_Node@?$_Tree_nod@V?$_Tset_traits@KU?$less@K@std@@V?$allocator@K@2@$0A@@std@@@2@ABK@Z 00424a80 f i Player.obj
 0001:00023ab0       ?_Lrotate@?$_Tree@V?$_Tset_traits@KU?$less@K@std@@V?$allocator@K@2@$0A@@std@@@std@@IAEXPAU_Node@?$_Tree_nod@V?$_Tset_traits@KU?$less@K@std@@V?$allocator@K@2@$0A@@std@@@2@@Z 00424ab0 f i Player.obj
 0001:00023b10       ?_Rrotate@?$_Tree@V?$_Tset_traits@KU?$less@K@std@@V?$allocator@K@2@$0A@@std@@@std@@IAEXPAU_Node@?$_Tree_nod@V?$_Tset_traits@KU?$less@K@std@@V?$allocator@K@2@$0A@@std@@@2@@Z 00424b10 f i Player.obj
 0001:00023b70       ?destroy@?$allocator@PAU_Node@?$_Tree_nod@V?$_Tset_traits@KU?$less@K@std@@V?$allocator@K@2@$0A@@std@@@std@@@std@@QAEXPAPAU_Node@?$_Tree_nod@V?$_Tset_traits@KU?$less@K@std@@V?$allocator@K@2@$0A@@std@@@2@@Z 00424b70 f i Player.obj
 0001:00023b80       ??Fconst_iterator@?$_Tree@V?$_Tmap_traits@KPAVCPlayer@@U?$less@K@std@@V?$allocator@U?$pair@$$CBKPAVCPlayer@@@std@@@3@$0A@@std@@@std@@QAEAAV012@XZ 00424b80 f i Player.obj
 0001:00023b90       ?_Inc@const_iterator@?$_Tree@V?$_Tmap_traits@KPAVCPlayer@@U?$less@K@std@@V?$allocator@U?$pair@$$CBKPAVCPlayer@@@std@@@3@$0A@@std@@@std@@QAEXXZ 00424b90 f i Player.obj
 0001:00023bf0       ??Fconst_iterator@?$_Tree@V?$_Tset_traits@KU?$less@K@std@@V?$allocator@K@2@$0A@@std@@@std@@QAEAAV012@XZ 00424bf0 f i Player.obj
 0001:00023c00       ?construct@?$allocator@PAU_Node@?$_List_nod@PAXV?$allocator@PAX@std@@@std@@@std@@QAEXPAPAU_Node@?$_List_nod@PAXV?$allocator@PAX@std@@@2@ABQAU342@@Z 00424c00 f i Player.obj
 0001:00023c20       ?_Ubound@?$_Tree@V?$_Tmap_traits@KPAVCPlayer@@U?$less@K@std@@V?$allocator@U?$pair@$$CBKPAVCPlayer@@@std@@@3@$0A@@std@@@std@@IBEPAU_Node@?$_Tree_nod@V?$_Tmap_traits@KPAVCPlayer@@U?$less@K@std@@V?$allocator@U?$pair@$$CBKPAVCPlayer@@@std@@@3@$0A@@std@@@2@ABK@Z 00424c20 f i Player.obj
 0001:00023c50       ?allocate@?$allocator@U_Node@?$_Tree_nod@V?$_Tmap_traits@KPAVCPlayer@@U?$less@K@std@@V?$allocator@U?$pair@$$CBKPAVCPlayer@@@std@@@3@$0A@@std@@@std@@@std@@QAEPAU_Node@?$_Tree_nod@V?$_Tmap_traits@KPAVCPlayer@@U?$less@K@std@@V?$allocator@U?$pair@$$CBKPAVCPlayer@@@std@@@3@$0A@@std@@@2@I@Z 00424c50 f i Player.obj
 0001:00023c70       ?_Ubound@?$_Tree@V?$_Tset_traits@KU?$less@K@std@@V?$allocator@K@2@$0A@@std@@@std@@IBEPAU_Node@?$_Tree_nod@V?$_Tset_traits@KU?$less@K@std@@V?$allocator@K@2@$0A@@std@@@2@ABK@Z 00424c70 f i Player.obj
 0001:00023ca0       ?allocate@?$allocator@U_Node@?$_Tree_nod@V?$_Tset_traits@KU?$less@K@std@@V?$allocator@K@2@$0A@@std@@@std@@@std@@QAEPAU_Node@?$_Tree_nod@V?$_Tset_traits@KU?$less@K@std@@V?$allocator@K@2@$0A@@std@@@2@I@Z 00424ca0 f i Player.obj
 0001:00023cc0       ?destroy@?$allocator@U_Node@?$_Tree_nod@V?$_Tset_traits@KU?$less@K@std@@V?$allocator@K@2@$0A@@std@@@std@@@std@@QAEXPAU_Node@?$_Tree_nod@V?$_Tset_traits@KU?$less@K@std@@V?$allocator@K@2@$0A@@std@@@2@@Z 00424cc0 f i Player.obj
 0001:00023cd0       ??0?$_List_nod@PAXV?$allocator@PAX@std@@@std@@IAE@V?$allocator@PAX@1@@Z 00424cd0 f i Player.obj
 0001:00023ce0       ??0?$_Tree_nod@V?$_Tmap_traits@KPAVCPlayer@@U?$less@K@std@@V?$allocator@U?$pair@$$CBKPAVCPlayer@@@std@@@3@$0A@@std@@@std@@IAE@ABU?$less@K@1@V?$allocator@U?$pair@$$CBKPAVCPlayer@@@std@@@1@@Z 00424ce0 f i Player.obj
 0001:00023cf0       ?construct@?$allocator@PAU_Node@?$_Tree_nod@V?$_Tmap_traits@KPAVCPlayer@@U?$less@K@std@@V?$allocator@U?$pair@$$CBKPAVCPlayer@@@std@@@3@$0A@@std@@@std@@@std@@QAEXPAPAU_Node@?$_Tree_nod@V?$_Tmap_traits@KPAVCPlayer@@U?$less@K@std@@V?$allocator@U?$pair@$$CBKPAVCPlayer@@@std@@@3@$0A@@std@@@2@ABQAU342@@Z 00424cf0 f i Player.obj
 0001:00023d10       ??0?$_Tree_nod@V?$_Tset_traits@KU?$less@K@std@@V?$allocator@K@2@$0A@@std@@@std@@IAE@ABU?$less@K@1@V?$allocator@K@1@@Z 00424d10 f i Player.obj
 0001:00023d20       ?construct@?$allocator@PAU_Node@?$_Tree_nod@V?$_Tset_traits@KU?$less@K@std@@V?$allocator@K@2@$0A@@std@@@std@@@std@@QAEXPAPAU_Node@?$_Tree_nod@V?$_Tset_traits@KU?$less@K@std@@V?$allocator@K@2@$0A@@std@@@2@ABQAU342@@Z 00424d20 f i Player.obj
 0001:00023d40       ??$make_pair@KPAVCPlayer@@@std@@YA?AU?$pair@KPAVCPlayer@@@0@KPAVCPlayer@@@Z 00424d40 f i Player.obj
 0001:00023d60       ??_GCPlayer@@UAEPAXI@Z     00424d60 f i Player.obj
 0001:00023d60       ??_ECPlayer@@UAEPAXI@Z     00424d60 f i Player.obj
 0001:00023db0       ?begin@?$_Tree@V?$_Tmap_traits@KPAVCPlayer@@U?$less@K@std@@V?$allocator@U?$pair@$$CBKPAVCPlayer@@@std@@@3@$0A@@std@@@std@@QAE?AViterator@12@XZ 00424db0 f i Player.obj
 0001:00023dc0       ?end@?$_Tree@V?$_Tmap_traits@KPAVCPlayer@@U?$less@K@std@@V?$allocator@U?$pair@$$CBKPAVCPlayer@@@std@@@3@$0A@@std@@@std@@QAE?AViterator@12@XZ 00424dc0 f i Player.obj
 0001:00023dd0       ??Citerator@?$_Tree@V?$_Tmap_traits@KPAVCPlayer@@U?$less@K@std@@V?$allocator@U?$pair@$$CBKPAVCPlayer@@@std@@@3@$0A@@std@@@std@@QBEPAU?$pair@$$CBKPAVCPlayer@@@2@XZ 00424dd0 f i Player.obj
 0001:00023de0       ?lower_bound@?$_Tree@V?$_Tmap_traits@KPAVCPlayer@@U?$less@K@std@@V?$allocator@U?$pair@$$CBKPAVCPlayer@@@std@@@3@$0A@@std@@@std@@QAE?AViterator@12@ABK@Z 00424de0 f i Player.obj
 0001:00023e20       ?_Erase@?$_Tree@V?$_Tmap_traits@KPAVCPlayer@@U?$less@K@std@@V?$allocator@U?$pair@$$CBKPAVCPlayer@@@std@@@3@$0A@@std@@@std@@IAEXPAU_Node@?$_Tree_nod@V?$_Tmap_traits@KPAVCPlayer@@U?$less@K@std@@V?$allocator@U?$pair@$$CBKPAVCPlayer@@@std@@@3@$0A@@std@@@2@@Z 00424e20 f i Player.obj
 0001:00023e60       ?lower_bound@?$_Tree@V?$_Tset_traits@KU?$less@K@std@@V?$allocator@K@2@$0A@@std@@@std@@QAE?AViterator@12@ABK@Z 00424e60 f i Player.obj
 0001:00023ea0       ??Fiterator@?$_Tree@V?$_Tmap_traits@KPAVCPlayer@@U?$less@K@std@@V?$allocator@U?$pair@$$CBKPAVCPlayer@@@std@@@3@$0A@@std@@@std@@QAEAAV012@XZ 00424ea0 f i Player.obj
 0001:00023eb0       ??Econst_iterator@?$_Tree@V?$_Tmap_traits@KPAVCPlayer@@U?$less@K@std@@V?$allocator@U?$pair@$$CBKPAVCPlayer@@@std@@@3@$0A@@std@@@std@@QAEAAV012@XZ 00424eb0 f i Player.obj
 0001:00023ec0       ??Fiterator@?$_Tree@V?$_Tset_traits@KU?$less@K@std@@V?$allocator@K@2@$0A@@std@@@std@@QAEAAV012@XZ 00424ec0 f i Player.obj
 0001:00023ed0       ?_Buynode@?$list@PAXV?$allocator@PAX@std@@@std@@IAEPAU_Node@?$_List_nod@PAXV?$allocator@PAX@std@@@2@XZ 00424ed0 f i Player.obj
 0001:00023ef0       ?upper_bound@?$_Tree@V?$_Tmap_traits@KPAVCPlayer@@U?$less@K@std@@V?$allocator@U?$pair@$$CBKPAVCPlayer@@@std@@@3@$0A@@std@@@std@@QAE?AViterator@12@ABK@Z 00424ef0 f i Player.obj
 0001:00023f30       ?_Buynode@?$_Tree@V?$_Tmap_traits@KPAVCPlayer@@U?$less@K@std@@V?$allocator@U?$pair@$$CBKPAVCPlayer@@@std@@@3@$0A@@std@@@std@@IAEPAU_Node@?$_Tree_nod@V?$_Tmap_traits@KPAVCPlayer@@U?$less@K@std@@V?$allocator@U?$pair@$$CBKPAVCPlayer@@@std@@@3@$0A@@std@@@2@PAU342@00ABU?$pair@$$CBKPAVCPlayer@@@2@D@Z 00424f30 f i Player.obj
 0001:00023f70       ?upper_bound@?$_Tree@V?$_Tset_traits@KU?$less@K@std@@V?$allocator@K@2@$0A@@std@@@std@@QAE?AViterator@12@ABK@Z 00424f70 f i Player.obj
 0001:00023fb0       ?_Buynode@?$_Tree@V?$_Tset_traits@KU?$less@K@std@@V?$allocator@K@2@$0A@@std@@@std@@IAEPAU_Node@?$_Tree_nod@V?$_Tset_traits@KU?$less@K@std@@V?$allocator@K@2@$0A@@std@@@2@PAU342@00ABKD@Z 00424fb0 f i Player.obj
 0001:00023ff0       ??0?$_List_ptr@PAXV?$allocator@PAX@std@@@std@@IAE@V?$allocator@PAX@1@@Z 00424ff0 f i Player.obj
 0001:00024000       ?_Buynode@?$_Tree@V?$_Tmap_traits@KPAVCPlayer@@U?$less@K@std@@V?$allocator@U?$pair@$$CBKPAVCPlayer@@@std@@@3@$0A@@std@@@std@@IAEPAU_Node@?$_Tree_nod@V?$_Tmap_traits@KPAVCPlayer@@U?$less@K@std@@V?$allocator@U?$pair@$$CBKPAVCPlayer@@@std@@@3@$0A@@std@@@2@XZ 00425000 f i Player.obj
 0001:00024040       ??0?$_Tree_ptr@V?$_Tmap_traits@KPAVCPlayer@@U?$less@K@std@@V?$allocator@U?$pair@$$CBKPAVCPlayer@@@std@@@3@$0A@@std@@@std@@IAE@ABU?$less@K@1@V?$allocator@U?$pair@$$CBKPAVCPlayer@@@std@@@1@@Z 00425040 f i Player.obj
 0001:00024050       ?_Erase@?$_Tree@V?$_Tset_traits@KU?$less@K@std@@V?$allocator@K@2@$0A@@std@@@std@@IAEXPAU_Node@?$_Tree_nod@V?$_Tset_traits@KU?$less@K@std@@V?$allocator@K@2@$0A@@std@@@2@@Z 00425050 f i Player.obj
 0001:00024090       ?_Buynode@?$_Tree@V?$_Tset_traits@KU?$less@K@std@@V?$allocator@K@2@$0A@@std@@@std@@IAEPAU_Node@?$_Tree_nod@V?$_Tset_traits@KU?$less@K@std@@V?$allocator@K@2@$0A@@std@@@2@XZ 00425090 f i Player.obj
 0001:000240d0       ??0?$_Tree_ptr@V?$_Tset_traits@KU?$less@K@std@@V?$allocator@K@2@$0A@@std@@@std@@IAE@ABU?$less@K@1@V?$allocator@K@1@@Z 004250d0 f i Player.obj
 0001:000240e0       ??$_Distance2@Viterator@?$_Tree@V?$_Tset_traits@KU?$less@K@std@@V?$allocator@K@2@$0A@@std@@@std@@I@std@@YAXViterator@?$_Tree@V?$_Tset_traits@KU?$less@K@std@@V?$allocator@K@2@$0A@@std@@@0@0AAIUbidirectional_iterator_tag@0@@Z 004250e0 f i Player.obj
 0001:00024110       ?clear@?$_Tree@V?$_Tmap_traits@KPAVCPlayer@@U?$less@K@std@@V?$allocator@U?$pair@$$CBKPAVCPlayer@@@std@@@3@$0A@@std@@@std@@QAEXXZ 00425110 f i Player.obj
 0001:00024140       ?find@?$_Tree@V?$_Tmap_traits@KPAVCPlayer@@U?$less@K@std@@V?$allocator@U?$pair@$$CBKPAVCPlayer@@@std@@@3@$0A@@std@@@std@@QAE?AViterator@12@ABK@Z 00425140 f i Player.obj
 0001:000241b0       ?find@?$_Tree@V?$_Tset_traits@KU?$less@K@std@@V?$allocator@K@2@$0A@@std@@@std@@QAE?AViterator@12@ABK@Z 004251b0 f i Player.obj
 0001:00024220       ??Eiterator@?$_Tree@V?$_Tmap_traits@KPAVCPlayer@@U?$less@K@std@@V?$allocator@U?$pair@$$CBKPAVCPlayer@@@std@@@3@$0A@@std@@@std@@QAEAAV012@XZ 00425220 f i Player.obj
 0001:00024230       ?equal_range@?$_Tree@V?$_Tmap_traits@KPAVCPlayer@@U?$less@K@std@@V?$allocator@U?$pair@$$CBKPAVCPlayer@@@std@@@3@$0A@@std@@@std@@QAE?AU?$pair@Viterator@?$_Tree@V?$_Tmap_traits@KPAVCPlayer@@U?$less@K@std@@V?$allocator@U?$pair@$$CBKPAVCPlayer@@@std@@@3@$0A@@std@@@std@@V123@@2@ABK@Z 00425230 f i Player.obj
 0001:000242a0       ?equal_range@?$_Tree@V?$_Tset_traits@KU?$less@K@std@@V?$allocator@K@2@$0A@@std@@@std@@QAE?AU?$pair@Viterator@?$_Tree@V?$_Tset_traits@KU?$less@K@std@@V?$allocator@K@2@$0A@@std@@@std@@V123@@2@ABK@Z 004252a0 f i Player.obj
 0001:00024310       ??0?$_List_val@PAXV?$allocator@PAX@std@@@std@@IAE@V?$allocator@PAX@1@@Z 00425310 f i Player.obj
 0001:00024320       ?_Init@?$_Tree@V?$_Tmap_traits@KPAVCPlayer@@U?$less@K@std@@V?$allocator@U?$pair@$$CBKPAVCPlayer@@@std@@@3@$0A@@std@@@std@@IAEXXZ 00425320 f i Player.obj
 0001:00024350       ??0?$_Tree_val@V?$_Tmap_traits@KPAVCPlayer@@U?$less@K@std@@V?$allocator@U?$pair@$$CBKPAVCPlayer@@@std@@@3@$0A@@std@@@std@@IAE@ABU?$less@K@1@V?$allocator@U?$pair@$$CBKPAVCPlayer@@@std@@@1@@Z 00425350 f i Player.obj
 0001:00024360       ?clear@?$_Tree@V?$_Tset_traits@KU?$less@K@std@@V?$allocator@K@2@$0A@@std@@@std@@QAEXXZ 00425360 f i Player.obj
 0001:00024390       ?_Init@?$_Tree@V?$_Tset_traits@KU?$less@K@std@@V?$allocator@K@2@$0A@@std@@@std@@IAEXXZ 00425390 f i Player.obj
 0001:000243c0       ??0?$_Tree_val@V?$_Tset_traits@KU?$less@K@std@@V?$allocator@K@2@$0A@@std@@@std@@IAE@ABU?$less@K@1@V?$allocator@K@1@@Z 004253c0 f i Player.obj
 0001:000243d0       ??Eiterator@?$_Tree@V?$_Tmap_traits@KPAVCPlayer@@U?$less@K@std@@V?$allocator@U?$pair@$$CBKPAVCPlayer@@@std@@@3@$0A@@std@@@std@@QAE?AV012@H@Z 004253d0 f i Player.obj
 0001:000243f0       ??Eiterator@?$_Tree@V?$_Tset_traits@KU?$less@K@std@@V?$allocator@K@2@$0A@@std@@@std@@QAE?AV012@H@Z 004253f0 f i Player.obj
 0001:00024410       ??$_Distance@Viterator@?$_Tree@V?$_Tset_traits@KU?$less@K@std@@V?$allocator@K@2@$0A@@std@@@std@@I@std@@YAXViterator@?$_Tree@V?$_Tset_traits@KU?$less@K@std@@V?$allocator@K@2@$0A@@std@@@0@0AAI@Z 00425410 f i Player.obj
 0001:00024450       ??$_Distance2@Viterator@?$_Tree@V?$_Tmap_traits@KPAVCPlayer@@U?$less@K@std@@V?$allocator@U?$pair@$$CBKPAVCPlayer@@@std@@@3@$0A@@std@@@std@@I@std@@YAXViterator@?$_Tree@V?$_Tmap_traits@KPAVCPlayer@@U?$less@K@std@@V?$allocator@U?$pair@$$CBKPAVCPlayer@@@std@@@3@$0A@@std@@@0@0AAIUbidirectional_iterator_tag@0@@Z 00425450 f i Player.obj
 0001:00024480       ?Free@CPlayerMng@@QAEXXZ   00425480 f   Player.obj
 0001:000245b0       ?RemoveCache@CPlayerMng@@QAEHK@Z 004255b0 f   Player.obj
 0001:00024660       ?GetPlayerBySerial@CPlayerMng@@QAEPAVCPlayer@@K@Z 00425660 f   Player.obj
 0001:00024690       ?GetPlayerBySocket@CPlayerMng@@QAEPAVCPlayer@@K@Z 00425690 f   Player.obj
 0001:000246d0       ?GetPlayer@CPlayerMng@@QAEPAVCPlayer@@K@Z 004256d0 f   Player.obj
 0001:00024700       ?PackName@CPlayerMng@@QAEXAAVCAr@@@Z 00425700 f   Player.obj
 0001:000247a0       ?IsOperator@CPlayerMng@@QAEHK@Z 004257a0 f   Player.obj
 0001:000247e0       ??0?$list@PAXV?$allocator@PAX@std@@@std@@QAE@XZ 004257e0 f i Player.obj
 0001:00024800       ??0?$_Tree@V?$_Tmap_traits@KPAVCPlayer@@U?$less@K@std@@V?$allocator@U?$pair@$$CBKPAVCPlayer@@@std@@@3@$0A@@std@@@std@@QAE@ABU?$less@K@1@ABV?$allocator@U?$pair@$$CBKPAVCPlayer@@@std@@@1@@Z 00425800 f i Player.obj
 0001:00024830       ??0?$_Tree@V?$_Tset_traits@KU?$less@K@std@@V?$allocator@K@2@$0A@@std@@@std@@QAE@ABU?$less@K@1@ABV?$allocator@K@1@@Z 00425830 f i Player.obj
 0001:00024860       ??$_Distance@Viterator@?$_Tree@V?$_Tmap_traits@KPAVCPlayer@@U?$less@K@std@@V?$allocator@U?$pair@$$CBKPAVCPlayer@@@std@@@3@$0A@@std@@@std@@I@std@@YAXViterator@?$_Tree@V?$_Tmap_traits@KPAVCPlayer@@U?$less@K@std@@V?$allocator@U?$pair@$$CBKPAVCPlayer@@@std@@@3@$0A@@std@@@0@0AAI@Z 00425860 f i Player.obj
 0001:000248a0       ?_Insert@?$_Tree@V?$_Tmap_traits@KPAVCPlayer@@U?$less@K@std@@V?$allocator@U?$pair@$$CBKPAVCPlayer@@@std@@@3@$0A@@std@@@std@@IAE?AViterator@12@_NPAU_Node@?$_Tree_nod@V?$_Tmap_traits@KPAVCPlayer@@U?$less@K@std@@V?$allocator@U?$pair@$$CBKPAVCPlayer@@@std@@@3@$0A@@std@@@2@ABU?$pair@$$CBKPAVCPlayer@@@2@@Z 004258a0 f i Player.obj
 0001:00024a50       ?_Insert@?$_Tree@V?$_Tset_traits@KU?$less@K@std@@V?$allocator@K@2@$0A@@std@@@std@@IAE?AViterator@12@_NPAU_Node@?$_Tree_nod@V?$_Tset_traits@KU?$less@K@std@@V?$allocator@K@2@$0A@@std@@@2@ABK@Z 00425a50 f i Player.obj
 0001:00024c00       ?erase@?$_Tree@V?$_Tmap_traits@KPAVCPlayer@@U?$less@K@std@@V?$allocator@U?$pair@$$CBKPAVCPlayer@@@std@@@3@$0A@@std@@@std@@QAE?AViterator@12@V312@@Z 00425c00 f i Player.obj
 0001:00024ec0       ?erase@?$_Tree@V?$_Tset_traits@KU?$less@K@std@@V?$allocator@K@2@$0A@@std@@@std@@QAE?AViterator@12@V312@@Z 00425ec0 f i Player.obj
 0001:00025180       ?insert@?$_Tree@V?$_Tmap_traits@KPAVCPlayer@@U?$less@K@std@@V?$allocator@U?$pair@$$CBKPAVCPlayer@@@std@@@3@$0A@@std@@@std@@QAE?AU?$pair@Viterator@?$_Tree@V?$_Tmap_traits@KPAVCPlayer@@U?$less@K@std@@V?$allocator@U?$pair@$$CBKPAVCPlayer@@@std@@@3@$0A@@std@@@std@@_N@2@ABU?$pair@$$CBKPAVCPlayer@@@2@@Z 00426180 f i Player.obj
 0001:00025240       ?insert@?$_Tree@V?$_Tset_traits@KU?$less@K@std@@V?$allocator@K@2@$0A@@std@@@std@@QAE?AU?$pair@Viterator@?$_Tree@V?$_Tset_traits@KU?$less@K@std@@V?$allocator@K@2@$0A@@std@@@std@@_N@2@ABK@Z 00426240 f i Player.obj
 0001:00025300       ?erase@?$_Tree@V?$_Tmap_traits@KPAVCPlayer@@U?$less@K@std@@V?$allocator@U?$pair@$$CBKPAVCPlayer@@@std@@@3@$0A@@std@@@std@@QAE?AViterator@12@V312@0@Z 00426300 f i Player.obj
 0001:000253c0       ?_Tidy@?$_Tree@V?$_Tmap_traits@KPAVCPlayer@@U?$less@K@std@@V?$allocator@U?$pair@$$CBKPAVCPlayer@@@std@@@3@$0A@@std@@@std@@IAEXXZ 004263c0 f i Player.obj
 0001:000253f0       ?erase@?$_Tree@V?$_Tset_traits@KU?$less@K@std@@V?$allocator@K@2@$0A@@std@@@std@@QAE?AViterator@12@V312@0@Z 004263f0 f i Player.obj
 0001:000254b0       ?_Tidy@?$_Tree@V?$_Tset_traits@KU?$less@K@std@@V?$allocator@K@2@$0A@@std@@@std@@IAEXXZ 004264b0 f i Player.obj
 0001:000254e0       ?AddItToSetofOperator@CPlayerMng@@QAEXK@Z 004264e0 f   Player.obj
 0001:00025500       ??1?$_Tree@V?$_Tmap_traits@KPAVCPlayer@@U?$less@K@std@@V?$allocator@U?$pair@$$CBKPAVCPlayer@@@std@@@3@$0A@@std@@@std@@QAE@XZ 00426500 f i Player.obj
 0001:00025530       ?erase@?$_Tree@V?$_Tmap_traits@KPAVCPlayer@@U?$less@K@std@@V?$allocator@U?$pair@$$CBKPAVCPlayer@@@std@@@3@$0A@@std@@@std@@QAEIABK@Z 00426530 f i Player.obj
 0001:00025590       ??1?$_Tree@V?$_Tset_traits@KU?$less@K@std@@V?$allocator@K@2@$0A@@std@@@std@@QAE@XZ 00426590 f i Player.obj
 0001:000255c0       ?erase@?$_Tree@V?$_Tset_traits@KU?$less@K@std@@V?$allocator@K@2@$0A@@std@@@std@@QAEIABK@Z 004265c0 f i Player.obj
 0001:00025620       ??1?$map@KPAVCPlayer@@U?$less@K@std@@V?$allocator@U?$pair@$$CBKPAVCPlayer@@@std@@@3@@std@@QAE@XZ 00426620 f i Player.obj
 0001:00025650       ??1?$set@KU?$less@K@std@@V?$allocator@K@2@@std@@QAE@XZ 00426650 f i Player.obj
 0001:00025680       ??1CPlayerMng@@UAE@XZ      00426680 f   Player.obj
 0001:00025760       ??0?$map@KPAVCPlayer@@U?$less@K@std@@V?$allocator@U?$pair@$$CBKPAVCPlayer@@@std@@@3@@std@@QAE@XZ 00426760 f i Player.obj
 0001:00025790       ??0?$set@KU?$less@K@std@@V?$allocator@K@2@@std@@QAE@XZ 00426790 f i Player.obj
 0001:000257c0       ?Create@?$MemPooler@VCPlayer@@@@IAEXXZ 004267c0 f i Player.obj
 0001:00025850       ??0CPlayerMng@@QAE@XZ      00426850 f   Player.obj
 0001:00025920       ??_GCPlayerMng@@UAEPAXI@Z  00426920 f i Player.obj
 0001:00025920       ??_ECPlayerMng@@UAEPAXI@Z  00426920 f i Player.obj
 0001:00025940       ?RegisterPlayerInfo@CPlayerMng@@QAEHPAVCPlayer@@@Z 00426940 f   Player.obj
 0001:00025ac0       ??0?$MemPooler@VCPlayer@@@@QAE@H@Z 00426ac0 f i Player.obj
 0001:00025b40       ?Alloc@?$MemPooler@VCPlayer@@@@QAEPAVCPlayer@@XZ 00426b40 f i Player.obj
 0001:00025b80       ??2CPlayer@@SAPAXI@Z       00426b80 f i Player.obj
 0001:00025bc0       ?AddPlayer@CPlayerMng@@QAEHKPBD0@Z 00426bc0 f   Player.obj
 0001:00025cb0       ?Logout@CPlayerMng@@QAEXPAVCPlayer@@@Z 00426cb0 f   Player.obj
 0001:00025fc0       ?UnregisterPlayerInfo@CPlayerMng@@QAEHPAVCPlayer@@H@Z 00426fc0 f   Player.obj
 0001:00026250       ?RemovePlayer@CPlayerMng@@QAEXPAVCPlayer@@H@Z 00427250 f   Player.obj
 0001:000262a0       ?IsLoading@CAr@@QBEHXZ     004272a0 f i playerdata.obj
 0001:000262b0       ?size@?$_Tree@V?$_Tmap_traits@KPAU_PlayerData@@U?$less@K@std@@V?$allocator@U?$pair@$$CBKPAU_PlayerData@@@std@@@3@$0A@@std@@@std@@QBEIXZ 004272b0 f i playerdata.obj
 0001:000262c0       ??8const_iterator@?$_Tree@V?$_Tmap_traits@KPAU_PlayerData@@U?$less@K@std@@V?$allocator@U?$pair@$$CBKPAU_PlayerData@@@std@@@3@$0A@@std@@@std@@QBE_NABV012@@Z 004272c0 f i playerdata.obj
 0001:000262d0       ??9const_iterator@?$_Tree@V?$_Tmap_traits@KPAU_PlayerData@@U?$less@K@std@@V?$allocator@U?$pair@$$CBKPAU_PlayerData@@@std@@@3@$0A@@std@@@std@@QBE_NABV012@@Z 004272d0 f i playerdata.obj
 0001:000262f0       ??0?$pair@$$CBKPAU_PlayerData@@@std@@QAE@ABKABQAU_PlayerData@@@Z 004272f0 f i playerdata.obj
 0001:00026310       ?_Color@?$_Tree@V?$_Tmap_traits@KPAU_PlayerData@@U?$less@K@std@@V?$allocator@U?$pair@$$CBKPAU_PlayerData@@@std@@@3@$0A@@std@@@std@@KAAADPAU_Node@?$_Tree_nod@V?$_Tmap_traits@KPAU_PlayerData@@U?$less@K@std@@V?$allocator@U?$pair@$$CBKPAU_PlayerData@@@std@@@3@$0A@@std@@@2@@Z 00427310 f i playerdata.obj
 0001:00026320       ?_Isnil@?$_Tree@V?$_Tmap_traits@KPAU_PlayerData@@U?$less@K@std@@V?$allocator@U?$pair@$$CBKPAU_PlayerData@@@std@@@3@$0A@@std@@@std@@KAAADPAU_Node@?$_Tree_nod@V?$_Tmap_traits@KPAU_PlayerData@@U?$less@K@std@@V?$allocator@U?$pair@$$CBKPAU_PlayerData@@@std@@@3@$0A@@std@@@2@@Z 00427320 f i playerdata.obj
 0001:00026330       ?_Left@?$_Tree@V?$_Tmap_traits@KPAU_PlayerData@@U?$less@K@std@@V?$allocator@U?$pair@$$CBKPAU_PlayerData@@@std@@@3@$0A@@std@@@std@@KAAAPAU_Node@?$_Tree_nod@V?$_Tmap_traits@KPAU_PlayerData@@U?$less@K@std@@V?$allocator@U?$pair@$$CBKPAU_PlayerData@@@std@@@3@$0A@@std@@@2@PAU342@@Z 00427330 f i playerdata.obj
 0001:00026340       ?_Parent@?$_Tree@V?$_Tmap_traits@KPAU_PlayerData@@U?$less@K@std@@V?$allocator@U?$pair@$$CBKPAU_PlayerData@@@std@@@3@$0A@@std@@@std@@KAAAPAU_Node@?$_Tree_nod@V?$_Tmap_traits@KPAU_PlayerData@@U?$less@K@std@@V?$allocator@U?$pair@$$CBKPAU_PlayerData@@@std@@@3@$0A@@std@@@2@PAU342@@Z 00427340 f i playerdata.obj
 0001:00026350       ?_Right@?$_Tree@V?$_Tmap_traits@KPAU_PlayerData@@U?$less@K@std@@V?$allocator@U?$pair@$$CBKPAU_PlayerData@@@std@@@3@$0A@@std@@@std@@KAAAPAU_Node@?$_Tree_nod@V?$_Tmap_traits@KPAU_PlayerData@@U?$less@K@std@@V?$allocator@U?$pair@$$CBKPAU_PlayerData@@@std@@@3@$0A@@std@@@2@PAU342@@Z 00427350 f i playerdata.obj
 0001:00026360       ?_Lmost@?$_Tree@V?$_Tmap_traits@KPAU_PlayerData@@U?$less@K@std@@V?$allocator@U?$pair@$$CBKPAU_PlayerData@@@std@@@3@$0A@@std@@@std@@IAEAAPAU_Node@?$_Tree_nod@V?$_Tmap_traits@KPAU_PlayerData@@U?$less@K@std@@V?$allocator@U?$pair@$$CBKPAU_PlayerData@@@std@@@3@$0A@@std@@@2@XZ 00427360 f i playerdata.obj
 0001:00026370       ?_Max@?$_Tree@V?$_Tmap_traits@KPAU_PlayerData@@U?$less@K@std@@V?$allocator@U?$pair@$$CBKPAU_PlayerData@@@std@@@3@$0A@@std@@@std@@KAPAU_Node@?$_Tree_nod@V?$_Tmap_traits@KPAU_PlayerData@@U?$less@K@std@@V?$allocator@U?$pair@$$CBKPAU_PlayerData@@@std@@@3@$0A@@std@@@2@PAU342@@Z 00427370 f i playerdata.obj
 0001:00026390       ?_Min@?$_Tree@V?$_Tmap_traits@KPAU_PlayerData@@U?$less@K@std@@V?$allocator@U?$pair@$$CBKPAU_PlayerData@@@std@@@3@$0A@@std@@@std@@KAPAU_Node@?$_Tree_nod@V?$_Tmap_traits@KPAU_PlayerData@@U?$less@K@std@@V?$allocator@U?$pair@$$CBKPAU_PlayerData@@@std@@@3@$0A@@std@@@2@PAU342@@Z 00427390 f i playerdata.obj
 0001:000263b0       ?_Rmost@?$_Tree@V?$_Tmap_traits@KPAU_PlayerData@@U?$less@K@std@@V?$allocator@U?$pair@$$CBKPAU_PlayerData@@@std@@@3@$0A@@std@@@std@@IAEAAPAU_Node@?$_Tree_nod@V?$_Tmap_traits@KPAU_PlayerData@@U?$less@K@std@@V?$allocator@U?$pair@$$CBKPAU_PlayerData@@@std@@@3@$0A@@std@@@2@XZ 004273b0 f i playerdata.obj
 0001:000263c0       ?_Root@?$_Tree@V?$_Tmap_traits@KPAU_PlayerData@@U?$less@K@std@@V?$allocator@U?$pair@$$CBKPAU_PlayerData@@@std@@@3@$0A@@std@@@std@@IAEAAPAU_Node@?$_Tree_nod@V?$_Tmap_traits@KPAU_PlayerData@@U?$less@K@std@@V?$allocator@U?$pair@$$CBKPAU_PlayerData@@@std@@@3@$0A@@std@@@2@XZ 004273c0 f i playerdata.obj
 0001:000263d0       ?_Rrotate@?$_Tree@V?$_Tmap_traits@KPAU_PlayerData@@U?$less@K@std@@V?$allocator@U?$pair@$$CBKPAU_PlayerData@@@std@@@3@$0A@@std@@@std@@IAEXPAU_Node@?$_Tree_nod@V?$_Tmap_traits@KPAU_PlayerData@@U?$less@K@std@@V?$allocator@U?$pair@$$CBKPAU_PlayerData@@@std@@@3@$0A@@std@@@2@@Z 004273d0 f i playerdata.obj
 0001:00026430       ?_Kfn@?$_Tmap_traits@KPAU_PlayerData@@U?$less@K@std@@V?$allocator@U?$pair@$$CBKPAU_PlayerData@@@std@@@3@$0A@@std@@SAABKABU?$pair@$$CBKPAU_PlayerData@@@2@@Z 00427430 f i playerdata.obj
 0001:00026440       ??0?$allocator@U?$pair@$$CBKPAU_PlayerData@@@std@@@std@@QAE@XZ 00427440 f i playerdata.obj
 0001:00026450       ?deallocate@?$allocator@U_Node@?$_Tree_nod@V?$_Tmap_traits@KPAU_PlayerData@@U?$less@K@std@@V?$allocator@U?$pair@$$CBKPAU_PlayerData@@@std@@@3@$0A@@std@@@std@@@std@@QAEXPAU_Node@?$_Tree_nod@V?$_Tmap_traits@KPAU_PlayerData@@U?$less@K@std@@V?$allocator@U?$pair@$$CBKPAU_PlayerData@@@std@@@3@$0A@@std@@@2@I@Z 00427450 f i playerdata.obj
 0001:00026460       ?_Isnil@?$_Tree@V?$_Tmap_traits@V?$basic_string@DU?$char_traits@D@std@@V?$allocator@D@2@@std@@KU?$less@V?$basic_string@DU?$char_traits@D@std@@V?$allocator@D@2@@std@@@2@V?$allocator@U?$pair@$$CBV?$basic_string@DU?$char_traits@D@std@@V?$allocator@D@2@@std@@K@std@@@2@$0A@@std@@@std@@KAAADPAU_Node@?$_Tree_nod@V?$_Tmap_traits@V?$basic_string@DU?$char_traits@D@std@@V?$allocator@D@2@@std@@KU?$less@V?$basic_string@DU?$char_traits@D@std@@V?$allocator@D@2@@std@@@2@V?$allocator@U?$pair@$$CBV?$basic_string@DU?$char_traits@D@std@@V?$allocator@D@2@@std@@K@std@@@2@$0A@@std@@@2@@Z 00427460 f i playerdata.obj
 0001:00026470       ?_Left@?$_Tree@V?$_Tmap_traits@V?$basic_string@DU?$char_traits@D@std@@V?$allocator@D@2@@std@@KU?$less@V?$basic_string@DU?$char_traits@D@std@@V?$allocator@D@2@@std@@@2@V?$allocator@U?$pair@$$CBV?$basic_string@DU?$char_traits@D@std@@V?$allocator@D@2@@std@@K@std@@@2@$0A@@std@@@std@@KAAAPAU_Node@?$_Tree_nod@V?$_Tmap_traits@V?$basic_string@DU?$char_traits@D@std@@V?$allocator@D@2@@std@@KU?$less@V?$basic_string@DU?$char_traits@D@std@@V?$allocator@D@2@@std@@@2@V?$allocator@U?$pair@$$CBV?$basic_string@DU?$char_traits@D@std@@V?$allocator@D@2@@std@@K@std@@@2@$0A@@std@@@2@PAU342@@Z 00427470 f i playerdata.obj
 0001:00026480       ?_Right@?$_Tree@V?$_Tmap_traits@V?$basic_string@DU?$char_traits@D@std@@V?$allocator@D@2@@std@@KU?$less@V?$basic_string@DU?$char_traits@D@std@@V?$allocator@D@2@@std@@@2@V?$allocator@U?$pair@$$CBV?$basic_string@DU?$char_traits@D@std@@V?$allocator@D@2@@std@@K@std@@@2@$0A@@std@@@std@@KAAAPAU_Node@?$_Tree_nod@V?$_Tmap_traits@V?$basic_string@DU?$char_traits@D@std@@V?$allocator@D@2@@std@@KU?$less@V?$basic_string@DU?$char_traits@D@std@@V?$allocator@D@2@@std@@@2@V?$allocator@U?$pair@$$CBV?$basic_string@DU?$char_traits@D@std@@V?$allocator@D@2@@std@@K@std@@@2@$0A@@std@@@2@PAU342@@Z 00427480 f i playerdata.obj
 0001:00026490       ?_Kfn@?$_Tmap_traits@V?$basic_string@DU?$char_traits@D@std@@V?$allocator@D@2@@std@@KU?$less@V?$basic_string@DU?$char_traits@D@std@@V?$allocator@D@2@@std@@@2@V?$allocator@U?$pair@$$CBV?$basic_string@DU?$char_traits@D@std@@V?$allocator@D@2@@std@@K@std@@@2@$0A@@std@@SAABV?$basic_string@DU?$char_traits@D@std@@V?$allocator@D@2@@2@ABU?$pair@$$CBV?$basic_string@DU?$char_traits@D@std@@V?$allocator@D@2@@std@@K@2@@Z 00427490 f i playerdata.obj
 0001:000264a0       ??0?$allocator@U?$pair@$$CBV?$basic_string@DU?$char_traits@D@std@@V?$allocator@D@2@@std@@K@std@@@std@@QAE@XZ 004274a0 f i playerdata.obj
 0001:000264b0       ?_Mynode@const_iterator@?$_Tree@V?$_Tmap_traits@KPAU_PlayerData@@U?$less@K@std@@V?$allocator@U?$pair@$$CBKPAU_PlayerData@@@std@@@3@$0A@@std@@@std@@QBEPAU_Node@?$_Tree_nod@V?$_Tmap_traits@KPAU_PlayerData@@U?$less@K@std@@V?$allocator@U?$pair@$$CBKPAU_PlayerData@@@std@@@3@$0A@@std@@@3@XZ 004274b0 f i playerdata.obj
 0001:000264c0       ??8const_iterator@?$_Tree@V?$_Tmap_traits@V?$basic_string@DU?$char_traits@D@std@@V?$allocator@D@2@@std@@KU?$less@V?$basic_string@DU?$char_traits@D@std@@V?$allocator@D@2@@std@@@2@V?$allocator@U?$pair@$$CBV?$basic_string@DU?$char_traits@D@std@@V?$allocator@D@2@@std@@K@std@@@2@$0A@@std@@@std@@QBE_NABV012@@Z 004274c0 f i playerdata.obj
 0001:000264d0       ?_Mynode@const_iterator@?$_Tree@V?$_Tmap_traits@V?$basic_string@DU?$char_traits@D@std@@V?$allocator@D@2@@std@@KU?$less@V?$basic_string@DU?$char_traits@D@std@@V?$allocator@D@2@@std@@@2@V?$allocator@U?$pair@$$CBV?$basic_string@DU?$char_traits@D@std@@V?$allocator@D@2@@std@@K@std@@@2@$0A@@std@@@std@@QBEPAU_Node@?$_Tree_nod@V?$_Tmap_traits@V?$basic_string@DU?$char_traits@D@std@@V?$allocator@D@2@@std@@KU?$less@V?$basic_string@DU?$char_traits@D@std@@V?$allocator@D@2@@std@@@2@V?$allocator@U?$pair@$$CBV?$basic_string@DU?$char_traits@D@std@@V?$allocator@D@2@@std@@K@std@@@2@$0A@@std@@@3@XZ 004274d0 f i playerdata.obj
 0001:000264e0       ??0?$pair@Viterator@?$_Tree@V?$_Tmap_traits@V?$basic_string@DU?$char_traits@D@std@@V?$allocator@D@2@@std@@KU?$less@V?$basic_string@DU?$char_traits@D@std@@V?$allocator@D@2@@std@@@2@V?$allocator@U?$pair@$$CBV?$basic_string@DU?$char_traits@D@std@@V?$allocator@D@2@@std@@K@std@@@2@$0A@@std@@@std@@_N@std@@QAE@ABViterator@?$_Tree@V?$_Tmap_traits@V?$basic_string@DU?$char_traits@D@std@@V?$allocator@D@2@@std@@KU?$less@V?$basic_string@DU?$char_traits@D@std@@V?$allocator@D@2@@std@@@2@V?$allocator@U?$pair@$$CBV?$basic_string@DU?$char_traits@D@std@@V?$allocator@D@2@@std@@K@std@@@2@$0A@@std@@@1@AB_N@Z 004274e0 f i playerdata.obj
 0001:00026500       ??0?$pair@Viterator@?$_Tree@V?$_Tmap_traits@KPAU_PlayerData@@U?$less@K@std@@V?$allocator@U?$pair@$$CBKPAU_PlayerData@@@std@@@3@$0A@@std@@@std@@_N@std@@QAE@ABViterator@?$_Tree@V?$_Tmap_traits@KPAU_PlayerData@@U?$less@K@std@@V?$allocator@U?$pair@$$CBKPAU_PlayerData@@@std@@@3@$0A@@std@@@1@AB_N@Z 00427500 f i playerdata.obj
 0001:00026520       ?_Myval@?$_Tree@V?$_Tmap_traits@KPAU_PlayerData@@U?$less@K@std@@V?$allocator@U?$pair@$$CBKPAU_PlayerData@@@std@@@3@$0A@@std@@@std@@KAAAU?$pair@$$CBKPAU_PlayerData@@@2@PAU_Node@?$_Tree_nod@V?$_Tmap_traits@KPAU_PlayerData@@U?$less@K@std@@V?$allocator@U?$pair@$$CBKPAU_PlayerData@@@std@@@3@$0A@@std@@@2@@Z 00427520 f i playerdata.obj
 0001:00026530       ??0?$allocator@U?$pair@$$CBKPAU_PlayerData@@@std@@@std@@QAE@ABV01@@Z 00427530 f i playerdata.obj
 0001:00026540       ?_Color@?$_Tree@V?$_Tmap_traits@V?$basic_string@DU?$char_traits@D@std@@V?$allocator@D@2@@std@@KU?$less@V?$basic_string@DU?$char_traits@D@std@@V?$allocator@D@2@@std@@@2@V?$allocator@U?$pair@$$CBV?$basic_string@DU?$char_traits@D@std@@V?$allocator@D@2@@std@@K@std@@@2@$0A@@std@@@std@@KAAADPAU_Node@?$_Tree_nod@V?$_Tmap_traits@V?$basic_string@DU?$char_traits@D@std@@V?$allocator@D@2@@std@@KU?$less@V?$basic_string@DU?$char_traits@D@std@@V?$allocator@D@2@@std@@@2@V?$allocator@U?$pair@$$CBV?$basic_string@DU?$char_traits@D@std@@V?$allocator@D@2@@std@@K@std@@@2@$0A@@std@@@2@@Z 00427540 f i playerdata.obj
 0001:00026550       ?_Parent@?$_Tree@V?$_Tmap_traits@V?$basic_string@DU?$char_traits@D@std@@V?$allocator@D@2@@std@@KU?$less@V?$basic_string@DU?$char_traits@D@std@@V?$allocator@D@2@@std@@@2@V?$allocator@U?$pair@$$CBV?$basic_string@DU?$char_traits@D@std@@V?$allocator@D@2@@std@@K@std@@@2@$0A@@std@@@std@@KAAAPAU_Node@?$_Tree_nod@V?$_Tmap_traits@V?$basic_string@DU?$char_traits@D@std@@V?$allocator@D@2@@std@@KU?$less@V?$basic_string@DU?$char_traits@D@std@@V?$allocator@D@2@@std@@@2@V?$allocator@U?$pair@$$CBV?$basic_string@DU?$char_traits@D@std@@V?$allocator@D@2@@std@@K@std@@@2@$0A@@std@@@2@PAU342@@Z 00427550 f i playerdata.obj
 0001:00026560       ?_Myval@?$_Tree@V?$_Tmap_traits@V?$basic_string@DU?$char_traits@D@std@@V?$allocator@D@2@@std@@KU?$less@V?$basic_string@DU?$char_traits@D@std@@V?$allocator@D@2@@std@@@2@V?$allocator@U?$pair@$$CBV?$basic_string@DU?$char_traits@D@std@@V?$allocator@D@2@@std@@K@std@@@2@$0A@@std@@@std@@KAAAU?$pair@$$CBV?$basic_string@DU?$char_traits@D@std@@V?$allocator@D@2@@std@@K@2@PAU_Node@?$_Tree_nod@V?$_Tmap_traits@V?$basic_string@DU?$char_traits@D@std@@V?$allocator@D@2@@std@@KU?$less@V?$basic_string@DU?$char_traits@D@std@@V?$allocator@D@2@@std@@@2@V?$allocator@U?$pair@$$CBV?$basic_string@DU?$char_traits@D@std@@V?$allocator@D@2@@std@@K@std@@@2@$0A@@std@@@2@@Z 00427560 f i playerdata.obj
 0001:00026570       ?_Lmost@?$_Tree@V?$_Tmap_traits@V?$basic_string@DU?$char_traits@D@std@@V?$allocator@D@2@@std@@KU?$less@V?$basic_string@DU?$char_traits@D@std@@V?$allocator@D@2@@std@@@2@V?$allocator@U?$pair@$$CBV?$basic_string@DU?$char_traits@D@std@@V?$allocator@D@2@@std@@K@std@@@2@$0A@@std@@@std@@IAEAAPAU_Node@?$_Tree_nod@V?$_Tmap_traits@V?$basic_string@DU?$char_traits@D@std@@V?$allocator@D@2@@std@@KU?$less@V?$basic_string@DU?$char_traits@D@std@@V?$allocator@D@2@@std@@@2@V?$allocator@U?$pair@$$CBV?$basic_string@DU?$char_traits@D@std@@V?$allocator@D@2@@std@@K@std@@@2@$0A@@std@@@2@XZ 00427570 f i playerdata.obj
 0001:00026580       ?_Rmost@?$_Tree@V?$_Tmap_traits@V?$basic_string@DU?$char_traits@D@std@@V?$allocator@D@2@@std@@KU?$less@V?$basic_string@DU?$char_traits@D@std@@V?$allocator@D@2@@std@@@2@V?$allocator@U?$pair@$$CBV?$basic_string@DU?$char_traits@D@std@@V?$allocator@D@2@@std@@K@std@@@2@$0A@@std@@@std@@IAEAAPAU_Node@?$_Tree_nod@V?$_Tmap_traits@V?$basic_string@DU?$char_traits@D@std@@V?$allocator@D@2@@std@@KU?$less@V?$basic_string@DU?$char_traits@D@std@@V?$allocator@D@2@@std@@@2@V?$allocator@U?$pair@$$CBV?$basic_string@DU?$char_traits@D@std@@V?$allocator@D@2@@std@@K@std@@@2@$0A@@std@@@2@XZ 00427580 f i playerdata.obj
 0001:00026590       ??0?$allocator@U?$pair@$$CBV?$basic_string@DU?$char_traits@D@std@@V?$allocator@D@2@@std@@K@std@@@std@@QAE@ABV01@@Z 00427590 f i playerdata.obj
 0001:000265a0       ?deallocate@?$allocator@U_Node@?$_Tree_nod@V?$_Tmap_traits@V?$basic_string@DU?$char_traits@D@std@@V?$allocator@D@2@@std@@KU?$less@V?$basic_string@DU?$char_traits@D@std@@V?$allocator@D@2@@std@@@2@V?$allocator@U?$pair@$$CBV?$basic_string@DU?$char_traits@D@std@@V?$allocator@D@2@@std@@K@std@@@2@$0A@@std@@@std@@@std@@QAEXPAU_Node@?$_Tree_nod@V?$_Tmap_traits@V?$basic_string@DU?$char_traits@D@std@@V?$allocator@D@2@@std@@KU?$less@V?$basic_string@DU?$char_traits@D@std@@V?$allocator@D@2@@std@@@2@V?$allocator@U?$pair@$$CBV?$basic_string@DU?$char_traits@D@std@@V?$allocator@D@2@@std@@K@std@@@2@$0A@@std@@@2@I@Z 004275a0 f i playerdata.obj
 0001:000265b0       ??0const_iterator@?$_Tree@V?$_Tmap_traits@KPAU_PlayerData@@U?$less@K@std@@V?$allocator@U?$pair@$$CBKPAU_PlayerData@@@std@@@3@$0A@@std@@@std@@QAE@PAU_Node@?$_Tree_nod@V?$_Tmap_traits@KPAU_PlayerData@@U?$less@K@std@@V?$allocator@U?$pair@$$CBKPAU_PlayerData@@@std@@@3@$0A@@std@@@2@@Z 004275b0 f i playerdata.obj
 0001:000265c0       ??Dconst_iterator@?$_Tree@V?$_Tmap_traits@KPAU_PlayerData@@U?$less@K@std@@V?$allocator@U?$pair@$$CBKPAU_PlayerData@@@std@@@3@$0A@@std@@@std@@QBEABU?$pair@$$CBKPAU_PlayerData@@@2@XZ 004275c0 f i playerdata.obj
 0001:000265d0       ?_Inc@const_iterator@?$_Tree@V?$_Tmap_traits@KPAU_PlayerData@@U?$less@K@std@@V?$allocator@U?$pair@$$CBKPAU_PlayerData@@@std@@@3@$0A@@std@@@std@@QAEXXZ 004275d0 f i playerdata.obj
 0001:00026630       ??0const_iterator@?$_Tree@V?$_Tmap_traits@V?$basic_string@DU?$char_traits@D@std@@V?$allocator@D@2@@std@@KU?$less@V?$basic_string@DU?$char_traits@D@std@@V?$allocator@D@2@@std@@@2@V?$allocator@U?$pair@$$CBV?$basic_string@DU?$char_traits@D@std@@V?$allocator@D@2@@std@@K@std@@@2@$0A@@std@@@std@@QAE@PAU_Node@?$_Tree_nod@V?$_Tmap_traits@V?$basic_string@DU?$char_traits@D@std@@V?$allocator@D@2@@std@@KU?$less@V?$basic_string@DU?$char_traits@D@std@@V?$allocator@D@2@@std@@@2@V?$allocator@U?$pair@$$CBV?$basic_string@DU?$char_traits@D@std@@V?$allocator@D@2@@std@@K@std@@@2@$0A@@std@@@2@@Z 00427630 f i playerdata.obj
 0001:00026640       ??Dconst_iterator@?$_Tree@V?$_Tmap_traits@V?$basic_string@DU?$char_traits@D@std@@V?$allocator@D@2@@std@@KU?$less@V?$basic_string@DU?$char_traits@D@std@@V?$allocator@D@2@@std@@@2@V?$allocator@U?$pair@$$CBV?$basic_string@DU?$char_traits@D@std@@V?$allocator@D@2@@std@@K@std@@@2@$0A@@std@@@std@@QBEABU?$pair@$$CBV?$basic_string@DU?$char_traits@D@std@@V?$allocator@D@2@@std@@K@2@XZ 00427640 f i playerdata.obj
 0001:00026650       ??0?$pair@Viterator@?$_Tree@V?$_Tmap_traits@V?$basic_string@DU?$char_traits@D@std@@V?$allocator@D@2@@std@@KU?$less@V?$basic_string@DU?$char_traits@D@std@@V?$allocator@D@2@@std@@@2@V?$allocator@U?$pair@$$CBV?$basic_string@DU?$char_traits@D@std@@V?$allocator@D@2@@std@@K@std@@@2@$0A@@std@@@std@@V123@@std@@QAE@ABViterator@?$_Tree@V?$_Tmap_traits@V?$basic_string@DU?$char_traits@D@std@@V?$allocator@D@2@@std@@KU?$less@V?$basic_string@DU?$char_traits@D@std@@V?$allocator@D@2@@std@@@2@V?$allocator@U?$pair@$$CBV?$basic_string@DU?$char_traits@D@std@@V?$allocator@D@2@@std@@K@std@@@2@$0A@@std@@@1@0@Z 00427650 f i playerdata.obj
 0001:00026670       ?_Root@?$_Tree@V?$_Tmap_traits@KPAU_PlayerData@@U?$less@K@std@@V?$allocator@U?$pair@$$CBKPAU_PlayerData@@@std@@@3@$0A@@std@@@std@@IBEAAPAU_Node@?$_Tree_nod@V?$_Tmap_traits@KPAU_PlayerData@@U?$less@K@std@@V?$allocator@U?$pair@$$CBKPAU_PlayerData@@@std@@@3@$0A@@std@@@2@XZ 00427670 f i playerdata.obj
 0001:00026680       ?max_size@?$allocator@U?$pair@$$CBKPAU_PlayerData@@@std@@@std@@QBEIXZ 00427680 f i playerdata.obj
 0001:00026690       ?_Max@?$_Tree@V?$_Tmap_traits@V?$basic_string@DU?$char_traits@D@std@@V?$allocator@D@2@@std@@KU?$less@V?$basic_string@DU?$char_traits@D@std@@V?$allocator@D@2@@std@@@2@V?$allocator@U?$pair@$$CBV?$basic_string@DU?$char_traits@D@std@@V?$allocator@D@2@@std@@K@std@@@2@$0A@@std@@@std@@KAPAU_Node@?$_Tree_nod@V?$_Tmap_traits@V?$basic_string@DU?$char_traits@D@std@@V?$allocator@D@2@@std@@KU?$less@V?$basic_string@DU?$char_traits@D@std@@V?$allocator@D@2@@std@@@2@V?$allocator@U?$pair@$$CBV?$basic_string@DU?$char_traits@D@std@@V?$allocator@D@2@@std@@K@std@@@2@$0A@@std@@@2@PAU342@@Z 00427690 f i playerdata.obj
 0001:000266b0       ?_Min@?$_Tree@V?$_Tmap_traits@V?$basic_string@DU?$char_traits@D@std@@V?$allocator@D@2@@std@@KU?$less@V?$basic_string@DU?$char_traits@D@std@@V?$allocator@D@2@@std@@@2@V?$allocator@U?$pair@$$CBV?$basic_string@DU?$char_traits@D@std@@V?$allocator@D@2@@std@@K@std@@@2@$0A@@std@@@std@@KAPAU_Node@?$_Tree_nod@V?$_Tmap_traits@V?$basic_string@DU?$char_traits@D@std@@V?$allocator@D@2@@std@@KU?$less@V?$basic_string@DU?$char_traits@D@std@@V?$allocator@D@2@@std@@@2@V?$allocator@U?$pair@$$CBV?$basic_string@DU?$char_traits@D@std@@V?$allocator@D@2@@std@@K@std@@@2@$0A@@std@@@2@PAU342@@Z 004276b0 f i playerdata.obj
 0001:000266d0       ?_Root@?$_Tree@V?$_Tmap_traits@V?$basic_string@DU?$char_traits@D@std@@V?$allocator@D@2@@std@@KU?$less@V?$basic_string@DU?$char_traits@D@std@@V?$allocator@D@2@@std@@@2@V?$allocator@U?$pair@$$CBV?$basic_string@DU?$char_traits@D@std@@V?$allocator@D@2@@std@@K@std@@@2@$0A@@std@@@std@@IBEAAPAU_Node@?$_Tree_nod@V?$_Tmap_traits@V?$basic_string@DU?$char_traits@D@std@@V?$allocator@D@2@@std@@KU?$less@V?$basic_string@DU?$char_traits@D@std@@V?$allocator@D@2@@std@@@2@V?$allocator@U?$pair@$$CBV?$basic_string@DU?$char_traits@D@std@@V?$allocator@D@2@@std@@K@std@@@2@$0A@@std@@@2@XZ 004276d0 f i playerdata.obj
 0001:000266e0       ?max_size@?$allocator@U?$pair@$$CBV?$basic_string@DU?$char_traits@D@std@@V?$allocator@D@2@@std@@K@std@@@std@@QBEIXZ 004276e0 f i playerdata.obj
 0001:000266f0       ?_Dec@const_iterator@?$_Tree@V?$_Tmap_traits@KPAU_PlayerData@@U?$less@K@std@@V?$allocator@U?$pair@$$CBKPAU_PlayerData@@@std@@@3@$0A@@std@@@std@@QAEXXZ 004276f0 f i playerdata.obj
 0001:00026750       ?_Dec@const_iterator@?$_Tree@V?$_Tmap_traits@V?$basic_string@DU?$char_traits@D@std@@V?$allocator@D@2@@std@@KU?$less@V?$basic_string@DU?$char_traits@D@std@@V?$allocator@D@2@@std@@@2@V?$allocator@U?$pair@$$CBV?$basic_string@DU?$char_traits@D@std@@V?$allocator@D@2@@std@@K@std@@@2@$0A@@std@@@std@@QAEXXZ 00427750 f i playerdata.obj
 0001:000267b0       ??0_Node@?$_Tree_nod@V?$_Tmap_traits@KPAU_PlayerData@@U?$less@K@std@@V?$allocator@U?$pair@$$CBKPAU_PlayerData@@@std@@@3@$0A@@std@@@std@@QAE@PAU012@00ABU?$pair@$$CBKPAU_PlayerData@@@2@D@Z 004277b0 f i playerdata.obj
 0001:000267f0       ??0?$_Tmap_traits@KPAU_PlayerData@@U?$less@K@std@@V?$allocator@U?$pair@$$CBKPAU_PlayerData@@@std@@@3@$0A@@std@@QAE@U?$less@K@1@@Z 004277f0 f i playerdata.obj
 0001:00026800       ??0?$_Tmap_traits@V?$basic_string@DU?$char_traits@D@std@@V?$allocator@D@2@@std@@KU?$less@V?$basic_string@DU?$char_traits@D@std@@V?$allocator@D@2@@std@@@2@V?$allocator@U?$pair@$$CBV?$basic_string@DU?$char_traits@D@std@@V?$allocator@D@2@@std@@K@std@@@2@$0A@@std@@QAE@U?$less@V?$basic_string@DU?$char_traits@D@std@@V?$allocator@D@2@@std@@@1@@Z 00427800 f i playerdata.obj
 0001:00026810       ?_Inc@const_iterator@?$_Tree@V?$_Tmap_traits@V?$basic_string@DU?$char_traits@D@std@@V?$allocator@D@2@@std@@KU?$less@V?$basic_string@DU?$char_traits@D@std@@V?$allocator@D@2@@std@@@2@V?$allocator@U?$pair@$$CBV?$basic_string@DU?$char_traits@D@std@@V?$allocator@D@2@@std@@K@std@@@2@$0A@@std@@@std@@QAEXXZ 00427810 f i playerdata.obj
 0001:00026870       ??$_Destroy@U_Node@?$_Tree_nod@V?$_Tmap_traits@KPAU_PlayerData@@U?$less@K@std@@V?$allocator@U?$pair@$$CBKPAU_PlayerData@@@std@@@3@$0A@@std@@@std@@@std@@YAXPAU_Node@?$_Tree_nod@V?$_Tmap_traits@KPAU_PlayerData@@U?$less@K@std@@V?$allocator@U?$pair@$$CBKPAU_PlayerData@@@std@@@3@$0A@@std@@@0@@Z 00427870 f i playerdata.obj
 0001:00026880       ??$_Destroy@PAU_Node@?$_Tree_nod@V?$_Tmap_traits@KPAU_PlayerData@@U?$less@K@std@@V?$allocator@U?$pair@$$CBKPAU_PlayerData@@@std@@@3@$0A@@std@@@std@@@std@@YAXPAPAU_Node@?$_Tree_nod@V?$_Tmap_traits@KPAU_PlayerData@@U?$less@K@std@@V?$allocator@U?$pair@$$CBKPAU_PlayerData@@@std@@@3@$0A@@std@@@0@@Z 00427880 f i playerdata.obj
 0001:00026890       ??$_Destroy@PAU_Node@?$_Tree_nod@V?$_Tmap_traits@V?$basic_string@DU?$char_traits@D@std@@V?$allocator@D@2@@std@@KU?$less@V?$basic_string@DU?$char_traits@D@std@@V?$allocator@D@2@@std@@@2@V?$allocator@U?$pair@$$CBV?$basic_string@DU?$char_traits@D@std@@V?$allocator@D@2@@std@@K@std@@@2@$0A@@std@@@std@@@std@@YAXPAPAU_Node@?$_Tree_nod@V?$_Tmap_traits@V?$basic_string@DU?$char_traits@D@std@@V?$allocator@D@2@@std@@KU?$less@V?$basic_string@DU?$char_traits@D@std@@V?$allocator@D@2@@std@@@2@V?$allocator@U?$pair@$$CBV?$basic_string@DU?$char_traits@D@std@@V?$allocator@D@2@@std@@K@std@@@2@$0A@@std@@@0@@Z 00427890 f i playerdata.obj
 0001:000268a0       ??$?0U?$pair@$$CBKPAU_PlayerData@@@std@@@?$allocator@PAU_Node@?$_Tree_nod@V?$_Tmap_traits@KPAU_PlayerData@@U?$less@K@std@@V?$allocator@U?$pair@$$CBKPAU_PlayerData@@@std@@@3@$0A@@std@@@std@@@std@@QAE@ABV?$allocator@U?$pair@$$CBKPAU_PlayerData@@@std@@@1@@Z 004278a0 f i playerdata.obj
 0001:000268b0       ??$_Allocate@U_Node@?$_Tree_nod@V?$_Tmap_traits@KPAU_PlayerData@@U?$less@K@std@@V?$allocator@U?$pair@$$CBKPAU_PlayerData@@@std@@@3@$0A@@std@@@std@@@std@@YAPAU_Node@?$_Tree_nod@V?$_Tmap_traits@KPAU_PlayerData@@U?$less@K@std@@V?$allocator@U?$pair@$$CBKPAU_PlayerData@@@std@@@3@$0A@@std@@@0@IPAU120@@Z 004278b0 f i playerdata.obj
 0001:000268d0       ??$?0U?$pair@$$CBV?$basic_string@DU?$char_traits@D@std@@V?$allocator@D@2@@std@@K@std@@@?$allocator@PAU_Node@?$_Tree_nod@V?$_Tmap_traits@V?$basic_string@DU?$char_traits@D@std@@V?$allocator@D@2@@std@@KU?$less@V?$basic_string@DU?$char_traits@D@std@@V?$allocator@D@2@@std@@@2@V?$allocator@U?$pair@$$CBV?$basic_string@DU?$char_traits@D@std@@V?$allocator@D@2@@std@@K@std@@@2@$0A@@std@@@std@@@std@@QAE@ABV?$allocator@U?$pair@$$CBV?$basic_string@DU?$char_traits@D@std@@V?$allocator@D@2@@std@@K@std@@@1@@Z 004278d0 f i playerdata.obj
 0001:000268e0       ??$_Allocate@U_Node@?$_Tree_nod@V?$_Tmap_traits@V?$basic_string@DU?$char_traits@D@std@@V?$allocator@D@2@@std@@KU?$less@V?$basic_string@DU?$char_traits@D@std@@V?$allocator@D@2@@std@@@2@V?$allocator@U?$pair@$$CBV?$basic_string@DU?$char_traits@D@std@@V?$allocator@D@2@@std@@K@std@@@2@$0A@@std@@@std@@@std@@YAPAU_Node@?$_Tree_nod@V?$_Tmap_traits@V?$basic_string@DU?$char_traits@D@std@@V?$allocator@D@2@@std@@KU?$less@V?$basic_string@DU?$char_traits@D@std@@V?$allocator@D@2@@std@@@2@V?$allocator@U?$pair@$$CBV?$basic_string@DU?$char_traits@D@std@@V?$allocator@D@2@@std@@K@std@@@2@$0A@@std@@@0@IPAU120@@Z 004278e0 f i playerdata.obj
 0001:00026900       ??$?0U?$pair@$$CBKPAU_PlayerData@@@std@@@?$allocator@U_Node@?$_Tree_nod@V?$_Tmap_traits@KPAU_PlayerData@@U?$less@K@std@@V?$allocator@U?$pair@$$CBKPAU_PlayerData@@@std@@@3@$0A@@std@@@std@@@std@@QAE@ABV?$allocator@U?$pair@$$CBKPAU_PlayerData@@@std@@@1@@Z 00427900 f i playerdata.obj
 0001:00026910       ??$_Construct@PAU_Node@?$_Tree_nod@V?$_Tmap_traits@KPAU_PlayerData@@U?$less@K@std@@V?$allocator@U?$pair@$$CBKPAU_PlayerData@@@std@@@3@$0A@@std@@@std@@PAU123@@std@@YAXPAPAU_Node@?$_Tree_nod@V?$_Tmap_traits@KPAU_PlayerData@@U?$less@K@std@@V?$allocator@U?$pair@$$CBKPAU_PlayerData@@@std@@@3@$0A@@std@@@0@ABQAU120@@Z 00427910 f i playerdata.obj
 0001:00026930       ??$?0U?$pair@$$CBV?$basic_string@DU?$char_traits@D@std@@V?$allocator@D@2@@std@@K@std@@@?$allocator@U_Node@?$_Tree_nod@V?$_Tmap_traits@V?$basic_string@DU?$char_traits@D@std@@V?$allocator@D@2@@std@@KU?$less@V?$basic_string@DU?$char_traits@D@std@@V?$allocator@D@2@@std@@@2@V?$allocator@U?$pair@$$CBV?$basic_string@DU?$char_traits@D@std@@V?$allocator@D@2@@std@@K@std@@@2@$0A@@std@@@std@@@std@@QAE@ABV?$allocator@U?$pair@$$CBV?$basic_string@DU?$char_traits@D@std@@V?$allocator@D@2@@std@@K@std@@@1@@Z 00427930 f i playerdata.obj
 0001:00026940       ??$_Construct@PAU_Node@?$_Tree_nod@V?$_Tmap_traits@V?$basic_string@DU?$char_traits@D@std@@V?$allocator@D@2@@std@@KU?$less@V?$basic_string@DU?$char_traits@D@std@@V?$allocator@D@2@@std@@@2@V?$allocator@U?$pair@$$CBV?$basic_string@DU?$char_traits@D@std@@V?$allocator@D@2@@std@@K@std@@@2@$0A@@std@@@std@@PAU123@@std@@YAXPAPAU_Node@?$_Tree_nod@V?$_Tmap_traits@V?$basic_string@DU?$char_traits@D@std@@V?$allocator@D@2@@std@@KU?$less@V?$basic_string@DU?$char_traits@D@std@@V?$allocator@D@2@@std@@@2@V?$allocator@U?$pair@$$CBV?$basic_string@DU?$char_traits@D@std@@V?$allocator@D@2@@std@@K@std@@@2@$0A@@std@@@0@ABQAU120@@Z 00427940 f i playerdata.obj
 0001:00026960       ??$_Iter_cat@Viterator@?$_Tree@V?$_Tmap_traits@V?$basic_string@DU?$char_traits@D@std@@V?$allocator@D@2@@std@@KU?$less@V?$basic_string@DU?$char_traits@D@std@@V?$allocator@D@2@@std@@@2@V?$allocator@U?$pair@$$CBV?$basic_string@DU?$char_traits@D@std@@V?$allocator@D@2@@std@@K@std@@@2@$0A@@std@@@std@@@std@@YA?AUbidirectional_iterator_tag@0@ABViterator@?$_Tree@V?$_Tmap_traits@V?$basic_string@DU?$char_traits@D@std@@V?$allocator@D@2@@std@@KU?$less@V?$basic_string@DU?$char_traits@D@std@@V?$allocator@D@2@@std@@@2@V?$allocator@U?$pair@$$CBV?$basic_string@DU?$char_traits@D@std@@V?$allocator@D@2@@std@@K@std@@@2@$0A@@std@@@0@@Z 00427960 f i playerdata.obj
 0001:00026970       ?compare@?$char_traits@D@std@@SAHPBD0I@Z 00427970 f i playerdata.obj
 0001:00026990       ??9const_iterator@?$_Tree@V?$_Tmap_traits@V?$basic_string@DU?$char_traits@D@std@@V?$allocator@D@2@@std@@KU?$less@V?$basic_string@DU?$char_traits@D@std@@V?$allocator@D@2@@std@@@2@V?$allocator@U?$pair@$$CBV?$basic_string@DU?$char_traits@D@std@@V?$allocator@D@2@@std@@K@std@@@2@$0A@@std@@@std@@QBE_NABV012@@Z 00427990 f i playerdata.obj
 0001:000269b0       ?_Key@?$_Tree@V?$_Tmap_traits@KPAU_PlayerData@@U?$less@K@std@@V?$allocator@U?$pair@$$CBKPAU_PlayerData@@@std@@@3@$0A@@std@@@std@@KAABKPAU_Node@?$_Tree_nod@V?$_Tmap_traits@KPAU_PlayerData@@U?$less@K@std@@V?$allocator@U?$pair@$$CBKPAU_PlayerData@@@std@@@3@$0A@@std@@@2@@Z 004279b0 f i playerdata.obj
 0001:000269c0       ?_Lrotate@?$_Tree@V?$_Tmap_traits@KPAU_PlayerData@@U?$less@K@std@@V?$allocator@U?$pair@$$CBKPAU_PlayerData@@@std@@@3@$0A@@std@@@std@@IAEXPAU_Node@?$_Tree_nod@V?$_Tmap_traits@KPAU_PlayerData@@U?$less@K@std@@V?$allocator@U?$pair@$$CBKPAU_PlayerData@@@std@@@3@$0A@@std@@@2@@Z 004279c0 f i playerdata.obj
 0001:00026a20       ?destroy@?$allocator@U_Node@?$_Tree_nod@V?$_Tmap_traits@KPAU_PlayerData@@U?$less@K@std@@V?$allocator@U?$pair@$$CBKPAU_PlayerData@@@std@@@3@$0A@@std@@@std@@@std@@QAEXPAU_Node@?$_Tree_nod@V?$_Tmap_traits@KPAU_PlayerData@@U?$less@K@std@@V?$allocator@U?$pair@$$CBKPAU_PlayerData@@@std@@@3@$0A@@std@@@2@@Z 00427a20 f i playerdata.obj
 0001:00026a30       ?_Key@?$_Tree@V?$_Tmap_traits@V?$basic_string@DU?$char_traits@D@std@@V?$allocator@D@2@@std@@KU?$less@V?$basic_string@DU?$char_traits@D@std@@V?$allocator@D@2@@std@@@2@V?$allocator@U?$pair@$$CBV?$basic_string@DU?$char_traits@D@std@@V?$allocator@D@2@@std@@K@std@@@2@$0A@@std@@@std@@KAABV?$basic_string@DU?$char_traits@D@std@@V?$allocator@D@2@@2@PAU_Node@?$_Tree_nod@V?$_Tmap_traits@V?$basic_string@DU?$char_traits@D@std@@V?$allocator@D@2@@std@@KU?$less@V?$basic_string@DU?$char_traits@D@std@@V?$allocator@D@2@@std@@@2@V?$allocator@U?$pair@$$CBV?$basic_string@DU?$char_traits@D@std@@V?$allocator@D@2@@std@@K@std@@@2@$0A@@std@@@2@@Z 00427a30 f i playerdata.obj
 0001:00026a40       ?_Root@?$_Tree@V?$_Tmap_traits@V?$basic_string@DU?$char_traits@D@std@@V?$allocator@D@2@@std@@KU?$less@V?$basic_string@DU?$char_traits@D@std@@V?$allocator@D@2@@std@@@2@V?$allocator@U?$pair@$$CBV?$basic_string@DU?$char_traits@D@std@@V?$allocator@D@2@@std@@K@std@@@2@$0A@@std@@@std@@IAEAAPAU_Node@?$_Tree_nod@V?$_Tmap_traits@V?$basic_string@DU?$char_traits@D@std@@V?$allocator@D@2@@std@@KU?$less@V?$basic_string@DU?$char_traits@D@std@@V?$allocator@D@2@@std@@@2@V?$allocator@U?$pair@$$CBV?$basic_string@DU?$char_traits@D@std@@V?$allocator@D@2@@std@@K@std@@@2@$0A@@std@@@2@XZ 00427a40 f i playerdata.obj
 0001:00026a50       ??0iterator@?$_Tree@V?$_Tmap_traits@KPAU_PlayerData@@U?$less@K@std@@V?$allocator@U?$pair@$$CBKPAU_PlayerData@@@std@@@3@$0A@@std@@@std@@QAE@PAU_Node@?$_Tree_nod@V?$_Tmap_traits@KPAU_PlayerData@@U?$less@K@std@@V?$allocator@U?$pair@$$CBKPAU_PlayerData@@@std@@@3@$0A@@std@@@2@@Z 00427a50 f i playerdata.obj
 0001:00026a60       ??Diterator@?$_Tree@V?$_Tmap_traits@KPAU_PlayerData@@U?$less@K@std@@V?$allocator@U?$pair@$$CBKPAU_PlayerData@@@std@@@3@$0A@@std@@@std@@QBEAAU?$pair@$$CBKPAU_PlayerData@@@2@XZ 00427a60 f i playerdata.obj
 0001:00026a70       ??Econst_iterator@?$_Tree@V?$_Tmap_traits@KPAU_PlayerData@@U?$less@K@std@@V?$allocator@U?$pair@$$CBKPAU_PlayerData@@@std@@@3@$0A@@std@@@std@@QAEAAV012@XZ 00427a70 f i playerdata.obj
 0001:00026a80       ??0iterator@?$_Tree@V?$_Tmap_traits@V?$basic_string@DU?$char_traits@D@std@@V?$allocator@D@2@@std@@KU?$less@V?$basic_string@DU?$char_traits@D@std@@V?$allocator@D@2@@std@@@2@V?$allocator@U?$pair@$$CBV?$basic_string@DU?$char_traits@D@std@@V?$allocator@D@2@@std@@K@std@@@2@$0A@@std@@@std@@QAE@PAU_Node@?$_Tree_nod@V?$_Tmap_traits@V?$basic_string@DU?$char_traits@D@std@@V?$allocator@D@2@@std@@KU?$less@V?$basic_string@DU?$char_traits@D@std@@V?$allocator@D@2@@std@@@2@V?$allocator@U?$pair@$$CBV?$basic_string@DU?$char_traits@D@std@@V?$allocator@D@2@@std@@K@std@@@2@$0A@@std@@@2@@Z 00427a80 f i playerdata.obj
 0001:00026a90       ??Diterator@?$_Tree@V?$_Tmap_traits@V?$basic_string@DU?$char_traits@D@std@@V?$allocator@D@2@@std@@KU?$less@V?$basic_string@DU?$char_traits@D@std@@V?$allocator@D@2@@std@@@2@V?$allocator@U?$pair@$$CBV?$basic_string@DU?$char_traits@D@std@@V?$allocator@D@2@@std@@K@std@@@2@$0A@@std@@@std@@QBEAAU?$pair@$$CBV?$basic_string@DU?$char_traits@D@std@@V?$allocator@D@2@@std@@K@2@XZ 00427a90 f i playerdata.obj
 0001:00026aa0       ?max_size@?$_Tree@V?$_Tmap_traits@KPAU_PlayerData@@U?$less@K@std@@V?$allocator@U?$pair@$$CBKPAU_PlayerData@@@std@@@3@$0A@@std@@@std@@QBEIXZ 00427aa0 f i playerdata.obj
 0001:00026ab0       ?_Lbound@?$_Tree@V?$_Tmap_traits@KPAU_PlayerData@@U?$less@K@std@@V?$allocator@U?$pair@$$CBKPAU_PlayerData@@@std@@@3@$0A@@std@@@std@@IBEPAU_Node@?$_Tree_nod@V?$_Tmap_traits@KPAU_PlayerData@@U?$less@K@std@@V?$allocator@U?$pair@$$CBKPAU_PlayerData@@@std@@@3@$0A@@std@@@2@ABK@Z 00427ab0 f i playerdata.obj
 0001:00026ae0       ?destroy@?$allocator@PAU_Node@?$_Tree_nod@V?$_Tmap_traits@KPAU_PlayerData@@U?$less@K@std@@V?$allocator@U?$pair@$$CBKPAU_PlayerData@@@std@@@3@$0A@@std@@@std@@@std@@QAEXPAPAU_Node@?$_Tree_nod@V?$_Tmap_traits@KPAU_PlayerData@@U?$less@K@std@@V?$allocator@U?$pair@$$CBKPAU_PlayerData@@@std@@@3@$0A@@std@@@2@@Z 00427ae0 f i playerdata.obj
 0001:00026af0       ?max_size@?$_Tree@V?$_Tmap_traits@V?$basic_string@DU?$char_traits@D@std@@V?$allocator@D@2@@std@@KU?$less@V?$basic_string@DU?$char_traits@D@std@@V?$allocator@D@2@@std@@@2@V?$allocator@U?$pair@$$CBV?$basic_string@DU?$char_traits@D@std@@V?$allocator@D@2@@std@@K@std@@@2@$0A@@std@@@std@@QBEIXZ 00427af0 f i playerdata.obj
 0001:00026b00       ?_Lrotate@?$_Tree@V?$_Tmap_traits@V?$basic_string@DU?$char_traits@D@std@@V?$allocator@D@2@@std@@KU?$less@V?$basic_string@DU?$char_traits@D@std@@V?$allocator@D@2@@std@@@2@V?$allocator@U?$pair@$$CBV?$basic_string@DU?$char_traits@D@std@@V?$allocator@D@2@@std@@K@std@@@2@$0A@@std@@@std@@IAEXPAU_Node@?$_Tree_nod@V?$_Tmap_traits@V?$basic_string@DU?$char_traits@D@std@@V?$allocator@D@2@@std@@KU?$less@V?$basic_string@DU?$char_traits@D@std@@V?$allocator@D@2@@std@@@2@V?$allocator@U?$pair@$$CBV?$basic_string@DU?$char_traits@D@std@@V?$allocator@D@2@@std@@K@std@@@2@$0A@@std@@@2@@Z 00427b00 f i playerdata.obj
 0001:00026b60       ?_Rrotate@?$_Tree@V?$_Tmap_traits@V?$basic_string@DU?$char_traits@D@std@@V?$allocator@D@2@@std@@KU?$less@V?$basic_string@DU?$char_traits@D@std@@V?$allocator@D@2@@std@@@2@V?$allocator@U?$pair@$$CBV?$basic_string@DU?$char_traits@D@std@@V?$allocator@D@2@@std@@K@std@@@2@$0A@@std@@@std@@IAEXPAU_Node@?$_Tree_nod@V?$_Tmap_traits@V?$basic_string@DU?$char_traits@D@std@@V?$allocator@D@2@@std@@KU?$less@V?$basic_string@DU?$char_traits@D@std@@V?$allocator@D@2@@std@@@2@V?$allocator@U?$pair@$$CBV?$basic_string@DU?$char_traits@D@std@@V?$allocator@D@2@@std@@K@std@@@2@$0A@@std@@@2@@Z 00427b60 f i playerdata.obj
 0001:00026bc0       ?destroy@?$allocator@PAU_Node@?$_Tree_nod@V?$_Tmap_traits@V?$basic_string@DU?$char_traits@D@std@@V?$allocator@D@2@@std@@KU?$less@V?$basic_string@DU?$char_traits@D@std@@V?$allocator@D@2@@std@@@2@V?$allocator@U?$pair@$$CBV?$basic_string@DU?$char_traits@D@std@@V?$allocator@D@2@@std@@K@std@@@2@$0A@@std@@@std@@@std@@QAEXPAPAU_Node@?$_Tree_nod@V?$_Tmap_traits@V?$basic_string@DU?$char_traits@D@std@@V?$allocator@D@2@@std@@KU?$less@V?$basic_string@DU?$char_traits@D@std@@V?$allocator@D@2@@std@@@2@V?$allocator@U?$pair@$$CBV?$basic_string@DU?$char_traits@D@std@@V?$allocator@D@2@@std@@K@std@@@2@$0A@@std@@@2@@Z 00427bc0 f i playerdata.obj
 0001:00026bd0       ??Fconst_iterator@?$_Tree@V?$_Tmap_traits@KPAU_PlayerData@@U?$less@K@std@@V?$allocator@U?$pair@$$CBKPAU_PlayerData@@@std@@@3@$0A@@std@@@std@@QAEAAV012@XZ 00427bd0 f i playerdata.obj
 0001:00026be0       ??Fconst_iterator@?$_Tree@V?$_Tmap_traits@V?$basic_string@DU?$char_traits@D@std@@V?$allocator@D@2@@std@@KU?$less@V?$basic_string@DU?$char_traits@D@std@@V?$allocator@D@2@@std@@@2@V?$allocator@U?$pair@$$CBV?$basic_string@DU?$char_traits@D@std@@V?$allocator@D@2@@std@@K@std@@@2@$0A@@std@@@std@@QAEAAV012@XZ 00427be0 f i playerdata.obj
 0001:00026bf0       ?allocate@?$allocator@U_Node@?$_Tree_nod@V?$_Tmap_traits@KPAU_PlayerData@@U?$less@K@std@@V?$allocator@U?$pair@$$CBKPAU_PlayerData@@@std@@@3@$0A@@std@@@std@@@std@@QAEPAU_Node@?$_Tree_nod@V?$_Tmap_traits@KPAU_PlayerData@@U?$less@K@std@@V?$allocator@U?$pair@$$CBKPAU_PlayerData@@@std@@@3@$0A@@std@@@2@I@Z 00427bf0 f i playerdata.obj
 0001:00026c10       ?allocate@?$allocator@U_Node@?$_Tree_nod@V?$_Tmap_traits@V?$basic_string@DU?$char_traits@D@std@@V?$allocator@D@2@@std@@KU?$less@V?$basic_string@DU?$char_traits@D@std@@V?$allocator@D@2@@std@@@2@V?$allocator@U?$pair@$$CBV?$basic_string@DU?$char_traits@D@std@@V?$allocator@D@2@@std@@K@std@@@2@$0A@@std@@@std@@@std@@QAEPAU_Node@?$_Tree_nod@V?$_Tmap_traits@V?$basic_string@DU?$char_traits@D@std@@V?$allocator@D@2@@std@@KU?$less@V?$basic_string@DU?$char_traits@D@std@@V?$allocator@D@2@@std@@@2@V?$allocator@U?$pair@$$CBV?$basic_string@DU?$char_traits@D@std@@V?$allocator@D@2@@std@@K@std@@@2@$0A@@std@@@2@I@Z 00427c10 f i playerdata.obj
 0001:00026c30       ??0?$_Tree_nod@V?$_Tmap_traits@KPAU_PlayerData@@U?$less@K@std@@V?$allocator@U?$pair@$$CBKPAU_PlayerData@@@std@@@3@$0A@@std@@@std@@IAE@ABU?$less@K@1@V?$allocator@U?$pair@$$CBKPAU_PlayerData@@@std@@@1@@Z 00427c30 f i playerdata.obj
 0001:00026c40       ?construct@?$allocator@PAU_Node@?$_Tree_nod@V?$_Tmap_traits@KPAU_PlayerData@@U?$less@K@std@@V?$allocator@U?$pair@$$CBKPAU_PlayerData@@@std@@@3@$0A@@std@@@std@@@std@@QAEXPAPAU_Node@?$_Tree_nod@V?$_Tmap_traits@KPAU_PlayerData@@U?$less@K@std@@V?$allocator@U?$pair@$$CBKPAU_PlayerData@@@std@@@3@$0A@@std@@@2@ABQAU342@@Z 00427c40 f i playerdata.obj
 0001:00026c60       ??0?$_Tree_nod@V?$_Tmap_traits@V?$basic_string@DU?$char_traits@D@std@@V?$allocator@D@2@@std@@KU?$less@V?$basic_string@DU?$char_traits@D@std@@V?$allocator@D@2@@std@@@2@V?$allocator@U?$pair@$$CBV?$basic_string@DU?$char_traits@D@std@@V?$allocator@D@2@@std@@K@std@@@2@$0A@@std@@@std@@IAE@ABU?$less@V?$basic_string@DU?$char_traits@D@std@@V?$allocator@D@2@@std@@@1@V?$allocator@U?$pair@$$CBV?$basic_string@DU?$char_traits@D@std@@V?$allocator@D@2@@std@@K@std@@@1@@Z 00427c60 f i playerdata.obj
 0001:00026c70       ?construct@?$allocator@PAU_Node@?$_Tree_nod@V?$_Tmap_traits@V?$basic_string@DU?$char_traits@D@std@@V?$allocator@D@2@@std@@KU?$less@V?$basic_string@DU?$char_traits@D@std@@V?$allocator@D@2@@std@@@2@V?$allocator@U?$pair@$$CBV?$basic_string@DU?$char_traits@D@std@@V?$allocator@D@2@@std@@K@std@@@2@$0A@@std@@@std@@@std@@QAEXPAPAU_Node@?$_Tree_nod@V?$_Tmap_traits@V?$basic_string@DU?$char_traits@D@std@@V?$allocator@D@2@@std@@KU?$less@V?$basic_string@DU?$char_traits@D@std@@V?$allocator@D@2@@std@@@2@V?$allocator@U?$pair@$$CBV?$basic_string@DU?$char_traits@D@std@@V?$allocator@D@2@@std@@K@std@@@2@$0A@@std@@@2@ABQAU342@@Z 00427c70 f i playerdata.obj
 0001:00026c90       ??Econst_iterator@?$_Tree@V?$_Tmap_traits@V?$basic_string@DU?$char_traits@D@std@@V?$allocator@D@2@@std@@KU?$less@V?$basic_string@DU?$char_traits@D@std@@V?$allocator@D@2@@std@@@2@V?$allocator@U?$pair@$$CBV?$basic_string@DU?$char_traits@D@std@@V?$allocator@D@2@@std@@K@std@@@2@$0A@@std@@@std@@QAEAAV012@XZ 00427c90 f i playerdata.obj
 0001:00026ca0       ?compare@?$basic_string@DU?$char_traits@D@std@@V?$allocator@D@2@@std@@QBEHIIPBDI@Z 00427ca0 f i playerdata.obj
 0001:00026d20       ?begin@?$_Tree@V?$_Tmap_traits@KPAU_PlayerData@@U?$less@K@std@@V?$allocator@U?$pair@$$CBKPAU_PlayerData@@@std@@@3@$0A@@std@@@std@@QAE?AViterator@12@XZ 00427d20 f i playerdata.obj
 0001:00026d30       ?end@?$_Tree@V?$_Tmap_traits@KPAU_PlayerData@@U?$less@K@std@@V?$allocator@U?$pair@$$CBKPAU_PlayerData@@@std@@@3@$0A@@std@@@std@@QAE?AViterator@12@XZ 00427d30 f i playerdata.obj
 0001:00026d40       ?end@?$_Tree@V?$_Tmap_traits@V?$basic_string@DU?$char_traits@D@std@@V?$allocator@D@2@@std@@KU?$less@V?$basic_string@DU?$char_traits@D@std@@V?$allocator@D@2@@std@@@2@V?$allocator@U?$pair@$$CBV?$basic_string@DU?$char_traits@D@std@@V?$allocator@D@2@@std@@K@std@@@2@$0A@@std@@@std@@QAE?AViterator@12@XZ 00427d40 f i playerdata.obj
 0001:00026d50       ??Citerator@?$_Tree@V?$_Tmap_traits@KPAU_PlayerData@@U?$less@K@std@@V?$allocator@U?$pair@$$CBKPAU_PlayerData@@@std@@@3@$0A@@std@@@std@@QBEPAU?$pair@$$CBKPAU_PlayerData@@@2@XZ 00427d50 f i playerdata.obj
 0001:00026d60       ??Eiterator@?$_Tree@V?$_Tmap_traits@KPAU_PlayerData@@U?$less@K@std@@V?$allocator@U?$pair@$$CBKPAU_PlayerData@@@std@@@3@$0A@@std@@@std@@QAEAAV012@XZ 00427d60 f i playerdata.obj
 0001:00026d70       ??Citerator@?$_Tree@V?$_Tmap_traits@V?$basic_string@DU?$char_traits@D@std@@V?$allocator@D@2@@std@@KU?$less@V?$basic_string@DU?$char_traits@D@std@@V?$allocator@D@2@@std@@@2@V?$allocator@U?$pair@$$CBV?$basic_string@DU?$char_traits@D@std@@V?$allocator@D@2@@std@@K@std@@@2@$0A@@std@@@std@@QBEPAU?$pair@$$CBV?$basic_string@DU?$char_traits@D@std@@V?$allocator@D@2@@std@@K@2@XZ 00427d70 f i playerdata.obj
 0001:00026d80       ?lower_bound@?$_Tree@V?$_Tmap_traits@KPAU_PlayerData@@U?$less@K@std@@V?$allocator@U?$pair@$$CBKPAU_PlayerData@@@std@@@3@$0A@@std@@@std@@QAE?AViterator@12@ABK@Z 00427d80 f i playerdata.obj
 0001:00026dc0       ?_Erase@?$_Tree@V?$_Tmap_traits@KPAU_PlayerData@@U?$less@K@std@@V?$allocator@U?$pair@$$CBKPAU_PlayerData@@@std@@@3@$0A@@std@@@std@@IAEXPAU_Node@?$_Tree_nod@V?$_Tmap_traits@KPAU_PlayerData@@U?$less@K@std@@V?$allocator@U?$pair@$$CBKPAU_PlayerData@@@std@@@3@$0A@@std@@@2@@Z 00427dc0 f i playerdata.obj
 0001:00026e00       ?begin@?$_Tree@V?$_Tmap_traits@V?$basic_string@DU?$char_traits@D@std@@V?$allocator@D@2@@std@@KU?$less@V?$basic_string@DU?$char_traits@D@std@@V?$allocator@D@2@@std@@@2@V?$allocator@U?$pair@$$CBV?$basic_string@DU?$char_traits@D@std@@V?$allocator@D@2@@std@@K@std@@@2@$0A@@std@@@std@@QAE?AViterator@12@XZ 00427e00 f i playerdata.obj
 0001:00026e10       ??Fiterator@?$_Tree@V?$_Tmap_traits@KPAU_PlayerData@@U?$less@K@std@@V?$allocator@U?$pair@$$CBKPAU_PlayerData@@@std@@@3@$0A@@std@@@std@@QAEAAV012@XZ 00427e10 f i playerdata.obj
 0001:00026e20       ??Fiterator@?$_Tree@V?$_Tmap_traits@V?$basic_string@DU?$char_traits@D@std@@V?$allocator@D@2@@std@@KU?$less@V?$basic_string@DU?$char_traits@D@std@@V?$allocator@D@2@@std@@@2@V?$allocator@U?$pair@$$CBV?$basic_string@DU?$char_traits@D@std@@V?$allocator@D@2@@std@@K@std@@@2@$0A@@std@@@std@@QAEAAV012@XZ 00427e20 f i playerdata.obj
 0001:00026e30       ?_Buynode@?$_Tree@V?$_Tmap_traits@KPAU_PlayerData@@U?$less@K@std@@V?$allocator@U?$pair@$$CBKPAU_PlayerData@@@std@@@3@$0A@@std@@@std@@IAEPAU_Node@?$_Tree_nod@V?$_Tmap_traits@KPAU_PlayerData@@U?$less@K@std@@V?$allocator@U?$pair@$$CBKPAU_PlayerData@@@std@@@3@$0A@@std@@@2@PAU342@00ABU?$pair@$$CBKPAU_PlayerData@@@2@D@Z 00427e30 f i playerdata.obj
 0001:00026e70       ?_Buynode@?$_Tree@V?$_Tmap_traits@KPAU_PlayerData@@U?$less@K@std@@V?$allocator@U?$pair@$$CBKPAU_PlayerData@@@std@@@3@$0A@@std@@@std@@IAEPAU_Node@?$_Tree_nod@V?$_Tmap_traits@KPAU_PlayerData@@U?$less@K@std@@V?$allocator@U?$pair@$$CBKPAU_PlayerData@@@std@@@3@$0A@@std@@@2@XZ 00427e70 f i playerdata.obj
 0001:00026eb0       ??0?$_Tree_ptr@V?$_Tmap_traits@KPAU_PlayerData@@U?$less@K@std@@V?$allocator@U?$pair@$$CBKPAU_PlayerData@@@std@@@3@$0A@@std@@@std@@IAE@ABU?$less@K@1@V?$allocator@U?$pair@$$CBKPAU_PlayerData@@@std@@@1@@Z 00427eb0 f i playerdata.obj
 0001:00026ec0       ?_Buynode@?$_Tree@V?$_Tmap_traits@V?$basic_string@DU?$char_traits@D@std@@V?$allocator@D@2@@std@@KU?$less@V?$basic_string@DU?$char_traits@D@std@@V?$allocator@D@2@@std@@@2@V?$allocator@U?$pair@$$CBV?$basic_string@DU?$char_traits@D@std@@V?$allocator@D@2@@std@@K@std@@@2@$0A@@std@@@std@@IAEPAU_Node@?$_Tree_nod@V?$_Tmap_traits@V?$basic_string@DU?$char_traits@D@std@@V?$allocator@D@2@@std@@KU?$less@V?$basic_string@DU?$char_traits@D@std@@V?$allocator@D@2@@std@@@2@V?$allocator@U?$pair@$$CBV?$basic_string@DU?$char_traits@D@std@@V?$allocator@D@2@@std@@K@std@@@2@$0A@@std@@@2@XZ 00427ec0 f i playerdata.obj
 0001:00026f00       ??0?$_Tree_ptr@V?$_Tmap_traits@V?$basic_string@DU?$char_traits@D@std@@V?$allocator@D@2@@std@@KU?$less@V?$basic_string@DU?$char_traits@D@std@@V?$allocator@D@2@@std@@@2@V?$allocator@U?$pair@$$CBV?$basic_string@DU?$char_traits@D@std@@V?$allocator@D@2@@std@@K@std@@@2@$0A@@std@@@std@@IAE@ABU?$less@V?$basic_string@DU?$char_traits@D@std@@V?$allocator@D@2@@std@@@1@V?$allocator@U?$pair@$$CBV?$basic_string@DU?$char_traits@D@std@@V?$allocator@D@2@@std@@K@std@@@1@@Z 00427f00 f i playerdata.obj
 0001:00026f10       ??Eiterator@?$_Tree@V?$_Tmap_traits@KPAU_PlayerData@@U?$less@K@std@@V?$allocator@U?$pair@$$CBKPAU_PlayerData@@@std@@@3@$0A@@std@@@std@@QAE?AV012@H@Z 00427f10 f i playerdata.obj
 0001:00026f30       ??Eiterator@?$_Tree@V?$_Tmap_traits@V?$basic_string@DU?$char_traits@D@std@@V?$allocator@D@2@@std@@KU?$less@V?$basic_string@DU?$char_traits@D@std@@V?$allocator@D@2@@std@@@2@V?$allocator@U?$pair@$$CBV?$basic_string@DU?$char_traits@D@std@@V?$allocator@D@2@@std@@K@std@@@2@$0A@@std@@@std@@QAEAAV012@XZ 00427f30 f i playerdata.obj
 0001:00026f40       ?compare@?$basic_string@DU?$char_traits@D@std@@V?$allocator@D@2@@std@@QBEHABV12@@Z 00427f40 f i playerdata.obj
 0001:00026f80       ??$_Distance2@Viterator@?$_Tree@V?$_Tmap_traits@V?$basic_string@DU?$char_traits@D@std@@V?$allocator@D@2@@std@@KU?$less@V?$basic_string@DU?$char_traits@D@std@@V?$allocator@D@2@@std@@@2@V?$allocator@U?$pair@$$CBV?$basic_string@DU?$char_traits@D@std@@V?$allocator@D@2@@std@@K@std@@@2@$0A@@std@@@std@@I@std@@YAXViterator@?$_Tree@V?$_Tmap_traits@V?$basic_string@DU?$char_traits@D@std@@V?$allocator@D@2@@std@@KU?$less@V?$basic_string@DU?$char_traits@D@std@@V?$allocator@D@2@@std@@@2@V?$allocator@U?$pair@$$CBV?$basic_string@DU?$char_traits@D@std@@V?$allocator@D@2@@std@@K@std@@@2@$0A@@std@@@0@0AAIUbidirectional_iterator_tag@0@@Z 00427f80 f i playerdata.obj
 0001:00026fb0       ?clear@?$_Tree@V?$_Tmap_traits@KPAU_PlayerData@@U?$less@K@std@@V?$allocator@U?$pair@$$CBKPAU_PlayerData@@@std@@@3@$0A@@std@@@std@@QAEXXZ 00427fb0 f i playerdata.obj
 0001:00026fe0       ?find@?$_Tree@V?$_Tmap_traits@KPAU_PlayerData@@U?$less@K@std@@V?$allocator@U?$pair@$$CBKPAU_PlayerData@@@std@@@3@$0A@@std@@@std@@QAE?AViterator@12@ABK@Z 00427fe0 f i playerdata.obj
 0001:00027050       ?_Init@?$_Tree@V?$_Tmap_traits@KPAU_PlayerData@@U?$less@K@std@@V?$allocator@U?$pair@$$CBKPAU_PlayerData@@@std@@@3@$0A@@std@@@std@@IAEXXZ 00428050 f i playerdata.obj
 0001:00027080       ??0?$_Tree_val@V?$_Tmap_traits@KPAU_PlayerData@@U?$less@K@std@@V?$allocator@U?$pair@$$CBKPAU_PlayerData@@@std@@@3@$0A@@std@@@std@@IAE@ABU?$less@K@1@V?$allocator@U?$pair@$$CBKPAU_PlayerData@@@std@@@1@@Z 00428080 f i playerdata.obj
 0001:00027090       ?_Init@?$_Tree@V?$_Tmap_traits@V?$basic_string@DU?$char_traits@D@std@@V?$allocator@D@2@@std@@KU?$less@V?$basic_string@DU?$char_traits@D@std@@V?$allocator@D@2@@std@@@2@V?$allocator@U?$pair@$$CBV?$basic_string@DU?$char_traits@D@std@@V?$allocator@D@2@@std@@K@std@@@2@$0A@@std@@@std@@IAEXXZ 00428090 f i playerdata.obj
 0001:000270c0       ??0?$_Tree_val@V?$_Tmap_traits@V?$basic_string@DU?$char_traits@D@std@@V?$allocator@D@2@@std@@KU?$less@V?$basic_string@DU?$char_traits@D@std@@V?$allocator@D@2@@std@@@2@V?$allocator@U?$pair@$$CBV?$basic_string@DU?$char_traits@D@std@@V?$allocator@D@2@@std@@K@std@@@2@$0A@@std@@@std@@IAE@ABU?$less@V?$basic_string@DU?$char_traits@D@std@@V?$allocator@D@2@@std@@@1@V?$allocator@U?$pair@$$CBV?$basic_string@DU?$char_traits@D@std@@V?$allocator@D@2@@std@@K@std@@@1@@Z 004280c0 f i playerdata.obj
 0001:000270d0       ??Eiterator@?$_Tree@V?$_Tmap_traits@V?$basic_string@DU?$char_traits@D@std@@V?$allocator@D@2@@std@@KU?$less@V?$basic_string@DU?$char_traits@D@std@@V?$allocator@D@2@@std@@@2@V?$allocator@U?$pair@$$CBV?$basic_string@DU?$char_traits@D@std@@V?$allocator@D@2@@std@@K@std@@@2@$0A@@std@@@std@@QAE?AV012@H@Z 004280d0 f i playerdata.obj
 0001:000270f0       ??$_Distance@Viterator@?$_Tree@V?$_Tmap_traits@V?$basic_string@DU?$char_traits@D@std@@V?$allocator@D@2@@std@@KU?$less@V?$basic_string@DU?$char_traits@D@std@@V?$allocator@D@2@@std@@@2@V?$allocator@U?$pair@$$CBV?$basic_string@DU?$char_traits@D@std@@V?$allocator@D@2@@std@@K@std@@@2@$0A@@std@@@std@@I@std@@YAXViterator@?$_Tree@V?$_Tmap_traits@V?$basic_string@DU?$char_traits@D@std@@V?$allocator@D@2@@std@@KU?$less@V?$basic_string@DU?$char_traits@D@std@@V?$allocator@D@2@@std@@@2@V?$allocator@U?$pair@$$CBV?$basic_string@DU?$char_traits@D@std@@V?$allocator@D@2@@std@@K@std@@@2@$0A@@std@@@0@0AAI@Z 004280f0 f i playerdata.obj
 0001:00027130       ??$?MDU?$char_traits@D@std@@V?$allocator@D@1@@std@@YA_NABV?$basic_string@DU?$char_traits@D@std@@V?$allocator@D@2@@0@0@Z 00428130 f i playerdata.obj
 0001:00027160       ?Clear@CPlayerDataCenter@@QAEXXZ 00428160 f   playerdata.obj
 0001:00027230       ?GetPlayerData@CPlayerDataCenter@@QAEPAU_PlayerData@@K@Z 00428230 f   playerdata.obj
 0001:00027270       ??1?$pair@$$CBV?$basic_string@DU?$char_traits@D@std@@V?$allocator@D@2@@std@@K@std@@QAE@XZ 00428270 f i playerdata.obj
 0001:000272a0       ?GetPlayerString@CPlayerDataCenter@@QAEPBDK@Z 004282a0 f   playerdata.obj
 0001:000272e0       ?ReplacePlayerString@CPlayerDataCenter@@QAEXKPAD0@Z 004282e0 f   playerdata.obj
 0001:00027350       ??R?$less@V?$basic_string@DU?$char_traits@D@std@@V?$allocator@D@2@@std@@@std@@QBE_NABV?$basic_string@DU?$char_traits@D@std@@V?$allocator@D@2@@1@0@Z 00428350 f i playerdata.obj
 0001:00027390       ??0?$_Tree@V?$_Tmap_traits@KPAU_PlayerData@@U?$less@K@std@@V?$allocator@U?$pair@$$CBKPAU_PlayerData@@@std@@@3@$0A@@std@@@std@@QAE@ABU?$less@K@1@ABV?$allocator@U?$pair@$$CBKPAU_PlayerData@@@std@@@1@@Z 00428390 f i playerdata.obj
 0001:000273c0       ??0?$_Tree@V?$_Tmap_traits@V?$basic_string@DU?$char_traits@D@std@@V?$allocator@D@2@@std@@KU?$less@V?$basic_string@DU?$char_traits@D@std@@V?$allocator@D@2@@std@@@2@V?$allocator@U?$pair@$$CBV?$basic_string@DU?$char_traits@D@std@@V?$allocator@D@2@@std@@K@std@@@2@$0A@@std@@@std@@QAE@ABU?$less@V?$basic_string@DU?$char_traits@D@std@@V?$allocator@D@2@@std@@@1@ABV?$allocator@U?$pair@$$CBV?$basic_string@DU?$char_traits@D@std@@V?$allocator@D@2@@std@@K@std@@@1@@Z 004283c0 f i playerdata.obj
 0001:000273f0       ?_Lbound@?$_Tree@V?$_Tmap_traits@V?$basic_string@DU?$char_traits@D@std@@V?$allocator@D@2@@std@@KU?$less@V?$basic_string@DU?$char_traits@D@std@@V?$allocator@D@2@@std@@@2@V?$allocator@U?$pair@$$CBV?$basic_string@DU?$char_traits@D@std@@V?$allocator@D@2@@std@@K@std@@@2@$0A@@std@@@std@@IBEPAU_Node@?$_Tree_nod@V?$_Tmap_traits@V?$basic_string@DU?$char_traits@D@std@@V?$allocator@D@2@@std@@KU?$less@V?$basic_string@DU?$char_traits@D@std@@V?$allocator@D@2@@std@@@2@V?$allocator@U?$pair@$$CBV?$basic_string@DU?$char_traits@D@std@@V?$allocator@D@2@@std@@K@std@@@2@$0A@@std@@@2@ABV?$basic_string@DU?$char_traits@D@std@@V?$allocator@D@2@@2@@Z 004283f0 f i playerdata.obj
 0001:000274b0       ?_Ubound@?$_Tree@V?$_Tmap_traits@V?$basic_string@DU?$char_traits@D@std@@V?$allocator@D@2@@std@@KU?$less@V?$basic_string@DU?$char_traits@D@std@@V?$allocator@D@2@@std@@@2@V?$allocator@U?$pair@$$CBV?$basic_string@DU?$char_traits@D@std@@V?$allocator@D@2@@std@@K@std@@@2@$0A@@std@@@std@@IBEPAU_Node@?$_Tree_nod@V?$_Tmap_traits@V?$basic_string@DU?$char_traits@D@std@@V?$allocator@D@2@@std@@KU?$less@V?$basic_string@DU?$char_traits@D@std@@V?$allocator@D@2@@std@@@2@V?$allocator@U?$pair@$$CBV?$basic_string@DU?$char_traits@D@std@@V?$allocator@D@2@@std@@K@std@@@2@$0A@@std@@@2@ABV?$basic_string@DU?$char_traits@D@std@@V?$allocator@D@2@@2@@Z 004284b0 f i playerdata.obj
 0001:00027560       ??1_Node@?$_Tree_nod@V?$_Tmap_traits@V?$basic_string@DU?$char_traits@D@std@@V?$allocator@D@2@@std@@KU?$less@V?$basic_string@DU?$char_traits@D@std@@V?$allocator@D@2@@std@@@2@V?$allocator@U?$pair@$$CBV?$basic_string@DU?$char_traits@D@std@@V?$allocator@D@2@@std@@K@std@@@2@$0A@@std@@@std@@QAE@XZ 00428560 f i playerdata.obj
 0001:00027590       ?lower_bound@?$_Tree@V?$_Tmap_traits@V?$basic_string@DU?$char_traits@D@std@@V?$allocator@D@2@@std@@KU?$less@V?$basic_string@DU?$char_traits@D@std@@V?$allocator@D@2@@std@@@2@V?$allocator@U?$pair@$$CBV?$basic_string@DU?$char_traits@D@std@@V?$allocator@D@2@@std@@K@std@@@2@$0A@@std@@@std@@QAE?AViterator@12@ABV?$basic_string@DU?$char_traits@D@std@@V?$allocator@D@2@@2@@Z 00428590 f i playerdata.obj
 0001:000275b0       ?upper_bound@?$_Tree@V?$_Tmap_traits@V?$basic_string@DU?$char_traits@D@std@@V?$allocator@D@2@@std@@KU?$less@V?$basic_string@DU?$char_traits@D@std@@V?$allocator@D@2@@std@@@2@V?$allocator@U?$pair@$$CBV?$basic_string@DU?$char_traits@D@std@@V?$allocator@D@2@@std@@K@std@@@2@$0A@@std@@@std@@QAE?AViterator@12@ABV?$basic_string@DU?$char_traits@D@std@@V?$allocator@D@2@@2@@Z 004285b0 f i playerdata.obj
 0001:000275d0       ??_G_Node@?$_Tree_nod@V?$_Tmap_traits@V?$basic_string@DU?$char_traits@D@std@@V?$allocator@D@2@@std@@KU?$less@V?$basic_string@DU?$char_traits@D@std@@V?$allocator@D@2@@std@@@2@V?$allocator@U?$pair@$$CBV?$basic_string@DU?$char_traits@D@std@@V?$allocator@D@2@@std@@K@std@@@2@$0A@@std@@@std@@QAEPAXI@Z 004285d0 f i playerdata.obj
 0001:000275f0       ?find@?$_Tree@V?$_Tmap_traits@V?$basic_string@DU?$char_traits@D@std@@V?$allocator@D@2@@std@@KU?$less@V?$basic_string@DU?$char_traits@D@std@@V?$allocator@D@2@@std@@@2@V?$allocator@U?$pair@$$CBV?$basic_string@DU?$char_traits@D@std@@V?$allocator@D@2@@std@@K@std@@@2@$0A@@std@@@std@@QAE?AViterator@12@ABV?$basic_string@DU?$char_traits@D@std@@V?$allocator@D@2@@2@@Z 004285f0 f i playerdata.obj
 0001:00027660       ??0?$pair@$$CBV?$basic_string@DU?$char_traits@D@std@@V?$allocator@D@2@@std@@K@std@@QAE@ABV?$basic_string@DU?$char_traits@D@std@@V?$allocator@D@2@@1@ABK@Z 00428660 f i playerdata.obj
 0001:00027690       ?equal_range@?$_Tree@V?$_Tmap_traits@V?$basic_string@DU?$char_traits@D@std@@V?$allocator@D@2@@std@@KU?$less@V?$basic_string@DU?$char_traits@D@std@@V?$allocator@D@2@@std@@@2@V?$allocator@U?$pair@$$CBV?$basic_string@DU?$char_traits@D@std@@V?$allocator@D@2@@std@@K@std@@@2@$0A@@std@@@std@@QAE?AU?$pair@Viterator@?$_Tree@V?$_Tmap_traits@V?$basic_string@DU?$char_traits@D@std@@V?$allocator@D@2@@std@@KU?$less@V?$basic_string@DU?$char_traits@D@std@@V?$allocator@D@2@@std@@@2@V?$allocator@U?$pair@$$CBV?$basic_string@DU?$char_traits@D@std@@V?$allocator@D@2@@std@@K@std@@@2@$0A@@std@@@std@@V123@@2@ABV?$basic_string@DU?$char_traits@D@std@@V?$allocator@D@2@@2@@Z 00428690 f i playerdata.obj
 0001:000276c0       ??0?$pair@$$CBV?$basic_string@DU?$char_traits@D@std@@V?$allocator@D@2@@std@@K@std@@QAE@ABU01@@Z 004286c0 f i playerdata.obj
 0001:000276f0       ??$_Destroy@U_Node@?$_Tree_nod@V?$_Tmap_traits@V?$basic_string@DU?$char_traits@D@std@@V?$allocator@D@2@@std@@KU?$less@V?$basic_string@DU?$char_traits@D@std@@V?$allocator@D@2@@std@@@2@V?$allocator@U?$pair@$$CBV?$basic_string@DU?$char_traits@D@std@@V?$allocator@D@2@@std@@K@std@@@2@$0A@@std@@@std@@@std@@YAXPAU_Node@?$_Tree_nod@V?$_Tmap_traits@V?$basic_string@DU?$char_traits@D@std@@V?$allocator@D@2@@std@@KU?$less@V?$basic_string@DU?$char_traits@D@std@@V?$allocator@D@2@@std@@@2@V?$allocator@U?$pair@$$CBV?$basic_string@DU?$char_traits@D@std@@V?$allocator@D@2@@std@@K@std@@@2@$0A@@std@@@0@@Z 004286f0 f i playerdata.obj
 0001:00027700       ?GetPlayerId@CPlayerDataCenter@@QAEKPAD@Z 00428700 f   playerdata.obj
 0001:000277b0       ?erase@?$_Tree@V?$_Tmap_traits@KPAU_PlayerData@@U?$less@K@std@@V?$allocator@U?$pair@$$CBKPAU_PlayerData@@@std@@@3@$0A@@std@@@std@@QAE?AViterator@12@V312@@Z 004287b0 f i playerdata.obj
 0001:00027a70       ?_Insert@?$_Tree@V?$_Tmap_traits@KPAU_PlayerData@@U?$less@K@std@@V?$allocator@U?$pair@$$CBKPAU_PlayerData@@@std@@@3@$0A@@std@@@std@@IAE?AViterator@12@_NPAU_Node@?$_Tree_nod@V?$_Tmap_traits@KPAU_PlayerData@@U?$less@K@std@@V?$allocator@U?$pair@$$CBKPAU_PlayerData@@@std@@@3@$0A@@std@@@2@ABU?$pair@$$CBKPAU_PlayerData@@@2@@Z 00428a70 f i playerdata.obj
 0001:00027c20       ?erase@?$_Tree@V?$_Tmap_traits@KPAU_PlayerData@@U?$less@K@std@@V?$allocator@U?$pair@$$CBKPAU_PlayerData@@@std@@@3@$0A@@std@@@std@@QAE?AViterator@12@V312@0@Z 00428c20 f i playerdata.obj
 0001:00027ce0       ?destroy@?$allocator@U_Node@?$_Tree_nod@V?$_Tmap_traits@V?$basic_string@DU?$char_traits@D@std@@V?$allocator@D@2@@std@@KU?$less@V?$basic_string@DU?$char_traits@D@std@@V?$allocator@D@2@@std@@@2@V?$allocator@U?$pair@$$CBV?$basic_string@DU?$char_traits@D@std@@V?$allocator@D@2@@std@@K@std@@@2@$0A@@std@@@std@@@std@@QAEXPAU_Node@?$_Tree_nod@V?$_Tmap_traits@V?$basic_string@DU?$char_traits@D@std@@V?$allocator@D@2@@std@@KU?$less@V?$basic_string@DU?$char_traits@D@std@@V?$allocator@D@2@@std@@@2@V?$allocator@U?$pair@$$CBV?$basic_string@DU?$char_traits@D@std@@V?$allocator@D@2@@std@@K@std@@@2@$0A@@std@@@2@@Z 00428ce0 f i playerdata.obj
 0001:00027cf0       ??0_Node@?$_Tree_nod@V?$_Tmap_traits@V?$basic_string@DU?$char_traits@D@std@@V?$allocator@D@2@@std@@KU?$less@V?$basic_string@DU?$char_traits@D@std@@V?$allocator@D@2@@std@@@2@V?$allocator@U?$pair@$$CBV?$basic_string@DU?$char_traits@D@std@@V?$allocator@D@2@@std@@K@std@@@2@$0A@@std@@@std@@QAE@PAU012@00ABU?$pair@$$CBV?$basic_string@DU?$char_traits@D@std@@V?$allocator@D@2@@std@@K@2@D@Z 00428cf0 f i playerdata.obj
 0001:00027d50       ?insert@?$_Tree@V?$_Tmap_traits@KPAU_PlayerData@@U?$less@K@std@@V?$allocator@U?$pair@$$CBKPAU_PlayerData@@@std@@@3@$0A@@std@@@std@@QAE?AU?$pair@Viterator@?$_Tree@V?$_Tmap_traits@KPAU_PlayerData@@U?$less@K@std@@V?$allocator@U?$pair@$$CBKPAU_PlayerData@@@std@@@3@$0A@@std@@@std@@_N@2@ABU?$pair@$$CBKPAU_PlayerData@@@2@@Z 00428d50 f i playerdata.obj
 0001:00027e10       ?_Tidy@?$_Tree@V?$_Tmap_traits@KPAU_PlayerData@@U?$less@K@std@@V?$allocator@U?$pair@$$CBKPAU_PlayerData@@@std@@@3@$0A@@std@@@std@@IAEXXZ 00428e10 f i playerdata.obj
 0001:00027e40       ?erase@?$_Tree@V?$_Tmap_traits@V?$basic_string@DU?$char_traits@D@std@@V?$allocator@D@2@@std@@KU?$less@V?$basic_string@DU?$char_traits@D@std@@V?$allocator@D@2@@std@@@2@V?$allocator@U?$pair@$$CBV?$basic_string@DU?$char_traits@D@std@@V?$allocator@D@2@@std@@K@std@@@2@$0A@@std@@@std@@QAE?AViterator@12@V312@@Z 00428e40 f i playerdata.obj
 0001:00028120       ?_Buynode@?$_Tree@V?$_Tmap_traits@V?$basic_string@DU?$char_traits@D@std@@V?$allocator@D@2@@std@@KU?$less@V?$basic_string@DU?$char_traits@D@std@@V?$allocator@D@2@@std@@@2@V?$allocator@U?$pair@$$CBV?$basic_string@DU?$char_traits@D@std@@V?$allocator@D@2@@std@@K@std@@@2@$0A@@std@@@std@@IAEPAU_Node@?$_Tree_nod@V?$_Tmap_traits@V?$basic_string@DU?$char_traits@D@std@@V?$allocator@D@2@@std@@KU?$less@V?$basic_string@DU?$char_traits@D@std@@V?$allocator@D@2@@std@@@2@V?$allocator@U?$pair@$$CBV?$basic_string@DU?$char_traits@D@std@@V?$allocator@D@2@@std@@K@std@@@2@$0A@@std@@@2@PAU342@00ABU?$pair@$$CBV?$basic_string@DU?$char_traits@D@std@@V?$allocator@D@2@@std@@K@2@D@Z 00429120 f i playerdata.obj
 0001:000281b0       ?_Erase@?$_Tree@V?$_Tmap_traits@V?$basic_string@DU?$char_traits@D@std@@V?$allocator@D@2@@std@@KU?$less@V?$basic_string@DU?$char_traits@D@std@@V?$allocator@D@2@@std@@@2@V?$allocator@U?$pair@$$CBV?$basic_string@DU?$char_traits@D@std@@V?$allocator@D@2@@std@@K@std@@@2@$0A@@std@@@std@@IAEXPAU_Node@?$_Tree_nod@V?$_Tmap_traits@V?$basic_string@DU?$char_traits@D@std@@V?$allocator@D@2@@std@@KU?$less@V?$basic_string@DU?$char_traits@D@std@@V?$allocator@D@2@@std@@@2@V?$allocator@U?$pair@$$CBV?$basic_string@DU?$char_traits@D@std@@V?$allocator@D@2@@std@@K@std@@@2@$0A@@std@@@2@@Z 004291b0 f i playerdata.obj
 0001:000281f0       ??1?$_Tree@V?$_Tmap_traits@KPAU_PlayerData@@U?$less@K@std@@V?$allocator@U?$pair@$$CBKPAU_PlayerData@@@std@@@3@$0A@@std@@@std@@QAE@XZ 004291f0 f i playerdata.obj
 0001:00028220       ?_Insert@?$_Tree@V?$_Tmap_traits@V?$basic_string@DU?$char_traits@D@std@@V?$allocator@D@2@@std@@KU?$less@V?$basic_string@DU?$char_traits@D@std@@V?$allocator@D@2@@std@@@2@V?$allocator@U?$pair@$$CBV?$basic_string@DU?$char_traits@D@std@@V?$allocator@D@2@@std@@K@std@@@2@$0A@@std@@@std@@IAE?AViterator@12@_NPAU_Node@?$_Tree_nod@V?$_Tmap_traits@V?$basic_string@DU?$char_traits@D@std@@V?$allocator@D@2@@std@@KU?$less@V?$basic_string@DU?$char_traits@D@std@@V?$allocator@D@2@@std@@@2@V?$allocator@U?$pair@$$CBV?$basic_string@DU?$char_traits@D@std@@V?$allocator@D@2@@std@@K@std@@@2@$0A@@std@@@2@ABU?$pair@$$CBV?$basic_string@DU?$char_traits@D@std@@V?$allocator@D@2@@std@@K@2@@Z 00429220 f i playerdata.obj
 0001:000283d0       ?clear@?$_Tree@V?$_Tmap_traits@V?$basic_string@DU?$char_traits@D@std@@V?$allocator@D@2@@std@@KU?$less@V?$basic_string@DU?$char_traits@D@std@@V?$allocator@D@2@@std@@@2@V?$allocator@U?$pair@$$CBV?$basic_string@DU?$char_traits@D@std@@V?$allocator@D@2@@std@@K@std@@@2@$0A@@std@@@std@@QAEXXZ 004293d0 f i playerdata.obj
 0001:00028400       ??1?$map@KPAU_PlayerData@@U?$less@K@std@@V?$allocator@U?$pair@$$CBKPAU_PlayerData@@@std@@@3@@std@@QAE@XZ 00429400 f i playerdata.obj
 0001:00028430       ??0?$map@KPAU_PlayerData@@U?$less@K@std@@V?$allocator@U?$pair@$$CBKPAU_PlayerData@@@std@@@3@@std@@QAE@XZ 00429430 f i playerdata.obj
 0001:00028460       ?insert@?$_Tree@V?$_Tmap_traits@V?$basic_string@DU?$char_traits@D@std@@V?$allocator@D@2@@std@@KU?$less@V?$basic_string@DU?$char_traits@D@std@@V?$allocator@D@2@@std@@@2@V?$allocator@U?$pair@$$CBV?$basic_string@DU?$char_traits@D@std@@V?$allocator@D@2@@std@@K@std@@@2@$0A@@std@@@std@@QAE?AU?$pair@Viterator@?$_Tree@V?$_Tmap_traits@V?$basic_string@DU?$char_traits@D@std@@V?$allocator@D@2@@std@@KU?$less@V?$basic_string@DU?$char_traits@D@std@@V?$allocator@D@2@@std@@@2@V?$allocator@U?$pair@$$CBV?$basic_string@DU?$char_traits@D@std@@V?$allocator@D@2@@std@@K@std@@@2@$0A@@std@@@std@@_N@2@ABU?$pair@$$CBV?$basic_string@DU?$char_traits@D@std@@V?$allocator@D@2@@std@@K@2@@Z 00429460 f i playerdata.obj
 0001:000285e0       ?erase@?$_Tree@V?$_Tmap_traits@V?$basic_string@DU?$char_traits@D@std@@V?$allocator@D@2@@std@@KU?$less@V?$basic_string@DU?$char_traits@D@std@@V?$allocator@D@2@@std@@@2@V?$allocator@U?$pair@$$CBV?$basic_string@DU?$char_traits@D@std@@V?$allocator@D@2@@std@@K@std@@@2@$0A@@std@@@std@@QAE?AViterator@12@V312@0@Z 004295e0 f i playerdata.obj
 0001:000286a0       ?_Tidy@?$_Tree@V?$_Tmap_traits@V?$basic_string@DU?$char_traits@D@std@@V?$allocator@D@2@@std@@KU?$less@V?$basic_string@DU?$char_traits@D@std@@V?$allocator@D@2@@std@@@2@V?$allocator@U?$pair@$$CBV?$basic_string@DU?$char_traits@D@std@@V?$allocator@D@2@@std@@K@std@@@2@$0A@@std@@@std@@IAEXXZ 004296a0 f i playerdata.obj
 0001:000286d0       ??1?$_Tree@V?$_Tmap_traits@V?$basic_string@DU?$char_traits@D@std@@V?$allocator@D@2@@std@@KU?$less@V?$basic_string@DU?$char_traits@D@std@@V?$allocator@D@2@@std@@@2@V?$allocator@U?$pair@$$CBV?$basic_string@DU?$char_traits@D@std@@V?$allocator@D@2@@std@@K@std@@@2@$0A@@std@@@std@@QAE@XZ 004296d0 f i playerdata.obj
 0001:00028700       ?erase@?$_Tree@V?$_Tmap_traits@V?$basic_string@DU?$char_traits@D@std@@V?$allocator@D@2@@std@@KU?$less@V?$basic_string@DU?$char_traits@D@std@@V?$allocator@D@2@@std@@@2@V?$allocator@U?$pair@$$CBV?$basic_string@DU?$char_traits@D@std@@V?$allocator@D@2@@std@@K@std@@@2@$0A@@std@@@std@@QAEIABV?$basic_string@DU?$char_traits@D@std@@V?$allocator@D@2@@2@@Z 00429700 f i playerdata.obj
 0001:00028750       ??1?$map@V?$basic_string@DU?$char_traits@D@std@@V?$allocator@D@2@@std@@KU?$less@V?$basic_string@DU?$char_traits@D@std@@V?$allocator@D@2@@std@@@2@V?$allocator@U?$pair@$$CBV?$basic_string@DU?$char_traits@D@std@@V?$allocator@D@2@@std@@K@std@@@2@@std@@QAE@XZ 00429750 f i playerdata.obj
 0001:00028780       ??1CPlayerDataCenter@@UAE@XZ 00429780 f   playerdata.obj
 0001:00028840       ?AddPlayerData@CPlayerDataCenter@@QAEPAU_PlayerData@@KAAU2@@Z 00429840 f   playerdata.obj
 0001:00028a90       ?DeletePlayerData@CPlayerDataCenter@@QAEHK@Z 00429a90 f   playerdata.obj
 0001:00028bb0       ?Serialize@CPlayerDataCenter@@QAEHAAVCAr@@HH@Z 00429bb0 f   playerdata.obj
 0001:00028dd0       ??0?$map@V?$basic_string@DU?$char_traits@D@std@@V?$allocator@D@2@@std@@KU?$less@V?$basic_string@DU?$char_traits@D@std@@V?$allocator@D@2@@std@@@2@V?$allocator@U?$pair@$$CBV?$basic_string@DU?$char_traits@D@std@@V?$allocator@D@2@@std@@K@std@@@2@@std@@QAE@XZ 00429dd0 f i playerdata.obj
 0001:00028e00       ??0CPlayerDataCenter@@QAE@XZ 00429e00 f   playerdata.obj
 0001:00028eb0       ??_GCPlayerDataCenter@@UAEPAXI@Z 00429eb0 f i playerdata.obj
 0001:00028eb0       ??_ECPlayerDataCenter@@UAEPAXI@Z 00429eb0 f i playerdata.obj
 0001:00028ed0       ?GetInstance@CPlayerDataCenter@@SAPAV1@XZ 00429ed0 f   playerdata.obj
 0001:00028f30       ??0_Friend@@QAE@XZ         00429f30 f i rtmessenger.obj
 0001:00028f40       ??0?$pair@$$CBKU_Friend@@@std@@QAE@ABKABU_Friend@@@Z 00429f40 f i rtmessenger.obj
 0001:00028f60       ??0?$allocator@U?$pair@$$CBKU_Friend@@@std@@@std@@QAE@XZ 00429f60 f i rtmessenger.obj
 0001:00028f70       ??0?$pair@Viterator@?$_Tree@V?$_Tmap_traits@KU_Friend@@U?$less@K@std@@V?$allocator@U?$pair@$$CBKU_Friend@@@std@@@3@$0A@@std@@@std@@_N@std@@QAE@ABViterator@?$_Tree@V?$_Tmap_traits@KU_Friend@@U?$less@K@std@@V?$allocator@U?$pair@$$CBKU_Friend@@@std@@@3@$0A@@std@@@1@AB_N@Z 00429f70 f i rtmessenger.obj
 0001:00028f90       ??0?$allocator@U?$pair@$$CBKU_Friend@@@std@@@std@@QAE@ABV01@@Z 00429f90 f i rtmessenger.obj
 0001:00028fa0       ?max_size@?$allocator@U?$pair@$$CBKU_Friend@@@std@@@std@@QBEIXZ 00429fa0 f i rtmessenger.obj
 0001:00028fb0       ?_Dec@const_iterator@?$_Tree@V?$_Tmap_traits@KU_Friend@@U?$less@K@std@@V?$allocator@U?$pair@$$CBKU_Friend@@@std@@@3@$0A@@std@@@std@@QAEXXZ 00429fb0 f i rtmessenger.obj
 0001:00029010       ??0_Node@?$_Tree_nod@V?$_Tmap_traits@KU_Friend@@U?$less@K@std@@V?$allocator@U?$pair@$$CBKU_Friend@@@std@@@3@$0A@@std@@@std@@QAE@PAU012@00ABU?$pair@$$CBKU_Friend@@@2@D@Z 0042a010 f i rtmessenger.obj
 0001:00029050       ??0?$_Tmap_traits@KU_Friend@@U?$less@K@std@@V?$allocator@U?$pair@$$CBKU_Friend@@@std@@@3@$0A@@std@@QAE@U?$less@K@1@@Z 0042a050 f i rtmessenger.obj
 0001:00029060       ??$_Destroy@PAU_Node@?$_Tree_nod@V?$_Tmap_traits@KU_Friend@@U?$less@K@std@@V?$allocator@U?$pair@$$CBKU_Friend@@@std@@@3@$0A@@std@@@std@@@std@@YAXPAPAU_Node@?$_Tree_nod@V?$_Tmap_traits@KU_Friend@@U?$less@K@std@@V?$allocator@U?$pair@$$CBKU_Friend@@@std@@@3@$0A@@std@@@0@@Z 0042a060 f i rtmessenger.obj
 0001:00029070       ??$?0U?$pair@$$CBKU_Friend@@@std@@@?$allocator@PAU_Node@?$_Tree_nod@V?$_Tmap_traits@KU_Friend@@U?$less@K@std@@V?$allocator@U?$pair@$$CBKU_Friend@@@std@@@3@$0A@@std@@@std@@@std@@QAE@ABV?$allocator@U?$pair@$$CBKU_Friend@@@std@@@1@@Z 0042a070 f i rtmessenger.obj
 0001:00029080       ??$_Allocate@U_Node@?$_Tree_nod@V?$_Tmap_traits@KU_Friend@@U?$less@K@std@@V?$allocator@U?$pair@$$CBKU_Friend@@@std@@@3@$0A@@std@@@std@@@std@@YAPAU_Node@?$_Tree_nod@V?$_Tmap_traits@KU_Friend@@U?$less@K@std@@V?$allocator@U?$pair@$$CBKU_Friend@@@std@@@3@$0A@@std@@@0@IPAU120@@Z 0042a080 f i rtmessenger.obj
 0001:000290a0       ??$?0U?$pair@$$CBKU_Friend@@@std@@@?$allocator@U_Node@?$_Tree_nod@V?$_Tmap_traits@KU_Friend@@U?$less@K@std@@V?$allocator@U?$pair@$$CBKU_Friend@@@std@@@3@$0A@@std@@@std@@@std@@QAE@ABV?$allocator@U?$pair@$$CBKU_Friend@@@std@@@1@@Z 0042a0a0 f i rtmessenger.obj
 0001:000290b0       ??$_Construct@PAU_Node@?$_Tree_nod@V?$_Tmap_traits@KU_Friend@@U?$less@K@std@@V?$allocator@U?$pair@$$CBKU_Friend@@@std@@@3@$0A@@std@@@std@@PAU123@@std@@YAXPAPAU_Node@?$_Tree_nod@V?$_Tmap_traits@KU_Friend@@U?$less@K@std@@V?$allocator@U?$pair@$$CBKU_Friend@@@std@@@3@$0A@@std@@@0@ABQAU120@@Z 0042a0b0 f i rtmessenger.obj
 0001:000290d0       ?max_size@?$_Tree@V?$_Tmap_traits@KU_Friend@@U?$less@K@std@@V?$allocator@U?$pair@$$CBKU_Friend@@@std@@@3@$0A@@std@@@std@@QBEIXZ 0042a0d0 f i rtmessenger.obj
 0001:000290e0       ?destroy@?$allocator@PAU_Node@?$_Tree_nod@V?$_Tmap_traits@KU_Friend@@U?$less@K@std@@V?$allocator@U?$pair@$$CBKU_Friend@@@std@@@3@$0A@@std@@@std@@@std@@QAEXPAPAU_Node@?$_Tree_nod@V?$_Tmap_traits@KU_Friend@@U?$less@K@std@@V?$allocator@U?$pair@$$CBKU_Friend@@@std@@@3@$0A@@std@@@2@@Z 0042a0e0 f i rtmessenger.obj
 0001:000290f0       ??Fconst_iterator@?$_Tree@V?$_Tmap_traits@KU_Friend@@U?$less@K@std@@V?$allocator@U?$pair@$$CBKU_Friend@@@std@@@3@$0A@@std@@@std@@QAEAAV012@XZ 0042a0f0 f i rtmessenger.obj
 0001:00029100       ?allocate@?$allocator@U_Node@?$_Tree_nod@V?$_Tmap_traits@KU_Friend@@U?$less@K@std@@V?$allocator@U?$pair@$$CBKU_Friend@@@std@@@3@$0A@@std@@@std@@@std@@QAEPAU_Node@?$_Tree_nod@V?$_Tmap_traits@KU_Friend@@U?$less@K@std@@V?$allocator@U?$pair@$$CBKU_Friend@@@std@@@3@$0A@@std@@@2@I@Z 0042a100 f i rtmessenger.obj
 0001:00029120       ??0?$_Tree_nod@V?$_Tmap_traits@KU_Friend@@U?$less@K@std@@V?$allocator@U?$pair@$$CBKU_Friend@@@std@@@3@$0A@@std@@@std@@IAE@ABU?$less@K@1@V?$allocator@U?$pair@$$CBKU_Friend@@@std@@@1@@Z 0042a120 f i rtmessenger.obj
 0001:00029130       ?construct@?$allocator@PAU_Node@?$_Tree_nod@V?$_Tmap_traits@KU_Friend@@U?$less@K@std@@V?$allocator@U?$pair@$$CBKU_Friend@@@std@@@3@$0A@@std@@@std@@@std@@QAEXPAPAU_Node@?$_Tree_nod@V?$_Tmap_traits@KU_Friend@@U?$less@K@std@@V?$allocator@U?$pair@$$CBKU_Friend@@@std@@@3@$0A@@std@@@2@ABQAU342@@Z 0042a130 f i rtmessenger.obj
 0001:00029150       ??Fiterator@?$_Tree@V?$_Tmap_traits@KU_Friend@@U?$less@K@std@@V?$allocator@U?$pair@$$CBKU_Friend@@@std@@@3@$0A@@std@@@std@@QAEAAV012@XZ 0042a150 f i rtmessenger.obj
 0001:00029160       ?_Buynode@?$_Tree@V?$_Tmap_traits@KU_Friend@@U?$less@K@std@@V?$allocator@U?$pair@$$CBKU_Friend@@@std@@@3@$0A@@std@@@std@@IAEPAU_Node@?$_Tree_nod@V?$_Tmap_traits@KU_Friend@@U?$less@K@std@@V?$allocator@U?$pair@$$CBKU_Friend@@@std@@@3@$0A@@std@@@2@PAU342@00ABU?$pair@$$CBKU_Friend@@@2@D@Z 0042a160 f i rtmessenger.obj
 0001:000291b0       ?_Buynode@?$_Tree@V?$_Tmap_traits@KU_Friend@@U?$less@K@std@@V?$allocator@U?$pair@$$CBKU_Friend@@@std@@@3@$0A@@std@@@std@@IAEPAU_Node@?$_Tree_nod@V?$_Tmap_traits@KU_Friend@@U?$less@K@std@@V?$allocator@U?$pair@$$CBKU_Friend@@@std@@@3@$0A@@std@@@2@XZ 0042a1b0 f i rtmessenger.obj
 0001:000291f0       ??0?$_Tree_ptr@V?$_Tmap_traits@KU_Friend@@U?$less@K@std@@V?$allocator@U?$pair@$$CBKU_Friend@@@std@@@3@$0A@@std@@@std@@IAE@ABU?$less@K@1@V?$allocator@U?$pair@$$CBKU_Friend@@@std@@@1@@Z 0042a1f0 f i rtmessenger.obj
 0001:00029200       ?find@?$_Tree@V?$_Tmap_traits@KU_Friend@@U?$less@K@std@@V?$allocator@U?$pair@$$CBKU_Friend@@@std@@@3@$0A@@std@@@std@@QAE?AViterator@12@ABK@Z 0042a200 f i rtmessenger.obj
 0001:00029270       ?_Init@?$_Tree@V?$_Tmap_traits@KU_Friend@@U?$less@K@std@@V?$allocator@U?$pair@$$CBKU_Friend@@@std@@@3@$0A@@std@@@std@@IAEXXZ 0042a270 f i rtmessenger.obj
 0001:000292a0       ??0?$_Tree_val@V?$_Tmap_traits@KU_Friend@@U?$less@K@std@@V?$allocator@U?$pair@$$CBKU_Friend@@@std@@@3@$0A@@std@@@std@@IAE@ABU?$less@K@1@V?$allocator@U?$pair@$$CBKU_Friend@@@std@@@1@@Z 0042a2a0 f i rtmessenger.obj
 0001:000292b0       ?GetFriend@CRTMessenger@@QAEPAU_Friend@@K@Z 0042a2b0 f   rtmessenger.obj
 0001:000292e0       ?SetBlock@CRTMessenger@@QAEXKH@Z 0042a2e0 f   rtmessenger.obj
 0001:00029320       ?IsBlock@CRTMessenger@@QAEHK@Z 0042a320 f   rtmessenger.obj
 0001:00029360       ??0?$_Tree@V?$_Tmap_traits@KU_Friend@@U?$less@K@std@@V?$allocator@U?$pair@$$CBKU_Friend@@@std@@@3@$0A@@std@@@std@@QAE@ABU?$less@K@1@ABV?$allocator@U?$pair@$$CBKU_Friend@@@std@@@1@@Z 0042a360 f i rtmessenger.obj
 0001:00029390       ?_Insert@?$_Tree@V?$_Tmap_traits@KU_Friend@@U?$less@K@std@@V?$allocator@U?$pair@$$CBKU_Friend@@@std@@@3@$0A@@std@@@std@@IAE?AViterator@12@_NPAU_Node@?$_Tree_nod@V?$_Tmap_traits@KU_Friend@@U?$less@K@std@@V?$allocator@U?$pair@$$CBKU_Friend@@@std@@@3@$0A@@std@@@2@ABU?$pair@$$CBKU_Friend@@@2@@Z 0042a390 f i rtmessenger.obj
 0001:00029540       ?insert@?$_Tree@V?$_Tmap_traits@KU_Friend@@U?$less@K@std@@V?$allocator@U?$pair@$$CBKU_Friend@@@std@@@3@$0A@@std@@@std@@QAE?AU?$pair@Viterator@?$_Tree@V?$_Tmap_traits@KU_Friend@@U?$less@K@std@@V?$allocator@U?$pair@$$CBKU_Friend@@@std@@@3@$0A@@std@@@std@@_N@2@ABU?$pair@$$CBKU_Friend@@@2@@Z 0042a540 f i rtmessenger.obj
 0001:00029600       ?_Tidy@?$_Tree@V?$_Tmap_traits@KU_Friend@@U?$less@K@std@@V?$allocator@U?$pair@$$CBKU_Friend@@@std@@@3@$0A@@std@@@std@@IAEXXZ 0042a600 f i rtmessenger.obj
 0001:00029630       ?SetFriend@CRTMessenger@@QAEXKPAU_Friend@@@Z 0042a630 f   rtmessenger.obj
 0001:000296c0       ?Serialize@CRTMessenger@@QAEHAAVCAr@@@Z 0042a6c0 f   rtmessenger.obj
 0001:00029830       ??4CRTMessenger@@UAEAAV0@AAV0@@Z 0042a830 f   rtmessenger.obj
 0001:000298a0       ??1?$_Tree@V?$_Tmap_traits@KU_Friend@@U?$less@K@std@@V?$allocator@U?$pair@$$CBKU_Friend@@@std@@@3@$0A@@std@@@std@@QAE@XZ 0042a8a0 f i rtmessenger.obj
 0001:000298d0       ??1?$map@KU_Friend@@U?$less@K@std@@V?$allocator@U?$pair@$$CBKU_Friend@@@std@@@3@@std@@QAE@XZ 0042a8d0 f i rtmessenger.obj
 0001:00029900       ??1CRTMessenger@@UAE@XZ    0042a900 f   rtmessenger.obj
 0001:00029990       ??0?$map@KU_Friend@@U?$less@K@std@@V?$allocator@U?$pair@$$CBKU_Friend@@@std@@@3@@std@@QAE@XZ 0042a990 f i rtmessenger.obj
 0001:000299c0       ??0CRTMessenger@@QAE@XZ    0042a9c0 f   rtmessenger.obj
 0001:00029a00       ??_ECRTMessenger@@UAEPAXI@Z 0042aa00 f i rtmessenger.obj
 0001:00029a00       ??_GCRTMessenger@@UAEPAXI@Z 0042aa00 f i rtmessenger.obj
 0001:00029a20       ?Allocate@CCRTAllocator@ATL@@SAPAXI@Z 0042aa20 f i StdAfx.obj
 0001:00029a30       ?Free@CCRTAllocator@ATL@@SAXPAX@Z 0042aa30 f i StdAfx.obj
 0001:00029a40       ?_AtlVerifyStackAvailable@_ATL_SAFE_ALLOCA_IMPL@ATL@@YA_NK@Z 0042aa40 f i StdAfx.obj
 0001:00029ad0       ?AtlA2WHelper@@YGPAGPAGPBDHI@Z 0042aad0 f i StdAfx.obj
 0001:00029b10       ?AtlW2AHelper@@YGPADPADPBGHI@Z 0042ab10 f i StdAfx.obj
 0001:00029b50       ?AtlThrowLastWin32@ATL@@YGXXZ 0042ab50 f i StdAfx.obj
 0001:00029b70       ?_AtlInstallStringThunk@ATL@@YAXPAPAXPAX1@Z 0042ab70 f i StdAfx.obj
 0001:00029bb0       ?lstrcmpiWFake@ATL@@YGHPBG0@Z 0042abb0 f i StdAfx.obj
 0001:00029c80       ?lstrcmpiWThunk@ATL@@YGHPBG0@Z 0042ac80 f i StdAfx.obj
 0001:00029cd0       ?CharLowerWFake@ATL@@YGPAGPAG@Z 0042acd0 f i StdAfx.obj
 0001:00029d90       ?CharLowerWThunk@ATL@@YGPAGPAG@Z 0042ad90 f i StdAfx.obj
 0001:00029de0       ?CharUpperWFake@ATL@@YGPAGPAG@Z 0042ade0 f i StdAfx.obj
 0001:00029ea0       ?CharUpperWThunk@ATL@@YGPAGPAG@Z 0042aea0 f i StdAfx.obj
 0001:00029ef0       ??1CTickCount@@QAE@XZ      0042aef0 f i StdAfx.obj
 0001:00029f00       ??0CTickCount@@QAE@XZ      0042af00 f i StdAfx.obj
 0001:00029f10       ??0?$CAtlSafeAllocBufferManager@VCCRTAllocator@ATL@@@_ATL_SAFE_ALLOCA_IMPL@ATL@@QAE@XZ 0042af10 f i StdAfx.obj
 0001:00029f20       ??1?$CAtlSafeAllocBufferManager@VCCRTAllocator@ATL@@@_ATL_SAFE_ALLOCA_IMPL@ATL@@QAE@XZ 0042af20 f i StdAfx.obj
 0001:00029f40       ??0?$CTempBuffer@D$0IA@VCCRTAllocator@ATL@@@ATL@@QAE@XZ 0042af40 f i StdAfx.obj
 0001:00029f50       ??B?$CTempBuffer@D$0IA@VCCRTAllocator@ATL@@@ATL@@QBEPADXZ 0042af50 f i StdAfx.obj
 0001:00029f60       ??1?$CW2AEX@$0IA@@ATL@@QAE@XZ 0042af60 f i StdAfx.obj
 0001:00029f80       ??B?$CW2AEX@$0IA@@ATL@@QBEPADXZ 0042af80 f i StdAfx.obj
 0001:00029f90       ?FreeHeap@?$CTempBuffer@D$0IA@VCCRTAllocator@ATL@@@ATL@@AAEXXZ 0042af90 f i StdAfx.obj
 0001:00029fa0       ?Init@?$CW2AEX@$0IA@@ATL@@AAEXPBGI@Z 0042afa0 f i StdAfx.obj
 0001:0002a010       ?StringFindString@?$ChTraitsCRT@D@ATL@@SAPBDPBD0@Z 0042b010 f i StdAfx.obj
 0001:0002a020       ?StringUppercase@?$ChTraitsCRT@D@ATL@@SAPADPAD@Z 0042b020 f i StdAfx.obj
 0001:0002a030       ?GetData@CAtlSafeAllocBufferNode@?$CAtlSafeAllocBufferManager@VCCRTAllocator@ATL@@@_ATL_SAFE_ALLOCA_IMPL@ATL@@QAEPAXXZ 0042b030 f i StdAfx.obj
 0001:0002a040       ?AllocateHeap@?$CTempBuffer@D$0IA@VCCRTAllocator@ATL@@@ATL@@AAEXI@Z 0042b040 f i StdAfx.obj
 0001:0002a070       ?Allocate@?$CAtlSafeAllocBufferManager@VCCRTAllocator@ATL@@@_ATL_SAFE_ALLOCA_IMPL@ATL@@QAEPAXK@Z 0042b070 f i StdAfx.obj
 0001:0002a0a0       ??1?$CTempBuffer@D$0IA@VCCRTAllocator@ATL@@@ATL@@QAE@XZ 0042b0a0 f i StdAfx.obj
 0001:0002a0b0       ??0?$CW2AEX@$0IA@@ATL@@QAE@PBG@Z 0042b0b0 f i StdAfx.obj
 0001:0002a0e0       ?AllocateBytes@?$CTempBuffer@D$0IA@VCCRTAllocator@ATL@@@ATL@@QAEPADI@Z 0042b0e0 f i StdAfx.obj
 0001:0002a110       ?CompareStringWFake@ATL@@YGHKKPBGH0H@Z 0042b110 f i StdAfx.obj
 0001:0002a270       ?CompareStringWThunk@ATL@@YGHKKPBGH0H@Z 0042b270 f i StdAfx.obj
 0001:0002a2c0       ?Allocate@?$CTempBuffer@D$0IA@VCCRTAllocator@ATL@@@ATL@@QAEPADI@Z 0042b2c0 f i StdAfx.obj
 0001:0002a2f0       ?Find@?$CStringT@DV?$StrTraitMFC@DV?$ChTraitsCRT@D@ATL@@@@@ATL@@QBEHPBDH@Z 0042b2f0 f i StdAfx.obj
 0001:0002a330       ?GetEnvironmentVariableWFake@ATL@@YGKPBGPAGK@Z 0042b330 f i StdAfx.obj
 0001:0002a4c0       ?GetEnvironmentVariableWThunk@ATL@@YGKPBGPAGK@Z 0042b4c0 f i StdAfx.obj
 0001:0002a510       ?GetStringTypeExWFake@ATL@@YGHKKPBGHPAG@Z 0042b510 f i StdAfx.obj
 0001:0002a620       ?GetStringTypeExWThunk@ATL@@YGHKKPBGHPAG@Z 0042b620 f i StdAfx.obj
 0001:0002a670       ?MakeUpper@?$CStringT@DV?$StrTraitMFC@DV?$ChTraitsCRT@D@ATL@@@@@ATL@@QAEAAV12@XZ 0042b670 f i StdAfx.obj
 0001:0002a6d0       ?KillProcess@@YAHV?$CStringT@DV?$StrTraitMFC@DV?$ChTraitsCRT@D@ATL@@@@@ATL@@@Z 0042b6d0 f   StdAfx.obj
 0001:0002a970       ??5@YAAAVCAr@@AAV0@AA_J@Z  0042b970 f i WantedList.obj
 0001:0002a990       ??RwantedComparison@@QBE_NPBUWANTED_ENTRY@@0@Z 0042b990 f i WantedList.obj
 0001:0002a9c0       ??ZCTime@ATL@@QAEAAV01@VCTimeSpan@1@@Z 0042b9c0 f i WantedList.obj
 0001:0002a9e0       ?GetLocalTm@CTime@ATL@@QBEPAUtm@@PAU3@@Z 0042b9e0 f i WantedList.obj
 0001:0002aa10       ?GetTime@CTime@ATL@@QBE_JXZ 0042ba10 f i WantedList.obj
 0001:0002aa20       ?IsUpdatable@CWantedList@@IAEH_J@Z 0042ba20 f   WantedList.obj
 0001:0002aa50       ?GetHour@CTime@ATL@@QBEHXZ 0042ba50 f i WantedList.obj
 0001:0002aa70       ?GetMinute@CTime@ATL@@QBEHXZ 0042ba70 f i WantedList.obj
 0001:0002aa90       ?GetSecond@CTime@ATL@@QBEHXZ 0042ba90 f i WantedList.obj
 0001:0002aab0       ?size@?$vector@PAUWANTED_ENTRY@@V?$allocator@PAUWANTED_ENTRY@@@std@@@std@@QBEIXZ 0042bab0 f i WantedList.obj
 0001:0002aad0       ?_Color@?$_Tree@V?$_Tmap_traits@KPAUWANTED_ENTRY@@U?$less@K@std@@V?$allocator@U?$pair@$$CBKPAUWANTED_ENTRY@@@std@@@3@$0A@@std@@@std@@KAAADPAU_Node@?$_Tree_nod@V?$_Tmap_traits@KPAUWANTED_ENTRY@@U?$less@K@std@@V?$allocator@U?$pair@$$CBKPAUWANTED_ENTRY@@@std@@@3@$0A@@std@@@2@@Z 0042bad0 f i WantedList.obj
 0001:0002aae0       ?_Isnil@?$_Tree@V?$_Tmap_traits@KPAUWANTED_ENTRY@@U?$less@K@std@@V?$allocator@U?$pair@$$CBKPAUWANTED_ENTRY@@@std@@@3@$0A@@std@@@std@@KAAADPAU_Node@?$_Tree_nod@V?$_Tmap_traits@KPAUWANTED_ENTRY@@U?$less@K@std@@V?$allocator@U?$pair@$$CBKPAUWANTED_ENTRY@@@std@@@3@$0A@@std@@@2@@Z 0042bae0 f i WantedList.obj
 0001:0002aaf0       ?_Left@?$_Tree@V?$_Tmap_traits@KPAUWANTED_ENTRY@@U?$less@K@std@@V?$allocator@U?$pair@$$CBKPAUWANTED_ENTRY@@@std@@@3@$0A@@std@@@std@@KAAAPAU_Node@?$_Tree_nod@V?$_Tmap_traits@KPAUWANTED_ENTRY@@U?$less@K@std@@V?$allocator@U?$pair@$$CBKPAUWANTED_ENTRY@@@std@@@3@$0A@@std@@@2@PAU342@@Z 0042baf0 f i WantedList.obj
 0001:0002ab00       ?_Parent@?$_Tree@V?$_Tmap_traits@KPAUWANTED_ENTRY@@U?$less@K@std@@V?$allocator@U?$pair@$$CBKPAUWANTED_ENTRY@@@std@@@3@$0A@@std@@@std@@KAAAPAU_Node@?$_Tree_nod@V?$_Tmap_traits@KPAUWANTED_ENTRY@@U?$less@K@std@@V?$allocator@U?$pair@$$CBKPAUWANTED_ENTRY@@@std@@@3@$0A@@std@@@2@PAU342@@Z 0042bb00 f i WantedList.obj
 0001:0002ab10       ?_Right@?$_Tree@V?$_Tmap_traits@KPAUWANTED_ENTRY@@U?$less@K@std@@V?$allocator@U?$pair@$$CBKPAUWANTED_ENTRY@@@std@@@3@$0A@@std@@@std@@KAAAPAU_Node@?$_Tree_nod@V?$_Tmap_traits@KPAUWANTED_ENTRY@@U?$less@K@std@@V?$allocator@U?$pair@$$CBKPAUWANTED_ENTRY@@@std@@@3@$0A@@std@@@2@PAU342@@Z 0042bb10 f i WantedList.obj
 0001:0002ab20       ?_Lmost@?$_Tree@V?$_Tmap_traits@KPAUWANTED_ENTRY@@U?$less@K@std@@V?$allocator@U?$pair@$$CBKPAUWANTED_ENTRY@@@std@@@3@$0A@@std@@@std@@IAEAAPAU_Node@?$_Tree_nod@V?$_Tmap_traits@KPAUWANTED_ENTRY@@U?$less@K@std@@V?$allocator@U?$pair@$$CBKPAUWANTED_ENTRY@@@std@@@3@$0A@@std@@@2@XZ 0042bb20 f i WantedList.obj
 0001:0002ab30       ?_Max@?$_Tree@V?$_Tmap_traits@KPAUWANTED_ENTRY@@U?$less@K@std@@V?$allocator@U?$pair@$$CBKPAUWANTED_ENTRY@@@std@@@3@$0A@@std@@@std@@KAPAU_Node@?$_Tree_nod@V?$_Tmap_traits@KPAUWANTED_ENTRY@@U?$less@K@std@@V?$allocator@U?$pair@$$CBKPAUWANTED_ENTRY@@@std@@@3@$0A@@std@@@2@PAU342@@Z 0042bb30 f i WantedList.obj
 0001:0002ab50       ?_Min@?$_Tree@V?$_Tmap_traits@KPAUWANTED_ENTRY@@U?$less@K@std@@V?$allocator@U?$pair@$$CBKPAUWANTED_ENTRY@@@std@@@3@$0A@@std@@@std@@KAPAU_Node@?$_Tree_nod@V?$_Tmap_traits@KPAUWANTED_ENTRY@@U?$less@K@std@@V?$allocator@U?$pair@$$CBKPAUWANTED_ENTRY@@@std@@@3@$0A@@std@@@2@PAU342@@Z 0042bb50 f i WantedList.obj
 0001:0002ab70       ?_Rmost@?$_Tree@V?$_Tmap_traits@KPAUWANTED_ENTRY@@U?$less@K@std@@V?$allocator@U?$pair@$$CBKPAUWANTED_ENTRY@@@std@@@3@$0A@@std@@@std@@IAEAAPAU_Node@?$_Tree_nod@V?$_Tmap_traits@KPAUWANTED_ENTRY@@U?$less@K@std@@V?$allocator@U?$pair@$$CBKPAUWANTED_ENTRY@@@std@@@3@$0A@@std@@@2@XZ 0042bb70 f i WantedList.obj
 0001:0002ab80       ?_Root@?$_Tree@V?$_Tmap_traits@KPAUWANTED_ENTRY@@U?$less@K@std@@V?$allocator@U?$pair@$$CBKPAUWANTED_ENTRY@@@std@@@3@$0A@@std@@@std@@IAEAAPAU_Node@?$_Tree_nod@V?$_Tmap_traits@KPAUWANTED_ENTRY@@U?$less@K@std@@V?$allocator@U?$pair@$$CBKPAUWANTED_ENTRY@@@std@@@3@$0A@@std@@@2@XZ 0042bb80 f i WantedList.obj
 0001:0002ab90       ?_Rrotate@?$_Tree@V?$_Tmap_traits@KPAUWANTED_ENTRY@@U?$less@K@std@@V?$allocator@U?$pair@$$CBKPAUWANTED_ENTRY@@@std@@@3@$0A@@std@@@std@@IAEXPAU_Node@?$_Tree_nod@V?$_Tmap_traits@KPAUWANTED_ENTRY@@U?$less@K@std@@V?$allocator@U?$pair@$$CBKPAUWANTED_ENTRY@@@std@@@3@$0A@@std@@@2@@Z 0042bb90 f i WantedList.obj
 0001:0002abf0       ?_Kfn@?$_Tmap_traits@KPAUWANTED_ENTRY@@U?$less@K@std@@V?$allocator@U?$pair@$$CBKPAUWANTED_ENTRY@@@std@@@3@$0A@@std@@SAABKABU?$pair@$$CBKPAUWANTED_ENTRY@@@2@@Z 0042bbf0 f i WantedList.obj
 0001:0002ac00       ??0?$allocator@U?$pair@$$CBKPAUWANTED_ENTRY@@@std@@@std@@QAE@XZ 0042bc00 f i WantedList.obj
 0001:0002ac10       ?deallocate@?$allocator@U_Node@?$_Tree_nod@V?$_Tmap_traits@KPAUWANTED_ENTRY@@U?$less@K@std@@V?$allocator@U?$pair@$$CBKPAUWANTED_ENTRY@@@std@@@3@$0A@@std@@@std@@@std@@QAEXPAU_Node@?$_Tree_nod@V?$_Tmap_traits@KPAUWANTED_ENTRY@@U?$less@K@std@@V?$allocator@U?$pair@$$CBKPAUWANTED_ENTRY@@@std@@@3@$0A@@std@@@2@I@Z 0042bc10 f i WantedList.obj
 0001:0002ac20       ??0const_iterator@?$_Tree@V?$_Tmap_traits@KPAUWANTED_ENTRY@@U?$less@K@std@@V?$allocator@U?$pair@$$CBKPAUWANTED_ENTRY@@@std@@@3@$0A@@std@@@std@@QAE@XZ 0042bc20 f i WantedList.obj
 0001:0002ac30       ??8const_iterator@?$_Tree@V?$_Tmap_traits@KPAUWANTED_ENTRY@@U?$less@K@std@@V?$allocator@U?$pair@$$CBKPAUWANTED_ENTRY@@@std@@@3@$0A@@std@@@std@@QBE_NABV012@@Z 0042bc30 f i WantedList.obj
 0001:0002ac40       ?_Mynode@const_iterator@?$_Tree@V?$_Tmap_traits@KPAUWANTED_ENTRY@@U?$less@K@std@@V?$allocator@U?$pair@$$CBKPAUWANTED_ENTRY@@@std@@@3@$0A@@std@@@std@@QBEPAU_Node@?$_Tree_nod@V?$_Tmap_traits@KPAUWANTED_ENTRY@@U?$less@K@std@@V?$allocator@U?$pair@$$CBKPAUWANTED_ENTRY@@@std@@@3@$0A@@std@@@3@XZ 0042bc40 f i WantedList.obj
 0001:0002ac50       ??0?$pair@Viterator@?$_Tree@V?$_Tmap_traits@KPAUWANTED_ENTRY@@U?$less@K@std@@V?$allocator@U?$pair@$$CBKPAUWANTED_ENTRY@@@std@@@3@$0A@@std@@@std@@_N@std@@QAE@ABViterator@?$_Tree@V?$_Tmap_traits@KPAUWANTED_ENTRY@@U?$less@K@std@@V?$allocator@U?$pair@$$CBKPAUWANTED_ENTRY@@@std@@@3@$0A@@std@@@1@AB_N@Z 0042bc50 f i WantedList.obj
 0001:0002ac70       ?capacity@?$vector@PAUWANTED_ENTRY@@V?$allocator@PAUWANTED_ENTRY@@@std@@@std@@QBEIXZ 0042bc70 f i WantedList.obj
 0001:0002ac90       ??0?$allocator@PAUWANTED_ENTRY@@@std@@QAE@XZ 0042bc90 f i WantedList.obj
 0001:0002aca0       ?deallocate@?$allocator@PAUWANTED_ENTRY@@@std@@QAEXPAPAUWANTED_ENTRY@@I@Z 0042bca0 f i WantedList.obj
 0001:0002acb0       ?_Myval@?$_Tree@V?$_Tmap_traits@KPAUWANTED_ENTRY@@U?$less@K@std@@V?$allocator@U?$pair@$$CBKPAUWANTED_ENTRY@@@std@@@3@$0A@@std@@@std@@KAAAU?$pair@$$CBKPAUWANTED_ENTRY@@@2@PAU_Node@?$_Tree_nod@V?$_Tmap_traits@KPAUWANTED_ENTRY@@U?$less@K@std@@V?$allocator@U?$pair@$$CBKPAUWANTED_ENTRY@@@std@@@3@$0A@@std@@@2@@Z 0042bcb0 f i WantedList.obj
 0001:0002acc0       ??0?$allocator@U?$pair@$$CBKPAUWANTED_ENTRY@@@std@@@std@@QAE@ABV01@@Z 0042bcc0 f i WantedList.obj
 0001:0002acd0       ??0const_iterator@?$_Tree@V?$_Tmap_traits@KPAUWANTED_ENTRY@@U?$less@K@std@@V?$allocator@U?$pair@$$CBKPAUWANTED_ENTRY@@@std@@@3@$0A@@std@@@std@@QAE@PAU_Node@?$_Tree_nod@V?$_Tmap_traits@KPAUWANTED_ENTRY@@U?$less@K@std@@V?$allocator@U?$pair@$$CBKPAUWANTED_ENTRY@@@std@@@3@$0A@@std@@@2@@Z 0042bcd0 f i WantedList.obj
 0001:0002ace0       ??Dconst_iterator@?$_Tree@V?$_Tmap_traits@KPAUWANTED_ENTRY@@U?$less@K@std@@V?$allocator@U?$pair@$$CBKPAUWANTED_ENTRY@@@std@@@3@$0A@@std@@@std@@QBEABU?$pair@$$CBKPAUWANTED_ENTRY@@@2@XZ 0042bce0 f i WantedList.obj
 0001:0002acf0       ?_Inc@const_iterator@?$_Tree@V?$_Tmap_traits@KPAUWANTED_ENTRY@@U?$less@K@std@@V?$allocator@U?$pair@$$CBKPAUWANTED_ENTRY@@@std@@@3@$0A@@std@@@std@@QAEXXZ 0042bcf0 f i WantedList.obj
 0001:0002ad50       ??0?$allocator@PAUWANTED_ENTRY@@@std@@QAE@ABV01@@Z 0042bd50 f i WantedList.obj
 0001:0002ad60       ?max_size@?$allocator@PAUWANTED_ENTRY@@@std@@QBEIXZ 0042bd60 f i WantedList.obj
 0001:0002ad70       ??Yiterator@?$vector@PAUWANTED_ENTRY@@V?$allocator@PAUWANTED_ENTRY@@@std@@@std@@QAEAAV012@H@Z 0042bd70 f i WantedList.obj
 0001:0002ad90       ??0const_iterator@?$vector@PAUWANTED_ENTRY@@V?$allocator@PAUWANTED_ENTRY@@@std@@@std@@QAE@PAPAUWANTED_ENTRY@@@Z 0042bd90 f i WantedList.obj
 0001:0002ada0       ??Dconst_iterator@?$vector@PAUWANTED_ENTRY@@V?$allocator@PAUWANTED_ENTRY@@@std@@@std@@QBEABQAUWANTED_ENTRY@@XZ 0042bda0 f i WantedList.obj
 0001:0002adb0       ?_Root@?$_Tree@V?$_Tmap_traits@KPAUWANTED_ENTRY@@U?$less@K@std@@V?$allocator@U?$pair@$$CBKPAUWANTED_ENTRY@@@std@@@3@$0A@@std@@@std@@IBEAAPAU_Node@?$_Tree_nod@V?$_Tmap_traits@KPAUWANTED_ENTRY@@U?$less@K@std@@V?$allocator@U?$pair@$$CBKPAUWANTED_ENTRY@@@std@@@3@$0A@@std@@@2@XZ 0042bdb0 f i WantedList.obj
 0001:0002adc0       ?max_size@?$allocator@U?$pair@$$CBKPAUWANTED_ENTRY@@@std@@@std@@QBEIXZ 0042bdc0 f i WantedList.obj
 0001:0002add0       ?_Dec@const_iterator@?$_Tree@V?$_Tmap_traits@KPAUWANTED_ENTRY@@U?$less@K@std@@V?$allocator@U?$pair@$$CBKPAUWANTED_ENTRY@@@std@@@3@$0A@@std@@@std@@QAEXXZ 0042bdd0 f i WantedList.obj
 0001:0002ae30       ??Gconst_iterator@?$vector@PAUWANTED_ENTRY@@V?$allocator@PAUWANTED_ENTRY@@@std@@@std@@QBEHABV012@@Z 0042be30 f i WantedList.obj
 0001:0002ae40       ??0_Node@?$_Tree_nod@V?$_Tmap_traits@KPAUWANTED_ENTRY@@U?$less@K@std@@V?$allocator@U?$pair@$$CBKPAUWANTED_ENTRY@@@std@@@3@$0A@@std@@@std@@QAE@PAU012@00ABU?$pair@$$CBKPAUWANTED_ENTRY@@@2@D@Z 0042be40 f i WantedList.obj
 0001:0002ae80       ??0?$_Tmap_traits@KPAUWANTED_ENTRY@@U?$less@K@std@@V?$allocator@U?$pair@$$CBKPAUWANTED_ENTRY@@@std@@@3@$0A@@std@@QAE@U?$less@K@1@@Z 0042be80 f i WantedList.obj
 0001:0002ae90       ??$?0KPAUWANTED_ENTRY@@@?$pair@$$CBKPAUWANTED_ENTRY@@@std@@QAE@ABU?$pair@KPAUWANTED_ENTRY@@@1@@Z 0042be90 f i WantedList.obj
 0001:0002aeb0       ??$_Destroy@U_Node@?$_Tree_nod@V?$_Tmap_traits@KPAUWANTED_ENTRY@@U?$less@K@std@@V?$allocator@U?$pair@$$CBKPAUWANTED_ENTRY@@@std@@@3@$0A@@std@@@std@@@std@@YAXPAU_Node@?$_Tree_nod@V?$_Tmap_traits@KPAUWANTED_ENTRY@@U?$less@K@std@@V?$allocator@U?$pair@$$CBKPAUWANTED_ENTRY@@@std@@@3@$0A@@std@@@0@@Z 0042beb0 f i WantedList.obj
 0001:0002aec0       ??$_Allocate@PAUWANTED_ENTRY@@@std@@YAPAPAUWANTED_ENTRY@@IPAPAU1@@Z 0042bec0 f i WantedList.obj
 0001:0002aee0       ??$_Destroy@PAU_Node@?$_Tree_nod@V?$_Tmap_traits@KPAUWANTED_ENTRY@@U?$less@K@std@@V?$allocator@U?$pair@$$CBKPAUWANTED_ENTRY@@@std@@@3@$0A@@std@@@std@@@std@@YAXPAPAU_Node@?$_Tree_nod@V?$_Tmap_traits@KPAUWANTED_ENTRY@@U?$less@K@std@@V?$allocator@U?$pair@$$CBKPAUWANTED_ENTRY@@@std@@@3@$0A@@std@@@0@@Z 0042bee0 f i WantedList.obj
 0001:0002aef0       ??$fill@PAPAUWANTED_ENTRY@@PAU1@@std@@YAXPAPAUWANTED_ENTRY@@0ABQAU1@@Z 0042bef0 f i WantedList.obj
 0001:0002af10       ??$?0U?$pair@$$CBKPAUWANTED_ENTRY@@@std@@@?$allocator@PAU_Node@?$_Tree_nod@V?$_Tmap_traits@KPAUWANTED_ENTRY@@U?$less@K@std@@V?$allocator@U?$pair@$$CBKPAUWANTED_ENTRY@@@std@@@3@$0A@@std@@@std@@@std@@QAE@ABV?$allocator@U?$pair@$$CBKPAUWANTED_ENTRY@@@std@@@1@@Z 0042bf10 f i WantedList.obj
 0001:0002af20       ??$_Allocate@U_Node@?$_Tree_nod@V?$_Tmap_traits@KPAUWANTED_ENTRY@@U?$less@K@std@@V?$allocator@U?$pair@$$CBKPAUWANTED_ENTRY@@@std@@@3@$0A@@std@@@std@@@std@@YAPAU_Node@?$_Tree_nod@V?$_Tmap_traits@KPAUWANTED_ENTRY@@U?$less@K@std@@V?$allocator@U?$pair@$$CBKPAUWANTED_ENTRY@@@std@@@3@$0A@@std@@@0@IPAU120@@Z 0042bf20 f i WantedList.obj
 0001:0002af40       ??$?0U?$pair@$$CBKPAUWANTED_ENTRY@@@std@@@?$allocator@U_Node@?$_Tree_nod@V?$_Tmap_traits@KPAUWANTED_ENTRY@@U?$less@K@std@@V?$allocator@U?$pair@$$CBKPAUWANTED_ENTRY@@@std@@@3@$0A@@std@@@std@@@std@@QAE@ABV?$allocator@U?$pair@$$CBKPAUWANTED_ENTRY@@@std@@@1@@Z 0042bf40 f i WantedList.obj
 0001:0002af50       ??$_Construct@PAU_Node@?$_Tree_nod@V?$_Tmap_traits@KPAUWANTED_ENTRY@@U?$less@K@std@@V?$allocator@U?$pair@$$CBKPAUWANTED_ENTRY@@@std@@@3@$0A@@std@@@std@@PAU123@@std@@YAXPAPAU_Node@?$_Tree_nod@V?$_Tmap_traits@KPAUWANTED_ENTRY@@U?$less@K@std@@V?$allocator@U?$pair@$$CBKPAUWANTED_ENTRY@@@std@@@3@$0A@@std@@@0@ABQAU120@@Z 0042bf50 f i WantedList.obj
 0001:0002af70       ??0?$pair@KPAUWANTED_ENTRY@@@std@@QAE@ABKABQAUWANTED_ENTRY@@@Z 0042bf70 f i WantedList.obj
 0001:0002af90       ??$_Ptr_cat@UWANTED_ENTRY@@@std@@YA?AU_Scalar_ptr_iterator_tag@0@PAPAUWANTED_ENTRY@@0@Z 0042bf90 f i WantedList.obj
 0001:0002afa0       ??$_Destroy_range@PAUWANTED_ENTRY@@V?$allocator@PAUWANTED_ENTRY@@@std@@@std@@YAXPAPAUWANTED_ENTRY@@0AAV?$allocator@PAUWANTED_ENTRY@@@0@U_Scalar_ptr_iterator_tag@0@@Z 0042bfa0 f i WantedList.obj
 0001:0002afb0       ??$_Copy_backward_opt@PAPAUWANTED_ENTRY@@PAPAU1@@std@@YAPAPAUWANTED_ENTRY@@PAPAU1@00U_Scalar_ptr_iterator_tag@0@@Z 0042bfb0 f i WantedList.obj
 0001:0002afe0       ??$_Ptr_cat@Viterator@?$vector@PAUWANTED_ENTRY@@V?$allocator@PAUWANTED_ENTRY@@@std@@@std@@PAPAUWANTED_ENTRY@@@std@@YA?AU_Nonscalar_ptr_iterator_tag@0@AAViterator@?$vector@PAUWANTED_ENTRY@@V?$allocator@PAUWANTED_ENTRY@@@std@@@0@AAPAPAUWANTED_ENTRY@@@Z 0042bfe0 f i WantedList.obj
 0001:0002aff0       ??$fill_n@PAPAUWANTED_ENTRY@@IPAU1@@std@@YAXPAPAUWANTED_ENTRY@@IABQAU1@@Z 0042bff0 f i WantedList.obj
 0001:0002b010       ??$_Uninit_copy@PAUWANTED_ENTRY@@PAU1@@std@@YAPAPAUWANTED_ENTRY@@PAPAU1@00AAV?$allocator@PAUWANTED_ENTRY@@@0@U_Scalar_ptr_iterator_tag@0@@Z 0042c010 f i WantedList.obj
 0001:0002b040       ??Eiterator@?$vector@PAUWANTED_ENTRY@@V?$allocator@PAUWANTED_ENTRY@@@std@@@std@@QAEAAV012@XZ 0042c040 f i WantedList.obj
 0001:0002b050       ??Eiterator@?$vector@PAUWANTED_ENTRY@@V?$allocator@PAUWANTED_ENTRY@@@std@@@std@@QAE?AV012@H@Z 0042c050 f i WantedList.obj
 0001:0002b060       ??Fiterator@?$vector@PAUWANTED_ENTRY@@V?$allocator@PAUWANTED_ENTRY@@@std@@@std@@QAEAAV012@XZ 0042c060 f i WantedList.obj
 0001:0002b070       ??8const_iterator@?$vector@PAUWANTED_ENTRY@@V?$allocator@PAUWANTED_ENTRY@@@std@@@std@@QBE_NABV012@@Z 0042c070 f i WantedList.obj
 0001:0002b080       ??9const_iterator@?$vector@PAUWANTED_ENTRY@@V?$allocator@PAUWANTED_ENTRY@@@std@@@std@@QBE_NABV012@@Z 0042c080 f i WantedList.obj
 0001:0002b0a0       ??Mconst_iterator@?$vector@PAUWANTED_ENTRY@@V?$allocator@PAUWANTED_ENTRY@@@std@@@std@@QBE_NABV012@@Z 0042c0a0 f i WantedList.obj
 0001:0002b0b0       ??0?$pair@Viterator@?$vector@PAUWANTED_ENTRY@@V?$allocator@PAUWANTED_ENTRY@@@std@@@std@@V123@@std@@QAE@ABViterator@?$vector@PAUWANTED_ENTRY@@V?$allocator@PAUWANTED_ENTRY@@@std@@@1@0@Z 0042c0b0 f i WantedList.obj
 0001:0002b0d0       ??Ziterator@?$vector@PAUWANTED_ENTRY@@V?$allocator@PAUWANTED_ENTRY@@@std@@@std@@QAEAAV012@H@Z 0042c0d0 f i WantedList.obj
 0001:0002b0f0       ??$_Dist_type@Viterator@?$vector@PAUWANTED_ENTRY@@V?$allocator@PAUWANTED_ENTRY@@@std@@@std@@@std@@YAPAHViterator@?$vector@PAUWANTED_ENTRY@@V?$allocator@PAUWANTED_ENTRY@@@std@@@0@@Z 0042c0f0 f i WantedList.obj
 0001:0002b100       ??$_Val_type@Viterator@?$vector@PAUWANTED_ENTRY@@V?$allocator@PAUWANTED_ENTRY@@@std@@@std@@@std@@YAPAPAUWANTED_ENTRY@@Viterator@?$vector@PAUWANTED_ENTRY@@V?$allocator@PAUWANTED_ENTRY@@@std@@@0@@Z 0042c100 f i WantedList.obj
 0001:0002b110       ??$_Construct@PAUWANTED_ENTRY@@PAU1@@std@@YAXPAPAUWANTED_ENTRY@@ABQAU1@@Z 0042c110 f i WantedList.obj
 0001:0002b130       ??$_Destroy@PAUWANTED_ENTRY@@@std@@YAXPAPAUWANTED_ENTRY@@@Z 0042c130 f i WantedList.obj
 0001:0002b140       ??$swap@PAUWANTED_ENTRY@@@std@@YAXAAPAUWANTED_ENTRY@@0@Z 0042c140 f i WantedList.obj
 0001:0002b160       ??$_Iter_cat@Viterator@?$vector@PAUWANTED_ENTRY@@V?$allocator@PAUWANTED_ENTRY@@@std@@@std@@@std@@YA?AUrandom_access_iterator_tag@0@ABViterator@?$vector@PAUWANTED_ENTRY@@V?$allocator@PAUWANTED_ENTRY@@@std@@@0@@Z 0042c160 f i WantedList.obj
 0001:0002b170       ??0iterator@?$_Tree@V?$_Tmap_traits@KPAUWANTED_ENTRY@@U?$less@K@std@@V?$allocator@U?$pair@$$CBKPAUWANTED_ENTRY@@@std@@@3@$0A@@std@@@std@@QAE@XZ 0042c170 f i WantedList.obj
 0001:0002b180       ??9const_iterator@?$_Tree@V?$_Tmap_traits@KPAUWANTED_ENTRY@@U?$less@K@std@@V?$allocator@U?$pair@$$CBKPAUWANTED_ENTRY@@@std@@@3@$0A@@std@@@std@@QBE_NABV012@@Z 0042c180 f i WantedList.obj
 0001:0002b1a0       ?_Key@?$_Tree@V?$_Tmap_traits@KPAUWANTED_ENTRY@@U?$less@K@std@@V?$allocator@U?$pair@$$CBKPAUWANTED_ENTRY@@@std@@@3@$0A@@std@@@std@@KAABKPAU_Node@?$_Tree_nod@V?$_Tmap_traits@KPAUWANTED_ENTRY@@U?$less@K@std@@V?$allocator@U?$pair@$$CBKPAUWANTED_ENTRY@@@std@@@3@$0A@@std@@@2@@Z 0042c1a0 f i WantedList.obj
 0001:0002b1b0       ?_Lrotate@?$_Tree@V?$_Tmap_traits@KPAUWANTED_ENTRY@@U?$less@K@std@@V?$allocator@U?$pair@$$CBKPAUWANTED_ENTRY@@@std@@@3@$0A@@std@@@std@@IAEXPAU_Node@?$_Tree_nod@V?$_Tmap_traits@KPAUWANTED_ENTRY@@U?$less@K@std@@V?$allocator@U?$pair@$$CBKPAUWANTED_ENTRY@@@std@@@3@$0A@@std@@@2@@Z 0042c1b0 f i WantedList.obj
 0001:0002b210       ?destroy@?$allocator@U_Node@?$_Tree_nod@V?$_Tmap_traits@KPAUWANTED_ENTRY@@U?$less@K@std@@V?$allocator@U?$pair@$$CBKPAUWANTED_ENTRY@@@std@@@3@$0A@@std@@@std@@@std@@QAEXPAU_Node@?$_Tree_nod@V?$_Tmap_traits@KPAUWANTED_ENTRY@@U?$less@K@std@@V?$allocator@U?$pair@$$CBKPAUWANTED_ENTRY@@@std@@@3@$0A@@std@@@2@@Z 0042c210 f i WantedList.obj
 0001:0002b220       ??0iterator@?$_Tree@V?$_Tmap_traits@KPAUWANTED_ENTRY@@U?$less@K@std@@V?$allocator@U?$pair@$$CBKPAUWANTED_ENTRY@@@std@@@3@$0A@@std@@@std@@QAE@PAU_Node@?$_Tree_nod@V?$_Tmap_traits@KPAUWANTED_ENTRY@@U?$less@K@std@@V?$allocator@U?$pair@$$CBKPAUWANTED_ENTRY@@@std@@@3@$0A@@std@@@2@@Z 0042c220 f i WantedList.obj
 0001:0002b230       ??Diterator@?$_Tree@V?$_Tmap_traits@KPAUWANTED_ENTRY@@U?$less@K@std@@V?$allocator@U?$pair@$$CBKPAUWANTED_ENTRY@@@std@@@3@$0A@@std@@@std@@QBEAAU?$pair@$$CBKPAUWANTED_ENTRY@@@2@XZ 0042c230 f i WantedList.obj
 0001:0002b240       ??Econst_iterator@?$_Tree@V?$_Tmap_traits@KPAUWANTED_ENTRY@@U?$less@K@std@@V?$allocator@U?$pair@$$CBKPAUWANTED_ENTRY@@@std@@@3@$0A@@std@@@std@@QAEAAV012@XZ 0042c240 f i WantedList.obj
 0001:0002b250       ?max_size@?$vector@PAUWANTED_ENTRY@@V?$allocator@PAUWANTED_ENTRY@@@std@@@std@@QBEIXZ 0042c250 f i WantedList.obj
 0001:0002b260       ??0?$_Vector_val@PAUWANTED_ENTRY@@V?$allocator@PAUWANTED_ENTRY@@@std@@@std@@IAE@V?$allocator@PAUWANTED_ENTRY@@@1@@Z 0042c260 f i WantedList.obj
 0001:0002b270       ?allocate@?$allocator@PAUWANTED_ENTRY@@@std@@QAEPAPAUWANTED_ENTRY@@I@Z 0042c270 f i WantedList.obj
 0001:0002b290       ??0iterator@?$vector@PAUWANTED_ENTRY@@V?$allocator@PAUWANTED_ENTRY@@@std@@@std@@QAE@PAPAUWANTED_ENTRY@@@Z 0042c290 f i WantedList.obj
 0001:0002b2a0       ??Diterator@?$vector@PAUWANTED_ENTRY@@V?$allocator@PAUWANTED_ENTRY@@@std@@@std@@QBEAAPAUWANTED_ENTRY@@XZ 0042c2a0 f i WantedList.obj
 0001:0002b2b0       ??Hiterator@?$vector@PAUWANTED_ENTRY@@V?$allocator@PAUWANTED_ENTRY@@@std@@@std@@QBE?AV012@H@Z 0042c2b0 f i WantedList.obj
 0001:0002b2d0       ?max_size@?$_Tree@V?$_Tmap_traits@KPAUWANTED_ENTRY@@U?$less@K@std@@V?$allocator@U?$pair@$$CBKPAUWANTED_ENTRY@@@std@@@3@$0A@@std@@@std@@QBEIXZ 0042c2d0 f i WantedList.obj
 0001:0002b2e0       ?_Lbound@?$_Tree@V?$_Tmap_traits@KPAUWANTED_ENTRY@@U?$less@K@std@@V?$allocator@U?$pair@$$CBKPAUWANTED_ENTRY@@@std@@@3@$0A@@std@@@std@@IBEPAU_Node@?$_Tree_nod@V?$_Tmap_traits@KPAUWANTED_ENTRY@@U?$less@K@std@@V?$allocator@U?$pair@$$CBKPAUWANTED_ENTRY@@@std@@@3@$0A@@std@@@2@ABK@Z 0042c2e0 f i WantedList.obj
 0001:0002b310       ?destroy@?$allocator@PAU_Node@?$_Tree_nod@V?$_Tmap_traits@KPAUWANTED_ENTRY@@U?$less@K@std@@V?$allocator@U?$pair@$$CBKPAUWANTED_ENTRY@@@std@@@3@$0A@@std@@@std@@@std@@QAEXPAPAU_Node@?$_Tree_nod@V?$_Tmap_traits@KPAUWANTED_ENTRY@@U?$less@K@std@@V?$allocator@U?$pair@$$CBKPAUWANTED_ENTRY@@@std@@@3@$0A@@std@@@2@@Z 0042c310 f i WantedList.obj
 0001:0002b320       ??Fconst_iterator@?$_Tree@V?$_Tmap_traits@KPAUWANTED_ENTRY@@U?$less@K@std@@V?$allocator@U?$pair@$$CBKPAUWANTED_ENTRY@@@std@@@3@$0A@@std@@@std@@QAEAAV012@XZ 0042c320 f i WantedList.obj
 0001:0002b330       ??Giterator@?$vector@PAUWANTED_ENTRY@@V?$allocator@PAUWANTED_ENTRY@@@std@@@std@@QBEHABVconst_iterator@12@@Z 0042c330 f i WantedList.obj
 0001:0002b340       ?allocate@?$allocator@U_Node@?$_Tree_nod@V?$_Tmap_traits@KPAUWANTED_ENTRY@@U?$less@K@std@@V?$allocator@U?$pair@$$CBKPAUWANTED_ENTRY@@@std@@@3@$0A@@std@@@std@@@std@@QAEPAU_Node@?$_Tree_nod@V?$_Tmap_traits@KPAUWANTED_ENTRY@@U?$less@K@std@@V?$allocator@U?$pair@$$CBKPAUWANTED_ENTRY@@@std@@@3@$0A@@std@@@2@I@Z 0042c340 f i WantedList.obj
 0001:0002b360       ??0?$_Tree_nod@V?$_Tmap_traits@KPAUWANTED_ENTRY@@U?$less@K@std@@V?$allocator@U?$pair@$$CBKPAUWANTED_ENTRY@@@std@@@3@$0A@@std@@@std@@IAE@ABU?$less@K@1@V?$allocator@U?$pair@$$CBKPAUWANTED_ENTRY@@@std@@@1@@Z 0042c360 f i WantedList.obj
 0001:0002b370       ?construct@?$allocator@PAU_Node@?$_Tree_nod@V?$_Tmap_traits@KPAUWANTED_ENTRY@@U?$less@K@std@@V?$allocator@U?$pair@$$CBKPAUWANTED_ENTRY@@@std@@@3@$0A@@std@@@std@@@std@@QAEXPAPAU_Node@?$_Tree_nod@V?$_Tmap_traits@KPAUWANTED_ENTRY@@U?$less@K@std@@V?$allocator@U?$pair@$$CBKPAUWANTED_ENTRY@@@std@@@3@$0A@@std@@@2@ABQAU342@@Z 0042c370 f i WantedList.obj
 0001:0002b390       ??$make_pair@KPAUWANTED_ENTRY@@@std@@YA?AU?$pair@KPAUWANTED_ENTRY@@@0@KPAUWANTED_ENTRY@@@Z 0042c390 f i WantedList.obj
 0001:0002b3b0       ??$_Destroy_range@PAUWANTED_ENTRY@@V?$allocator@PAUWANTED_ENTRY@@@std@@@std@@YAXPAPAUWANTED_ENTRY@@0AAV?$allocator@PAUWANTED_ENTRY@@@0@@Z 0042c3b0 f i WantedList.obj
 0001:0002b3c0       ??$copy_backward@PAPAUWANTED_ENTRY@@PAPAU1@@std@@YAPAPAUWANTED_ENTRY@@PAPAU1@00@Z 0042c3c0 f i WantedList.obj
 0001:0002b3f0       ??$_Uninit_fill_n@PAUWANTED_ENTRY@@IPAU1@@std@@YAXPAPAUWANTED_ENTRY@@IABQAU1@AAV?$allocator@PAUWANTED_ENTRY@@@0@U_Scalar_ptr_iterator_tag@0@@Z 0042c3f0 f i WantedList.obj
 0001:0002b410       ??$_Uninitialized_copy@PAPAUWANTED_ENTRY@@PAPAU1@V?$allocator@PAUWANTED_ENTRY@@@std@@@std@@YAPAPAUWANTED_ENTRY@@PAPAU1@00AAV?$allocator@PAUWANTED_ENTRY@@@0@@Z 0042c410 f i WantedList.obj
 0001:0002b440       ?construct@?$allocator@PAUWANTED_ENTRY@@@std@@QAEXPAPAUWANTED_ENTRY@@ABQAU3@@Z 0042c440 f i WantedList.obj
 0001:0002b460       ?destroy@?$allocator@PAUWANTED_ENTRY@@@std@@QAEXPAPAUWANTED_ENTRY@@@Z 0042c460 f i WantedList.obj
 0001:0002b470       ??Giterator@?$vector@PAUWANTED_ENTRY@@V?$allocator@PAUWANTED_ENTRY@@@std@@@std@@QBE?AV012@H@Z 0042c470 f i WantedList.obj
 0001:0002b490       ??$iter_swap@Viterator@?$vector@PAUWANTED_ENTRY@@V?$allocator@PAUWANTED_ENTRY@@@std@@@std@@V123@@std@@YAXViterator@?$vector@PAUWANTED_ENTRY@@V?$allocator@PAUWANTED_ENTRY@@@std@@@0@0@Z 0042c490 f i WantedList.obj
 0001:0002b4b0       ??$_Med3@Viterator@?$vector@PAUWANTED_ENTRY@@V?$allocator@PAUWANTED_ENTRY@@@std@@@std@@UwantedComparison@@@std@@YAXViterator@?$vector@PAUWANTED_ENTRY@@V?$allocator@PAUWANTED_ENTRY@@@std@@@0@00UwantedComparison@@@Z 0042c4b0 f i WantedList.obj
 0001:0002b520       ??$_Push_heap@Viterator@?$vector@PAUWANTED_ENTRY@@V?$allocator@PAUWANTED_ENTRY@@@std@@@std@@HPAUWANTED_ENTRY@@UwantedComparison@@@std@@YAXViterator@?$vector@PAUWANTED_ENTRY@@V?$allocator@PAUWANTED_ENTRY@@@std@@@0@HHPAUWANTED_ENTRY@@UwantedComparison@@@Z 0042c520 f i WantedList.obj
 0001:0002b570       ??$_Rotate@Viterator@?$vector@PAUWANTED_ENTRY@@V?$allocator@PAUWANTED_ENTRY@@@std@@@std@@HPAUWANTED_ENTRY@@@std@@YAXViterator@?$vector@PAUWANTED_ENTRY@@V?$allocator@PAUWANTED_ENTRY@@@std@@@0@00PAHPAPAUWANTED_ENTRY@@@Z 0042c570 f i WantedList.obj
 0001:0002b6e0       ?begin@?$_Tree@V?$_Tmap_traits@KPAUWANTED_ENTRY@@U?$less@K@std@@V?$allocator@U?$pair@$$CBKPAUWANTED_ENTRY@@@std@@@3@$0A@@std@@@std@@QAE?AViterator@12@XZ 0042c6e0 f i WantedList.obj
 0001:0002b6f0       ?end@?$_Tree@V?$_Tmap_traits@KPAUWANTED_ENTRY@@U?$less@K@std@@V?$allocator@U?$pair@$$CBKPAUWANTED_ENTRY@@@std@@@3@$0A@@std@@@std@@QAE?AViterator@12@XZ 0042c6f0 f i WantedList.obj
 0001:0002b700       ??Citerator@?$_Tree@V?$_Tmap_traits@KPAUWANTED_ENTRY@@U?$less@K@std@@V?$allocator@U?$pair@$$CBKPAUWANTED_ENTRY@@@std@@@3@$0A@@std@@@std@@QBEPAU?$pair@$$CBKPAUWANTED_ENTRY@@@2@XZ 0042c700 f i WantedList.obj
 0001:0002b710       ??Eiterator@?$_Tree@V?$_Tmap_traits@KPAUWANTED_ENTRY@@U?$less@K@std@@V?$allocator@U?$pair@$$CBKPAUWANTED_ENTRY@@@std@@@3@$0A@@std@@@std@@QAEAAV012@XZ 0042c710 f i WantedList.obj
 0001:0002b720       ??Eiterator@?$_Tree@V?$_Tmap_traits@KPAUWANTED_ENTRY@@U?$less@K@std@@V?$allocator@U?$pair@$$CBKPAUWANTED_ENTRY@@@std@@@3@$0A@@std@@@std@@QAE?AV012@H@Z 0042c720 f i WantedList.obj
 0001:0002b740       ?begin@?$vector@PAUWANTED_ENTRY@@V?$allocator@PAUWANTED_ENTRY@@@std@@@std@@QAE?AViterator@12@XZ 0042c740 f i WantedList.obj
 0001:0002b750       ?end@?$vector@PAUWANTED_ENTRY@@V?$allocator@PAUWANTED_ENTRY@@@std@@@std@@QAE?AViterator@12@XZ 0042c750 f i WantedList.obj
 0001:0002b760       ??A?$vector@PAUWANTED_ENTRY@@V?$allocator@PAUWANTED_ENTRY@@@std@@@std@@QAEAAPAUWANTED_ENTRY@@I@Z 0042c760 f i WantedList.obj
 0001:0002b770       ?lower_bound@?$_Tree@V?$_Tmap_traits@KPAUWANTED_ENTRY@@U?$less@K@std@@V?$allocator@U?$pair@$$CBKPAUWANTED_ENTRY@@@std@@@3@$0A@@std@@@std@@QAE?AViterator@12@ABK@Z 0042c770 f i WantedList.obj
 0001:0002b7b0       ?_Erase@?$_Tree@V?$_Tmap_traits@KPAUWANTED_ENTRY@@U?$less@K@std@@V?$allocator@U?$pair@$$CBKPAUWANTED_ENTRY@@@std@@@3@$0A@@std@@@std@@IAEXPAU_Node@?$_Tree_nod@V?$_Tmap_traits@KPAUWANTED_ENTRY@@U?$less@K@std@@V?$allocator@U?$pair@$$CBKPAUWANTED_ENTRY@@@std@@@3@$0A@@std@@@2@@Z 0042c7b0 f i WantedList.obj
 0001:0002b7f0       ??Fiterator@?$_Tree@V?$_Tmap_traits@KPAUWANTED_ENTRY@@U?$less@K@std@@V?$allocator@U?$pair@$$CBKPAUWANTED_ENTRY@@@std@@@3@$0A@@std@@@std@@QAEAAV012@XZ 0042c7f0 f i WantedList.obj
 0001:0002b800       ?_Destroy@?$vector@PAUWANTED_ENTRY@@V?$allocator@PAUWANTED_ENTRY@@@std@@@std@@IAEXPAPAUWANTED_ENTRY@@0@Z 0042c800 f i WantedList.obj
 0001:0002b810       ?_Tidy@?$vector@PAUWANTED_ENTRY@@V?$allocator@PAUWANTED_ENTRY@@@std@@@std@@IAEXXZ 0042c810 f i WantedList.obj
 0001:0002b840       ?_Buynode@?$_Tree@V?$_Tmap_traits@KPAUWANTED_ENTRY@@U?$less@K@std@@V?$allocator@U?$pair@$$CBKPAUWANTED_ENTRY@@@std@@@3@$0A@@std@@@std@@IAEPAU_Node@?$_Tree_nod@V?$_Tmap_traits@KPAUWANTED_ENTRY@@U?$less@K@std@@V?$allocator@U?$pair@$$CBKPAUWANTED_ENTRY@@@std@@@3@$0A@@std@@@2@PAU342@00ABU?$pair@$$CBKPAUWANTED_ENTRY@@@2@D@Z 0042c840 f i WantedList.obj
 0001:0002b880       ?_Buynode@?$_Tree@V?$_Tmap_traits@KPAUWANTED_ENTRY@@U?$less@K@std@@V?$allocator@U?$pair@$$CBKPAUWANTED_ENTRY@@@std@@@3@$0A@@std@@@std@@IAEPAU_Node@?$_Tree_nod@V?$_Tmap_traits@KPAUWANTED_ENTRY@@U?$less@K@std@@V?$allocator@U?$pair@$$CBKPAUWANTED_ENTRY@@@std@@@3@$0A@@std@@@2@XZ 0042c880 f i WantedList.obj
 0001:0002b8c0       ??0?$_Tree_ptr@V?$_Tmap_traits@KPAUWANTED_ENTRY@@U?$less@K@std@@V?$allocator@U?$pair@$$CBKPAUWANTED_ENTRY@@@std@@@3@$0A@@std@@@std@@IAE@ABU?$less@K@1@V?$allocator@U?$pair@$$CBKPAUWANTED_ENTRY@@@std@@@1@@Z 0042c8c0 f i WantedList.obj
 0001:0002b8d0       ??$_Uninitialized_fill_n@PAPAUWANTED_ENTRY@@IPAU1@V?$allocator@PAUWANTED_ENTRY@@@std@@@std@@YAXPAPAUWANTED_ENTRY@@IABQAU1@AAV?$allocator@PAUWANTED_ENTRY@@@0@@Z 0042c8d0 f i WantedList.obj
 0001:0002b8f0       ??$_Ucopy@PAPAUWANTED_ENTRY@@@?$vector@PAUWANTED_ENTRY@@V?$allocator@PAUWANTED_ENTRY@@@std@@@std@@IAEPAPAUWANTED_ENTRY@@PAPAU2@00@Z 0042c8f0 f i WantedList.obj
 0001:0002b920       ??$_Uninit_copy@Viterator@?$vector@PAUWANTED_ENTRY@@V?$allocator@PAUWANTED_ENTRY@@@std@@@std@@PAPAUWANTED_ENTRY@@V?$allocator@PAUWANTED_ENTRY@@@3@@std@@YAPAPAUWANTED_ENTRY@@Viterator@?$vector@PAUWANTED_ENTRY@@V?$allocator@PAUWANTED_ENTRY@@@std@@@0@0PAPAU1@AAV?$allocator@PAUWANTED_ENTRY@@@0@U_Nonscalar_ptr_iterator_tag@0@@Z 0042c920 f i WantedList.obj
 0001:0002b950       ??$_Median@Viterator@?$vector@PAUWANTED_ENTRY@@V?$allocator@PAUWANTED_ENTRY@@@std@@@std@@UwantedComparison@@@std@@YAXViterator@?$vector@PAUWANTED_ENTRY@@V?$allocator@PAUWANTED_ENTRY@@@std@@@0@00UwantedComparison@@@Z 0042c950 f i WantedList.obj
 0001:0002ba00       ??$_Adjust_heap@Viterator@?$vector@PAUWANTED_ENTRY@@V?$allocator@PAUWANTED_ENTRY@@@std@@@std@@HPAUWANTED_ENTRY@@UwantedComparison@@@std@@YAXViterator@?$vector@PAUWANTED_ENTRY@@V?$allocator@PAUWANTED_ENTRY@@@std@@@0@HHPAUWANTED_ENTRY@@UwantedComparison@@@Z 0042ca00 f i WantedList.obj
 0001:0002ba70       ??$_Rotate@Viterator@?$vector@PAUWANTED_ENTRY@@V?$allocator@PAUWANTED_ENTRY@@@std@@@std@@@std@@YAXViterator@?$vector@PAUWANTED_ENTRY@@V?$allocator@PAUWANTED_ENTRY@@@std@@@0@00Urandom_access_iterator_tag@0@@Z 0042ca70 f i WantedList.obj
 0001:0002ba90       ??$_Pop_heap@Viterator@?$vector@PAUWANTED_ENTRY@@V?$allocator@PAUWANTED_ENTRY@@@std@@@std@@HPAUWANTED_ENTRY@@UwantedComparison@@@std@@YAXViterator@?$vector@PAUWANTED_ENTRY@@V?$allocator@PAUWANTED_ENTRY@@@std@@@0@00PAUWANTED_ENTRY@@UwantedComparison@@PAH@Z 0042ca90 f i WantedList.obj
 0001:0002bac0       ?clear@?$_Tree@V?$_Tmap_traits@KPAUWANTED_ENTRY@@U?$less@K@std@@V?$allocator@U?$pair@$$CBKPAUWANTED_ENTRY@@@std@@@3@$0A@@std@@@std@@QAEXXZ 0042cac0 f i WantedList.obj
 0001:0002baf0       ?find@?$_Tree@V?$_Tmap_traits@KPAUWANTED_ENTRY@@U?$less@K@std@@V?$allocator@U?$pair@$$CBKPAUWANTED_ENTRY@@@std@@@3@$0A@@std@@@std@@QAE?AViterator@12@ABK@Z 0042caf0 f i WantedList.obj
 0001:0002bb60       ??1?$vector@PAUWANTED_ENTRY@@V?$allocator@PAUWANTED_ENTRY@@@std@@@std@@QAE@XZ 0042cb60 f i WantedList.obj
 0001:0002bb90       ?_Ufill@?$vector@PAUWANTED_ENTRY@@V?$allocator@PAUWANTED_ENTRY@@@std@@@std@@IAEPAPAUWANTED_ENTRY@@PAPAU3@IABQAU3@@Z 0042cb90 f i WantedList.obj
 0001:0002bbc0       ?_Init@?$_Tree@V?$_Tmap_traits@KPAUWANTED_ENTRY@@U?$less@K@std@@V?$allocator@U?$pair@$$CBKPAUWANTED_ENTRY@@@std@@@3@$0A@@std@@@std@@IAEXXZ 0042cbc0 f i WantedList.obj
 0001:0002bbf0       ??0?$_Tree_val@V?$_Tmap_traits@KPAUWANTED_ENTRY@@U?$less@K@std@@V?$allocator@U?$pair@$$CBKPAUWANTED_ENTRY@@@std@@@3@$0A@@std@@@std@@IAE@ABU?$less@K@1@V?$allocator@U?$pair@$$CBKPAUWANTED_ENTRY@@@std@@@1@@Z 0042cbf0 f i WantedList.obj
 0001:0002bc00       ??$_Uninitialized_copy@Viterator@?$vector@PAUWANTED_ENTRY@@V?$allocator@PAUWANTED_ENTRY@@@std@@@std@@PAPAUWANTED_ENTRY@@V?$allocator@PAUWANTED_ENTRY@@@3@@std@@YAPAPAUWANTED_ENTRY@@Viterator@?$vector@PAUWANTED_ENTRY@@V?$allocator@PAUWANTED_ENTRY@@@std@@@0@0PAPAU1@AAV?$allocator@PAUWANTED_ENTRY@@@0@@Z 0042cc00 f i WantedList.obj
 0001:0002bc30       ??$_Unguarded_partition@Viterator@?$vector@PAUWANTED_ENTRY@@V?$allocator@PAUWANTED_ENTRY@@@std@@@std@@UwantedComparison@@@std@@YA?AU?$pair@Viterator@?$vector@PAUWANTED_ENTRY@@V?$allocator@PAUWANTED_ENTRY@@@std@@@std@@V123@@0@Viterator@?$vector@PAUWANTED_ENTRY@@V?$allocator@PAUWANTED_ENTRY@@@std@@@0@0UwantedComparison@@@Z 0042cc30 f i WantedList.obj
 0001:0002be30       ??$_Make_heap@Viterator@?$vector@PAUWANTED_ENTRY@@V?$allocator@PAUWANTED_ENTRY@@@std@@@std@@HPAUWANTED_ENTRY@@UwantedComparison@@@std@@YAXViterator@?$vector@PAUWANTED_ENTRY@@V?$allocator@PAUWANTED_ENTRY@@@std@@@0@0UwantedComparison@@PAHPAPAUWANTED_ENTRY@@@Z 0042ce30 f i WantedList.obj
 0001:0002be70       ??$rotate@Viterator@?$vector@PAUWANTED_ENTRY@@V?$allocator@PAUWANTED_ENTRY@@@std@@@std@@@std@@YAXViterator@?$vector@PAUWANTED_ENTRY@@V?$allocator@PAUWANTED_ENTRY@@@std@@@0@00@Z 0042ce70 f i WantedList.obj
 0001:0002bea0       ??$_Pop_heap_0@Viterator@?$vector@PAUWANTED_ENTRY@@V?$allocator@PAUWANTED_ENTRY@@@std@@@std@@PAUWANTED_ENTRY@@UwantedComparison@@@std@@YAXViterator@?$vector@PAUWANTED_ENTRY@@V?$allocator@PAUWANTED_ENTRY@@@std@@@0@0UwantedComparison@@PAPAUWANTED_ENTRY@@@Z 0042cea0 f i WantedList.obj
 0001:0002bed0       ?Rename@CWantedList@@QAEXKPBD@Z 0042ced0 f   WantedList.obj
 0001:0002bf10       ??0?$_Tree@V?$_Tmap_traits@KPAUWANTED_ENTRY@@U?$less@K@std@@V?$allocator@U?$pair@$$CBKPAUWANTED_ENTRY@@@std@@@3@$0A@@std@@@std@@QAE@ABU?$less@K@1@ABV?$allocator@U?$pair@$$CBKPAUWANTED_ENTRY@@@std@@@1@@Z 0042cf10 f i WantedList.obj
 0001:0002bf40       ??$_Ucopy@Viterator@?$vector@PAUWANTED_ENTRY@@V?$allocator@PAUWANTED_ENTRY@@@std@@@std@@@?$vector@PAUWANTED_ENTRY@@V?$allocator@PAUWANTED_ENTRY@@@std@@@std@@IAEPAPAUWANTED_ENTRY@@Viterator@01@0PAPAU2@@Z 0042cf40 f i WantedList.obj
 0001:0002bf60       ??$make_heap@Viterator@?$vector@PAUWANTED_ENTRY@@V?$allocator@PAUWANTED_ENTRY@@@std@@@std@@UwantedComparison@@@std@@YAXViterator@?$vector@PAUWANTED_ENTRY@@V?$allocator@PAUWANTED_ENTRY@@@std@@@0@0UwantedComparison@@@Z 0042cf60 f i WantedList.obj
 0001:0002bf90       ??$_Insertion_sort@Viterator@?$vector@PAUWANTED_ENTRY@@V?$allocator@PAUWANTED_ENTRY@@@std@@@std@@UwantedComparison@@@std@@YAXViterator@?$vector@PAUWANTED_ENTRY@@V?$allocator@PAUWANTED_ENTRY@@@std@@@0@0UwantedComparison@@@Z 0042cf90 f i WantedList.obj
 0001:0002c020       ??$pop_heap@Viterator@?$vector@PAUWANTED_ENTRY@@V?$allocator@PAUWANTED_ENTRY@@@std@@@std@@UwantedComparison@@@std@@YAXViterator@?$vector@PAUWANTED_ENTRY@@V?$allocator@PAUWANTED_ENTRY@@@std@@@0@0UwantedComparison@@@Z 0042d020 f i WantedList.obj
 0001:0002c060       ??$sort_heap@Viterator@?$vector@PAUWANTED_ENTRY@@V?$allocator@PAUWANTED_ENTRY@@@std@@@std@@UwantedComparison@@@std@@YAXViterator@?$vector@PAUWANTED_ENTRY@@V?$allocator@PAUWANTED_ENTRY@@@std@@@0@0UwantedComparison@@@Z 0042d060 f i WantedList.obj
 0001:0002c0b0       ??$_Sort@Viterator@?$vector@PAUWANTED_ENTRY@@V?$allocator@PAUWANTED_ENTRY@@@std@@@std@@HUwantedComparison@@@std@@YAXViterator@?$vector@PAUWANTED_ENTRY@@V?$allocator@PAUWANTED_ENTRY@@@std@@@0@0HUwantedComparison@@@Z 0042d0b0 f i WantedList.obj
 0001:0002c1a0       ?erase@?$_Tree@V?$_Tmap_traits@KPAUWANTED_ENTRY@@U?$less@K@std@@V?$allocator@U?$pair@$$CBKPAUWANTED_ENTRY@@@std@@@3@$0A@@std@@@std@@QAE?AViterator@12@V312@@Z 0042d1a0 f i WantedList.obj
 0001:0002c460       ?_Insert@?$_Tree@V?$_Tmap_traits@KPAUWANTED_ENTRY@@U?$less@K@std@@V?$allocator@U?$pair@$$CBKPAUWANTED_ENTRY@@@std@@@3@$0A@@std@@@std@@IAE?AViterator@12@_NPAU_Node@?$_Tree_nod@V?$_Tmap_traits@KPAUWANTED_ENTRY@@U?$less@K@std@@V?$allocator@U?$pair@$$CBKPAUWANTED_ENTRY@@@std@@@3@$0A@@std@@@2@ABU?$pair@$$CBKPAUWANTED_ENTRY@@@2@@Z 0042d460 f i WantedList.obj
 0001:0002c610       ?_Xlen@?$vector@PAUWANTED_ENTRY@@V?$allocator@PAUWANTED_ENTRY@@@std@@@std@@IBEXXZ 0042d610 f i WantedList.obj
 0001:0002c680       ?erase@?$_Tree@V?$_Tmap_traits@KPAUWANTED_ENTRY@@U?$less@K@std@@V?$allocator@U?$pair@$$CBKPAUWANTED_ENTRY@@@std@@@3@$0A@@std@@@std@@QAE?AViterator@12@V312@0@Z 0042d680 f i WantedList.obj
 0001:0002c740       ?_Insert_n@?$vector@PAUWANTED_ENTRY@@V?$allocator@PAUWANTED_ENTRY@@@std@@@std@@IAEXViterator@12@IABQAUWANTED_ENTRY@@@Z 0042d740 f i WantedList.obj
 0001:0002c920       ??$sort@Viterator@?$vector@PAUWANTED_ENTRY@@V?$allocator@PAUWANTED_ENTRY@@@std@@@std@@UwantedComparison@@@std@@YAXViterator@?$vector@PAUWANTED_ENTRY@@V?$allocator@PAUWANTED_ENTRY@@@std@@@0@0UwantedComparison@@@Z 0042d920 f i WantedList.obj
 0001:0002c940       ?GetReward@CWantedList@@QAE_JKPADAAH@Z 0042d940 f   WantedList.obj
 0001:0002ca50       ?insert@?$_Tree@V?$_Tmap_traits@KPAUWANTED_ENTRY@@U?$less@K@std@@V?$allocator@U?$pair@$$CBKPAUWANTED_ENTRY@@@std@@@3@$0A@@std@@@std@@QAE?AU?$pair@Viterator@?$_Tree@V?$_Tmap_traits@KPAUWANTED_ENTRY@@U?$less@K@std@@V?$allocator@U?$pair@$$CBKPAUWANTED_ENTRY@@@std@@@3@$0A@@std@@@std@@_N@2@ABU?$pair@$$CBKPAUWANTED_ENTRY@@@2@@Z 0042da50 f i WantedList.obj
 0001:0002cb10       ?reserve@?$vector@PAUWANTED_ENTRY@@V?$allocator@PAUWANTED_ENTRY@@@std@@@std@@QAEXI@Z 0042db10 f i WantedList.obj
 0001:0002cbe0       ?_Tidy@?$_Tree@V?$_Tmap_traits@KPAUWANTED_ENTRY@@U?$less@K@std@@V?$allocator@U?$pair@$$CBKPAUWANTED_ENTRY@@@std@@@3@$0A@@std@@@std@@IAEXXZ 0042dbe0 f i WantedList.obj
 0001:0002cc10       ?insert@?$vector@PAUWANTED_ENTRY@@V?$allocator@PAUWANTED_ENTRY@@@std@@@std@@QAE?AViterator@12@V312@ABQAUWANTED_ENTRY@@@Z 0042dc10 f i WantedList.obj
 0001:0002cc60       ?_Buy@?$vector@PAUWANTED_ENTRY@@V?$allocator@PAUWANTED_ENTRY@@@std@@@std@@IAE_NI@Z 0042dc60 f i WantedList.obj
 0001:0002ccb0       ?Read@CWantedList@@QAEXAAVCAr@@@Z 0042dcb0 f   WantedList.obj
 0001:0002cdf0       ?SetEntry@CWantedList@@QAEHKPBDH0@Z 0042ddf0 f   WantedList.obj
 0001:0002cf70       ??1?$_Tree@V?$_Tmap_traits@KPAUWANTED_ENTRY@@U?$less@K@std@@V?$allocator@U?$pair@$$CBKPAUWANTED_ENTRY@@@std@@@3@$0A@@std@@@std@@QAE@XZ 0042df70 f i WantedList.obj
 0001:0002cfa0       ??0?$vector@PAUWANTED_ENTRY@@V?$allocator@PAUWANTED_ENTRY@@@std@@@std@@QAE@XZ 0042dfa0 f i WantedList.obj
 0001:0002cfb0       ?push_back@?$vector@PAUWANTED_ENTRY@@V?$allocator@PAUWANTED_ENTRY@@@std@@@std@@QAEXABQAUWANTED_ENTRY@@@Z 0042dfb0 f i WantedList.obj
 0001:0002d000       ??1?$map@KPAUWANTED_ENTRY@@U?$less@K@std@@V?$allocator@U?$pair@$$CBKPAUWANTED_ENTRY@@@std@@@3@@std@@QAE@XZ 0042e000 f i WantedList.obj
 0001:0002d030       ??1CWantedList@@UAE@XZ     0042e030 f   WantedList.obj
 0001:0002d0b0       ?Write@CWantedList@@QAEXAAVCAr@@@Z 0042e0b0 f   WantedList.obj
 0001:0002d2d0       ??0?$map@KPAUWANTED_ENTRY@@U?$less@K@std@@V?$allocator@U?$pair@$$CBKPAUWANTED_ENTRY@@@std@@@3@@std@@QAE@XZ 0042e2d0 f i WantedList.obj
 0001:0002d300       ??0CWantedList@@IAE@XZ     0042e300 f   WantedList.obj
 0001:0002d360       ??_GCWantedList@@UAEPAXI@Z 0042e360 f i WantedList.obj
 0001:0002d360       ??_ECWantedList@@UAEPAXI@Z 0042e360 f i WantedList.obj
 0001:0002d380       ?GetInstance@CWantedList@@SAAAV1@XZ 0042e380 f   WantedList.obj
 0001:0002d3e0       ?_AddErrorMsg@@YAXPBD0@Z   0042e3e0 f   exceptionhandler.obj
 0001:0002d490       ?CrashHandlerExceptionFilter@@YGJPAU_EXCEPTION_POINTERS@@@Z 0042e490 f   exceptionhandler.obj
 0001:0002d6f0       ?InitEH@@YAXXZ             0042e6f0 f   exceptionhandler.obj
 0001:0002d730       ?DXUtil_GetDXSDKMediaPathCch@@YAJPADH@Z 0042e730 f   dxutil.obj
 0001:0002d820       ?DXUtil_WriteStringRegKey@@YAJPAUHKEY__@@PAD1@Z 0042e820 f   dxutil.obj
 0001:0002d860       ?DXUtil_ReadIntRegKey@@YAJPAUHKEY__@@PADPAKK@Z 0042e860 f   dxutil.obj
 0001:0002d8c0       ?DXUtil_WriteIntRegKey@@YAJPAUHKEY__@@PADK@Z 0042e8c0 f   dxutil.obj
 0001:0002d8f0       ?DXUtil_ReadBoolRegKey@@YAJPAUHKEY__@@PADPAHH@Z 0042e8f0 f   dxutil.obj
 0001:0002d950       ?DXUtil_WriteBoolRegKey@@YAJPAUHKEY__@@PADH@Z 0042e950 f   dxutil.obj
 0001:0002d980       ?DXUtil_ReadGuidRegKey@@YAJPAUHKEY__@@PADPAU_GUID@@AAU2@@Z 0042e980 f   dxutil.obj
 0001:0002d9f0       ?DXUtil_WriteGuidRegKey@@YAJPAUHKEY__@@PADU_GUID@@@Z 0042e9f0 f   dxutil.obj
 0001:0002da50       ?DXUtil_Timer@@YGMW4TIMER_COMMAND@@@Z 0042ea50 f   dxutil.obj
 0001:0002de20       __tcsncpy                  0042ee20 f i dxutil.obj
 0001:0002de30       __tcsrchr                  0042ee30 f i dxutil.obj
 0001:0002de40       ?DXUtil_ConvertAnsiStringToWideCch@@YAJPAGPBDH@Z 0042ee40 f   dxutil.obj
 0001:0002de90       ?DXUtil_ConvertWideStringToAnsiCch@@YAJPADPBGH@Z 0042ee90 f   dxutil.obj
 0001:0002dee0       ?DXUtil_ConvertGenericStringToAnsiCch@@YAJPADPBDH@Z 0042eee0 f   dxutil.obj
 0001:0002df20       ?DXUtil_ConvertGenericStringToWideCch@@YAJPAGPBDH@Z 0042ef20 f   dxutil.obj
 0001:0002df50       ?DXUtil_ConvertAnsiStringToGenericCch@@YAJPADPBDH@Z 0042ef50 f   dxutil.obj
 0001:0002df90       ?DXUtil_ConvertWideStringToGenericCch@@YAJPADPBGH@Z 0042ef90 f   dxutil.obj
 0001:0002dfc0       ?DXUtil_LaunchReadme@@YAXPAUHWND__@@PAD@Z 0042efc0 f   dxutil.obj
 0001:0002e340       ?DXUtil_Trace@@YAXPADZZ    0042f340 f   dxutil.obj
 0001:0002e350       ?DXUtil_ConvertStringToGUID@@YAJPBDPAU_GUID@@@Z 0042f350 f   dxutil.obj
 0001:0002e410       ?DXUtil_ConvertGUIDToStringCch@@YAJPBU_GUID@@PADH@Z 0042f410 f   dxutil.obj
 0001:0002e480       ??0CArrayList@@QAE@W4ArrayListType@@I@Z 0042f480 f   dxutil.obj
 0001:0002e4b0       ??1CArrayList@@QAE@XZ      0042f4b0 f   dxutil.obj
 0001:0002e4c0       ?Add@CArrayList@@QAEJPAX@Z 0042f4c0 f   dxutil.obj
 0001:0002e5b0       ?Remove@CArrayList@@QAEXI@Z 0042f5b0 f   dxutil.obj
 0001:0002e5f0       ?GetPtr@CArrayList@@QAEPAXI@Z 0042f5f0 f   dxutil.obj
 0001:0002e610       ?Contains@CArrayList@@QAE_NPAX@Z 0042f610 f   dxutil.obj
 0001:0002e660       ?DXUtil_ConvertAnsiStringToWideCb@@YAJPAGPBDH@Z 0042f660 f   dxutil.obj
 0001:0002e6b0       ?DXUtil_ConvertWideStringToAnsiCb@@YAJPADPBGH@Z 0042f6b0 f   dxutil.obj
 0001:0002e700       ?DXUtil_ConvertGenericStringToAnsiCb@@YAJPADPBDH@Z 0042f700 f   dxutil.obj
 0001:0002e740       ?DXUtil_ConvertGenericStringToWideCb@@YAJPAGPBDH@Z 0042f740 f   dxutil.obj
 0001:0002e780       ?DXUtil_ConvertAnsiStringToGenericCb@@YAJPADPBDH@Z 0042f780 f   dxutil.obj
 0001:0002e7c0       ?DXUtil_ConvertWideStringToGenericCb@@YAJPADPBGH@Z 0042f7c0 f   dxutil.obj
 0001:0002e7f0       ?DXUtil_ConvertGUIDToStringCb@@YAJPBU_GUID@@PADH@Z 0042f7f0 f   dxutil.obj
 0001:0002e800       ?DXUtil_GetDXSDKMediaPathCb@@YAJPADH@Z 0042f800 f   dxutil.obj
 0001:0002e810       ?DXUtil_FindMediaFileCch@@YAJPADH0@Z 0042f810 f   dxutil.obj
 0001:0002e9d0       ?DXUtil_ReadStringRegKeyCch@@YAJPAUHKEY__@@PAD1K1@Z 0042f9d0 f   dxutil.obj
 0001:0002ea30       ?DXUtil_ReadStringRegKeyCb@@YAJPAUHKEY__@@PAD1K1@Z 0042fa30 f   dxutil.obj
 0001:0002ea40       ?DXUtil_FindMediaFileCb@@YAJPADH0@Z 0042fa40 f   dxutil.obj
 0001:0002ea50       ?OUTPUTDEBUGSTRING@@YAXPBDZZ 0042fa50 f   debug.obj
 0001:0002eac0       ?MakeFileNameDate@@YAPBDPBD@Z 0042fac0 f   debug.obj
 0001:0002ed20       ?DEBUGOUT2@@YAXPBD0@Z      0042fd20 f   debug.obj
 0001:0002ed80       ?FILEOUT@@YAXPBD0ZZ        0042fd80 f   debug.obj
 0001:0002eda0       ?WriteLog@@YAXPBDZZ        0042fda0 f   debug.obj
 0001:0002edc0       ?WriteError@@YAXPBDZZ      0042fdc0 f   debug.obj
 0001:0002ede0       ?CloseWorkers@CEnvironment@@QAEXXZ 0042fde0 f   Environment.obj
 0001:0002ee30       ??1CTimer@@UAE@XZ          0042fe30 f i Environment.obj
 0001:0002ee40       ?IsTimeOut@CTimer@@QAEHXZ  0042fe40 f i Environment.obj
 0001:0002ee50       ??_GCTimer@@UAEPAXI@Z      0042fe50 f i Environment.obj
 0001:0002ee50       ??_ECTimer@@UAEPAXI@Z      0042fe50 f i Environment.obj
 0001:0002ee70       ?random@@YAHH@Z            0042fe70 f i Environment.obj
 0001:0002ee80       ??0CEnvironment@@QAE@XZ    0042fe80 f   Environment.obj
 0001:0002eee0       ??1CEnvironment@@QAE@XZ    0042fee0 f   Environment.obj
 0001:0002ef30       ?Serialize@CEnvironment@@QAEXAAVCAr@@@Z 0042ff30 f   Environment.obj
 0001:0002ef90       ?Worker@CEnvironment@@QAEXXZ 0042ff90 f   Environment.obj
 0001:0002f030       ?GetInstance@CEnvironment@@SAPAV1@XZ 00430030 f   Environment.obj
 0001:0002f090       ?_Worker@CEnvironment@@SAIPAX@Z 00430090 f   Environment.obj
 0001:0002f0a0       ?CreateWorkers@CEnvironment@@QAEHXZ 004300a0 f   Environment.obj
 0001:0002f0e0       ?Close@CFileIO@@UAEHXZ     004300e0 f   file.obj
 0001:0002f110       ?Open@CFileIO@@UAEHPBDPAD@Z 00430110 f   file.obj
 0001:0002f140       ?Read@CFileIO@@UAEPAXXZ    00430140 f   file.obj
 0001:0002f1a0       ??0CFileFinder@@QAE@XZ     004301a0 f   file.obj
 0001:0002f1b0       ??1CFileFinder@@QAE@XZ     004301b0 f   file.obj
 0001:0002f1c0       ?WildCmp@CFileFinder@@QAEHPBD0@Z 004301c0 f   file.obj
 0001:0002f260       ?FindFirst@CFileFinder@@QAEHPBDPAU_finddata_t@@@Z 00430260 f   file.obj
 0001:0002f290       ?FindNext@CFileFinder@@QAEHPAU_finddata_t@@@Z 00430290 f   file.obj
 0001:0002f2b0       ?FindClose@CFileFinder@@QAEXXZ 004302b0 f   file.obj
 0001:0002f2d0       ?_mbstowcsz@ATL@@YAHPAGPBDK@Z 004302d0 f i file.obj
 0001:0002f320       ?Write@CFileIO@@QAEIPAXII@Z 00430320 f i file.obj
 0001:0002f340       ?PutWideString@CFileIO@@QAEHPBD@Z 00430340 f   file.obj
 0001:0002f3e0       ??5CAr@@QAEAAV0@AAG@Z      004303e0 f i guild.obj
 0001:0002f420       ??0_GUILDQUEST@@QAE@XZ     00430420 f i guild.obj
 0001:0002f440       ?GetID@CGuildVote@@QBEKXZ  00430440 f i guild.obj
 0001:0002f450       ?GetMaxLevel@CGuildTable@@QBEHXZ 00430450 f i guild.obj
 0001:0002f460       ??6@YAAAVCAr@@AAV0@AAUVOTE_INSERTED_INFO@@@Z 00430460 f   guild.obj
 0001:0002f4d0       ??5@YAAAVCAr@@AAV0@AAUVOTE_INSERTED_INFO@@@Z 004304d0 f   guild.obj
 0001:0002f570       ??6@YAAAVCAr@@AAV0@AAUCONTRIBUTION_CHANGED_INFO@@@Z 00430570 f   guild.obj
 0001:0002f620       ??5@YAAAVCAr@@AAV0@AAUCONTRIBUTION_CHANGED_INFO@@@Z 00430620 f   guild.obj
 0001:0002f720       ??0CGuildVote@@QAE@XZ      00430720 f   guild.obj
 0001:0002f750       ??1CGuildVote@@UAE@XZ      00430750 f   guild.obj
 0001:0002f760       ?Init@CGuildVote@@QAEXABUVOTE_INSERTED_INFO@@_NPAE@Z 00430760 f   guild.obj
 0001:0002f7f0       ?Cast@CGuildVote@@QAEXE@Z  004307f0 f   guild.obj
 0001:0002f810       ?Serialize@CGuildVote@@QAEXAAVCAr@@@Z 00430810 f   guild.obj
 0001:0002f960       ??0CGuildTable@@AAE@XZ     00430960 f   guild.obj
 0001:0002f980       ??1CGuildTable@@UAE@XZ     00430980 f   guild.obj
 0001:0002f990       ?ReadBlock@CGuildTable@@QAEHAAVCScript@@@Z 00430990 f   guild.obj
 0001:0002fa10       ?GetPxpCount@CGuildTable@@QBEKG@Z 00430a10 f   guild.obj
 0001:0002fa20       ?GetPenya@CGuildTable@@QBEKG@Z 00430a20 f   guild.obj
 0001:0002fa30       ?GetMaxMemeber@CGuildTable@@QBEGG@Z 00430a30 f   guild.obj
 0001:0002fa40       ??0CGuildMember@@QAE@XZ    00430a40 f   guild.obj
 0001:0002fa70       ??1CGuildMember@@UAE@XZ    00430a70 f   guild.obj
 0001:0002fa80       ??4CGuildMember@@QAEAAV0@AAV0@@Z 00430a80 f   guild.obj
 0001:0002faa0       ?SetLogo@CGuild@@QAEHK@Z   00430aa0 f   guild.obj
 0001:0002fac0       ?SetNotice@CGuild@@QAEXPBD@Z 00430ac0 f   guild.obj
 0001:0002faf0       ?GetWar@CGuild@@QAEPAVCGuildWar@@XZ 00430af0 f   guild.obj
 0001:0002fb10       ?FindQuest@CGuild@@QAEPAU_GUILDQUEST@@H@Z 00430b10 f   guild.obj
 0001:0002fb70       ?size@?$list@PAVCGuildVote@@V?$allocator@PAVCGuildVote@@@std@@@std@@QBEIXZ 00430b70 f i guild.obj
 0001:0002fb80       ?size@?$_Tree@V?$_Tmap_traits@KPAVCGuild@@U?$less@K@std@@V?$allocator@U?$pair@$$CBKPAVCGuild@@@std@@@3@$0A@@std@@@std@@QBEIXZ 00430b80 f i guild.obj
 0001:0002fb90       ??0?$pair@$$CBKPAVCGuildMember@@@std@@QAE@ABKABQAVCGuildMember@@@Z 00430b90 f i guild.obj
 0001:0002fbb0       ??0?$pair@$$CBKPAVCGuild@@@std@@QAE@ABKABQAVCGuild@@@Z 00430bb0 f i guild.obj
 0001:0002fbd0       ?_Rmost@?$_Tree@V?$_Tmap_traits@KPAVCGuildMember@@U?$less@K@std@@V?$allocator@U?$pair@$$CBKPAVCGuildMember@@@std@@@3@$0A@@std@@@std@@IAEAAPAU_Node@?$_Tree_nod@V?$_Tmap_traits@KPAVCGuildMember@@U?$less@K@std@@V?$allocator@U?$pair@$$CBKPAVCGuildMember@@@std@@@3@$0A@@std@@@2@XZ 00430bd0 f i guild.obj
 0001:0002fbe0       ?_Kfn@?$_Tmap_traits@KPAVCGuildMember@@U?$less@K@std@@V?$allocator@U?$pair@$$CBKPAVCGuildMember@@@std@@@3@$0A@@std@@SAABKABU?$pair@$$CBKPAVCGuildMember@@@2@@Z 00430be0 f i guild.obj
 0001:0002fbf0       ??0?$allocator@U?$pair@$$CBKPAVCGuildMember@@@std@@@std@@QAE@XZ 00430bf0 f i guild.obj
 0001:0002fc00       ?_Nextnode@?$list@PAVCGuildVote@@V?$allocator@PAVCGuildVote@@@std@@@std@@KAAAPAU_Node@?$_List_nod@PAVCGuildVote@@V?$allocator@PAVCGuildVote@@@std@@@2@PAU342@@Z 00430c00 f i guild.obj
 0001:0002fc10       ?_Prevnode@?$list@PAVCGuildVote@@V?$allocator@PAVCGuildVote@@@std@@@std@@KAAAPAU_Node@?$_List_nod@PAVCGuildVote@@V?$allocator@PAVCGuildVote@@@std@@@2@PAU342@@Z 00430c10 f i guild.obj
 0001:0002fc20       ??0?$allocator@PAVCGuildVote@@@std@@QAE@XZ 00430c20 f i guild.obj
 0001:0002fc30       ?deallocate@?$allocator@U_Node@?$_List_nod@PAVCGuildVote@@V?$allocator@PAVCGuildVote@@@std@@@std@@@std@@QAEXPAU_Node@?$_List_nod@PAVCGuildVote@@V?$allocator@PAVCGuildVote@@@std@@@2@I@Z 00430c30 f i guild.obj
 0001:0002fc40       ?_Isnil@?$_Tree@V?$_Tmap_traits@KPAVCGuild@@U?$less@K@std@@V?$allocator@U?$pair@$$CBKPAVCGuild@@@std@@@3@$0A@@std@@@std@@KAAADPAU_Node@?$_Tree_nod@V?$_Tmap_traits@KPAVCGuild@@U?$less@K@std@@V?$allocator@U?$pair@$$CBKPAVCGuild@@@std@@@3@$0A@@std@@@2@@Z 00430c40 f i guild.obj
 0001:0002fc50       ?_Left@?$_Tree@V?$_Tmap_traits@KPAVCGuild@@U?$less@K@std@@V?$allocator@U?$pair@$$CBKPAVCGuild@@@std@@@3@$0A@@std@@@std@@KAAAPAU_Node@?$_Tree_nod@V?$_Tmap_traits@KPAVCGuild@@U?$less@K@std@@V?$allocator@U?$pair@$$CBKPAVCGuild@@@std@@@3@$0A@@std@@@2@PAU342@@Z 00430c50 f i guild.obj
 0001:0002fc60       ?_Right@?$_Tree@V?$_Tmap_traits@KPAVCGuild@@U?$less@K@std@@V?$allocator@U?$pair@$$CBKPAVCGuild@@@std@@@3@$0A@@std@@@std@@KAAAPAU_Node@?$_Tree_nod@V?$_Tmap_traits@KPAVCGuild@@U?$less@K@std@@V?$allocator@U?$pair@$$CBKPAVCGuild@@@std@@@3@$0A@@std@@@2@PAU342@@Z 00430c60 f i guild.obj
 0001:0002fc70       ?_Lmost@?$_Tree@V?$_Tmap_traits@KPAVCGuild@@U?$less@K@std@@V?$allocator@U?$pair@$$CBKPAVCGuild@@@std@@@3@$0A@@std@@@std@@IAEAAPAU_Node@?$_Tree_nod@V?$_Tmap_traits@KPAVCGuild@@U?$less@K@std@@V?$allocator@U?$pair@$$CBKPAVCGuild@@@std@@@3@$0A@@std@@@2@XZ 00430c70 f i guild.obj
 0001:0002fc80       ?_Rmost@?$_Tree@V?$_Tmap_traits@KPAVCGuild@@U?$less@K@std@@V?$allocator@U?$pair@$$CBKPAVCGuild@@@std@@@3@$0A@@std@@@std@@IAEAAPAU_Node@?$_Tree_nod@V?$_Tmap_traits@KPAVCGuild@@U?$less@K@std@@V?$allocator@U?$pair@$$CBKPAVCGuild@@@std@@@3@$0A@@std@@@2@XZ 00430c80 f i guild.obj
 0001:0002fc90       ?_Kfn@?$_Tmap_traits@KPAVCGuild@@U?$less@K@std@@V?$allocator@U?$pair@$$CBKPAVCGuild@@@std@@@3@$0A@@std@@SAABKABU?$pair@$$CBKPAVCGuild@@@2@@Z 00430c90 f i guild.obj
 0001:0002fca0       ??0?$allocator@U?$pair@$$CBKPAVCGuild@@@std@@@std@@QAE@XZ 00430ca0 f i guild.obj
 0001:0002fcb0       ?_Isnil@?$_Tree@V?$_Tmap_traits@V?$basic_string@DU?$char_traits@D@std@@V?$allocator@D@2@@std@@PAVCGuild@@U?$less@V?$basic_string@DU?$char_traits@D@std@@V?$allocator@D@2@@std@@@2@V?$allocator@U?$pair@$$CBV?$basic_string@DU?$char_traits@D@std@@V?$allocator@D@2@@std@@PAVCGuild@@@std@@@2@$0A@@std@@@std@@KAAADPAU_Node@?$_Tree_nod@V?$_Tmap_traits@V?$basic_string@DU?$char_traits@D@std@@V?$allocator@D@2@@std@@PAVCGuild@@U?$less@V?$basic_string@DU?$char_traits@D@std@@V?$allocator@D@2@@std@@@2@V?$allocator@U?$pair@$$CBV?$basic_string@DU?$char_traits@D@std@@V?$allocator@D@2@@std@@PAVCGuild@@@std@@@2@$0A@@std@@@2@@Z 00430cb0 f i guild.obj
 0001:0002fcc0       ?_Left@?$_Tree@V?$_Tmap_traits@V?$basic_string@DU?$char_traits@D@std@@V?$allocator@D@2@@std@@PAVCGuild@@U?$less@V?$basic_string@DU?$char_traits@D@std@@V?$allocator@D@2@@std@@@2@V?$allocator@U?$pair@$$CBV?$basic_string@DU?$char_traits@D@std@@V?$allocator@D@2@@std@@PAVCGuild@@@std@@@2@$0A@@std@@@std@@KAAAPAU_Node@?$_Tree_nod@V?$_Tmap_traits@V?$basic_string@DU?$char_traits@D@std@@V?$allocator@D@2@@std@@PAVCGuild@@U?$less@V?$basic_string@DU?$char_traits@D@std@@V?$allocator@D@2@@std@@@2@V?$allocator@U?$pair@$$CBV?$basic_string@DU?$char_traits@D@std@@V?$allocator@D@2@@std@@PAVCGuild@@@std@@@2@$0A@@std@@@2@PAU342@@Z 00430cc0 f i guild.obj
 0001:0002fcd0       ?_Right@?$_Tree@V?$_Tmap_traits@V?$basic_string@DU?$char_traits@D@std@@V?$allocator@D@2@@std@@PAVCGuild@@U?$less@V?$basic_string@DU?$char_traits@D@std@@V?$allocator@D@2@@std@@@2@V?$allocator@U?$pair@$$CBV?$basic_string@DU?$char_traits@D@std@@V?$allocator@D@2@@std@@PAVCGuild@@@std@@@2@$0A@@std@@@std@@KAAAPAU_Node@?$_Tree_nod@V?$_Tmap_traits@V?$basic_string@DU?$char_traits@D@std@@V?$allocator@D@2@@std@@PAVCGuild@@U?$less@V?$basic_string@DU?$char_traits@D@std@@V?$allocator@D@2@@std@@@2@V?$allocator@U?$pair@$$CBV?$basic_string@DU?$char_traits@D@std@@V?$allocator@D@2@@std@@PAVCGuild@@@std@@@2@$0A@@std@@@2@PAU342@@Z 00430cd0 f i guild.obj
 0001:0002fce0       ?_Lmost@?$_Tree@V?$_Tmap_traits@V?$basic_string@DU?$char_traits@D@std@@V?$allocator@D@2@@std@@PAVCGuild@@U?$less@V?$basic_string@DU?$char_traits@D@std@@V?$allocator@D@2@@std@@@2@V?$allocator@U?$pair@$$CBV?$basic_string@DU?$char_traits@D@std@@V?$allocator@D@2@@std@@PAVCGuild@@@std@@@2@$0A@@std@@@std@@IAEAAPAU_Node@?$_Tree_nod@V?$_Tmap_traits@V?$basic_string@DU?$char_traits@D@std@@V?$allocator@D@2@@std@@PAVCGuild@@U?$less@V?$basic_string@DU?$char_traits@D@std@@V?$allocator@D@2@@std@@@2@V?$allocator@U?$pair@$$CBV?$basic_string@DU?$char_traits@D@std@@V?$allocator@D@2@@std@@PAVCGuild@@@std@@@2@$0A@@std@@@2@XZ 00430ce0 f i guild.obj
 0001:0002fcf0       ?_Rmost@?$_Tree@V?$_Tmap_traits@V?$basic_string@DU?$char_traits@D@std@@V?$allocator@D@2@@std@@PAVCGuild@@U?$less@V?$basic_string@DU?$char_traits@D@std@@V?$allocator@D@2@@std@@@2@V?$allocator@U?$pair@$$CBV?$basic_string@DU?$char_traits@D@std@@V?$allocator@D@2@@std@@PAVCGuild@@@std@@@2@$0A@@std@@@std@@IAEAAPAU_Node@?$_Tree_nod@V?$_Tmap_traits@V?$basic_string@DU?$char_traits@D@std@@V?$allocator@D@2@@std@@PAVCGuild@@U?$less@V?$basic_string@DU?$char_traits@D@std@@V?$allocator@D@2@@std@@@2@V?$allocator@U?$pair@$$CBV?$basic_string@DU?$char_traits@D@std@@V?$allocator@D@2@@std@@PAVCGuild@@@std@@@2@$0A@@std@@@2@XZ 00430cf0 f i guild.obj
 0001:0002fd00       ?_Kfn@?$_Tmap_traits@V?$basic_string@DU?$char_traits@D@std@@V?$allocator@D@2@@std@@PAVCGuild@@U?$less@V?$basic_string@DU?$char_traits@D@std@@V?$allocator@D@2@@std@@@2@V?$allocator@U?$pair@$$CBV?$basic_string@DU?$char_traits@D@std@@V?$allocator@D@2@@std@@PAVCGuild@@@std@@@2@$0A@@std@@SAABV?$basic_string@DU?$char_traits@D@std@@V?$allocator@D@2@@2@ABU?$pair@$$CBV?$basic_string@DU?$char_traits@D@std@@V?$allocator@D@2@@std@@PAVCGuild@@@2@@Z 00430d00 f i guild.obj
 0001:0002fd10       ??0?$allocator@U?$pair@$$CBV?$basic_string@DU?$char_traits@D@std@@V?$allocator@D@2@@std@@PAVCGuild@@@std@@@std@@QAE@XZ 00430d10 f i guild.obj
 0001:0002fd20       ?_Mynode@const_iterator@?$_Tree@V?$_Tmap_traits@KPAVCGuildMember@@U?$less@K@std@@V?$allocator@U?$pair@$$CBKPAVCGuildMember@@@std@@@3@$0A@@std@@@std@@QBEPAU_Node@?$_Tree_nod@V?$_Tmap_traits@KPAVCGuildMember@@U?$less@K@std@@V?$allocator@U?$pair@$$CBKPAVCGuildMember@@@std@@@3@$0A@@std@@@3@XZ 00430d20 f i guild.obj
 0001:0002fd30       ??Econst_iterator@?$list@PAVCGuildVote@@V?$allocator@PAVCGuildVote@@@std@@@std@@QAEAAV012@XZ 00430d30 f i guild.obj
 0001:0002fd40       ??8const_iterator@?$list@PAVCGuildVote@@V?$allocator@PAVCGuildVote@@@std@@@std@@QBE_NABV012@@Z 00430d40 f i guild.obj
 0001:0002fd50       ?_Mynode@const_iterator@?$list@PAVCGuildVote@@V?$allocator@PAVCGuildVote@@@std@@@std@@QBEPAU_Node@?$_List_nod@PAVCGuildVote@@V?$allocator@PAVCGuildVote@@@std@@@3@XZ 00430d50 f i guild.obj
 0001:0002fd60       ??0?$pair@Viterator@?$_Tree@V?$_Tmap_traits@KPAVCGuildMember@@U?$less@K@std@@V?$allocator@U?$pair@$$CBKPAVCGuildMember@@@std@@@3@$0A@@std@@@std@@_N@std@@QAE@ABViterator@?$_Tree@V?$_Tmap_traits@KPAVCGuildMember@@U?$less@K@std@@V?$allocator@U?$pair@$$CBKPAVCGuildMember@@@std@@@3@$0A@@std@@@1@AB_N@Z 00430d60 f i guild.obj
 0001:0002fd80       ??8const_iterator@?$_Tree@V?$_Tmap_traits@KPAVCGuild@@U?$less@K@std@@V?$allocator@U?$pair@$$CBKPAVCGuild@@@std@@@3@$0A@@std@@@std@@QBE_NABV012@@Z 00430d80 f i guild.obj
 0001:0002fd90       ?_Mynode@const_iterator@?$_Tree@V?$_Tmap_traits@KPAVCGuild@@U?$less@K@std@@V?$allocator@U?$pair@$$CBKPAVCGuild@@@std@@@3@$0A@@std@@@std@@QBEPAU_Node@?$_Tree_nod@V?$_Tmap_traits@KPAVCGuild@@U?$less@K@std@@V?$allocator@U?$pair@$$CBKPAVCGuild@@@std@@@3@$0A@@std@@@3@XZ 00430d90 f i guild.obj
 0001:0002fda0       ??8const_iterator@?$_Tree@V?$_Tmap_traits@V?$basic_string@DU?$char_traits@D@std@@V?$allocator@D@2@@std@@PAVCGuild@@U?$less@V?$basic_string@DU?$char_traits@D@std@@V?$allocator@D@2@@std@@@2@V?$allocator@U?$pair@$$CBV?$basic_string@DU?$char_traits@D@std@@V?$allocator@D@2@@std@@PAVCGuild@@@std@@@2@$0A@@std@@@std@@QBE_NABV012@@Z 00430da0 f i guild.obj
 0001:0002fdb0       ?_Mynode@const_iterator@?$_Tree@V?$_Tmap_traits@V?$basic_string@DU?$char_traits@D@std@@V?$allocator@D@2@@std@@PAVCGuild@@U?$less@V?$basic_string@DU?$char_traits@D@std@@V?$allocator@D@2@@std@@@2@V?$allocator@U?$pair@$$CBV?$basic_string@DU?$char_traits@D@std@@V?$allocator@D@2@@std@@PAVCGuild@@@std@@@2@$0A@@std@@@std@@QBEPAU_Node@?$_Tree_nod@V?$_Tmap_traits@V?$basic_string@DU?$char_traits@D@std@@V?$allocator@D@2@@std@@PAVCGuild@@U?$less@V?$basic_string@DU?$char_traits@D@std@@V?$allocator@D@2@@std@@@2@V?$allocator@U?$pair@$$CBV?$basic_string@DU?$char_traits@D@std@@V?$allocator@D@2@@std@@PAVCGuild@@@std@@@2@$0A@@std@@@3@XZ 00430db0 f i guild.obj
 0001:0002fdc0       ??0?$pair@Viterator@?$_Tree@V?$_Tmap_traits@V?$basic_string@DU?$char_traits@D@std@@V?$allocator@D@2@@std@@PAVCGuild@@U?$less@V?$basic_string@DU?$char_traits@D@std@@V?$allocator@D@2@@std@@@2@V?$allocator@U?$pair@$$CBV?$basic_string@DU?$char_traits@D@std@@V?$allocator@D@2@@std@@PAVCGuild@@@std@@@2@$0A@@std@@@std@@_N@std@@QAE@ABViterator@?$_Tree@V?$_Tmap_traits@V?$basic_string@DU?$char_traits@D@std@@V?$allocator@D@2@@std@@PAVCGuild@@U?$less@V?$basic_string@DU?$char_traits@D@std@@V?$allocator@D@2@@std@@@2@V?$allocator@U?$pair@$$CBV?$basic_string@DU?$char_traits@D@std@@V?$allocator@D@2@@std@@PAVCGuild@@@std@@@2@$0A@@std@@@1@AB_N@Z 00430dc0 f i guild.obj
 0001:0002fde0       ??0?$pair@Viterator@?$_Tree@V?$_Tmap_traits@KPAVCGuild@@U?$less@K@std@@V?$allocator@U?$pair@$$CBKPAVCGuild@@@std@@@3@$0A@@std@@@std@@_N@std@@QAE@ABViterator@?$_Tree@V?$_Tmap_traits@KPAVCGuild@@U?$less@K@std@@V?$allocator@U?$pair@$$CBKPAVCGuild@@@std@@@3@$0A@@std@@@1@AB_N@Z 00430de0 f i guild.obj
 0001:0002fe00       ?_Color@?$_Tree@V?$_Tmap_traits@KPAVCGuildMember@@U?$less@K@std@@V?$allocator@U?$pair@$$CBKPAVCGuildMember@@@std@@@3@$0A@@std@@@std@@KAAADPAU_Node@?$_Tree_nod@V?$_Tmap_traits@KPAVCGuildMember@@U?$less@K@std@@V?$allocator@U?$pair@$$CBKPAVCGuildMember@@@std@@@3@$0A@@std@@@2@@Z 00430e00 f i guild.obj
 0001:0002fe10       ??0?$allocator@U?$pair@$$CBKPAVCGuildMember@@@std@@@std@@QAE@ABV01@@Z 00430e10 f i guild.obj
 0001:0002fe20       ?deallocate@?$allocator@U_Node@?$_Tree_nod@V?$_Tmap_traits@KPAVCGuildMember@@U?$less@K@std@@V?$allocator@U?$pair@$$CBKPAVCGuildMember@@@std@@@3@$0A@@std@@@std@@@std@@QAEXPAU_Node@?$_Tree_nod@V?$_Tmap_traits@KPAVCGuildMember@@U?$less@K@std@@V?$allocator@U?$pair@$$CBKPAVCGuildMember@@@std@@@3@$0A@@std@@@2@I@Z 00430e20 f i guild.obj
 0001:0002fe30       ?_Myval@?$list@PAVCGuildVote@@V?$allocator@PAVCGuildVote@@@std@@@std@@KAAAPAVCGuildVote@@PAU_Node@?$_List_nod@PAVCGuildVote@@V?$allocator@PAVCGuildVote@@@std@@@2@@Z 00430e30 f i guild.obj
 0001:0002fe40       ??0?$allocator@PAVCGuildVote@@@std@@QAE@ABV01@@Z 00430e40 f i guild.obj
 0001:0002fe50       ?_Color@?$_Tree@V?$_Tmap_traits@KPAVCGuild@@U?$less@K@std@@V?$allocator@U?$pair@$$CBKPAVCGuild@@@std@@@3@$0A@@std@@@std@@KAAADPAU_Node@?$_Tree_nod@V?$_Tmap_traits@KPAVCGuild@@U?$less@K@std@@V?$allocator@U?$pair@$$CBKPAVCGuild@@@std@@@3@$0A@@std@@@2@@Z 00430e50 f i guild.obj
 0001:0002fe60       ?_Parent@?$_Tree@V?$_Tmap_traits@KPAVCGuild@@U?$less@K@std@@V?$allocator@U?$pair@$$CBKPAVCGuild@@@std@@@3@$0A@@std@@@std@@KAAAPAU_Node@?$_Tree_nod@V?$_Tmap_traits@KPAVCGuild@@U?$less@K@std@@V?$allocator@U?$pair@$$CBKPAVCGuild@@@std@@@3@$0A@@std@@@2@PAU342@@Z 00430e60 f i guild.obj
 0001:0002fe70       ?_Myval@?$_Tree@V?$_Tmap_traits@KPAVCGuild@@U?$less@K@std@@V?$allocator@U?$pair@$$CBKPAVCGuild@@@std@@@3@$0A@@std@@@std@@KAAAU?$pair@$$CBKPAVCGuild@@@2@PAU_Node@?$_Tree_nod@V?$_Tmap_traits@KPAVCGuild@@U?$less@K@std@@V?$allocator@U?$pair@$$CBKPAVCGuild@@@std@@@3@$0A@@std@@@2@@Z 00430e70 f i guild.obj
 0001:0002fe80       ??0?$allocator@U?$pair@$$CBKPAVCGuild@@@std@@@std@@QAE@ABV01@@Z 00430e80 f i guild.obj
 0001:0002fe90       ?deallocate@?$allocator@U_Node@?$_Tree_nod@V?$_Tmap_traits@KPAVCGuild@@U?$less@K@std@@V?$allocator@U?$pair@$$CBKPAVCGuild@@@std@@@3@$0A@@std@@@std@@@std@@QAEXPAU_Node@?$_Tree_nod@V?$_Tmap_traits@KPAVCGuild@@U?$less@K@std@@V?$allocator@U?$pair@$$CBKPAVCGuild@@@std@@@3@$0A@@std@@@2@I@Z 00430e90 f i guild.obj
 0001:0002fea0       ?_Color@?$_Tree@V?$_Tmap_traits@V?$basic_string@DU?$char_traits@D@std@@V?$allocator@D@2@@std@@PAVCGuild@@U?$less@V?$basic_string@DU?$char_traits@D@std@@V?$allocator@D@2@@std@@@2@V?$allocator@U?$pair@$$CBV?$basic_string@DU?$char_traits@D@std@@V?$allocator@D@2@@std@@PAVCGuild@@@std@@@2@$0A@@std@@@std@@KAAADPAU_Node@?$_Tree_nod@V?$_Tmap_traits@V?$basic_string@DU?$char_traits@D@std@@V?$allocator@D@2@@std@@PAVCGuild@@U?$less@V?$basic_string@DU?$char_traits@D@std@@V?$allocator@D@2@@std@@@2@V?$allocator@U?$pair@$$CBV?$basic_string@DU?$char_traits@D@std@@V?$allocator@D@2@@std@@PAVCGuild@@@std@@@2@$0A@@std@@@2@@Z 00430ea0 f i guild.obj
 0001:0002feb0       ?_Parent@?$_Tree@V?$_Tmap_traits@V?$basic_string@DU?$char_traits@D@std@@V?$allocator@D@2@@std@@PAVCGuild@@U?$less@V?$basic_string@DU?$char_traits@D@std@@V?$allocator@D@2@@std@@@2@V?$allocator@U?$pair@$$CBV?$basic_string@DU?$char_traits@D@std@@V?$allocator@D@2@@std@@PAVCGuild@@@std@@@2@$0A@@std@@@std@@KAAAPAU_Node@?$_Tree_nod@V?$_Tmap_traits@V?$basic_string@DU?$char_traits@D@std@@V?$allocator@D@2@@std@@PAVCGuild@@U?$less@V?$basic_string@DU?$char_traits@D@std@@V?$allocator@D@2@@std@@@2@V?$allocator@U?$pair@$$CBV?$basic_string@DU?$char_traits@D@std@@V?$allocator@D@2@@std@@PAVCGuild@@@std@@@2@$0A@@std@@@2@PAU342@@Z 00430eb0 f i guild.obj
 0001:0002fec0       ?_Myval@?$_Tree@V?$_Tmap_traits@V?$basic_string@DU?$char_traits@D@std@@V?$allocator@D@2@@std@@PAVCGuild@@U?$less@V?$basic_string@DU?$char_traits@D@std@@V?$allocator@D@2@@std@@@2@V?$allocator@U?$pair@$$CBV?$basic_string@DU?$char_traits@D@std@@V?$allocator@D@2@@std@@PAVCGuild@@@std@@@2@$0A@@std@@@std@@KAAAU?$pair@$$CBV?$basic_string@DU?$char_traits@D@std@@V?$allocator@D@2@@std@@PAVCGuild@@@2@PAU_Node@?$_Tree_nod@V?$_Tmap_traits@V?$basic_string@DU?$char_traits@D@std@@V?$allocator@D@2@@std@@PAVCGuild@@U?$less@V?$basic_string@DU?$char_traits@D@std@@V?$allocator@D@2@@std@@@2@V?$allocator@U?$pair@$$CBV?$basic_string@DU?$char_traits@D@std@@V?$allocator@D@2@@std@@PAVCGuild@@@std@@@2@$0A@@std@@@2@@Z 00430ec0 f i guild.obj
 0001:0002fed0       ??0?$allocator@U?$pair@$$CBV?$basic_string@DU?$char_traits@D@std@@V?$allocator@D@2@@std@@PAVCGuild@@@std@@@std@@QAE@ABV01@@Z 00430ed0 f i guild.obj
 0001:0002fee0       ?deallocate@?$allocator@U_Node@?$_Tree_nod@V?$_Tmap_traits@V?$basic_string@DU?$char_traits@D@std@@V?$allocator@D@2@@std@@PAVCGuild@@U?$less@V?$basic_string@DU?$char_traits@D@std@@V?$allocator@D@2@@std@@@2@V?$allocator@U?$pair@$$CBV?$basic_string@DU?$char_traits@D@std@@V?$allocator@D@2@@std@@PAVCGuild@@@std@@@2@$0A@@std@@@std@@@std@@QAEXPAU_Node@?$_Tree_nod@V?$_Tmap_traits@V?$basic_string@DU?$char_traits@D@std@@V?$allocator@D@2@@std@@PAVCGuild@@U?$less@V?$basic_string@DU?$char_traits@D@std@@V?$allocator@D@2@@std@@@2@V?$allocator@U?$pair@$$CBV?$basic_string@DU?$char_traits@D@std@@V?$allocator@D@2@@std@@PAVCGuild@@@std@@@2@$0A@@std@@@2@I@Z 00430ee0 f i guild.obj
 0001:0002fef0       ??0const_iterator@?$list@PAVCGuildVote@@V?$allocator@PAVCGuildVote@@@std@@@std@@QAE@PAU_Node@?$_List_nod@PAVCGuildVote@@V?$allocator@PAVCGuildVote@@@std@@@2@@Z 00430ef0 f i guild.obj
 0001:0002ff00       ??0const_iterator@?$_Tree@V?$_Tmap_traits@KPAVCGuild@@U?$less@K@std@@V?$allocator@U?$pair@$$CBKPAVCGuild@@@std@@@3@$0A@@std@@@std@@QAE@PAU_Node@?$_Tree_nod@V?$_Tmap_traits@KPAVCGuild@@U?$less@K@std@@V?$allocator@U?$pair@$$CBKPAVCGuild@@@std@@@3@$0A@@std@@@2@@Z 00430f00 f i guild.obj
 0001:0002ff10       ??Dconst_iterator@?$_Tree@V?$_Tmap_traits@KPAVCGuild@@U?$less@K@std@@V?$allocator@U?$pair@$$CBKPAVCGuild@@@std@@@3@$0A@@std@@@std@@QBEABU?$pair@$$CBKPAVCGuild@@@2@XZ 00430f10 f i guild.obj
 0001:0002ff20       ??0const_iterator@?$_Tree@V?$_Tmap_traits@V?$basic_string@DU?$char_traits@D@std@@V?$allocator@D@2@@std@@PAVCGuild@@U?$less@V?$basic_string@DU?$char_traits@D@std@@V?$allocator@D@2@@std@@@2@V?$allocator@U?$pair@$$CBV?$basic_string@DU?$char_traits@D@std@@V?$allocator@D@2@@std@@PAVCGuild@@@std@@@2@$0A@@std@@@std@@QAE@PAU_Node@?$_Tree_nod@V?$_Tmap_traits@V?$basic_string@DU?$char_traits@D@std@@V?$allocator@D@2@@std@@PAVCGuild@@U?$less@V?$basic_string@DU?$char_traits@D@std@@V?$allocator@D@2@@std@@@2@V?$allocator@U?$pair@$$CBV?$basic_string@DU?$char_traits@D@std@@V?$allocator@D@2@@std@@PAVCGuild@@@std@@@2@$0A@@std@@@2@@Z 00430f20 f i guild.obj
 0001:0002ff30       ??Dconst_iterator@?$_Tree@V?$_Tmap_traits@V?$basic_string@DU?$char_traits@D@std@@V?$allocator@D@2@@std@@PAVCGuild@@U?$less@V?$basic_string@DU?$char_traits@D@std@@V?$allocator@D@2@@std@@@2@V?$allocator@U?$pair@$$CBV?$basic_string@DU?$char_traits@D@std@@V?$allocator@D@2@@std@@PAVCGuild@@@std@@@2@$0A@@std@@@std@@QBEABU?$pair@$$CBV?$basic_string@DU?$char_traits@D@std@@V?$allocator@D@2@@std@@PAVCGuild@@@2@XZ 00430f30 f i guild.obj
 0001:0002ff40       ??0?$pair@Viterator@?$_Tree@V?$_Tmap_traits@KPAVCGuildMember@@U?$less@K@std@@V?$allocator@U?$pair@$$CBKPAVCGuildMember@@@std@@@3@$0A@@std@@@std@@V123@@std@@QAE@ABViterator@?$_Tree@V?$_Tmap_traits@KPAVCGuildMember@@U?$less@K@std@@V?$allocator@U?$pair@$$CBKPAVCGuildMember@@@std@@@3@$0A@@std@@@1@0@Z 00430f40 f i guild.obj
 0001:0002ff60       ??0?$pair@Viterator@?$_Tree@V?$_Tmap_traits@KPAVCGuild@@U?$less@K@std@@V?$allocator@U?$pair@$$CBKPAVCGuild@@@std@@@3@$0A@@std@@@std@@V123@@std@@QAE@ABViterator@?$_Tree@V?$_Tmap_traits@KPAVCGuild@@U?$less@K@std@@V?$allocator@U?$pair@$$CBKPAVCGuild@@@std@@@3@$0A@@std@@@1@0@Z 00430f60 f i guild.obj
 0001:0002ff80       ??0?$pair@Viterator@?$_Tree@V?$_Tmap_traits@V?$basic_string@DU?$char_traits@D@std@@V?$allocator@D@2@@std@@PAVCGuild@@U?$less@V?$basic_string@DU?$char_traits@D@std@@V?$allocator@D@2@@std@@@2@V?$allocator@U?$pair@$$CBV?$basic_string@DU?$char_traits@D@std@@V?$allocator@D@2@@std@@PAVCGuild@@@std@@@2@$0A@@std@@@std@@V123@@std@@QAE@ABViterator@?$_Tree@V?$_Tmap_traits@V?$basic_string@DU?$char_traits@D@std@@V?$allocator@D@2@@std@@PAVCGuild@@U?$less@V?$basic_string@DU?$char_traits@D@std@@V?$allocator@D@2@@std@@@2@V?$allocator@U?$pair@$$CBV?$basic_string@DU?$char_traits@D@std@@V?$allocator@D@2@@std@@PAVCGuild@@@std@@@2@$0A@@std@@@1@0@Z 00430f80 f i guild.obj
 0001:0002ffa0       ?_Max@?$_Tree@V?$_Tmap_traits@KPAVCGuildMember@@U?$less@K@std@@V?$allocator@U?$pair@$$CBKPAVCGuildMember@@@std@@@3@$0A@@std@@@std@@KAPAU_Node@?$_Tree_nod@V?$_Tmap_traits@KPAVCGuildMember@@U?$less@K@std@@V?$allocator@U?$pair@$$CBKPAVCGuildMember@@@std@@@3@$0A@@std@@@2@PAU342@@Z 00430fa0 f i guild.obj
 0001:0002ffc0       ?_Root@?$_Tree@V?$_Tmap_traits@KPAVCGuildMember@@U?$less@K@std@@V?$allocator@U?$pair@$$CBKPAVCGuildMember@@@std@@@3@$0A@@std@@@std@@IBEAAPAU_Node@?$_Tree_nod@V?$_Tmap_traits@KPAVCGuildMember@@U?$less@K@std@@V?$allocator@U?$pair@$$CBKPAVCGuildMember@@@std@@@3@$0A@@std@@@2@XZ 00430fc0 f i guild.obj
 0001:0002ffd0       ?max_size@?$allocator@U?$pair@$$CBKPAVCGuildMember@@@std@@@std@@QBEIXZ 00430fd0 f i guild.obj
 0001:0002ffe0       ?_Max@?$_Tree@V?$_Tmap_traits@KPAVCGuild@@U?$less@K@std@@V?$allocator@U?$pair@$$CBKPAVCGuild@@@std@@@3@$0A@@std@@@std@@KAPAU_Node@?$_Tree_nod@V?$_Tmap_traits@KPAVCGuild@@U?$less@K@std@@V?$allocator@U?$pair@$$CBKPAVCGuild@@@std@@@3@$0A@@std@@@2@PAU342@@Z 00430fe0 f i guild.obj
 0001:00030000       ?_Min@?$_Tree@V?$_Tmap_traits@KPAVCGuild@@U?$less@K@std@@V?$allocator@U?$pair@$$CBKPAVCGuild@@@std@@@3@$0A@@std@@@std@@KAPAU_Node@?$_Tree_nod@V?$_Tmap_traits@KPAVCGuild@@U?$less@K@std@@V?$allocator@U?$pair@$$CBKPAVCGuild@@@std@@@3@$0A@@std@@@2@PAU342@@Z 00431000 f i guild.obj
 0001:00030020       ?_Root@?$_Tree@V?$_Tmap_traits@KPAVCGuild@@U?$less@K@std@@V?$allocator@U?$pair@$$CBKPAVCGuild@@@std@@@3@$0A@@std@@@std@@IBEAAPAU_Node@?$_Tree_nod@V?$_Tmap_traits@KPAVCGuild@@U?$less@K@std@@V?$allocator@U?$pair@$$CBKPAVCGuild@@@std@@@3@$0A@@std@@@2@XZ 00431020 f i guild.obj
 0001:00030030       ?max_size@?$allocator@U?$pair@$$CBKPAVCGuild@@@std@@@std@@QBEIXZ 00431030 f i guild.obj
 0001:00030040       ?_Max@?$_Tree@V?$_Tmap_traits@V?$basic_string@DU?$char_traits@D@std@@V?$allocator@D@2@@std@@PAVCGuild@@U?$less@V?$basic_string@DU?$char_traits@D@std@@V?$allocator@D@2@@std@@@2@V?$allocator@U?$pair@$$CBV?$basic_string@DU?$char_traits@D@std@@V?$allocator@D@2@@std@@PAVCGuild@@@std@@@2@$0A@@std@@@std@@KAPAU_Node@?$_Tree_nod@V?$_Tmap_traits@V?$basic_string@DU?$char_traits@D@std@@V?$allocator@D@2@@std@@PAVCGuild@@U?$less@V?$basic_string@DU?$char_traits@D@std@@V?$allocator@D@2@@std@@@2@V?$allocator@U?$pair@$$CBV?$basic_string@DU?$char_traits@D@std@@V?$allocator@D@2@@std@@PAVCGuild@@@std@@@2@$0A@@std@@@2@PAU342@@Z 00431040 f i guild.obj
 0001:00030060       ?_Min@?$_Tree@V?$_Tmap_traits@V?$basic_string@DU?$char_traits@D@std@@V?$allocator@D@2@@std@@PAVCGuild@@U?$less@V?$basic_string@DU?$char_traits@D@std@@V?$allocator@D@2@@std@@@2@V?$allocator@U?$pair@$$CBV?$basic_string@DU?$char_traits@D@std@@V?$allocator@D@2@@std@@PAVCGuild@@@std@@@2@$0A@@std@@@std@@KAPAU_Node@?$_Tree_nod@V?$_Tmap_traits@V?$basic_string@DU?$char_traits@D@std@@V?$allocator@D@2@@std@@PAVCGuild@@U?$less@V?$basic_string@DU?$char_traits@D@std@@V?$allocator@D@2@@std@@@2@V?$allocator@U?$pair@$$CBV?$basic_string@DU?$char_traits@D@std@@V?$allocator@D@2@@std@@PAVCGuild@@@std@@@2@$0A@@std@@@2@PAU342@@Z 00431060 f i guild.obj
 0001:00030080       ?_Root@?$_Tree@V?$_Tmap_traits@V?$basic_string@DU?$char_traits@D@std@@V?$allocator@D@2@@std@@PAVCGuild@@U?$less@V?$basic_string@DU?$char_traits@D@std@@V?$allocator@D@2@@std@@@2@V?$allocator@U?$pair@$$CBV?$basic_string@DU?$char_traits@D@std@@V?$allocator@D@2@@std@@PAVCGuild@@@std@@@2@$0A@@std@@@std@@IBEAAPAU_Node@?$_Tree_nod@V?$_Tmap_traits@V?$basic_string@DU?$char_traits@D@std@@V?$allocator@D@2@@std@@PAVCGuild@@U?$less@V?$basic_string@DU?$char_traits@D@std@@V?$allocator@D@2@@std@@@2@V?$allocator@U?$pair@$$CBV?$basic_string@DU?$char_traits@D@std@@V?$allocator@D@2@@std@@PAVCGuild@@@std@@@2@$0A@@std@@@2@XZ 00431080 f i guild.obj
 0001:00030090       ?max_size@?$allocator@U?$pair@$$CBV?$basic_string@DU?$char_traits@D@std@@V?$allocator@D@2@@std@@PAVCGuild@@@std@@@std@@QBEIXZ 00431090 f i guild.obj
 0001:000300a0       ?_Dec@const_iterator@?$_Tree@V?$_Tmap_traits@KPAVCGuildMember@@U?$less@K@std@@V?$allocator@U?$pair@$$CBKPAVCGuildMember@@@std@@@3@$0A@@std@@@std@@QAEXXZ 004310a0 f i guild.obj
 0001:00030100       ?_Dec@const_iterator@?$_Tree@V?$_Tmap_traits@KPAVCGuild@@U?$less@K@std@@V?$allocator@U?$pair@$$CBKPAVCGuild@@@std@@@3@$0A@@std@@@std@@QAEXXZ 00431100 f i guild.obj
 0001:00030160       ?_Dec@const_iterator@?$_Tree@V?$_Tmap_traits@V?$basic_string@DU?$char_traits@D@std@@V?$allocator@D@2@@std@@PAVCGuild@@U?$less@V?$basic_string@DU?$char_traits@D@std@@V?$allocator@D@2@@std@@@2@V?$allocator@U?$pair@$$CBV?$basic_string@DU?$char_traits@D@std@@V?$allocator@D@2@@std@@PAVCGuild@@@std@@@2@$0A@@std@@@std@@QAEXXZ 00431160 f i guild.obj
 0001:000301c0       ??0_Node@?$_Tree_nod@V?$_Tmap_traits@KPAVCGuildMember@@U?$less@K@std@@V?$allocator@U?$pair@$$CBKPAVCGuildMember@@@std@@@3@$0A@@std@@@std@@QAE@PAU012@00ABU?$pair@$$CBKPAVCGuildMember@@@2@D@Z 004311c0 f i guild.obj
 0001:00030200       ??0_Node@?$_List_nod@PAVCGuildVote@@V?$allocator@PAVCGuildVote@@@std@@@std@@QAE@PAU012@0ABQAVCGuildVote@@@Z 00431200 f i guild.obj
 0001:00030220       ??0_Node@?$_Tree_nod@V?$_Tmap_traits@KPAVCGuild@@U?$less@K@std@@V?$allocator@U?$pair@$$CBKPAVCGuild@@@std@@@3@$0A@@std@@@std@@QAE@PAU012@00ABU?$pair@$$CBKPAVCGuild@@@2@D@Z 00431220 f i guild.obj
 0001:00030260       ?max_size@?$allocator@PAVCGuildVote@@@std@@QBEIXZ 00431260 f i guild.obj
 0001:00030270       ??0?$_Tmap_traits@KPAVCGuildMember@@U?$less@K@std@@V?$allocator@U?$pair@$$CBKPAVCGuildMember@@@std@@@3@$0A@@std@@QAE@U?$less@K@1@@Z 00431270 f i guild.obj
 0001:00030280       ??0?$_Tmap_traits@KPAVCGuild@@U?$less@K@std@@V?$allocator@U?$pair@$$CBKPAVCGuild@@@std@@@3@$0A@@std@@QAE@U?$less@K@1@@Z 00431280 f i guild.obj
 0001:00030290       ??0?$_Tmap_traits@V?$basic_string@DU?$char_traits@D@std@@V?$allocator@D@2@@std@@PAVCGuild@@U?$less@V?$basic_string@DU?$char_traits@D@std@@V?$allocator@D@2@@std@@@2@V?$allocator@U?$pair@$$CBV?$basic_string@DU?$char_traits@D@std@@V?$allocator@D@2@@std@@PAVCGuild@@@std@@@2@$0A@@std@@QAE@U?$less@V?$basic_string@DU?$char_traits@D@std@@V?$allocator@D@2@@std@@@1@@Z 00431290 f i guild.obj
 0001:000302a0       ?_Inc@const_iterator@?$_Tree@V?$_Tmap_traits@V?$basic_string@DU?$char_traits@D@std@@V?$allocator@D@2@@std@@PAVCGuild@@U?$less@V?$basic_string@DU?$char_traits@D@std@@V?$allocator@D@2@@std@@@2@V?$allocator@U?$pair@$$CBV?$basic_string@DU?$char_traits@D@std@@V?$allocator@D@2@@std@@PAVCGuild@@@std@@@2@$0A@@std@@@std@@QAEXXZ 004312a0 f i guild.obj
 0001:00030300       ??$_Destroy@U_Node@?$_List_nod@PAVCGuildVote@@V?$allocator@PAVCGuildVote@@@std@@@std@@@std@@YAXPAU_Node@?$_List_nod@PAVCGuildVote@@V?$allocator@PAVCGuildVote@@@std@@@0@@Z 00431300 f i guild.obj
 0001:00030310       ??$_Destroy@U_Node@?$_Tree_nod@V?$_Tmap_traits@KPAVCGuildMember@@U?$less@K@std@@V?$allocator@U?$pair@$$CBKPAVCGuildMember@@@std@@@3@$0A@@std@@@std@@@std@@YAXPAU_Node@?$_Tree_nod@V?$_Tmap_traits@KPAVCGuildMember@@U?$less@K@std@@V?$allocator@U?$pair@$$CBKPAVCGuildMember@@@std@@@3@$0A@@std@@@0@@Z 00431310 f i guild.obj
 0001:00030320       ??$_Destroy@PAU_Node@?$_Tree_nod@V?$_Tmap_traits@KPAVCGuildMember@@U?$less@K@std@@V?$allocator@U?$pair@$$CBKPAVCGuildMember@@@std@@@3@$0A@@std@@@std@@@std@@YAXPAPAU_Node@?$_Tree_nod@V?$_Tmap_traits@KPAVCGuildMember@@U?$less@K@std@@V?$allocator@U?$pair@$$CBKPAVCGuildMember@@@std@@@3@$0A@@std@@@0@@Z 00431320 f i guild.obj
 0001:00030330       ??$?0PAVCGuildVote@@@?$allocator@PAU_Node@?$_List_nod@PAVCGuildVote@@V?$allocator@PAVCGuildVote@@@std@@@std@@@std@@QAE@ABV?$allocator@PAVCGuildVote@@@1@@Z 00431330 f i guild.obj
 0001:00030340       ??$_Allocate@U_Node@?$_List_nod@PAVCGuildVote@@V?$allocator@PAVCGuildVote@@@std@@@std@@@std@@YAPAU_Node@?$_List_nod@PAVCGuildVote@@V?$allocator@PAVCGuildVote@@@std@@@0@IPAU120@@Z 00431340 f i guild.obj
 0001:00030360       ??$_Construct@PAU_Node@?$_List_nod@PAVCGuildVote@@V?$allocator@PAVCGuildVote@@@std@@@std@@PAU123@@std@@YAXPAPAU_Node@?$_List_nod@PAVCGuildVote@@V?$allocator@PAVCGuildVote@@@std@@@0@ABQAU120@@Z 00431360 f i guild.obj
 0001:00030380       ??$_Destroy@PAU_Node@?$_List_nod@PAVCGuildVote@@V?$allocator@PAVCGuildVote@@@std@@@std@@@std@@YAXPAPAU_Node@?$_List_nod@PAVCGuildVote@@V?$allocator@PAVCGuildVote@@@std@@@0@@Z 00431380 f i guild.obj
 0001:00030390       ??$_Destroy@U_Node@?$_Tree_nod@V?$_Tmap_traits@KPAVCGuild@@U?$less@K@std@@V?$allocator@U?$pair@$$CBKPAVCGuild@@@std@@@3@$0A@@std@@@std@@@std@@YAXPAU_Node@?$_Tree_nod@V?$_Tmap_traits@KPAVCGuild@@U?$less@K@std@@V?$allocator@U?$pair@$$CBKPAVCGuild@@@std@@@3@$0A@@std@@@0@@Z 00431390 f i guild.obj
 0001:000303a0       ??$_Destroy@PAU_Node@?$_Tree_nod@V?$_Tmap_traits@KPAVCGuild@@U?$less@K@std@@V?$allocator@U?$pair@$$CBKPAVCGuild@@@std@@@3@$0A@@std@@@std@@@std@@YAXPAPAU_Node@?$_Tree_nod@V?$_Tmap_traits@KPAVCGuild@@U?$less@K@std@@V?$allocator@U?$pair@$$CBKPAVCGuild@@@std@@@3@$0A@@std@@@0@@Z 004313a0 f i guild.obj
 0001:000303b0       ??$_Destroy@PAU_Node@?$_Tree_nod@V?$_Tmap_traits@V?$basic_string@DU?$char_traits@D@std@@V?$allocator@D@2@@std@@PAVCGuild@@U?$less@V?$basic_string@DU?$char_traits@D@std@@V?$allocator@D@2@@std@@@2@V?$allocator@U?$pair@$$CBV?$basic_string@DU?$char_traits@D@std@@V?$allocator@D@2@@std@@PAVCGuild@@@std@@@2@$0A@@std@@@std@@@std@@YAXPAPAU_Node@?$_Tree_nod@V?$_Tmap_traits@V?$basic_string@DU?$char_traits@D@std@@V?$allocator@D@2@@std@@PAVCGuild@@U?$less@V?$basic_string@DU?$char_traits@D@std@@V?$allocator@D@2@@std@@@2@V?$allocator@U?$pair@$$CBV?$basic_string@DU?$char_traits@D@std@@V?$allocator@D@2@@std@@PAVCGuild@@@std@@@2@$0A@@std@@@0@@Z 004313b0 f i guild.obj
 0001:000303c0       ??$?0U?$pair@$$CBKPAVCGuildMember@@@std@@@?$allocator@PAU_Node@?$_Tree_nod@V?$_Tmap_traits@KPAVCGuildMember@@U?$less@K@std@@V?$allocator@U?$pair@$$CBKPAVCGuildMember@@@std@@@3@$0A@@std@@@std@@@std@@QAE@ABV?$allocator@U?$pair@$$CBKPAVCGuildMember@@@std@@@1@@Z 004313c0 f i guild.obj
 0001:000303d0       ??$_Allocate@U_Node@?$_Tree_nod@V?$_Tmap_traits@KPAVCGuildMember@@U?$less@K@std@@V?$allocator@U?$pair@$$CBKPAVCGuildMember@@@std@@@3@$0A@@std@@@std@@@std@@YAPAU_Node@?$_Tree_nod@V?$_Tmap_traits@KPAVCGuildMember@@U?$less@K@std@@V?$allocator@U?$pair@$$CBKPAVCGuildMember@@@std@@@3@$0A@@std@@@0@IPAU120@@Z 004313d0 f i guild.obj
 0001:000303f0       ??$?0PAVCGuildVote@@@?$allocator@U_Node@?$_List_nod@PAVCGuildVote@@V?$allocator@PAVCGuildVote@@@std@@@std@@@std@@QAE@ABV?$allocator@PAVCGuildVote@@@1@@Z 004313f0 f i guild.obj
 0001:00030400       ??$?0U?$pair@$$CBKPAVCGuild@@@std@@@?$allocator@PAU_Node@?$_Tree_nod@V?$_Tmap_traits@KPAVCGuild@@U?$less@K@std@@V?$allocator@U?$pair@$$CBKPAVCGuild@@@std@@@3@$0A@@std@@@std@@@std@@QAE@ABV?$allocator@U?$pair@$$CBKPAVCGuild@@@std@@@1@@Z 00431400 f i guild.obj
 0001:00030410       ??$_Allocate@U_Node@?$_Tree_nod@V?$_Tmap_traits@KPAVCGuild@@U?$less@K@std@@V?$allocator@U?$pair@$$CBKPAVCGuild@@@std@@@3@$0A@@std@@@std@@@std@@YAPAU_Node@?$_Tree_nod@V?$_Tmap_traits@KPAVCGuild@@U?$less@K@std@@V?$allocator@U?$pair@$$CBKPAVCGuild@@@std@@@3@$0A@@std@@@0@IPAU120@@Z 00431410 f i guild.obj
 0001:00030430       ??$?0U?$pair@$$CBV?$basic_string@DU?$char_traits@D@std@@V?$allocator@D@2@@std@@PAVCGuild@@@std@@@?$allocator@PAU_Node@?$_Tree_nod@V?$_Tmap_traits@V?$basic_string@DU?$char_traits@D@std@@V?$allocator@D@2@@std@@PAVCGuild@@U?$less@V?$basic_string@DU?$char_traits@D@std@@V?$allocator@D@2@@std@@@2@V?$allocator@U?$pair@$$CBV?$basic_string@DU?$char_traits@D@std@@V?$allocator@D@2@@std@@PAVCGuild@@@std@@@2@$0A@@std@@@std@@@std@@QAE@ABV?$allocator@U?$pair@$$CBV?$basic_string@DU?$char_traits@D@std@@V?$allocator@D@2@@std@@PAVCGuild@@@std@@@1@@Z 00431430 f i guild.obj
 0001:00030440       ??$_Allocate@U_Node@?$_Tree_nod@V?$_Tmap_traits@V?$basic_string@DU?$char_traits@D@std@@V?$allocator@D@2@@std@@PAVCGuild@@U?$less@V?$basic_string@DU?$char_traits@D@std@@V?$allocator@D@2@@std@@@2@V?$allocator@U?$pair@$$CBV?$basic_string@DU?$char_traits@D@std@@V?$allocator@D@2@@std@@PAVCGuild@@@std@@@2@$0A@@std@@@std@@@std@@YAPAU_Node@?$_Tree_nod@V?$_Tmap_traits@V?$basic_string@DU?$char_traits@D@std@@V?$allocator@D@2@@std@@PAVCGuild@@U?$less@V?$basic_string@DU?$char_traits@D@std@@V?$allocator@D@2@@std@@@2@V?$allocator@U?$pair@$$CBV?$basic_string@DU?$char_traits@D@std@@V?$allocator@D@2@@std@@PAVCGuild@@@std@@@2@$0A@@std@@@0@IPAU120@@Z 00431440 f i guild.obj
 0001:00030460       ??$?0U?$pair@$$CBKPAVCGuildMember@@@std@@@?$allocator@U_Node@?$_Tree_nod@V?$_Tmap_traits@KPAVCGuildMember@@U?$less@K@std@@V?$allocator@U?$pair@$$CBKPAVCGuildMember@@@std@@@3@$0A@@std@@@std@@@std@@QAE@ABV?$allocator@U?$pair@$$CBKPAVCGuildMember@@@std@@@1@@Z 00431460 f i guild.obj
 0001:00030470       ??$_Construct@PAU_Node@?$_Tree_nod@V?$_Tmap_traits@KPAVCGuildMember@@U?$less@K@std@@V?$allocator@U?$pair@$$CBKPAVCGuildMember@@@std@@@3@$0A@@std@@@std@@PAU123@@std@@YAXPAPAU_Node@?$_Tree_nod@V?$_Tmap_traits@KPAVCGuildMember@@U?$less@K@std@@V?$allocator@U?$pair@$$CBKPAVCGuildMember@@@std@@@3@$0A@@std@@@0@ABQAU120@@Z 00431470 f i guild.obj
 0001:00030490       ??$?0U?$pair@$$CBKPAVCGuild@@@std@@@?$allocator@U_Node@?$_Tree_nod@V?$_Tmap_traits@KPAVCGuild@@U?$less@K@std@@V?$allocator@U?$pair@$$CBKPAVCGuild@@@std@@@3@$0A@@std@@@std@@@std@@QAE@ABV?$allocator@U?$pair@$$CBKPAVCGuild@@@std@@@1@@Z 00431490 f i guild.obj
 0001:000304a0       ??$_Construct@PAU_Node@?$_Tree_nod@V?$_Tmap_traits@KPAVCGuild@@U?$less@K@std@@V?$allocator@U?$pair@$$CBKPAVCGuild@@@std@@@3@$0A@@std@@@std@@PAU123@@std@@YAXPAPAU_Node@?$_Tree_nod@V?$_Tmap_traits@KPAVCGuild@@U?$less@K@std@@V?$allocator@U?$pair@$$CBKPAVCGuild@@@std@@@3@$0A@@std@@@0@ABQAU120@@Z 004314a0 f i guild.obj
 0001:000304c0       ??$?0U?$pair@$$CBV?$basic_string@DU?$char_traits@D@std@@V?$allocator@D@2@@std@@PAVCGuild@@@std@@@?$allocator@U_Node@?$_Tree_nod@V?$_Tmap_traits@V?$basic_string@DU?$char_traits@D@std@@V?$allocator@D@2@@std@@PAVCGuild@@U?$less@V?$basic_string@DU?$char_traits@D@std@@V?$allocator@D@2@@std@@@2@V?$allocator@U?$pair@$$CBV?$basic_string@DU?$char_traits@D@std@@V?$allocator@D@2@@std@@PAVCGuild@@@std@@@2@$0A@@std@@@std@@@std@@QAE@ABV?$allocator@U?$pair@$$CBV?$basic_string@DU?$char_traits@D@std@@V?$allocator@D@2@@std@@PAVCGuild@@@std@@@1@@Z 004314c0 f i guild.obj
 0001:000304d0       ??$_Construct@PAU_Node@?$_Tree_nod@V?$_Tmap_traits@V?$basic_string@DU?$char_traits@D@std@@V?$allocator@D@2@@std@@PAVCGuild@@U?$less@V?$basic_string@DU?$char_traits@D@std@@V?$allocator@D@2@@std@@@2@V?$allocator@U?$pair@$$CBV?$basic_string@DU?$char_traits@D@std@@V?$allocator@D@2@@std@@PAVCGuild@@@std@@@2@$0A@@std@@@std@@PAU123@@std@@YAXPAPAU_Node@?$_Tree_nod@V?$_Tmap_traits@V?$basic_string@DU?$char_traits@D@std@@V?$allocator@D@2@@std@@PAVCGuild@@U?$less@V?$basic_string@DU?$char_traits@D@std@@V?$allocator@D@2@@std@@@2@V?$allocator@U?$pair@$$CBV?$basic_string@DU?$char_traits@D@std@@V?$allocator@D@2@@std@@PAVCGuild@@@std@@@2@$0A@@std@@@0@ABQAU120@@Z 004314d0 f i guild.obj
 0001:000304f0       ??$_Iter_cat@Viterator@?$_Tree@V?$_Tmap_traits@KPAVCGuildMember@@U?$less@K@std@@V?$allocator@U?$pair@$$CBKPAVCGuildMember@@@std@@@3@$0A@@std@@@std@@@std@@YA?AUbidirectional_iterator_tag@0@ABViterator@?$_Tree@V?$_Tmap_traits@KPAVCGuildMember@@U?$less@K@std@@V?$allocator@U?$pair@$$CBKPAVCGuildMember@@@std@@@3@$0A@@std@@@0@@Z 004314f0 f i guild.obj
 0001:00030500       ??$_Iter_cat@Viterator@?$_Tree@V?$_Tmap_traits@KPAVCGuild@@U?$less@K@std@@V?$allocator@U?$pair@$$CBKPAVCGuild@@@std@@@3@$0A@@std@@@std@@@std@@YA?AUbidirectional_iterator_tag@0@ABViterator@?$_Tree@V?$_Tmap_traits@KPAVCGuild@@U?$less@K@std@@V?$allocator@U?$pair@$$CBKPAVCGuild@@@std@@@3@$0A@@std@@@0@@Z 00431500 f i guild.obj
 0001:00030510       ??$_Iter_cat@Viterator@?$_Tree@V?$_Tmap_traits@V?$basic_string@DU?$char_traits@D@std@@V?$allocator@D@2@@std@@PAVCGuild@@U?$less@V?$basic_string@DU?$char_traits@D@std@@V?$allocator@D@2@@std@@@2@V?$allocator@U?$pair@$$CBV?$basic_string@DU?$char_traits@D@std@@V?$allocator@D@2@@std@@PAVCGuild@@@std@@@2@$0A@@std@@@std@@@std@@YA?AUbidirectional_iterator_tag@0@ABViterator@?$_Tree@V?$_Tmap_traits@V?$basic_string@DU?$char_traits@D@std@@V?$allocator@D@2@@std@@PAVCGuild@@U?$less@V?$basic_string@DU?$char_traits@D@std@@V?$allocator@D@2@@std@@@2@V?$allocator@U?$pair@$$CBV?$basic_string@DU?$char_traits@D@std@@V?$allocator@D@2@@std@@PAVCGuild@@@std@@@2@$0A@@std@@@0@@Z 00431510 f i guild.obj
 0001:00030520       ??5CAr@@QAEAAV0@AAF@Z      00431520 f i guild.obj
 0001:00030560       ?GetSize@CGuildMng@@QAEHXZ 00431560 f i guild.obj
 0001:00030570       ??1CGuildRank@@QAE@XZ      00431570 f i guild.obj
 0001:00030590       ??_GCGuildVote@@UAEPAXI@Z  00431590 f i guild.obj
 0001:00030590       ??_ECGuildVote@@UAEPAXI@Z  00431590 f i guild.obj
 0001:000305b0       ??_GCGuildTable@@UAEPAXI@Z 004315b0 f i guild.obj
 0001:000305b0       ??_ECGuildTable@@UAEPAXI@Z 004315b0 f i guild.obj
 0001:000305d0       ?Serialize@CGuildTable@@QAEXAAVCAr@@@Z 004315d0 f   guild.obj
 0001:00030730       ??_GCGuildMember@@UAEPAXI@Z 00431730 f i guild.obj
 0001:00030730       ??_ECGuildMember@@UAEPAXI@Z 00431730 f i guild.obj
 0001:00030790       ?Serialize@CGuildMember@@QAEXAAVCAr@@@Z 00431790 f   guild.obj
 0001:00030a00       ?SetQuest@CGuild@@QAEXHH@Z 00431a00 f   guild.obj
 0001:00030a90       ?RemoveQuest@CGuild@@QAEHH@Z 00431a90 f   guild.obj
 0001:00030ab0       ??Eiterator@?$list@PAVCGuildVote@@V?$allocator@PAVCGuildVote@@@std@@@std@@QAEAAV012@XZ 00431ab0 f i guild.obj
 0001:00030ac0       ??9const_iterator@?$list@PAVCGuildVote@@V?$allocator@PAVCGuildVote@@@std@@@std@@QBE_NABV012@@Z 00431ac0 f i guild.obj
 0001:00030ae0       ??9const_iterator@?$_Tree@V?$_Tmap_traits@KPAVCGuild@@U?$less@K@std@@V?$allocator@U?$pair@$$CBKPAVCGuild@@@std@@@3@$0A@@std@@@std@@QBE_NABV012@@Z 00431ae0 f i guild.obj
 0001:00030b00       ??9const_iterator@?$_Tree@V?$_Tmap_traits@V?$basic_string@DU?$char_traits@D@std@@V?$allocator@D@2@@std@@PAVCGuild@@U?$less@V?$basic_string@DU?$char_traits@D@std@@V?$allocator@D@2@@std@@@2@V?$allocator@U?$pair@$$CBV?$basic_string@DU?$char_traits@D@std@@V?$allocator@D@2@@std@@PAVCGuild@@@std@@@2@$0A@@std@@@std@@QBE_NABV012@@Z 00431b00 f i guild.obj
 0001:00030b20       ?_Key@?$_Tree@V?$_Tmap_traits@KPAVCGuildMember@@U?$less@K@std@@V?$allocator@U?$pair@$$CBKPAVCGuildMember@@@std@@@3@$0A@@std@@@std@@KAABKPAU_Node@?$_Tree_nod@V?$_Tmap_traits@KPAVCGuildMember@@U?$less@K@std@@V?$allocator@U?$pair@$$CBKPAVCGuildMember@@@std@@@3@$0A@@std@@@2@@Z 00431b20 f i guild.obj
 0001:00030b30       ?_Root@?$_Tree@V?$_Tmap_traits@KPAVCGuildMember@@U?$less@K@std@@V?$allocator@U?$pair@$$CBKPAVCGuildMember@@@std@@@3@$0A@@std@@@std@@IAEAAPAU_Node@?$_Tree_nod@V?$_Tmap_traits@KPAVCGuildMember@@U?$less@K@std@@V?$allocator@U?$pair@$$CBKPAVCGuildMember@@@std@@@3@$0A@@std@@@2@XZ 00431b30 f i guild.obj
 0001:00030b40       ?destroy@?$allocator@U_Node@?$_List_nod@PAVCGuildVote@@V?$allocator@PAVCGuildVote@@@std@@@std@@@std@@QAEXPAU_Node@?$_List_nod@PAVCGuildVote@@V?$allocator@PAVCGuildVote@@@std@@@2@@Z 00431b40 f i guild.obj
 0001:00030b50       ?_Key@?$_Tree@V?$_Tmap_traits@KPAVCGuild@@U?$less@K@std@@V?$allocator@U?$pair@$$CBKPAVCGuild@@@std@@@3@$0A@@std@@@std@@KAABKPAU_Node@?$_Tree_nod@V?$_Tmap_traits@KPAVCGuild@@U?$less@K@std@@V?$allocator@U?$pair@$$CBKPAVCGuild@@@std@@@3@$0A@@std@@@2@@Z 00431b50 f i guild.obj
 0001:00030b60       ?_Root@?$_Tree@V?$_Tmap_traits@KPAVCGuild@@U?$less@K@std@@V?$allocator@U?$pair@$$CBKPAVCGuild@@@std@@@3@$0A@@std@@@std@@IAEAAPAU_Node@?$_Tree_nod@V?$_Tmap_traits@KPAVCGuild@@U?$less@K@std@@V?$allocator@U?$pair@$$CBKPAVCGuild@@@std@@@3@$0A@@std@@@2@XZ 00431b60 f i guild.obj
 0001:00030b70       ?_Key@?$_Tree@V?$_Tmap_traits@V?$basic_string@DU?$char_traits@D@std@@V?$allocator@D@2@@std@@PAVCGuild@@U?$less@V?$basic_string@DU?$char_traits@D@std@@V?$allocator@D@2@@std@@@2@V?$allocator@U?$pair@$$CBV?$basic_string@DU?$char_traits@D@std@@V?$allocator@D@2@@std@@PAVCGuild@@@std@@@2@$0A@@std@@@std@@KAABV?$basic_string@DU?$char_traits@D@std@@V?$allocator@D@2@@2@PAU_Node@?$_Tree_nod@V?$_Tmap_traits@V?$basic_string@DU?$char_traits@D@std@@V?$allocator@D@2@@std@@PAVCGuild@@U?$less@V?$basic_string@DU?$char_traits@D@std@@V?$allocator@D@2@@std@@@2@V?$allocator@U?$pair@$$CBV?$basic_string@DU?$char_traits@D@std@@V?$allocator@D@2@@std@@PAVCGuild@@@std@@@2@$0A@@std@@@2@@Z 00431b70 f i guild.obj
 0001:00030b80       ?_Root@?$_Tree@V?$_Tmap_traits@V?$basic_string@DU?$char_traits@D@std@@V?$allocator@D@2@@std@@PAVCGuild@@U?$less@V?$basic_string@DU?$char_traits@D@std@@V?$allocator@D@2@@std@@@2@V?$allocator@U?$pair@$$CBV?$basic_string@DU?$char_traits@D@std@@V?$allocator@D@2@@std@@PAVCGuild@@@std@@@2@$0A@@std@@@std@@IAEAAPAU_Node@?$_Tree_nod@V?$_Tmap_traits@V?$basic_string@DU?$char_traits@D@std@@V?$allocator@D@2@@std@@PAVCGuild@@U?$less@V?$basic_string@DU?$char_traits@D@std@@V?$allocator@D@2@@std@@@2@V?$allocator@U?$pair@$$CBV?$basic_string@DU?$char_traits@D@std@@V?$allocator@D@2@@std@@PAVCGuild@@@std@@@2@$0A@@std@@@2@XZ 00431b80 f i guild.obj
 0001:00030b90       ??0iterator@?$list@PAVCGuildVote@@V?$allocator@PAVCGuildVote@@@std@@@std@@QAE@PAU_Node@?$_List_nod@PAVCGuildVote@@V?$allocator@PAVCGuildVote@@@std@@@2@@Z 00431b90 f i guild.obj
 0001:00030ba0       ??Eiterator@?$list@PAVCGuildVote@@V?$allocator@PAVCGuildVote@@@std@@@std@@QAE?AV012@H@Z 00431ba0 f i guild.obj
 0001:00030bb0       ??Dconst_iterator@?$list@PAVCGuildVote@@V?$allocator@PAVCGuildVote@@@std@@@std@@QBEABQAVCGuildVote@@XZ 00431bb0 f i guild.obj
 0001:00030bc0       ??0iterator@?$_Tree@V?$_Tmap_traits@KPAVCGuild@@U?$less@K@std@@V?$allocator@U?$pair@$$CBKPAVCGuild@@@std@@@3@$0A@@std@@@std@@QAE@PAU_Node@?$_Tree_nod@V?$_Tmap_traits@KPAVCGuild@@U?$less@K@std@@V?$allocator@U?$pair@$$CBKPAVCGuild@@@std@@@3@$0A@@std@@@2@@Z 00431bc0 f i guild.obj
 0001:00030bd0       ??Diterator@?$_Tree@V?$_Tmap_traits@KPAVCGuild@@U?$less@K@std@@V?$allocator@U?$pair@$$CBKPAVCGuild@@@std@@@3@$0A@@std@@@std@@QBEAAU?$pair@$$CBKPAVCGuild@@@2@XZ 00431bd0 f i guild.obj
 0001:00030be0       ??0iterator@?$_Tree@V?$_Tmap_traits@V?$basic_string@DU?$char_traits@D@std@@V?$allocator@D@2@@std@@PAVCGuild@@U?$less@V?$basic_string@DU?$char_traits@D@std@@V?$allocator@D@2@@std@@@2@V?$allocator@U?$pair@$$CBV?$basic_string@DU?$char_traits@D@std@@V?$allocator@D@2@@std@@PAVCGuild@@@std@@@2@$0A@@std@@@std@@QAE@PAU_Node@?$_Tree_nod@V?$_Tmap_traits@V?$basic_string@DU?$char_traits@D@std@@V?$allocator@D@2@@std@@PAVCGuild@@U?$less@V?$basic_string@DU?$char_traits@D@std@@V?$allocator@D@2@@std@@@2@V?$allocator@U?$pair@$$CBV?$basic_string@DU?$char_traits@D@std@@V?$allocator@D@2@@std@@PAVCGuild@@@std@@@2@$0A@@std@@@2@@Z 00431be0 f i guild.obj
 0001:00030bf0       ??Diterator@?$_Tree@V?$_Tmap_traits@V?$basic_string@DU?$char_traits@D@std@@V?$allocator@D@2@@std@@PAVCGuild@@U?$less@V?$basic_string@DU?$char_traits@D@std@@V?$allocator@D@2@@std@@@2@V?$allocator@U?$pair@$$CBV?$basic_string@DU?$char_traits@D@std@@V?$allocator@D@2@@std@@PAVCGuild@@@std@@@2@$0A@@std@@@std@@QBEAAU?$pair@$$CBV?$basic_string@DU?$char_traits@D@std@@V?$allocator@D@2@@std@@PAVCGuild@@@2@XZ 00431bf0 f i guild.obj
 0001:00030c00       ?max_size@?$_Tree@V?$_Tmap_traits@KPAVCGuildMember@@U?$less@K@std@@V?$allocator@U?$pair@$$CBKPAVCGuildMember@@@std@@@3@$0A@@std@@@std@@QBEIXZ 00431c00 f i guild.obj
 0001:00030c10       ?_Lbound@?$_Tree@V?$_Tmap_traits@KPAVCGuildMember@@U?$less@K@std@@V?$allocator@U?$pair@$$CBKPAVCGuildMember@@@std@@@3@$0A@@std@@@std@@IBEPAU_Node@?$_Tree_nod@V?$_Tmap_traits@KPAVCGuildMember@@U?$less@K@std@@V?$allocator@U?$pair@$$CBKPAVCGuildMember@@@std@@@3@$0A@@std@@@2@ABK@Z 00431c10 f i guild.obj
 0001:00030c40       ?_Lrotate@?$_Tree@V?$_Tmap_traits@KPAVCGuildMember@@U?$less@K@std@@V?$allocator@U?$pair@$$CBKPAVCGuildMember@@@std@@@3@$0A@@std@@@std@@IAEXPAU_Node@?$_Tree_nod@V?$_Tmap_traits@KPAVCGuildMember@@U?$less@K@std@@V?$allocator@U?$pair@$$CBKPAVCGuildMember@@@std@@@3@$0A@@std@@@2@@Z 00431c40 f i guild.obj
 0001:00030ca0       ?_Rrotate@?$_Tree@V?$_Tmap_traits@KPAVCGuildMember@@U?$less@K@std@@V?$allocator@U?$pair@$$CBKPAVCGuildMember@@@std@@@3@$0A@@std@@@std@@IAEXPAU_Node@?$_Tree_nod@V?$_Tmap_traits@KPAVCGuildMember@@U?$less@K@std@@V?$allocator@U?$pair@$$CBKPAVCGuildMember@@@std@@@3@$0A@@std@@@2@@Z 00431ca0 f i guild.obj
 0001:00030d00       ?destroy@?$allocator@U_Node@?$_Tree_nod@V?$_Tmap_traits@KPAVCGuildMember@@U?$less@K@std@@V?$allocator@U?$pair@$$CBKPAVCGuildMember@@@std@@@3@$0A@@std@@@std@@@std@@QAEXPAU_Node@?$_Tree_nod@V?$_Tmap_traits@KPAVCGuildMember@@U?$less@K@std@@V?$allocator@U?$pair@$$CBKPAVCGuildMember@@@std@@@3@$0A@@std@@@2@@Z 00431d00 f i guild.obj
 0001:00030d10       ?destroy@?$allocator@PAU_Node@?$_Tree_nod@V?$_Tmap_traits@KPAVCGuildMember@@U?$less@K@std@@V?$allocator@U?$pair@$$CBKPAVCGuildMember@@@std@@@3@$0A@@std@@@std@@@std@@QAEXPAPAU_Node@?$_Tree_nod@V?$_Tmap_traits@KPAVCGuildMember@@U?$less@K@std@@V?$allocator@U?$pair@$$CBKPAVCGuildMember@@@std@@@3@$0A@@std@@@2@@Z 00431d10 f i guild.obj
 0001:00030d20       ?allocate@?$allocator@U_Node@?$_List_nod@PAVCGuildVote@@V?$allocator@PAVCGuildVote@@@std@@@std@@@std@@QAEPAU_Node@?$_List_nod@PAVCGuildVote@@V?$allocator@PAVCGuildVote@@@std@@@2@I@Z 00431d20 f i guild.obj
 0001:00030d40       ?construct@?$allocator@PAU_Node@?$_List_nod@PAVCGuildVote@@V?$allocator@PAVCGuildVote@@@std@@@std@@@std@@QAEXPAPAU_Node@?$_List_nod@PAVCGuildVote@@V?$allocator@PAVCGuildVote@@@std@@@2@ABQAU342@@Z 00431d40 f i guild.obj
 0001:00030d60       ?destroy@?$allocator@PAU_Node@?$_List_nod@PAVCGuildVote@@V?$allocator@PAVCGuildVote@@@std@@@std@@@std@@QAEXPAPAU_Node@?$_List_nod@PAVCGuildVote@@V?$allocator@PAVCGuildVote@@@std@@@2@@Z 00431d60 f i guild.obj
 0001:00030d70       ?max_size@?$_Tree@V?$_Tmap_traits@KPAVCGuild@@U?$less@K@std@@V?$allocator@U?$pair@$$CBKPAVCGuild@@@std@@@3@$0A@@std@@@std@@QBEIXZ 00431d70 f i guild.obj
 0001:00030d80       ?_Lbound@?$_Tree@V?$_Tmap_traits@KPAVCGuild@@U?$less@K@std@@V?$allocator@U?$pair@$$CBKPAVCGuild@@@std@@@3@$0A@@std@@@std@@IBEPAU_Node@?$_Tree_nod@V?$_Tmap_traits@KPAVCGuild@@U?$less@K@std@@V?$allocator@U?$pair@$$CBKPAVCGuild@@@std@@@3@$0A@@std@@@2@ABK@Z 00431d80 f i guild.obj
 0001:00030db0       ?_Lrotate@?$_Tree@V?$_Tmap_traits@KPAVCGuild@@U?$less@K@std@@V?$allocator@U?$pair@$$CBKPAVCGuild@@@std@@@3@$0A@@std@@@std@@IAEXPAU_Node@?$_Tree_nod@V?$_Tmap_traits@KPAVCGuild@@U?$less@K@std@@V?$allocator@U?$pair@$$CBKPAVCGuild@@@std@@@3@$0A@@std@@@2@@Z 00431db0 f i guild.obj
 0001:00030e10       ?_Rrotate@?$_Tree@V?$_Tmap_traits@KPAVCGuild@@U?$less@K@std@@V?$allocator@U?$pair@$$CBKPAVCGuild@@@std@@@3@$0A@@std@@@std@@IAEXPAU_Node@?$_Tree_nod@V?$_Tmap_traits@KPAVCGuild@@U?$less@K@std@@V?$allocator@U?$pair@$$CBKPAVCGuild@@@std@@@3@$0A@@std@@@2@@Z 00431e10 f i guild.obj
 0001:00030e70       ?destroy@?$allocator@U_Node@?$_Tree_nod@V?$_Tmap_traits@KPAVCGuild@@U?$less@K@std@@V?$allocator@U?$pair@$$CBKPAVCGuild@@@std@@@3@$0A@@std@@@std@@@std@@QAEXPAU_Node@?$_Tree_nod@V?$_Tmap_traits@KPAVCGuild@@U?$less@K@std@@V?$allocator@U?$pair@$$CBKPAVCGuild@@@std@@@3@$0A@@std@@@2@@Z 00431e70 f i guild.obj
 0001:00030e80       ?destroy@?$allocator@PAU_Node@?$_Tree_nod@V?$_Tmap_traits@KPAVCGuild@@U?$less@K@std@@V?$allocator@U?$pair@$$CBKPAVCGuild@@@std@@@3@$0A@@std@@@std@@@std@@QAEXPAPAU_Node@?$_Tree_nod@V?$_Tmap_traits@KPAVCGuild@@U?$less@K@std@@V?$allocator@U?$pair@$$CBKPAVCGuild@@@std@@@3@$0A@@std@@@2@@Z 00431e80 f i guild.obj
 0001:00030e90       ?max_size@?$_Tree@V?$_Tmap_traits@V?$basic_string@DU?$char_traits@D@std@@V?$allocator@D@2@@std@@PAVCGuild@@U?$less@V?$basic_string@DU?$char_traits@D@std@@V?$allocator@D@2@@std@@@2@V?$allocator@U?$pair@$$CBV?$basic_string@DU?$char_traits@D@std@@V?$allocator@D@2@@std@@PAVCGuild@@@std@@@2@$0A@@std@@@std@@QBEIXZ 00431e90 f i guild.obj
 0001:00030ea0       ?_Lrotate@?$_Tree@V?$_Tmap_traits@V?$basic_string@DU?$char_traits@D@std@@V?$allocator@D@2@@std@@PAVCGuild@@U?$less@V?$basic_string@DU?$char_traits@D@std@@V?$allocator@D@2@@std@@@2@V?$allocator@U?$pair@$$CBV?$basic_string@DU?$char_traits@D@std@@V?$allocator@D@2@@std@@PAVCGuild@@@std@@@2@$0A@@std@@@std@@IAEXPAU_Node@?$_Tree_nod@V?$_Tmap_traits@V?$basic_string@DU?$char_traits@D@std@@V?$allocator@D@2@@std@@PAVCGuild@@U?$less@V?$basic_string@DU?$char_traits@D@std@@V?$allocator@D@2@@std@@@2@V?$allocator@U?$pair@$$CBV?$basic_string@DU?$char_traits@D@std@@V?$allocator@D@2@@std@@PAVCGuild@@@std@@@2@$0A@@std@@@2@@Z 00431ea0 f i guild.obj
 0001:00030f00       ?_Rrotate@?$_Tree@V?$_Tmap_traits@V?$basic_string@DU?$char_traits@D@std@@V?$allocator@D@2@@std@@PAVCGuild@@U?$less@V?$basic_string@DU?$char_traits@D@std@@V?$allocator@D@2@@std@@@2@V?$allocator@U?$pair@$$CBV?$basic_string@DU?$char_traits@D@std@@V?$allocator@D@2@@std@@PAVCGuild@@@std@@@2@$0A@@std@@@std@@IAEXPAU_Node@?$_Tree_nod@V?$_Tmap_traits@V?$basic_string@DU?$char_traits@D@std@@V?$allocator@D@2@@std@@PAVCGuild@@U?$less@V?$basic_string@DU?$char_traits@D@std@@V?$allocator@D@2@@std@@@2@V?$allocator@U?$pair@$$CBV?$basic_string@DU?$char_traits@D@std@@V?$allocator@D@2@@std@@PAVCGuild@@@std@@@2@$0A@@std@@@2@@Z 00431f00 f i guild.obj
 0001:00030f60       ?destroy@?$allocator@PAU_Node@?$_Tree_nod@V?$_Tmap_traits@V?$basic_string@DU?$char_traits@D@std@@V?$allocator@D@2@@std@@PAVCGuild@@U?$less@V?$basic_string@DU?$char_traits@D@std@@V?$allocator@D@2@@std@@@2@V?$allocator@U?$pair@$$CBV?$basic_string@DU?$char_traits@D@std@@V?$allocator@D@2@@std@@PAVCGuild@@@std@@@2@$0A@@std@@@std@@@std@@QAEXPAPAU_Node@?$_Tree_nod@V?$_Tmap_traits@V?$basic_string@DU?$char_traits@D@std@@V?$allocator@D@2@@std@@PAVCGuild@@U?$less@V?$basic_string@DU?$char_traits@D@std@@V?$allocator@D@2@@std@@@2@V?$allocator@U?$pair@$$CBV?$basic_string@DU?$char_traits@D@std@@V?$allocator@D@2@@std@@PAVCGuild@@@std@@@2@$0A@@std@@@2@@Z 00431f60 f i guild.obj
 0001:00030f70       ??Fconst_iterator@?$_Tree@V?$_Tmap_traits@KPAVCGuildMember@@U?$less@K@std@@V?$allocator@U?$pair@$$CBKPAVCGuildMember@@@std@@@3@$0A@@std@@@std@@QAEAAV012@XZ 00431f70 f i guild.obj
 0001:00030f80       ??Fconst_iterator@?$_Tree@V?$_Tmap_traits@KPAVCGuild@@U?$less@K@std@@V?$allocator@U?$pair@$$CBKPAVCGuild@@@std@@@3@$0A@@std@@@std@@QAEAAV012@XZ 00431f80 f i guild.obj
 0001:00030f90       ?_Inc@const_iterator@?$_Tree@V?$_Tmap_traits@KPAVCGuild@@U?$less@K@std@@V?$allocator@U?$pair@$$CBKPAVCGuild@@@std@@@3@$0A@@std@@@std@@QAEXXZ 00431f90 f i guild.obj
 0001:00030ff0       ??Fconst_iterator@?$_Tree@V?$_Tmap_traits@V?$basic_string@DU?$char_traits@D@std@@V?$allocator@D@2@@std@@PAVCGuild@@U?$less@V?$basic_string@DU?$char_traits@D@std@@V?$allocator@D@2@@std@@@2@V?$allocator@U?$pair@$$CBV?$basic_string@DU?$char_traits@D@std@@V?$allocator@D@2@@std@@PAVCGuild@@@std@@@2@$0A@@std@@@std@@QAEAAV012@XZ 00431ff0 f i guild.obj
 0001:00031000       ?_Ubound@?$_Tree@V?$_Tmap_traits@KPAVCGuildMember@@U?$less@K@std@@V?$allocator@U?$pair@$$CBKPAVCGuildMember@@@std@@@3@$0A@@std@@@std@@IBEPAU_Node@?$_Tree_nod@V?$_Tmap_traits@KPAVCGuildMember@@U?$less@K@std@@V?$allocator@U?$pair@$$CBKPAVCGuildMember@@@std@@@3@$0A@@std@@@2@ABK@Z 00432000 f i guild.obj
 0001:00031030       ?allocate@?$allocator@U_Node@?$_Tree_nod@V?$_Tmap_traits@KPAVCGuildMember@@U?$less@K@std@@V?$allocator@U?$pair@$$CBKPAVCGuildMember@@@std@@@3@$0A@@std@@@std@@@std@@QAEPAU_Node@?$_Tree_nod@V?$_Tmap_traits@KPAVCGuildMember@@U?$less@K@std@@V?$allocator@U?$pair@$$CBKPAVCGuildMember@@@std@@@3@$0A@@std@@@2@I@Z 00432030 f i guild.obj
 0001:00031050       ?max_size@?$list@PAVCGuildVote@@V?$allocator@PAVCGuildVote@@@std@@@std@@QBEIXZ 00432050 f i guild.obj
 0001:00031060       ??0?$_List_nod@PAVCGuildVote@@V?$allocator@PAVCGuildVote@@@std@@@std@@IAE@V?$allocator@PAVCGuildVote@@@1@@Z 00432060 f i guild.obj
 0001:00031070       ?_Ubound@?$_Tree@V?$_Tmap_traits@KPAVCGuild@@U?$less@K@std@@V?$allocator@U?$pair@$$CBKPAVCGuild@@@std@@@3@$0A@@std@@@std@@IBEPAU_Node@?$_Tree_nod@V?$_Tmap_traits@KPAVCGuild@@U?$less@K@std@@V?$allocator@U?$pair@$$CBKPAVCGuild@@@std@@@3@$0A@@std@@@2@ABK@Z 00432070 f i guild.obj
 0001:000310a0       ?allocate@?$allocator@U_Node@?$_Tree_nod@V?$_Tmap_traits@KPAVCGuild@@U?$less@K@std@@V?$allocator@U?$pair@$$CBKPAVCGuild@@@std@@@3@$0A@@std@@@std@@@std@@QAEPAU_Node@?$_Tree_nod@V?$_Tmap_traits@KPAVCGuild@@U?$less@K@std@@V?$allocator@U?$pair@$$CBKPAVCGuild@@@std@@@3@$0A@@std@@@2@I@Z 004320a0 f i guild.obj
 0001:000310c0       ?allocate@?$allocator@U_Node@?$_Tree_nod@V?$_Tmap_traits@V?$basic_string@DU?$char_traits@D@std@@V?$allocator@D@2@@std@@PAVCGuild@@U?$less@V?$basic_string@DU?$char_traits@D@std@@V?$allocator@D@2@@std@@@2@V?$allocator@U?$pair@$$CBV?$basic_string@DU?$char_traits@D@std@@V?$allocator@D@2@@std@@PAVCGuild@@@std@@@2@$0A@@std@@@std@@@std@@QAEPAU_Node@?$_Tree_nod@V?$_Tmap_traits@V?$basic_string@DU?$char_traits@D@std@@V?$allocator@D@2@@std@@PAVCGuild@@U?$less@V?$basic_string@DU?$char_traits@D@std@@V?$allocator@D@2@@std@@@2@V?$allocator@U?$pair@$$CBV?$basic_string@DU?$char_traits@D@std@@V?$allocator@D@2@@std@@PAVCGuild@@@std@@@2@$0A@@std@@@2@I@Z 004320c0 f i guild.obj
 0001:000310e0       ??0?$_Tree_nod@V?$_Tmap_traits@KPAVCGuildMember@@U?$less@K@std@@V?$allocator@U?$pair@$$CBKPAVCGuildMember@@@std@@@3@$0A@@std@@@std@@IAE@ABU?$less@K@1@V?$allocator@U?$pair@$$CBKPAVCGuildMember@@@std@@@1@@Z 004320e0 f i guild.obj
 0001:000310f0       ?construct@?$allocator@PAU_Node@?$_Tree_nod@V?$_Tmap_traits@KPAVCGuildMember@@U?$less@K@std@@V?$allocator@U?$pair@$$CBKPAVCGuildMember@@@std@@@3@$0A@@std@@@std@@@std@@QAEXPAPAU_Node@?$_Tree_nod@V?$_Tmap_traits@KPAVCGuildMember@@U?$less@K@std@@V?$allocator@U?$pair@$$CBKPAVCGuildMember@@@std@@@3@$0A@@std@@@2@ABQAU342@@Z 004320f0 f i guild.obj
 0001:00031110       ??0?$_Tree_nod@V?$_Tmap_traits@KPAVCGuild@@U?$less@K@std@@V?$allocator@U?$pair@$$CBKPAVCGuild@@@std@@@3@$0A@@std@@@std@@IAE@ABU?$less@K@1@V?$allocator@U?$pair@$$CBKPAVCGuild@@@std@@@1@@Z 00432110 f i guild.obj
 0001:00031120       ?construct@?$allocator@PAU_Node@?$_Tree_nod@V?$_Tmap_traits@KPAVCGuild@@U?$less@K@std@@V?$allocator@U?$pair@$$CBKPAVCGuild@@@std@@@3@$0A@@std@@@std@@@std@@QAEXPAPAU_Node@?$_Tree_nod@V?$_Tmap_traits@KPAVCGuild@@U?$less@K@std@@V?$allocator@U?$pair@$$CBKPAVCGuild@@@std@@@3@$0A@@std@@@2@ABQAU342@@Z 00432120 f i guild.obj
 0001:00031140       ??0?$_Tree_nod@V?$_Tmap_traits@V?$basic_string@DU?$char_traits@D@std@@V?$allocator@D@2@@std@@PAVCGuild@@U?$less@V?$basic_string@DU?$char_traits@D@std@@V?$allocator@D@2@@std@@@2@V?$allocator@U?$pair@$$CBV?$basic_string@DU?$char_traits@D@std@@V?$allocator@D@2@@std@@PAVCGuild@@@std@@@2@$0A@@std@@@std@@IAE@ABU?$less@V?$basic_string@DU?$char_traits@D@std@@V?$allocator@D@2@@std@@@1@V?$allocator@U?$pair@$$CBV?$basic_string@DU?$char_traits@D@std@@V?$allocator@D@2@@std@@PAVCGuild@@@std@@@1@@Z 00432140 f i guild.obj
 0001:00031150       ?construct@?$allocator@PAU_Node@?$_Tree_nod@V?$_Tmap_traits@V?$basic_string@DU?$char_traits@D@std@@V?$allocator@D@2@@std@@PAVCGuild@@U?$less@V?$basic_string@DU?$char_traits@D@std@@V?$allocator@D@2@@std@@@2@V?$allocator@U?$pair@$$CBV?$basic_string@DU?$char_traits@D@std@@V?$allocator@D@2@@std@@PAVCGuild@@@std@@@2@$0A@@std@@@std@@@std@@QAEXPAPAU_Node@?$_Tree_nod@V?$_Tmap_traits@V?$basic_string@DU?$char_traits@D@std@@V?$allocator@D@2@@std@@PAVCGuild@@U?$less@V?$basic_string@DU?$char_traits@D@std@@V?$allocator@D@2@@std@@@2@V?$allocator@U?$pair@$$CBV?$basic_string@DU?$char_traits@D@std@@V?$allocator@D@2@@std@@PAVCGuild@@@std@@@2@$0A@@std@@@2@ABQAU342@@Z 00432150 f i guild.obj
 0001:00031170       ??Econst_iterator@?$_Tree@V?$_Tmap_traits@V?$basic_string@DU?$char_traits@D@std@@V?$allocator@D@2@@std@@PAVCGuild@@U?$less@V?$basic_string@DU?$char_traits@D@std@@V?$allocator@D@2@@std@@@2@V?$allocator@U?$pair@$$CBV?$basic_string@DU?$char_traits@D@std@@V?$allocator@D@2@@std@@PAVCGuild@@@std@@@2@$0A@@std@@@std@@QAEAAV012@XZ 00432170 f i guild.obj
 0001:00031180       ??0CGuildRank@@QAE@XZ      00432180 f i guild.obj
 0001:000311d0       ?GetInstance@CGuildTable@@SAAAV1@XZ 004321d0 f   guild.obj
 0001:00031220       ?GetMaxMemberSize@CGuild@@QAEHXZ 00432220 f   guild.obj
 0001:00031240       ?Instance@CGuildRank@@SAPAV1@XZ 00432240 f   guild.obj
 0001:00031280       ?begin@?$list@PAVCGuildVote@@V?$allocator@PAVCGuildVote@@@std@@@std@@QAE?AViterator@12@XZ 00432280 f i guild.obj
 0001:00031290       ?end@?$list@PAVCGuildVote@@V?$allocator@PAVCGuildVote@@@std@@@std@@QAE?AViterator@12@XZ 00432290 f i guild.obj
 0001:000312a0       ?erase@?$list@PAVCGuildVote@@V?$allocator@PAVCGuildVote@@@std@@@std@@QAE?AViterator@12@V312@@Z 004322a0 f i guild.obj
 0001:000312e0       ?clear@?$list@PAVCGuildVote@@V?$allocator@PAVCGuildVote@@@std@@@std@@QAEXXZ 004322e0 f i guild.obj
 0001:00031320       ?begin@?$_Tree@V?$_Tmap_traits@KPAVCGuild@@U?$less@K@std@@V?$allocator@U?$pair@$$CBKPAVCGuild@@@std@@@3@$0A@@std@@@std@@QAE?AViterator@12@XZ 00432320 f i guild.obj
 0001:00031330       ?end@?$_Tree@V?$_Tmap_traits@KPAVCGuild@@U?$less@K@std@@V?$allocator@U?$pair@$$CBKPAVCGuild@@@std@@@3@$0A@@std@@@std@@QAE?AViterator@12@XZ 00432330 f i guild.obj
 0001:00031340       ?end@?$_Tree@V?$_Tmap_traits@V?$basic_string@DU?$char_traits@D@std@@V?$allocator@D@2@@std@@PAVCGuild@@U?$less@V?$basic_string@DU?$char_traits@D@std@@V?$allocator@D@2@@std@@@2@V?$allocator@U?$pair@$$CBV?$basic_string@DU?$char_traits@D@std@@V?$allocator@D@2@@std@@PAVCGuild@@@std@@@2@$0A@@std@@@std@@QAE?AViterator@12@XZ 00432340 f i guild.obj
 0001:00031350       ??Diterator@?$list@PAVCGuildVote@@V?$allocator@PAVCGuildVote@@@std@@@std@@QBEAAPAVCGuildVote@@XZ 00432350 f i guild.obj
 0001:00031360       ??Citerator@?$_Tree@V?$_Tmap_traits@KPAVCGuild@@U?$less@K@std@@V?$allocator@U?$pair@$$CBKPAVCGuild@@@std@@@3@$0A@@std@@@std@@QBEPAU?$pair@$$CBKPAVCGuild@@@2@XZ 00432360 f i guild.obj
 0001:00031370       ??Citerator@?$_Tree@V?$_Tmap_traits@V?$basic_string@DU?$char_traits@D@std@@V?$allocator@D@2@@std@@PAVCGuild@@U?$less@V?$basic_string@DU?$char_traits@D@std@@V?$allocator@D@2@@std@@@2@V?$allocator@U?$pair@$$CBV?$basic_string@DU?$char_traits@D@std@@V?$allocator@D@2@@std@@PAVCGuild@@@std@@@2@$0A@@std@@@std@@QBEPAU?$pair@$$CBV?$basic_string@DU?$char_traits@D@std@@V?$allocator@D@2@@std@@PAVCGuild@@@2@XZ 00432370 f i guild.obj
 0001:00031380       ?lower_bound@?$_Tree@V?$_Tmap_traits@KPAVCGuildMember@@U?$less@K@std@@V?$allocator@U?$pair@$$CBKPAVCGuildMember@@@std@@@3@$0A@@std@@@std@@QAE?AViterator@12@ABK@Z 00432380 f i guild.obj
 0001:000313c0       ?_Erase@?$_Tree@V?$_Tmap_traits@KPAVCGuildMember@@U?$less@K@std@@V?$allocator@U?$pair@$$CBKPAVCGuildMember@@@std@@@3@$0A@@std@@@std@@IAEXPAU_Node@?$_Tree_nod@V?$_Tmap_traits@KPAVCGuildMember@@U?$less@K@std@@V?$allocator@U?$pair@$$CBKPAVCGuildMember@@@std@@@3@$0A@@std@@@2@@Z 004323c0 f i guild.obj
 0001:00031400       ?_Buynode@?$list@PAVCGuildVote@@V?$allocator@PAVCGuildVote@@@std@@@std@@IAEPAU_Node@?$_List_nod@PAVCGuildVote@@V?$allocator@PAVCGuildVote@@@std@@@2@XZ 00432400 f i guild.obj
 0001:00031420       ?_Tidy@?$list@PAVCGuildVote@@V?$allocator@PAVCGuildVote@@@std@@@std@@IAEXXZ 00432420 f i guild.obj
 0001:00031440       ?lower_bound@?$_Tree@V?$_Tmap_traits@KPAVCGuild@@U?$less@K@std@@V?$allocator@U?$pair@$$CBKPAVCGuild@@@std@@@3@$0A@@std@@@std@@QAE?AViterator@12@ABK@Z 00432440 f i guild.obj
 0001:00031480       ?_Erase@?$_Tree@V?$_Tmap_traits@KPAVCGuild@@U?$less@K@std@@V?$allocator@U?$pair@$$CBKPAVCGuild@@@std@@@3@$0A@@std@@@std@@IAEXPAU_Node@?$_Tree_nod@V?$_Tmap_traits@KPAVCGuild@@U?$less@K@std@@V?$allocator@U?$pair@$$CBKPAVCGuild@@@std@@@3@$0A@@std@@@2@@Z 00432480 f i guild.obj
 0001:000314c0       ?begin@?$_Tree@V?$_Tmap_traits@V?$basic_string@DU?$char_traits@D@std@@V?$allocator@D@2@@std@@PAVCGuild@@U?$less@V?$basic_string@DU?$char_traits@D@std@@V?$allocator@D@2@@std@@@2@V?$allocator@U?$pair@$$CBV?$basic_string@DU?$char_traits@D@std@@V?$allocator@D@2@@std@@PAVCGuild@@@std@@@2@$0A@@std@@@std@@QAE?AViterator@12@XZ 004324c0 f i guild.obj
 0001:000314d0       ??Fiterator@?$_Tree@V?$_Tmap_traits@KPAVCGuildMember@@U?$less@K@std@@V?$allocator@U?$pair@$$CBKPAVCGuildMember@@@std@@@3@$0A@@std@@@std@@QAEAAV012@XZ 004324d0 f i guild.obj
 0001:000314e0       ??Fiterator@?$_Tree@V?$_Tmap_traits@KPAVCGuild@@U?$less@K@std@@V?$allocator@U?$pair@$$CBKPAVCGuild@@@std@@@3@$0A@@std@@@std@@QAEAAV012@XZ 004324e0 f i guild.obj
 0001:000314f0       ??Econst_iterator@?$_Tree@V?$_Tmap_traits@KPAVCGuild@@U?$less@K@std@@V?$allocator@U?$pair@$$CBKPAVCGuild@@@std@@@3@$0A@@std@@@std@@QAEAAV012@XZ 004324f0 f i guild.obj
 0001:00031500       ??Fiterator@?$_Tree@V?$_Tmap_traits@V?$basic_string@DU?$char_traits@D@std@@V?$allocator@D@2@@std@@PAVCGuild@@U?$less@V?$basic_string@DU?$char_traits@D@std@@V?$allocator@D@2@@std@@@2@V?$allocator@U?$pair@$$CBV?$basic_string@DU?$char_traits@D@std@@V?$allocator@D@2@@std@@PAVCGuild@@@std@@@2@$0A@@std@@@std@@QAEAAV012@XZ 00432500 f i guild.obj
 0001:00031510       ?upper_bound@?$_Tree@V?$_Tmap_traits@KPAVCGuildMember@@U?$less@K@std@@V?$allocator@U?$pair@$$CBKPAVCGuildMember@@@std@@@3@$0A@@std@@@std@@QAE?AViterator@12@ABK@Z 00432510 f i guild.obj
 0001:00031550       ?_Buynode@?$_Tree@V?$_Tmap_traits@KPAVCGuildMember@@U?$less@K@std@@V?$allocator@U?$pair@$$CBKPAVCGuildMember@@@std@@@3@$0A@@std@@@std@@IAEPAU_Node@?$_Tree_nod@V?$_Tmap_traits@KPAVCGuildMember@@U?$less@K@std@@V?$allocator@U?$pair@$$CBKPAVCGuildMember@@@std@@@3@$0A@@std@@@2@PAU342@00ABU?$pair@$$CBKPAVCGuildMember@@@2@D@Z 00432550 f i guild.obj
 0001:00031590       ?_Buynode@?$list@PAVCGuildVote@@V?$allocator@PAVCGuildVote@@@std@@@std@@IAEPAU_Node@?$_List_nod@PAVCGuildVote@@V?$allocator@PAVCGuildVote@@@std@@@2@PAU342@0ABQAVCGuildVote@@@Z 00432590 f i guild.obj
 0001:000315c0       ??0?$_List_ptr@PAVCGuildVote@@V?$allocator@PAVCGuildVote@@@std@@@std@@IAE@V?$allocator@PAVCGuildVote@@@1@@Z 004325c0 f i guild.obj
 0001:000315d0       ?upper_bound@?$_Tree@V?$_Tmap_traits@KPAVCGuild@@U?$less@K@std@@V?$allocator@U?$pair@$$CBKPAVCGuild@@@std@@@3@$0A@@std@@@std@@QAE?AViterator@12@ABK@Z 004325d0 f i guild.obj
 0001:00031610       ?_Buynode@?$_Tree@V?$_Tmap_traits@KPAVCGuild@@U?$less@K@std@@V?$allocator@U?$pair@$$CBKPAVCGuild@@@std@@@3@$0A@@std@@@std@@IAEPAU_Node@?$_Tree_nod@V?$_Tmap_traits@KPAVCGuild@@U?$less@K@std@@V?$allocator@U?$pair@$$CBKPAVCGuild@@@std@@@3@$0A@@std@@@2@PAU342@00ABU?$pair@$$CBKPAVCGuild@@@2@D@Z 00432610 f i guild.obj
 0001:00031650       ?_Buynode@?$_Tree@V?$_Tmap_traits@KPAVCGuildMember@@U?$less@K@std@@V?$allocator@U?$pair@$$CBKPAVCGuildMember@@@std@@@3@$0A@@std@@@std@@IAEPAU_Node@?$_Tree_nod@V?$_Tmap_traits@KPAVCGuildMember@@U?$less@K@std@@V?$allocator@U?$pair@$$CBKPAVCGuildMember@@@std@@@3@$0A@@std@@@2@XZ 00432650 f i guild.obj
 0001:00031690       ??0?$_Tree_ptr@V?$_Tmap_traits@KPAVCGuildMember@@U?$less@K@std@@V?$allocator@U?$pair@$$CBKPAVCGuildMember@@@std@@@3@$0A@@std@@@std@@IAE@ABU?$less@K@1@V?$allocator@U?$pair@$$CBKPAVCGuildMember@@@std@@@1@@Z 00432690 f i guild.obj
 0001:000316a0       ?_Buynode@?$_Tree@V?$_Tmap_traits@KPAVCGuild@@U?$less@K@std@@V?$allocator@U?$pair@$$CBKPAVCGuild@@@std@@@3@$0A@@std@@@std@@IAEPAU_Node@?$_Tree_nod@V?$_Tmap_traits@KPAVCGuild@@U?$less@K@std@@V?$allocator@U?$pair@$$CBKPAVCGuild@@@std@@@3@$0A@@std@@@2@XZ 004326a0 f i guild.obj
 0001:000316e0       ??0?$_Tree_ptr@V?$_Tmap_traits@KPAVCGuild@@U?$less@K@std@@V?$allocator@U?$pair@$$CBKPAVCGuild@@@std@@@3@$0A@@std@@@std@@IAE@ABU?$less@K@1@V?$allocator@U?$pair@$$CBKPAVCGuild@@@std@@@1@@Z 004326e0 f i guild.obj
 0001:000316f0       ?_Buynode@?$_Tree@V?$_Tmap_traits@V?$basic_string@DU?$char_traits@D@std@@V?$allocator@D@2@@std@@PAVCGuild@@U?$less@V?$basic_string@DU?$char_traits@D@std@@V?$allocator@D@2@@std@@@2@V?$allocator@U?$pair@$$CBV?$basic_string@DU?$char_traits@D@std@@V?$allocator@D@2@@std@@PAVCGuild@@@std@@@2@$0A@@std@@@std@@IAEPAU_Node@?$_Tree_nod@V?$_Tmap_traits@V?$basic_string@DU?$char_traits@D@std@@V?$allocator@D@2@@std@@PAVCGuild@@U?$less@V?$basic_string@DU?$char_traits@D@std@@V?$allocator@D@2@@std@@@2@V?$allocator@U?$pair@$$CBV?$basic_string@DU?$char_traits@D@std@@V?$allocator@D@2@@std@@PAVCGuild@@@std@@@2@$0A@@std@@@2@XZ 004326f0 f i guild.obj
 0001:00031730       ??0?$_Tree_ptr@V?$_Tmap_traits@V?$basic_string@DU?$char_traits@D@std@@V?$allocator@D@2@@std@@PAVCGuild@@U?$less@V?$basic_string@DU?$char_traits@D@std@@V?$allocator@D@2@@std@@@2@V?$allocator@U?$pair@$$CBV?$basic_string@DU?$char_traits@D@std@@V?$allocator@D@2@@std@@PAVCGuild@@@std@@@2@$0A@@std@@@std@@IAE@ABU?$less@V?$basic_string@DU?$char_traits@D@std@@V?$allocator@D@2@@std@@@1@V?$allocator@U?$pair@$$CBV?$basic_string@DU?$char_traits@D@std@@V?$allocator@D@2@@std@@PAVCGuild@@@std@@@1@@Z 00432730 f i guild.obj
 0001:00031740       ??Eiterator@?$_Tree@V?$_Tmap_traits@V?$basic_string@DU?$char_traits@D@std@@V?$allocator@D@2@@std@@PAVCGuild@@U?$less@V?$basic_string@DU?$char_traits@D@std@@V?$allocator@D@2@@std@@@2@V?$allocator@U?$pair@$$CBV?$basic_string@DU?$char_traits@D@std@@V?$allocator@D@2@@std@@PAVCGuild@@@std@@@2@$0A@@std@@@std@@QAEAAV012@XZ 00432740 f i guild.obj
 0001:00031750       ??$_Distance2@Viterator@?$_Tree@V?$_Tmap_traits@V?$basic_string@DU?$char_traits@D@std@@V?$allocator@D@2@@std@@PAVCGuild@@U?$less@V?$basic_string@DU?$char_traits@D@std@@V?$allocator@D@2@@std@@@2@V?$allocator@U?$pair@$$CBV?$basic_string@DU?$char_traits@D@std@@V?$allocator@D@2@@std@@PAVCGuild@@@std@@@2@$0A@@std@@@std@@I@std@@YAXViterator@?$_Tree@V?$_Tmap_traits@V?$basic_string@DU?$char_traits@D@std@@V?$allocator@D@2@@std@@PAVCGuild@@U?$less@V?$basic_string@DU?$char_traits@D@std@@V?$allocator@D@2@@std@@@2@V?$allocator@U?$pair@$$CBV?$basic_string@DU?$char_traits@D@std@@V?$allocator@D@2@@std@@PAVCGuild@@@std@@@2@$0A@@std@@@0@0AAIUbidirectional_iterator_tag@0@@Z 00432750 f i guild.obj
 0001:00031780       ?GetMaxMemberLvSize@CGuild@@QAEHH@Z 00432780 f   guild.obj
 0001:000317c0       ?FindVote@CGuild@@QAEPAVCGuildVote@@K@Z 004327c0 f   guild.obj
 0001:000317f0       ?ModifyVote@CGuild@@QAE_NKEE@Z 004327f0 f   guild.obj
 0001:000318c0       ?clear@?$_Tree@V?$_Tmap_traits@KPAVCGuildMember@@U?$less@K@std@@V?$allocator@U?$pair@$$CBKPAVCGuildMember@@@std@@@3@$0A@@std@@@std@@QAEXXZ 004328c0 f i guild.obj
 0001:000318f0       ?find@?$_Tree@V?$_Tmap_traits@KPAVCGuildMember@@U?$less@K@std@@V?$allocator@U?$pair@$$CBKPAVCGuildMember@@@std@@@3@$0A@@std@@@std@@QAE?AViterator@12@ABK@Z 004328f0 f i guild.obj
 0001:00031960       ??1?$list@PAVCGuildVote@@V?$allocator@PAVCGuildVote@@@std@@@std@@QAE@XZ 00432960 f i guild.obj
 0001:00031980       ?front@?$list@PAVCGuildVote@@V?$allocator@PAVCGuildVote@@@std@@@std@@QAEAAPAVCGuildVote@@XZ 00432980 f i guild.obj
 0001:00031990       ?pop_front@?$list@PAVCGuildVote@@V?$allocator@PAVCGuildVote@@@std@@@std@@QAEXXZ 00432990 f i guild.obj
 0001:000319c0       ?clear@?$_Tree@V?$_Tmap_traits@KPAVCGuild@@U?$less@K@std@@V?$allocator@U?$pair@$$CBKPAVCGuild@@@std@@@3@$0A@@std@@@std@@QAEXXZ 004329c0 f i guild.obj
 0001:000319f0       ?find@?$_Tree@V?$_Tmap_traits@KPAVCGuild@@U?$less@K@std@@V?$allocator@U?$pair@$$CBKPAVCGuild@@@std@@@3@$0A@@std@@@std@@QAE?AViterator@12@ABK@Z 004329f0 f i guild.obj
 0001:00031a60       ??Eiterator@?$_Tree@V?$_Tmap_traits@KPAVCGuild@@U?$less@K@std@@V?$allocator@U?$pair@$$CBKPAVCGuild@@@std@@@3@$0A@@std@@@std@@QAEAAV012@XZ 00432a60 f i guild.obj
 0001:00031a70       ?equal_range@?$_Tree@V?$_Tmap_traits@KPAVCGuildMember@@U?$less@K@std@@V?$allocator@U?$pair@$$CBKPAVCGuildMember@@@std@@@3@$0A@@std@@@std@@QAE?AU?$pair@Viterator@?$_Tree@V?$_Tmap_traits@KPAVCGuildMember@@U?$less@K@std@@V?$allocator@U?$pair@$$CBKPAVCGuildMember@@@std@@@3@$0A@@std@@@std@@V123@@2@ABK@Z 00432a70 f i guild.obj
 0001:00031ae0       ??0?$_List_val@PAVCGuildVote@@V?$allocator@PAVCGuildVote@@@std@@@std@@IAE@V?$allocator@PAVCGuildVote@@@1@@Z 00432ae0 f i guild.obj
 0001:00031af0       ?equal_range@?$_Tree@V?$_Tmap_traits@KPAVCGuild@@U?$less@K@std@@V?$allocator@U?$pair@$$CBKPAVCGuild@@@std@@@3@$0A@@std@@@std@@QAE?AU?$pair@Viterator@?$_Tree@V?$_Tmap_traits@KPAVCGuild@@U?$less@K@std@@V?$allocator@U?$pair@$$CBKPAVCGuild@@@std@@@3@$0A@@std@@@std@@V123@@2@ABK@Z 00432af0 f i guild.obj
 0001:00031b60       ?_Init@?$_Tree@V?$_Tmap_traits@KPAVCGuildMember@@U?$less@K@std@@V?$allocator@U?$pair@$$CBKPAVCGuildMember@@@std@@@3@$0A@@std@@@std@@IAEXXZ 00432b60 f i guild.obj
 0001:00031b90       ??0?$_Tree_val@V?$_Tmap_traits@KPAVCGuildMember@@U?$less@K@std@@V?$allocator@U?$pair@$$CBKPAVCGuildMember@@@std@@@3@$0A@@std@@@std@@IAE@ABU?$less@K@1@V?$allocator@U?$pair@$$CBKPAVCGuildMember@@@std@@@1@@Z 00432b90 f i guild.obj
 0001:00031ba0       ?_Init@?$_Tree@V?$_Tmap_traits@KPAVCGuild@@U?$less@K@std@@V?$allocator@U?$pair@$$CBKPAVCGuild@@@std@@@3@$0A@@std@@@std@@IAEXXZ 00432ba0 f i guild.obj
 0001:00031bd0       ??0?$_Tree_val@V?$_Tmap_traits@KPAVCGuild@@U?$less@K@std@@V?$allocator@U?$pair@$$CBKPAVCGuild@@@std@@@3@$0A@@std@@@std@@IAE@ABU?$less@K@1@V?$allocator@U?$pair@$$CBKPAVCGuild@@@std@@@1@@Z 00432bd0 f i guild.obj
 0001:00031be0       ?_Init@?$_Tree@V?$_Tmap_traits@V?$basic_string@DU?$char_traits@D@std@@V?$allocator@D@2@@std@@PAVCGuild@@U?$less@V?$basic_string@DU?$char_traits@D@std@@V?$allocator@D@2@@std@@@2@V?$allocator@U?$pair@$$CBV?$basic_string@DU?$char_traits@D@std@@V?$allocator@D@2@@std@@PAVCGuild@@@std@@@2@$0A@@std@@@std@@IAEXXZ 00432be0 f i guild.obj
 0001:00031c10       ??0?$_Tree_val@V?$_Tmap_traits@V?$basic_string@DU?$char_traits@D@std@@V?$allocator@D@2@@std@@PAVCGuild@@U?$less@V?$basic_string@DU?$char_traits@D@std@@V?$allocator@D@2@@std@@@2@V?$allocator@U?$pair@$$CBV?$basic_string@DU?$char_traits@D@std@@V?$allocator@D@2@@std@@PAVCGuild@@@std@@@2@$0A@@std@@@std@@IAE@ABU?$less@V?$basic_string@DU?$char_traits@D@std@@V?$allocator@D@2@@std@@@1@V?$allocator@U?$pair@$$CBV?$basic_string@DU?$char_traits@D@std@@V?$allocator@D@2@@std@@PAVCGuild@@@std@@@1@@Z 00432c10 f i guild.obj
 0001:00031c20       ??Eiterator@?$_Tree@V?$_Tmap_traits@KPAVCGuildMember@@U?$less@K@std@@V?$allocator@U?$pair@$$CBKPAVCGuildMember@@@std@@@3@$0A@@std@@@std@@QAE?AV012@H@Z 00432c20 f i guild.obj
 0001:00031c40       ??Eiterator@?$_Tree@V?$_Tmap_traits@KPAVCGuild@@U?$less@K@std@@V?$allocator@U?$pair@$$CBKPAVCGuild@@@std@@@3@$0A@@std@@@std@@QAE?AV012@H@Z 00432c40 f i guild.obj
 0001:00031c60       ??Eiterator@?$_Tree@V?$_Tmap_traits@V?$basic_string@DU?$char_traits@D@std@@V?$allocator@D@2@@std@@PAVCGuild@@U?$less@V?$basic_string@DU?$char_traits@D@std@@V?$allocator@D@2@@std@@@2@V?$allocator@U?$pair@$$CBV?$basic_string@DU?$char_traits@D@std@@V?$allocator@D@2@@std@@PAVCGuild@@@std@@@2@$0A@@std@@@std@@QAE?AV012@H@Z 00432c60 f i guild.obj
 0001:00031c80       ??$_Distance@Viterator@?$_Tree@V?$_Tmap_traits@V?$basic_string@DU?$char_traits@D@std@@V?$allocator@D@2@@std@@PAVCGuild@@U?$less@V?$basic_string@DU?$char_traits@D@std@@V?$allocator@D@2@@std@@@2@V?$allocator@U?$pair@$$CBV?$basic_string@DU?$char_traits@D@std@@V?$allocator@D@2@@std@@PAVCGuild@@@std@@@2@$0A@@std@@@std@@I@std@@YAXViterator@?$_Tree@V?$_Tmap_traits@V?$basic_string@DU?$char_traits@D@std@@V?$allocator@D@2@@std@@PAVCGuild@@U?$less@V?$basic_string@DU?$char_traits@D@std@@V?$allocator@D@2@@std@@@2@V?$allocator@U?$pair@$$CBV?$basic_string@DU?$char_traits@D@std@@V?$allocator@D@2@@std@@PAVCGuild@@@std@@@2@$0A@@std@@@0@0AAI@Z 00432c80 f i guild.obj
 0001:00031cc0       ??$_Distance2@Viterator@?$_Tree@V?$_Tmap_traits@KPAVCGuildMember@@U?$less@K@std@@V?$allocator@U?$pair@$$CBKPAVCGuildMember@@@std@@@3@$0A@@std@@@std@@I@std@@YAXViterator@?$_Tree@V?$_Tmap_traits@KPAVCGuildMember@@U?$less@K@std@@V?$allocator@U?$pair@$$CBKPAVCGuildMember@@@std@@@3@$0A@@std@@@0@0AAIUbidirectional_iterator_tag@0@@Z 00432cc0 f i guild.obj
 0001:00031cf0       ??$_Distance2@Viterator@?$_Tree@V?$_Tmap_traits@KPAVCGuild@@U?$less@K@std@@V?$allocator@U?$pair@$$CBKPAVCGuild@@@std@@@3@$0A@@std@@@std@@I@std@@YAXViterator@?$_Tree@V?$_Tmap_traits@KPAVCGuild@@U?$less@K@std@@V?$allocator@U?$pair@$$CBKPAVCGuild@@@std@@@3@$0A@@std@@@0@0AAIUbidirectional_iterator_tag@0@@Z 00432cf0 f i guild.obj
 0001:00031d20       ?Clear@CGuild@@QAEXXZ      00432d20 f   guild.obj
 0001:00031e00       ?GetMember@CGuild@@QAEPAVCGuildMember@@K@Z 00432e00 f   guild.obj
 0001:00031e30       ?GetMemberLvSize@CGuild@@QAEHH@Z 00432e30 f   guild.obj
 0001:00031e70       ?SetContribution@CGuild@@QAEXAAUCONTRIBUTION_CHANGED_INFO@@@Z 00432e70 f   guild.obj
 0001:00031ee0       ?DecrementMemberContribution@CGuild@@QAEXKKK@Z 00432ee0 f   guild.obj
 0001:00031f30       ?CanContribute@CGuild@@QAE?AW4CONTRIBUTION_RESULT@@KKK@Z 00432f30 f   guild.obj
 0001:00031ff0       ?AddContribution@CGuild@@QAEHKKK@Z 00432ff0 f   guild.obj
 0001:000320d0       ??1?$pair@$$CBV?$basic_string@DU?$char_traits@D@std@@V?$allocator@D@2@@std@@PAVCGuild@@@std@@QAE@XZ 004330d0 f i guild.obj
 0001:00032100       ?GetGuild@CGuildMng@@QAEPAVCGuild@@K@Z 00433100 f   guild.obj
 0001:00032130       ?RemoveConnection@CGuildMng@@QAEXPAVCPlayer@@@Z 00433130 f   guild.obj
 0001:00032210       ??0?$list@PAVCGuildVote@@V?$allocator@PAVCGuildVote@@@std@@@std@@QAE@XZ 00433210 f i guild.obj
 0001:00032230       ??0?$_Tree@V?$_Tmap_traits@KPAVCGuildMember@@U?$less@K@std@@V?$allocator@U?$pair@$$CBKPAVCGuildMember@@@std@@@3@$0A@@std@@@std@@QAE@ABU?$less@K@1@ABV?$allocator@U?$pair@$$CBKPAVCGuildMember@@@std@@@1@@Z 00433230 f i guild.obj
 0001:00032260       ??0?$_Tree@V?$_Tmap_traits@KPAVCGuild@@U?$less@K@std@@V?$allocator@U?$pair@$$CBKPAVCGuild@@@std@@@3@$0A@@std@@@std@@QAE@ABU?$less@K@1@ABV?$allocator@U?$pair@$$CBKPAVCGuild@@@std@@@1@@Z 00433260 f i guild.obj
 0001:00032290       ??0?$_Tree@V?$_Tmap_traits@V?$basic_string@DU?$char_traits@D@std@@V?$allocator@D@2@@std@@PAVCGuild@@U?$less@V?$basic_string@DU?$char_traits@D@std@@V?$allocator@D@2@@std@@@2@V?$allocator@U?$pair@$$CBV?$basic_string@DU?$char_traits@D@std@@V?$allocator@D@2@@std@@PAVCGuild@@@std@@@2@$0A@@std@@@std@@QAE@ABU?$less@V?$basic_string@DU?$char_traits@D@std@@V?$allocator@D@2@@std@@@1@ABV?$allocator@U?$pair@$$CBV?$basic_string@DU?$char_traits@D@std@@V?$allocator@D@2@@std@@PAVCGuild@@@std@@@1@@Z 00433290 f i guild.obj
 0001:000322c0       ?_Lbound@?$_Tree@V?$_Tmap_traits@V?$basic_string@DU?$char_traits@D@std@@V?$allocator@D@2@@std@@PAVCGuild@@U?$less@V?$basic_string@DU?$char_traits@D@std@@V?$allocator@D@2@@std@@@2@V?$allocator@U?$pair@$$CBV?$basic_string@DU?$char_traits@D@std@@V?$allocator@D@2@@std@@PAVCGuild@@@std@@@2@$0A@@std@@@std@@IBEPAU_Node@?$_Tree_nod@V?$_Tmap_traits@V?$basic_string@DU?$char_traits@D@std@@V?$allocator@D@2@@std@@PAVCGuild@@U?$less@V?$basic_string@DU?$char_traits@D@std@@V?$allocator@D@2@@std@@@2@V?$allocator@U?$pair@$$CBV?$basic_string@DU?$char_traits@D@std@@V?$allocator@D@2@@std@@PAVCGuild@@@std@@@2@$0A@@std@@@2@ABV?$basic_string@DU?$char_traits@D@std@@V?$allocator@D@2@@2@@Z 004332c0 f i guild.obj
 0001:00032380       ?_Ubound@?$_Tree@V?$_Tmap_traits@V?$basic_string@DU?$char_traits@D@std@@V?$allocator@D@2@@std@@PAVCGuild@@U?$less@V?$basic_string@DU?$char_traits@D@std@@V?$allocator@D@2@@std@@@2@V?$allocator@U?$pair@$$CBV?$basic_string@DU?$char_traits@D@std@@V?$allocator@D@2@@std@@PAVCGuild@@@std@@@2@$0A@@std@@@std@@IBEPAU_Node@?$_Tree_nod@V?$_Tmap_traits@V?$basic_string@DU?$char_traits@D@std@@V?$allocator@D@2@@std@@PAVCGuild@@U?$less@V?$basic_string@DU?$char_traits@D@std@@V?$allocator@D@2@@std@@@2@V?$allocator@U?$pair@$$CBV?$basic_string@DU?$char_traits@D@std@@V?$allocator@D@2@@std@@PAVCGuild@@@std@@@2@$0A@@std@@@2@ABV?$basic_string@DU?$char_traits@D@std@@V?$allocator@D@2@@2@@Z 00433380 f i guild.obj
 0001:00032430       ??$_Distance@Viterator@?$_Tree@V?$_Tmap_traits@KPAVCGuildMember@@U?$less@K@std@@V?$allocator@U?$pair@$$CBKPAVCGuildMember@@@std@@@3@$0A@@std@@@std@@I@std@@YAXViterator@?$_Tree@V?$_Tmap_traits@KPAVCGuildMember@@U?$less@K@std@@V?$allocator@U?$pair@$$CBKPAVCGuildMember@@@std@@@3@$0A@@std@@@0@0AAI@Z 00433430 f i guild.obj
 0001:00032470       ??$_Distance@Viterator@?$_Tree@V?$_Tmap_traits@KPAVCGuild@@U?$less@K@std@@V?$allocator@U?$pair@$$CBKPAVCGuild@@@std@@@3@$0A@@std@@@std@@I@std@@YAXViterator@?$_Tree@V?$_Tmap_traits@KPAVCGuild@@U?$less@K@std@@V?$allocator@U?$pair@$$CBKPAVCGuild@@@std@@@3@$0A@@std@@@0@0AAI@Z 00433470 f i guild.obj
 0001:000324b0       ??1_Node@?$_Tree_nod@V?$_Tmap_traits@V?$basic_string@DU?$char_traits@D@std@@V?$allocator@D@2@@std@@PAVCGuild@@U?$less@V?$basic_string@DU?$char_traits@D@std@@V?$allocator@D@2@@std@@@2@V?$allocator@U?$pair@$$CBV?$basic_string@DU?$char_traits@D@std@@V?$allocator@D@2@@std@@PAVCGuild@@@std@@@2@$0A@@std@@@std@@QAE@XZ 004334b0 f i guild.obj
 0001:000324e0       ?AddConnection@CGuildMng@@QAEXPAVCPlayer@@@Z 004334e0 f   guild.obj
 0001:00032640       ?lower_bound@?$_Tree@V?$_Tmap_traits@V?$basic_string@DU?$char_traits@D@std@@V?$allocator@D@2@@std@@PAVCGuild@@U?$less@V?$basic_string@DU?$char_traits@D@std@@V?$allocator@D@2@@std@@@2@V?$allocator@U?$pair@$$CBV?$basic_string@DU?$char_traits@D@std@@V?$allocator@D@2@@std@@PAVCGuild@@@std@@@2@$0A@@std@@@std@@QAE?AViterator@12@ABV?$basic_string@DU?$char_traits@D@std@@V?$allocator@D@2@@2@@Z 00433640 f i guild.obj
 0001:00032660       ?upper_bound@?$_Tree@V?$_Tmap_traits@V?$basic_string@DU?$char_traits@D@std@@V?$allocator@D@2@@std@@PAVCGuild@@U?$less@V?$basic_string@DU?$char_traits@D@std@@V?$allocator@D@2@@std@@@2@V?$allocator@U?$pair@$$CBV?$basic_string@DU?$char_traits@D@std@@V?$allocator@D@2@@std@@PAVCGuild@@@std@@@2@$0A@@std@@@std@@QAE?AViterator@12@ABV?$basic_string@DU?$char_traits@D@std@@V?$allocator@D@2@@2@@Z 00433660 f i guild.obj
 0001:00032680       ??_G_Node@?$_Tree_nod@V?$_Tmap_traits@V?$basic_string@DU?$char_traits@D@std@@V?$allocator@D@2@@std@@PAVCGuild@@U?$less@V?$basic_string@DU?$char_traits@D@std@@V?$allocator@D@2@@std@@@2@V?$allocator@U?$pair@$$CBV?$basic_string@DU?$char_traits@D@std@@V?$allocator@D@2@@std@@PAVCGuild@@@std@@@2@$0A@@std@@@std@@QAEPAXI@Z 00433680 f i guild.obj
 0001:000326a0       ?find@?$_Tree@V?$_Tmap_traits@V?$basic_string@DU?$char_traits@D@std@@V?$allocator@D@2@@std@@PAVCGuild@@U?$less@V?$basic_string@DU?$char_traits@D@std@@V?$allocator@D@2@@std@@@2@V?$allocator@U?$pair@$$CBV?$basic_string@DU?$char_traits@D@std@@V?$allocator@D@2@@std@@PAVCGuild@@@std@@@2@$0A@@std@@@std@@QAE?AViterator@12@ABV?$basic_string@DU?$char_traits@D@std@@V?$allocator@D@2@@2@@Z 004336a0 f i guild.obj
 0001:00032710       ??0?$pair@$$CBV?$basic_string@DU?$char_traits@D@std@@V?$allocator@D@2@@std@@PAVCGuild@@@std@@QAE@ABV?$basic_string@DU?$char_traits@D@std@@V?$allocator@D@2@@1@ABQAVCGuild@@@Z 00433710 f i guild.obj
 0001:00032740       ?equal_range@?$_Tree@V?$_Tmap_traits@V?$basic_string@DU?$char_traits@D@std@@V?$allocator@D@2@@std@@PAVCGuild@@U?$less@V?$basic_string@DU?$char_traits@D@std@@V?$allocator@D@2@@std@@@2@V?$allocator@U?$pair@$$CBV?$basic_string@DU?$char_traits@D@std@@V?$allocator@D@2@@std@@PAVCGuild@@@std@@@2@$0A@@std@@@std@@QAE?AU?$pair@Viterator@?$_Tree@V?$_Tmap_traits@V?$basic_string@DU?$char_traits@D@std@@V?$allocator@D@2@@std@@PAVCGuild@@U?$less@V?$basic_string@DU?$char_traits@D@std@@V?$allocator@D@2@@std@@@2@V?$allocator@U?$pair@$$CBV?$basic_string@DU?$char_traits@D@std@@V?$allocator@D@2@@std@@PAVCGuild@@@std@@@2@$0A@@std@@@std@@V123@@2@ABV?$basic_string@DU?$char_traits@D@std@@V?$allocator@D@2@@2@@Z 00433740 f i guild.obj
 0001:00032770       ??0?$pair@$$CBV?$basic_string@DU?$char_traits@D@std@@V?$allocator@D@2@@std@@PAVCGuild@@@std@@QAE@ABU01@@Z 00433770 f i guild.obj
 0001:000327a0       ??$_Destroy@U_Node@?$_Tree_nod@V?$_Tmap_traits@V?$basic_string@DU?$char_traits@D@std@@V?$allocator@D@2@@std@@PAVCGuild@@U?$less@V?$basic_string@DU?$char_traits@D@std@@V?$allocator@D@2@@std@@@2@V?$allocator@U?$pair@$$CBV?$basic_string@DU?$char_traits@D@std@@V?$allocator@D@2@@std@@PAVCGuild@@@std@@@2@$0A@@std@@@std@@@std@@YAXPAU_Node@?$_Tree_nod@V?$_Tmap_traits@V?$basic_string@DU?$char_traits@D@std@@V?$allocator@D@2@@std@@PAVCGuild@@U?$less@V?$basic_string@DU?$char_traits@D@std@@V?$allocator@D@2@@std@@@2@V?$allocator@U?$pair@$$CBV?$basic_string@DU?$char_traits@D@std@@V?$allocator@D@2@@std@@PAVCGuild@@@std@@@2@$0A@@std@@@0@@Z 004337a0 f i guild.obj
 0001:000327b0       ?GetGuild@CGuildMng@@QAEPAVCGuild@@PBD@Z 004337b0 f   guild.obj
 0001:00032870       ?_Insert@?$_Tree@V?$_Tmap_traits@KPAVCGuildMember@@U?$less@K@std@@V?$allocator@U?$pair@$$CBKPAVCGuildMember@@@std@@@3@$0A@@std@@@std@@IAE?AViterator@12@_NPAU_Node@?$_Tree_nod@V?$_Tmap_traits@KPAVCGuildMember@@U?$less@K@std@@V?$allocator@U?$pair@$$CBKPAVCGuildMember@@@std@@@3@$0A@@std@@@2@ABU?$pair@$$CBKPAVCGuildMember@@@2@@Z 00433870 f i guild.obj
 0001:00032a20       ?_Insert@?$_Tree@V?$_Tmap_traits@KPAVCGuild@@U?$less@K@std@@V?$allocator@U?$pair@$$CBKPAVCGuild@@@std@@@3@$0A@@std@@@std@@IAE?AViterator@12@_NPAU_Node@?$_Tree_nod@V?$_Tmap_traits@KPAVCGuild@@U?$less@K@std@@V?$allocator@U?$pair@$$CBKPAVCGuild@@@std@@@3@$0A@@std@@@2@ABU?$pair@$$CBKPAVCGuild@@@2@@Z 00433a20 f i guild.obj
 0001:00032bd0       ?erase@?$_Tree@V?$_Tmap_traits@KPAVCGuildMember@@U?$less@K@std@@V?$allocator@U?$pair@$$CBKPAVCGuildMember@@@std@@@3@$0A@@std@@@std@@QAE?AViterator@12@V312@@Z 00433bd0 f i guild.obj
 0001:00032e90       ?_Incsize@?$list@PAVCGuildVote@@V?$allocator@PAVCGuildVote@@@std@@@std@@IAEXI@Z 00433e90 f i guild.obj
 0001:00032f30       ?erase@?$_Tree@V?$_Tmap_traits@KPAVCGuild@@U?$less@K@std@@V?$allocator@U?$pair@$$CBKPAVCGuild@@@std@@@3@$0A@@std@@@std@@QAE?AViterator@12@V312@@Z 00433f30 f i guild.obj
 0001:000331f0       ?destroy@?$allocator@U_Node@?$_Tree_nod@V?$_Tmap_traits@V?$basic_string@DU?$char_traits@D@std@@V?$allocator@D@2@@std@@PAVCGuild@@U?$less@V?$basic_string@DU?$char_traits@D@std@@V?$allocator@D@2@@std@@@2@V?$allocator@U?$pair@$$CBV?$basic_string@DU?$char_traits@D@std@@V?$allocator@D@2@@std@@PAVCGuild@@@std@@@2@$0A@@std@@@std@@@std@@QAEXPAU_Node@?$_Tree_nod@V?$_Tmap_traits@V?$basic_string@DU?$char_traits@D@std@@V?$allocator@D@2@@std@@PAVCGuild@@U?$less@V?$basic_string@DU?$char_traits@D@std@@V?$allocator@D@2@@std@@@2@V?$allocator@U?$pair@$$CBV?$basic_string@DU?$char_traits@D@std@@V?$allocator@D@2@@std@@PAVCGuild@@@std@@@2@$0A@@std@@@2@@Z 004341f0 f i guild.obj
 0001:00033200       ??0_Node@?$_Tree_nod@V?$_Tmap_traits@V?$basic_string@DU?$char_traits@D@std@@V?$allocator@D@2@@std@@PAVCGuild@@U?$less@V?$basic_string@DU?$char_traits@D@std@@V?$allocator@D@2@@std@@@2@V?$allocator@U?$pair@$$CBV?$basic_string@DU?$char_traits@D@std@@V?$allocator@D@2@@std@@PAVCGuild@@@std@@@2@$0A@@std@@@std@@QAE@PAU012@00ABU?$pair@$$CBV?$basic_string@DU?$char_traits@D@std@@V?$allocator@D@2@@std@@PAVCGuild@@@2@D@Z 00434200 f i guild.obj
 0001:00033260       ?insert@?$_Tree@V?$_Tmap_traits@KPAVCGuildMember@@U?$less@K@std@@V?$allocator@U?$pair@$$CBKPAVCGuildMember@@@std@@@3@$0A@@std@@@std@@QAE?AU?$pair@Viterator@?$_Tree@V?$_Tmap_traits@KPAVCGuildMember@@U?$less@K@std@@V?$allocator@U?$pair@$$CBKPAVCGuildMember@@@std@@@3@$0A@@std@@@std@@_N@2@ABU?$pair@$$CBKPAVCGuildMember@@@2@@Z 00434260 f i guild.obj
 0001:00033320       ?insert@?$_Tree@V?$_Tmap_traits@KPAVCGuild@@U?$less@K@std@@V?$allocator@U?$pair@$$CBKPAVCGuild@@@std@@@3@$0A@@std@@@std@@QAE?AU?$pair@Viterator@?$_Tree@V?$_Tmap_traits@KPAVCGuild@@U?$less@K@std@@V?$allocator@U?$pair@$$CBKPAVCGuild@@@std@@@3@$0A@@std@@@std@@_N@2@ABU?$pair@$$CBKPAVCGuild@@@2@@Z 00434320 f i guild.obj
 0001:000333e0       ?erase@?$_Tree@V?$_Tmap_traits@KPAVCGuildMember@@U?$less@K@std@@V?$allocator@U?$pair@$$CBKPAVCGuildMember@@@std@@@3@$0A@@std@@@std@@QAE?AViterator@12@V312@0@Z 004343e0 f i guild.obj
 0001:000334a0       ?_Tidy@?$_Tree@V?$_Tmap_traits@KPAVCGuildMember@@U?$less@K@std@@V?$allocator@U?$pair@$$CBKPAVCGuildMember@@@std@@@3@$0A@@std@@@std@@IAEXXZ 004344a0 f i guild.obj
 0001:000334d0       ?_Insert@?$list@PAVCGuildVote@@V?$allocator@PAVCGuildVote@@@std@@@std@@QAEXViterator@12@ABQAVCGuildVote@@@Z 004344d0 f i guild.obj
 0001:00033510       ?erase@?$_Tree@V?$_Tmap_traits@KPAVCGuild@@U?$less@K@std@@V?$allocator@U?$pair@$$CBKPAVCGuild@@@std@@@3@$0A@@std@@@std@@QAE?AViterator@12@V312@0@Z 00434510 f i guild.obj
 0001:000335d0       ?_Tidy@?$_Tree@V?$_Tmap_traits@KPAVCGuild@@U?$less@K@std@@V?$allocator@U?$pair@$$CBKPAVCGuild@@@std@@@3@$0A@@std@@@std@@IAEXXZ 004345d0 f i guild.obj
 0001:00033600       ?_Erase@?$_Tree@V?$_Tmap_traits@V?$basic_string@DU?$char_traits@D@std@@V?$allocator@D@2@@std@@PAVCGuild@@U?$less@V?$basic_string@DU?$char_traits@D@std@@V?$allocator@D@2@@std@@@2@V?$allocator@U?$pair@$$CBV?$basic_string@DU?$char_traits@D@std@@V?$allocator@D@2@@std@@PAVCGuild@@@std@@@2@$0A@@std@@@std@@IAEXPAU_Node@?$_Tree_nod@V?$_Tmap_traits@V?$basic_string@DU?$char_traits@D@std@@V?$allocator@D@2@@std@@PAVCGuild@@U?$less@V?$basic_string@DU?$char_traits@D@std@@V?$allocator@D@2@@std@@@2@V?$allocator@U?$pair@$$CBV?$basic_string@DU?$char_traits@D@std@@V?$allocator@D@2@@std@@PAVCGuild@@@std@@@2@$0A@@std@@@2@@Z 00434600 f i guild.obj
 0001:00033640       ?erase@?$_Tree@V?$_Tmap_traits@V?$basic_string@DU?$char_traits@D@std@@V?$allocator@D@2@@std@@PAVCGuild@@U?$less@V?$basic_string@DU?$char_traits@D@std@@V?$allocator@D@2@@std@@@2@V?$allocator@U?$pair@$$CBV?$basic_string@DU?$char_traits@D@std@@V?$allocator@D@2@@std@@PAVCGuild@@@std@@@2@$0A@@std@@@std@@QAE?AViterator@12@V312@@Z 00434640 f i guild.obj
 0001:00033920       ?_Buynode@?$_Tree@V?$_Tmap_traits@V?$basic_string@DU?$char_traits@D@std@@V?$allocator@D@2@@std@@PAVCGuild@@U?$less@V?$basic_string@DU?$char_traits@D@std@@V?$allocator@D@2@@std@@@2@V?$allocator@U?$pair@$$CBV?$basic_string@DU?$char_traits@D@std@@V?$allocator@D@2@@std@@PAVCGuild@@@std@@@2@$0A@@std@@@std@@IAEPAU_Node@?$_Tree_nod@V?$_Tmap_traits@V?$basic_string@DU?$char_traits@D@std@@V?$allocator@D@2@@std@@PAVCGuild@@U?$less@V?$basic_string@DU?$char_traits@D@std@@V?$allocator@D@2@@std@@@2@V?$allocator@U?$pair@$$CBV?$basic_string@DU?$char_traits@D@std@@V?$allocator@D@2@@std@@PAVCGuild@@@std@@@2@$0A@@std@@@2@PAU342@00ABU?$pair@$$CBV?$basic_string@DU?$char_traits@D@std@@V?$allocator@D@2@@std@@PAVCGuild@@@2@D@Z 00434920 f i guild.obj
 0001:000339b0       ?AddMember@CGuild@@QAEHPAVCGuildMember@@@Z 004349b0 f   guild.obj
 0001:00033a20       ??1?$_Tree@V?$_Tmap_traits@KPAVCGuildMember@@U?$less@K@std@@V?$allocator@U?$pair@$$CBKPAVCGuildMember@@@std@@@3@$0A@@std@@@std@@QAE@XZ 00434a20 f i guild.obj
 0001:00033a50       ?erase@?$_Tree@V?$_Tmap_traits@KPAVCGuildMember@@U?$less@K@std@@V?$allocator@U?$pair@$$CBKPAVCGuildMember@@@std@@@3@$0A@@std@@@std@@QAEIABK@Z 00434a50 f i guild.obj
 0001:00033ab0       ?push_back@?$list@PAVCGuildVote@@V?$allocator@PAVCGuildVote@@@std@@@std@@QAEXABQAVCGuildVote@@@Z 00434ab0 f i guild.obj
 0001:00033af0       ??1?$_Tree@V?$_Tmap_traits@KPAVCGuild@@U?$less@K@std@@V?$allocator@U?$pair@$$CBKPAVCGuild@@@std@@@3@$0A@@std@@@std@@QAE@XZ 00434af0 f i guild.obj
 0001:00033b20       ?erase@?$_Tree@V?$_Tmap_traits@KPAVCGuild@@U?$less@K@std@@V?$allocator@U?$pair@$$CBKPAVCGuild@@@std@@@3@$0A@@std@@@std@@QAEIABK@Z 00434b20 f i guild.obj
 0001:00033b80       ?clear@?$_Tree@V?$_Tmap_traits@V?$basic_string@DU?$char_traits@D@std@@V?$allocator@D@2@@std@@PAVCGuild@@U?$less@V?$basic_string@DU?$char_traits@D@std@@V?$allocator@D@2@@std@@@2@V?$allocator@U?$pair@$$CBV?$basic_string@DU?$char_traits@D@std@@V?$allocator@D@2@@std@@PAVCGuild@@@std@@@2@$0A@@std@@@std@@QAEXXZ 00434b80 f i guild.obj
 0001:00033bb0       ?erase@?$_Tree@V?$_Tmap_traits@V?$basic_string@DU?$char_traits@D@std@@V?$allocator@D@2@@std@@PAVCGuild@@U?$less@V?$basic_string@DU?$char_traits@D@std@@V?$allocator@D@2@@std@@@2@V?$allocator@U?$pair@$$CBV?$basic_string@DU?$char_traits@D@std@@V?$allocator@D@2@@std@@PAVCGuild@@@std@@@2@$0A@@std@@@std@@QAE?AViterator@12@V312@0@Z 00434bb0 f i guild.obj
 0001:00033c70       ?_Insert@?$_Tree@V?$_Tmap_traits@V?$basic_string@DU?$char_traits@D@std@@V?$allocator@D@2@@std@@PAVCGuild@@U?$less@V?$basic_string@DU?$char_traits@D@std@@V?$allocator@D@2@@std@@@2@V?$allocator@U?$pair@$$CBV?$basic_string@DU?$char_traits@D@std@@V?$allocator@D@2@@std@@PAVCGuild@@@std@@@2@$0A@@std@@@std@@IAE?AViterator@12@_NPAU_Node@?$_Tree_nod@V?$_Tmap_traits@V?$basic_string@DU?$char_traits@D@std@@V?$allocator@D@2@@std@@PAVCGuild@@U?$less@V?$basic_string@DU?$char_traits@D@std@@V?$allocator@D@2@@std@@@2@V?$allocator@U?$pair@$$CBV?$basic_string@DU?$char_traits@D@std@@V?$allocator@D@2@@std@@PAVCGuild@@@std@@@2@$0A@@std@@@2@ABU?$pair@$$CBV?$basic_string@DU?$char_traits@D@std@@V?$allocator@D@2@@std@@PAVCGuild@@@2@@Z 00434c70 f i guild.obj
 0001:00033e20       ?_Tidy@?$_Tree@V?$_Tmap_traits@V?$basic_string@DU?$char_traits@D@std@@V?$allocator@D@2@@std@@PAVCGuild@@U?$less@V?$basic_string@DU?$char_traits@D@std@@V?$allocator@D@2@@std@@@2@V?$allocator@U?$pair@$$CBV?$basic_string@DU?$char_traits@D@std@@V?$allocator@D@2@@std@@PAVCGuild@@@std@@@2@$0A@@std@@@std@@IAEXXZ 00434e20 f i guild.obj
 0001:00033e50       ??1?$map@KPAVCGuildMember@@U?$less@K@std@@V?$allocator@U?$pair@$$CBKPAVCGuildMember@@@std@@@3@@std@@QAE@XZ 00434e50 f i guild.obj
 0001:00033e80       ??1CGuild@@UAE@XZ          00434e80 f   guild.obj
 0001:00033f20       ?RemoveMember@CGuild@@QAEHK@Z 00434f20 f   guild.obj
 0001:00033f80       ?AddVote@CGuild@@QAEXABUVOTE_INSERTED_INFO@@_NPAE@Z 00434f80 f   guild.obj
 0001:00034070       ??1?$map@KPAVCGuild@@U?$less@K@std@@V?$allocator@U?$pair@$$CBKPAVCGuild@@@std@@@3@@std@@QAE@XZ 00435070 f i guild.obj
 0001:000340a0       ?Clear@CGuildMng@@QAEXXZ   004350a0 f   guild.obj
 0001:00034170       ??0?$map@KPAVCGuildMember@@U?$less@K@std@@V?$allocator@U?$pair@$$CBKPAVCGuildMember@@@std@@@3@@std@@QAE@XZ 00435170 f i guild.obj
 0001:000341a0       ??0?$map@KPAVCGuild@@U?$less@K@std@@V?$allocator@U?$pair@$$CBKPAVCGuild@@@std@@@3@@std@@QAE@XZ 004351a0 f i guild.obj
 0001:000341d0       ??1?$_Tree@V?$_Tmap_traits@V?$basic_string@DU?$char_traits@D@std@@V?$allocator@D@2@@std@@PAVCGuild@@U?$less@V?$basic_string@DU?$char_traits@D@std@@V?$allocator@D@2@@std@@@2@V?$allocator@U?$pair@$$CBV?$basic_string@DU?$char_traits@D@std@@V?$allocator@D@2@@std@@PAVCGuild@@@std@@@2@$0A@@std@@@std@@QAE@XZ 004351d0 f i guild.obj
 0001:00034200       ?insert@?$_Tree@V?$_Tmap_traits@V?$basic_string@DU?$char_traits@D@std@@V?$allocator@D@2@@std@@PAVCGuild@@U?$less@V?$basic_string@DU?$char_traits@D@std@@V?$allocator@D@2@@std@@@2@V?$allocator@U?$pair@$$CBV?$basic_string@DU?$char_traits@D@std@@V?$allocator@D@2@@std@@PAVCGuild@@@std@@@2@$0A@@std@@@std@@QAE?AU?$pair@Viterator@?$_Tree@V?$_Tmap_traits@V?$basic_string@DU?$char_traits@D@std@@V?$allocator@D@2@@std@@PAVCGuild@@U?$less@V?$basic_string@DU?$char_traits@D@std@@V?$allocator@D@2@@std@@@2@V?$allocator@U?$pair@$$CBV?$basic_string@DU?$char_traits@D@std@@V?$allocator@D@2@@std@@PAVCGuild@@@std@@@2@$0A@@std@@@std@@_N@2@ABU?$pair@$$CBV?$basic_string@DU?$char_traits@D@std@@V?$allocator@D@2@@std@@PAVCGuild@@@2@@Z 00435200 f i guild.obj
 0001:00034380       ?erase@?$_Tree@V?$_Tmap_traits@V?$basic_string@DU?$char_traits@D@std@@V?$allocator@D@2@@std@@PAVCGuild@@U?$less@V?$basic_string@DU?$char_traits@D@std@@V?$allocator@D@2@@std@@@2@V?$allocator@U?$pair@$$CBV?$basic_string@DU?$char_traits@D@std@@V?$allocator@D@2@@std@@PAVCGuild@@@std@@@2@$0A@@std@@@std@@QAEIABV?$basic_string@DU?$char_traits@D@std@@V?$allocator@D@2@@2@@Z 00435380 f i guild.obj
 0001:000343d0       ??0CGuild@@QAE@XZ          004353d0 f   guild.obj
 0001:00034500       ??_ECGuild@@UAEPAXI@Z      00435500 f i guild.obj
 0001:00034500       ??_GCGuild@@UAEPAXI@Z      00435500 f i guild.obj
 0001:00034550       ??1?$map@V?$basic_string@DU?$char_traits@D@std@@V?$allocator@D@2@@std@@PAVCGuild@@U?$less@V?$basic_string@DU?$char_traits@D@std@@V?$allocator@D@2@@std@@@2@V?$allocator@U?$pair@$$CBV?$basic_string@DU?$char_traits@D@std@@V?$allocator@D@2@@std@@PAVCGuild@@@std@@@2@@std@@QAE@XZ 00435550 f i guild.obj
 0001:00034580       ??1CGuildMng@@UAE@XZ       00435580 f   guild.obj
 0001:00034640       ?SetName@CGuildMng@@QAEHPAVCGuild@@PBD@Z 00435640 f   guild.obj
 0001:000347e0       ?AddGuild@CGuildMng@@QAEKPAVCGuild@@@Z 004357e0 f   guild.obj
 0001:00034940       ?RemoveGuild@CGuildMng@@QAEHK@Z 00435940 f   guild.obj
 0001:00034a50       ??0?$MemPooler@VCGuildMember@@@@QAE@H@Z 00435a50 f i guild.obj
 0001:00034ad0       ??0?$MemPooler@VCGuild@@@@QAE@H@Z 00435ad0 f i guild.obj
 0001:00034b50       ??0?$map@V?$basic_string@DU?$char_traits@D@std@@V?$allocator@D@2@@std@@PAVCGuild@@U?$less@V?$basic_string@DU?$char_traits@D@std@@V?$allocator@D@2@@std@@@2@V?$allocator@U?$pair@$$CBV?$basic_string@DU?$char_traits@D@std@@V?$allocator@D@2@@std@@PAVCGuild@@@std@@@2@@std@@QAE@XZ 00435b50 f i guild.obj
 0001:00034b80       ?Serialize@CGuild@@QAEXAAVCAr@@H@Z 00435b80 f   guild.obj
 0001:00035130       ??4CGuild@@QAEAAV0@AAV0@@Z 00436130 f   guild.obj
 0001:00035230       ??0CGuildMng@@QAE@XZ       00436230 f   guild.obj
 0001:000352d0       ??_ECGuildMng@@UAEPAXI@Z   004362d0 f i guild.obj
 0001:000352d0       ??_GCGuildMng@@UAEPAXI@Z   004362d0 f i guild.obj
 0001:000352f0       ?Serialize@CGuildMng@@QAEXAAVCAr@@H@Z 004362f0 f   guild.obj
 0001:000355e0       ??0CGuildWar@@QAE@XZ       004365e0 f   guildwar.obj
 0001:00035620       ??1CGuildWar@@QAE@XZ       00436620 f   guildwar.obj
 0001:00035630       ?size@?$_Tree@V?$_Tmap_traits@KPAVCGuildWar@@U?$less@K@std@@V?$allocator@U?$pair@$$CBKPAVCGuildWar@@@std@@@3@$0A@@std@@@std@@QBEIXZ 00436630 f i guildwar.obj
 0001:00035640       ??0?$pair@$$CBKPAVCGuildWar@@@std@@QAE@ABKABQAVCGuildWar@@@Z 00436640 f i guildwar.obj
 0001:00035660       ?_Isnil@?$_Tree@V?$_Tmap_traits@KPAVCGuildWar@@U?$less@K@std@@V?$allocator@U?$pair@$$CBKPAVCGuildWar@@@std@@@3@$0A@@std@@@std@@KAAADPAU_Node@?$_Tree_nod@V?$_Tmap_traits@KPAVCGuildWar@@U?$less@K@std@@V?$allocator@U?$pair@$$CBKPAVCGuildWar@@@std@@@3@$0A@@std@@@2@@Z 00436660 f i guildwar.obj
 0001:00035670       ?_Left@?$_Tree@V?$_Tmap_traits@KPAVCGuildWar@@U?$less@K@std@@V?$allocator@U?$pair@$$CBKPAVCGuildWar@@@std@@@3@$0A@@std@@@std@@KAAAPAU_Node@?$_Tree_nod@V?$_Tmap_traits@KPAVCGuildWar@@U?$less@K@std@@V?$allocator@U?$pair@$$CBKPAVCGuildWar@@@std@@@3@$0A@@std@@@2@PAU342@@Z 00436670 f i guildwar.obj
 0001:00035680       ?_Right@?$_Tree@V?$_Tmap_traits@KPAVCGuildWar@@U?$less@K@std@@V?$allocator@U?$pair@$$CBKPAVCGuildWar@@@std@@@3@$0A@@std@@@std@@KAAAPAU_Node@?$_Tree_nod@V?$_Tmap_traits@KPAVCGuildWar@@U?$less@K@std@@V?$allocator@U?$pair@$$CBKPAVCGuildWar@@@std@@@3@$0A@@std@@@2@PAU342@@Z 00436680 f i guildwar.obj
 0001:00035690       ?_Lmost@?$_Tree@V?$_Tmap_traits@KPAVCGuildWar@@U?$less@K@std@@V?$allocator@U?$pair@$$CBKPAVCGuildWar@@@std@@@3@$0A@@std@@@std@@IAEAAPAU_Node@?$_Tree_nod@V?$_Tmap_traits@KPAVCGuildWar@@U?$less@K@std@@V?$allocator@U?$pair@$$CBKPAVCGuildWar@@@std@@@3@$0A@@std@@@2@XZ 00436690 f i guildwar.obj
 0001:000356a0       ?_Rmost@?$_Tree@V?$_Tmap_traits@KPAVCGuildWar@@U?$less@K@std@@V?$allocator@U?$pair@$$CBKPAVCGuildWar@@@std@@@3@$0A@@std@@@std@@IAEAAPAU_Node@?$_Tree_nod@V?$_Tmap_traits@KPAVCGuildWar@@U?$less@K@std@@V?$allocator@U?$pair@$$CBKPAVCGuildWar@@@std@@@3@$0A@@std@@@2@XZ 004366a0 f i guildwar.obj
 0001:000356b0       ?_Kfn@?$_Tmap_traits@KPAVCGuildWar@@U?$less@K@std@@V?$allocator@U?$pair@$$CBKPAVCGuildWar@@@std@@@3@$0A@@std@@SAABKABU?$pair@$$CBKPAVCGuildWar@@@2@@Z 004366b0 f i guildwar.obj
 0001:000356c0       ??0?$allocator@U?$pair@$$CBKPAVCGuildWar@@@std@@@std@@QAE@XZ 004366c0 f i guildwar.obj
 0001:000356d0       ??8const_iterator@?$_Tree@V?$_Tmap_traits@KPAVCGuildWar@@U?$less@K@std@@V?$allocator@U?$pair@$$CBKPAVCGuildWar@@@std@@@3@$0A@@std@@@std@@QBE_NABV012@@Z 004366d0 f i guildwar.obj
 0001:000356e0       ?_Mynode@const_iterator@?$_Tree@V?$_Tmap_traits@KPAVCGuildWar@@U?$less@K@std@@V?$allocator@U?$pair@$$CBKPAVCGuildWar@@@std@@@3@$0A@@std@@@std@@QBEPAU_Node@?$_Tree_nod@V?$_Tmap_traits@KPAVCGuildWar@@U?$less@K@std@@V?$allocator@U?$pair@$$CBKPAVCGuildWar@@@std@@@3@$0A@@std@@@3@XZ 004366e0 f i guildwar.obj
 0001:000356f0       ??0?$pair@Viterator@?$_Tree@V?$_Tmap_traits@KPAVCGuildWar@@U?$less@K@std@@V?$allocator@U?$pair@$$CBKPAVCGuildWar@@@std@@@3@$0A@@std@@@std@@_N@std@@QAE@ABViterator@?$_Tree@V?$_Tmap_traits@KPAVCGuildWar@@U?$less@K@std@@V?$allocator@U?$pair@$$CBKPAVCGuildWar@@@std@@@3@$0A@@std@@@1@AB_N@Z 004366f0 f i guildwar.obj
 0001:00035710       ?_Color@?$_Tree@V?$_Tmap_traits@KPAVCGuildWar@@U?$less@K@std@@V?$allocator@U?$pair@$$CBKPAVCGuildWar@@@std@@@3@$0A@@std@@@std@@KAAADPAU_Node@?$_Tree_nod@V?$_Tmap_traits@KPAVCGuildWar@@U?$less@K@std@@V?$allocator@U?$pair@$$CBKPAVCGuildWar@@@std@@@3@$0A@@std@@@2@@Z 00436710 f i guildwar.obj
 0001:00035720       ?_Parent@?$_Tree@V?$_Tmap_traits@KPAVCGuildWar@@U?$less@K@std@@V?$allocator@U?$pair@$$CBKPAVCGuildWar@@@std@@@3@$0A@@std@@@std@@KAAAPAU_Node@?$_Tree_nod@V?$_Tmap_traits@KPAVCGuildWar@@U?$less@K@std@@V?$allocator@U?$pair@$$CBKPAVCGuildWar@@@std@@@3@$0A@@std@@@2@PAU342@@Z 00436720 f i guildwar.obj
 0001:00035730       ?_Myval@?$_Tree@V?$_Tmap_traits@KPAVCGuildWar@@U?$less@K@std@@V?$allocator@U?$pair@$$CBKPAVCGuildWar@@@std@@@3@$0A@@std@@@std@@KAAAU?$pair@$$CBKPAVCGuildWar@@@2@PAU_Node@?$_Tree_nod@V?$_Tmap_traits@KPAVCGuildWar@@U?$less@K@std@@V?$allocator@U?$pair@$$CBKPAVCGuildWar@@@std@@@3@$0A@@std@@@2@@Z 00436730 f i guildwar.obj
 0001:00035740       ??0?$allocator@U?$pair@$$CBKPAVCGuildWar@@@std@@@std@@QAE@ABV01@@Z 00436740 f i guildwar.obj
 0001:00035750       ?deallocate@?$allocator@U_Node@?$_Tree_nod@V?$_Tmap_traits@KPAVCGuildWar@@U?$less@K@std@@V?$allocator@U?$pair@$$CBKPAVCGuildWar@@@std@@@3@$0A@@std@@@std@@@std@@QAEXPAU_Node@?$_Tree_nod@V?$_Tmap_traits@KPAVCGuildWar@@U?$less@K@std@@V?$allocator@U?$pair@$$CBKPAVCGuildWar@@@std@@@3@$0A@@std@@@2@I@Z 00436750 f i guildwar.obj
 0001:00035760       ??0const_iterator@?$_Tree@V?$_Tmap_traits@KPAVCGuildWar@@U?$less@K@std@@V?$allocator@U?$pair@$$CBKPAVCGuildWar@@@std@@@3@$0A@@std@@@std@@QAE@PAU_Node@?$_Tree_nod@V?$_Tmap_traits@KPAVCGuildWar@@U?$less@K@std@@V?$allocator@U?$pair@$$CBKPAVCGuildWar@@@std@@@3@$0A@@std@@@2@@Z 00436760 f i guildwar.obj
 0001:00035770       ??Dconst_iterator@?$_Tree@V?$_Tmap_traits@KPAVCGuildWar@@U?$less@K@std@@V?$allocator@U?$pair@$$CBKPAVCGuildWar@@@std@@@3@$0A@@std@@@std@@QBEABU?$pair@$$CBKPAVCGuildWar@@@2@XZ 00436770 f i guildwar.obj
 0001:00035780       ??0?$pair@Viterator@?$_Tree@V?$_Tmap_traits@KPAVCGuildWar@@U?$less@K@std@@V?$allocator@U?$pair@$$CBKPAVCGuildWar@@@std@@@3@$0A@@std@@@std@@V123@@std@@QAE@ABViterator@?$_Tree@V?$_Tmap_traits@KPAVCGuildWar@@U?$less@K@std@@V?$allocator@U?$pair@$$CBKPAVCGuildWar@@@std@@@3@$0A@@std@@@1@0@Z 00436780 f i guildwar.obj
 0001:000357a0       ?_Max@?$_Tree@V?$_Tmap_traits@KPAVCGuildWar@@U?$less@K@std@@V?$allocator@U?$pair@$$CBKPAVCGuildWar@@@std@@@3@$0A@@std@@@std@@KAPAU_Node@?$_Tree_nod@V?$_Tmap_traits@KPAVCGuildWar@@U?$less@K@std@@V?$allocator@U?$pair@$$CBKPAVCGuildWar@@@std@@@3@$0A@@std@@@2@PAU342@@Z 004367a0 f i guildwar.obj
 0001:000357c0       ?_Min@?$_Tree@V?$_Tmap_traits@KPAVCGuildWar@@U?$less@K@std@@V?$allocator@U?$pair@$$CBKPAVCGuildWar@@@std@@@3@$0A@@std@@@std@@KAPAU_Node@?$_Tree_nod@V?$_Tmap_traits@KPAVCGuildWar@@U?$less@K@std@@V?$allocator@U?$pair@$$CBKPAVCGuildWar@@@std@@@3@$0A@@std@@@2@PAU342@@Z 004367c0 f i guildwar.obj
 0001:000357e0       ?_Root@?$_Tree@V?$_Tmap_traits@KPAVCGuildWar@@U?$less@K@std@@V?$allocator@U?$pair@$$CBKPAVCGuildWar@@@std@@@3@$0A@@std@@@std@@IBEAAPAU_Node@?$_Tree_nod@V?$_Tmap_traits@KPAVCGuildWar@@U?$less@K@std@@V?$allocator@U?$pair@$$CBKPAVCGuildWar@@@std@@@3@$0A@@std@@@2@XZ 004367e0 f i guildwar.obj
 0001:000357f0       ?max_size@?$allocator@U?$pair@$$CBKPAVCGuildWar@@@std@@@std@@QBEIXZ 004367f0 f i guildwar.obj
 0001:00035800       ?_Dec@const_iterator@?$_Tree@V?$_Tmap_traits@KPAVCGuildWar@@U?$less@K@std@@V?$allocator@U?$pair@$$CBKPAVCGuildWar@@@std@@@3@$0A@@std@@@std@@QAEXXZ 00436800 f i guildwar.obj
 0001:00035860       ??0_Node@?$_Tree_nod@V?$_Tmap_traits@KPAVCGuildWar@@U?$less@K@std@@V?$allocator@U?$pair@$$CBKPAVCGuildWar@@@std@@@3@$0A@@std@@@std@@QAE@PAU012@00ABU?$pair@$$CBKPAVCGuildWar@@@2@D@Z 00436860 f i guildwar.obj
 0001:000358a0       ??0?$_Tmap_traits@KPAVCGuildWar@@U?$less@K@std@@V?$allocator@U?$pair@$$CBKPAVCGuildWar@@@std@@@3@$0A@@std@@QAE@U?$less@K@1@@Z 004368a0 f i guildwar.obj
 0001:000358b0       ??$_Destroy@U_Node@?$_Tree_nod@V?$_Tmap_traits@KPAVCGuildWar@@U?$less@K@std@@V?$allocator@U?$pair@$$CBKPAVCGuildWar@@@std@@@3@$0A@@std@@@std@@@std@@YAXPAU_Node@?$_Tree_nod@V?$_Tmap_traits@KPAVCGuildWar@@U?$less@K@std@@V?$allocator@U?$pair@$$CBKPAVCGuildWar@@@std@@@3@$0A@@std@@@0@@Z 004368b0 f i guildwar.obj
 0001:000358c0       ??$_Destroy@PAU_Node@?$_Tree_nod@V?$_Tmap_traits@KPAVCGuildWar@@U?$less@K@std@@V?$allocator@U?$pair@$$CBKPAVCGuildWar@@@std@@@3@$0A@@std@@@std@@@std@@YAXPAPAU_Node@?$_Tree_nod@V?$_Tmap_traits@KPAVCGuildWar@@U?$less@K@std@@V?$allocator@U?$pair@$$CBKPAVCGuildWar@@@std@@@3@$0A@@std@@@0@@Z 004368c0 f i guildwar.obj
 0001:000358d0       ??$?0U?$pair@$$CBKPAVCGuildWar@@@std@@@?$allocator@PAU_Node@?$_Tree_nod@V?$_Tmap_traits@KPAVCGuildWar@@U?$less@K@std@@V?$allocator@U?$pair@$$CBKPAVCGuildWar@@@std@@@3@$0A@@std@@@std@@@std@@QAE@ABV?$allocator@U?$pair@$$CBKPAVCGuildWar@@@std@@@1@@Z 004368d0 f i guildwar.obj
 0001:000358e0       ??$_Allocate@U_Node@?$_Tree_nod@V?$_Tmap_traits@KPAVCGuildWar@@U?$less@K@std@@V?$allocator@U?$pair@$$CBKPAVCGuildWar@@@std@@@3@$0A@@std@@@std@@@std@@YAPAU_Node@?$_Tree_nod@V?$_Tmap_traits@KPAVCGuildWar@@U?$less@K@std@@V?$allocator@U?$pair@$$CBKPAVCGuildWar@@@std@@@3@$0A@@std@@@0@IPAU120@@Z 004368e0 f i guildwar.obj
 0001:00035900       ??$?0U?$pair@$$CBKPAVCGuildWar@@@std@@@?$allocator@U_Node@?$_Tree_nod@V?$_Tmap_traits@KPAVCGuildWar@@U?$less@K@std@@V?$allocator@U?$pair@$$CBKPAVCGuildWar@@@std@@@3@$0A@@std@@@std@@@std@@QAE@ABV?$allocator@U?$pair@$$CBKPAVCGuildWar@@@std@@@1@@Z 00436900 f i guildwar.obj
